ARM GAS  C:\Users\jenny\AppData\Local\Temp\ccWqzXsD.s 			page 1


   1              		.syntax unified
   2              		.cpu cortex-m4
   3              		.eabi_attribute 27, 3
   4              		.fpu fpv4-sp-d16
   5              		.eabi_attribute 20, 1
   6              		.eabi_attribute 21, 1
   7              		.eabi_attribute 23, 3
   8              		.eabi_attribute 24, 1
   9              		.eabi_attribute 25, 1
  10              		.eabi_attribute 26, 1
  11              		.eabi_attribute 30, 2
  12              		.eabi_attribute 34, 1
  13              		.eabi_attribute 18, 4
  14              		.thumb
  15              		.file	"api_msg.c"
  16              		.text
  17              	.Ltext0:
  18              		.cfi_sections	.debug_frame
  19              		.section	.text.setup_tcp,"ax",%progbits
  20              		.align	2
  21              		.p2align 4,,15
  22              		.thumb
  23              		.thumb_func
  24              		.type	setup_tcp, %function
  25              	setup_tcp:
  26              	.LFB13:
  27              		.file 1 "../../ext/lwip/src/api/api_msg.c"
  28              		.loc 1 414 0
  29              		.cfi_startproc
  30              		@ args = 0, pretend = 0, frame = 0
  31              		@ frame_needed = 0, uses_anonymous_args = 0
  32              	.LVL0:
  33 0000 10B5     		push	{r4, lr}
  34              	.LCFI0:
  35              		.cfi_def_cfa_offset 8
  36              		.cfi_offset 4, -8
  37              		.cfi_offset 14, -4
  38              		.loc 1 417 0
  39 0002 4468     		ldr	r4, [r0, #4]
  40              	.LVL1:
  41              		.loc 1 418 0
  42 0004 0146     		mov	r1, r0
  43 0006 2046     		mov	r0, r4
  44              	.LVL2:
  45 0008 FFF7FEFF 		bl	tcp_arg
  46              	.LVL3:
  47              		.loc 1 419 0
  48 000c 40F20001 		movw	r1, #:lower16:recv_tcp
  49 0010 2046     		mov	r0, r4
  50 0012 C0F20001 		movt	r1, #:upper16:recv_tcp
  51 0016 FFF7FEFF 		bl	tcp_recv
  52              	.LVL4:
  53              		.loc 1 420 0
  54 001a 40F20001 		movw	r1, #:lower16:sent_tcp
  55 001e 2046     		mov	r0, r4
  56 0020 C0F20001 		movt	r1, #:upper16:sent_tcp
  57 0024 FFF7FEFF 		bl	tcp_sent
ARM GAS  C:\Users\jenny\AppData\Local\Temp\ccWqzXsD.s 			page 2


  58              	.LVL5:
  59              		.loc 1 421 0
  60 0028 40F20001 		movw	r1, #:lower16:poll_tcp
  61 002c 2046     		mov	r0, r4
  62 002e C0F20001 		movt	r1, #:upper16:poll_tcp
  63 0032 0422     		movs	r2, #4
  64 0034 FFF7FEFF 		bl	tcp_poll
  65              	.LVL6:
  66              		.loc 1 422 0
  67 0038 40F20001 		movw	r1, #:lower16:err_tcp
  68 003c 2046     		mov	r0, r4
  69 003e C0F20001 		movt	r1, #:upper16:err_tcp
  70              		.loc 1 423 0
  71 0042 BDE81040 		pop	{r4, lr}
  72              		.loc 1 422 0
  73 0046 FFF7FEBF 		b	tcp_err
  74              	.LVL7:
  75              		.cfi_endproc
  76              	.LFE13:
  77              		.size	setup_tcp, .-setup_tcp
  78 004a 00BFAFF3 		.section	.text.do_connected,"ax",%progbits
  78      0080
  79              		.align	2
  80              		.p2align 4,,15
  81              		.thumb
  82              		.thumb_func
  83              		.type	do_connected, %function
  84              	do_connected:
  85              	.LFB23:
  86              		.loc 1 938 0
  87              		.cfi_startproc
  88              		@ args = 0, pretend = 0, frame = 0
  89              		@ frame_needed = 0, uses_anonymous_args = 0
  90              	.LVL8:
  91 0000 38B5     		push	{r3, r4, r5, lr}
  92              	.LCFI1:
  93              		.cfi_def_cfa_offset 16
  94              		.cfi_offset 3, -16
  95              		.cfi_offset 4, -12
  96              		.cfi_offset 5, -8
  97              		.cfi_offset 14, -4
  98              		.loc 1 946 0
  99 0002 0446     		mov	r4, r0
 100              		.loc 1 938 0
 101 0004 1546     		mov	r5, r2
 102              		.loc 1 946 0
 103 0006 0028     		cmp	r0, #0
 104 0008 41D0     		beq	.L12
 105              		.loc 1 950 0
 106 000a 4378     		ldrb	r3, [r0, #1]	@ zero_extendqisi2
 107 000c 032B     		cmp	r3, #3
 108 000e 01D0     		beq	.L4
 109              		.loc 1 950 0 is_stmt 0 discriminator 1
 110 0010 FFF7FEFF 		bl	port_halt
 111              	.LVL9:
 112              	.L4:
 113              		.loc 1 951 0 is_stmt 1
ARM GAS  C:\Users\jenny\AppData\Local\Temp\ccWqzXsD.s 			page 3


 114 0014 636A     		ldr	r3, [r4, #36]
 115 0016 002B     		cmp	r3, #0
 116 0018 2DD0     		beq	.L24
 117              	.L5:
 118              		.loc 1 955 0
 119 001a 1D71     		strb	r5, [r3, #4]
 120              	.L7:
 121              		.loc 1 957 0
 122 001c 2078     		ldrb	r0, [r4, #0]	@ zero_extendqisi2
 123 001e 1028     		cmp	r0, #16
 124 0020 23D0     		beq	.L25
 125              	.L9:
 126              		.loc 1 960 0
 127 0022 217F     		ldrb	r1, [r4, #28]	@ zero_extendqisi2
 128 0024 81F00405 		eor	r5, r1, #4
 129              		.loc 1 962 0
 130 0028 0023     		movs	r3, #0
 131              		.loc 1 961 0
 132 002a 21F00402 		bic	r2, r1, #4
 133              		.loc 1 960 0
 134 002e C5F38005 		ubfx	r5, r5, #2, #1
 135              	.LVL10:
 136              		.loc 1 961 0
 137 0032 2277     		strb	r2, [r4, #28]
 138              		.loc 1 962 0
 139 0034 6362     		str	r3, [r4, #36]
 140              		.loc 1 963 0
 141 0036 6370     		strb	r3, [r4, #1]
 142              		.loc 1 964 0
 143 0038 4DB1     		cbz	r5, .L26
 144              	.L10:
 145              		.loc 1 967 0
 146 003a A36A     		ldr	r3, [r4, #40]
 147 003c 1BB1     		cbz	r3, .L11
 148              		.loc 1 967 0 is_stmt 0 discriminator 1
 149 003e 2046     		mov	r0, r4
 150 0040 0221     		movs	r1, #2
 151 0042 0022     		movs	r2, #0
 152 0044 9847     		blx	r3
 153              	.LVL11:
 154              	.L11:
 155              		.loc 1 969 0 is_stmt 1
 156 0046 4DB9     		cbnz	r5, .L27
 157              		.loc 1 972 0
 158 0048 2946     		mov	r1, r5
 159              	.LVL12:
 160              	.L3:
 161              		.loc 1 973 0
 162 004a 48B2     		sxtb	r0, r1
 163 004c 38BD     		pop	{r3, r4, r5, pc}
 164              	.LVL13:
 165              	.L26:
 166              		.loc 1 965 0
 167 004e 94F90800 		ldrsb	r0, [r4, #8]
 168 0052 10F10903 		adds	r3, r0, #9
 169 0056 A8BF     		it	ge
 170 0058 2572     		strbge	r5, [r4, #8]
ARM GAS  C:\Users\jenny\AppData\Local\Temp\ccWqzXsD.s 			page 4


 171 005a EEE7     		b	.L10
 172              	.L27:
 173              		.loc 1 970 0
 174 005c 04F10C00 		add	r0, r4, #12
 175 0060 FFF7FEFF 		bl	sys_sem_signal
 176              	.LVL14:
 177              		.loc 1 972 0
 178 0064 0021     		movs	r1, #0
 179              		.loc 1 973 0
 180 0066 48B2     		sxtb	r0, r1
 181 0068 38BD     		pop	{r3, r4, r5, pc}
 182              	.LVL15:
 183              	.L25:
 184              		.loc 1 957 0 discriminator 1
 185 006a 002D     		cmp	r5, #0
 186 006c D9D1     		bne	.L9
 187              		.loc 1 958 0
 188 006e 2046     		mov	r0, r4
 189 0070 FFF7FEFF 		bl	setup_tcp
 190              	.LVL16:
 191 0074 D5E7     		b	.L9
 192              	.L24:
 193              		.loc 1 951 0 discriminator 1
 194 0076 207F     		ldrb	r0, [r4, #28]	@ zero_extendqisi2
 195 0078 00F00401 		and	r1, r0, #4
 196 007c CAB2     		uxtb	r2, r1
 197 007e 002A     		cmp	r2, #0
 198 0080 CCD1     		bne	.L7
 199              		.loc 1 951 0 is_stmt 0 discriminator 2
 200 0082 FFF7FEFF 		bl	port_halt
 201              	.LVL17:
 202              		.loc 1 954 0 is_stmt 1 discriminator 2
 203 0086 636A     		ldr	r3, [r4, #36]
 204 0088 002B     		cmp	r3, #0
 205 008a C7D0     		beq	.L7
 206 008c C5E7     		b	.L5
 207              	.LVL18:
 208              	.L12:
 209              		.loc 1 947 0
 210 008e FA21     		movs	r1, #250
 211              	.LVL19:
 212 0090 DBE7     		b	.L3
 213              		.cfi_endproc
 214              	.LFE23:
 215              		.size	do_connected, .-do_connected
 216 0092 00BFAFF3 		.section	.text.do_close_internal,"ax",%progbits
 216      0080AFF3 
 216      0080AFF3 
 216      0080
 217              		.align	2
 218              		.p2align 4,,15
 219              		.thumb
 220              		.thumb_func
 221              		.type	do_close_internal, %function
 222              	do_close_internal:
 223              	.LFB20:
 224              		.loc 1 748 0
ARM GAS  C:\Users\jenny\AppData\Local\Temp\ccWqzXsD.s 			page 5


 225              		.cfi_startproc
 226              		@ args = 0, pretend = 0, frame = 0
 227              		@ frame_needed = 0, uses_anonymous_args = 0
 228              	.LVL20:
 229 0000 F8B5     		push	{r3, r4, r5, r6, r7, lr}
 230              	.LCFI2:
 231              		.cfi_def_cfa_offset 24
 232              		.cfi_offset 3, -24
 233              		.cfi_offset 4, -20
 234              		.cfi_offset 5, -16
 235              		.cfi_offset 6, -12
 236              		.cfi_offset 7, -8
 237              		.cfi_offset 14, -4
 238              		.loc 1 752 0
 239 0002 0446     		mov	r4, r0
 240 0004 0028     		cmp	r0, #0
 241 0006 00F09A80 		beq	.L83
 242              	.LVL21:
 243              	.L29:
 244              		.loc 1 753 0
 245 000a 2378     		ldrb	r3, [r4, #0]	@ zero_extendqisi2
 246 000c 102B     		cmp	r3, #16
 247 000e 01D0     		beq	.L30
 248              		.loc 1 753 0 is_stmt 0 discriminator 1
 249 0010 FFF7FEFF 		bl	port_halt
 250              	.LVL22:
 251              	.L30:
 252              		.loc 1 754 0 is_stmt 1
 253 0014 6078     		ldrb	r0, [r4, #1]	@ zero_extendqisi2
 254 0016 0428     		cmp	r0, #4
 255 0018 01D0     		beq	.L31
 256              		.loc 1 754 0 is_stmt 0 discriminator 1
 257 001a FFF7FEFF 		bl	port_halt
 258              	.LVL23:
 259              	.L31:
 260              		.loc 1 755 0 is_stmt 1
 261 001e 6168     		ldr	r1, [r4, #4]
 262 0020 0029     		cmp	r1, #0
 263 0022 00F08580 		beq	.L84
 264              	.L32:
 265              		.loc 1 756 0
 266 0026 626A     		ldr	r2, [r4, #36]
 267 0028 002A     		cmp	r2, #0
 268 002a 00F08480 		beq	.L85
 269              	.L33:
 270              		.loc 1 758 0
 271 002e 177A     		ldrb	r7, [r2, #8]	@ zero_extendqisi2
 272              	.LVL24:
 273              		.loc 1 762 0
 274 0030 FB1E     		subs	r3, r7, #3
 275 0032 5D42     		rsbs	r5, r3, #0
 276              		.loc 1 760 0
 277 0034 07F00206 		and	r6, r7, #2
 278              		.loc 1 762 0
 279 0038 5D41     		adcs	r5, r5, r3
 280              		.loc 1 759 0
 281 003a 07F00107 		and	r7, r7, #1
ARM GAS  C:\Users\jenny\AppData\Local\Temp\ccWqzXsD.s 			page 6


 282              	.LVL25:
 283              		.loc 1 760 0
 284 003e F6B2     		uxtb	r6, r6
 285              	.LVL26:
 286              		.loc 1 765 0
 287 0040 002D     		cmp	r5, #0
 288 0042 62D1     		bne	.L86
 289              		.loc 1 768 0
 290 0044 6068     		ldr	r0, [r4, #4]
 291 0046 017E     		ldrb	r1, [r0, #24]	@ zero_extendqisi2
 292 0048 0129     		cmp	r1, #1
 293 004a 66D0     		beq	.L87
 294              	.LVL27:
 295              	.L35:
 296              		.loc 1 772 0
 297 004c 002F     		cmp	r7, #0
 298 004e 51D1     		bne	.L88
 299              		.loc 1 776 0
 300 0050 002E     		cmp	r6, #0
 301 0052 3CD1     		bne	.L89
 302              	.L39:
 303              		.loc 1 779 0
 304 0054 002D     		cmp	r5, #0
 305 0056 40D1     		bne	.L90
 306              	.L40:
 307              		.loc 1 788 0
 308 0058 3246     		mov	r2, r6
 309 005a 3946     		mov	r1, r7
 310 005c FFF7FEFF 		bl	tcp_shutdown
 311              	.LVL28:
 312 0060 0246     		mov	r2, r0
 313              	.LVL29:
 314              	.L41:
 315              		.loc 1 790 0
 316 0062 F2B9     		cbnz	r2, .L42
 317              		.loc 1 792 0
 318 0064 606A     		ldr	r0, [r4, #36]
 319 0066 0271     		strb	r2, [r0, #4]
 320              		.loc 1 793 0
 321 0068 6262     		str	r2, [r4, #36]
 322              		.loc 1 794 0
 323 006a 6270     		strb	r2, [r4, #1]
 324              		.loc 1 795 0
 325 006c 2DB1     		cbz	r5, .L44
 326              		.loc 1 800 0
 327 006e A56A     		ldr	r5, [r4, #40]
 328              		.loc 1 797 0
 329 0070 6260     		str	r2, [r4, #4]
 330              		.loc 1 800 0
 331 0072 15B1     		cbz	r5, .L44
 332              		.loc 1 800 0 is_stmt 0 discriminator 1
 333 0074 2046     		mov	r0, r4
 334 0076 0421     		movs	r1, #4
 335 0078 A847     		blx	r5
 336              	.LVL30:
 337              	.L44:
 338              		.loc 1 802 0 is_stmt 1
ARM GAS  C:\Users\jenny\AppData\Local\Temp\ccWqzXsD.s 			page 7


 339 007a 2FB1     		cbz	r7, .L46
 340              		.loc 1 803 0
 341 007c A36A     		ldr	r3, [r4, #40]
 342 007e 1BB1     		cbz	r3, .L46
 343              		.loc 1 803 0 is_stmt 0 discriminator 1
 344 0080 0021     		movs	r1, #0
 345 0082 2046     		mov	r0, r4
 346 0084 0A46     		mov	r2, r1
 347 0086 9847     		blx	r3
 348              	.LVL31:
 349              	.L46:
 350              		.loc 1 805 0 is_stmt 1
 351 0088 2EB1     		cbz	r6, .L47
 352              		.loc 1 806 0
 353 008a A36A     		ldr	r3, [r4, #40]
 354 008c 1BB1     		cbz	r3, .L47
 355              		.loc 1 806 0 is_stmt 0 discriminator 1
 356 008e 2046     		mov	r0, r4
 357 0090 0221     		movs	r1, #2
 358 0092 0022     		movs	r2, #0
 359 0094 9847     		blx	r3
 360              	.LVL32:
 361              	.L47:
 362              		.loc 1 809 0 is_stmt 1
 363 0096 04F10C00 		add	r0, r4, #12
 364              		.loc 1 822 0
 365 009a BDE8F840 		pop	{r3, r4, r5, r6, r7, lr}
 366              		.loc 1 809 0
 367 009e FFF7FEBF 		b	sys_sem_signal
 368              	.LVL33:
 369              	.L42:
 370              		.loc 1 813 0
 371 00a2 6068     		ldr	r0, [r4, #4]
 372 00a4 027E     		ldrb	r2, [r0, #24]	@ zero_extendqisi2
 373              	.LVL34:
 374 00a6 012A     		cmp	r2, #1
 375 00a8 3ED0     		beq	.L91
 376              	.L48:
 377              		.loc 1 814 0
 378 00aa 2649     		ldr	r1, .L92
 379 00ac FFF7FEFF 		bl	tcp_sent
 380              	.LVL35:
 381              		.loc 1 815 0
 382 00b0 6068     		ldr	r0, [r4, #4]
 383 00b2 2549     		ldr	r1, .L92+4
 384 00b4 0422     		movs	r2, #4
 385 00b6 FFF7FEFF 		bl	tcp_poll
 386              	.LVL36:
 387              		.loc 1 816 0
 388 00ba 6068     		ldr	r0, [r4, #4]
 389 00bc 2349     		ldr	r1, .L92+8
 390 00be FFF7FEFF 		bl	tcp_err
 391              	.LVL37:
 392              		.loc 1 817 0
 393 00c2 6068     		ldr	r0, [r4, #4]
 394 00c4 2146     		mov	r1, r4
 395              		.loc 1 822 0
ARM GAS  C:\Users\jenny\AppData\Local\Temp\ccWqzXsD.s 			page 8


 396 00c6 BDE8F840 		pop	{r3, r4, r5, r6, r7, lr}
 397              		.loc 1 817 0
 398 00ca FFF7FEBF 		b	tcp_arg
 399              	.LVL38:
 400              	.L89:
 401              		.loc 1 777 0
 402 00ce 0021     		movs	r1, #0
 403 00d0 FFF7FEFF 		bl	tcp_sent
 404              	.LVL39:
 405 00d4 6068     		ldr	r0, [r4, #4]
 406              		.loc 1 779 0
 407 00d6 002D     		cmp	r5, #0
 408 00d8 BED0     		beq	.L40
 409              	.L90:
 410              		.loc 1 780 0
 411 00da 0021     		movs	r1, #0
 412 00dc 0422     		movs	r2, #4
 413 00de FFF7FEFF 		bl	tcp_poll
 414              	.LVL40:
 415              		.loc 1 781 0
 416 00e2 6068     		ldr	r0, [r4, #4]
 417 00e4 0021     		movs	r1, #0
 418 00e6 FFF7FEFF 		bl	tcp_err
 419              	.LVL41:
 420              	.L36:
 421              		.loc 1 786 0
 422 00ea 6068     		ldr	r0, [r4, #4]
 423 00ec FFF7FEFF 		bl	tcp_close
 424              	.LVL42:
 425 00f0 0246     		mov	r2, r0
 426              	.LVL43:
 427 00f2 B6E7     		b	.L41
 428              	.LVL44:
 429              	.L88:
 430              		.loc 1 773 0
 431 00f4 0021     		movs	r1, #0
 432 00f6 FFF7FEFF 		bl	tcp_recv
 433              	.LVL45:
 434              		.loc 1 774 0
 435 00fa 6068     		ldr	r0, [r4, #4]
 436 00fc 0021     		movs	r1, #0
 437 00fe FFF7FEFF 		bl	tcp_accept
 438              	.LVL46:
 439 0102 6068     		ldr	r0, [r4, #4]
 440              		.loc 1 776 0
 441 0104 002E     		cmp	r6, #0
 442 0106 A5D0     		beq	.L39
 443 0108 E1E7     		b	.L89
 444              	.LVL47:
 445              	.L86:
 446              		.loc 1 766 0
 447 010a 0021     		movs	r1, #0
 448 010c 6068     		ldr	r0, [r4, #4]
 449 010e FFF7FEFF 		bl	tcp_arg
 450              	.LVL48:
 451              		.loc 1 768 0
 452 0112 6068     		ldr	r0, [r4, #4]
ARM GAS  C:\Users\jenny\AppData\Local\Temp\ccWqzXsD.s 			page 9


 453 0114 017E     		ldrb	r1, [r0, #24]	@ zero_extendqisi2
 454 0116 0129     		cmp	r1, #1
 455 0118 98D1     		bne	.L35
 456              	.L87:
 457              		.loc 1 769 0
 458 011a 0021     		movs	r1, #0
 459 011c FFF7FEFF 		bl	tcp_accept
 460              	.LVL49:
 461              		.loc 1 785 0
 462 0120 002D     		cmp	r5, #0
 463 0122 E2D1     		bne	.L36
 464 0124 6068     		ldr	r0, [r4, #4]
 465 0126 97E7     		b	.L40
 466              	.L91:
 467              		.loc 1 813 0 discriminator 1
 468 0128 FFF7FEFF 		bl	port_halt
 469              	.LVL50:
 470 012c 6068     		ldr	r0, [r4, #4]
 471 012e BCE7     		b	.L48
 472              	.LVL51:
 473              	.L84:
 474              		.loc 1 755 0 discriminator 1
 475 0130 FFF7FEFF 		bl	port_halt
 476              	.LVL52:
 477 0134 77E7     		b	.L32
 478              	.L85:
 479              		.loc 1 756 0 discriminator 1
 480 0136 FFF7FEFF 		bl	port_halt
 481              	.LVL53:
 482 013a 626A     		ldr	r2, [r4, #36]
 483 013c 77E7     		b	.L33
 484              	.LVL54:
 485              	.L83:
 486              		.loc 1 752 0 discriminator 1
 487 013e FFF7FEFF 		bl	port_halt
 488              	.LVL55:
 489 0142 62E7     		b	.L29
 490              	.L93:
 491              		.align	2
 492              	.L92:
 493 0144 00000000 		.word	sent_tcp
 494 0148 00000000 		.word	poll_tcp
 495 014c 00000000 		.word	err_tcp
 496              		.cfi_endproc
 497              	.LFE20:
 498              		.size	do_close_internal, .-do_close_internal
 499              		.section	.text.err_tcp,"ax",%progbits
 500              		.align	2
 501              		.p2align 4,,15
 502              		.thumb
 503              		.thumb_func
 504              		.type	err_tcp, %function
 505              	err_tcp:
 506              	.LFB12:
 507              		.loc 1 348 0
 508              		.cfi_startproc
 509              		@ args = 0, pretend = 0, frame = 0
ARM GAS  C:\Users\jenny\AppData\Local\Temp\ccWqzXsD.s 			page 10


 510              		@ frame_needed = 0, uses_anonymous_args = 0
 511              	.LVL56:
 512 0000 F8B5     		push	{r3, r4, r5, r6, r7, lr}
 513              	.LCFI3:
 514              		.cfi_def_cfa_offset 24
 515              		.cfi_offset 3, -24
 516              		.cfi_offset 4, -20
 517              		.cfi_offset 5, -16
 518              		.cfi_offset 6, -12
 519              		.cfi_offset 7, -8
 520              		.cfi_offset 14, -4
 521              		.loc 1 354 0
 522 0002 0446     		mov	r4, r0
 523              		.loc 1 348 0
 524 0004 0F46     		mov	r7, r1
 525              		.loc 1 354 0
 526 0006 0028     		cmp	r0, #0
 527 0008 4FD0     		beq	.L130
 528              	.LVL57:
 529              	.L95:
 530              		.loc 1 369 0
 531 000a A36A     		ldr	r3, [r4, #40]
 532              		.loc 1 364 0
 533 000c 6678     		ldrb	r6, [r4, #1]	@ zero_extendqisi2
 534              	.LVL58:
 535              		.loc 1 360 0
 536 000e 2772     		strb	r7, [r4, #8]
 537              		.loc 1 356 0
 538 0010 0025     		movs	r5, #0
 539 0012 6560     		str	r5, [r4, #4]
 540              		.loc 1 365 0
 541 0014 6570     		strb	r5, [r4, #1]
 542              		.loc 1 369 0
 543 0016 7BB1     		cbz	r3, .L97
 544              		.loc 1 369 0 is_stmt 0 discriminator 1
 545 0018 2046     		mov	r0, r4
 546 001a 0421     		movs	r1, #4
 547 001c 2A46     		mov	r2, r5
 548 001e 9847     		blx	r3
 549              	.LVL59:
 550              		.loc 1 372 0 is_stmt 1 discriminator 1
 551 0020 A36A     		ldr	r3, [r4, #40]
 552 0022 4BB1     		cbz	r3, .L97
 553 0024 2046     		mov	r0, r4
 554 0026 2946     		mov	r1, r5
 555 0028 2A46     		mov	r2, r5
 556 002a 9847     		blx	r3
 557              	.LVL60:
 558              		.loc 1 373 0 discriminator 1
 559 002c A36A     		ldr	r3, [r4, #40]
 560 002e 1BB1     		cbz	r3, .L97
 561 0030 2046     		mov	r0, r4
 562 0032 0221     		movs	r1, #2
 563 0034 2A46     		mov	r2, r5
 564 0036 9847     		blx	r3
 565              	.LVL61:
 566              	.L97:
ARM GAS  C:\Users\jenny\AppData\Local\Temp\ccWqzXsD.s 			page 11


 567              		.loc 1 376 0
 568 0038 04F11005 		add	r5, r4, #16
 569 003c 2846     		mov	r0, r5
 570 003e FFF7FEFF 		bl	sys_mbox_valid
 571              	.LVL62:
 572 0042 0028     		cmp	r0, #0
 573 0044 2CD1     		bne	.L131
 574              	.L98:
 575              		.loc 1 381 0
 576 0046 04F11405 		add	r5, r4, #20
 577 004a 2846     		mov	r0, r5
 578 004c FFF7FEFF 		bl	sys_mbox_valid
 579              	.LVL63:
 580 0050 0028     		cmp	r0, #0
 581 0052 20D1     		bne	.L132
 582              	.L99:
 583              		.loc 1 386 0
 584 0054 012E     		cmp	r6, #1
 585 0056 0AD0     		beq	.L100
 586              		.loc 1 386 0 is_stmt 0 discriminator 1
 587 0058 042E     		cmp	r6, #4
 588 005a 08D0     		beq	.L100
 589 005c 032E     		cmp	r6, #3
 590 005e 06D0     		beq	.L100
 591              		.loc 1 402 0 is_stmt 1
 592 0060 606A     		ldr	r0, [r4, #36]
 593 0062 0028     		cmp	r0, #0
 594 0064 16D0     		beq	.L94
 595              		.loc 1 404 0 discriminator 1
 596 0066 BDE8F840 		pop	{r3, r4, r5, r6, r7, lr}
 597              		.loc 1 402 0 discriminator 1
 598 006a FFF7FEBF 		b	port_halt
 599              	.LVL64:
 600              	.L100:
 601              	.LBB2:
 602              		.loc 1 390 0
 603 006e 217F     		ldrb	r1, [r4, #28]	@ zero_extendqisi2
 604              	.LVL65:
 605              		.loc 1 393 0
 606 0070 01F00402 		and	r2, r1, #4
 607              		.loc 1 391 0
 608 0074 21F00403 		bic	r3, r1, #4
 609              		.loc 1 393 0
 610 0078 D0B2     		uxtb	r0, r2
 611              		.loc 1 391 0
 612 007a 2377     		strb	r3, [r4, #28]
 613              		.loc 1 393 0
 614 007c 50B9     		cbnz	r0, .L94
 615              		.loc 1 395 0
 616 007e 616A     		ldr	r1, [r4, #36]
 617              	.LVL66:
 618 0080 B1B1     		cbz	r1, .L133
 619              	.LVL67:
 620              	.L104:
 621              		.loc 1 397 0
 622 0082 0022     		movs	r2, #0
 623              		.loc 1 399 0
ARM GAS  C:\Users\jenny\AppData\Local\Temp\ccWqzXsD.s 			page 12


 624 0084 04F10C00 		add	r0, r4, #12
 625              		.loc 1 396 0
 626 0088 0F71     		strb	r7, [r1, #4]
 627              		.loc 1 397 0
 628 008a 6262     		str	r2, [r4, #36]
 629              	.LBE2:
 630              		.loc 1 404 0
 631 008c BDE8F840 		pop	{r3, r4, r5, r6, r7, lr}
 632              	.LBB3:
 633              		.loc 1 399 0
 634 0090 FFF7FEBF 		b	sys_sem_signal
 635              	.LVL68:
 636              	.L94:
 637 0094 F8BD     		pop	{r3, r4, r5, r6, r7, pc}
 638              	.L132:
 639              	.LBE3:
 640              		.loc 1 383 0
 641 0096 2846     		mov	r0, r5
 642 0098 0021     		movs	r1, #0
 643 009a FFF7FEFF 		bl	sys_mbox_trypost
 644              	.LVL69:
 645 009e D9E7     		b	.L99
 646              	.L131:
 647              		.loc 1 378 0
 648 00a0 2846     		mov	r0, r5
 649 00a2 0021     		movs	r1, #0
 650 00a4 FFF7FEFF 		bl	sys_mbox_trypost
 651              	.LVL70:
 652 00a8 CDE7     		b	.L98
 653              	.LVL71:
 654              	.L130:
 655              		.loc 1 354 0 discriminator 1
 656 00aa FFF7FEFF 		bl	port_halt
 657              	.LVL72:
 658 00ae ACE7     		b	.L95
 659              	.LVL73:
 660              	.L133:
 661              	.LBB4:
 662              		.loc 1 395 0 discriminator 1
 663 00b0 FFF7FEFF 		bl	port_halt
 664              	.LVL74:
 665 00b4 616A     		ldr	r1, [r4, #36]
 666 00b6 E4E7     		b	.L104
 667              	.LBE4:
 668              		.cfi_endproc
 669              	.LFE12:
 670              		.size	err_tcp, .-err_tcp
 671 00b8 AFF30080 		.section	.text.recv_tcp,"ax",%progbits
 671      AFF30080 
 672              		.align	2
 673              		.p2align 4,,15
 674              		.thumb
 675              		.thumb_func
 676              		.type	recv_tcp, %function
 677              	recv_tcp:
 678              	.LFB9:
 679              		.loc 1 217 0
ARM GAS  C:\Users\jenny\AppData\Local\Temp\ccWqzXsD.s 			page 13


 680              		.cfi_startproc
 681              		@ args = 0, pretend = 0, frame = 0
 682              		@ frame_needed = 0, uses_anonymous_args = 0
 683              	.LVL75:
 684 0000 2DE9F843 		push	{r3, r4, r5, r6, r7, r8, r9, lr}
 685              	.LCFI4:
 686              		.cfi_def_cfa_offset 32
 687              		.cfi_offset 3, -32
 688              		.cfi_offset 4, -28
 689              		.cfi_offset 5, -24
 690              		.cfi_offset 6, -20
 691              		.cfi_offset 7, -16
 692              		.cfi_offset 8, -12
 693              		.cfi_offset 9, -8
 694              		.cfi_offset 14, -4
 695              		.loc 1 222 0
 696 0004 0E46     		mov	r6, r1
 697              		.loc 1 217 0
 698 0006 0446     		mov	r4, r0
 699 0008 1546     		mov	r5, r2
 700 000a 9946     		mov	r9, r3
 701              		.loc 1 222 0
 702 000c 0029     		cmp	r1, #0
 703 000e 36D0     		beq	.L149
 704              	.LVL76:
 705              	.L135:
 706              		.loc 1 223 0
 707 0010 002C     		cmp	r4, #0
 708 0012 39D0     		beq	.L150
 709              	.L136:
 710              	.LVL77:
 711              		.loc 1 225 0
 712 0014 6268     		ldr	r2, [r4, #4]
 713 0016 B242     		cmp	r2, r6
 714 0018 01D0     		beq	.L137
 715              		.loc 1 225 0 is_stmt 0 discriminator 1
 716 001a FFF7FEFF 		bl	port_halt
 717              	.LVL78:
 718              	.L137:
 719              		.loc 1 230 0 is_stmt 1
 720 001e 04F11007 		add	r7, r4, #16
 721 0022 3846     		mov	r0, r7
 722 0024 FFF7FEFF 		bl	sys_mbox_valid
 723              	.LVL79:
 724 0028 8046     		mov	r8, r0
 725 002a 78B9     		cbnz	r0, .L138
 726              		.loc 1 232 0
 727 002c 55B1     		cbz	r5, .L143
 728              		.loc 1 233 0
 729 002e 2989     		ldrh	r1, [r5, #8]
 730 0030 3046     		mov	r0, r6
 731 0032 FFF7FEFF 		bl	tcp_recved
 732              	.LVL80:
 733              		.loc 1 234 0
 734 0036 2846     		mov	r0, r5
 735 0038 FFF7FEFF 		bl	pbuf_free
 736              	.LVL81:
ARM GAS  C:\Users\jenny\AppData\Local\Temp\ccWqzXsD.s 			page 14


 737              		.loc 1 236 0
 738 003c 4046     		mov	r0, r8
 739              	.LVL82:
 740              	.L140:
 741              		.loc 1 263 0
 742 003e 40B2     		sxtb	r0, r0
 743 0040 BDE8F883 		pop	{r3, r4, r5, r6, r7, r8, r9, pc}
 744              	.L143:
 745              		.loc 1 236 0
 746 0044 0020     		movs	r0, #0
 747              		.loc 1 263 0
 748 0046 40B2     		sxtb	r0, r0
 749 0048 BDE8F883 		pop	{r3, r4, r5, r6, r7, r8, r9, pc}
 750              	.LVL83:
 751              	.L138:
 752              		.loc 1 243 0
 753 004c 94F90830 		ldrsb	r3, [r4, #8]
 754 0050 0933     		adds	r3, r3, #9
 755 0052 A8BF     		it	ge
 756 0054 84F80890 		strbge	r9, [r4, #8]
 757              		.loc 1 245 0
 758 0058 A5B1     		cbz	r5, .L144
 759              		.loc 1 246 0
 760 005a 2E89     		ldrh	r6, [r5, #8]
 761              	.LVL84:
 762              	.L142:
 763              		.loc 1 251 0
 764 005c 2946     		mov	r1, r5
 765 005e 3846     		mov	r0, r7
 766 0060 FFF7FEFF 		bl	sys_mbox_trypost
 767              	.LVL85:
 768 0064 0546     		mov	r5, r0
 769              	.LVL86:
 770 0066 90B9     		cbnz	r0, .L145
 771              		.loc 1 259 0
 772 0068 A36A     		ldr	r3, [r4, #40]
 773 006a 002B     		cmp	r3, #0
 774 006c EAD0     		beq	.L143
 775              		.loc 1 259 0 is_stmt 0 discriminator 1
 776 006e 2046     		mov	r0, r4
 777 0070 2946     		mov	r1, r5
 778 0072 3246     		mov	r2, r6
 779 0074 9847     		blx	r3
 780              	.LVL87:
 781              		.loc 1 262 0 is_stmt 1 discriminator 1
 782 0076 2846     		mov	r0, r5
 783              		.loc 1 263 0 discriminator 1
 784 0078 40B2     		sxtb	r0, r0
 785 007a BDE8F883 		pop	{r3, r4, r5, r6, r7, r8, r9, pc}
 786              	.LVL88:
 787              	.L149:
 788              		.loc 1 222 0 discriminator 1
 789 007e FFF7FEFF 		bl	port_halt
 790              	.LVL89:
 791 0082 C5E7     		b	.L135
 792              	.LVL90:
 793              	.L144:
ARM GAS  C:\Users\jenny\AppData\Local\Temp\ccWqzXsD.s 			page 15


 794              		.loc 1 248 0
 795 0084 2E46     		mov	r6, r5
 796              	.LVL91:
 797 0086 E9E7     		b	.L142
 798              	.LVL92:
 799              	.L150:
 800              		.loc 1 223 0 discriminator 1
 801 0088 FFF7FEFF 		bl	port_halt
 802              	.LVL93:
 803 008c C2E7     		b	.L136
 804              	.LVL94:
 805              	.L145:
 806              		.loc 1 253 0
 807 008e FF20     		movs	r0, #255
 808 0090 D5E7     		b	.L140
 809              		.cfi_endproc
 810              	.LFE9:
 811              		.size	recv_tcp, .-recv_tcp
 812 0092 00BFAFF3 		.section	.text.do_writemore,"ax",%progbits
 812      0080AFF3 
 812      0080AFF3 
 812      0080
 813              		.align	2
 814              		.p2align 4,,15
 815              		.thumb
 816              		.thumb_func
 817              		.type	do_writemore, %function
 818              	do_writemore:
 819              	.LFB29:
 820              		.loc 1 1209 0
 821              		.cfi_startproc
 822              		@ args = 0, pretend = 0, frame = 0
 823              		@ frame_needed = 0, uses_anonymous_args = 0
 824              	.LVL95:
 825 0000 2DE9F047 		push	{r4, r5, r6, r7, r8, r9, sl, lr}
 826              	.LCFI5:
 827              		.cfi_def_cfa_offset 32
 828              		.cfi_offset 4, -32
 829              		.cfi_offset 5, -28
 830              		.cfi_offset 6, -24
 831              		.cfi_offset 7, -20
 832              		.cfi_offset 8, -16
 833              		.cfi_offset 9, -12
 834              		.cfi_offset 10, -8
 835              		.cfi_offset 14, -4
 836              		.loc 1 1215 0
 837 0004 037F     		ldrb	r3, [r0, #28]	@ zero_extendqisi2
 838              		.loc 1 1209 0
 839 0006 0446     		mov	r4, r0
 840              		.loc 1 1215 0
 841 0008 03F00200 		and	r0, r3, #2
 842              	.LVL96:
 843 000c C1B2     		uxtb	r1, r0
 844 000e 0029     		cmp	r1, #0
 845 0010 6CD0     		beq	.L152
 846 0012 656A     		ldr	r5, [r4, #36]
 847 0014 2F7C     		ldrb	r7, [r5, #16]	@ zero_extendqisi2
ARM GAS  C:\Users\jenny\AppData\Local\Temp\ccWqzXsD.s 			page 16


 848 0016 4FF00108 		mov	r8, #1
 849              	.L153:
 850              	.LVL97:
 851              		.loc 1 1220 0 discriminator 4
 852 001a 6678     		ldrb	r6, [r4, #1]	@ zero_extendqisi2
 853 001c 012E     		cmp	r6, #1
 854 001e 05D0     		beq	.L154
 855              		.loc 1 1220 0 is_stmt 0 discriminator 1
 856 0020 FFF7FEFF 		bl	port_halt
 857              	.LVL98:
 858              		.loc 1 1221 0 is_stmt 1 discriminator 1
 859 0024 636A     		ldr	r3, [r4, #36]
 860 0026 002B     		cmp	r3, #0
 861 0028 00F09180 		beq	.L188
 862              	.L154:
 863              		.loc 1 1222 0
 864 002c 6068     		ldr	r0, [r4, #4]
 865 002e 0028     		cmp	r0, #0
 866 0030 00F09380 		beq	.L189
 867              	.L155:
 868              		.loc 1 1223 0
 869 0034 616A     		ldr	r1, [r4, #36]
 870 0036 226A     		ldr	r2, [r4, #32]
 871 0038 CE68     		ldr	r6, [r1, #12]
 872 003a B242     		cmp	r2, r6
 873 003c 5BD2     		bcs	.L190
 874              	.L156:
 875              		.loc 1 1242 0
 876 003e 8868     		ldr	r0, [r1, #8]
 877 0040 00EB020A 		add	sl, r0, r2
 878              	.LVL99:
 879              		.loc 1 1253 0
 880 0044 6068     		ldr	r0, [r4, #4]
 881              		.loc 1 1244 0
 882 0046 4FF6FF75 		movw	r5, #65535
 883              		.loc 1 1243 0
 884 004a B31A     		subs	r3, r6, r2
 885              	.LVL100:
 886              		.loc 1 1244 0
 887 004c AB42     		cmp	r3, r5
 888              		.loc 1 1253 0
 889 004e B0F86610 		ldrh	r1, [r0, #102]
 890              		.loc 1 1251 0
 891 0052 94BF     		ite	ls
 892 0054 9DB2     		uxthls	r5, r3
 893              		.loc 1 1249 0
 894 0056 47F00207 		orrhi	r7, r7, #2
 895              	.LVL101:
 896              		.loc 1 1254 0
 897 005a 8D42     		cmp	r5, r1
 898 005c 34D9     		bls	.L159
 899              	.LVL102:
 900              		.loc 1 1257 0
 901 005e B8F1000F 		cmp	r8, #0
 902 0062 2ED0     		beq	.L160
 903              		.loc 1 1258 0
 904 0064 0D46     		mov	r5, r1
ARM GAS  C:\Users\jenny\AppData\Local\Temp\ccWqzXsD.s 			page 17


 905 0066 0029     		cmp	r1, #0
 906 0068 2ED1     		bne	.L159
 907 006a 8946     		mov	r9, r1
 908              		.loc 1 1259 0
 909 006c F927     		movs	r7, #249
 910              	.LVL103:
 911              	.L161:
 912              		.loc 1 1274 0 discriminator 1
 913 006e B145     		cmp	r9, r6
 914 0070 4ED2     		bcs	.L165
 915              		.loc 1 1277 0
 916 0072 A36A     		ldr	r3, [r4, #40]
 917 0074 1BB1     		cbz	r3, .L166
 918              		.loc 1 1277 0 is_stmt 0 discriminator 1
 919 0076 2046     		mov	r0, r4
 920 0078 0321     		movs	r1, #3
 921 007a 2A46     		mov	r2, r5
 922 007c 9847     		blx	r3
 923              	.LVL104:
 924              	.L166:
 925              		.loc 1 1278 0 is_stmt 1
 926 007e 217F     		ldrb	r1, [r4, #28]	@ zero_extendqisi2
 927 0080 41F01002 		orr	r2, r1, #16
 928 0084 2277     		strb	r2, [r4, #28]
 929              	.L167:
 930              	.LVL105:
 931              		.loc 1 1287 0
 932 0086 002F     		cmp	r7, #0
 933 0088 50D1     		bne	.L169
 934              		.loc 1 1288 0
 935 008a 226A     		ldr	r2, [r4, #32]
 936              		.loc 1 1289 0
 937 008c 606A     		ldr	r0, [r4, #36]
 938              		.loc 1 1288 0
 939 008e AD18     		adds	r5, r5, r2
 940              	.LVL106:
 941 0090 2562     		str	r5, [r4, #32]
 942              		.loc 1 1289 0
 943 0092 C368     		ldr	r3, [r0, #12]
 944 0094 9D42     		cmp	r5, r3
 945 0096 02D0     		beq	.L170
 946              		.loc 1 1289 0 is_stmt 0 discriminator 1
 947 0098 B8F1000F 		cmp	r8, #0
 948 009c 4CD0     		beq	.L171
 949              	.L170:
 950              		.loc 1 1291 0 is_stmt 1
 951 009e C560     		str	r5, [r0, #12]
 952              	.LVL107:
 953              		.loc 1 1294 0
 954 00a0 0021     		movs	r1, #0
 955 00a2 2162     		str	r1, [r4, #32]
 956              		.loc 1 1296 0
 957 00a4 6068     		ldr	r0, [r4, #4]
 958 00a6 FFF7FEFF 		bl	tcp_output
 959              	.LVL108:
 960              	.L172:
 961              		.loc 1 1318 0
ARM GAS  C:\Users\jenny\AppData\Local\Temp\ccWqzXsD.s 			page 18


 962 00aa 626A     		ldr	r2, [r4, #36]
 963              		.loc 1 1319 0
 964 00ac 0023     		movs	r3, #0
 965              		.loc 1 1318 0
 966 00ae 1771     		strb	r7, [r2, #4]
 967              		.loc 1 1325 0
 968 00b0 04F10C00 		add	r0, r4, #12
 969              		.loc 1 1319 0
 970 00b4 6362     		str	r3, [r4, #36]
 971              		.loc 1 1320 0
 972 00b6 6370     		strb	r3, [r4, #1]
 973              		.loc 1 1325 0
 974 00b8 FFF7FEFF 		bl	sys_sem_signal
 975              	.LVL109:
 976              		.loc 1 1333 0
 977 00bc 0020     		movs	r0, #0
 978 00be BDE8F087 		pop	{r4, r5, r6, r7, r8, r9, sl, pc}
 979              	.LVL110:
 980              	.L160:
 981              		.loc 1 1266 0
 982 00c2 47F00207 		orr	r7, r7, #2
 983              	.LVL111:
 984 00c6 0D46     		mov	r5, r1
 985              	.LVL112:
 986              	.L159:
 987              		.loc 1 1269 0
 988 00c8 AA18     		adds	r2, r5, r2
 989 00ca B242     		cmp	r2, r6
 990 00cc A946     		mov	r9, r5
 991 00ce 18D8     		bhi	.L191
 992              	.LVL113:
 993              	.L162:
 994              		.loc 1 1270 0
 995 00d0 3B46     		mov	r3, r7
 996 00d2 5146     		mov	r1, sl
 997 00d4 2A46     		mov	r2, r5
 998 00d6 FFF7FEFF 		bl	tcp_write
 999              	.LVL114:
 1000 00da 0746     		mov	r7, r0
 1001              	.LVL115:
 1002              		.loc 1 1272 0
 1003 00dc 0130     		adds	r0, r0, #1
 1004              	.LVL116:
 1005 00de C3B2     		uxtb	r3, r0
 1006 00e0 012B     		cmp	r3, #1
 1007 00e2 12D9     		bls	.L192
 1008              	.LVL117:
 1009              	.L163:
 1010              		.loc 1 1312 0
 1011 00e4 636A     		ldr	r3, [r4, #36]
 1012 00e6 0021     		movs	r1, #0
 1013 00e8 D960     		str	r1, [r3, #12]
 1014 00ea DEE7     		b	.L172
 1015              	.LVL118:
 1016              	.L152:
 1017              		.loc 1 1216 0 discriminator 2
 1018 00ec 626A     		ldr	r2, [r4, #36]
ARM GAS  C:\Users\jenny\AppData\Local\Temp\ccWqzXsD.s 			page 19


 1019 00ee 177C     		ldrb	r7, [r2, #16]	@ zero_extendqisi2
 1020 00f0 C7F38008 		ubfx	r8, r7, #2, #1
 1021 00f4 91E7     		b	.L153
 1022              	.LVL119:
 1023              	.L190:
 1024              		.loc 1 1223 0 discriminator 1
 1025 00f6 FFF7FEFF 		bl	port_halt
 1026              	.LVL120:
 1027 00fa 616A     		ldr	r1, [r4, #36]
 1028 00fc 226A     		ldr	r2, [r4, #32]
 1029 00fe CE68     		ldr	r6, [r1, #12]
 1030 0100 9DE7     		b	.L156
 1031              	.LVL121:
 1032              	.L191:
 1033              		.loc 1 1269 0 discriminator 1
 1034 0102 FFF7FEFF 		bl	port_halt
 1035              	.LVL122:
 1036 0106 6068     		ldr	r0, [r4, #4]
 1037 0108 E2E7     		b	.L162
 1038              	.LVL123:
 1039              	.L192:
 1040              	.L164:
 1041              		.loc 1 1274 0
 1042 010a B8F1000F 		cmp	r8, #0
 1043 010e 21D1     		bne	.L193
 1044              	.LVL124:
 1045              	.L165:
 1046              		.loc 1 1279 0
 1047 0110 6168     		ldr	r1, [r4, #4]
 1048 0112 B1F86620 		ldrh	r2, [r1, #102]
 1049 0116 B2F5866F 		cmp	r2, #1072
 1050 011a 13D2     		bcs	.L194
 1051              	.L168:
 1052              		.loc 1 1283 0
 1053 011c A36A     		ldr	r3, [r4, #40]
 1054 011e 002B     		cmp	r3, #0
 1055 0120 B1D0     		beq	.L167
 1056              		.loc 1 1283 0 is_stmt 0 discriminator 1
 1057 0122 2046     		mov	r0, r4
 1058 0124 0321     		movs	r1, #3
 1059 0126 2A46     		mov	r2, r5
 1060 0128 9847     		blx	r3
 1061              	.LVL125:
 1062 012a ACE7     		b	.L167
 1063              	.LVL126:
 1064              	.L169:
 1065              		.loc 1 1297 0 is_stmt 1
 1066 012c 78B2     		sxtb	r0, r7
 1067 012e 431C     		adds	r3, r0, #1
 1068 0130 D8D1     		bne	.L163
 1069              		.loc 1 1297 0 is_stmt 0 discriminator 1
 1070 0132 B8F1000F 		cmp	r8, #0
 1071 0136 D5D1     		bne	.L163
 1072              	.LVL127:
 1073              	.L171:
 1074              		.loc 1 1296 0 is_stmt 1
 1075 0138 6068     		ldr	r0, [r4, #4]
ARM GAS  C:\Users\jenny\AppData\Local\Temp\ccWqzXsD.s 			page 20


 1076 013a FFF7FEFF 		bl	tcp_output
 1077              	.LVL128:
 1078              		.loc 1 1333 0
 1079 013e 0020     		movs	r0, #0
 1080 0140 BDE8F087 		pop	{r4, r5, r6, r7, r8, r9, sl, pc}
 1081              	.LVL129:
 1082              	.L194:
 1083              		.loc 1 1279 0 discriminator 1
 1084 0144 B1F86800 		ldrh	r0, [r1, #104]
 1085 0148 0428     		cmp	r0, #4
 1086 014a 9CD9     		bls	.L167
 1087 014c E6E7     		b	.L168
 1088              	.LVL130:
 1089              	.L188:
 1090              		.loc 1 1221 0 discriminator 1
 1091 014e FFF7FEFF 		bl	port_halt
 1092              	.LVL131:
 1093 0152 6BE7     		b	.L154
 1094              	.LVL132:
 1095              	.L193:
 1096 0154 666A     		ldr	r6, [r4, #36]
 1097 0156 F668     		ldr	r6, [r6, #12]
 1098 0158 89E7     		b	.L161
 1099              	.LVL133:
 1100              	.L189:
 1101              		.loc 1 1222 0 discriminator 1
 1102 015a FFF7FEFF 		bl	port_halt
 1103              	.LVL134:
 1104 015e 69E7     		b	.L155
 1105              		.cfi_endproc
 1106              	.LFE29:
 1107              		.size	do_writemore, .-do_writemore
 1108              		.section	.text.poll_tcp,"ax",%progbits
 1109              		.align	2
 1110              		.p2align 4,,15
 1111              		.thumb
 1112              		.thumb_func
 1113              		.type	poll_tcp, %function
 1114              	poll_tcp:
 1115              	.LFB10:
 1116              		.loc 1 278 0
 1117              		.cfi_startproc
 1118              		@ args = 0, pretend = 0, frame = 0
 1119              		@ frame_needed = 0, uses_anonymous_args = 0
 1120              	.LVL135:
 1121 0000 38B5     		push	{r3, r4, r5, lr}
 1122              	.LCFI6:
 1123              		.cfi_def_cfa_offset 16
 1124              		.cfi_offset 3, -16
 1125              		.cfi_offset 4, -12
 1126              		.cfi_offset 5, -8
 1127              		.cfi_offset 14, -4
 1128              		.loc 1 282 0
 1129 0002 0446     		mov	r4, r0
 1130 0004 38B3     		cbz	r0, .L208
 1131              	.LVL136:
 1132              	.L196:
ARM GAS  C:\Users\jenny\AppData\Local\Temp\ccWqzXsD.s 			page 21


 1133              		.loc 1 284 0
 1134 0006 6378     		ldrb	r3, [r4, #1]	@ zero_extendqisi2
 1135 0008 012B     		cmp	r3, #1
 1136 000a 1CD0     		beq	.L209
 1137              		.loc 1 286 0
 1138 000c 042B     		cmp	r3, #4
 1139 000e 1ED0     		beq	.L210
 1140              	.L198:
 1141              		.loc 1 292 0
 1142 0010 207F     		ldrb	r0, [r4, #28]	@ zero_extendqisi2
 1143 0012 00F01002 		and	r2, r0, #16
 1144 0016 D1B2     		uxtb	r1, r2
 1145 0018 99B1     		cbz	r1, .L200
 1146              		.loc 1 295 0
 1147 001a 6368     		ldr	r3, [r4, #4]
 1148 001c 8BB1     		cbz	r3, .L200
 1149              		.loc 1 295 0 is_stmt 0 discriminator 1
 1150 001e B3F86620 		ldrh	r2, [r3, #102]
 1151 0022 B2F5866F 		cmp	r2, #1072
 1152 0026 0CD3     		bcc	.L200
 1153 0028 B3F86810 		ldrh	r1, [r3, #104]
 1154 002c 0429     		cmp	r1, #4
 1155 002e 08D8     		bhi	.L200
 1156              		.loc 1 298 0 is_stmt 1
 1157 0030 A56A     		ldr	r5, [r4, #40]
 1158              		.loc 1 297 0
 1159 0032 20F01000 		bic	r0, r0, #16
 1160 0036 2077     		strb	r0, [r4, #28]
 1161              		.loc 1 298 0
 1162 0038 1DB1     		cbz	r5, .L200
 1163              		.loc 1 298 0 is_stmt 0 discriminator 1
 1164 003a 2046     		mov	r0, r4
 1165 003c 0221     		movs	r1, #2
 1166 003e 0022     		movs	r2, #0
 1167 0040 A847     		blx	r5
 1168              	.LVL137:
 1169              	.L200:
 1170              		.loc 1 303 0 is_stmt 1
 1171 0042 0020     		movs	r0, #0
 1172 0044 38BD     		pop	{r3, r4, r5, pc}
 1173              	.L209:
 1174              		.loc 1 285 0
 1175 0046 2046     		mov	r0, r4
 1176 0048 FFF7FEFF 		bl	do_writemore
 1177              	.LVL138:
 1178 004c E0E7     		b	.L198
 1179              	.L210:
 1180              		.loc 1 287 0
 1181 004e 2046     		mov	r0, r4
 1182 0050 FFF7FEFF 		bl	do_close_internal
 1183              	.LVL139:
 1184 0054 DCE7     		b	.L198
 1185              	.LVL140:
 1186              	.L208:
 1187              		.loc 1 282 0 discriminator 1
 1188 0056 FFF7FEFF 		bl	port_halt
 1189              	.LVL141:
ARM GAS  C:\Users\jenny\AppData\Local\Temp\ccWqzXsD.s 			page 22


 1190 005a D4E7     		b	.L196
 1191              		.cfi_endproc
 1192              	.LFE10:
 1193              		.size	poll_tcp, .-poll_tcp
 1194 005c AFF30080 		.section	.text.recv_udp,"ax",%progbits
 1195              		.align	2
 1196              		.p2align 4,,15
 1197              		.thumb
 1198              		.thumb_func
 1199              		.type	recv_udp, %function
 1200              	recv_udp:
 1201              	.LFB8:
 1202              		.loc 1 146 0
 1203              		.cfi_startproc
 1204              		@ args = 4, pretend = 0, frame = 8
 1205              		@ frame_needed = 0, uses_anonymous_args = 0
 1206              	.LVL142:
 1207 0000 2DE9F043 		push	{r4, r5, r6, r7, r8, r9, lr}
 1208              	.LCFI7:
 1209              		.cfi_def_cfa_offset 28
 1210              		.cfi_offset 4, -28
 1211              		.cfi_offset 5, -24
 1212              		.cfi_offset 6, -20
 1213              		.cfi_offset 7, -16
 1214              		.cfi_offset 8, -12
 1215              		.cfi_offset 9, -8
 1216              		.cfi_offset 14, -4
 1217 0004 83B0     		sub	sp, sp, #12
 1218              	.LCFI8:
 1219              		.cfi_def_cfa_offset 40
 1220              		.loc 1 146 0
 1221 0006 0446     		mov	r4, r0
 1222 0008 1546     		mov	r5, r2
 1223 000a 9846     		mov	r8, r3
 1224 000c BDF82890 		ldrh	r9, [sp, #40]
 1225              		.loc 1 155 0
 1226 0010 0029     		cmp	r1, #0
 1227 0012 31D0     		beq	.L225
 1228              	.LVL143:
 1229              	.L212:
 1230              		.loc 1 156 0
 1231 0014 002C     		cmp	r4, #0
 1232 0016 3AD0     		beq	.L226
 1233              	.L213:
 1234              	.LVL144:
 1235              		.loc 1 158 0
 1236 0018 6268     		ldr	r2, [r4, #4]
 1237 001a 8A42     		cmp	r2, r1
 1238 001c 01D0     		beq	.L214
 1239              		.loc 1 158 0 is_stmt 0 discriminator 1
 1240 001e FFF7FEFF 		bl	port_halt
 1241              	.LVL145:
 1242              	.L214:
 1243              		.loc 1 165 0 is_stmt 1
 1244 0022 04F11007 		add	r7, r4, #16
 1245 0026 3846     		mov	r0, r7
 1246 0028 FFF7FEFF 		bl	sys_mbox_valid
ARM GAS  C:\Users\jenny\AppData\Local\Temp\ccWqzXsD.s 			page 23


 1247              	.LVL146:
 1248 002c 28B9     		cbnz	r0, .L215
 1249              	.L224:
 1250              		.loc 1 173 0
 1251 002e 2846     		mov	r0, r5
 1252              		.loc 1 205 0
 1253 0030 03B0     		add	sp, sp, #12
 1254 0032 BDE8F043 		pop	{r4, r5, r6, r7, r8, r9, lr}
 1255              		.loc 1 173 0
 1256 0036 FFF7FEBF 		b	pbuf_free
 1257              	.LVL147:
 1258              	.L215:
 1259              		.loc 1 171 0
 1260 003a 0720     		movs	r0, #7
 1261 003c FFF7FEFF 		bl	memp_malloc
 1262              	.LVL148:
 1263              		.loc 1 172 0
 1264 0040 0646     		mov	r6, r0
 1265 0042 0028     		cmp	r0, #0
 1266 0044 F3D0     		beq	.L224
 1267              		.loc 1 176 0
 1268 0046 0560     		str	r5, [r0, #0]
 1269              		.loc 1 177 0
 1270 0048 4560     		str	r5, [r0, #4]
 1271              		.loc 1 178 0
 1272 004a B8F1000F 		cmp	r8, #0
 1273 004e 23D0     		beq	.L220
 1274              		.loc 1 178 0 is_stmt 0 discriminator 1
 1275 0050 D8F80030 		ldr	r3, [r8, #0]
 1276              	.L217:
 1277              		.loc 1 195 0 is_stmt 1 discriminator 3
 1278 0054 3146     		mov	r1, r6
 1279              		.loc 1 178 0 discriminator 3
 1280 0056 B360     		str	r3, [r6, #8]
 1281              		.loc 1 179 0 discriminator 3
 1282 0058 A6F80C90 		strh	r9, [r6, #12]	@ movhi
 1283              		.loc 1 195 0 discriminator 3
 1284 005c 3846     		mov	r0, r7
 1285              	.LVL149:
 1286              		.loc 1 194 0 discriminator 3
 1287 005e 2D89     		ldrh	r5, [r5, #8]
 1288              	.LVL150:
 1289              		.loc 1 195 0 discriminator 3
 1290 0060 FFF7FEFF 		bl	sys_mbox_trypost
 1291              	.LVL151:
 1292 0064 0146     		mov	r1, r0
 1293 0066 60B9     		cbnz	r0, .L227
 1294              		.loc 1 203 0
 1295 0068 A36A     		ldr	r3, [r4, #40]
 1296 006a 13B1     		cbz	r3, .L211
 1297              		.loc 1 203 0 is_stmt 0 discriminator 1
 1298 006c 2046     		mov	r0, r4
 1299 006e 2A46     		mov	r2, r5
 1300 0070 9847     		blx	r3
 1301              	.LVL152:
 1302              	.L211:
 1303              		.loc 1 205 0 is_stmt 1
ARM GAS  C:\Users\jenny\AppData\Local\Temp\ccWqzXsD.s 			page 24


 1304 0072 03B0     		add	sp, sp, #12
 1305 0074 BDE8F083 		pop	{r4, r5, r6, r7, r8, r9, pc}
 1306              	.LVL153:
 1307              	.L225:
 1308              		.loc 1 155 0 discriminator 1
 1309 0078 0191     		str	r1, [sp, #4]
 1310 007a FFF7FEFF 		bl	port_halt
 1311              	.LVL154:
 1312 007e 0199     		ldr	r1, [sp, #4]
 1313 0080 C8E7     		b	.L212
 1314              	.LVL155:
 1315              	.L227:
 1316              		.loc 1 196 0
 1317 0082 3046     		mov	r0, r6
 1318              		.loc 1 205 0
 1319 0084 03B0     		add	sp, sp, #12
 1320 0086 BDE8F043 		pop	{r4, r5, r6, r7, r8, r9, lr}
 1321              		.loc 1 196 0
 1322 008a FFF7FEBF 		b	netbuf_delete
 1323              	.LVL156:
 1324              	.L226:
 1325              		.loc 1 156 0 discriminator 1
 1326 008e 0191     		str	r1, [sp, #4]
 1327 0090 FFF7FEFF 		bl	port_halt
 1328              	.LVL157:
 1329 0094 0199     		ldr	r1, [sp, #4]
 1330 0096 BFE7     		b	.L213
 1331              	.LVL158:
 1332              	.L220:
 1333              		.loc 1 178 0
 1334 0098 4346     		mov	r3, r8
 1335 009a DBE7     		b	.L217
 1336              		.cfi_endproc
 1337              	.LFE8:
 1338              		.size	recv_udp, .-recv_udp
 1339 009c AFF30080 		.section	.text.recv_raw,"ax",%progbits
 1340              		.align	2
 1341              		.p2align 4,,15
 1342              		.thumb
 1343              		.thumb_func
 1344              		.type	recv_raw, %function
 1345              	recv_raw:
 1346              	.LFB7:
 1347              		.loc 1 80 0
 1348              		.cfi_startproc
 1349              		@ args = 0, pretend = 0, frame = 0
 1350              		@ frame_needed = 0, uses_anonymous_args = 0
 1351              	.LVL159:
 1352 0000 2DE9F041 		push	{r4, r5, r6, r7, r8, lr}
 1353              	.LCFI9:
 1354              		.cfi_def_cfa_offset 24
 1355              		.cfi_offset 4, -24
 1356              		.cfi_offset 5, -20
 1357              		.cfi_offset 6, -16
 1358              		.cfi_offset 7, -12
 1359              		.cfi_offset 8, -8
 1360              		.cfi_offset 14, -4
ARM GAS  C:\Users\jenny\AppData\Local\Temp\ccWqzXsD.s 			page 25


 1361              		.loc 1 88 0
 1362 0004 0446     		mov	r4, r0
 1363              		.loc 1 80 0
 1364 0006 0F46     		mov	r7, r1
 1365 0008 1646     		mov	r6, r2
 1366              		.loc 1 88 0
 1367 000a 28B1     		cbz	r0, .L243
 1368              		.loc 1 88 0 is_stmt 0 discriminator 1
 1369 000c 00F11005 		add	r5, r0, #16
 1370 0010 2846     		mov	r0, r5
 1371              	.LVL160:
 1372 0012 FFF7FEFF 		bl	sys_mbox_valid
 1373              	.LVL161:
 1374 0016 10B9     		cbnz	r0, .L248
 1375              	.LVL162:
 1376              	.L243:
 1377              		.loc 1 133 0 is_stmt 1
 1378 0018 0020     		movs	r0, #0
 1379 001a BDE8F081 		pop	{r4, r5, r6, r7, r8, pc}
 1380              	.LVL163:
 1381              	.L248:
 1382              		.loc 1 97 0
 1383 001e 0320     		movs	r0, #3
 1384 0020 3189     		ldrh	r1, [r6, #8]
 1385 0022 0022     		movs	r2, #0
 1386 0024 FFF7FEFF 		bl	pbuf_alloc
 1387              	.LVL164:
 1388              		.loc 1 98 0
 1389 0028 8046     		mov	r8, r0
 1390 002a 0028     		cmp	r0, #0
 1391 002c F4D0     		beq	.L243
 1392              		.loc 1 99 0
 1393 002e 3146     		mov	r1, r6
 1394 0030 FFF7FEFF 		bl	pbuf_copy
 1395              	.LVL165:
 1396 0034 F0B9     		cbnz	r0, .L235
 1397              	.LBB5:
 1398              		.loc 1 107 0
 1399 0036 0720     		movs	r0, #7
 1400 0038 FFF7FEFF 		bl	memp_malloc
 1401              	.LVL166:
 1402              		.loc 1 108 0
 1403 003c 0646     		mov	r6, r0
 1404              	.LVL167:
 1405 003e C8B1     		cbz	r0, .L235
 1406              		.loc 1 115 0
 1407 0040 104B     		ldr	r3, .L250
 1408              		.loc 1 113 0
 1409 0042 C6F80080 		str	r8, [r6, #0]
 1410              		.loc 1 115 0
 1411 0046 1868     		ldr	r0, [r3, #0]
 1412              	.LVL168:
 1413              		.loc 1 114 0
 1414 0048 C6F80480 		str	r8, [r6, #4]
 1415              		.loc 1 115 0
 1416 004c B060     		str	r0, [r6, #8]
 1417              		.loc 1 116 0
ARM GAS  C:\Users\jenny\AppData\Local\Temp\ccWqzXsD.s 			page 26


 1418 004e 397C     		ldrb	r1, [r7, #16]	@ zero_extendqisi2
 1419              		.loc 1 118 0
 1420 0050 B8F80870 		ldrh	r7, [r8, #8]
 1421              	.LVL169:
 1422              		.loc 1 116 0
 1423 0054 B181     		strh	r1, [r6, #12]	@ movhi
 1424              		.loc 1 119 0
 1425 0056 2846     		mov	r0, r5
 1426 0058 3146     		mov	r1, r6
 1427 005a FFF7FEFF 		bl	sys_mbox_trypost
 1428              	.LVL170:
 1429 005e 0146     		mov	r1, r0
 1430 0060 60B9     		cbnz	r0, .L249
 1431              		.loc 1 127 0
 1432 0062 A36A     		ldr	r3, [r4, #40]
 1433 0064 002B     		cmp	r3, #0
 1434 0066 D7D0     		beq	.L243
 1435              		.loc 1 127 0 is_stmt 0 discriminator 1
 1436 0068 2046     		mov	r0, r4
 1437 006a 3A46     		mov	r2, r7
 1438 006c 9847     		blx	r3
 1439              	.LVL171:
 1440              	.LBE5:
 1441              		.loc 1 133 0 is_stmt 1 discriminator 1
 1442 006e 0020     		movs	r0, #0
 1443 0070 BDE8F081 		pop	{r4, r5, r6, r7, r8, pc}
 1444              	.LVL172:
 1445              	.L235:
 1446              	.LBB6:
 1447              		.loc 1 109 0
 1448 0074 4046     		mov	r0, r8
 1449 0076 FFF7FEFF 		bl	pbuf_free
 1450              	.LVL173:
 1451              		.loc 1 110 0
 1452 007a CDE7     		b	.L243
 1453              	.LVL174:
 1454              	.L249:
 1455              		.loc 1 120 0
 1456 007c 3046     		mov	r0, r6
 1457 007e FFF7FEFF 		bl	netbuf_delete
 1458              	.LVL175:
 1459              		.loc 1 121 0
 1460 0082 C9E7     		b	.L243
 1461              	.L251:
 1462              		.align	2
 1463              	.L250:
 1464 0084 00000000 		.word	current_iphdr_src
 1465              	.LBE6:
 1466              		.cfi_endproc
 1467              	.LFE7:
 1468              		.size	recv_raw, .-recv_raw
 1469 0088 AFF30080 		.section	.text.sent_tcp,"ax",%progbits
 1469      AFF30080 
 1470              		.align	2
 1471              		.p2align 4,,15
 1472              		.thumb
 1473              		.thumb_func
ARM GAS  C:\Users\jenny\AppData\Local\Temp\ccWqzXsD.s 			page 27


 1474              		.type	sent_tcp, %function
 1475              	sent_tcp:
 1476              	.LFB11:
 1477              		.loc 1 314 0
 1478              		.cfi_startproc
 1479              		@ args = 0, pretend = 0, frame = 0
 1480              		@ frame_needed = 0, uses_anonymous_args = 0
 1481              	.LVL176:
 1482 0000 38B5     		push	{r3, r4, r5, lr}
 1483              	.LCFI10:
 1484              		.cfi_def_cfa_offset 16
 1485              		.cfi_offset 3, -16
 1486              		.cfi_offset 4, -12
 1487              		.cfi_offset 5, -8
 1488              		.cfi_offset 14, -4
 1489              		.loc 1 318 0
 1490 0002 0446     		mov	r4, r0
 1491              		.loc 1 314 0
 1492 0004 1546     		mov	r5, r2
 1493              		.loc 1 318 0
 1494 0006 18B3     		cbz	r0, .L262
 1495              	.LVL177:
 1496              	.L253:
 1497              		.loc 1 320 0
 1498 0008 6378     		ldrb	r3, [r4, #1]	@ zero_extendqisi2
 1499 000a 012B     		cmp	r3, #1
 1500 000c 18D0     		beq	.L263
 1501              		.loc 1 322 0
 1502 000e 042B     		cmp	r3, #4
 1503 0010 1AD0     		beq	.L264
 1504              	.L255:
 1505              		.loc 1 329 0
 1506 0012 6068     		ldr	r0, [r4, #4]
 1507 0014 90B1     		cbz	r0, .L257
 1508              		.loc 1 329 0 is_stmt 0 discriminator 1
 1509 0016 B0F86610 		ldrh	r1, [r0, #102]
 1510 001a B1F5866F 		cmp	r1, #1072
 1511 001e 0DD3     		bcc	.L257
 1512 0020 B0F86820 		ldrh	r2, [r0, #104]
 1513 0024 042A     		cmp	r2, #4
 1514 0026 09D8     		bhi	.L257
 1515              	.LVL178:
 1516              	.LBB9:
 1517              	.LBB10:
 1518              		.loc 1 331 0 is_stmt 1
 1519 0028 207F     		ldrb	r0, [r4, #28]	@ zero_extendqisi2
 1520              		.loc 1 332 0
 1521 002a A36A     		ldr	r3, [r4, #40]
 1522              		.loc 1 331 0
 1523 002c 20F01001 		bic	r1, r0, #16
 1524 0030 2177     		strb	r1, [r4, #28]
 1525              		.loc 1 332 0
 1526 0032 1BB1     		cbz	r3, .L257
 1527 0034 2046     		mov	r0, r4
 1528 0036 0221     		movs	r1, #2
 1529 0038 2A46     		mov	r2, r5
 1530 003a 9847     		blx	r3
ARM GAS  C:\Users\jenny\AppData\Local\Temp\ccWqzXsD.s 			page 28


 1531              	.LVL179:
 1532              	.L257:
 1533              	.LBE10:
 1534              	.LBE9:
 1535              		.loc 1 337 0
 1536 003c 0020     		movs	r0, #0
 1537 003e 38BD     		pop	{r3, r4, r5, pc}
 1538              	.L263:
 1539              		.loc 1 321 0
 1540 0040 2046     		mov	r0, r4
 1541 0042 FFF7FEFF 		bl	do_writemore
 1542              	.LVL180:
 1543 0046 E4E7     		b	.L255
 1544              	.L264:
 1545              		.loc 1 323 0
 1546 0048 2046     		mov	r0, r4
 1547 004a FFF7FEFF 		bl	do_close_internal
 1548              	.LVL181:
 1549 004e E0E7     		b	.L255
 1550              	.LVL182:
 1551              	.L262:
 1552              		.loc 1 318 0 discriminator 1
 1553 0050 FFF7FEFF 		bl	port_halt
 1554              	.LVL183:
 1555 0054 D8E7     		b	.L253
 1556              		.cfi_endproc
 1557              	.LFE11:
 1558              		.size	sent_tcp, .-sent_tcp
 1559 0056 00BFAFF3 		.section	.text.do_newconn,"ax",%progbits
 1559      0080AFF3 
 1559      0080
 1560              		.align	2
 1561              		.p2align 4,,15
 1562              		.global	do_newconn
 1563              		.thumb
 1564              		.thumb_func
 1565              		.type	do_newconn, %function
 1566              	do_newconn:
 1567              	.LFB16:
 1568              		.loc 1 549 0
 1569              		.cfi_startproc
 1570              		@ args = 0, pretend = 0, frame = 0
 1571              		@ frame_needed = 0, uses_anonymous_args = 0
 1572              	.LVL184:
 1573 0000 38B5     		push	{r3, r4, r5, lr}
 1574              	.LCFI11:
 1575              		.cfi_def_cfa_offset 16
 1576              		.cfi_offset 3, -16
 1577              		.cfi_offset 4, -12
 1578              		.cfi_offset 5, -8
 1579              		.cfi_offset 14, -4
 1580              		.loc 1 551 0
 1581 0002 0468     		ldr	r4, [r0, #0]
 1582              		.loc 1 550 0
 1583 0004 0023     		movs	r3, #0
 1584 0006 0371     		strb	r3, [r0, #4]
 1585              		.loc 1 549 0
ARM GAS  C:\Users\jenny\AppData\Local\Temp\ccWqzXsD.s 			page 29


 1586 0008 0546     		mov	r5, r0
 1587              		.loc 1 551 0
 1588 000a 6068     		ldr	r0, [r4, #4]
 1589              	.LVL185:
 1590 000c 28B1     		cbz	r0, .L277
 1591              	.L266:
 1592              		.loc 1 558 0
 1593 000e 04F10C00 		add	r0, r4, #12
 1594              		.loc 1 559 0
 1595 0012 BDE83840 		pop	{r3, r4, r5, lr}
 1596              		.loc 1 558 0
 1597 0016 FFF7FEBF 		b	sys_sem_signal
 1598              	.LVL186:
 1599              	.L277:
 1600              	.LBB13:
 1601              		.loc 1 495 0
 1602 001a 2178     		ldrb	r1, [r4, #0]	@ zero_extendqisi2
 1603              	.LBB14:
 1604 001c 01F0F002 		and	r2, r1, #240
 1605 0020 202A     		cmp	r2, #32
 1606 0022 1ED0     		beq	.L269
 1607 0024 402A     		cmp	r2, #64
 1608 0026 0FD0     		beq	.L270
 1609 0028 102A     		cmp	r2, #16
 1610 002a 02D0     		beq	.L278
 1611              		.loc 1 536 0
 1612 002c FA23     		movs	r3, #250
 1613 002e 2B71     		strb	r3, [r5, #4]
 1614 0030 EDE7     		b	.L266
 1615              	.L278:
 1616              		.loc 1 526 0
 1617 0032 FFF7FEFF 		bl	tcp_new
 1618              	.LVL187:
 1619 0036 6060     		str	r0, [r4, #4]
 1620              		.loc 1 527 0
 1621 0038 2C68     		ldr	r4, [r5, #0]
 1622 003a 6068     		ldr	r0, [r4, #4]
 1623 003c 20B3     		cbz	r0, .L276
 1624              		.loc 1 531 0
 1625 003e 2046     		mov	r0, r4
 1626 0040 FFF7FEFF 		bl	setup_tcp
 1627              	.LVL188:
 1628 0044 2C68     		ldr	r4, [r5, #0]
 1629 0046 E2E7     		b	.L266
 1630              	.L270:
 1631              		.loc 1 498 0
 1632 0048 287A     		ldrb	r0, [r5, #8]	@ zero_extendqisi2
 1633 004a FFF7FEFF 		bl	raw_new
 1634              	.LVL189:
 1635 004e 6060     		str	r0, [r4, #4]
 1636              		.loc 1 499 0
 1637 0050 2C68     		ldr	r4, [r5, #0]
 1638 0052 6068     		ldr	r0, [r4, #4]
 1639 0054 C0B1     		cbz	r0, .L276
 1640              		.loc 1 503 0
 1641 0056 2246     		mov	r2, r4
 1642 0058 0D49     		ldr	r1, .L279
ARM GAS  C:\Users\jenny\AppData\Local\Temp\ccWqzXsD.s 			page 30


 1643 005a FFF7FEFF 		bl	raw_recv
 1644              	.LVL190:
 1645 005e 2C68     		ldr	r4, [r5, #0]
 1646 0060 D5E7     		b	.L266
 1647              	.L269:
 1648              		.loc 1 508 0
 1649 0062 FFF7FEFF 		bl	udp_new
 1650              	.LVL191:
 1651 0066 6060     		str	r0, [r4, #4]
 1652              		.loc 1 509 0
 1653 0068 2C68     		ldr	r4, [r5, #0]
 1654 006a 6068     		ldr	r0, [r4, #4]
 1655 006c 60B1     		cbz	r0, .L276
 1656              		.loc 1 518 0
 1657 006e 2178     		ldrb	r1, [r4, #0]	@ zero_extendqisi2
 1658 0070 2229     		cmp	r1, #34
 1659 0072 03D1     		bne	.L273
 1660              		.loc 1 519 0
 1661 0074 0124     		movs	r4, #1
 1662 0076 0474     		strb	r4, [r0, #16]
 1663 0078 2C68     		ldr	r4, [r5, #0]
 1664 007a 6068     		ldr	r0, [r4, #4]
 1665              	.L273:
 1666              		.loc 1 521 0
 1667 007c 2246     		mov	r2, r4
 1668 007e 0549     		ldr	r1, .L279+4
 1669 0080 FFF7FEFF 		bl	udp_recv
 1670              	.LVL192:
 1671 0084 2C68     		ldr	r4, [r5, #0]
 1672 0086 C2E7     		b	.L266
 1673              	.L276:
 1674              		.loc 1 528 0
 1675 0088 FF22     		movs	r2, #255
 1676 008a 2A71     		strb	r2, [r5, #4]
 1677 008c BFE7     		b	.L266
 1678              	.L280:
 1679 008e 00BF     		.align	2
 1680              	.L279:
 1681 0090 00000000 		.word	recv_raw
 1682 0094 00000000 		.word	recv_udp
 1683              	.LBE14:
 1684              	.LBE13:
 1685              		.cfi_endproc
 1686              	.LFE16:
 1687              		.size	do_newconn, .-do_newconn
 1688              		.section	.text.netconn_alloc,"ax",%progbits
 1689              		.align	2
 1690              		.p2align 4,,15
 1691              		.global	netconn_alloc
 1692              		.thumb
 1693              		.thumb_func
 1694              		.type	netconn_alloc, %function
 1695              	netconn_alloc:
 1696              	.LFB17:
 1697              		.loc 1 573 0
 1698              		.cfi_startproc
 1699              		@ args = 0, pretend = 0, frame = 0
ARM GAS  C:\Users\jenny\AppData\Local\Temp\ccWqzXsD.s 			page 31


 1700              		@ frame_needed = 0, uses_anonymous_args = 0
 1701              	.LVL193:
 1702 0000 F8B5     		push	{r3, r4, r5, r6, r7, lr}
 1703              	.LCFI12:
 1704              		.cfi_def_cfa_offset 24
 1705              		.cfi_offset 3, -24
 1706              		.cfi_offset 4, -20
 1707              		.cfi_offset 5, -16
 1708              		.cfi_offset 6, -12
 1709              		.cfi_offset 7, -8
 1710              		.cfi_offset 14, -4
 1711              		.loc 1 573 0
 1712 0002 0546     		mov	r5, r0
 1713              		.loc 1 577 0
 1714 0004 0820     		movs	r0, #8
 1715              	.LVL194:
 1716              		.loc 1 573 0
 1717 0006 0E46     		mov	r6, r1
 1718              		.loc 1 577 0
 1719 0008 FFF7FEFF 		bl	memp_malloc
 1720              	.LVL195:
 1721              		.loc 1 578 0
 1722 000c 0446     		mov	r4, r0
 1723 000e 90B1     		cbz	r0, .L282
 1724              		.loc 1 590 0
 1725 0010 05F0F003 		and	r3, r5, #240
 1726              		.loc 1 582 0
 1727 0014 0022     		movs	r2, #0
 1728              		.loc 1 590 0
 1729 0016 202B     		cmp	r3, #32
 1730              		.loc 1 582 0
 1731 0018 0272     		strb	r2, [r0, #8]
 1732              		.loc 1 583 0
 1733 001a 0570     		strb	r5, [r0, #0]
 1734              		.loc 1 584 0
 1735 001c 4260     		str	r2, [r0, #4]
 1736              		.loc 1 590 0
 1737 001e 0CD0     		beq	.L285
 1738 0020 402B     		cmp	r3, #64
 1739 0022 0AD0     		beq	.L285
 1740 0024 102B     		cmp	r3, #16
 1741 0026 26D0     		beq	.L288
 1742              		.loc 1 607 0 discriminator 1
 1743 0028 FFF7FEFF 		bl	port_halt
 1744              	.LVL196:
 1745              	.L286:
 1746              		.loc 1 646 0
 1747 002c 2146     		mov	r1, r4
 1748 002e 0820     		movs	r0, #8
 1749 0030 FFF7FEFF 		bl	memp_free
 1750              	.LVL197:
 1751              		.loc 1 647 0
 1752 0034 0024     		movs	r4, #0
 1753              	.LVL198:
 1754              	.L282:
 1755              		.loc 1 648 0
 1756 0036 2046     		mov	r0, r4
ARM GAS  C:\Users\jenny\AppData\Local\Temp\ccWqzXsD.s 			page 32


 1757 0038 F8BD     		pop	{r3, r4, r5, r6, r7, pc}
 1758              	.LVL199:
 1759              	.L285:
 1760              		.loc 1 593 0
 1761 003a 0425     		movs	r5, #4
 1762              	.L284:
 1763              	.LVL200:
 1764              		.loc 1 612 0
 1765 003c 04F10C07 		add	r7, r4, #12
 1766 0040 3846     		mov	r0, r7
 1767              	.LVL201:
 1768 0042 0021     		movs	r1, #0
 1769 0044 FFF7FEFF 		bl	sys_sem_new
 1770              	.LVL202:
 1771 0048 0028     		cmp	r0, #0
 1772 004a EFD1     		bne	.L286
 1773              		.loc 1 615 0
 1774 004c 2946     		mov	r1, r5
 1775 004e 04F11000 		add	r0, r4, #16
 1776 0052 FFF7FEFF 		bl	sys_mbox_new
 1777              	.LVL203:
 1778 0056 0546     		mov	r5, r0
 1779              	.LVL204:
 1780 0058 78B9     		cbnz	r0, .L298
 1781              		.loc 1 621 0
 1782 005a 04F11400 		add	r0, r4, #20
 1783 005e FFF7FEFF 		bl	sys_mbox_set_invalid
 1784              	.LVL205:
 1785              		.loc 1 626 0
 1786 0062 4FF0FF30 		mov	r0, #-1
 1787 0066 A061     		str	r0, [r4, #24]
 1788              		.loc 1 623 0
 1789 0068 6570     		strb	r5, [r4, #1]
 1790              		.loc 1 628 0
 1791 006a A662     		str	r6, [r4, #40]
 1792              		.loc 1 630 0
 1793 006c 6562     		str	r5, [r4, #36]
 1794              		.loc 1 631 0
 1795 006e 2562     		str	r5, [r4, #32]
 1796              		.loc 1 643 0
 1797 0070 2577     		strb	r5, [r4, #28]
 1798              		.loc 1 648 0
 1799 0072 2046     		mov	r0, r4
 1800 0074 F8BD     		pop	{r3, r4, r5, r6, r7, pc}
 1801              	.LVL206:
 1802              	.L288:
 1803              		.loc 1 603 0
 1804 0076 2825     		movs	r5, #40
 1805 0078 E0E7     		b	.L284
 1806              	.LVL207:
 1807              	.L298:
 1808              		.loc 1 616 0
 1809 007a 3846     		mov	r0, r7
 1810 007c FFF7FEFF 		bl	sys_sem_free
 1811              	.LVL208:
 1812              		.loc 1 617 0
 1813 0080 D4E7     		b	.L286
ARM GAS  C:\Users\jenny\AppData\Local\Temp\ccWqzXsD.s 			page 33


 1814              		.cfi_endproc
 1815              	.LFE17:
 1816              		.size	netconn_alloc, .-netconn_alloc
 1817 0082 00BFAFF3 		.section	.text.netconn_free,"ax",%progbits
 1817      0080AFF3 
 1817      0080AFF3 
 1817      0080
 1818              		.align	2
 1819              		.p2align 4,,15
 1820              		.global	netconn_free
 1821              		.thumb
 1822              		.thumb_func
 1823              		.type	netconn_free, %function
 1824              	netconn_free:
 1825              	.LFB18:
 1826              		.loc 1 658 0
 1827              		.cfi_startproc
 1828              		@ args = 0, pretend = 0, frame = 0
 1829              		@ frame_needed = 0, uses_anonymous_args = 0
 1830              	.LVL209:
 1831 0000 38B5     		push	{r3, r4, r5, lr}
 1832              	.LCFI13:
 1833              		.cfi_def_cfa_offset 16
 1834              		.cfi_offset 3, -16
 1835              		.cfi_offset 4, -12
 1836              		.cfi_offset 5, -8
 1837              		.cfi_offset 14, -4
 1838              		.loc 1 659 0
 1839 0002 4368     		ldr	r3, [r0, #4]
 1840              		.loc 1 658 0
 1841 0004 0446     		mov	r4, r0
 1842              		.loc 1 659 0
 1843 0006 0BB1     		cbz	r3, .L300
 1844              		.loc 1 659 0 is_stmt 0 discriminator 1
 1845 0008 FFF7FEFF 		bl	port_halt
 1846              	.LVL210:
 1847              	.L300:
 1848              		.loc 1 660 0 is_stmt 1
 1849 000c 04F11000 		add	r0, r4, #16
 1850 0010 FFF7FEFF 		bl	sys_mbox_valid
 1851              	.LVL211:
 1852 0014 A0B9     		cbnz	r0, .L312
 1853              	.L301:
 1854              		.loc 1 663 0
 1855 0016 04F11400 		add	r0, r4, #20
 1856 001a FFF7FEFF 		bl	sys_mbox_valid
 1857              	.LVL212:
 1858 001e 08B1     		cbz	r0, .L302
 1859              		.loc 1 663 0 is_stmt 0 discriminator 1
 1860 0020 FFF7FEFF 		bl	port_halt
 1861              	.LVL213:
 1862              	.L302:
 1863              		.loc 1 667 0 is_stmt 1
 1864 0024 04F10C05 		add	r5, r4, #12
 1865 0028 2846     		mov	r0, r5
 1866 002a FFF7FEFF 		bl	sys_sem_free
 1867              	.LVL214:
ARM GAS  C:\Users\jenny\AppData\Local\Temp\ccWqzXsD.s 			page 34


 1868              		.loc 1 668 0
 1869 002e 2846     		mov	r0, r5
 1870 0030 FFF7FEFF 		bl	sys_sem_set_invalid
 1871              	.LVL215:
 1872              		.loc 1 670 0
 1873 0034 0820     		movs	r0, #8
 1874 0036 2146     		mov	r1, r4
 1875              		.loc 1 671 0
 1876 0038 BDE83840 		pop	{r3, r4, r5, lr}
 1877              		.loc 1 670 0
 1878 003c FFF7FEBF 		b	memp_free
 1879              	.LVL216:
 1880              	.L312:
 1881              		.loc 1 660 0 discriminator 1
 1882 0040 FFF7FEFF 		bl	port_halt
 1883              	.LVL217:
 1884 0044 E7E7     		b	.L301
 1885              		.cfi_endproc
 1886              	.LFE18:
 1887              		.size	netconn_free, .-netconn_free
 1888 0046 00BFAFF3 		.section	.text.netconn_drain,"ax",%progbits
 1888      0080AFF3 
 1888      0080
 1889              		.align	2
 1890              		.p2align 4,,15
 1891              		.thumb
 1892              		.thumb_func
 1893              		.type	netconn_drain, %function
 1894              	netconn_drain:
 1895              	.LFB19:
 1896              		.loc 1 683 0
 1897              		.cfi_startproc
 1898              		@ args = 0, pretend = 0, frame = 8
 1899              		@ frame_needed = 0, uses_anonymous_args = 0
 1900              	.LVL218:
 1901 0000 F0B5     		push	{r4, r5, r6, r7, lr}
 1902              	.LCFI14:
 1903              		.cfi_def_cfa_offset 20
 1904              		.cfi_offset 4, -20
 1905              		.cfi_offset 5, -16
 1906              		.cfi_offset 6, -12
 1907              		.cfi_offset 7, -8
 1908              		.cfi_offset 14, -4
 1909              		.loc 1 692 0
 1910 0002 00F11004 		add	r4, r0, #16
 1911              		.loc 1 683 0
 1912 0006 83B0     		sub	sp, sp, #12
 1913              	.LCFI15:
 1914              		.cfi_def_cfa_offset 32
 1915              		.loc 1 683 0
 1916 0008 0546     		mov	r5, r0
 1917              		.loc 1 692 0
 1918 000a 2046     		mov	r0, r4
 1919              	.LVL219:
 1920 000c FFF7FEFF 		bl	sys_mbox_valid
 1921              	.LVL220:
 1922 0010 0028     		cmp	r0, #0
ARM GAS  C:\Users\jenny\AppData\Local\Temp\ccWqzXsD.s 			page 35


 1923 0012 2CD1     		bne	.L344
 1924              	.LVL221:
 1925              	.L315:
 1926              		.loc 1 716 0
 1927 0014 05F11406 		add	r6, r5, #20
 1928 0018 3046     		mov	r0, r6
 1929 001a FFF7FEFF 		bl	sys_mbox_valid
 1930              	.LVL222:
 1931 001e 08B3     		cbz	r0, .L313
 1932              	.LBB15:
 1933              		.loc 1 728 0
 1934 0020 0027     		movs	r7, #0
 1935 0022 13E0     		b	.L320
 1936              	.L324:
 1937              		.loc 1 721 0
 1938 0024 6B68     		ldr	r3, [r5, #4]
 1939              		.loc 1 718 0
 1940 0026 019C     		ldr	r4, [sp, #4]
 1941              	.LVL223:
 1942              		.loc 1 721 0
 1943 0028 23B1     		cbz	r3, .L322
 1944              		.loc 1 722 0
 1945 002a 187E     		ldrb	r0, [r3, #24]	@ zero_extendqisi2
 1946 002c 0128     		cmp	r0, #1
 1947 002e 01D0     		beq	.L322
 1948              		.loc 1 722 0 is_stmt 0 discriminator 1
 1949 0030 FFF7FEFF 		bl	port_halt
 1950              	.LVL224:
 1951              	.L322:
 1952              		.loc 1 725 0 is_stmt 1
 1953 0034 2046     		mov	r0, r4
 1954 0036 FFF7E3FF 		bl	netconn_drain
 1955              	.LVL225:
 1956              		.loc 1 726 0
 1957 003a 6168     		ldr	r1, [r4, #4]
 1958              		.loc 1 727 0
 1959 003c 0846     		mov	r0, r1
 1960              		.loc 1 726 0
 1961 003e 11B1     		cbz	r1, .L323
 1962              		.loc 1 727 0
 1963 0040 FFF7FEFF 		bl	tcp_abort
 1964              	.LVL226:
 1965              		.loc 1 728 0
 1966 0044 6760     		str	r7, [r4, #4]
 1967              	.L323:
 1968              		.loc 1 730 0
 1969 0046 2046     		mov	r0, r4
 1970 0048 FFF7FEFF 		bl	netconn_free
 1971              	.LVL227:
 1972              	.L320:
 1973              	.LBE15:
 1974              		.loc 1 717 0 discriminator 1
 1975 004c 01A9     		add	r1, sp, #4
 1976 004e 3046     		mov	r0, r6
 1977 0050 FFF7FEFF 		bl	sys_arch_mbox_tryfetch
 1978              	.LVL228:
 1979 0054 0130     		adds	r0, r0, #1
ARM GAS  C:\Users\jenny\AppData\Local\Temp\ccWqzXsD.s 			page 36


 1980 0056 E5D1     		bne	.L324
 1981              		.loc 1 732 0
 1982 0058 3046     		mov	r0, r6
 1983 005a FFF7FEFF 		bl	sys_mbox_free
 1984              	.LVL229:
 1985              		.loc 1 733 0
 1986 005e 3046     		mov	r0, r6
 1987 0060 FFF7FEFF 		bl	sys_mbox_set_invalid
 1988              	.LVL230:
 1989              	.L313:
 1990              		.loc 1 736 0
 1991 0064 03B0     		add	sp, sp, #12
 1992 0066 F0BD     		pop	{r4, r5, r6, r7, pc}
 1993              	.L316:
 1994              		.loc 1 707 0
 1995 0068 0198     		ldr	r0, [sp, #4]
 1996 006a FFF7FEFF 		bl	netbuf_delete
 1997              	.LVL231:
 1998              	.L344:
 1999              		.loc 1 693 0 discriminator 1
 2000 006e 01A9     		add	r1, sp, #4
 2001 0070 2046     		mov	r0, r4
 2002 0072 FFF7FEFF 		bl	sys_arch_mbox_tryfetch
 2003              	.LVL232:
 2004 0076 0130     		adds	r0, r0, #1
 2005 0078 0FD0     		beq	.L345
 2006              		.loc 1 695 0
 2007 007a 2A78     		ldrb	r2, [r5, #0]	@ zero_extendqisi2
 2008 007c 102A     		cmp	r2, #16
 2009 007e F3D1     		bne	.L316
 2010              		.loc 1 696 0
 2011 0080 019E     		ldr	r6, [sp, #4]
 2012              	.LVL233:
 2013 0082 002E     		cmp	r6, #0
 2014 0084 F3D0     		beq	.L344
 2015              		.loc 1 699 0
 2016 0086 6B68     		ldr	r3, [r5, #4]
 2017              		.loc 1 700 0
 2018 0088 1846     		mov	r0, r3
 2019              		.loc 1 699 0
 2020 008a 13B1     		cbz	r3, .L318
 2021              		.loc 1 700 0
 2022 008c 3189     		ldrh	r1, [r6, #8]
 2023 008e FFF7FEFF 		bl	tcp_recved
 2024              	.LVL234:
 2025              	.L318:
 2026              		.loc 1 702 0
 2027 0092 3046     		mov	r0, r6
 2028 0094 FFF7FEFF 		bl	pbuf_free
 2029              	.LVL235:
 2030 0098 E9E7     		b	.L344
 2031              	.LVL236:
 2032              	.L345:
 2033              		.loc 1 710 0
 2034 009a 2046     		mov	r0, r4
 2035 009c FFF7FEFF 		bl	sys_mbox_free
 2036              	.LVL237:
ARM GAS  C:\Users\jenny\AppData\Local\Temp\ccWqzXsD.s 			page 37


 2037              		.loc 1 711 0
 2038 00a0 2046     		mov	r0, r4
 2039 00a2 FFF7FEFF 		bl	sys_mbox_set_invalid
 2040              	.LVL238:
 2041 00a6 B5E7     		b	.L315
 2042              		.cfi_endproc
 2043              	.LFE19:
 2044              		.size	netconn_drain, .-netconn_drain
 2045 00a8 AFF30080 		.section	.text.accept_function,"ax",%progbits
 2045      AFF30080 
 2046              		.align	2
 2047              		.p2align 4,,15
 2048              		.thumb
 2049              		.thumb_func
 2050              		.type	accept_function, %function
 2051              	accept_function:
 2052              	.LFB14:
 2053              		.loc 1 433 0
 2054              		.cfi_startproc
 2055              		@ args = 0, pretend = 0, frame = 0
 2056              		@ frame_needed = 0, uses_anonymous_args = 0
 2057              	.LVL239:
 2058 0000 2DE9F041 		push	{r4, r5, r6, r7, r8, lr}
 2059              	.LCFI16:
 2060              		.cfi_def_cfa_offset 24
 2061              		.cfi_offset 4, -24
 2062              		.cfi_offset 5, -20
 2063              		.cfi_offset 6, -16
 2064              		.cfi_offset 7, -12
 2065              		.cfi_offset 8, -8
 2066              		.cfi_offset 14, -4
 2067              		.loc 1 439 0
 2068 0004 00F11405 		add	r5, r0, #20
 2069              		.loc 1 433 0
 2070 0008 0446     		mov	r4, r0
 2071              	.LVL240:
 2072              		.loc 1 439 0
 2073 000a 2846     		mov	r0, r5
 2074              	.LVL241:
 2075              		.loc 1 433 0
 2076 000c 8846     		mov	r8, r1
 2077 000e 1746     		mov	r7, r2
 2078              		.loc 1 439 0
 2079 0010 FFF7FEFF 		bl	sys_mbox_valid
 2080              	.LVL242:
 2081 0014 F0B1     		cbz	r0, .L349
 2082              		.loc 1 446 0
 2083 0016 2078     		ldrb	r0, [r4, #0]	@ zero_extendqisi2
 2084 0018 A16A     		ldr	r1, [r4, #40]
 2085 001a FFF7FEFF 		bl	netconn_alloc
 2086              	.LVL243:
 2087              		.loc 1 447 0
 2088 001e 0646     		mov	r6, r0
 2089 0020 D0B1     		cbz	r0, .L350
 2090              		.loc 1 450 0
 2091 0022 C0F80480 		str	r8, [r0, #4]
 2092              		.loc 1 451 0
ARM GAS  C:\Users\jenny\AppData\Local\Temp\ccWqzXsD.s 			page 38


 2093 0026 FFF7FEFF 		bl	setup_tcp
 2094              	.LVL244:
 2095              		.loc 1 456 0
 2096 002a 2846     		mov	r0, r5
 2097              		.loc 1 454 0
 2098 002c 3772     		strb	r7, [r6, #8]
 2099              		.loc 1 456 0
 2100 002e 3146     		mov	r1, r6
 2101 0030 FFF7FEFF 		bl	sys_mbox_trypost
 2102              	.LVL245:
 2103 0034 0546     		mov	r5, r0
 2104 0036 88B9     		cbnz	r0, .L352
 2105              		.loc 1 475 0
 2106 0038 A36A     		ldr	r3, [r4, #40]
 2107 003a 3BB1     		cbz	r3, .L351
 2108              		.loc 1 475 0 is_stmt 0 discriminator 1
 2109 003c 2046     		mov	r0, r4
 2110 003e 2946     		mov	r1, r5
 2111 0040 2A46     		mov	r2, r5
 2112 0042 9847     		blx	r3
 2113              	.LVL246:
 2114              		.loc 1 478 0 is_stmt 1 discriminator 1
 2115 0044 2846     		mov	r0, r5
 2116              	.LVL247:
 2117              	.L347:
 2118              		.loc 1 479 0
 2119 0046 40B2     		sxtb	r0, r0
 2120 0048 BDE8F081 		pop	{r4, r5, r6, r7, r8, pc}
 2121              	.LVL248:
 2122              	.L351:
 2123              		.loc 1 478 0
 2124 004c 1846     		mov	r0, r3
 2125              		.loc 1 479 0
 2126 004e 40B2     		sxtb	r0, r0
 2127 0050 BDE8F081 		pop	{r4, r5, r6, r7, r8, pc}
 2128              	.LVL249:
 2129              	.L349:
 2130              		.loc 1 441 0
 2131 0054 FA20     		movs	r0, #250
 2132 0056 F6E7     		b	.L347
 2133              	.LVL250:
 2134              	.L350:
 2135              		.loc 1 448 0
 2136 0058 FF20     		movs	r0, #255
 2137              	.LVL251:
 2138 005a F4E7     		b	.L347
 2139              	.L352:
 2140              	.LBB16:
 2141              		.loc 1 460 0
 2142 005c 7468     		ldr	r4, [r6, #4]
 2143              	.LVL252:
 2144              		.loc 1 461 0
 2145 005e 0021     		movs	r1, #0
 2146 0060 2046     		mov	r0, r4
 2147 0062 FFF7FEFF 		bl	tcp_arg
 2148              	.LVL253:
 2149              		.loc 1 462 0
ARM GAS  C:\Users\jenny\AppData\Local\Temp\ccWqzXsD.s 			page 39


 2150 0066 2046     		mov	r0, r4
 2151 0068 0021     		movs	r1, #0
 2152 006a FFF7FEFF 		bl	tcp_recv
 2153              	.LVL254:
 2154              		.loc 1 463 0
 2155 006e 2046     		mov	r0, r4
 2156 0070 0021     		movs	r1, #0
 2157 0072 FFF7FEFF 		bl	tcp_sent
 2158              	.LVL255:
 2159              		.loc 1 464 0
 2160 0076 0422     		movs	r2, #4
 2161 0078 2046     		mov	r0, r4
 2162 007a 0021     		movs	r1, #0
 2163 007c FFF7FEFF 		bl	tcp_poll
 2164              	.LVL256:
 2165              		.loc 1 465 0
 2166 0080 2046     		mov	r0, r4
 2167 0082 0021     		movs	r1, #0
 2168 0084 FFF7FEFF 		bl	tcp_err
 2169              	.LVL257:
 2170              		.loc 1 469 0
 2171 0088 06F11004 		add	r4, r6, #16
 2172              	.LVL258:
 2173              		.loc 1 467 0
 2174 008c 0021     		movs	r1, #0
 2175 008e 7160     		str	r1, [r6, #4]
 2176              		.loc 1 469 0
 2177 0090 2046     		mov	r0, r4
 2178 0092 FFF7FEFF 		bl	sys_mbox_free
 2179              	.LVL259:
 2180              		.loc 1 470 0
 2181 0096 2046     		mov	r0, r4
 2182 0098 FFF7FEFF 		bl	sys_mbox_set_invalid
 2183              	.LVL260:
 2184              		.loc 1 471 0
 2185 009c 3046     		mov	r0, r6
 2186 009e FFF7FEFF 		bl	netconn_free
 2187              	.LVL261:
 2188              		.loc 1 472 0
 2189 00a2 FF20     		movs	r0, #255
 2190 00a4 CFE7     		b	.L347
 2191              	.LBE16:
 2192              		.cfi_endproc
 2193              	.LFE14:
 2194              		.size	accept_function, .-accept_function
 2195 00a6 00BFAFF3 		.section	.text.do_delconn,"ax",%progbits
 2195      0080AFF3 
 2195      0080
 2196              		.align	2
 2197              		.p2align 4,,15
 2198              		.global	do_delconn
 2199              		.thumb
 2200              		.thumb_func
 2201              		.type	do_delconn, %function
 2202              	do_delconn:
 2203              	.LFB21:
 2204              		.loc 1 833 0
ARM GAS  C:\Users\jenny\AppData\Local\Temp\ccWqzXsD.s 			page 40


 2205              		.cfi_startproc
 2206              		@ args = 0, pretend = 0, frame = 0
 2207              		@ frame_needed = 0, uses_anonymous_args = 0
 2208              	.LVL262:
 2209 0000 38B5     		push	{r3, r4, r5, lr}
 2210              	.LCFI17:
 2211              		.cfi_def_cfa_offset 16
 2212              		.cfi_offset 3, -16
 2213              		.cfi_offset 4, -12
 2214              		.cfi_offset 5, -8
 2215              		.cfi_offset 14, -4
 2216              		.loc 1 835 0
 2217 0002 0368     		ldr	r3, [r0, #0]
 2218 0004 5A78     		ldrb	r2, [r3, #1]	@ zero_extendqisi2
 2219              		.loc 1 833 0
 2220 0006 0446     		mov	r4, r0
 2221              		.loc 1 835 0
 2222 0008 D2B1     		cbz	r2, .L354
 2223              		.loc 1 835 0 is_stmt 0 discriminator 1
 2224 000a 022A     		cmp	r2, #2
 2225 000c 18D0     		beq	.L354
 2226              		.loc 1 836 0 is_stmt 1
 2227 000e 032A     		cmp	r2, #3
 2228 0010 0ED0     		beq	.L355
 2229              		.loc 1 839 0
 2230 0012 1A78     		ldrb	r2, [r3, #0]	@ zero_extendqisi2
 2231 0014 102A     		cmp	r2, #16
 2232 0016 02D0     		beq	.L356
 2233              		.loc 1 839 0 is_stmt 0 discriminator 1
 2234 0018 FFF7FEFF 		bl	port_halt
 2235              	.LVL263:
 2236 001c 2368     		ldr	r3, [r4, #0]
 2237              	.L356:
 2238              		.loc 1 840 0 is_stmt 1
 2239 001e FB21     		movs	r1, #251
 2240 0020 2171     		strb	r1, [r4, #4]
 2241              	.L357:
 2242              		.loc 1 885 0
 2243 0022 03F10C00 		add	r0, r3, #12
 2244 0026 FFF7FEFF 		bl	sys_sem_valid
 2245              	.LVL264:
 2246 002a 0028     		cmp	r0, #0
 2247 002c 30D1     		bne	.L387
 2248              	.L353:
 2249 002e 38BD     		pop	{r3, r4, r5, pc}
 2250              	.LVL265:
 2251              	.L355:
 2252              		.loc 1 842 0 discriminator 1
 2253 0030 187F     		ldrb	r0, [r3, #28]	@ zero_extendqisi2
 2254              	.LVL266:
 2255 0032 00F00401 		and	r1, r0, #4
 2256 0036 CAB2     		uxtb	r2, r1
 2257 0038 12B9     		cbnz	r2, .L354
 2258              		.loc 1 842 0 is_stmt 0 discriminator 2
 2259 003a FFF7FEFF 		bl	port_halt
 2260              	.LVL267:
 2261 003e 2368     		ldr	r3, [r4, #0]
ARM GAS  C:\Users\jenny\AppData\Local\Temp\ccWqzXsD.s 			page 41


 2262              	.L354:
 2263              		.loc 1 845 0 is_stmt 1
 2264 0040 1846     		mov	r0, r3
 2265 0042 FFF7FEFF 		bl	netconn_drain
 2266              	.LVL268:
 2267              		.loc 1 847 0
 2268 0046 2368     		ldr	r3, [r4, #0]
 2269 0048 5868     		ldr	r0, [r3, #4]
 2270 004a 58B1     		cbz	r0, .L358
 2271              		.loc 1 849 0
 2272 004c 1978     		ldrb	r1, [r3, #0]	@ zero_extendqisi2
 2273 004e 01F0F002 		and	r2, r1, #240
 2274 0052 202A     		cmp	r2, #32
 2275 0054 22D0     		beq	.L361
 2276 0056 402A     		cmp	r2, #64
 2277 0058 36D0     		beq	.L362
 2278 005a 102A     		cmp	r2, #16
 2279 005c 25D0     		beq	.L388
 2280              	.L359:
 2281              		.loc 1 876 0
 2282 005e 0020     		movs	r0, #0
 2283 0060 5860     		str	r0, [r3, #4]
 2284 0062 2368     		ldr	r3, [r4, #0]
 2285              	.L358:
 2286              		.loc 1 882 0
 2287 0064 9D6A     		ldr	r5, [r3, #40]
 2288 0066 002D     		cmp	r5, #0
 2289 0068 DBD0     		beq	.L357
 2290              		.loc 1 882 0 is_stmt 0 discriminator 1
 2291 006a 0021     		movs	r1, #0
 2292 006c 1846     		mov	r0, r3
 2293 006e 0A46     		mov	r2, r1
 2294 0070 A847     		blx	r5
 2295              	.LVL269:
 2296              		.loc 1 883 0 is_stmt 1 discriminator 1
 2297 0072 2368     		ldr	r3, [r4, #0]
 2298 0074 9D6A     		ldr	r5, [r3, #40]
 2299 0076 002D     		cmp	r5, #0
 2300 0078 D3D0     		beq	.L357
 2301 007a 1846     		mov	r0, r3
 2302 007c 0221     		movs	r1, #2
 2303 007e 0022     		movs	r2, #0
 2304 0080 A847     		blx	r5
 2305              	.LVL270:
 2306 0082 2368     		ldr	r3, [r4, #0]
 2307              		.loc 1 885 0 discriminator 1
 2308 0084 03F10C00 		add	r0, r3, #12
 2309 0088 FFF7FEFF 		bl	sys_sem_valid
 2310              	.LVL271:
 2311 008c 0028     		cmp	r0, #0
 2312 008e CED0     		beq	.L353
 2313              	.L387:
 2314              		.loc 1 886 0
 2315 0090 2068     		ldr	r0, [r4, #0]
 2316 0092 0C30     		adds	r0, r0, #12
 2317              		.loc 1 888 0
 2318 0094 BDE83840 		pop	{r3, r4, r5, lr}
ARM GAS  C:\Users\jenny\AppData\Local\Temp\ccWqzXsD.s 			page 42


 2319              		.loc 1 886 0
 2320 0098 FFF7FEBF 		b	sys_sem_signal
 2321              	.LVL272:
 2322              	.L361:
 2323              		.loc 1 857 0
 2324 009c 0025     		movs	r5, #0
 2325 009e C561     		str	r5, [r0, #28]
 2326              		.loc 1 858 0
 2327 00a0 5868     		ldr	r0, [r3, #4]
 2328 00a2 FFF7FEFF 		bl	udp_remove
 2329              	.LVL273:
 2330 00a6 2368     		ldr	r3, [r4, #0]
 2331              		.loc 1 859 0
 2332 00a8 D9E7     		b	.L359
 2333              	.L388:
 2334              		.loc 1 863 0
 2335 00aa 586A     		ldr	r0, [r3, #36]
 2336 00ac 80B1     		cbz	r0, .L389
 2337              	.L363:
 2338              		.loc 1 863 0 is_stmt 0 discriminator 1
 2339 00ae FFF7FEFF 		bl	port_halt
 2340              	.LVL274:
 2341 00b2 2368     		ldr	r3, [r4, #0]
 2342              	.L364:
 2343              		.loc 1 865 0 is_stmt 1
 2344 00b4 0422     		movs	r2, #4
 2345              		.loc 1 866 0
 2346 00b6 0321     		movs	r1, #3
 2347              		.loc 1 868 0
 2348 00b8 1846     		mov	r0, r3
 2349              		.loc 1 865 0
 2350 00ba 5A70     		strb	r2, [r3, #1]
 2351              		.loc 1 866 0
 2352 00bc 2172     		strb	r1, [r4, #8]
 2353              		.loc 1 867 0
 2354 00be 5C62     		str	r4, [r3, #36]
 2355              		.loc 1 888 0
 2356 00c0 BDE83840 		pop	{r3, r4, r5, lr}
 2357              		.loc 1 868 0
 2358 00c4 FFF7FEBF 		b	do_close_internal
 2359              	.LVL275:
 2360              	.L362:
 2361              		.loc 1 852 0
 2362 00c8 FFF7FEFF 		bl	raw_remove
 2363              	.LVL276:
 2364 00cc 2368     		ldr	r3, [r4, #0]
 2365              		.loc 1 853 0
 2366 00ce C6E7     		b	.L359
 2367              	.L389:
 2368              		.loc 1 863 0 discriminator 2
 2369 00d0 196A     		ldr	r1, [r3, #32]
 2370 00d2 0029     		cmp	r1, #0
 2371 00d4 EBD1     		bne	.L363
 2372 00d6 EDE7     		b	.L364
 2373              		.cfi_endproc
 2374              	.LFE21:
 2375              		.size	do_delconn, .-do_delconn
ARM GAS  C:\Users\jenny\AppData\Local\Temp\ccWqzXsD.s 			page 43


 2376 00d8 AFF30080 		.section	.text.do_bind,"ax",%progbits
 2376      AFF30080 
 2377              		.align	2
 2378              		.p2align 4,,15
 2379              		.global	do_bind
 2380              		.thumb
 2381              		.thumb_func
 2382              		.type	do_bind, %function
 2383              	do_bind:
 2384              	.LFB22:
 2385              		.loc 1 899 0
 2386              		.cfi_startproc
 2387              		@ args = 0, pretend = 0, frame = 0
 2388              		@ frame_needed = 0, uses_anonymous_args = 0
 2389              	.LVL277:
 2390 0000 10B5     		push	{r4, lr}
 2391              	.LCFI18:
 2392              		.cfi_def_cfa_offset 8
 2393              		.cfi_offset 4, -8
 2394              		.cfi_offset 14, -4
 2395              		.loc 1 900 0
 2396 0002 0368     		ldr	r3, [r0, #0]
 2397 0004 1A7A     		ldrb	r2, [r3, #8]	@ zero_extendqisi2
 2398 0006 51B2     		sxtb	r1, r2
 2399 0008 0931     		adds	r1, r1, #9
 2400              		.loc 1 899 0
 2401 000a 0446     		mov	r4, r0
 2402              		.loc 1 900 0
 2403 000c 12DB     		blt	.L399
 2404              		.loc 1 903 0
 2405 000e FA20     		movs	r0, #250
 2406              	.LVL278:
 2407 0010 2071     		strb	r0, [r4, #4]
 2408              		.loc 1 904 0
 2409 0012 5868     		ldr	r0, [r3, #4]
 2410 0014 40B1     		cbz	r0, .L392
 2411              		.loc 1 905 0
 2412 0016 1A78     		ldrb	r2, [r3, #0]	@ zero_extendqisi2
 2413 0018 02F0F001 		and	r1, r2, #240
 2414 001c 2029     		cmp	r1, #32
 2415 001e 0BD0     		beq	.L394
 2416 0020 4029     		cmp	r1, #64
 2417 0022 17D0     		beq	.L395
 2418 0024 1029     		cmp	r1, #16
 2419 0026 0ED0     		beq	.L400
 2420              	.L392:
 2421              		.loc 1 926 0
 2422 0028 03F10C00 		add	r0, r3, #12
 2423              		.loc 1 927 0
 2424 002c BDE81040 		pop	{r4, lr}
 2425              		.loc 1 926 0
 2426 0030 FFF7FEBF 		b	sys_sem_signal
 2427              	.LVL279:
 2428              	.L399:
 2429              		.loc 1 901 0
 2430 0034 0271     		strb	r2, [r0, #4]
 2431 0036 F7E7     		b	.L392
ARM GAS  C:\Users\jenny\AppData\Local\Temp\ccWqzXsD.s 			page 44


 2432              	.LVL280:
 2433              	.L394:
 2434              		.loc 1 913 0
 2435 0038 A168     		ldr	r1, [r4, #8]
 2436 003a A289     		ldrh	r2, [r4, #12]
 2437 003c FFF7FEFF 		bl	udp_bind
 2438              	.LVL281:
 2439 0040 2368     		ldr	r3, [r4, #0]
 2440 0042 2071     		strb	r0, [r4, #4]
 2441              		.loc 1 914 0
 2442 0044 F0E7     		b	.L392
 2443              	.L400:
 2444              		.loc 1 918 0
 2445 0046 A168     		ldr	r1, [r4, #8]
 2446 0048 A289     		ldrh	r2, [r4, #12]
 2447 004a FFF7FEFF 		bl	tcp_bind
 2448              	.LVL282:
 2449 004e 2368     		ldr	r3, [r4, #0]
 2450 0050 2071     		strb	r0, [r4, #4]
 2451              		.loc 1 919 0
 2452 0052 E9E7     		b	.L392
 2453              	.L395:
 2454              		.loc 1 908 0
 2455 0054 A168     		ldr	r1, [r4, #8]
 2456 0056 FFF7FEFF 		bl	raw_bind
 2457              	.LVL283:
 2458 005a 2368     		ldr	r3, [r4, #0]
 2459 005c 2071     		strb	r0, [r4, #4]
 2460              		.loc 1 909 0
 2461 005e E3E7     		b	.L392
 2462              		.cfi_endproc
 2463              	.LFE22:
 2464              		.size	do_bind, .-do_bind
 2465              		.section	.text.do_connect,"ax",%progbits
 2466              		.align	2
 2467              		.p2align 4,,15
 2468              		.global	do_connect
 2469              		.thumb
 2470              		.thumb_func
 2471              		.type	do_connect, %function
 2472              	do_connect:
 2473              	.LFB24:
 2474              		.loc 1 985 0
 2475              		.cfi_startproc
 2476              		@ args = 0, pretend = 0, frame = 0
 2477              		@ frame_needed = 0, uses_anonymous_args = 0
 2478              	.LVL284:
 2479 0000 10B5     		push	{r4, lr}
 2480              	.LCFI19:
 2481              		.cfi_def_cfa_offset 8
 2482              		.cfi_offset 4, -8
 2483              		.cfi_offset 14, -4
 2484              		.loc 1 986 0
 2485 0002 0368     		ldr	r3, [r0, #0]
 2486              		.loc 1 985 0
 2487 0004 0446     		mov	r4, r0
 2488              		.loc 1 986 0
ARM GAS  C:\Users\jenny\AppData\Local\Temp\ccWqzXsD.s 			page 45


 2489 0006 5868     		ldr	r0, [r3, #4]
 2490              	.LVL285:
 2491 0008 0028     		cmp	r0, #0
 2492 000a 41D0     		beq	.L414
 2493              		.loc 1 990 0
 2494 000c 1A78     		ldrb	r2, [r3, #0]	@ zero_extendqisi2
 2495 000e 02F0F001 		and	r1, r2, #240
 2496 0012 2029     		cmp	r1, #32
 2497 0014 19D0     		beq	.L406
 2498 0016 4029     		cmp	r1, #64
 2499 0018 0CD0     		beq	.L407
 2500 001a 1029     		cmp	r1, #16
 2501 001c 10D0     		beq	.L415
 2502              		.loc 1 1027 0 discriminator 1
 2503 001e FFF7FEFF 		bl	port_halt
 2504              	.LVL286:
 2505 0022 FA20     		movs	r0, #250
 2506 0024 2368     		ldr	r3, [r4, #0]
 2507 0026 2071     		strb	r0, [r4, #4]
 2508              	.L403:
 2509              		.loc 1 1031 0
 2510 0028 03F10C00 		add	r0, r3, #12
 2511              		.loc 1 1032 0
 2512 002c BDE81040 		pop	{r4, lr}
 2513              		.loc 1 1031 0
 2514 0030 FFF7FEBF 		b	sys_sem_signal
 2515              	.LVL287:
 2516              	.L407:
 2517              		.loc 1 993 0
 2518 0034 A168     		ldr	r1, [r4, #8]
 2519 0036 FFF7FEFF 		bl	raw_connect
 2520              	.LVL288:
 2521 003a 2368     		ldr	r3, [r4, #0]
 2522 003c 2071     		strb	r0, [r4, #4]
 2523              		.loc 1 994 0
 2524 003e F3E7     		b	.L403
 2525              	.L415:
 2526              		.loc 1 1004 0
 2527 0040 5A78     		ldrb	r2, [r3, #1]	@ zero_extendqisi2
 2528 0042 4AB1     		cbz	r2, .L408
 2529              		.loc 1 1005 0
 2530 0044 F722     		movs	r2, #247
 2531 0046 2271     		strb	r2, [r4, #4]
 2532 0048 EEE7     		b	.L403
 2533              	.L406:
 2534              		.loc 1 998 0
 2535 004a A168     		ldr	r1, [r4, #8]
 2536 004c A289     		ldrh	r2, [r4, #12]
 2537 004e FFF7FEFF 		bl	udp_connect
 2538              	.LVL289:
 2539 0052 2368     		ldr	r3, [r4, #0]
 2540 0054 2071     		strb	r0, [r4, #4]
 2541              		.loc 1 999 0
 2542 0056 E7E7     		b	.L403
 2543              	.L408:
 2544              		.loc 1 1007 0
 2545 0058 1846     		mov	r0, r3
ARM GAS  C:\Users\jenny\AppData\Local\Temp\ccWqzXsD.s 			page 46


 2546 005a FFF7FEFF 		bl	setup_tcp
 2547              	.LVL290:
 2548              		.loc 1 1008 0
 2549 005e 2368     		ldr	r3, [r4, #0]
 2550 0060 A168     		ldr	r1, [r4, #8]
 2551 0062 5868     		ldr	r0, [r3, #4]
 2552 0064 A289     		ldrh	r2, [r4, #12]
 2553 0066 0F4B     		ldr	r3, .L416
 2554 0068 FFF7FEFF 		bl	tcp_connect
 2555              	.LVL291:
 2556              	.LBB17:
 2557              		.loc 1 1011 0
 2558 006c 2368     		ldr	r3, [r4, #0]
 2559              	.LBE17:
 2560              		.loc 1 1008 0
 2561 006e 2071     		strb	r0, [r4, #4]
 2562              		.loc 1 1010 0
 2563 0070 0028     		cmp	r0, #0
 2564 0072 D9D1     		bne	.L403
 2565              	.LBB18:
 2566              		.loc 1 1011 0
 2567 0074 1A7F     		ldrb	r2, [r3, #28]	@ zero_extendqisi2
 2568              	.LVL292:
 2569              		.loc 1 1013 0
 2570 0076 02F00201 		and	r1, r2, #2
 2571              		.loc 1 1012 0
 2572 007a 0320     		movs	r0, #3
 2573              		.loc 1 1013 0
 2574 007c C9B2     		uxtb	r1, r1
 2575              		.loc 1 1012 0
 2576 007e 5870     		strb	r0, [r3, #1]
 2577              		.loc 1 1013 0
 2578 0080 49B1     		cbz	r1, .L410
 2579              		.loc 1 1013 0 is_stmt 0 discriminator 1
 2580 0082 42F00401 		orr	r1, r2, #4
 2581 0086 1977     		strb	r1, [r3, #28]
 2582              		.loc 1 1015 0 is_stmt 1 discriminator 1
 2583 0088 FB20     		movs	r0, #251
 2584 008a 2071     		strb	r0, [r4, #4]
 2585 008c 2368     		ldr	r3, [r4, #0]
 2586 008e CBE7     		b	.L403
 2587              	.LVL293:
 2588              	.L414:
 2589              	.LBE18:
 2590              		.loc 1 988 0
 2591 0090 F421     		movs	r1, #244
 2592 0092 2171     		strb	r1, [r4, #4]
 2593 0094 C8E7     		b	.L403
 2594              	.LVL294:
 2595              	.L410:
 2596              	.LBB19:
 2597              		.loc 1 1013 0 discriminator 2
 2598 0096 22F00402 		bic	r2, r2, #4
 2599              	.LVL295:
 2600 009a 1A77     		strb	r2, [r3, #28]
 2601              		.loc 1 1017 0 discriminator 2
 2602 009c 2368     		ldr	r3, [r4, #0]
ARM GAS  C:\Users\jenny\AppData\Local\Temp\ccWqzXsD.s 			page 47


 2603              	.LVL296:
 2604 009e 5C62     		str	r4, [r3, #36]
 2605              		.loc 1 1020 0 discriminator 2
 2606 00a0 10BD     		pop	{r4, pc}
 2607              	.L417:
 2608 00a2 00BF     		.align	2
 2609              	.L416:
 2610 00a4 00000000 		.word	do_connected
 2611              	.LBE19:
 2612              		.cfi_endproc
 2613              	.LFE24:
 2614              		.size	do_connect, .-do_connect
 2615 00a8 AFF30080 		.section	.text.do_disconnect,"ax",%progbits
 2615      AFF30080 
 2616              		.align	2
 2617              		.p2align 4,,15
 2618              		.global	do_disconnect
 2619              		.thumb
 2620              		.thumb_func
 2621              		.type	do_disconnect, %function
 2622              	do_disconnect:
 2623              	.LFB25:
 2624              		.loc 1 1043 0
 2625              		.cfi_startproc
 2626              		@ args = 0, pretend = 0, frame = 0
 2627              		@ frame_needed = 0, uses_anonymous_args = 0
 2628              	.LVL297:
 2629 0000 10B5     		push	{r4, lr}
 2630              	.LCFI20:
 2631              		.cfi_def_cfa_offset 8
 2632              		.cfi_offset 4, -8
 2633              		.cfi_offset 14, -4
 2634              		.loc 1 1043 0
 2635 0002 0446     		mov	r4, r0
 2636              		.loc 1 1045 0
 2637 0004 0068     		ldr	r0, [r0, #0]
 2638              	.LVL298:
 2639 0006 0278     		ldrb	r2, [r0, #0]	@ zero_extendqisi2
 2640 0008 02F0F001 		and	r1, r2, #240
 2641 000c 2029     		cmp	r1, #32
 2642 000e 06D0     		beq	.L421
 2643              		.loc 1 1051 0
 2644 0010 FA23     		movs	r3, #250
 2645 0012 2371     		strb	r3, [r4, #4]
 2646              	.L420:
 2647              		.loc 1 1053 0
 2648 0014 0C30     		adds	r0, r0, #12
 2649              		.loc 1 1054 0
 2650 0016 BDE81040 		pop	{r4, lr}
 2651              		.loc 1 1053 0
 2652 001a FFF7FEBF 		b	sys_sem_signal
 2653              	.LVL299:
 2654              	.L421:
 2655              		.loc 1 1046 0
 2656 001e 4068     		ldr	r0, [r0, #4]
 2657 0020 FFF7FEFF 		bl	udp_disconnect
 2658              	.LVL300:
ARM GAS  C:\Users\jenny\AppData\Local\Temp\ccWqzXsD.s 			page 48


 2659              		.loc 1 1047 0
 2660 0024 0020     		movs	r0, #0
 2661 0026 2071     		strb	r0, [r4, #4]
 2662 0028 2068     		ldr	r0, [r4, #0]
 2663 002a F3E7     		b	.L420
 2664              		.cfi_endproc
 2665              	.LFE25:
 2666              		.size	do_disconnect, .-do_disconnect
 2667 002c AFF30080 		.section	.text.do_listen,"ax",%progbits
 2668              		.align	2
 2669              		.p2align 4,,15
 2670              		.global	do_listen
 2671              		.thumb
 2672              		.thumb_func
 2673              		.type	do_listen, %function
 2674              	do_listen:
 2675              	.LFB26:
 2676              		.loc 1 1065 0
 2677              		.cfi_startproc
 2678              		@ args = 0, pretend = 0, frame = 0
 2679              		@ frame_needed = 0, uses_anonymous_args = 0
 2680              	.LVL301:
 2681 0000 38B5     		push	{r3, r4, r5, lr}
 2682              	.LCFI21:
 2683              		.cfi_def_cfa_offset 16
 2684              		.cfi_offset 3, -16
 2685              		.cfi_offset 4, -12
 2686              		.cfi_offset 5, -8
 2687              		.cfi_offset 14, -4
 2688              		.loc 1 1066 0
 2689 0002 0368     		ldr	r3, [r0, #0]
 2690              		.loc 1 1065 0
 2691 0004 0446     		mov	r4, r0
 2692              		.loc 1 1066 0
 2693 0006 187A     		ldrb	r0, [r3, #8]	@ zero_extendqisi2
 2694              	.LVL302:
 2695 0008 41B2     		sxtb	r1, r0
 2696 000a 0931     		adds	r1, r1, #9
 2697 000c 07DB     		blt	.L437
 2698              		.loc 1 1069 0
 2699 000e F322     		movs	r2, #243
 2700 0010 2271     		strb	r2, [r4, #4]
 2701              		.loc 1 1070 0
 2702 0012 5868     		ldr	r0, [r3, #4]
 2703 0014 20B1     		cbz	r0, .L424
 2704              		.loc 1 1071 0
 2705 0016 1978     		ldrb	r1, [r3, #0]	@ zero_extendqisi2
 2706 0018 1029     		cmp	r1, #16
 2707 001a 07D0     		beq	.L438
 2708              		.loc 1 1105 0
 2709 001c F220     		movs	r0, #242
 2710              	.L437:
 2711 001e 2071     		strb	r0, [r4, #4]
 2712              	.L424:
 2713              		.loc 1 1109 0
 2714 0020 03F10C00 		add	r0, r3, #12
 2715              		.loc 1 1110 0
ARM GAS  C:\Users\jenny\AppData\Local\Temp\ccWqzXsD.s 			page 49


 2716 0024 BDE83840 		pop	{r3, r4, r5, lr}
 2717              		.loc 1 1109 0
 2718 0028 FFF7FEBF 		b	sys_sem_signal
 2719              	.LVL303:
 2720              	.L438:
 2721              		.loc 1 1072 0
 2722 002c 5A78     		ldrb	r2, [r3, #1]	@ zero_extendqisi2
 2723 002e 002A     		cmp	r2, #0
 2724 0030 F6D1     		bne	.L424
 2725              	.LBB20:
 2726              		.loc 1 1076 0
 2727 0032 FF21     		movs	r1, #255
 2728 0034 FFF7FEFF 		bl	tcp_listen_with_backlog
 2729              	.LVL304:
 2730              		.loc 1 1078 0
 2731 0038 0546     		mov	r5, r0
 2732 003a E0B1     		cbz	r0, .L439
 2733              		.loc 1 1083 0
 2734 003c 2068     		ldr	r0, [r4, #0]
 2735              	.LVL305:
 2736 003e 1030     		adds	r0, r0, #16
 2737 0040 FFF7FEFF 		bl	sys_mbox_valid
 2738              	.LVL306:
 2739 0044 50BB     		cbnz	r0, .L440
 2740              	.L427:
 2741              		.loc 1 1089 0
 2742 0046 2068     		ldr	r0, [r4, #0]
 2743              		.loc 1 1088 0
 2744 0048 0023     		movs	r3, #0
 2745 004a 2371     		strb	r3, [r4, #4]
 2746              		.loc 1 1089 0
 2747 004c 1430     		adds	r0, r0, #20
 2748 004e FFF7FEFF 		bl	sys_mbox_valid
 2749              	.LVL307:
 2750 0052 E0B1     		cbz	r0, .L428
 2751 0054 2079     		ldrb	r0, [r4, #4]	@ zero_extendqisi2
 2752              	.L429:
 2753              		.loc 1 1092 0
 2754 0056 90B9     		cbnz	r0, .L430
 2755              		.loc 1 1093 0
 2756 0058 2368     		ldr	r3, [r4, #0]
 2757              		.loc 1 1094 0
 2758 005a 5D60     		str	r5, [r3, #4]
 2759              		.loc 1 1095 0
 2760 005c 2168     		ldr	r1, [r4, #0]
 2761              		.loc 1 1093 0
 2762 005e 0222     		movs	r2, #2
 2763              		.loc 1 1095 0
 2764 0060 4868     		ldr	r0, [r1, #4]
 2765              		.loc 1 1093 0
 2766 0062 5A70     		strb	r2, [r3, #1]
 2767              		.loc 1 1095 0
 2768 0064 FFF7FEFF 		bl	tcp_arg
 2769              	.LVL308:
 2770              		.loc 1 1096 0
 2771 0068 2068     		ldr	r0, [r4, #0]
 2772 006a 1149     		ldr	r1, .L441
ARM GAS  C:\Users\jenny\AppData\Local\Temp\ccWqzXsD.s 			page 50


 2773 006c 4068     		ldr	r0, [r0, #4]
 2774 006e FFF7FEFF 		bl	tcp_accept
 2775              	.LVL309:
 2776 0072 2368     		ldr	r3, [r4, #0]
 2777 0074 D4E7     		b	.L424
 2778              	.LVL310:
 2779              	.L439:
 2780              		.loc 1 1080 0
 2781 0076 FF21     		movs	r1, #255
 2782 0078 2171     		strb	r1, [r4, #4]
 2783 007a 2368     		ldr	r3, [r4, #0]
 2784 007c D0E7     		b	.L424
 2785              	.LVL311:
 2786              	.L430:
 2787              		.loc 1 1099 0
 2788 007e 2846     		mov	r0, r5
 2789 0080 FFF7FEFF 		bl	tcp_close
 2790              	.LVL312:
 2791              		.loc 1 1100 0
 2792 0084 2168     		ldr	r1, [r4, #0]
 2793 0086 0020     		movs	r0, #0
 2794 0088 4860     		str	r0, [r1, #4]
 2795 008a 2368     		ldr	r3, [r4, #0]
 2796 008c C8E7     		b	.L424
 2797              	.L428:
 2798              		.loc 1 1090 0
 2799 008e 2068     		ldr	r0, [r4, #0]
 2800 0090 0421     		movs	r1, #4
 2801 0092 1430     		adds	r0, r0, #20
 2802 0094 FFF7FEFF 		bl	sys_mbox_new
 2803              	.LVL313:
 2804 0098 2071     		strb	r0, [r4, #4]
 2805 009a DCE7     		b	.L429
 2806              	.L440:
 2807              		.loc 1 1085 0
 2808 009c 2068     		ldr	r0, [r4, #0]
 2809 009e 1030     		adds	r0, r0, #16
 2810 00a0 FFF7FEFF 		bl	sys_mbox_free
 2811              	.LVL314:
 2812              		.loc 1 1086 0
 2813 00a4 2068     		ldr	r0, [r4, #0]
 2814 00a6 1030     		adds	r0, r0, #16
 2815 00a8 FFF7FEFF 		bl	sys_mbox_set_invalid
 2816              	.LVL315:
 2817 00ac CBE7     		b	.L427
 2818              	.L442:
 2819 00ae 00BF     		.align	2
 2820              	.L441:
 2821 00b0 00000000 		.word	accept_function
 2822              	.LBE20:
 2823              		.cfi_endproc
 2824              	.LFE26:
 2825              		.size	do_listen, .-do_listen
 2826 00b4 AFF30080 		.section	.text.do_send,"ax",%progbits
 2826      AFF30080 
 2826      AFF30080 
 2827              		.align	2
ARM GAS  C:\Users\jenny\AppData\Local\Temp\ccWqzXsD.s 			page 51


 2828              		.p2align 4,,15
 2829              		.global	do_send
 2830              		.thumb
 2831              		.thumb_func
 2832              		.type	do_send, %function
 2833              	do_send:
 2834              	.LFB27:
 2835              		.loc 1 1121 0
 2836              		.cfi_startproc
 2837              		@ args = 0, pretend = 0, frame = 0
 2838              		@ frame_needed = 0, uses_anonymous_args = 0
 2839              	.LVL316:
 2840 0000 10B5     		push	{r4, lr}
 2841              	.LCFI22:
 2842              		.cfi_def_cfa_offset 8
 2843              		.cfi_offset 4, -8
 2844              		.cfi_offset 14, -4
 2845              		.loc 1 1122 0
 2846 0002 0368     		ldr	r3, [r0, #0]
 2847 0004 1A7A     		ldrb	r2, [r3, #8]	@ zero_extendqisi2
 2848 0006 51B2     		sxtb	r1, r2
 2849 0008 0931     		adds	r1, r1, #9
 2850              		.loc 1 1121 0
 2851 000a 0446     		mov	r4, r0
 2852              		.loc 1 1122 0
 2853 000c 10DB     		blt	.L461
 2854              		.loc 1 1125 0
 2855 000e F320     		movs	r0, #243
 2856              	.LVL317:
 2857 0010 2071     		strb	r0, [r4, #4]
 2858              		.loc 1 1126 0
 2859 0012 5868     		ldr	r0, [r3, #4]
 2860 0014 30B1     		cbz	r0, .L445
 2861              		.loc 1 1127 0
 2862 0016 1A78     		ldrb	r2, [r3, #0]	@ zero_extendqisi2
 2863 0018 02F0F001 		and	r1, r2, #240
 2864 001c 2029     		cmp	r1, #32
 2865 001e 09D0     		beq	.L446
 2866 0020 4029     		cmp	r1, #64
 2867 0022 13D0     		beq	.L462
 2868              	.L445:
 2869              		.loc 1 1162 0
 2870 0024 03F10C00 		add	r0, r3, #12
 2871              		.loc 1 1163 0
 2872 0028 BDE81040 		pop	{r4, lr}
 2873              		.loc 1 1162 0
 2874 002c FFF7FEBF 		b	sys_sem_signal
 2875              	.LVL318:
 2876              	.L461:
 2877              		.loc 1 1123 0
 2878 0030 0271     		strb	r2, [r0, #4]
 2879 0032 F7E7     		b	.L445
 2880              	.LVL319:
 2881              	.L446:
 2882              		.loc 1 1149 0
 2883 0034 A368     		ldr	r3, [r4, #8]
 2884 0036 13F10802 		adds	r2, r3, #8
ARM GAS  C:\Users\jenny\AppData\Local\Temp\ccWqzXsD.s 			page 52


 2885 003a 01D0     		beq	.L450
 2886              		.loc 1 1149 0 is_stmt 0 discriminator 1
 2887 003c 9968     		ldr	r1, [r3, #8]
 2888 003e 89B9     		cbnz	r1, .L451
 2889              	.L450:
 2890              		.loc 1 1150 0 is_stmt 1
 2891 0040 1968     		ldr	r1, [r3, #0]
 2892 0042 FFF7FEFF 		bl	udp_send
 2893              	.LVL320:
 2894 0046 2368     		ldr	r3, [r4, #0]
 2895 0048 2071     		strb	r0, [r4, #4]
 2896 004a EBE7     		b	.L445
 2897              	.L462:
 2898              		.loc 1 1130 0
 2899 004c A368     		ldr	r3, [r4, #8]
 2900 004e 13F10802 		adds	r2, r3, #8
 2901 0052 01D0     		beq	.L448
 2902              		.loc 1 1130 0 is_stmt 0 discriminator 1
 2903 0054 9968     		ldr	r1, [r3, #8]
 2904 0056 61B9     		cbnz	r1, .L449
 2905              	.L448:
 2906              		.loc 1 1131 0 is_stmt 1
 2907 0058 1968     		ldr	r1, [r3, #0]
 2908 005a FFF7FEFF 		bl	raw_send
 2909              	.LVL321:
 2910 005e 2368     		ldr	r3, [r4, #0]
 2911 0060 2071     		strb	r0, [r4, #4]
 2912 0062 DFE7     		b	.L445
 2913              	.L451:
 2914              		.loc 1 1152 0
 2915 0064 1968     		ldr	r1, [r3, #0]
 2916 0066 9B89     		ldrh	r3, [r3, #12]
 2917 0068 FFF7FEFF 		bl	udp_sendto
 2918              	.LVL322:
 2919 006c 2368     		ldr	r3, [r4, #0]
 2920 006e 2071     		strb	r0, [r4, #4]
 2921 0070 D8E7     		b	.L445
 2922              	.L449:
 2923              		.loc 1 1133 0
 2924 0072 1968     		ldr	r1, [r3, #0]
 2925 0074 FFF7FEFF 		bl	raw_sendto
 2926              	.LVL323:
 2927 0078 2368     		ldr	r3, [r4, #0]
 2928 007a 2071     		strb	r0, [r4, #4]
 2929 007c D2E7     		b	.L445
 2930              		.cfi_endproc
 2931              	.LFE27:
 2932              		.size	do_send, .-do_send
 2933 007e 00BF     		.section	.text.do_recv,"ax",%progbits
 2934              		.align	2
 2935              		.p2align 4,,15
 2936              		.global	do_recv
 2937              		.thumb
 2938              		.thumb_func
 2939              		.type	do_recv, %function
 2940              	do_recv:
 2941              	.LFB28:
ARM GAS  C:\Users\jenny\AppData\Local\Temp\ccWqzXsD.s 			page 53


 2942              		.loc 1 1174 0
 2943              		.cfi_startproc
 2944              		@ args = 0, pretend = 0, frame = 0
 2945              		@ frame_needed = 0, uses_anonymous_args = 0
 2946              	.LVL324:
 2947 0000 F8B5     		push	{r3, r4, r5, r6, r7, lr}
 2948              	.LCFI23:
 2949              		.cfi_def_cfa_offset 24
 2950              		.cfi_offset 3, -24
 2951              		.cfi_offset 4, -20
 2952              		.cfi_offset 5, -16
 2953              		.cfi_offset 6, -12
 2954              		.cfi_offset 7, -8
 2955              		.cfi_offset 14, -4
 2956              		.loc 1 1175 0
 2957 0002 0022     		movs	r2, #0
 2958              		.loc 1 1176 0
 2959 0004 0368     		ldr	r3, [r0, #0]
 2960              		.loc 1 1175 0
 2961 0006 0271     		strb	r2, [r0, #4]
 2962              		.loc 1 1174 0
 2963 0008 0646     		mov	r6, r0
 2964              		.loc 1 1176 0
 2965 000a 5868     		ldr	r0, [r3, #4]
 2966              	.LVL325:
 2967 000c 10B1     		cbz	r0, .L464
 2968              		.loc 1 1177 0
 2969 000e 1A78     		ldrb	r2, [r3, #0]	@ zero_extendqisi2
 2970 0010 102A     		cmp	r2, #16
 2971 0012 05D0     		beq	.L472
 2972              	.L464:
 2973              		.loc 1 1193 0
 2974 0014 03F10C00 		add	r0, r3, #12
 2975              		.loc 1 1194 0
 2976 0018 BDE8F840 		pop	{r3, r4, r5, r6, r7, lr}
 2977              		.loc 1 1193 0
 2978 001c FFF7FEBF 		b	sys_sem_signal
 2979              	.LVL326:
 2980              	.L472:
 2981              	.LBB21:
 2982              		.loc 1 1184 0
 2983 0020 B468     		ldr	r4, [r6, #8]
 2984              	.LVL327:
 2985              	.LBB22:
 2986              		.loc 1 1186 0
 2987 0022 4FF6FF77 		movw	r7, #65535
 2988 0026 00E0     		b	.L467
 2989              	.LVL328:
 2990              	.L473:
 2991 0028 5868     		ldr	r0, [r3, #4]
 2992              	.L467:
 2993 002a BC42     		cmp	r4, r7
 2994 002c 8DBF     		iteet	hi
 2995 002e 4FF6FF75 		movwhi	r5, #65535
 2996 0032 A1B2     		uxthls	r1, r4
 2997 0034 2546     		movls	r5, r4
 2998 0036 2946     		movhi	r1, r5
ARM GAS  C:\Users\jenny\AppData\Local\Temp\ccWqzXsD.s 			page 54


 2999              	.LVL329:
 3000              		.loc 1 1187 0
 3001 0038 FFF7FEFF 		bl	tcp_recved
 3002              	.LVL330:
 3003              	.LBE22:
 3004              		.loc 1 1189 0
 3005 003c 641B     		subs	r4, r4, r5
 3006              	.LVL331:
 3007 003e 3368     		ldr	r3, [r6, #0]
 3008 0040 F2D1     		bne	.L473
 3009 0042 E7E7     		b	.L464
 3010              	.LBE21:
 3011              		.cfi_endproc
 3012              	.LFE28:
 3013              		.size	do_recv, .-do_recv
 3014 0044 AFF30080 		.section	.text.do_write,"ax",%progbits
 3014      AFF30080 
 3014      AFF30080 
 3015              		.align	2
 3016              		.p2align 4,,15
 3017              		.global	do_write
 3018              		.thumb
 3019              		.thumb_func
 3020              		.type	do_write, %function
 3021              	do_write:
 3022              	.LFB30:
 3023              		.loc 1 1344 0
 3024              		.cfi_startproc
 3025              		@ args = 0, pretend = 0, frame = 8
 3026              		@ frame_needed = 0, uses_anonymous_args = 0
 3027              	.LVL332:
 3028 0000 00B5     		push	{lr}
 3029              	.LCFI24:
 3030              		.cfi_def_cfa_offset 4
 3031              		.cfi_offset 14, -4
 3032              		.loc 1 1345 0
 3033 0002 0368     		ldr	r3, [r0, #0]
 3034 0004 1A7A     		ldrb	r2, [r3, #8]	@ zero_extendqisi2
 3035 0006 51B2     		sxtb	r1, r2
 3036 0008 0931     		adds	r1, r1, #9
 3037              		.loc 1 1344 0
 3038 000a 83B0     		sub	sp, sp, #12
 3039              	.LCFI25:
 3040              		.cfi_def_cfa_offset 16
 3041              		.loc 1 1345 0
 3042 000c 03DB     		blt	.L486
 3043              		.loc 1 1348 0
 3044 000e 1A78     		ldrb	r2, [r3, #0]	@ zero_extendqisi2
 3045 0010 102A     		cmp	r2, #16
 3046 0012 08D0     		beq	.L487
 3047              		.loc 1 1384 0
 3048 0014 FA22     		movs	r2, #250
 3049              	.L486:
 3050 0016 0271     		strb	r2, [r0, #4]
 3051              	.L476:
 3052              		.loc 1 1388 0
 3053 0018 03F10C00 		add	r0, r3, #12
ARM GAS  C:\Users\jenny\AppData\Local\Temp\ccWqzXsD.s 			page 55


 3054              	.LVL333:
 3055              		.loc 1 1389 0
 3056 001c 03B0     		add	sp, sp, #12
 3057 001e 5DF804EB 		pop	{lr}
 3058              		.loc 1 1388 0
 3059 0022 FFF7FEBF 		b	sys_sem_signal
 3060              	.LVL334:
 3061              	.L487:
 3062              		.loc 1 1350 0
 3063 0026 5978     		ldrb	r1, [r3, #1]	@ zero_extendqisi2
 3064 0028 11B1     		cbz	r1, .L478
 3065              		.loc 1 1352 0
 3066 002a FB22     		movs	r2, #251
 3067 002c 0271     		strb	r2, [r0, #4]
 3068 002e F3E7     		b	.L476
 3069              	.L478:
 3070              		.loc 1 1353 0
 3071 0030 5A68     		ldr	r2, [r3, #4]
 3072 0032 E2B1     		cbz	r2, .L479
 3073              		.loc 1 1356 0
 3074 0034 5A6A     		ldr	r2, [r3, #36]
 3075              		.loc 1 1354 0
 3076 0036 0121     		movs	r1, #1
 3077 0038 5970     		strb	r1, [r3, #1]
 3078              		.loc 1 1356 0
 3079 003a A2B1     		cbz	r2, .L488
 3080              	.L480:
 3081              		.loc 1 1356 0 is_stmt 0 discriminator 1
 3082 003c 0190     		str	r0, [sp, #4]
 3083 003e FFF7FEFF 		bl	port_halt
 3084              	.LVL335:
 3085 0042 0198     		ldr	r0, [sp, #4]
 3086              	.L481:
 3087              		.loc 1 1358 0 is_stmt 1
 3088 0044 C268     		ldr	r2, [r0, #12]
 3089 0046 4AB1     		cbz	r2, .L489
 3090              	.L482:
 3091              		.loc 1 1359 0
 3092 0048 0168     		ldr	r1, [r0, #0]
 3093 004a 4862     		str	r0, [r1, #36]
 3094              		.loc 1 1360 0
 3095 004c 0020     		movs	r0, #0
 3096 004e 0862     		str	r0, [r1, #32]
 3097              		.loc 1 1371 0
 3098 0050 0846     		mov	r0, r1
 3099              		.loc 1 1389 0
 3100 0052 03B0     		add	sp, sp, #12
 3101 0054 5DF804EB 		pop	{lr}
 3102              		.loc 1 1371 0
 3103 0058 FFF7FEBF 		b	do_writemore
 3104              	.LVL336:
 3105              	.L489:
 3106              		.loc 1 1358 0 discriminator 1
 3107 005c 0190     		str	r0, [sp, #4]
 3108 005e FFF7FEFF 		bl	port_halt
 3109              	.LVL337:
 3110 0062 0198     		ldr	r0, [sp, #4]
ARM GAS  C:\Users\jenny\AppData\Local\Temp\ccWqzXsD.s 			page 56


 3111 0064 F0E7     		b	.L482
 3112              	.LVL338:
 3113              	.L488:
 3114              		.loc 1 1356 0 discriminator 2
 3115 0066 1B6A     		ldr	r3, [r3, #32]
 3116 0068 002B     		cmp	r3, #0
 3117 006a EBD0     		beq	.L481
 3118 006c E6E7     		b	.L480
 3119              	.L479:
 3120              		.loc 1 1377 0
 3121 006e F321     		movs	r1, #243
 3122 0070 0171     		strb	r1, [r0, #4]
 3123 0072 D1E7     		b	.L476
 3124              		.cfi_endproc
 3125              	.LFE30:
 3126              		.size	do_write, .-do_write
 3127 0074 AFF30080 		.section	.text.do_getaddr,"ax",%progbits
 3127      AFF30080 
 3127      AFF30080 
 3128              		.align	2
 3129              		.p2align 4,,15
 3130              		.global	do_getaddr
 3131              		.thumb
 3132              		.thumb_func
 3133              		.type	do_getaddr, %function
 3134              	do_getaddr:
 3135              	.LFB31:
 3136              		.loc 1 1399 0
 3137              		.cfi_startproc
 3138              		@ args = 0, pretend = 0, frame = 0
 3139              		@ frame_needed = 0, uses_anonymous_args = 0
 3140              	.LVL339:
 3141 0000 10B5     		push	{r4, lr}
 3142              	.LCFI26:
 3143              		.cfi_def_cfa_offset 8
 3144              		.cfi_offset 4, -8
 3145              		.cfi_offset 14, -4
 3146              		.loc 1 1399 0
 3147 0002 0446     		mov	r4, r0
 3148              		.loc 1 1400 0
 3149 0004 0068     		ldr	r0, [r0, #0]
 3150              	.LVL340:
 3151 0006 4368     		ldr	r3, [r0, #4]
 3152 0008 002B     		cmp	r3, #0
 3153 000a 2ED0     		beq	.L491
 3154              		.loc 1 1401 0
 3155 000c 217C     		ldrb	r1, [r4, #16]	@ zero_extendqisi2
 3156 000e A268     		ldr	r2, [r4, #8]
 3157 0010 A1B9     		cbnz	r1, .L505
 3158              		.loc 1 1401 0 is_stmt 0 discriminator 2
 3159 0012 5B68     		ldr	r3, [r3, #4]
 3160 0014 1360     		str	r3, [r2, #0]
 3161              		.loc 1 1404 0 is_stmt 1 discriminator 2
 3162 0016 0022     		movs	r2, #0
 3163 0018 2271     		strb	r2, [r4, #4]
 3164              		.loc 1 1405 0 discriminator 2
 3165 001a 0378     		ldrb	r3, [r0, #0]	@ zero_extendqisi2
ARM GAS  C:\Users\jenny\AppData\Local\Temp\ccWqzXsD.s 			page 57


 3166 001c 03F0F001 		and	r1, r3, #240
 3167 0020 2029     		cmp	r1, #32
 3168 0022 14D0     		beq	.L496
 3169              	.L507:
 3170              		.loc 1 1405 0 is_stmt 0
 3171 0024 4029     		cmp	r1, #64
 3172 0026 1ED0     		beq	.L497
 3173 0028 1029     		cmp	r1, #16
 3174 002a 21D0     		beq	.L506
 3175              		.loc 1 1435 0 is_stmt 1 discriminator 1
 3176 002c FFF7FEFF 		bl	port_halt
 3177              	.LVL341:
 3178 0030 2068     		ldr	r0, [r4, #0]
 3179              	.L499:
 3180              		.loc 1 1441 0
 3181 0032 0C30     		adds	r0, r0, #12
 3182              		.loc 1 1442 0
 3183 0034 BDE81040 		pop	{r4, lr}
 3184              		.loc 1 1441 0
 3185 0038 FFF7FEBF 		b	sys_sem_signal
 3186              	.LVL342:
 3187              	.L505:
 3188              		.loc 1 1401 0 discriminator 1
 3189 003c 1968     		ldr	r1, [r3, #0]
 3190 003e 1160     		str	r1, [r2, #0]
 3191              		.loc 1 1404 0 discriminator 1
 3192 0040 0022     		movs	r2, #0
 3193 0042 2271     		strb	r2, [r4, #4]
 3194              		.loc 1 1405 0 discriminator 1
 3195 0044 0378     		ldrb	r3, [r0, #0]	@ zero_extendqisi2
 3196 0046 03F0F001 		and	r1, r3, #240
 3197 004a 2029     		cmp	r1, #32
 3198 004c EAD1     		bne	.L507
 3199              	.L496:
 3200              		.loc 1 1418 0
 3201 004e 217C     		ldrb	r1, [r4, #16]	@ zero_extendqisi2
 3202 0050 E9B9     		cbnz	r1, .L508
 3203              		.loc 1 1421 0
 3204 0052 4368     		ldr	r3, [r0, #4]
 3205 0054 1A7C     		ldrb	r2, [r3, #16]	@ zero_extendqisi2
 3206 0056 02F00401 		and	r1, r2, #4
 3207 005a CAB2     		uxtb	r2, r1
 3208 005c 2AB1     		cbz	r2, .L491
 3209              		.loc 1 1424 0
 3210 005e E168     		ldr	r1, [r4, #12]
 3211 0060 9B8A     		ldrh	r3, [r3, #20]
 3212 0062 0B80     		strh	r3, [r1, #0]	@ movhi
 3213 0064 E5E7     		b	.L499
 3214              	.L497:
 3215              		.loc 1 1408 0
 3216 0066 237C     		ldrb	r3, [r4, #16]	@ zero_extendqisi2
 3217 0068 4BB9     		cbnz	r3, .L509
 3218              	.L491:
 3219              		.loc 1 1439 0
 3220 006a F322     		movs	r2, #243
 3221 006c 2271     		strb	r2, [r4, #4]
 3222 006e E0E7     		b	.L499
ARM GAS  C:\Users\jenny\AppData\Local\Temp\ccWqzXsD.s 			page 58


 3223              	.L506:
 3224              		.loc 1 1431 0
 3225 0070 227C     		ldrb	r2, [r4, #16]	@ zero_extendqisi2
 3226 0072 E368     		ldr	r3, [r4, #12]
 3227 0074 42B9     		cbnz	r2, .L510
 3228              		.loc 1 1431 0 is_stmt 0 discriminator 2
 3229 0076 4168     		ldr	r1, [r0, #4]
 3230 0078 8A8B     		ldrh	r2, [r1, #28]
 3231              	.L503:
 3232              		.loc 1 1431 0 discriminator 3
 3233 007a 1A80     		strh	r2, [r3, #0]	@ movhi
 3234              		.loc 1 1432 0 is_stmt 1 discriminator 3
 3235 007c D9E7     		b	.L499
 3236              	.L509:
 3237              		.loc 1 1409 0
 3238 007e 4168     		ldr	r1, [r0, #4]
 3239 0080 E268     		ldr	r2, [r4, #12]
 3240 0082 0B7C     		ldrb	r3, [r1, #16]	@ zero_extendqisi2
 3241 0084 1380     		strh	r3, [r2, #0]	@ movhi
 3242 0086 D4E7     		b	.L499
 3243              	.L510:
 3244              		.loc 1 1431 0 discriminator 1
 3245 0088 4168     		ldr	r1, [r0, #4]
 3246 008a 4A8B     		ldrh	r2, [r1, #26]
 3247 008c F5E7     		b	.L503
 3248              	.L508:
 3249              		.loc 1 1419 0
 3250 008e 4168     		ldr	r1, [r0, #4]
 3251 0090 E268     		ldr	r2, [r4, #12]
 3252 0092 4B8A     		ldrh	r3, [r1, #18]
 3253 0094 1380     		strh	r3, [r2, #0]	@ movhi
 3254 0096 CCE7     		b	.L499
 3255              		.cfi_endproc
 3256              	.LFE31:
 3257              		.size	do_getaddr, .-do_getaddr
 3258 0098 AFF30080 		.section	.text.do_close,"ax",%progbits
 3258      AFF30080 
 3259              		.align	2
 3260              		.p2align 4,,15
 3261              		.global	do_close
 3262              		.thumb
 3263              		.thumb_func
 3264              		.type	do_close, %function
 3265              	do_close:
 3266              	.LFB32:
 3267              		.loc 1 1452 0
 3268              		.cfi_startproc
 3269              		@ args = 0, pretend = 0, frame = 0
 3270              		@ frame_needed = 0, uses_anonymous_args = 0
 3271              	.LVL343:
 3272 0000 10B5     		push	{r4, lr}
 3273              	.LCFI27:
 3274              		.cfi_def_cfa_offset 8
 3275              		.cfi_offset 4, -8
 3276              		.cfi_offset 14, -4
 3277              		.loc 1 1452 0
 3278 0002 0446     		mov	r4, r0
ARM GAS  C:\Users\jenny\AppData\Local\Temp\ccWqzXsD.s 			page 59


 3279              		.loc 1 1455 0
 3280 0004 0068     		ldr	r0, [r0, #0]
 3281              	.LVL344:
 3282 0006 4278     		ldrb	r2, [r0, #1]	@ zero_extendqisi2
 3283 0008 52B1     		cbz	r2, .L512
 3284              		.loc 1 1455 0 is_stmt 0 discriminator 1
 3285 000a 022A     		cmp	r2, #2
 3286 000c 08D0     		beq	.L512
 3287              		.loc 1 1457 0 is_stmt 1
 3288 000e 0278     		ldrb	r2, [r0, #0]	@ zero_extendqisi2
 3289 0010 102A     		cmp	r2, #16
 3290 0012 02D0     		beq	.L513
 3291              		.loc 1 1457 0 is_stmt 0 discriminator 1
 3292 0014 FFF7FEFF 		bl	port_halt
 3293              	.LVL345:
 3294 0018 2068     		ldr	r0, [r4, #0]
 3295              	.L513:
 3296              		.loc 1 1458 0 is_stmt 1
 3297 001a FB21     		movs	r1, #251
 3298 001c 2171     		strb	r1, [r4, #4]
 3299 001e 06E0     		b	.L514
 3300              	.L512:
 3301              		.loc 1 1459 0
 3302 0020 4168     		ldr	r1, [r0, #4]
 3303 0022 11B1     		cbz	r1, .L515
 3304              		.loc 1 1459 0 is_stmt 0 discriminator 1
 3305 0024 0378     		ldrb	r3, [r0, #0]	@ zero_extendqisi2
 3306 0026 102B     		cmp	r3, #16
 3307 0028 06D0     		beq	.L542
 3308              	.L515:
 3309              		.loc 1 1479 0 is_stmt 1
 3310 002a FA22     		movs	r2, #250
 3311 002c 2271     		strb	r2, [r4, #4]
 3312              	.L514:
 3313              		.loc 1 1481 0
 3314 002e 0C30     		adds	r0, r0, #12
 3315              		.loc 1 1482 0
 3316 0030 BDE81040 		pop	{r4, lr}
 3317              		.loc 1 1481 0
 3318 0034 FFF7FEBF 		b	sys_sem_signal
 3319              	.LVL346:
 3320              	.L542:
 3321              		.loc 1 1460 0
 3322 0038 217A     		ldrb	r1, [r4, #8]	@ zero_extendqisi2
 3323 003a 0329     		cmp	r1, #3
 3324 003c 13D0     		beq	.L516
 3325              		.loc 1 1460 0 is_stmt 0 discriminator 1
 3326 003e 022A     		cmp	r2, #2
 3327 0040 15D0     		beq	.L543
 3328              		.loc 1 1464 0 is_stmt 1
 3329 0042 CA07     		lsls	r2, r1, #31
 3330 0044 0FD4     		bmi	.L516
 3331              	.L518:
 3332              		.loc 1 1468 0
 3333 0046 436A     		ldr	r3, [r0, #36]
 3334 0048 4BB1     		cbz	r3, .L544
 3335              	.L519:
ARM GAS  C:\Users\jenny\AppData\Local\Temp\ccWqzXsD.s 			page 60


 3336              		.loc 1 1468 0 is_stmt 0 discriminator 1
 3337 004a FFF7FEFF 		bl	port_halt
 3338              	.LVL347:
 3339 004e 2068     		ldr	r0, [r4, #0]
 3340              	.L520:
 3341              		.loc 1 1470 0 is_stmt 1
 3342 0050 0421     		movs	r1, #4
 3343 0052 4170     		strb	r1, [r0, #1]
 3344              		.loc 1 1471 0
 3345 0054 4462     		str	r4, [r0, #36]
 3346              		.loc 1 1482 0
 3347 0056 BDE81040 		pop	{r4, lr}
 3348              		.loc 1 1472 0
 3349 005a FFF7FEBF 		b	do_close_internal
 3350              	.LVL348:
 3351              	.L544:
 3352              		.loc 1 1468 0 discriminator 2
 3353 005e 026A     		ldr	r2, [r0, #32]
 3354 0060 002A     		cmp	r2, #0
 3355 0062 F2D1     		bne	.L519
 3356 0064 F4E7     		b	.L520
 3357              	.L516:
 3358              		.loc 1 1466 0
 3359 0066 FFF7FEFF 		bl	netconn_drain
 3360              	.LVL349:
 3361 006a 2068     		ldr	r0, [r4, #0]
 3362 006c EBE7     		b	.L518
 3363              	.L543:
 3364              		.loc 1 1462 0
 3365 006e F323     		movs	r3, #243
 3366 0070 2371     		strb	r3, [r4, #4]
 3367              		.loc 1 1460 0
 3368 0072 DCE7     		b	.L514
 3369              		.cfi_endproc
 3370              	.LFE32:
 3371              		.size	do_close, .-do_close
 3372 0074 AFF30080 		.text
 3372      AFF30080 
 3372      AFF30080 
 3373              	.Letext0:
 3374              		.file 2 "c:\\fbin\\yagarto\\bin\\../lib/gcc/arm-none-eabi/4.7.4/include/stddef.h"
 3375              		.file 3 "c:\\fbin\\yagarto\\bin\\../lib/gcc/arm-none-eabi/4.7.4/../../../../arm-none-eabi/include/
 3376              		.file 4 "../../os/ports/GCC/ARMCMx/chtypes.h"
 3377              		.file 5 "../../os/kernel/include/chlists.h"
 3378              		.file 6 "../../os/kernel/include/chthreads.h"
 3379              		.file 7 "../../os/ports/GCC/ARMCMx/chcore_v7m.h"
 3380              		.file 8 "../../os/kernel/include/chsem.h"
 3381              		.file 9 "../../os/kernel/include/chmtx.h"
 3382              		.file 10 "../../os/kernel/include/chmboxes.h"
 3383              		.file 11 "../../os/various/lwip_bindings/arch/cc.h"
 3384              		.file 12 "../../ext/lwip/src/include/ipv4/lwip/ip_addr.h"
 3385              		.file 13 "../../ext/lwip/src/include/lwip/err.h"
 3386              		.file 14 "../../os/various/lwip_bindings/arch/sys_arch.h"
 3387              		.file 15 "../../ext/lwip/src/include/lwip/pbuf.h"
 3388              		.file 16 "../../ext/lwip/src/include/lwip/netbuf.h"
 3389              		.file 17 "../../ext/lwip/src/include/lwip/api.h"
 3390              		.file 18 "../../ext/lwip/src/include/ipv4/lwip/ip.h"
ARM GAS  C:\Users\jenny\AppData\Local\Temp\ccWqzXsD.s 			page 61


 3391              		.file 19 "../../ext/lwip/src/include/lwip/tcp.h"
 3392              		.file 20 "../../ext/lwip/src/include/lwip/udp.h"
 3393              		.file 21 "../../ext/lwip/src/include/lwip/raw.h"
 3394              		.file 22 "../../ext/lwip/src/include/lwip/api_msg.h"
 3395              		.file 23 "../../ext/lwip/src/include/lwip/memp.h"
 3396              		.file 24 "../../ext/lwip/src/include/lwip/sys.h"