ARM GAS  C:\Users\jenny\AppData\Local\Temp\ccWqzXsD.s 			page 1


   1              		.syntax unified
   2              		.cpu cortex-m4
   3              		.eabi_attribute 27, 3
   4              		.fpu fpv4-sp-d16
   5              		.eabi_attribute 20, 1
   6              		.eabi_attribute 21, 1
   7              		.eabi_attribute 23, 3
   8              		.eabi_attribute 24, 1
   9              		.eabi_attribute 25, 1
  10              		.eabi_attribute 26, 1
  11              		.eabi_attribute 30, 2
  12              		.eabi_attribute 34, 1
  13              		.eabi_attribute 18, 4
  14              		.thumb
  15              		.file	"api_msg.c"
  16              		.text
  17              	.Ltext0:
  18              		.cfi_sections	.debug_frame
  19              		.section	.text.setup_tcp,"ax",%progbits
  20              		.align	2
  21              		.p2align 4,,15
  22              		.thumb
  23              		.thumb_func
  24              		.type	setup_tcp, %function
  25              	setup_tcp:
  26              	.LFB13:
  27              		.file 1 "../../ext/lwip/src/api/api_msg.c"
  28              		.loc 1 414 0
  29              		.cfi_startproc
  30              		@ args = 0, pretend = 0, frame = 0
  31              		@ frame_needed = 0, uses_anonymous_args = 0
  32              	.LVL0:
  33 0000 10B5     		push	{r4, lr}
  34              	.LCFI0:
  35              		.cfi_def_cfa_offset 8
  36              		.cfi_offset 4, -8
  37              		.cfi_offset 14, -4
  38              		.loc 1 417 0
  39 0002 4468     		ldr	r4, [r0, #4]
  40              	.LVL1:
  41              		.loc 1 418 0
  42 0004 0146     		mov	r1, r0
  43 0006 2046     		mov	r0, r4
  44              	.LVL2:
  45 0008 FFF7FEFF 		bl	tcp_arg
  46              	.LVL3:
  47              		.loc 1 419 0
  48 000c 40F20001 		movw	r1, #:lower16:recv_tcp
  49 0010 2046     		mov	r0, r4
  50 0012 C0F20001 		movt	r1, #:upper16:recv_tcp
  51 0016 FFF7FEFF 		bl	tcp_recv
  52              	.LVL4:
  53              		.loc 1 420 0
  54 001a 40F20001 		movw	r1, #:lower16:sent_tcp
  55 001e 2046     		mov	r0, r4
  56 0020 C0F20001 		movt	r1, #:upper16:sent_tcp
  57 0024 FFF7FEFF 		bl	tcp_sent
ARM GAS  C:\Users\jenny\AppData\Local\Temp\ccWqzXsD.s 			page 2


  58              	.LVL5:
  59              		.loc 1 421 0
  60 0028 40F20001 		movw	r1, #:lower16:poll_tcp
  61 002c 2046     		mov	r0, r4
  62 002e C0F20001 		movt	r1, #:upper16:poll_tcp
  63 0032 0422     		movs	r2, #4
  64 0034 FFF7FEFF 		bl	tcp_poll
  65              	.LVL6:
  66              		.loc 1 422 0
  67 0038 40F20001 		movw	r1, #:lower16:err_tcp
  68 003c 2046     		mov	r0, r4
  69 003e C0F20001 		movt	r1, #:upper16:err_tcp
  70              		.loc 1 423 0
  71 0042 BDE81040 		pop	{r4, lr}
  72              		.loc 1 422 0
  73 0046 FFF7FEBF 		b	tcp_err
  74              	.LVL7:
  75              		.cfi_endproc
  76              	.LFE13:
  77              		.size	setup_tcp, .-setup_tcp
  78 004a 00BFAFF3 		.section	.text.do_connected,"ax",%progbits
  78      0080
  79              		.align	2
  80              		.p2align 4,,15
  81              		.thumb
  82              		.thumb_func
  83              		.type	do_connected, %function
  84              	do_connected:
  85              	.LFB23:
  86              		.loc 1 938 0
  87              		.cfi_startproc
  88              		@ args = 0, pretend = 0, frame = 0
  89              		@ frame_needed = 0, uses_anonymous_args = 0
  90              	.LVL8:
  91 0000 38B5     		push	{r3, r4, r5, lr}
  92              	.LCFI1:
  93              		.cfi_def_cfa_offset 16
  94              		.cfi_offset 3, -16
  95              		.cfi_offset 4, -12
  96              		.cfi_offset 5, -8
  97              		.cfi_offset 14, -4
  98              		.loc 1 946 0
  99 0002 0446     		mov	r4, r0
 100              		.loc 1 938 0
 101 0004 1546     		mov	r5, r2
 102              		.loc 1 946 0
 103 0006 0028     		cmp	r0, #0
 104 0008 41D0     		beq	.L12
 105              		.loc 1 950 0
 106 000a 4378     		ldrb	r3, [r0, #1]	@ zero_extendqisi2
 107 000c 032B     		cmp	r3, #3
 108 000e 01D0     		beq	.L4
 109              		.loc 1 950 0 is_stmt 0 discriminator 1
 110 0010 FFF7FEFF 		bl	port_halt
 111              	.LVL9:
 112              	.L4:
 113              		.loc 1 951 0 is_stmt 1
ARM GAS  C:\Users\jenny\AppData\Local\Temp\ccWqzXsD.s 			page 3


 114 0014 636A     		ldr	r3, [r4, #36]
 115 0016 002B     		cmp	r3, #0
 116 0018 2DD0     		beq	.L24
 117              	.L5:
 118              		.loc 1 955 0
 119 001a 1D71     		strb	r5, [r3, #4]
 120              	.L7:
 121              		.loc 1 957 0
 122 001c 2078     		ldrb	r0, [r4, #0]	@ zero_extendqisi2
 123 001e 1028     		cmp	r0, #16
 124 0020 23D0     		beq	.L25
 125              	.L9:
 126              		.loc 1 960 0
 127 0022 217F     		ldrb	r1, [r4, #28]	@ zero_extendqisi2
 128 0024 81F00405 		eor	r5, r1, #4
 129              		.loc 1 962 0
 130 0028 0023     		movs	r3, #0
 131              		.loc 1 961 0
 132 002a 21F00402 		bic	r2, r1, #4
 133              		.loc 1 960 0
 134 002e C5F38005 		ubfx	r5, r5, #2, #1
 135              	.LVL10:
 136              		.loc 1 961 0
 137 0032 2277     		strb	r2, [r4, #28]
 138              		.loc 1 962 0
 139 0034 6362     		str	r3, [r4, #36]
 140              		.loc 1 963 0
 141 0036 6370     		strb	r3, [r4, #1]
 142              		.loc 1 964 0
 143 0038 4DB1     		cbz	r5, .L26
 144              	.L10:
 145              		.loc 1 967 0
 146 003a A36A     		ldr	r3, [r4, #40]
 147 003c 1BB1     		cbz	r3, .L11
 148              		.loc 1 967 0 is_stmt 0 discriminator 1
 149 003e 2046     		mov	r0, r4
 150 0040 0221     		movs	r1, #2
 151 0042 0022     		movs	r2, #0
 152 0044 9847     		blx	r3
 153              	.LVL11:
 154              	.L11:
 155              		.loc 1 969 0 is_stmt 1
 156 0046 4DB9     		cbnz	r5, .L27
 157              		.loc 1 972 0
 158 0048 2946     		mov	r1, r5
 159              	.LVL12:
 160              	.L3:
 161              		.loc 1 973 0
 162 004a 48B2     		sxtb	r0, r1
 163 004c 38BD     		pop	{r3, r4, r5, pc}
 164              	.LVL13:
 165              	.L26:
 166              		.loc 1 965 0
 167 004e 94F90800 		ldrsb	r0, [r4, #8]
 168 0052 10F10903 		adds	r3, r0, #9
 169 0056 A8BF     		it	ge
 170 0058 2572     		strbge	r5, [r4, #8]
ARM GAS  C:\Users\jenny\AppData\Local\Temp\ccWqzXsD.s 			page 4


 171 005a EEE7     		b	.L10
 172              	.L27:
 173              		.loc 1 970 0
 174 005c 04F10C00 		add	r0, r4, #12
 175 0060 FFF7FEFF 		bl	sys_sem_signal
 176              	.LVL14:
 177              		.loc 1 972 0
 178 0064 0021     		movs	r1, #0
 179              		.loc 1 973 0
 180 0066 48B2     		sxtb	r0, r1
 181 0068 38BD     		pop	{r3, r4, r5, pc}
 182              	.LVL15:
 183              	.L25:
 184              		.loc 1 957 0 discriminator 1
 185 006a 002D     		cmp	r5, #0
 186 006c D9D1     		bne	.L9
 187              		.loc 1 958 0
 188 006e 2046     		mov	r0, r4
 189 0070 FFF7FEFF 		bl	setup_tcp
 190              	.LVL16:
 191 0074 D5E7     		b	.L9
 192              	.L24:
 193              		.loc 1 951 0 discriminator 1
 194 0076 207F     		ldrb	r0, [r4, #28]	@ zero_extendqisi2
 195 0078 00F00401 		and	r1, r0, #4
 196 007c CAB2     		uxtb	r2, r1
 197 007e 002A     		cmp	r2, #0
 198 0080 CCD1     		bne	.L7
 199              		.loc 1 951 0 is_stmt 0 discriminator 2
 200 0082 FFF7FEFF 		bl	port_halt
 201              	.LVL17:
 202              		.loc 1 954 0 is_stmt 1 discriminator 2
 203 0086 636A     		ldr	r3, [r4, #36]
 204 0088 002B     		cmp	r3, #0
 205 008a C7D0     		beq	.L7
 206 008c C5E7     		b	.L5
 207              	.LVL18:
 208              	.L12:
 209              		.loc 1 947 0
 210 008e FA21     		movs	r1, #250
 211              	.LVL19:
 212 0090 DBE7     		b	.L3
 213              		.cfi_endproc
 214              	.LFE23:
 215              		.size	do_connected, .-do_connected
 216 0092 00BFAFF3 		.section	.text.do_close_internal,"ax",%progbits
 216      0080AFF3 
 216      0080AFF3 
 216      0080
 217              		.align	2
 218              		.p2align 4,,15
 219              		.thumb
 220              		.thumb_func
 221              		.type	do_close_internal, %function
 222              	do_close_internal:
 223              	.LFB20:
 224              		.loc 1 748 0
ARM GAS  C:\Users\jenny\AppData\Local\Temp\ccWqzXsD.s 			page 5


 225              		.cfi_startproc
 226              		@ args = 0, pretend = 0, frame = 0
 227              		@ frame_needed = 0, uses_anonymous_args = 0
 228              	.LVL20:
 229 0000 F8B5     		push	{r3, r4, r5, r6, r7, lr}
 230              	.LCFI2:
 231              		.cfi_def_cfa_offset 24
 232              		.cfi_offset 3, -24
 233              		.cfi_offset 4, -20
 234              		.cfi_offset 5, -16
 235              		.cfi_offset 6, -12
 236              		.cfi_offset 7, -8
 237              		.cfi_offset 14, -4
 238              		.loc 1 752 0
 239 0002 0446     		mov	r4, r0
 240 0004 0028     		cmp	r0, #0
 241 0006 00F09A80 		beq	.L83
 242              	.LVL21:
 243              	.L29:
 244              		.loc 1 753 0
 245 000a 2378     		ldrb	r3, [r4, #0]	@ zero_extendqisi2
 246 000c 102B     		cmp	r3, #16
 247 000e 01D0     		beq	.L30
 248              		.loc 1 753 0 is_stmt 0 discriminator 1
 249 0010 FFF7FEFF 		bl	port_halt
 250              	.LVL22:
 251              	.L30:
 252              		.loc 1 754 0 is_stmt 1
 253 0014 6078     		ldrb	r0, [r4, #1]	@ zero_extendqisi2
 254 0016 0428     		cmp	r0, #4
 255 0018 01D0     		beq	.L31
 256              		.loc 1 754 0 is_stmt 0 discriminator 1
 257 001a FFF7FEFF 		bl	port_halt
 258              	.LVL23:
 259              	.L31:
 260              		.loc 1 755 0 is_stmt 1
 261 001e 6168     		ldr	r1, [r4, #4]
 262 0020 0029     		cmp	r1, #0
 263 0022 00F08580 		beq	.L84
 264              	.L32:
 265              		.loc 1 756 0
 266 0026 626A     		ldr	r2, [r4, #36]
 267 0028 002A     		cmp	r2, #0
 268 002a 00F08480 		beq	.L85
 269              	.L33:
 270              		.loc 1 758 0
 271 002e 177A     		ldrb	r7, [r2, #8]	@ zero_extendqisi2
 272              	.LVL24:
 273              		.loc 1 762 0
 274 0030 FB1E     		subs	r3, r7, #3
 275 0032 5D42     		rsbs	r5, r3, #0
 276              		.loc 1 760 0
 277 0034 07F00206 		and	r6, r7, #2
 278              		.loc 1 762 0
 279 0038 5D41     		adcs	r5, r5, r3
 280              		.loc 1 759 0
 281 003a 07F00107 		and	r7, r7, #1
ARM GAS  C:\Users\jenny\AppData\Local\Temp\ccWqzXsD.s 			page 6


 282              	.LVL25:
 283              		.loc 1 760 0
 284 003e F6B2     		uxtb	r6, r6
 285              	.LVL26:
 286              		.loc 1 765 0
 287 0040 002D     		cmp	r5, #0
 288 0042 62D1     		bne	.L86
 289              		.loc 1 768 0
 290 0044 6068     		ldr	r0, [r4, #4]
 291 0046 017E     		ldrb	r1, [r0, #24]	@ zero_extendqisi2
 292 0048 0129     		cmp	r1, #1
 293 004a 66D0     		beq	.L87
 294              	.LVL27:
 295              	.L35:
 296              		.loc 1 772 0
 297 004c 002F     		cmp	r7, #0
 298 004e 51D1     		bne	.L88
 299              		.loc 1 776 0
 300 0050 002E     		cmp	r6, #0
 301 0052 3CD1     		bne	.L89
 302              	.L39:
 303              		.loc 1 779 0
 304 0054 002D     		cmp	r5, #0
 305 0056 40D1     		bne	.L90
 306              	.L40:
 307              		.loc 1 788 0
 308 0058 3246     		mov	r2, r6
 309 005a 3946     		mov	r1, r7
 310 005c FFF7FEFF 		bl	tcp_shutdown
 311              	.LVL28:
 312 0060 0246     		mov	r2, r0
 313              	.LVL29:
 314              	.L41:
 315              		.loc 1 790 0
 316 0062 F2B9     		cbnz	r2, .L42
 317              		.loc 1 792 0
 318 0064 606A     		ldr	r0, [r4, #36]
 319 0066 0271     		strb	r2, [r0, #4]
 320              		.loc 1 793 0
 321 0068 6262     		str	r2, [r4, #36]
 322              		.loc 1 794 0
 323 006a 6270     		strb	r2, [r4, #1]
 324              		.loc 1 795 0
 325 006c 2DB1     		cbz	r5, .L44
 326              		.loc 1 800 0
 327 006e A56A     		ldr	r5, [r4, #40]
 328              		.loc 1 797 0
 329 0070 6260     		str	r2, [r4, #4]
 330              		.loc 1 800 0
 331 0072 15B1     		cbz	r5, .L44
 332              		.loc 1 800 0 is_stmt 0 discriminator 1
 333 0074 2046     		mov	r0, r4
 334 0076 0421     		movs	r1, #4
 335 0078 A847     		blx	r5
 336              	.LVL30:
 337              	.L44:
 338              		.loc 1 802 0 is_stmt 1
ARM GAS  C:\Users\jenny\AppData\Local\Temp\ccWqzXsD.s 			page 7


 339 007a 2FB1     		cbz	r7, .L46
 340              		.loc 1 803 0
 341 007c A36A     		ldr	r3, [r4, #40]
 342 007e 1BB1     		cbz	r3, .L46
 343              		.loc 1 803 0 is_stmt 0 discriminator 1
 344 0080 0021     		movs	r1, #0
 345 0082 2046     		mov	r0, r4
 346 0084 0A46     		mov	r2, r1
 347 0086 9847     		blx	r3
 348              	.LVL31:
 349              	.L46:
 350              		.loc 1 805 0 is_stmt 1
 351 0088 2EB1     		cbz	r6, .L47
 352              		.loc 1 806 0
 353 008a A36A     		ldr	r3, [r4, #40]
 354 008c 1BB1     		cbz	r3, .L47
 355              		.loc 1 806 0 is_stmt 0 discriminator 1
 356 008e 2046     		mov	r0, r4
 357 0090 0221     		movs	r1, #2
 358 0092 0022     		movs	r2, #0
 359 0094 9847     		blx	r3
 360              	.LVL32:
 361              	.L47:
 362              		.loc 1 809 0 is_stmt 1
 363 0096 04F10C00 		add	r0, r4, #12
 364              		.loc 1 822 0
 365 009a BDE8F840 		pop	{r3, r4, r5, r6, r7, lr}
 366              		.loc 1 809 0
 367 009e FFF7FEBF 		b	sys_sem_signal
 368              	.LVL33:
 369              	.L42:
 370              		.loc 1 813 0
 371 00a2 6068     		ldr	r0, [r4, #4]
 372 00a4 027E     		ldrb	r2, [r0, #24]	@ zero_extendqisi2
 373              	.LVL34:
 374 00a6 012A     		cmp	r2, #1
 375 00a8 3ED0     		beq	.L91
 376              	.L48:
 377              		.loc 1 814 0
 378 00aa 2649     		ldr	r1, .L92
 379 00ac FFF7FEFF 		bl	tcp_sent
 380              	.LVL35:
 381              		.loc 1 815 0
 382 00b0 6068     		ldr	r0, [r4, #4]
 383 00b2 2549     		ldr	r1, .L92+4
 384 00b4 0422     		movs	r2, #4
 385 00b6 FFF7FEFF 		bl	tcp_poll
 386              	.LVL36:
 387              		.loc 1 816 0
 388 00ba 6068     		ldr	r0, [r4, #4]
 389 00bc 2349     		ldr	r1, .L92+8
 390 00be FFF7FEFF 		bl	tcp_err
 391              	.LVL37:
 392              		.loc 1 817 0
 393 00c2 6068     		ldr	r0, [r4, #4]
 394 00c4 2146     		mov	r1, r4
 395              		.loc 1 822 0
ARM GAS  C:\Users\jenny\AppData\Local\Temp\ccWqzXsD.s 			page 8


 396 00c6 BDE8F840 		pop	{r3, r4, r5, r6, r7, lr}
 397              		.loc 1 817 0
 398 00ca FFF7FEBF 		b	tcp_arg
 399              	.LVL38:
 400              	.L89:
 401              		.loc 1 777 0
 402 00ce 0021     		movs	r1, #0
 403 00d0 FFF7FEFF 		bl	tcp_sent
 404              	.LVL39:
 405 00d4 6068     		ldr	r0, [r4, #4]
 406              		.loc 1 779 0
 407 00d6 002D     		cmp	r5, #0
 408 00d8 BED0     		beq	.L40
 409              	.L90:
 410              		.loc 1 780 0
 411 00da 0021     		movs	r1, #0
 412 00dc 0422     		movs	r2, #4
 413 00de FFF7FEFF 		bl	tcp_poll
 414              	.LVL40:
 415              		.loc 1 781 0
 416 00e2 6068     		ldr	r0, [r4, #4]
 417 00e4 0021     		movs	r1, #0
 418 00e6 FFF7FEFF 		bl	tcp_err
 419              	.LVL41:
 420              	.L36:
 421              		.loc 1 786 0
 422 00ea 6068     		ldr	r0, [r4, #4]
 423 00ec FFF7FEFF 		bl	tcp_close
 424              	.LVL42:
 425 00f0 0246     		mov	r2, r0
 426              	.LVL43:
 427 00f2 B6E7     		b	.L41
 428              	.LVL44:
 429              	.L88:
 430              		.loc 1 773 0
 431 00f4 0021     		movs	r1, #0
 432 00f6 FFF7FEFF 		bl	tcp_recv
 433              	.LVL45:
 434              		.loc 1 774 0
 435 00fa 6068     		ldr	r0, [r4, #4]
 436 00fc 0021     		movs	r1, #0
 437 00fe FFF7FEFF 		bl	tcp_accept
 438              	.LVL46:
 439 0102 6068     		ldr	r0, [r4, #4]
 440              		.loc 1 776 0
 441 0104 002E     		cmp	r6, #0
 442 0106 A5D0     		beq	.L39
 443 0108 E1E7     		b	.L89
 444              	.LVL47:
 445              	.L86:
 446              		.loc 1 766 0
 447 010a 0021     		movs	r1, #0
 448 010c 6068     		ldr	r0, [r4, #4]
 449 010e FFF7FEFF 		bl	tcp_arg
 450              	.LVL48:
 451              		.loc 1 768 0
 452 0112 6068     		ldr	r0, [r4, #4]
ARM GAS  C:\Users\jenny\AppData\Local\Temp\ccWqzXsD.s 			page 9


 453 0114 017E     		ldrb	r1, [r0, #24]	@ zero_extendqisi2
 454 0116 0129     		cmp	r1, #1
 455 0118 98D1     		bne	.L35
 456              	.L87:
 457              		.loc 1 769 0
 458 011a 0021     		movs	r1, #0
 459 011c FFF7FEFF 		bl	tcp_accept
 460              	.LVL49:
 461              		.loc 1 785 0
 462 0120 002D     		cmp	r5, #0
 463 0122 E2D1     		bne	.L36
 464 0124 6068     		ldr	r0, [r4, #4]
 465 0126 97E7     		b	.L40
 466              	.L91:
 467              		.loc 1 813 0 discriminator 1
 468 0128 FFF7FEFF 		bl	port_halt
 469              	.LVL50:
 470 012c 6068     		ldr	r0, [r4, #4]
 471 012e BCE7     		b	.L48
 472              	.LVL51:
 473              	.L84:
 474              		.loc 1 755 0 discriminator 1
 475 0130 FFF7FEFF 		bl	port_halt
 476              	.LVL52:
 477 0134 77E7     		b	.L32
 478              	.L85:
 479              		.loc 1 756 0 discriminator 1
 480 0136 FFF7FEFF 		bl	port_halt
 481              	.LVL53:
 482 013a 626A     		ldr	r2, [r4, #36]
 483 013c 77E7     		b	.L33
 484              	.LVL54:
 485              	.L83:
 486              		.loc 1 752 0 discriminator 1
 487 013e FFF7FEFF 		bl	port_halt
 488              	.LVL55:
 489 0142 62E7     		b	.L29
 490              	.L93:
 491              		.align	2
 492              	.L92:
 493 0144 00000000 		.word	sent_tcp
 494 0148 00000000 		.word	poll_tcp
 495 014c 00000000 		.word	err_tcp
 496              		.cfi_endproc
 497              	.LFE20:
 498              		.size	do_close_internal, .-do_close_internal
 499              		.section	.text.err_tcp,"ax",%progbits
 500              		.align	2
 501              		.p2align 4,,15
 502              		.thumb
 503              		.thumb_func
 504              		.type	err_tcp, %function
 505              	err_tcp:
 506              	.LFB12:
 507              		.loc 1 348 0
 508              		.cfi_startproc
 509              		@ args = 0, pretend = 0, frame = 0
ARM GAS  C:\Users\jenny\AppData\Local\Temp\ccWqzXsD.s 			page 10


 510              		@ frame_needed = 0, uses_anonymous_args = 0
 511              	.LVL56:
 512 0000 F8B5     		push	{r3, r4, r5, r6, r7, lr}
 513              	.LCFI3:
 514              		.cfi_def_cfa_offset 24
 515              		.cfi_offset 3, -24
 516              		.cfi_offset 4, -20
 517              		.cfi_offset 5, -16
 518              		.cfi_offset 6, -12
 519              		.cfi_offset 7, -8
 520              		.cfi_offset 14, -4
 521              		.loc 1 354 0
 522 0002 0446     		mov	r4, r0
 523              		.loc 1 348 0
 524 0004 0F46     		mov	r7, r1
 525              		.loc 1 354 0
 526 0006 0028     		cmp	r0, #0
 527 0008 4FD0     		beq	.L130
 528              	.LVL57:
 529              	.L95:
 530              		.loc 1 369 0
 531 000a A36A     		ldr	r3, [r4, #40]
 532              		.loc 1 364 0
 533 000c 6678     		ldrb	r6, [r4, #1]	@ zero_extendqisi2
 534              	.LVL58:
 535              		.loc 1 360 0
 536 000e 2772     		strb	r7, [r4, #8]
 537              		.loc 1 356 0
 538 0010 0025     		movs	r5, #0
 539 0012 6560     		str	r5, [r4, #4]
 540              		.loc 1 365 0
 541 0014 6570     		strb	r5, [r4, #1]
 542              		.loc 1 369 0
 543 0016 7BB1     		cbz	r3, .L97
 544              		.loc 1 369 0 is_stmt 0 discriminator 1
 545 0018 2046     		mov	r0, r4
 546 001a 0421     		movs	r1, #4
 547 001c 2A46     		mov	r2, r5
 548 001e 9847     		blx	r3
 549              	.LVL59:
 550              		.loc 1 372 0 is_stmt 1 discriminator 1
 551 0020 A36A     		ldr	r3, [r4, #40]
 552 0022 4BB1     		cbz	r3, .L97
 553 0024 2046     		mov	r0, r4
 554 0026 2946     		mov	r1, r5
 555 0028 2A46     		mov	r2, r5
 556 002a 9847     		blx	r3
 557              	.LVL60:
 558              		.loc 1 373 0 discriminator 1
 559 002c A36A     		ldr	r3, [r4, #40]
 560 002e 1BB1     		cbz	r3, .L97
 561 0030 2046     		mov	r0, r4
 562 0032 0221     		movs	r1, #2
 563 0034 2A46     		mov	r2, r5
 564 0036 9847     		blx	r3
 565              	.LVL61:
 566              	.L97:
ARM GAS  C:\Users\jenny\AppData\Local\Temp\ccWqzXsD.s 			page 11


 567              		.loc 1 376 0
 568 0038 04F11005 		add	r5, r4, #16
 569 003c 2846     		mov	r0, r5
 570 003e FFF7FEFF 		bl	sys_mbox_valid
 571              	.LVL62:
 572 0042 0028     		cmp	r0, #0
 573 0044 2CD1     		bne	.L131
 574              	.L98:
 575              		.loc 1 381 0
 576 0046 04F11405 		add	r5, r4, #20
 577 004a 2846     		mov	r0, r5
 578 004c FFF7FEFF 		bl	sys_mbox_valid
 579              	.LVL63:
 580 0050 0028     		cmp	r0, #0
 581 0052 20D1     		bne	.L132
 582              	.L99:
 583              		.loc 1 386 0
 584 0054 012E     		cmp	r6, #1
 585 0056 0AD0     		beq	.L100
 586              		.loc 1 386 0 is_stmt 0 discriminator 1
 587 0058 042E     		cmp	r6, #4
 588 005a 08D0     		beq	.L100
 589 005c 032E     		cmp	r6, #3
 590 005e 06D0     		beq	.L100
 591              		.loc 1 402 0 is_stmt 1
 592 0060 606A     		ldr	r0, [r4, #36]
 593 0062 0028     		cmp	r0, #0
 594 0064 16D0     		beq	.L94
 595              		.loc 1 404 0 discriminator 1
 596 0066 BDE8F840 		pop	{r3, r4, r5, r6, r7, lr}
 597              		.loc 1 402 0 discriminator 1
 598 006a FFF7FEBF 		b	port_halt
 599              	.LVL64:
 600              	.L100:
 601              	.LBB2:
 602              		.loc 1 390 0
 603 006e 217F     		ldrb	r1, [r4, #28]	@ zero_extendqisi2
 604              	.LVL65:
 605              		.loc 1 393 0
 606 0070 01F00402 		and	r2, r1, #4
 607              		.loc 1 391 0
 608 0074 21F00403 		bic	r3, r1, #4
 609              		.loc 1 393 0
 610 0078 D0B2     		uxtb	r0, r2
 611              		.loc 1 391 0
 612 007a 2377     		strb	r3, [r4, #28]
 613              		.loc 1 393 0
 614 007c 50B9     		cbnz	r0, .L94
 615              		.loc 1 395 0
 616 007e 616A     		ldr	r1, [r4, #36]
 617              	.LVL66:
 618 0080 B1B1     		cbz	r1, .L133
 619              	.LVL67:
 620              	.L104:
 621              		.loc 1 397 0
 622 0082 0022     		movs	r2, #0
 623              		.loc 1 399 0
ARM GAS  C:\Users\jenny\AppData\Local\Temp\ccWqzXsD.s 			page 12


 624 0084 04F10C00 		add	r0, r4, #12
 625              		.loc 1 396 0
 626 0088 0F71     		strb	r7, [r1, #4]
 627              		.loc 1 397 0
 628 008a 6262     		str	r2, [r4, #36]
 629              	.LBE2:
 630              		.loc 1 404 0
 631 008c BDE8F840 		pop	{r3, r4, r5, r6, r7, lr}
 632              	.LBB3:
 633              		.loc 1 399 0
 634 0090 FFF7FEBF 		b	sys_sem_signal
 635              	.LVL68:
 636              	.L94:
 637 0094 F8BD     		pop	{r3, r4, r5, r6, r7, pc}
 638              	.L132:
 639              	.LBE3:
 640              		.loc 1 383 0
 641 0096 2846     		mov	r0, r5
 642 0098 0021     		movs	r1, #0
 643 009a FFF7FEFF 		bl	sys_mbox_trypost
 644              	.LVL69:
 645 009e D9E7     		b	.L99
 646              	.L131:
 647              		.loc 1 378 0
 648 00a0 2846     		mov	r0, r5
 649 00a2 0021     		movs	r1, #0
 650 00a4 FFF7FEFF 		bl	sys_mbox_trypost
 651              	.LVL70:
 652 00a8 CDE7     		b	.L98
 653              	.LVL71:
 654              	.L130:
 655              		.loc 1 354 0 discriminator 1
 656 00aa FFF7FEFF 		bl	port_halt
 657              	.LVL72:
 658 00ae ACE7     		b	.L95
 659              	.LVL73:
 660              	.L133:
 661              	.LBB4:
 662              		.loc 1 395 0 discriminator 1
 663 00b0 FFF7FEFF 		bl	port_halt
 664              	.LVL74:
 665 00b4 616A     		ldr	r1, [r4, #36]
 666 00b6 E4E7     		b	.L104
 667              	.LBE4:
 668              		.cfi_endproc
 669              	.LFE12:
 670              		.size	err_tcp, .-err_tcp
 671 00b8 AFF30080 		.section	.text.recv_tcp,"ax",%progbits
 671      AFF30080 
 672              		.align	2
 673              		.p2align 4,,15
 674              		.thumb
 675              		.thumb_func
 676              		.type	recv_tcp, %function
 677              	recv_tcp:
 678              	.LFB9:
 679              		.loc 1 217 0
ARM GAS  C:\Users\jenny\AppData\Local\Temp\ccWqzXsD.s 			page 13


 680              		.cfi_startproc
 681              		@ args = 0, pretend = 0, frame = 0
 682              		@ frame_needed = 0, uses_anonymous_args = 0
 683              	.LVL75:
 684 0000 2DE9F843 		push	{r3, r4, r5, r6, r7, r8, r9, lr}
 685              	.LCFI4:
 686              		.cfi_def_cfa_offset 32
 687              		.cfi_offset 3, -32
 688              		.cfi_offset 4, -28
 689              		.cfi_offset 5, -24
 690              		.cfi_offset 6, -20
 691              		.cfi_offset 7, -16
 692              		.cfi_offset 8, -12
 693              		.cfi_offset 9, -8
 694              		.cfi_offset 14, -4
 695              		.loc 1 222 0
 696 0004 0E46     		mov	r6, r1
 697              		.loc 1 217 0
 698 0006 0446     		mov	r4, r0
 699 0008 1546     		mov	r5, r2
 700 000a 9946     		mov	r9, r3
 701              		.loc 1 222 0
 702 000c 0029     		cmp	r1, #0
 703 000e 36D0     		beq	.L149
 704              	.LVL76:
 705              	.L135:
 706              		.loc 1 223 0
 707 0010 002C     		cmp	r4, #0
 708 0012 39D0     		beq	.L150
 709              	.L136:
 710              	.LVL77:
 711              		.loc 1 225 0
 712 0014 6268     		ldr	r2, [r4, #4]
 713 0016 B242     		cmp	r2, r6
 714 0018 01D0     		beq	.L137
 715              		.loc 1 225 0 is_stmt 0 discriminator 1
 716 001a FFF7FEFF 		bl	port_halt
 717              	.LVL78:
 718              	.L137:
 719              		.loc 1 230 0 is_stmt 1
 720 001e 04F11007 		add	r7, r4, #16
 721 0022 3846     		mov	r0, r7
 722 0024 FFF7FEFF 		bl	sys_mbox_valid
 723              	.LVL79:
 724 0028 8046     		mov	r8, r0
 725 002a 78B9     		cbnz	r0, .L138
 726              		.loc 1 232 0
 727 002c 55B1     		cbz	r5, .L143
 728              		.loc 1 233 0
 729 002e 2989     		ldrh	r1, [r5, #8]
 730 0030 3046     		mov	r0, r6
 731 0032 FFF7FEFF 		bl	tcp_recved
 732              	.LVL80:
 733              		.loc 1 234 0
 734 0036 2846     		mov	r0, r5
 735 0038 FFF7FEFF 		bl	pbuf_free
 736              	.LVL81:
ARM GAS  C:\Users\jenny\AppData\Local\Temp\ccWqzXsD.s 			page 14


 737              		.loc 1 236 0
 738 003c 4046     		mov	r0, r8
 739              	.LVL82:
 740              	.L140:
 741              		.loc 1 263 0
 742 003e 40B2     		sxtb	r0, r0
 743 0040 BDE8F883 		pop	{r3, r4, r5, r6, r7, r8, r9, pc}
 744              	.L143:
 745              		.loc 1 236 0
 746 0044 0020     		movs	r0, #0
 747              		.loc 1 263 0
 748 0046 40B2     		sxtb	r0, r0
 749 0048 BDE8F883 		pop	{r3, r4, r5, r6, r7, r8, r9, pc}
 750              	.LVL83:
 751              	.L138:
 752              		.loc 1 243 0
 753 004c 94F90830 		ldrsb	r3, [r4, #8]
 754 0050 0933     		adds	r3, r3, #9
 755 0052 A8BF     		it	ge
 756 0054 84F80890 		strbge	r9, [r4, #8]
 757              		.loc 1 245 0
 758 0058 A5B1     		cbz	r5, .L144
 759              		.loc 1 246 0
 760 005a 2E89     		ldrh	r6, [r5, #8]
 761              	.LVL84:
 762              	.L142:
 763              		.loc 1 251 0
 764 005c 2946     		mov	r1, r5
 765 005e 3846     		mov	r0, r7
 766 0060 FFF7FEFF 		bl	sys_mbox_trypost
 767              	.LVL85:
 768 0064 0546     		mov	r5, r0
 769              	.LVL86:
 770 0066 90B9     		cbnz	r0, .L145
 771              		.loc 1 259 0
 772 0068 A36A     		ldr	r3, [r4, #40]
 773 006a 002B     		cmp	r3, #0
 774 006c EAD0     		beq	.L143
 775              		.loc 1 259 0 is_stmt 0 discriminator 1
 776 006e 2046     		mov	r0, r4
 777 0070 2946     		mov	r1, r5
 778 0072 3246     		mov	r2, r6
 779 0074 9847     		blx	r3
 780              	.LVL87:
 781              		.loc 1 262 0 is_stmt 1 discriminator 1
 782 0076 2846     		mov	r0, r5
 783              		.loc 1 263 0 discriminator 1
 784 0078 40B2     		sxtb	r0, r0
 785 007a BDE8F883 		pop	{r3, r4, r5, r6, r7, r8, r9, pc}
 786              	.LVL88:
 787              	.L149:
 788              		.loc 1 222 0 discriminator 1
 789 007e FFF7FEFF 		bl	port_halt
 790              	.LVL89:
 791 0082 C5E7     		b	.L135
 792              	.LVL90:
 793              	.L144:
ARM GAS  C:\Users\jenny\AppData\Local\Temp\ccWqzXsD.s 			page 15


 794              		.loc 1 248 0
 795 0084 2E46     		mov	r6, r5
 796              	.LVL91:
 797 0086 E9E7     		b	.L142
 798              	.LVL92:
 799              	.L150:
 800              		.loc 1 223 0 discriminator 1
 801 0088 FFF7FEFF 		bl	port_halt
 802              	.LVL93:
 803 008c C2E7     		b	.L136
 804              	.LVL94:
 805              	.L145:
 806              		.loc 1 253 0
 807 008e FF20     		movs	r0, #255
 808 0090 D5E7     		b	.L140
 809              		.cfi_endproc
 810              	.LFE9:
 811              		.size	recv_tcp, .-recv_tcp
 812 0092 00BFAFF3 		.section	.text.do_writemore,"ax",%progbits
 812      0080AFF3 
 812      0080AFF3 
 812      0080
 813              		.align	2
 814              		.p2align 4,,15
 815              		.thumb
 816              		.thumb_func
 817              		.type	do_writemore, %function
 818              	do_writemore:
 819              	.LFB29:
 820              		.loc 1 1209 0
 821              		.cfi_startproc
 822              		@ args = 0, pretend = 0, frame = 0
 823              		@ frame_needed = 0, uses_anonymous_args = 0
 824              	.LVL95:
 825 0000 2DE9F047 		push	{r4, r5, r6, r7, r8, r9, sl, lr}
 826              	.LCFI5:
 827              		.cfi_def_cfa_offset 32
 828              		.cfi_offset 4, -32
 829              		.cfi_offset 5, -28
 830              		.cfi_offset 6, -24
 831              		.cfi_offset 7, -20
 832              		.cfi_offset 8, -16
 833              		.cfi_offset 9, -12
 834              		.cfi_offset 10, -8
 835              		.cfi_offset 14, -4
 836              		.loc 1 1215 0
 837 0004 037F     		ldrb	r3, [r0, #28]	@ zero_extendqisi2
 838              		.loc 1 1209 0
 839 0006 0446     		mov	r4, r0
 840              		.loc 1 1215 0
 841 0008 03F00200 		and	r0, r3, #2
 842              	.LVL96:
 843 000c C1B2     		uxtb	r1, r0
 844 000e 0029     		cmp	r1, #0
 845 0010 6CD0     		beq	.L152
 846 0012 656A     		ldr	r5, [r4, #36]
 847 0014 2F7C     		ldrb	r7, [r5, #16]	@ zero_extendqisi2
ARM GAS  C:\Users\jenny\AppData\Local\Temp\ccWqzXsD.s 			page 16


 848 0016 4FF00108 		mov	r8, #1
 849              	.L153:
 850              	.LVL97:
 851              		.loc 1 1220 0 discriminator 4
 852 001a 6678     		ldrb	r6, [r4, #1]	@ zero_extendqisi2
 853 001c 012E     		cmp	r6, #1
 854 001e 05D0     		beq	.L154
 855              		.loc 1 1220 0 is_stmt 0 discriminator 1
 856 0020 FFF7FEFF 		bl	port_halt
 857              	.LVL98:
 858              		.loc 1 1221 0 is_stmt 1 discriminator 1
 859 0024 636A     		ldr	r3, [r4, #36]
 860 0026 002B     		cmp	r3, #0
 861 0028 00F09180 		beq	.L188
 862              	.L154:
 863              		.loc 1 1222 0
 864 002c 6068     		ldr	r0, [r4, #4]
 865 002e 0028     		cmp	r0, #0
 866 0030 00F09380 		beq	.L189
 867              	.L155:
 868              		.loc 1 1223 0
 869 0034 616A     		ldr	r1, [r4, #36]
 870 0036 226A     		ldr	r2, [r4, #32]
 871 0038 CE68     		ldr	r6, [r1, #12]
 872 003a B242     		cmp	r2, r6
 873 003c 5BD2     		bcs	.L190
 874              	.L156:
 875              		.loc 1 1242 0
 876 003e 8868     		ldr	r0, [r1, #8]
 877 0040 00EB020A 		add	sl, r0, r2
 878              	.LVL99:
 879              		.loc 1 1253 0
 880 0044 6068     		ldr	r0, [r4, #4]
 881              		.loc 1 1244 0
 882 0046 4FF6FF75 		movw	r5, #65535
 883              		.loc 1 1243 0
 884 004a B31A     		subs	r3, r6, r2
 885              	.LVL100:
 886              		.loc 1 1244 0
 887 004c AB42     		cmp	r3, r5
 888              		.loc 1 1253 0
 889 004e B0F86610 		ldrh	r1, [r0, #102]
 890              		.loc 1 1251 0
 891 0052 94BF     		ite	ls
 892 0054 9DB2     		uxthls	r5, r3
 893              		.loc 1 1249 0
 894 0056 47F00207 		orrhi	r7, r7, #2
 895              	.LVL101:
 896              		.loc 1 1254 0
 897 005a 8D42     		cmp	r5, r1
 898 005c 34D9     		bls	.L159
 899              	.LVL102:
 900              		.loc 1 1257 0
 901 005e B8F1000F 		cmp	r8, #0
 902 0062 2ED0     		beq	.L160
 903              		.loc 1 1258 0
 904 0064 0D46     		mov	r5, r1
ARM GAS  C:\Users\jenny\AppData\Local\Temp\ccWqzXsD.s 			page 17


 905 0066 0029     		cmp	r1, #0
 906 0068 2ED1     		bne	.L159
 907 006a 8946     		mov	r9, r1
 908              		.loc 1 1259 0
 909 006c F927     		movs	r7, #249
 910              	.LVL103:
 911              	.L161:
 912              		.loc 1 1274 0 discriminator 1
 913 006e B145     		cmp	r9, r6
 914 0070 4ED2     		bcs	.L165
 915              		.loc 1 1277 0
 916 0072 A36A     		ldr	r3, [r4, #40]
 917 0074 1BB1     		cbz	r3, .L166
 918              		.loc 1 1277 0 is_stmt 0 discriminator 1
 919 0076 2046     		mov	r0, r4
 920 0078 0321     		movs	r1, #3
 921 007a 2A46     		mov	r2, r5
 922 007c 9847     		blx	r3
 923              	.LVL104:
 924              	.L166:
 925              		.loc 1 1278 0 is_stmt 1
 926 007e 217F     		ldrb	r1, [r4, #28]	@ zero_extendqisi2
 927 0080 41F01002 		orr	r2, r1, #16
 928 0084 2277     		strb	r2, [r4, #28]
 929              	.L167:
 930              	.LVL105:
 931              		.loc 1 1287 0
 932 0086 002F     		cmp	r7, #0
 933 0088 50D1     		bne	.L169
 934              		.loc 1 1288 0
 935 008a 226A     		ldr	r2, [r4, #32]
 936              		.loc 1 1289 0
 937 008c 606A     		ldr	r0, [r4, #36]
 938              		.loc 1 1288 0
 939 008e AD18     		adds	r5, r5, r2
 940              	.LVL106:
 941 0090 2562     		str	r5, [r4, #32]
 942              		.loc 1 1289 0
 943 0092 C368     		ldr	r3, [r0, #12]
 944 0094 9D42     		cmp	r5, r3
 945 0096 02D0     		beq	.L170
 946              		.loc 1 1289 0 is_stmt 0 discriminator 1
 947 0098 B8F1000F 		cmp	r8, #0
 948 009c 4CD0     		beq	.L171
 949              	.L170:
 950              		.loc 1 1291 0 is_stmt 1
 951 009e C560     		str	r5, [r0, #12]
 952              	.LVL107:
 953              		.loc 1 1294 0
 954 00a0 0021     		movs	r1, #0
 955 00a2 2162     		str	r1, [r4, #32]
 956              		.loc 1 1296 0
 957 00a4 6068     		ldr	r0, [r4, #4]
 958 00a6 FFF7FEFF 		bl	tcp_output
 959              	.LVL108:
 960              	.L172:
 961              		.loc 1 1318 0
ARM GAS  C:\Users\jenny\AppData\Local\Temp\ccWqzXsD.s 			page 18


 962 00aa 626A     		ldr	r2, [r4, #36]
 963              		.loc 1 1319 0
 964 00ac 0023     		movs	r3, #0
 965              		.loc 1 1318 0
 966 00ae 1771     		strb	r7, [r2, #4]
 967              		.loc 1 1325 0
 968 00b0 04F10C00 		add	r0, r4, #12
 969              		.loc 1 1319 0
 970 00b4 6362     		str	r3, [r4, #36]
 971              		.loc 1 1320 0
 972 00b6 6370     		strb	r3, [r4, #1]
 973              		.loc 1 1325 0
 974 00b8 FFF7FEFF 		bl	sys_sem_signal
 975              	.LVL109:
 976              		.loc 1 1333 0
 977 00bc 0020     		movs	r0, #0
 978 00be BDE8F087 		pop	{r4, r5, r6, r7, r8, r9, sl, pc}
 979              	.LVL110:
 980              	.L160:
 981              		.loc 1 1266 0
 982 00c2 47F00207 		orr	r7, r7, #2
 983              	.LVL111:
 984 00c6 0D46     		mov	r5, r1
 985              	.LVL112:
 986              	.L159:
 987              		.loc 1 1269 0
 988 00c8 AA18     		adds	r2, r5, r2
 989 00ca B242     		cmp	r2, r6
 990 00cc A946     		mov	r9, r5
 991 00ce 18D8     		bhi	.L191
 992              	.LVL113:
 993              	.L162:
 994              		.loc 1 1270 0
 995 00d0 3B46     		mov	r3, r7
 996 00d2 5146     		mov	r1, sl
 997 00d4 2A46     		mov	r2, r5
 998 00d6 FFF7FEFF 		bl	tcp_write
 999              	.LVL114:
 1000 00da 0746     		mov	r7, r0
 1001              	.LVL115:
 1002              		.loc 1 1272 0
 1003 00dc 0130     		adds	r0, r0, #1
 1004              	.LVL116:
 1005 00de C3B2     		uxtb	r3, r0
 1006 00e0 012B     		cmp	r3, #1
 1007 00e2 12D9     		bls	.L192
 1008              	.LVL117:
 1009              	.L163:
 1010              		.loc 1 1312 0
 1011 00e4 636A     		ldr	r3, [r4, #36]
 1012 00e6 0021     		movs	r1, #0
 1013 00e8 D960     		str	r1, [r3, #12]
 1014 00ea DEE7     		b	.L172
 1015              	.LVL118:
 1016              	.L152:
 1017              		.loc 1 1216 0 discriminator 2
 1018 00ec 626A     		ldr	r2, [r4, #36]
ARM GAS  C:\Users\jenny\AppData\Local\Temp\ccWqzXsD.s 			page 19


 1019 00ee 177C     		ldrb	r7, [r2, #16]	@ zero_extendqisi2
 1020 00f0 C7F38008 		ubfx	r8, r7, #2, #1
 1021 00f4 91E7     		b	.L153
 1022              	.LVL119:
 1023              	.L190:
 1024              		.loc 1 1223 0 discriminator 1
 1025 00f6 FFF7FEFF 		bl	port_halt
 1026              	.LVL120:
 1027 00fa 616A     		ldr	r1, [r4, #36]
 1028 00fc 226A     		ldr	r2, [r4, #32]
 1029 00fe CE68     		ldr	r6, [r1, #12]
 1030 0100 9DE7     		b	.L156
 1031              	.LVL121:
 1032              	.L191:
 1033              		.loc 1 1269 0 discriminator 1
 1034 0102 FFF7FEFF 		bl	port_halt
 1035              	.LVL122:
 1036 0106 6068     		ldr	r0, [r4, #4]
 1037 0108 E2E7     		b	.L162
 1038              	.LVL123:
 1039              	.L192:
 1040              	.L164:
 1041              		.loc 1 1274 0
 1042 010a B8F1000F 		cmp	r8, #0
 1043 010e 21D1     		bne	.L193
 1044              	.LVL124:
 1045              	.L165:
 1046              		.loc 1 1279 0
 1047 0110 6168     		ldr	r1, [r4, #4]
 1048 0112 B1F86620 		ldrh	r2, [r1, #102]
 1049 0116 B2F5866F 		cmp	r2, #1072
 1050 011a 13D2     		bcs	.L194
 1051              	.L168:
 1052              		.loc 1 1283 0
 1053 011c A36A     		ldr	r3, [r4, #40]
 1054 011e 002B     		cmp	r3, #0
 1055 0120 B1D0     		beq	.L167
 1056              		.loc 1 1283 0 is_stmt 0 discriminator 1
 1057 0122 2046     		mov	r0, r4
 1058 0124 0321     		movs	r1, #3
 1059 0126 2A46     		mov	r2, r5
 1060 0128 9847     		blx	r3
 1061              	.LVL125:
 1062 012a ACE7     		b	.L167
 1063              	.LVL126:
 1064              	.L169:
 1065              		.loc 1 1297 0 is_stmt 1
 1066 012c 78B2     		sxtb	r0, r7
 1067 012e 431C     		adds	r3, r0, #1
 1068 0130 D8D1     		bne	.L163
 1069              		.loc 1 1297 0 is_stmt 0 discriminator 1
 1070 0132 B8F1000F 		cmp	r8, #0
 1071 0136 D5D1     		bne	.L163
 1072              	.LVL127:
 1073              	.L171:
 1074              		.loc 1 1296 0 is_stmt 1
 1075 0138 6068     		ldr	r0, [r4, #4]
ARM GAS  C:\Users\jenny\AppData\Local\Temp\ccWqzXsD.s 			page 20


 1076 013a FFF7FEFF 		bl	tcp_output
 1077              	.LVL128:
 1078              		.loc 1 1333 0
 1079 013e 0020     		movs	r0, #0
 1080 0140 BDE8F087 		pop	{r4, r5, r6, r7, r8, r9, sl, pc}
 1081              	.LVL129:
 1082              	.L194:
 1083              		.loc 1 1279 0 discriminator 1
 1084 0144 B1F86800 		ldrh	r0, [r1, #104]
 1085 0148 0428     		cmp	r0, #4
 1086 014a 9CD9     		bls	.L167
 1087 014c E6E7     		b	.L168
 1088              	.LVL130:
 1089              	.L188:
 1090              		.loc 1 1221 0 discriminator 1
 1091 014e FFF7FEFF 		bl	port_halt
 1092              	.LVL131:
 1093 0152 6BE7     		b	.L154
 1094              	.LVL132:
 1095              	.L193:
 1096 0154 666A     		ldr	r6, [r4, #36]
 1097 0156 F668     		ldr	r6, [r6, #12]
 1098 0158 89E7     		b	.L161
 1099              	.LVL133:
 1100              	.L189:
 1101              		.loc 1 1222 0 discriminator 1
 1102 015a FFF7FEFF 		bl	port_halt
 1103              	.LVL134:
 1104 015e 69E7     		b	.L155
 1105              		.cfi_endproc
 1106              	.LFE29:
 1107              		.size	do_writemore, .-do_writemore
 1108              		.section	.text.poll_tcp,"ax",%progbits
 1109              		.align	2
 1110              		.p2align 4,,15
 1111              		.thumb
 1112              		.thumb_func
 1113              		.type	poll_tcp, %function
 1114              	poll_tcp:
 1115              	.LFB10:
 1116              		.loc 1 278 0
 1117              		.cfi_startproc
 1118              		@ args = 0, pretend = 0, frame = 0
 1119              		@ frame_needed = 0, uses_anonymous_args = 0
 1120              	.LVL135:
 1121 0000 38B5     		push	{r3, r4, r5, lr}
 1122              	.LCFI6:
 1123              		.cfi_def_cfa_offset 16
 1124              		.cfi_offset 3, -16
 1125              		.cfi_offset 4, -12
 1126              		.cfi_offset 5, -8
 1127              		.cfi_offset 14, -4
 1128              		.loc 1 282 0
 1129 0002 0446     		mov	r4, r0
 1130 0004 38B3     		cbz	r0, .L208
 1131              	.LVL136:
 1132              	.L196:
ARM GAS  C:\Users\jenny\AppData\Local\Temp\ccWqzXsD.s 			page 21


 1133              		.loc 1 284 0
 1134 0006 6378     		ldrb	r3, [r4, #1]	@ zero_extendqisi2
 1135 0008 012B     		cmp	r3, #1
 1136 000a 1CD0     		beq	.L209
 1137              		.loc 1 286 0
 1138 000c 042B     		cmp	r3, #4
 1139 000e 1ED0     		beq	.L210
 1140              	.L198:
 1141              		.loc 1 292 0
 1142 0010 207F     		ldrb	r0, [r4, #28]	@ zero_extendqisi2
 1143 0012 00F01002 		and	r2, r0, #16
 1144 0016 D1B2     		uxtb	r1, r2
 1145 0018 99B1     		cbz	r1, .L200
 1146              		.loc 1 295 0
 1147 001a 6368     		ldr	r3, [r4, #4]
 1148 001c 8BB1     		cbz	r3, .L200
 1149              		.loc 1 295 0 is_stmt 0 discriminator 1
 1150 001e B3F86620 		ldrh	r2, [r3, #102]
 1151 0022 B2F5866F 		cmp	r2, #1072
 1152 0026 0CD3     		bcc	.L200
 1153 0028 B3F86810 		ldrh	r1, [r3, #104]
 1154 002c 0429     		cmp	r1, #4
 1155 002e 08D8     		bhi	.L200
 1156              		.loc 1 298 0 is_stmt 1
 1157 0030 A56A     		ldr	r5, [r4, #40]
 1158              		.loc 1 297 0
 1159 0032 20F01000 		bic	r0, r0, #16
 1160 0036 2077     		strb	r0, [r4, #28]
 1161              		.loc 1 298 0
 1162 0038 1DB1     		cbz	r5, .L200
 1163              		.loc 1 298 0 is_stmt 0 discriminator 1
 1164 003a 2046     		mov	r0, r4
 1165 003c 0221     		movs	r1, #2
 1166 003e 0022     		movs	r2, #0
 1167 0040 A847     		blx	r5
 1168              	.LVL137:
 1169              	.L200:
 1170              		.loc 1 303 0 is_stmt 1
 1171 0042 0020     		movs	r0, #0
 1172 0044 38BD     		pop	{r3, r4, r5, pc}
 1173              	.L209:
 1174              		.loc 1 285 0
 1175 0046 2046     		mov	r0, r4
 1176 0048 FFF7FEFF 		bl	do_writemore
 1177              	.LVL138:
 1178 004c E0E7     		b	.L198
 1179              	.L210:
 1180              		.loc 1 287 0
 1181 004e 2046     		mov	r0, r4
 1182 0050 FFF7FEFF 		bl	do_close_internal
 1183              	.LVL139:
 1184 0054 DCE7     		b	.L198
 1185              	.LVL140:
 1186              	.L208:
 1187              		.loc 1 282 0 discriminator 1
 1188 0056 FFF7FEFF 		bl	port_halt
 1189              	.LVL141:
ARM GAS  C:\Users\jenny\AppData\Local\Temp\ccWqzXsD.s 			page 22


 1190 005a D4E7     		b	.L196
 1191              		.cfi_endproc
 1192              	.LFE10:
 1193              		.size	poll_tcp, .-poll_tcp
 1194 005c AFF30080 		.section	.text.recv_udp,"ax",%progbits
 1195              		.align	2
 1196              		.p2align 4,,15
 1197              		.thumb
 1198              		.thumb_func
 1199              		.type	recv_udp, %function
 1200              	recv_udp:
 1201              	.LFB8:
 1202              		.loc 1 146 0
 1203              		.cfi_startproc
 1204              		@ args = 4, pretend = 0, frame = 8
 1205              		@ frame_needed = 0, uses_anonymous_args = 0
 1206              	.LVL142:
 1207 0000 2DE9F043 		push	{r4, r5, r6, r7, r8, r9, lr}
 1208              	.LCFI7:
 1209              		.cfi_def_cfa_offset 28
 1210              		.cfi_offset 4, -28
 1211              		.cfi_offset 5, -24
 1212              		.cfi_offset 6, -20
 1213              		.cfi_offset 7, -16
 1214              		.cfi_offset 8, -12
 1215              		.cfi_offset 9, -8
 1216              		.cfi_offset 14, -4
 1217 0004 83B0     		sub	sp, sp, #12
 1218              	.LCFI8:
 1219              		.cfi_def_cfa_offset 40
 1220              		.loc 1 146 0
 1221 0006 0446     		mov	r4, r0
 1222 0008 1546     		mov	r5, r2
 1223 000a 9846     		mov	r8, r3
 1224 000c BDF82890 		ldrh	r9, [sp, #40]
 1225              		.loc 1 155 0
 1226 0010 0029     		cmp	r1, #0
 1227 0012 31D0     		beq	.L225
 1228              	.LVL143:
 1229              	.L212:
 1230              		.loc 1 156 0
 1231 0014 002C     		cmp	r4, #0
 1232 0016 3AD0     		beq	.L226
 1233              	.L213:
 1234              	.LVL144:
 1235              		.loc 1 158 0
 1236 0018 6268     		ldr	r2, [r4, #4]
 1237 001a 8A42     		cmp	r2, r1
 1238 001c 01D0     		beq	.L214
 1239              		.loc 1 158 0 is_stmt 0 discriminator 1
 1240 001e FFF7FEFF 		bl	port_halt
 1241              	.LVL145:
 1242              	.L214:
 1243              		.loc 1 165 0 is_stmt 1
 1244 0022 04F11007 		add	r7, r4, #16
 1245 0026 3846     		mov	r0, r7
 1246 0028 FFF7FEFF 		bl	sys_mbox_valid
ARM GAS  C:\Users\jenny\AppData\Local\Temp\ccWqzXsD.s 			page 23


 1247              	.LVL146:
 1248 002c 28B9     		cbnz	r0, .L215
 1249              	.L224:
 1250              		.loc 1 173 0
 1251 002e 2846     		mov	r0, r5
 1252              		.loc 1 205 0
 1253 0030 03B0     		add	sp, sp, #12
 1254 0032 BDE8F043 		pop	{r4, r5, r6, r7, r8, r9, lr}
 1255              		.loc 1 173 0
 1256 0036 FFF7FEBF 		b	pbuf_free
 1257              	.LVL147:
 1258              	.L215:
 1259              		.loc 1 171 0
 1260 003a 0720     		movs	r0, #7
 1261 003c FFF7FEFF 		bl	memp_malloc
 1262              	.LVL148:
 1263              		.loc 1 172 0
 1264 0040 0646     		mov	r6, r0
 1265 0042 0028     		cmp	r0, #0
 1266 0044 F3D0     		beq	.L224
 1267              		.loc 1 176 0
 1268 0046 0560     		str	r5, [r0, #0]
 1269              		.loc 1 177 0
 1270 0048 4560     		str	r5, [r0, #4]
 1271              		.loc 1 178 0
 1272 004a B8F1000F 		cmp	r8, #0
 1273 004e 23D0     		beq	.L220
 1274              		.loc 1 178 0 is_stmt 0 discriminator 1
 1275 0050 D8F80030 		ldr	r3, [r8, #0]
 1276              	.L217:
 1277              		.loc 1 195 0 is_stmt 1 discriminator 3
 1278 0054 3146     		mov	r1, r6
 1279              		.loc 1 178 0 discriminator 3
 1280 0056 B360     		str	r3, [r6, #8]
 1281              		.loc 1 179 0 discriminator 3
 1282 0058 A6F80C90 		strh	r9, [r6, #12]	@ movhi
 1283              		.loc 1 195 0 discriminator 3
 1284 005c 3846     		mov	r0, r7
 1285              	.LVL149:
 1286              		.loc 1 194 0 discriminator 3
 1287 005e 2D89     		ldrh	r5, [r5, #8]
 1288              	.LVL150:
 1289              		.loc 1 195 0 discriminator 3
 1290 0060 FFF7FEFF 		bl	sys_mbox_trypost
 1291              	.LVL151:
 1292 0064 0146     		mov	r1, r0
 1293 0066 60B9     		cbnz	r0, .L227
 1294              		.loc 1 203 0
 1295 0068 A36A     		ldr	r3, [r4, #40]
 1296 006a 13B1     		cbz	r3, .L211
 1297              		.loc 1 203 0 is_stmt 0 discriminator 1
 1298 006c 2046     		mov	r0, r4
 1299 006e 2A46     		mov	r2, r5
 1300 0070 9847     		blx	r3
 1301              	.LVL152:
 1302              	.L211:
 1303              		.loc 1 205 0 is_stmt 1
ARM GAS  C:\Users\jenny\AppData\Local\Temp\ccWqzXsD.s 			page 24


 1304 0072 03B0     		add	sp, sp, #12
 1305 0074 BDE8F083 		pop	{r4, r5, r6, r7, r8, r9, pc}
 1306              	.LVL153:
 1307              	.L225:
 1308              		.loc 1 155 0 discriminator 1
 1309 0078 0191     		str	r1, [sp, #4]
 1310 007a FFF7FEFF 		bl	port_halt
 1311              	.LVL154:
 1312 007e 0199     		ldr	r1, [sp, #4]
 1313 0080 C8E7     		b	.L212
 1314              	.LVL155:
 1315              	.L227:
 1316              		.loc 1 196 0
 1317 0082 3046     		mov	r0, r6
 1318              		.loc 1 205 0
 1319 0084 03B0     		add	sp, sp, #12
 1320 0086 BDE8F043 		pop	{r4, r5, r6, r7, r8, r9, lr}
 1321              		.loc 1 196 0
 1322 008a FFF7FEBF 		b	netbuf_delete
 1323              	.LVL156:
 1324              	.L226:
 1325              		.loc 1 156 0 discriminator 1
 1326 008e 0191     		str	r1, [sp, #4]
 1327 0090 FFF7FEFF 		bl	port_halt
 1328              	.LVL157:
 1329 0094 0199     		ldr	r1, [sp, #4]
 1330 0096 BFE7     		b	.L213
 1331              	.LVL158:
 1332              	.L220:
 1333              		.loc 1 178 0
 1334 0098 4346     		mov	r3, r8
 1335 009a DBE7     		b	.L217
 1336              		.cfi_endproc
 1337              	.LFE8:
 1338              		.size	recv_udp, .-recv_udp
 1339 009c AFF30080 		.section	.text.recv_raw,"ax",%progbits
 1340              		.align	2
 1341              		.p2align 4,,15
 1342              		.thumb
 1343              		.thumb_func
 1344              		.type	recv_raw, %function
 1345              	recv_raw:
 1346              	.LFB7:
 1347              		.loc 1 80 0
 1348              		.cfi_startproc
 1349              		@ args = 0, pretend = 0, frame = 0
 1350              		@ frame_needed = 0, uses_anonymous_args = 0
 1351              	.LVL159:
 1352 0000 2DE9F041 		push	{r4, r5, r6, r7, r8, lr}
 1353              	.LCFI9:
 1354              		.cfi_def_cfa_offset 24
 1355              		.cfi_offset 4, -24
 1356              		.cfi_offset 5, -20
 1357              		.cfi_offset 6, -16
 1358              		.cfi_offset 7, -12
 1359              		.cfi_offset 8, -8
 1360              		.cfi_offset 14, -4
ARM GAS  C:\Users\jenny\AppData\Local\Temp\ccWqzXsD.s 			page 25


 1361              		.loc 1 88 0
 1362 0004 0446     		mov	r4, r0
 1363              		.loc 1 80 0
 1364 0006 0F46     		mov	r7, r1
 1365 0008 1646     		mov	r6, r2
 1366              		.loc 1 88 0
 1367 000a 28B1     		cbz	r0, .L243
 1368              		.loc 1 88 0 is_stmt 0 discriminator 1
 1369 000c 00F11005 		add	r5, r0, #16
 1370 0010 2846     		mov	r0, r5
 1371              	.LVL160:
 1372 0012 FFF7FEFF 		bl	sys_mbox_valid
 1373              	.LVL161:
 1374 0016 10B9     		cbnz	r0, .L248
 1375              	.LVL162:
 1376              	.L243:
 1377              		.loc 1 133 0 is_stmt 1
 1378 0018 0020     		movs	r0, #0
 1379 001a BDE8F081 		pop	{r4, r5, r6, r7, r8, pc}
 1380              	.LVL163:
 1381              	.L248:
 1382              		.loc 1 97 0
 1383 001e 0320     		movs	r0, #3
 1384 0020 3189     		ldrh	r1, [r6, #8]
 1385 0022 0022     		movs	r2, #0
 1386 0024 FFF7FEFF 		bl	pbuf_alloc
 1387              	.LVL164:
 1388              		.loc 1 98 0
 1389 0028 8046     		mov	r8, r0
 1390 002a 0028     		cmp	r0, #0
 1391 002c F4D0     		beq	.L243
 1392              		.loc 1 99 0
 1393 002e 3146     		mov	r1, r6
 1394 0030 FFF7FEFF 		bl	pbuf_copy
 1395              	.LVL165:
 1396 0034 F0B9     		cbnz	r0, .L235
 1397              	.LBB5:
 1398              		.loc 1 107 0
 1399 0036 0720     		movs	r0, #7
 1400 0038 FFF7FEFF 		bl	memp_malloc
 1401              	.LVL166:
 1402              		.loc 1 108 0
 1403 003c 0646     		mov	r6, r0
 1404              	.LVL167:
 1405 003e C8B1     		cbz	r0, .L235
 1406              		.loc 1 115 0
 1407 0040 104B     		ldr	r3, .L250
 1408              		.loc 1 113 0
 1409 0042 C6F80080 		str	r8, [r6, #0]
 1410              		.loc 1 115 0
 1411 0046 1868     		ldr	r0, [r3, #0]
 1412              	.LVL168:
 1413              		.loc 1 114 0
 1414 0048 C6F80480 		str	r8, [r6, #4]
 1415              		.loc 1 115 0
 1416 004c B060     		str	r0, [r6, #8]
 1417              		.loc 1 116 0
ARM GAS  C:\Users\jenny\AppData\Local\Temp\ccWqzXsD.s 			page 26


 1418 004e 397C     		ldrb	r1, [r7, #16]	@ zero_extendqisi2
 1419              		.loc 1 118 0
 1420 0050 B8F80870 		ldrh	r7, [r8, #8]
 1421              	.LVL169:
 1422              		.loc 1 116 0
 1423 0054 B181     		strh	r1, [r6, #12]	@ movhi
 1424              		.loc 1 119 0
 1425 0056 2846     		mov	r0, r5
 1426 0058 3146     		mov	r1, r6
 1427 005a FFF7FEFF 		bl	sys_mbox_trypost
 1428              	.LVL170:
 1429 005e 0146     		mov	r1, r0
 1430 0060 60B9     		cbnz	r0, .L249
 1431              		.loc 1 127 0
 1432 0062 A36A     		ldr	r3, [r4, #40]
 1433 0064 002B     		cmp	r3, #0
 1434 0066 D7D0     		beq	.L243
 1435              		.loc 1 127 0 is_stmt 0 discriminator 1
 1436 0068 2046     		mov	r0, r4
 1437 006a 3A46     		mov	r2, r7
 1438 006c 9847     		blx	r3
 1439              	.LVL171:
 1440              	.LBE5:
 1441              		.loc 1 133 0 is_stmt 1 discriminator 1
 1442 006e 0020     		movs	r0, #0
 1443 0070 BDE8F081 		pop	{r4, r5, r6, r7, r8, pc}
 1444              	.LVL172:
 1445              	.L235:
 1446              	.LBB6:
 1447              		.loc 1 109 0
 1448 0074 4046     		mov	r0, r8
 1449 0076 FFF7FEFF 		bl	pbuf_free
 1450              	.LVL173:
 1451              		.loc 1 110 0
 1452 007a CDE7     		b	.L243
 1453              	.LVL174:
 1454              	.L249:
 1455              		.loc 1 120 0
 1456 007c 3046     		mov	r0, r6
 1457 007e FFF7FEFF 		bl	netbuf_delete
 1458              	.LVL175:
 1459              		.loc 1 121 0
 1460 0082 C9E7     		b	.L243
 1461              	.L251:
 1462              		.align	2
 1463              	.L250:
 1464 0084 00000000 		.word	current_iphdr_src
 1465              	.LBE6:
 1466              		.cfi_endproc
 1467              	.LFE7:
 1468              		.size	recv_raw, .-recv_raw
 1469 0088 AFF30080 		.section	.text.sent_tcp,"ax",%progbits
 1469      AFF30080 
 1470              		.align	2
 1471              		.p2align 4,,15
 1472              		.thumb
 1473              		.thumb_func
ARM GAS  C:\Users\jenny\AppData\Local\Temp\ccWqzXsD.s 			page 27


 1474              		.type	sent_tcp, %function
 1475              	sent_tcp:
 1476              	.LFB11:
 1477              		.loc 1 314 0
 1478              		.cfi_startproc
 1479              		@ args = 0, pretend = 0, frame = 0
 1480              		@ frame_needed = 0, uses_anonymous_args = 0
 1481              	.LVL176:
 1482 0000 38B5     		push	{r3, r4, r5, lr}
 1483              	.LCFI10:
 1484              		.cfi_def_cfa_offset 16
 1485              		.cfi_offset 3, -16
 1486              		.cfi_offset 4, -12
 1487              		.cfi_offset 5, -8
 1488              		.cfi_offset 14, -4
 1489              		.loc 1 318 0
 1490 0002 0446     		mov	r4, r0
 1491              		.loc 1 314 0
 1492 0004 1546     		mov	r5, r2
 1493              		.loc 1 318 0
 1494 0006 18B3     		cbz	r0, .L262
 1495              	.LVL177:
 1496              	.L253:
 1497              		.loc 1 320 0
 1498 0008 6378     		ldrb	r3, [r4, #1]	@ zero_extendqisi2
 1499 000a 012B     		cmp	r3, #1
 1500 000c 18D0     		beq	.L263
 1501              		.loc 1 322 0
 1502 000e 042B     		cmp	r3, #4
 1503 0010 1AD0     		beq	.L264
 1504              	.L255:
 1505              		.loc 1 329 0
 1506 0012 6068     		ldr	r0, [r4, #4]
 1507 0014 90B1     		cbz	r0, .L257
 1508              		.loc 1 329 0 is_stmt 0 discriminator 1
 1509 0016 B0F86610 		ldrh	r1, [r0, #102]
 1510 001a B1F5866F 		cmp	r1, #1072
 1511 001e 0DD3     		bcc	.L257
 1512 0020 B0F86820 		ldrh	r2, [r0, #104]
 1513 0024 042A     		cmp	r2, #4
 1514 0026 09D8     		bhi	.L257
 1515              	.LVL178:
 1516              	.LBB9:
 1517              	.LBB10:
 1518              		.loc 1 331 0 is_stmt 1
 1519 0028 207F     		ldrb	r0, [r4, #28]	@ zero_extendqisi2
 1520              		.loc 1 332 0
 1521 002a A36A     		ldr	r3, [r4, #40]
 1522              		.loc 1 331 0
 1523 002c 20F01001 		bic	r1, r0, #16
 1524 0030 2177     		strb	r1, [r4, #28]
 1525              		.loc 1 332 0
 1526 0032 1BB1     		cbz	r3, .L257
 1527 0034 2046     		mov	r0, r4
 1528 0036 0221     		movs	r1, #2
 1529 0038 2A46     		mov	r2, r5
 1530 003a 9847     		blx	r3
ARM GAS  C:\Users\jenny\AppData\Local\Temp\ccWqzXsD.s 			page 28


 1531              	.LVL179:
 1532              	.L257:
 1533              	.LBE10:
 1534              	.LBE9:
 1535              		.loc 1 337 0
 1536 003c 0020     		movs	r0, #0
 1537 003e 38BD     		pop	{r3, r4, r5, pc}
 1538              	.L263:
 1539              		.loc 1 321 0
 1540 0040 2046     		mov	r0, r4
 1541 0042 FFF7FEFF 		bl	do_writemore
 1542              	.LVL180:
 1543 0046 E4E7     		b	.L255
 1544              	.L264:
 1545              		.loc 1 323 0
 1546 0048 2046     		mov	r0, r4
 1547 004a FFF7FEFF 		bl	do_close_internal
 1548              	.LVL181:
 1549 004e E0E7     		b	.L255
 1550              	.LVL182:
 1551              	.L262:
 1552              		.loc 1 318 0 discriminator 1
 1553 0050 FFF7FEFF 		bl	port_halt
 1554              	.LVL183:
 1555 0054 D8E7     		b	.L253
 1556              		.cfi_endproc
 1557              	.LFE11:
 1558              		.size	sent_tcp, .-sent_tcp
 1559 0056 00BFAFF3 		.section	.text.do_newconn,"ax",%progbits
 1559      0080AFF3 
 1559      0080
 1560              		.align	2
 1561              		.p2align 4,,15
 1562              		.global	do_newconn
 1563              		.thumb
 1564              		.thumb_func
 1565              		.type	do_newconn, %function
 1566              	do_newconn:
 1567              	.LFB16:
 1568              		.loc 1 549 0
 1569              		.cfi_startproc
 1570              		@ args = 0, pretend = 0, frame = 0
 1571              		@ frame_needed = 0, uses_anonymous_args = 0
 1572              	.LVL184:
 1573 0000 38B5     		push	{r3, r4, r5, lr}
 1574              	.LCFI11:
 1575              		.cfi_def_cfa_offset 16
 1576              		.cfi_offset 3, -16
 1577              		.cfi_offset 4, -12
 1578              		.cfi_offset 5, -8
 1579              		.cfi_offset 14, -4
 1580              		.loc 1 551 0
 1581 0002 0468     		ldr	r4, [r0, #0]
 1582              		.loc 1 550 0
 1583 0004 0023     		movs	r3, #0
 1584 0006 0371     		strb	r3, [r0, #4]
 1585              		.loc 1 549 0
ARM GAS  C:\Users\jenny\AppData\Local\Temp\ccWqzXsD.s 			page 29


 1586 0008 0546     		mov	r5, r0
 1587              		.loc 1 551 0
 1588 000a 6068     		ldr	r0, [r4, #4]
 1589              	.LVL185:
 1590 000c 28B1     		cbz	r0, .L277
 1591              	.L266:
 1592              		.loc 1 558 0
 1593 000e 04F10C00 		add	r0, r4, #12
 1594              		.loc 1 559 0
 1595 0012 BDE83840 		pop	{r3, r4, r5, lr}
 1596              		.loc 1 558 0
 1597 0016 FFF7FEBF 		b	sys_sem_signal
 1598              	.LVL186:
 1599              	.L277:
 1600              	.LBB13:
 1601              		.loc 1 495 0
 1602 001a 2178     		ldrb	r1, [r4, #0]	@ zero_extendqisi2
 1603              	.LBB14:
 1604 001c 01F0F002 		and	r2, r1, #240
 1605 0020 202A     		cmp	r2, #32
 1606 0022 1ED0     		beq	.L269
 1607 0024 402A     		cmp	r2, #64
 1608 0026 0FD0     		beq	.L270
 1609 0028 102A     		cmp	r2, #16
 1610 002a 02D0     		beq	.L278
 1611              		.loc 1 536 0
 1612 002c FA23     		movs	r3, #250
 1613 002e 2B71     		strb	r3, [r5, #4]
 1614 0030 EDE7     		b	.L266
 1615              	.L278:
 1616              		.loc 1 526 0
 1617 0032 FFF7FEFF 		bl	tcp_new
 1618              	.LVL187:
 1619 0036 6060     		str	r0, [r4, #4]
 1620              		.loc 1 527 0
 1621 0038 2C68     		ldr	r4, [r5, #0]
 1622 003a 6068     		ldr	r0, [r4, #4]
 1623 003c 20B3     		cbz	r0, .L276
 1624              		.loc 1 531 0
 1625 003e 2046     		mov	r0, r4
 1626 0040 FFF7FEFF 		bl	setup_tcp
 1627              	.LVL188:
 1628 0044 2C68     		ldr	r4, [r5, #0]
 1629 0046 E2E7     		b	.L266
 1630              	.L270:
 1631              		.loc 1 498 0
 1632 0048 287A     		ldrb	r0, [r5, #8]	@ zero_extendqisi2
 1633 004a FFF7FEFF 		bl	raw_new
 1634              	.LVL189:
 1635 004e 6060     		str	r0, [r4, #4]
 1636              		.loc 1 499 0
 1637 0050 2C68     		ldr	r4, [r5, #0]
 1638 0052 6068     		ldr	r0, [r4, #4]
 1639 0054 C0B1     		cbz	r0, .L276
 1640              		.loc 1 503 0
 1641 0056 2246     		mov	r2, r4
 1642 0058 0D49     		ldr	r1, .L279
ARM GAS  C:\Users\jenny\AppData\Local\Temp\ccWqzXsD.s 			page 30


 1643 005a FFF7FEFF 		bl	raw_recv
 1644              	.LVL190:
 1645 005e 2C68     		ldr	r4, [r5, #0]
 1646 0060 D5E7     		b	.L266
 1647              	.L269:
 1648              		.loc 1 508 0
 1649 0062 FFF7FEFF 		bl	udp_new
 1650              	.LVL191:
 1651 0066 6060     		str	r0, [r4, #4]
 1652              		.loc 1 509 0
 1653 0068 2C68     		ldr	r4, [r5, #0]
 1654 006a 6068     		ldr	r0, [r4, #4]
 1655 006c 60B1     		cbz	r0, .L276
 1656              		.loc 1 518 0
 1657 006e 2178     		ldrb	r1, [r4, #0]	@ zero_extendqisi2
 1658 0070 2229     		cmp	r1, #34
 1659 0072 03D1     		bne	.L273
 1660              		.loc 1 519 0
 1661 0074 0124     		movs	r4, #1
 1662 0076 0474     		strb	r4, [r0, #16]
 1663 0078 2C68     		ldr	r4, [r5, #0]
 1664 007a 6068     		ldr	r0, [r4, #4]
 1665              	.L273:
 1666              		.loc 1 521 0
 1667 007c 2246     		mov	r2, r4
 1668 007e 0549     		ldr	r1, .L279+4
 1669 0080 FFF7FEFF 		bl	udp_recv
 1670              	.LVL192:
 1671 0084 2C68     		ldr	r4, [r5, #0]
 1672 0086 C2E7     		b	.L266
 1673              	.L276:
 1674              		.loc 1 528 0
 1675 0088 FF22     		movs	r2, #255
 1676 008a 2A71     		strb	r2, [r5, #4]
 1677 008c BFE7     		b	.L266
 1678              	.L280:
 1679 008e 00BF     		.align	2
 1680              	.L279:
 1681 0090 00000000 		.word	recv_raw
 1682 0094 00000000 		.word	recv_udp
 1683              	.LBE14:
 1684              	.LBE13:
 1685              		.cfi_endproc
 1686              	.LFE16:
 1687              		.size	do_newconn, .-do_newconn
 1688              		.section	.text.netconn_alloc,"ax",%progbits
 1689              		.align	2
 1690              		.p2align 4,,15
 1691              		.global	netconn_alloc
 1692              		.thumb
 1693              		.thumb_func
 1694              		.type	netconn_alloc, %function
 1695              	netconn_alloc:
 1696              	.LFB17:
 1697              		.loc 1 573 0
 1698              		.cfi_startproc
 1699              		@ args = 0, pretend = 0, frame = 0
ARM GAS  C:\Users\jenny\AppData\Local\Temp\ccWqzXsD.s 			page 31


 1700              		@ frame_needed = 0, uses_anonymous_args = 0
 1701              	.LVL193:
 1702 0000 F8B5     		push	{r3, r4, r5, r6, r7, lr}
 1703              	.LCFI12:
 1704              		.cfi_def_cfa_offset 24
 1705              		.cfi_offset 3, -24
 1706              		.cfi_offset 4, -20
 1707              		.cfi_offset 5, -16
 1708              		.cfi_offset 6, -12
 1709              		.cfi_offset 7, -8
 1710              		.cfi_offset 14, -4
 1711              		.loc 1 573 0
 1712 0002 0546     		mov	r5, r0
 1713              		.loc 1 577 0
 1714 0004 0820     		movs	r0, #8
 1715              	.LVL194:
 1716              		.loc 1 573 0
 1717 0006 0E46     		mov	r6, r1
 1718              		.loc 1 577 0
 1719 0008 FFF7FEFF 		bl	memp_malloc
 1720              	.LVL195:
 1721              		.loc 1 578 0
 1722 000c 0446     		mov	r4, r0
 1723 000e 90B1     		cbz	r0, .L282
 1724              		.loc 1 590 0
 1725 0010 05F0F003 		and	r3, r5, #240
 1726              		.loc 1 582 0
 1727 0014 0022     		movs	r2, #0
 1728              		.loc 1 590 0
 1729 0016 202B     		cmp	r3, #32
 1730              		.loc 1 582 0
 1731 0018 0272     		strb	r2, [r0, #8]
 1732              		.loc 1 583 0
 1733 001a 0570     		strb	r5, [r0, #0]
 1734              		.loc 1 584 0
 1735 001c 4260     		str	r2, [r0, #4]
 1736              		.loc 1 590 0
 1737 001e 0CD0     		beq	.L285
 1738 0020 402B     		cmp	r3, #64
 1739 0022 0AD0     		beq	.L285
 1740 0024 102B     		cmp	r3, #16
 1741 0026 26D0     		beq	.L288
 1742              		.loc 1 607 0 discriminator 1
 1743 0028 FFF7FEFF 		bl	port_halt
 1744              	.LVL196:
 1745              	.L286:
 1746              		.loc 1 646 0
 1747 002c 2146     		mov	r1, r4
 1748 002e 0820     		movs	r0, #8
 1749 0030 FFF7FEFF 		bl	memp_free
 1750              	.LVL197:
 1751              		.loc 1 647 0
 1752 0034 0024     		movs	r4, #0
 1753              	.LVL198:
 1754              	.L282:
 1755              		.loc 1 648 0
 1756 0036 2046     		mov	r0, r4
ARM GAS  C:\Users\jenny\AppData\Local\Temp\ccWqzXsD.s 			page 32


 1757 0038 F8BD     		pop	{r3, r4, r5, r6, r7, pc}
 1758              	.LVL199:
 1759              	.L285:
 1760              		.loc 1 593 0
 1761 003a 0425     		movs	r5, #4
 1762              	.L284:
 1763              	.LVL200:
 1764              		.loc 1 612 0
 1765 003c 04F10C07 		add	r7, r4, #12
 1766 0040 3846     		mov	r0, r7
 1767              	.LVL201:
 1768 0042 0021     		movs	r1, #0
 1769 0044 FFF7FEFF 		bl	sys_sem_new
 1770              	.LVL202:
 1771 0048 0028     		cmp	r0, #0
 1772 004a EFD1     		bne	.L286
 1773              		.loc 1 615 0
 1774 004c 2946     		mov	r1, r5
 1775 004e 04F11000 		add	r0, r4, #16
 1776 0052 FFF7FEFF 		bl	sys_mbox_new
 1777              	.LVL203:
 1778 0056 0546     		mov	r5, r0
 1779              	.LVL204:
 1780 0058 78B9     		cbnz	r0, .L298
 1781              		.loc 1 621 0
 1782 005a 04F11400 		add	r0, r4, #20
 1783 005e FFF7FEFF 		bl	sys_mbox_set_invalid
 1784              	.LVL205:
 1785              		.loc 1 626 0
 1786 0062 4FF0FF30 		mov	r0, #-1
 1787 0066 A061     		str	r0, [r4, #24]
 1788              		.loc 1 623 0
 1789 0068 6570     		strb	r5, [r4, #1]
 1790              		.loc 1 628 0
 1791 006a A662     		str	r6, [r4, #40]
 1792              		.loc 1 630 0
 1793 006c 6562     		str	r5, [r4, #36]
 1794              		.loc 1 631 0
 1795 006e 2562     		str	r5, [r4, #32]
 1796              		.loc 1 643 0
 1797 0070 2577     		strb	r5, [r4, #28]
 1798              		.loc 1 648 0
 1799 0072 2046     		mov	r0, r4
 1800 0074 F8BD     		pop	{r3, r4, r5, r6, r7, pc}
 1801              	.LVL206:
 1802              	.L288:
 1803              		.loc 1 603 0
 1804 0076 2825     		movs	r5, #40
 1805 0078 E0E7     		b	.L284
 1806              	.LVL207:
 1807              	.L298:
 1808              		.loc 1 616 0
 1809 007a 3846     		mov	r0, r7
 1810 007c FFF7FEFF 		bl	sys_sem_free
 1811              	.LVL208:
 1812              		.loc 1 617 0
 1813 0080 D4E7     		b	.L286
ARM GAS  C:\Users\jenny\AppData\Local\Temp\ccWqzXsD.s 			page 33


 1814              		.cfi_endproc
 1815              	.LFE17:
 1816              		.size	netconn_alloc, .-netconn_alloc
 1817 0082 00BFAFF3 		.section	.text.netconn_free,"ax",%progbits
 1817      0080AFF3 
 1817      0080AFF3 
 1817      0080
 1818              		.align	2
 1819              		.p2align 4,,15
 1820              		.global	netconn_free
 1821              		.thumb
 1822              		.thumb_func
 1823              		.type	netconn_free, %function
 1824              	netconn_free:
 1825              	.LFB18:
 1826              		.loc 1 658 0
 1827              		.cfi_startproc
 1828              		@ args = 0, pretend = 0, frame = 0
 1829              		@ frame_needed = 0, uses_anonymous_args = 0
 1830              	.LVL209:
 1831 0000 38B5     		push	{r3, r4, r5, lr}
 1832              	.LCFI13:
 1833              		.cfi_def_cfa_offset 16
 1834              		.cfi_offset 3, -16
 1835              		.cfi_offset 4, -12
 1836              		.cfi_offset 5, -8
 1837              		.cfi_offset 14, -4
 1838              		.loc 1 659 0
 1839 0002 4368     		ldr	r3, [r0, #4]
 1840              		.loc 1 658 0
 1841 0004 0446     		mov	r4, r0
 1842              		.loc 1 659 0
 1843 0006 0BB1     		cbz	r3, .L300
 1844              		.loc 1 659 0 is_stmt 0 discriminator 1
 1845 0008 FFF7FEFF 		bl	port_halt
 1846              	.LVL210:
 1847              	.L300:
 1848              		.loc 1 660 0 is_stmt 1
 1849 000c 04F11000 		add	r0, r4, #16
 1850 0010 FFF7FEFF 		bl	sys_mbox_valid
 1851              	.LVL211:
 1852 0014 A0B9     		cbnz	r0, .L312
 1853              	.L301:
 1854              		.loc 1 663 0
 1855 0016 04F11400 		add	r0, r4, #20
 1856 001a FFF7FEFF 		bl	sys_mbox_valid
 1857              	.LVL212:
 1858 001e 08B1     		cbz	r0, .L302
 1859              		.loc 1 663 0 is_stmt 0 discriminator 1
 1860 0020 FFF7FEFF 		bl	port_halt
 1861              	.LVL213:
 1862              	.L302:
 1863              		.loc 1 667 0 is_stmt 1
 1864 0024 04F10C05 		add	r5, r4, #12
 1865 0028 2846     		mov	r0, r5
 1866 002a FFF7FEFF 		bl	sys_sem_free
 1867              	.LVL214:
ARM GAS  C:\Users\jenny\AppData\Local\Temp\ccWqzXsD.s 			page 34


 1868              		.loc 1 668 0
 1869 002e 2846     		mov	r0, r5
 1870 0030 FFF7FEFF 		bl	sys_sem_set_invalid
 1871              	.LVL215:
 1872              		.loc 1 670 0
 1873 0034 0820     		movs	r0, #8
 1874 0036 2146     		mov	r1, r4
 1875              		.loc 1 671 0
 1876 0038 BDE83840 		pop	{r3, r4, r5, lr}
 1877              		.loc 1 670 0
 1878 003c FFF7FEBF 		b	memp_free
 1879              	.LVL216:
 1880              	.L312:
 1881              		.loc 1 660 0 discriminator 1
 1882 0040 FFF7FEFF 		bl	port_halt
 1883              	.LVL217:
 1884 0044 E7E7     		b	.L301
 1885              		.cfi_endproc
 1886              	.LFE18:
 1887              		.size	netconn_free, .-netconn_free
 1888 0046 00BFAFF3 		.section	.text.netconn_drain,"ax",%progbits
 1888      0080AFF3 
 1888      0080
 1889              		.align	2
 1890              		.p2align 4,,15
 1891              		.thumb
 1892              		.thumb_func
 1893              		.type	netconn_drain, %function
 1894              	netconn_drain:
 1895              	.LFB19:
 1896              		.loc 1 683 0
 1897              		.cfi_startproc
 1898              		@ args = 0, pretend = 0, frame = 8
 1899              		@ frame_needed = 0, uses_anonymous_args = 0
 1900              	.LVL218:
 1901 0000 F0B5     		push	{r4, r5, r6, r7, lr}
 1902              	.LCFI14:
 1903              		.cfi_def_cfa_offset 20
 1904              		.cfi_offset 4, -20
 1905              		.cfi_offset 5, -16
 1906              		.cfi_offset 6, -12
 1907              		.cfi_offset 7, -8
 1908              		.cfi_offset 14, -4
 1909              		.loc 1 692 0
 1910 0002 00F11004 		add	r4, r0, #16
 1911              		.loc 1 683 0
 1912 0006 83B0     		sub	sp, sp, #12
 1913              	.LCFI15:
 1914              		.cfi_def_cfa_offset 32
 1915              		.loc 1 683 0
 1916 0008 0546     		mov	r5, r0
 1917              		.loc 1 692 0
 1918 000a 2046     		mov	r0, r4
 1919              	.LVL219:
 1920 000c FFF7FEFF 		bl	sys_mbox_valid
 1921              	.LVL220:
 1922 0010 0028     		cmp	r0, #0
ARM GAS  C:\Users\jenny\AppData\Local\Temp\ccWqzXsD.s 			page 35


 1923 0012 2CD1     		bne	.L344
 1924              	.LVL221:
 1925              	.L315:
 1926              		.loc 1 716 0
 1927 0014 05F11406 		add	r6, r5, #20
 1928 0018 3046     		mov	r0, r6
 1929 001a FFF7FEFF 		bl	sys_mbox_valid
 1930              	.LVL222:
 1931 001e 08B3     		cbz	r0, .L313
 1932              	.LBB15:
 1933              		.loc 1 728 0
 1934 0020 0027     		movs	r7, #0
 1935 0022 13E0     		b	.L320
 1936              	.L324:
 1937              		.loc 1 721 0
 1938 0024 6B68     		ldr	r3, [r5, #4]
 1939              		.loc 1 718 0
 1940 0026 019C     		ldr	r4, [sp, #4]
 1941              	.LVL223:
 1942              		.loc 1 721 0
 1943 0028 23B1     		cbz	r3, .L322
 1944              		.loc 1 722 0
 1945 002a 187E     		ldrb	r0, [r3, #24]	@ zero_extendqisi2
 1946 002c 0128     		cmp	r0, #1
 1947 002e 01D0     		beq	.L322
 1948              		.loc 1 722 0 is_stmt 0 discriminator 1
 1949 0030 FFF7FEFF 		bl	port_halt
 1950              	.LVL224:
 1951              	.L322:
 1952              		.loc 1 725 0 is_stmt 1
 1953 0034 2046     		mov	r0, r4
 1954 0036 FFF7E3FF 		bl	netconn_drain
 1955              	.LVL225:
 1956              		.loc 1 726 0
 1957 003a 6168     		ldr	r1, [r4, #4]
 1958              		.loc 1 727 0
 1959 003c 0846     		mov	r0, r1
 1960              		.loc 1 726 0
 1961 003e 11B1     		cbz	r1, .L323
 1962              		.loc 1 727 0
 1963 0040 FFF7FEFF 		bl	tcp_abort
 1964              	.LVL226:
 1965              		.loc 1 728 0
 1966 0044 6760     		str	r7, [r4, #4]
 1967              	.L323:
 1968              		.loc 1 730 0
 1969 0046 2046     		mov	r0, r4
 1970 0048 FFF7FEFF 		bl	netconn_free
 1971              	.LVL227:
 1972              	.L320:
 1973              	.LBE15:
 1974              		.loc 1 717 0 discriminator 1
 1975 004c 01A9     		add	r1, sp, #4
 1976 004e 3046     		mov	r0, r6
 1977 0050 FFF7FEFF 		bl	sys_arch_mbox_tryfetch
 1978              	.LVL228:
 1979 0054 0130     		adds	r0, r0, #1
ARM GAS  C:\Users\jenny\AppData\Local\Temp\ccWqzXsD.s 			page 36


 1980 0056 E5D1     		bne	.L324
 1981              		.loc 1 732 0
 1982 0058 3046     		mov	r0, r6
 1983 005a FFF7FEFF 		bl	sys_mbox_free
 1984              	.LVL229:
 1985              		.loc 1 733 0
 1986 005e 3046     		mov	r0, r6
 1987 0060 FFF7FEFF 		bl	sys_mbox_set_invalid
 1988              	.LVL230:
 1989              	.L313:
 1990              		.loc 1 736 0
 1991 0064 03B0     		add	sp, sp, #12
 1992 0066 F0BD     		pop	{r4, r5, r6, r7, pc}
 1993              	.L316:
 1994              		.loc 1 707 0
 1995 0068 0198     		ldr	r0, [sp, #4]
 1996 006a FFF7FEFF 		bl	netbuf_delete
 1997              	.LVL231:
 1998              	.L344:
 1999              		.loc 1 693 0 discriminator 1
 2000 006e 01A9     		add	r1, sp, #4
 2001 0070 2046     		mov	r0, r4
 2002 0072 FFF7FEFF 		bl	sys_arch_mbox_tryfetch
 2003              	.LVL232:
 2004 0076 0130     		adds	r0, r0, #1
 2005 0078 0FD0     		beq	.L345
 2006              		.loc 1 695 0
 2007 007a 2A78     		ldrb	r2, [r5, #0]	@ zero_extendqisi2
 2008 007c 102A     		cmp	r2, #16
 2009 007e F3D1     		bne	.L316
 2010              		.loc 1 696 0
 2011 0080 019E     		ldr	r6, [sp, #4]
 2012              	.LVL233:
 2013 0082 002E     		cmp	r6, #0
 2014 0084 F3D0     		beq	.L344
 2015              		.loc 1 699 0
 2016 0086 6B68     		ldr	r3, [r5, #4]
 2017              		.loc 1 700 0
 2018 0088 1846     		mov	r0, r3
 2019              		.loc 1 699 0
 2020 008a 13B1     		cbz	r3, .L318
 2021              		.loc 1 700 0
 2022 008c 3189     		ldrh	r1, [r6, #8]
 2023 008e FFF7FEFF 		bl	tcp_recved
 2024              	.LVL234:
 2025              	.L318:
 2026              		.loc 1 702 0
 2027 0092 3046     		mov	r0, r6
 2028 0094 FFF7FEFF 		bl	pbuf_free
 2029              	.LVL235:
 2030 0098 E9E7     		b	.L344
 2031              	.LVL236:
 2032              	.L345:
 2033              		.loc 1 710 0
 2034 009a 2046     		mov	r0, r4
 2035 009c FFF7FEFF 		bl	sys_mbox_free
 2036              	.LVL237:
ARM GAS  C:\Users\jenny\AppData\Local\Temp\ccWqzXsD.s 			page 37


 2037              		.loc 1 711 0
 2038 00a0 2046     		mov	r0, r4
 2039 00a2 FFF7FEFF 		bl	sys_mbox_set_invalid
 2040              	.LVL238:
 2041 00a6 B5E7     		b	.L315
 2042              		.cfi_endproc
 2043              	.LFE19:
 2044              		.size	netconn_drain, .-netconn_drain
 2045 00a8 AFF30080 		.section	.text.accept_function,"ax",%progbits
 2045      AFF30080 
 2046              		.align	2
 2047              		.p2align 4,,15
 2048              		.thumb
 2049              		.thumb_func
 2050              		.type	accept_function, %function
 2051              	accept_function:
 2052              	.LFB14:
 2053              		.loc 1 433 0
 2054              		.cfi_startproc
 2055              		@ args = 0, pretend = 0, frame = 0
 2056              		@ frame_needed = 0, uses_anonymous_args = 0
 2057              	.LVL239:
 2058 0000 2DE9F041 		push	{r4, r5, r6, r7, r8, lr}
 2059              	.LCFI16:
 2060              		.cfi_def_cfa_offset 24
 2061              		.cfi_offset 4, -24
 2062              		.cfi_offset 5, -20
 2063              		.cfi_offset 6, -16
 2064              		.cfi_offset 7, -12
 2065              		.cfi_offset 8, -8
 2066              		.cfi_offset 14, -4
 2067              		.loc 1 439 0
 2068 0004 00F11405 		add	r5, r0, #20
 2069              		.loc 1 433 0
 2070 0008 0446     		mov	r4, r0
 2071              	.LVL240:
 2072              		.loc 1 439 0
 2073 000a 2846     		mov	r0, r5
 2074              	.LVL241:
 2075              		.loc 1 433 0
 2076 000c 8846     		mov	r8, r1
 2077 000e 1746     		mov	r7, r2
 2078              		.loc 1 439 0
 2079 0010 FFF7FEFF 		bl	sys_mbox_valid
 2080              	.LVL242:
 2081 0014 F0B1     		cbz	r0, .L349
 2082              		.loc 1 446 0
 2083 0016 2078     		ldrb	r0, [r4, #0]	@ zero_extendqisi2
 2084 0018 A16A     		ldr	r1, [r4, #40]
 2085 001a FFF7FEFF 		bl	netconn_alloc
 2086              	.LVL243:
 2087              		.loc 1 447 0
 2088 001e 0646     		mov	r6, r0
 2089 0020 D0B1     		cbz	r0, .L350
 2090              		.loc 1 450 0
 2091 0022 C0F80480 		str	r8, [r0, #4]
 2092              		.loc 1 451 0
ARM GAS  C:\Users\jenny\AppData\Local\Temp\ccWqzXsD.s 			page 38


 2093 0026 FFF7FEFF 		bl	setup_tcp
 2094              	.LVL244:
 2095              		.loc 1 456 0
 2096 002a 2846     		mov	r0, r5
 2097              		.loc 1 454 0
 2098 002c 3772     		strb	r7, [r6, #8]
 2099              		.loc 1 456 0
 2100 002e 3146     		mov	r1, r6
 2101 0030 FFF7FEFF 		bl	sys_mbox_trypost
 2102              	.LVL245:
 2103 0034 0546     		mov	r5, r0
 2104 0036 88B9     		cbnz	r0, .L352
 2105              		.loc 1 475 0
 2106 0038 A36A     		ldr	r3, [r4, #40]
 2107 003a 3BB1     		cbz	r3, .L351
 2108              		.loc 1 475 0 is_stmt 0 discriminator 1
 2109 003c 2046     		mov	r0, r4
 2110 003e 2946     		mov	r1, r5
 2111 0040 2A46     		mov	r2, r5
 2112 0042 9847     		blx	r3
 2113              	.LVL246:
 2114              		.loc 1 478 0 is_stmt 1 discriminator 1
 2115 0044 2846     		mov	r0, r5
 2116              	.LVL247:
 2117              	.L347:
 2118              		.loc 1 479 0
 2119 0046 40B2     		sxtb	r0, r0
 2120 0048 BDE8F081 		pop	{r4, r5, r6, r7, r8, pc}
 2121              	.LVL248:
 2122              	.L351:
 2123              		.loc 1 478 0
 2124 004c 1846     		mov	r0, r3
 2125              		.loc 1 479 0
 2126 004e 40B2     		sxtb	r0, r0
 2127 0050 BDE8F081 		pop	{r4, r5, r6, r7, r8, pc}
 2128              	.LVL249:
 2129              	.L349:
 2130              		.loc 1 441 0
 2131 0054 FA20     		movs	r0, #250
 2132 0056 F6E7     		b	.L347
 2133              	.LVL250:
 2134              	.L350:
 2135              		.loc 1 448 0
 2136 0058 FF20     		movs	r0, #255
 2137              	.LVL251:
 2138 005a F4E7     		b	.L347
 2139              	.L352:
 2140              	.LBB16:
 2141              		.loc 1 460 0
 2142 005c 7468     		ldr	r4, [r6, #4]
 2143              	.LVL252:
 2144              		.loc 1 461 0
 2145 005e 0021     		movs	r1, #0
 2146 0060 2046     		mov	r0, r4
 2147 0062 FFF7FEFF 		bl	tcp_arg
 2148              	.LVL253:
 2149              		.loc 1 462 0
ARM GAS  C:\Users\jenny\AppData\Local\Temp\ccWqzXsD.s 			page 39


 2150 0066 2046     		mov	r0, r4
 2151 0068 0021     		movs	r1, #0
 2152 006a FFF7FEFF 		bl	tcp_recv
 2153              	.LVL254:
 2154              		.loc 1 463 0
 2155 006e 2046     		mov	r0, r4
 2156 0070 0021     		movs	r1, #0
 2157 0072 FFF7FEFF 		bl	tcp_sent
 2158              	.LVL255:
 2159              		.loc 1 464 0
 2160 0076 0422     		movs	r2, #4
 2161 0078 2046     		mov	r0, r4
 2162 007a 0021     		movs	r1, #0
 2163 007c FFF7FEFF 		bl	tcp_poll
 2164              	.LVL256:
 2165              		.loc 1 465 0
 2166 0080 2046     		mov	r0, r4
 2167 0082 0021     		movs	r1, #0
 2168 0084 FFF7FEFF 		bl	tcp_err
 2169              	.LVL257:
 2170              		.loc 1 469 0
 2171 0088 06F11004 		add	r4, r6, #16
 2172              	.LVL258:
 2173              		.loc 1 467 0
 2174 008c 0021     		movs	r1, #0
 2175 008e 7160     		str	r1, [r6, #4]
 2176              		.loc 1 469 0
 2177 0090 2046     		mov	r0, r4
 2178 0092 FFF7FEFF 		bl	sys_mbox_free
 2179              	.LVL259:
 2180              		.loc 1 470 0
 2181 0096 2046     		mov	r0, r4
 2182 0098 FFF7FEFF 		bl	sys_mbox_set_invalid
 2183              	.LVL260:
 2184              		.loc 1 471 0
 2185 009c 3046     		mov	r0, r6
 2186 009e FFF7FEFF 		bl	netconn_free
 2187              	.LVL261:
 2188              		.loc 1 472 0
 2189 00a2 FF20     		movs	r0, #255
 2190 00a4 CFE7     		b	.L347
 2191              	.LBE16:
 2192              		.cfi_endproc
 2193              	.LFE14:
 2194              		.size	accept_function, .-accept_function
 2195 00a6 00BFAFF3 		.section	.text.do_delconn,"ax",%progbits
 2195      0080AFF3 
 2195      0080
 2196              		.align	2
 2197              		.p2align 4,,15
 2198              		.global	do_delconn
 2199              		.thumb
 2200              		.thumb_func
 2201              		.type	do_delconn, %function
 2202              	do_delconn:
 2203              	.LFB21:
 2204              		.loc 1 833 0
ARM GAS  C:\Users\jenny\AppData\Local\Temp\ccWqzXsD.s 			page 40


 2205              		.cfi_startproc
 2206              		@ args = 0, pretend = 0, frame = 0
 2207              		@ frame_needed = 0, uses_anonymous_args = 0
 2208              	.LVL262:
 2209 0000 38B5     		push	{r3, r4, r5, lr}
 2210              	.LCFI17:
 2211              		.cfi_def_cfa_offset 16
 2212              		.cfi_offset 3, -16
 2213              		.cfi_offset 4, -12
 2214              		.cfi_offset 5, -8
 2215              		.cfi_offset 14, -4
 2216              		.loc 1 835 0
 2217 0002 0368     		ldr	r3, [r0, #0]
 2218 0004 5A78     		ldrb	r2, [r3, #1]	@ zero_extendqisi2
 2219              		.loc 1 833 0
 2220 0006 0446     		mov	r4, r0
 2221              		.loc 1 835 0
 2222 0008 D2B1     		cbz	r2, .L354
 2223              		.loc 1 835 0 is_stmt 0 discriminator 1
 2224 000a 022A     		cmp	r2, #2
 2225 000c 18D0     		beq	.L354
 2226              		.loc 1 836 0 is_stmt 1
 2227 000e 032A     		cmp	r2, #3
 2228 0010 0ED0     		beq	.L355
 2229              		.loc 1 839 0
 2230 0012 1A78     		ldrb	r2, [r3, #0]	@ zero_extendqisi2
 2231 0014 102A     		cmp	r2, #16
 2232 0016 02D0     		beq	.L356
 2233              		.loc 1 839 0 is_stmt 0 discriminator 1
 2234 0018 FFF7FEFF 		bl	port_halt
 2235              	.LVL263:
 2236 001c 2368     		ldr	r3, [r4, #0]
 2237              	.L356:
 2238              		.loc 1 840 0 is_stmt 1
 2239 001e FB21     		movs	r1, #251
 2240 0020 2171     		strb	r1, [r4, #4]
 2241              	.L357:
 2242              		.loc 1 885 0
 2243 0022 03F10C00 		add	r0, r3, #12
 2244 0026 FFF7FEFF 		bl	sys_sem_valid
 2245              	.LVL264:
 2246 002a 0028     		cmp	r0, #0
 2247 002c 30D1     		bne	.L387
 2248              	.L353:
 2249 002e 38BD     		pop	{r3, r4, r5, pc}
 2250              	.LVL265:
 2251              	.L355:
 2252              		.loc 1 842 0 discriminator 1
 2253 0030 187F     		ldrb	r0, [r3, #28]	@ zero_extendqisi2
 2254              	.LVL266:
 2255 0032 00F00401 		and	r1, r0, #4
 2256 0036 CAB2     		uxtb	r2, r1
 2257 0038 12B9     		cbnz	r2, .L354
 2258              		.loc 1 842 0 is_stmt 0 discriminator 2
 2259 003a FFF7FEFF 		bl	port_halt
 2260              	.LVL267:
 2261 003e 2368     		ldr	r3, [r4, #0]
ARM GAS  C:\Users\jenny\AppData\Local\Temp\ccWqzXsD.s 			page 41


 2262              	.L354:
 2263              		.loc 1 845 0 is_stmt 1
 2264 0040 1846     		mov	r0, r3
 2265 0042 FFF7FEFF 		bl	netconn_drain
 2266              	.LVL268:
 2267              		.loc 1 847 0
 2268 0046 2368     		ldr	r3, [r4, #0]
 2269 0048 5868     		ldr	r0, [r3, #4]
 2270 004a 58B1     		cbz	r0, .L358
 2271              		.loc 1 849 0
 2272 004c 1978     		ldrb	r1, [r3, #0]	@ zero_extendqisi2
 2273 004e 01F0F002 		and	r2, r1, #240
 2274 0052 202A     		cmp	r2, #32
 2275 0054 22D0     		beq	.L361
 2276 0056 402A     		cmp	r2, #64
 2277 0058 36D0     		beq	.L362
 2278 005a 102A     		cmp	r2, #16
 2279 005c 25D0     		beq	.L388
 2280              	.L359:
 2281              		.loc 1 876 0
 2282 005e 0020     		movs	r0, #0
 2283 0060 5860     		str	r0, [r3, #4]
 2284 0062 2368     		ldr	r3, [r4, #0]
 2285              	.L358:
 2286              		.loc 1 882 0
 2287 0064 9D6A     		ldr	r5, [r3, #40]
 2288 0066 002D     		cmp	r5, #0
 2289 0068 DBD0     		beq	.L357
 2290              		.loc 1 882 0 is_stmt 0 discriminator 1
 2291 006a 0021     		movs	r1, #0
 2292 006c 1846     		mov	r0, r3
 2293 006e 0A46     		mov	r2, r1
 2294 0070 A847     		blx	r5
 2295              	.LVL269:
 2296              		.loc 1 883 0 is_stmt 1 discriminator 1
 2297 0072 2368     		ldr	r3, [r4, #0]
 2298 0074 9D6A     		ldr	r5, [r3, #40]
 2299 0076 002D     		cmp	r5, #0
 2300 0078 D3D0     		beq	.L357
 2301 007a 1846     		mov	r0, r3
 2302 007c 0221     		movs	r1, #2
 2303 007e 0022     		movs	r2, #0
 2304 0080 A847     		blx	r5
 2305              	.LVL270:
 2306 0082 2368     		ldr	r3, [r4, #0]
 2307              		.loc 1 885 0 discriminator 1
 2308 0084 03F10C00 		add	r0, r3, #12
 2309 0088 FFF7FEFF 		bl	sys_sem_valid
 2310              	.LVL271:
 2311 008c 0028     		cmp	r0, #0
 2312 008e CED0     		beq	.L353
 2313              	.L387:
 2314              		.loc 1 886 0
 2315 0090 2068     		ldr	r0, [r4, #0]
 2316 0092 0C30     		adds	r0, r0, #12
 2317              		.loc 1 888 0
 2318 0094 BDE83840 		pop	{r3, r4, r5, lr}
ARM GAS  C:\Users\jenny\AppData\Local\Temp\ccWqzXsD.s 			page 42


 2319              		.loc 1 886 0
 2320 0098 FFF7FEBF 		b	sys_sem_signal
 2321              	.LVL272:
 2322              	.L361:
 2323              		.loc 1 857 0
 2324 009c 0025     		movs	r5, #0
 2325 009e C561     		str	r5, [r0, #28]
 2326              		.loc 1 858 0
 2327 00a0 5868     		ldr	r0, [r3, #4]
 2328 00a2 FFF7FEFF 		bl	udp_remove
 2329              	.LVL273:
 2330 00a6 2368     		ldr	r3, [r4, #0]
 2331              		.loc 1 859 0
 2332 00a8 D9E7     		b	.L359
 2333              	.L388:
 2334              		.loc 1 863 0
 2335 00aa 586A     		ldr	r0, [r3, #36]
 2336 00ac 80B1     		cbz	r0, .L389
 2337              	.L363:
 2338              		.loc 1 863 0 is_stmt 0 discriminator 1
 2339 00ae FFF7FEFF 		bl	port_halt
 2340              	.LVL274:
 2341 00b2 2368     		ldr	r3, [r4, #0]
 2342              	.L364:
 2343              		.loc 1 865 0 is_stmt 1
 2344 00b4 0422     		movs	r2, #4
 2345              		.loc 1 866 0
 2346 00b6 0321     		movs	r1, #3
 2347              		.loc 1 868 0
 2348 00b8 1846     		mov	r0, r3
 2349              		.loc 1 865 0
 2350 00ba 5A70     		strb	r2, [r3, #1]
 2351              		.loc 1 866 0
 2352 00bc 2172     		strb	r1, [r4, #8]
 2353              		.loc 1 867 0
 2354 00be 5C62     		str	r4, [r3, #36]
 2355              		.loc 1 888 0
 2356 00c0 BDE83840 		pop	{r3, r4, r5, lr}
 2357              		.loc 1 868 0
 2358 00c4 FFF7FEBF 		b	do_close_internal
 2359              	.LVL275:
 2360              	.L362:
 2361              		.loc 1 852 0
 2362 00c8 FFF7FEFF 		bl	raw_remove
 2363              	.LVL276:
 2364 00cc 2368     		ldr	r3, [r4, #0]
 2365              		.loc 1 853 0
 2366 00ce C6E7     		b	.L359
 2367              	.L389:
 2368              		.loc 1 863 0 discriminator 2
 2369 00d0 196A     		ldr	r1, [r3, #32]
 2370 00d2 0029     		cmp	r1, #0
 2371 00d4 EBD1     		bne	.L363
 2372 00d6 EDE7     		b	.L364
 2373              		.cfi_endproc
 2374              	.LFE21:
 2375              		.size	do_delconn, .-do_delconn
ARM GAS  C:\Users\jenny\AppData\Local\Temp\ccWqzXsD.s 			page 43


 2376 00d8 AFF30080 		.section	.text.do_bind,"ax",%progbits
 2376      AFF30080 
 2377              		.align	2
 2378              		.p2align 4,,15
 2379              		.global	do_bind
 2380              		.thumb
 2381              		.thumb_func
 2382              		.type	do_bind, %function
 2383              	do_bind:
 2384              	.LFB22:
 2385              		.loc 1 899 0
 2386              		.cfi_startproc
 2387              		@ args = 0, pretend = 0, frame = 0
 2388              		@ frame_needed = 0, uses_anonymous_args = 0
 2389              	.LVL277:
 2390 0000 10B5     		push	{r4, lr}
 2391              	.LCFI18:
 2392              		.cfi_def_cfa_offset 8
 2393              		.cfi_offset 4, -8
 2394              		.cfi_offset 14, -4
 2395              		.loc 1 900 0
 2396 0002 0368     		ldr	r3, [r0, #0]
 2397 0004 1A7A     		ldrb	r2, [r3, #8]	@ zero_extendqisi2
 2398 0006 51B2     		sxtb	r1, r2
 2399 0008 0931     		adds	r1, r1, #9
 2400              		.loc 1 899 0
 2401 000a 0446     		mov	r4, r0
 2402              		.loc 1 900 0
 2403 000c 12DB     		blt	.L399
 2404              		.loc 1 903 0
 2405 000e FA20     		movs	r0, #250
 2406              	.LVL278:
 2407 0010 2071     		strb	r0, [r4, #4]
 2408              		.loc 1 904 0
 2409 0012 5868     		ldr	r0, [r3, #4]
 2410 0014 40B1     		cbz	r0, .L392
 2411              		.loc 1 905 0
 2412 0016 1A78     		ldrb	r2, [r3, #0]	@ zero_extendqisi2
 2413 0018 02F0F001 		and	r1, r2, #240
 2414 001c 2029     		cmp	r1, #32
 2415 001e 0BD0     		beq	.L394
 2416 0020 4029     		cmp	r1, #64
 2417 0022 17D0     		beq	.L395
 2418 0024 1029     		cmp	r1, #16
 2419 0026 0ED0     		beq	.L400
 2420              	.L392:
 2421              		.loc 1 926 0
 2422 0028 03F10C00 		add	r0, r3, #12
 2423              		.loc 1 927 0
 2424 002c BDE81040 		pop	{r4, lr}
 2425              		.loc 1 926 0
 2426 0030 FFF7FEBF 		b	sys_sem_signal
 2427              	.LVL279:
 2428              	.L399:
 2429              		.loc 1 901 0
 2430 0034 0271     		strb	r2, [r0, #4]
 2431 0036 F7E7     		b	.L392
ARM GAS  C:\Users\jenny\AppData\Local\Temp\ccWqzXsD.s 			page 44


 2432              	.LVL280:
 2433              	.L394:
 2434              		.loc 1 913 0
 2435 0038 A168     		ldr	r1, [r4, #8]
 2436 003a A289     		ldrh	r2, [r4, #12]
 2437 003c FFF7FEFF 		bl	udp_bind
 2438              	.LVL281:
 2439 0040 2368     		ldr	r3, [r4, #0]
 2440 0042 2071     		strb	r0, [r4, #4]
 2441              		.loc 1 914 0
 2442 0044 F0E7     		b	.L392
 2443              	.L400:
 2444              		.loc 1 918 0
 2445 0046 A168     		ldr	r1, [r4, #8]
 2446 0048 A289     		ldrh	r2, [r4, #12]
 2447 004a FFF7FEFF 		bl	tcp_bind
 2448              	.LVL282:
 2449 004e 2368     		ldr	r3, [r4, #0]
 2450 0050 2071     		strb	r0, [r4, #4]
 2451              		.loc 1 919 0
 2452 0052 E9E7     		b	.L392
 2453              	.L395:
 2454              		.loc 1 908 0
 2455 0054 A168     		ldr	r1, [r4, #8]
 2456 0056 FFF7FEFF 		bl	raw_bind
 2457              	.LVL283:
 2458 005a 2368     		ldr	r3, [r4, #0]
 2459 005c 2071     		strb	r0, [r4, #4]
 2460              		.loc 1 909 0
 2461 005e E3E7     		b	.L392
 2462              		.cfi_endproc
 2463              	.LFE22:
 2464              		.size	do_bind, .-do_bind
 2465              		.section	.text.do_connect,"ax",%progbits
 2466              		.align	2
 2467              		.p2align 4,,15
 2468              		.global	do_connect
 2469              		.thumb
 2470              		.thumb_func
 2471              		.type	do_connect, %function
 2472              	do_connect:
 2473              	.LFB24:
 2474              		.loc 1 985 0
 2475              		.cfi_startproc
 2476              		@ args = 0, pretend = 0, frame = 0
 2477              		@ frame_needed = 0, uses_anonymous_args = 0
 2478              	.LVL284:
 2479 0000 10B5     		push	{r4, lr}
 2480              	.LCFI19:
 2481              		.cfi_def_cfa_offset 8
 2482              		.cfi_offset 4, -8
 2483              		.cfi_offset 14, -4
 2484              		.loc 1 986 0
 2485 0002 0368     		ldr	r3, [r0, #0]
 2486              		.loc 1 985 0
 2487 0004 0446     		mov	r4, r0
 2488              		.loc 1 986 0
ARM GAS  C:\Users\jenny\AppData\Local\Temp\ccWqzXsD.s 			page 45


 2489 0006 5868     		ldr	r0, [r3, #4]
 2490              	.LVL285:
 2491 0008 0028     		cmp	r0, #0
 2492 000a 41D0     		beq	.L414
 2493              		.loc 1 990 0
 2494 000c 1A78     		ldrb	r2, [r3, #0]	@ zero_extendqisi2
 2495 000e 02F0F001 		and	r1, r2, #240
 2496 0012 2029     		cmp	r1, #32
 2497 0014 19D0     		beq	.L406
 2498 0016 4029     		cmp	r1, #64
 2499 0018 0CD0     		beq	.L407
 2500 001a 1029     		cmp	r1, #16
 2501 001c 10D0     		beq	.L415
 2502              		.loc 1 1027 0 discriminator 1
 2503 001e FFF7FEFF 		bl	port_halt
 2504              	.LVL286:
 2505 0022 FA20     		movs	r0, #250
 2506 0024 2368     		ldr	r3, [r4, #0]
 2507 0026 2071     		strb	r0, [r4, #4]
 2508              	.L403:
 2509              		.loc 1 1031 0
 2510 0028 03F10C00 		add	r0, r3, #12
 2511              		.loc 1 1032 0
 2512 002c BDE81040 		pop	{r4, lr}
 2513              		.loc 1 1031 0
 2514 0030 FFF7FEBF 		b	sys_sem_signal
 2515              	.LVL287:
 2516              	.L407:
 2517              		.loc 1 993 0
 2518 0034 A168     		ldr	r1, [r4, #8]
 2519 0036 FFF7FEFF 		bl	raw_connect
 2520              	.LVL288:
 2521 003a 2368     		ldr	r3, [r4, #0]
 2522 003c 2071     		strb	r0, [r4, #4]
 2523              		.loc 1 994 0
 2524 003e F3E7     		b	.L403
 2525              	.L415:
 2526              		.loc 1 1004 0
 2527 0040 5A78     		ldrb	r2, [r3, #1]	@ zero_extendqisi2
 2528 0042 4AB1     		cbz	r2, .L408
 2529              		.loc 1 1005 0
 2530 0044 F722     		movs	r2, #247
 2531 0046 2271     		strb	r2, [r4, #4]
 2532 0048 EEE7     		b	.L403
 2533              	.L406:
 2534              		.loc 1 998 0
 2535 004a A168     		ldr	r1, [r4, #8]
 2536 004c A289     		ldrh	r2, [r4, #12]
 2537 004e FFF7FEFF 		bl	udp_connect
 2538              	.LVL289:
 2539 0052 2368     		ldr	r3, [r4, #0]
 2540 0054 2071     		strb	r0, [r4, #4]
 2541              		.loc 1 999 0
 2542 0056 E7E7     		b	.L403
 2543              	.L408:
 2544              		.loc 1 1007 0
 2545 0058 1846     		mov	r0, r3
ARM GAS  C:\Users\jenny\AppData\Local\Temp\ccWqzXsD.s 			page 46


 2546 005a FFF7FEFF 		bl	setup_tcp
 2547              	.LVL290:
 2548              		.loc 1 1008 0
 2549 005e 2368     		ldr	r3, [r4, #0]
 2550 0060 A168     		ldr	r1, [r4, #8]
 2551 0062 5868     		ldr	r0, [r3, #4]
 2552 0064 A289     		ldrh	r2, [r4, #12]
 2553 0066 0F4B     		ldr	r3, .L416
 2554 0068 FFF7FEFF 		bl	tcp_connect
 2555              	.LVL291:
 2556              	.LBB17:
 2557              		.loc 1 1011 0
 2558 006c 2368     		ldr	r3, [r4, #0]
 2559              	.LBE17:
 2560              		.loc 1 1008 0
 2561 006e 2071     		strb	r0, [r4, #4]
 2562              		.loc 1 1010 0
 2563 0070 0028     		cmp	r0, #0
 2564 0072 D9D1     		bne	.L403
 2565              	.LBB18:
 2566              		.loc 1 1011 0
 2567 0074 1A7F     		ldrb	r2, [r3, #28]	@ zero_extendqisi2
 2568              	.LVL292:
 2569              		.loc 1 1013 0
 2570 0076 02F00201 		and	r1, r2, #2
 2571              		.loc 1 1012 0
 2572 007a 0320     		movs	r0, #3
 2573              		.loc 1 1013 0
 2574 007c C9B2     		uxtb	r1, r1
 2575              		.loc 1 1012 0
 2576 007e 5870     		strb	r0, [r3, #1]
 2577              		.loc 1 1013 0
 2578 0080 49B1     		cbz	r1, .L410
 2579              		.loc 1 1013 0 is_stmt 0 discriminator 1
 2580 0082 42F00401 		orr	r1, r2, #4
 2581 0086 1977     		strb	r1, [r3, #28]
 2582              		.loc 1 1015 0 is_stmt 1 discriminator 1
 2583 0088 FB20     		movs	r0, #251
 2584 008a 2071     		strb	r0, [r4, #4]
 2585 008c 2368     		ldr	r3, [r4, #0]
 2586 008e CBE7     		b	.L403
 2587              	.LVL293:
 2588              	.L414:
 2589              	.LBE18:
 2590              		.loc 1 988 0
 2591 0090 F421     		movs	r1, #244
 2592 0092 2171     		strb	r1, [r4, #4]
 2593 0094 C8E7     		b	.L403
 2594              	.LVL294:
 2595              	.L410:
 2596              	.LBB19:
 2597              		.loc 1 1013 0 discriminator 2
 2598 0096 22F00402 		bic	r2, r2, #4
 2599              	.LVL295:
 2600 009a 1A77     		strb	r2, [r3, #28]
 2601              		.loc 1 1017 0 discriminator 2
 2602 009c 2368     		ldr	r3, [r4, #0]
ARM GAS  C:\Users\jenny\AppData\Local\Temp\ccWqzXsD.s 			page 47


 2603              	.LVL296:
 2604 009e 5C62     		str	r4, [r3, #36]
 2605              		.loc 1 1020 0 discriminator 2
 2606 00a0 10BD     		pop	{r4, pc}
 2607              	.L417:
 2608 00a2 00BF     		.align	2
 2609              	.L416:
 2610 00a4 00000000 		.word	do_connected
 2611              	.LBE19:
 2612              		.cfi_endproc
 2613              	.LFE24:
 2614              		.size	do_connect, .-do_connect
 2615 00a8 AFF30080 		.section	.text.do_disconnect,"ax",%progbits
 2615      AFF30080 
 2616              		.align	2
 2617              		.p2align 4,,15
 2618              		.global	do_disconnect
 2619              		.thumb
 2620              		.thumb_func
 2621              		.type	do_disconnect, %function
 2622              	do_disconnect:
 2623              	.LFB25:
 2624              		.loc 1 1043 0
 2625              		.cfi_startproc
 2626              		@ args = 0, pretend = 0, frame = 0
 2627              		@ frame_needed = 0, uses_anonymous_args = 0
 2628              	.LVL297:
 2629 0000 10B5     		push	{r4, lr}
 2630              	.LCFI20:
 2631              		.cfi_def_cfa_offset 8
 2632              		.cfi_offset 4, -8
 2633              		.cfi_offset 14, -4
 2634              		.loc 1 1043 0
 2635 0002 0446     		mov	r4, r0
 2636              		.loc 1 1045 0
 2637 0004 0068     		ldr	r0, [r0, #0]
 2638              	.LVL298:
 2639 0006 0278     		ldrb	r2, [r0, #0]	@ zero_extendqisi2
 2640 0008 02F0F001 		and	r1, r2, #240
 2641 000c 2029     		cmp	r1, #32
 2642 000e 06D0     		beq	.L421
 2643              		.loc 1 1051 0
 2644 0010 FA23     		movs	r3, #250
 2645 0012 2371     		strb	r3, [r4, #4]
 2646              	.L420:
 2647              		.loc 1 1053 0
 2648 0014 0C30     		adds	r0, r0, #12
 2649              		.loc 1 1054 0
 2650 0016 BDE81040 		pop	{r4, lr}
 2651              		.loc 1 1053 0
 2652 001a FFF7FEBF 		b	sys_sem_signal
 2653              	.LVL299:
 2654              	.L421:
 2655              		.loc 1 1046 0
 2656 001e 4068     		ldr	r0, [r0, #4]
 2657 0020 FFF7FEFF 		bl	udp_disconnect
 2658              	.LVL300:
ARM GAS  C:\Users\jenny\AppData\Local\Temp\ccWqzXsD.s 			page 48


 2659              		.loc 1 1047 0
 2660 0024 0020     		movs	r0, #0
 2661 0026 2071     		strb	r0, [r4, #4]
 2662 0028 2068     		ldr	r0, [r4, #0]
 2663 002a F3E7     		b	.L420
 2664              		.cfi_endproc
 2665              	.LFE25:
 2666              		.size	do_disconnect, .-do_disconnect
 2667 002c AFF30080 		.section	.text.do_listen,"ax",%progbits
 2668              		.align	2
 2669              		.p2align 4,,15
 2670              		.global	do_listen
 2671              		.thumb
 2672              		.thumb_func
 2673              		.type	do_listen, %function
 2674              	do_listen:
 2675              	.LFB26:
 2676              		.loc 1 1065 0
 2677              		.cfi_startproc
 2678              		@ args = 0, pretend = 0, frame = 0
 2679              		@ frame_needed = 0, uses_anonymous_args = 0
 2680              	.LVL301:
 2681 0000 38B5     		push	{r3, r4, r5, lr}
 2682              	.LCFI21:
 2683              		.cfi_def_cfa_offset 16
 2684              		.cfi_offset 3, -16
 2685              		.cfi_offset 4, -12
 2686              		.cfi_offset 5, -8
 2687              		.cfi_offset 14, -4
 2688              		.loc 1 1066 0
 2689 0002 0368     		ldr	r3, [r0, #0]
 2690              		.loc 1 1065 0
 2691 0004 0446     		mov	r4, r0
 2692              		.loc 1 1066 0
 2693 0006 187A     		ldrb	r0, [r3, #8]	@ zero_extendqisi2
 2694              	.LVL302:
 2695 0008 41B2     		sxtb	r1, r0
 2696 000a 0931     		adds	r1, r1, #9
 2697 000c 07DB     		blt	.L437
 2698              		.loc 1 1069 0
 2699 000e F322     		movs	r2, #243
 2700 0010 2271     		strb	r2, [r4, #4]
 2701              		.loc 1 1070 0
 2702 0012 5868     		ldr	r0, [r3, #4]
 2703 0014 20B1     		cbz	r0, .L424
 2704              		.loc 1 1071 0
 2705 0016 1978     		ldrb	r1, [r3, #0]	@ zero_extendqisi2
 2706 0018 1029     		cmp	r1, #16
 2707 001a 07D0     		beq	.L438
 2708              		.loc 1 1105 0
 2709 001c F220     		movs	r0, #242
 2710              	.L437:
 2711 001e 2071     		strb	r0, [r4, #4]
 2712              	.L424:
 2713              		.loc 1 1109 0
 2714 0020 03F10C00 		add	r0, r3, #12
 2715              		.loc 1 1110 0
ARM GAS  C:\Users\jenny\AppData\Local\Temp\ccWqzXsD.s 			page 49


 2716 0024 BDE83840 		pop	{r3, r4, r5, lr}
 2717              		.loc 1 1109 0
 2718 0028 FFF7FEBF 		b	sys_sem_signal
 2719              	.LVL303:
 2720              	.L438:
 2721              		.loc 1 1072 0
 2722 002c 5A78     		ldrb	r2, [r3, #1]	@ zero_extendqisi2
 2723 002e 002A     		cmp	r2, #0
 2724 0030 F6D1     		bne	.L424
 2725              	.LBB20:
 2726              		.loc 1 1076 0
 2727 0032 FF21     		movs	r1, #255
 2728 0034 FFF7FEFF 		bl	tcp_listen_with_backlog
 2729              	.LVL304:
 2730              		.loc 1 1078 0
 2731 0038 0546     		mov	r5, r0
 2732 003a E0B1     		cbz	r0, .L439
 2733              		.loc 1 1083 0
 2734 003c 2068     		ldr	r0, [r4, #0]
 2735              	.LVL305:
 2736 003e 1030     		adds	r0, r0, #16
 2737 0040 FFF7FEFF 		bl	sys_mbox_valid
 2738              	.LVL306:
 2739 0044 50BB     		cbnz	r0, .L440
 2740              	.L427:
 2741              		.loc 1 1089 0
 2742 0046 2068     		ldr	r0, [r4, #0]
 2743              		.loc 1 1088 0
 2744 0048 0023     		movs	r3, #0
 2745 004a 2371     		strb	r3, [r4, #4]
 2746              		.loc 1 1089 0
 2747 004c 1430     		adds	r0, r0, #20
 2748 004e FFF7FEFF 		bl	sys_mbox_valid
 2749              	.LVL307:
 2750 0052 E0B1     		cbz	r0, .L428
 2751 0054 2079     		ldrb	r0, [r4, #4]	@ zero_extendqisi2
 2752              	.L429:
 2753              		.loc 1 1092 0
 2754 0056 90B9     		cbnz	r0, .L430
 2755              		.loc 1 1093 0
 2756 0058 2368     		ldr	r3, [r4, #0]
 2757              		.loc 1 1094 0
 2758 005a 5D60     		str	r5, [r3, #4]
 2759              		.loc 1 1095 0
 2760 005c 2168     		ldr	r1, [r4, #0]
 2761              		.loc 1 1093 0
 2762 005e 0222     		movs	r2, #2
 2763              		.loc 1 1095 0
 2764 0060 4868     		ldr	r0, [r1, #4]
 2765              		.loc 1 1093 0
 2766 0062 5A70     		strb	r2, [r3, #1]
 2767              		.loc 1 1095 0
 2768 0064 FFF7FEFF 		bl	tcp_arg
 2769              	.LVL308:
 2770              		.loc 1 1096 0
 2771 0068 2068     		ldr	r0, [r4, #0]
 2772 006a 1149     		ldr	r1, .L441
ARM GAS  C:\Users\jenny\AppData\Local\Temp\ccWqzXsD.s 			page 50


 2773 006c 4068     		ldr	r0, [r0, #4]
 2774 006e FFF7FEFF 		bl	tcp_accept
 2775              	.LVL309:
 2776 0072 2368     		ldr	r3, [r4, #0]
 2777 0074 D4E7     		b	.L424
 2778              	.LVL310:
 2779              	.L439:
 2780              		.loc 1 1080 0
 2781 0076 FF21     		movs	r1, #255
 2782 0078 2171     		strb	r1, [r4, #4]
 2783 007a 2368     		ldr	r3, [r4, #0]
 2784 007c D0E7     		b	.L424
 2785              	.LVL311:
 2786              	.L430:
 2787              		.loc 1 1099 0
 2788 007e 2846     		mov	r0, r5
 2789 0080 FFF7FEFF 		bl	tcp_close
 2790              	.LVL312:
 2791              		.loc 1 1100 0
 2792 0084 2168     		ldr	r1, [r4, #0]
 2793 0086 0020     		movs	r0, #0
 2794 0088 4860     		str	r0, [r1, #4]
 2795 008a 2368     		ldr	r3, [r4, #0]
 2796 008c C8E7     		b	.L424
 2797              	.L428:
 2798              		.loc 1 1090 0
 2799 008e 2068     		ldr	r0, [r4, #0]
 2800 0090 0421     		movs	r1, #4
 2801 0092 1430     		adds	r0, r0, #20
 2802 0094 FFF7FEFF 		bl	sys_mbox_new
 2803              	.LVL313:
 2804 0098 2071     		strb	r0, [r4, #4]
 2805 009a DCE7     		b	.L429
 2806              	.L440:
 2807              		.loc 1 1085 0
 2808 009c 2068     		ldr	r0, [r4, #0]
 2809 009e 1030     		adds	r0, r0, #16
 2810 00a0 FFF7FEFF 		bl	sys_mbox_free
 2811              	.LVL314:
 2812              		.loc 1 1086 0
 2813 00a4 2068     		ldr	r0, [r4, #0]
 2814 00a6 1030     		adds	r0, r0, #16
 2815 00a8 FFF7FEFF 		bl	sys_mbox_set_invalid
 2816              	.LVL315:
 2817 00ac CBE7     		b	.L427
 2818              	.L442:
 2819 00ae 00BF     		.align	2
 2820              	.L441:
 2821 00b0 00000000 		.word	accept_function
 2822              	.LBE20:
 2823              		.cfi_endproc
 2824              	.LFE26:
 2825              		.size	do_listen, .-do_listen
 2826 00b4 AFF30080 		.section	.text.do_send,"ax",%progbits
 2826      AFF30080 
 2826      AFF30080 
 2827              		.align	2
ARM GAS  C:\Users\jenny\AppData\Local\Temp\ccWqzXsD.s 			page 51


 2828              		.p2align 4,,15
 2829              		.global	do_send
 2830              		.thumb
 2831              		.thumb_func
 2832              		.type	do_send, %function
 2833              	do_send:
 2834              	.LFB27:
 2835              		.loc 1 1121 0
 2836              		.cfi_startproc
 2837              		@ args = 0, pretend = 0, frame = 0
 2838              		@ frame_needed = 0, uses_anonymous_args = 0
 2839              	.LVL316:
 2840 0000 10B5     		push	{r4, lr}
 2841              	.LCFI22:
 2842              		.cfi_def_cfa_offset 8
 2843              		.cfi_offset 4, -8
 2844              		.cfi_offset 14, -4
 2845              		.loc 1 1122 0
 2846 0002 0368     		ldr	r3, [r0, #0]
 2847 0004 1A7A     		ldrb	r2, [r3, #8]	@ zero_extendqisi2
 2848 0006 51B2     		sxtb	r1, r2
 2849 0008 0931     		adds	r1, r1, #9
 2850              		.loc 1 1121 0
 2851 000a 0446     		mov	r4, r0
 2852              		.loc 1 1122 0
 2853 000c 10DB     		blt	.L461
 2854              		.loc 1 1125 0
 2855 000e F320     		movs	r0, #243
 2856              	.LVL317:
 2857 0010 2071     		strb	r0, [r4, #4]
 2858              		.loc 1 1126 0
 2859 0012 5868     		ldr	r0, [r3, #4]
 2860 0014 30B1     		cbz	r0, .L445
 2861              		.loc 1 1127 0
 2862 0016 1A78     		ldrb	r2, [r3, #0]	@ zero_extendqisi2
 2863 0018 02F0F001 		and	r1, r2, #240
 2864 001c 2029     		cmp	r1, #32
 2865 001e 09D0     		beq	.L446
 2866 0020 4029     		cmp	r1, #64
 2867 0022 13D0     		beq	.L462
 2868              	.L445:
 2869              		.loc 1 1162 0
 2870 0024 03F10C00 		add	r0, r3, #12
 2871              		.loc 1 1163 0
 2872 0028 BDE81040 		pop	{r4, lr}
 2873              		.loc 1 1162 0
 2874 002c FFF7FEBF 		b	sys_sem_signal
 2875              	.LVL318:
 2876              	.L461:
 2877              		.loc 1 1123 0
 2878 0030 0271     		strb	r2, [r0, #4]
 2879 0032 F7E7     		b	.L445
 2880              	.LVL319:
 2881              	.L446:
 2882              		.loc 1 1149 0
 2883 0034 A368     		ldr	r3, [r4, #8]
 2884 0036 13F10802 		adds	r2, r3, #8
ARM GAS  C:\Users\jenny\AppData\Local\Temp\ccWqzXsD.s 			page 52


 2885 003a 01D0     		beq	.L450
 2886              		.loc 1 1149 0 is_stmt 0 discriminator 1
 2887 003c 9968     		ldr	r1, [r3, #8]
 2888 003e 89B9     		cbnz	r1, .L451
 2889              	.L450:
 2890              		.loc 1 1150 0 is_stmt 1
 2891 0040 1968     		ldr	r1, [r3, #0]
 2892 0042 FFF7FEFF 		bl	udp_send
 2893              	.LVL320:
 2894 0046 2368     		ldr	r3, [r4, #0]
 2895 0048 2071     		strb	r0, [r4, #4]
 2896 004a EBE7     		b	.L445
 2897              	.L462:
 2898              		.loc 1 1130 0
 2899 004c A368     		ldr	r3, [r4, #8]
 2900 004e 13F10802 		adds	r2, r3, #8
 2901 0052 01D0     		beq	.L448
 2902              		.loc 1 1130 0 is_stmt 0 discriminator 1
 2903 0054 9968     		ldr	r1, [r3, #8]
 2904 0056 61B9     		cbnz	r1, .L449
 2905              	.L448:
 2906              		.loc 1 1131 0 is_stmt 1
 2907 0058 1968     		ldr	r1, [r3, #0]
 2908 005a FFF7FEFF 		bl	raw_send
 2909              	.LVL321:
 2910 005e 2368     		ldr	r3, [r4, #0]
 2911 0060 2071     		strb	r0, [r4, #4]
 2912 0062 DFE7     		b	.L445
 2913              	.L451:
 2914              		.loc 1 1152 0
 2915 0064 1968     		ldr	r1, [r3, #0]
 2916 0066 9B89     		ldrh	r3, [r3, #12]
 2917 0068 FFF7FEFF 		bl	udp_sendto
 2918              	.LVL322:
 2919 006c 2368     		ldr	r3, [r4, #0]
 2920 006e 2071     		strb	r0, [r4, #4]
 2921 0070 D8E7     		b	.L445
 2922              	.L449:
 2923              		.loc 1 1133 0
 2924 0072 1968     		ldr	r1, [r3, #0]
 2925 0074 FFF7FEFF 		bl	raw_sendto
 2926              	.LVL323:
 2927 0078 2368     		ldr	r3, [r4, #0]
 2928 007a 2071     		strb	r0, [r4, #4]
 2929 007c D2E7     		b	.L445
 2930              		.cfi_endproc
 2931              	.LFE27:
 2932              		.size	do_send, .-do_send
 2933 007e 00BF     		.section	.text.do_recv,"ax",%progbits
 2934              		.align	2
 2935              		.p2align 4,,15
 2936              		.global	do_recv
 2937              		.thumb
 2938              		.thumb_func
 2939              		.type	do_recv, %function
 2940              	do_recv:
 2941              	.LFB28:
ARM GAS  C:\Users\jenny\AppData\Local\Temp\ccWqzXsD.s 			page 53


 2942              		.loc 1 1174 0
 2943              		.cfi_startproc
 2944              		@ args = 0, pretend = 0, frame = 0
 2945              		@ frame_needed = 0, uses_anonymous_args = 0
 2946              	.LVL324:
 2947 0000 F8B5     		push	{r3, r4, r5, r6, r7, lr}
 2948              	.LCFI23:
 2949              		.cfi_def_cfa_offset 24
 2950              		.cfi_offset 3, -24
 2951              		.cfi_offset 4, -20
 2952              		.cfi_offset 5, -16
 2953              		.cfi_offset 6, -12
 2954              		.cfi_offset 7, -8
 2955              		.cfi_offset 14, -4
 2956              		.loc 1 1175 0
 2957 0002 0022     		movs	r2, #0
 2958              		.loc 1 1176 0
 2959 0004 0368     		ldr	r3, [r0, #0]
 2960              		.loc 1 1175 0
 2961 0006 0271     		strb	r2, [r0, #4]
 2962              		.loc 1 1174 0
 2963 0008 0646     		mov	r6, r0
 2964              		.loc 1 1176 0
 2965 000a 5868     		ldr	r0, [r3, #4]
 2966              	.LVL325:
 2967 000c 10B1     		cbz	r0, .L464
 2968              		.loc 1 1177 0
 2969 000e 1A78     		ldrb	r2, [r3, #0]	@ zero_extendqisi2
 2970 0010 102A     		cmp	r2, #16
 2971 0012 05D0     		beq	.L472
 2972              	.L464:
 2973              		.loc 1 1193 0
 2974 0014 03F10C00 		add	r0, r3, #12
 2975              		.loc 1 1194 0
 2976 0018 BDE8F840 		pop	{r3, r4, r5, r6, r7, lr}
 2977              		.loc 1 1193 0
 2978 001c FFF7FEBF 		b	sys_sem_signal
 2979              	.LVL326:
 2980              	.L472:
 2981              	.LBB21:
 2982              		.loc 1 1184 0
 2983 0020 B468     		ldr	r4, [r6, #8]
 2984              	.LVL327:
 2985              	.LBB22:
 2986              		.loc 1 1186 0
 2987 0022 4FF6FF77 		movw	r7, #65535
 2988 0026 00E0     		b	.L467
 2989              	.LVL328:
 2990              	.L473:
 2991 0028 5868     		ldr	r0, [r3, #4]
 2992              	.L467:
 2993 002a BC42     		cmp	r4, r7
 2994 002c 8DBF     		iteet	hi
 2995 002e 4FF6FF75 		movwhi	r5, #65535
 2996 0032 A1B2     		uxthls	r1, r4
 2997 0034 2546     		movls	r5, r4
 2998 0036 2946     		movhi	r1, r5
ARM GAS  C:\Users\jenny\AppData\Local\Temp\ccWqzXsD.s 			page 54


 2999              	.LVL329:
 3000              		.loc 1 1187 0
 3001 0038 FFF7FEFF 		bl	tcp_recved
 3002              	.LVL330:
 3003              	.LBE22:
 3004              		.loc 1 1189 0
 3005 003c 641B     		subs	r4, r4, r5
 3006              	.LVL331:
 3007 003e 3368     		ldr	r3, [r6, #0]
 3008 0040 F2D1     		bne	.L473
 3009 0042 E7E7     		b	.L464
 3010              	.LBE21:
 3011              		.cfi_endproc
 3012              	.LFE28:
 3013              		.size	do_recv, .-do_recv
 3014 0044 AFF30080 		.section	.text.do_write,"ax",%progbits
 3014      AFF30080 
 3014      AFF30080 
 3015              		.align	2
 3016              		.p2align 4,,15
 3017              		.global	do_write
 3018              		.thumb
 3019              		.thumb_func
 3020              		.type	do_write, %function
 3021              	do_write:
 3022              	.LFB30:
 3023              		.loc 1 1344 0
 3024              		.cfi_startproc
 3025              		@ args = 0, pretend = 0, frame = 8
 3026              		@ frame_needed = 0, uses_anonymous_args = 0
 3027              	.LVL332:
 3028 0000 00B5     		push	{lr}
 3029              	.LCFI24:
 3030              		.cfi_def_cfa_offset 4
 3031              		.cfi_offset 14, -4
 3032              		.loc 1 1345 0
 3033 0002 0368     		ldr	r3, [r0, #0]
 3034 0004 1A7A     		ldrb	r2, [r3, #8]	@ zero_extendqisi2
 3035 0006 51B2     		sxtb	r1, r2
 3036 0008 0931     		adds	r1, r1, #9
 3037              		.loc 1 1344 0
 3038 000a 83B0     		sub	sp, sp, #12
 3039              	.LCFI25:
 3040              		.cfi_def_cfa_offset 16
 3041              		.loc 1 1345 0
 3042 000c 03DB     		blt	.L486
 3043              		.loc 1 1348 0
 3044 000e 1A78     		ldrb	r2, [r3, #0]	@ zero_extendqisi2
 3045 0010 102A     		cmp	r2, #16
 3046 0012 08D0     		beq	.L487
 3047              		.loc 1 1384 0
 3048 0014 FA22     		movs	r2, #250
 3049              	.L486:
 3050 0016 0271     		strb	r2, [r0, #4]
 3051              	.L476:
 3052              		.loc 1 1388 0
 3053 0018 03F10C00 		add	r0, r3, #12
ARM GAS  C:\Users\jenny\AppData\Local\Temp\ccWqzXsD.s 			page 55


 3054              	.LVL333:
 3055              		.loc 1 1389 0
 3056 001c 03B0     		add	sp, sp, #12
 3057 001e 5DF804EB 		pop	{lr}
 3058              		.loc 1 1388 0
 3059 0022 FFF7FEBF 		b	sys_sem_signal
 3060              	.LVL334:
 3061              	.L487:
 3062              		.loc 1 1350 0
 3063 0026 5978     		ldrb	r1, [r3, #1]	@ zero_extendqisi2
 3064 0028 11B1     		cbz	r1, .L478
 3065              		.loc 1 1352 0
 3066 002a FB22     		movs	r2, #251
 3067 002c 0271     		strb	r2, [r0, #4]
 3068 002e F3E7     		b	.L476
 3069              	.L478:
 3070              		.loc 1 1353 0
 3071 0030 5A68     		ldr	r2, [r3, #4]
 3072 0032 E2B1     		cbz	r2, .L479
 3073              		.loc 1 1356 0
 3074 0034 5A6A     		ldr	r2, [r3, #36]
 3075              		.loc 1 1354 0
 3076 0036 0121     		movs	r1, #1
 3077 0038 5970     		strb	r1, [r3, #1]
 3078              		.loc 1 1356 0
 3079 003a A2B1     		cbz	r2, .L488
 3080              	.L480:
 3081              		.loc 1 1356 0 is_stmt 0 discriminator 1
 3082 003c 0190     		str	r0, [sp, #4]
 3083 003e FFF7FEFF 		bl	port_halt
 3084              	.LVL335:
 3085 0042 0198     		ldr	r0, [sp, #4]
 3086              	.L481:
 3087              		.loc 1 1358 0 is_stmt 1
 3088 0044 C268     		ldr	r2, [r0, #12]
 3089 0046 4AB1     		cbz	r2, .L489
 3090              	.L482:
 3091              		.loc 1 1359 0
 3092 0048 0168     		ldr	r1, [r0, #0]
 3093 004a 4862     		str	r0, [r1, #36]
 3094              		.loc 1 1360 0
 3095 004c 0020     		movs	r0, #0
 3096 004e 0862     		str	r0, [r1, #32]
 3097              		.loc 1 1371 0
 3098 0050 0846     		mov	r0, r1
 3099              		.loc 1 1389 0
 3100 0052 03B0     		add	sp, sp, #12
 3101 0054 5DF804EB 		pop	{lr}
 3102              		.loc 1 1371 0
 3103 0058 FFF7FEBF 		b	do_writemore
 3104              	.LVL336:
 3105              	.L489:
 3106              		.loc 1 1358 0 discriminator 1
 3107 005c 0190     		str	r0, [sp, #4]
 3108 005e FFF7FEFF 		bl	port_halt
 3109              	.LVL337:
 3110 0062 0198     		ldr	r0, [sp, #4]
ARM GAS  C:\Users\jenny\AppData\Local\Temp\ccWqzXsD.s 			page 56


 3111 0064 F0E7     		b	.L482
 3112              	.LVL338:
 3113              	.L488:
 3114              		.loc 1 1356 0 discriminator 2
 3115 0066 1B6A     		ldr	r3, [r3, #32]
 3116 0068 002B     		cmp	r3, #0
 3117 006a EBD0     		beq	.L481
 3118 006c E6E7     		b	.L480
 3119              	.L479:
 3120              		.loc 1 1377 0
 3121 006e F321     		movs	r1, #243
 3122 0070 0171     		strb	r1, [r0, #4]
 3123 0072 D1E7     		b	.L476
 3124              		.cfi_endproc
 3125              	.LFE30:
 3126              		.size	do_write, .-do_write
 3127 0074 AFF30080 		.section	.text.do_getaddr,"ax",%progbits
 3127      AFF30080 
 3127      AFF30080 
 3128              		.align	2
 3129              		.p2align 4,,15
 3130              		.global	do_getaddr
 3131              		.thumb
 3132              		.thumb_func
 3133              		.type	do_getaddr, %function
 3134              	do_getaddr:
 3135              	.LFB31:
 3136              		.loc 1 1399 0
 3137              		.cfi_startproc
 3138              		@ args = 0, pretend = 0, frame = 0
 3139              		@ frame_needed = 0, uses_anonymous_args = 0
 3140              	.LVL339:
 3141 0000 10B5     		push	{r4, lr}
 3142              	.LCFI26:
 3143              		.cfi_def_cfa_offset 8
 3144              		.cfi_offset 4, -8
 3145              		.cfi_offset 14, -4
 3146              		.loc 1 1399 0
 3147 0002 0446     		mov	r4, r0
 3148              		.loc 1 1400 0
 3149 0004 0068     		ldr	r0, [r0, #0]
 3150              	.LVL340:
 3151 0006 4368     		ldr	r3, [r0, #4]
 3152 0008 002B     		cmp	r3, #0
 3153 000a 2ED0     		beq	.L491
 3154              		.loc 1 1401 0
 3155 000c 217C     		ldrb	r1, [r4, #16]	@ zero_extendqisi2
 3156 000e A268     		ldr	r2, [r4, #8]
 3157 0010 A1B9     		cbnz	r1, .L505
 3158              		.loc 1 1401 0 is_stmt 0 discriminator 2
 3159 0012 5B68     		ldr	r3, [r3, #4]
 3160 0014 1360     		str	r3, [r2, #0]
 3161              		.loc 1 1404 0 is_stmt 1 discriminator 2
 3162 0016 0022     		movs	r2, #0
 3163 0018 2271     		strb	r2, [r4, #4]
 3164              		.loc 1 1405 0 discriminator 2
 3165 001a 0378     		ldrb	r3, [r0, #0]	@ zero_extendqisi2
ARM GAS  C:\Users\jenny\AppData\Local\Temp\ccWqzXsD.s 			page 57


 3166 001c 03F0F001 		and	r1, r3, #240
 3167 0020 2029     		cmp	r1, #32
 3168 0022 14D0     		beq	.L496
 3169              	.L507:
 3170              		.loc 1 1405 0 is_stmt 0
 3171 0024 4029     		cmp	r1, #64
 3172 0026 1ED0     		beq	.L497
 3173 0028 1029     		cmp	r1, #16
 3174 002a 21D0     		beq	.L506
 3175              		.loc 1 1435 0 is_stmt 1 discriminator 1
 3176 002c FFF7FEFF 		bl	port_halt
 3177              	.LVL341:
 3178 0030 2068     		ldr	r0, [r4, #0]
 3179              	.L499:
 3180              		.loc 1 1441 0
 3181 0032 0C30     		adds	r0, r0, #12
 3182              		.loc 1 1442 0
 3183 0034 BDE81040 		pop	{r4, lr}
 3184              		.loc 1 1441 0
 3185 0038 FFF7FEBF 		b	sys_sem_signal
 3186              	.LVL342:
 3187              	.L505:
 3188              		.loc 1 1401 0 discriminator 1
 3189 003c 1968     		ldr	r1, [r3, #0]
 3190 003e 1160     		str	r1, [r2, #0]
 3191              		.loc 1 1404 0 discriminator 1
 3192 0040 0022     		movs	r2, #0
 3193 0042 2271     		strb	r2, [r4, #4]
 3194              		.loc 1 1405 0 discriminator 1
 3195 0044 0378     		ldrb	r3, [r0, #0]	@ zero_extendqisi2
 3196 0046 03F0F001 		and	r1, r3, #240
 3197 004a 2029     		cmp	r1, #32
 3198 004c EAD1     		bne	.L507
 3199              	.L496:
 3200              		.loc 1 1418 0
 3201 004e 217C     		ldrb	r1, [r4, #16]	@ zero_extendqisi2
 3202 0050 E9B9     		cbnz	r1, .L508
 3203              		.loc 1 1421 0
 3204 0052 4368     		ldr	r3, [r0, #4]
 3205 0054 1A7C     		ldrb	r2, [r3, #16]	@ zero_extendqisi2
 3206 0056 02F00401 		and	r1, r2, #4
 3207 005a CAB2     		uxtb	r2, r1
 3208 005c 2AB1     		cbz	r2, .L491
 3209              		.loc 1 1424 0
 3210 005e E168     		ldr	r1, [r4, #12]
 3211 0060 9B8A     		ldrh	r3, [r3, #20]
 3212 0062 0B80     		strh	r3, [r1, #0]	@ movhi
 3213 0064 E5E7     		b	.L499
 3214              	.L497:
 3215              		.loc 1 1408 0
 3216 0066 237C     		ldrb	r3, [r4, #16]	@ zero_extendqisi2
 3217 0068 4BB9     		cbnz	r3, .L509
 3218              	.L491:
 3219              		.loc 1 1439 0
 3220 006a F322     		movs	r2, #243
 3221 006c 2271     		strb	r2, [r4, #4]
 3222 006e E0E7     		b	.L499
ARM GAS  C:\Users\jenny\AppData\Local\Temp\ccWqzXsD.s 			page 58


 3223              	.L506:
 3224              		.loc 1 1431 0
 3225 0070 227C     		ldrb	r2, [r4, #16]	@ zero_extendqisi2
 3226 0072 E368     		ldr	r3, [r4, #12]
 3227 0074 42B9     		cbnz	r2, .L510
 3228              		.loc 1 1431 0 is_stmt 0 discriminator 2
 3229 0076 4168     		ldr	r1, [r0, #4]
 3230 0078 8A8B     		ldrh	r2, [r1, #28]
 3231              	.L503:
 3232              		.loc 1 1431 0 discriminator 3
 3233 007a 1A80     		strh	r2, [r3, #0]	@ movhi
 3234              		.loc 1 1432 0 is_stmt 1 discriminator 3
 3235 007c D9E7     		b	.L499
 3236              	.L509:
 3237              		.loc 1 1409 0
 3238 007e 4168     		ldr	r1, [r0, #4]
 3239 0080 E268     		ldr	r2, [r4, #12]
 3240 0082 0B7C     		ldrb	r3, [r1, #16]	@ zero_extendqisi2
 3241 0084 1380     		strh	r3, [r2, #0]	@ movhi
 3242 0086 D4E7     		b	.L499
 3243              	.L510:
 3244              		.loc 1 1431 0 discriminator 1
 3245 0088 4168     		ldr	r1, [r0, #4]
 3246 008a 4A8B     		ldrh	r2, [r1, #26]
 3247 008c F5E7     		b	.L503
 3248              	.L508:
 3249              		.loc 1 1419 0
 3250 008e 4168     		ldr	r1, [r0, #4]
 3251 0090 E268     		ldr	r2, [r4, #12]
 3252 0092 4B8A     		ldrh	r3, [r1, #18]
 3253 0094 1380     		strh	r3, [r2, #0]	@ movhi
 3254 0096 CCE7     		b	.L499
 3255              		.cfi_endproc
 3256              	.LFE31:
 3257              		.size	do_getaddr, .-do_getaddr
 3258 0098 AFF30080 		.section	.text.do_close,"ax",%progbits
 3258      AFF30080 
 3259              		.align	2
 3260              		.p2align 4,,15
 3261              		.global	do_close
 3262              		.thumb
 3263              		.thumb_func
 3264              		.type	do_close, %function
 3265              	do_close:
 3266              	.LFB32:
 3267              		.loc 1 1452 0
 3268              		.cfi_startproc
 3269              		@ args = 0, pretend = 0, frame = 0
 3270              		@ frame_needed = 0, uses_anonymous_args = 0
 3271              	.LVL343:
 3272 0000 10B5     		push	{r4, lr}
 3273              	.LCFI27:
 3274              		.cfi_def_cfa_offset 8
 3275              		.cfi_offset 4, -8
 3276              		.cfi_offset 14, -4
 3277              		.loc 1 1452 0
 3278 0002 0446     		mov	r4, r0
ARM GAS  C:\Users\jenny\AppData\Local\Temp\ccWqzXsD.s 			page 59


 3279              		.loc 1 1455 0
 3280 0004 0068     		ldr	r0, [r0, #0]
 3281              	.LVL344:
 3282 0006 4278     		ldrb	r2, [r0, #1]	@ zero_extendqisi2
 3283 0008 52B1     		cbz	r2, .L512
 3284              		.loc 1 1455 0 is_stmt 0 discriminator 1
 3285 000a 022A     		cmp	r2, #2
 3286 000c 08D0     		beq	.L512
 3287              		.loc 1 1457 0 is_stmt 1
 3288 000e 0278     		ldrb	r2, [r0, #0]	@ zero_extendqisi2
 3289 0010 102A     		cmp	r2, #16
 3290 0012 02D0     		beq	.L513
 3291              		.loc 1 1457 0 is_stmt 0 discriminator 1
 3292 0014 FFF7FEFF 		bl	port_halt
 3293              	.LVL345:
 3294 0018 2068     		ldr	r0, [r4, #0]
 3295              	.L513:
 3296              		.loc 1 1458 0 is_stmt 1
 3297 001a FB21     		movs	r1, #251
 3298 001c 2171     		strb	r1, [r4, #4]
 3299 001e 06E0     		b	.L514
 3300              	.L512:
 3301              		.loc 1 1459 0
 3302 0020 4168     		ldr	r1, [r0, #4]
 3303 0022 11B1     		cbz	r1, .L515
 3304              		.loc 1 1459 0 is_stmt 0 discriminator 1
 3305 0024 0378     		ldrb	r3, [r0, #0]	@ zero_extendqisi2
 3306 0026 102B     		cmp	r3, #16
 3307 0028 06D0     		beq	.L542
 3308              	.L515:
 3309              		.loc 1 1479 0 is_stmt 1
 3310 002a FA22     		movs	r2, #250
 3311 002c 2271     		strb	r2, [r4, #4]
 3312              	.L514:
 3313              		.loc 1 1481 0
 3314 002e 0C30     		adds	r0, r0, #12
 3315              		.loc 1 1482 0
 3316 0030 BDE81040 		pop	{r4, lr}
 3317              		.loc 1 1481 0
 3318 0034 FFF7FEBF 		b	sys_sem_signal
 3319              	.LVL346:
 3320              	.L542:
 3321              		.loc 1 1460 0
 3322 0038 217A     		ldrb	r1, [r4, #8]	@ zero_extendqisi2
 3323 003a 0329     		cmp	r1, #3
 3324 003c 13D0     		beq	.L516
 3325              		.loc 1 1460 0 is_stmt 0 discriminator 1
 3326 003e 022A     		cmp	r2, #2
 3327 0040 15D0     		beq	.L543
 3328              		.loc 1 1464 0 is_stmt 1
 3329 0042 CA07     		lsls	r2, r1, #31
 3330 0044 0FD4     		bmi	.L516
 3331              	.L518:
 3332              		.loc 1 1468 0
 3333 0046 436A     		ldr	r3, [r0, #36]
 3334 0048 4BB1     		cbz	r3, .L544
 3335              	.L519:
ARM GAS  C:\Users\jenny\AppData\Local\Temp\ccWqzXsD.s 			page 60


 3336              		.loc 1 1468 0 is_stmt 0 discriminator 1
 3337 004a FFF7FEFF 		bl	port_halt
 3338              	.LVL347:
 3339 004e 2068     		ldr	r0, [r4, #0]
 3340              	.L520:
 3341              		.loc 1 1470 0 is_stmt 1
 3342 0050 0421     		movs	r1, #4
 3343 0052 4170     		strb	r1, [r0, #1]
 3344              		.loc 1 1471 0
 3345 0054 4462     		str	r4, [r0, #36]
 3346              		.loc 1 1482 0
 3347 0056 BDE81040 		pop	{r4, lr}
 3348              		.loc 1 1472 0
 3349 005a FFF7FEBF 		b	do_close_internal
 3350              	.LVL348:
 3351              	.L544:
 3352              		.loc 1 1468 0 discriminator 2
 3353 005e 026A     		ldr	r2, [r0, #32]
 3354 0060 002A     		cmp	r2, #0
 3355 0062 F2D1     		bne	.L519
 3356 0064 F4E7     		b	.L520
 3357              	.L516:
 3358              		.loc 1 1466 0
 3359 0066 FFF7FEFF 		bl	netconn_drain
 3360              	.LVL349:
 3361 006a 2068     		ldr	r0, [r4, #0]
 3362 006c EBE7     		b	.L518
 3363              	.L543:
 3364              		.loc 1 1462 0
 3365 006e F323     		movs	r3, #243
 3366 0070 2371     		strb	r3, [r4, #4]
 3367              		.loc 1 1460 0
 3368 0072 DCE7     		b	.L514
 3369              		.cfi_endproc
 3370              	.LFE32:
 3371              		.size	do_close, .-do_close
 3372 0074 AFF30080 		.text
 3372      AFF30080 
 3372      AFF30080 
 3373              	.Letext0:
 3374              		.file 2 "c:\\fbin\\yagarto\\bin\\../lib/gcc/arm-none-eabi/4.7.4/include/stddef.h"
 3375              		.file 3 "c:\\fbin\\yagarto\\bin\\../lib/gcc/arm-none-eabi/4.7.4/../../../../arm-none-eabi/include/
 3376              		.file 4 "../../os/ports/GCC/ARMCMx/chtypes.h"
 3377              		.file 5 "../../os/kernel/include/chlists.h"
 3378              		.file 6 "../../os/kernel/include/chthreads.h"
 3379              		.file 7 "../../os/ports/GCC/ARMCMx/chcore_v7m.h"
 3380              		.file 8 "../../os/kernel/include/chsem.h"
 3381              		.file 9 "../../os/kernel/include/chmtx.h"
 3382              		.file 10 "../../os/kernel/include/chmboxes.h"
 3383              		.file 11 "../../os/various/lwip_bindings/arch/cc.h"
 3384              		.file 12 "../../ext/lwip/src/include/ipv4/lwip/ip_addr.h"
 3385              		.file 13 "../../ext/lwip/src/include/lwip/err.h"
 3386              		.file 14 "../../os/various/lwip_bindings/arch/sys_arch.h"
 3387              		.file 15 "../../ext/lwip/src/include/lwip/pbuf.h"
 3388              		.file 16 "../../ext/lwip/src/include/lwip/netbuf.h"
 3389              		.file 17 "../../ext/lwip/src/include/lwip/api.h"
 3390              		.file 18 "../../ext/lwip/src/include/ipv4/lwip/ip.h"
ARM GAS  C:\Users\jenny\AppData\Local\Temp\ccWqzXsD.s 			page 61


 3391              		.file 19 "../../ext/lwip/src/include/lwip/tcp.h"
 3392              		.file 20 "../../ext/lwip/src/include/lwip/udp.h"
 3393              		.file 21 "../../ext/lwip/src/include/lwip/raw.h"
 3394              		.file 22 "../../ext/lwip/src/include/lwip/api_msg.h"
 3395              		.file 23 "../../ext/lwip/src/include/lwip/memp.h"
 3396              		.file 24 "../../ext/lwip/src/include/lwip/sys.h"
 3397              		.section	.debug_info,"",%progbits
 3398              	.Ldebug_info0:
 3399 0000 A02B0000 		.4byte	0x2ba0
 3400 0004 0200     		.2byte	0x2
 3401 0006 00000000 		.4byte	.Ldebug_abbrev0
 3402 000a 04       		.byte	0x4
 3403 000b 01       		.uleb128 0x1
 3404 000c 31010000 		.4byte	.LASF316
 3405 0010 01       		.byte	0x1
 3406 0011 B4030000 		.4byte	.LASF317
 3407 0015 9E040000 		.4byte	.LASF318
 3408 0019 58000000 		.4byte	.Ldebug_ranges0+0x58
 3409 001d 00000000 		.4byte	0
 3410 0021 00000000 		.4byte	0
 3411 0025 00000000 		.4byte	.Ldebug_line0
 3412 0029 02       		.uleb128 0x2
 3413 002a 04       		.byte	0x4
 3414 002b 05       		.byte	0x5
 3415 002c 696E7400 		.ascii	"int\000"
 3416 0030 03       		.uleb128 0x3
 3417 0031 11000000 		.4byte	.LASF1
 3418 0035 02       		.byte	0x2
 3419 0036 D5       		.byte	0xd5
 3420 0037 3B000000 		.4byte	0x3b
 3421 003b 04       		.uleb128 0x4
 3422 003c 04       		.byte	0x4
 3423 003d 07       		.byte	0x7
 3424 003e B1070000 		.4byte	.LASF0
 3425 0042 03       		.uleb128 0x3
 3426 0043 00000000 		.4byte	.LASF2
 3427 0047 03       		.byte	0x3
 3428 0048 29       		.byte	0x29
 3429 0049 4D000000 		.4byte	0x4d
 3430 004d 04       		.uleb128 0x4
 3431 004e 01       		.byte	0x1
 3432 004f 06       		.byte	0x6
 3433 0050 F1020000 		.4byte	.LASF3
 3434 0054 03       		.uleb128 0x3
 3435 0055 07030000 		.4byte	.LASF4
 3436 0059 03       		.byte	0x3
 3437 005a 2A       		.byte	0x2a
 3438 005b 5F000000 		.4byte	0x5f
 3439 005f 04       		.uleb128 0x4
 3440 0060 01       		.byte	0x1
 3441 0061 08       		.byte	0x8
 3442 0062 61030000 		.4byte	.LASF5
 3443 0066 03       		.uleb128 0x3
 3444 0067 890B0000 		.4byte	.LASF6
 3445 006b 03       		.byte	0x3
 3446 006c 35       		.byte	0x35
 3447 006d 71000000 		.4byte	0x71
ARM GAS  C:\Users\jenny\AppData\Local\Temp\ccWqzXsD.s 			page 62


 3448 0071 04       		.uleb128 0x4
 3449 0072 02       		.byte	0x2
 3450 0073 05       		.byte	0x5
 3451 0074 4A0B0000 		.4byte	.LASF7
 3452 0078 03       		.uleb128 0x3
 3453 0079 8F090000 		.4byte	.LASF8
 3454 007d 03       		.byte	0x3
 3455 007e 36       		.byte	0x36
 3456 007f 83000000 		.4byte	0x83
 3457 0083 04       		.uleb128 0x4
 3458 0084 02       		.byte	0x2
 3459 0085 07       		.byte	0x7
 3460 0086 AE0C0000 		.4byte	.LASF9
 3461 008a 03       		.uleb128 0x3
 3462 008b 80000000 		.4byte	.LASF10
 3463 008f 03       		.byte	0x3
 3464 0090 4F       		.byte	0x4f
 3465 0091 95000000 		.4byte	0x95
 3466 0095 04       		.uleb128 0x4
 3467 0096 04       		.byte	0x4
 3468 0097 05       		.byte	0x5
 3469 0098 2B020000 		.4byte	.LASF11
 3470 009c 03       		.uleb128 0x3
 3471 009d 4C0C0000 		.4byte	.LASF12
 3472 00a1 03       		.byte	0x3
 3473 00a2 50       		.byte	0x50
 3474 00a3 A7000000 		.4byte	0xa7
 3475 00a7 04       		.uleb128 0x4
 3476 00a8 04       		.byte	0x4
 3477 00a9 07       		.byte	0x7
 3478 00aa 1A060000 		.4byte	.LASF13
 3479 00ae 04       		.uleb128 0x4
 3480 00af 08       		.byte	0x8
 3481 00b0 05       		.byte	0x5
 3482 00b1 1E070000 		.4byte	.LASF14
 3483 00b5 04       		.uleb128 0x4
 3484 00b6 08       		.byte	0x8
 3485 00b7 07       		.byte	0x7
 3486 00b8 42090000 		.4byte	.LASF15
 3487 00bc 04       		.uleb128 0x4
 3488 00bd 01       		.byte	0x1
 3489 00be 02       		.byte	0x2
 3490 00bf A3030000 		.4byte	.LASF16
 3491 00c3 03       		.uleb128 0x3
 3492 00c4 DF0A0000 		.4byte	.LASF17
 3493 00c8 04       		.byte	0x4
 3494 00c9 2C       		.byte	0x2c
 3495 00ca 54000000 		.4byte	0x54
 3496 00ce 03       		.uleb128 0x3
 3497 00cf 62020000 		.4byte	.LASF18
 3498 00d3 04       		.byte	0x4
 3499 00d4 2D       		.byte	0x2d
 3500 00d5 54000000 		.4byte	0x54
 3501 00d9 03       		.uleb128 0x3
 3502 00da 2C0C0000 		.4byte	.LASF19
 3503 00de 04       		.byte	0x4
 3504 00df 2E       		.byte	0x2e
ARM GAS  C:\Users\jenny\AppData\Local\Temp\ccWqzXsD.s 			page 63


 3505 00e0 54000000 		.4byte	0x54
 3506 00e4 03       		.uleb128 0x3
 3507 00e5 D3090000 		.4byte	.LASF20
 3508 00e9 04       		.byte	0x4
 3509 00ea 2F       		.byte	0x2f
 3510 00eb 54000000 		.4byte	0x54
 3511 00ef 03       		.uleb128 0x3
 3512 00f0 46000000 		.4byte	.LASF21
 3513 00f4 04       		.byte	0x4
 3514 00f5 30       		.byte	0x30
 3515 00f6 9C000000 		.4byte	0x9c
 3516 00fa 03       		.uleb128 0x3
 3517 00fb A8090000 		.4byte	.LASF22
 3518 00ff 04       		.byte	0x4
 3519 0100 31       		.byte	0x31
 3520 0101 8A000000 		.4byte	0x8a
 3521 0105 03       		.uleb128 0x3
 3522 0106 36030000 		.4byte	.LASF23
 3523 010a 04       		.byte	0x4
 3524 010b 33       		.byte	0x33
 3525 010c 9C000000 		.4byte	0x9c
 3526 0110 03       		.uleb128 0x3
 3527 0111 2A000000 		.4byte	.LASF24
 3528 0115 04       		.byte	0x4
 3529 0116 35       		.byte	0x35
 3530 0117 9C000000 		.4byte	0x9c
 3531 011b 03       		.uleb128 0x3
 3532 011c 1B050000 		.4byte	.LASF25
 3533 0120 04       		.byte	0x4
 3534 0121 36       		.byte	0x36
 3535 0122 8A000000 		.4byte	0x8a
 3536 0126 03       		.uleb128 0x3
 3537 0127 D30B0000 		.4byte	.LASF26
 3538 012b 05       		.byte	0x5
 3539 012c 2A       		.byte	0x2a
 3540 012d 31010000 		.4byte	0x131
 3541 0131 05       		.uleb128 0x5
 3542 0132 D30B0000 		.4byte	.LASF26
 3543 0136 48       		.byte	0x48
 3544 0137 06       		.byte	0x6
 3545 0138 5E       		.byte	0x5e
 3546 0139 56020000 		.4byte	0x256
 3547 013d 06       		.uleb128 0x6
 3548 013e 34020000 		.4byte	.LASF27
 3549 0142 06       		.byte	0x6
 3550 0143 5F       		.byte	0x5f
 3551 0144 7B020000 		.4byte	0x27b
 3552 0148 02       		.byte	0x2
 3553 0149 23       		.byte	0x23
 3554 014a 00       		.uleb128 0
 3555 014b 06       		.uleb128 0x6
 3556 014c 43020000 		.4byte	.LASF28
 3557 0150 06       		.byte	0x6
 3558 0151 61       		.byte	0x61
 3559 0152 7B020000 		.4byte	0x27b
 3560 0156 02       		.byte	0x2
 3561 0157 23       		.byte	0x23
ARM GAS  C:\Users\jenny\AppData\Local\Temp\ccWqzXsD.s 			page 64


 3562 0158 04       		.uleb128 0x4
 3563 0159 06       		.uleb128 0x6
 3564 015a 2D040000 		.4byte	.LASF29
 3565 015e 06       		.byte	0x6
 3566 015f 63       		.byte	0x63
 3567 0160 EF000000 		.4byte	0xef
 3568 0164 02       		.byte	0x2
 3569 0165 23       		.byte	0x23
 3570 0166 08       		.uleb128 0x8
 3571 0167 06       		.uleb128 0x6
 3572 0168 40000000 		.4byte	.LASF30
 3573 016c 06       		.byte	0x6
 3574 016d 64       		.byte	0x64
 3575 016e 39040000 		.4byte	0x439
 3576 0172 02       		.byte	0x2
 3577 0173 23       		.byte	0x23
 3578 0174 0C       		.uleb128 0xc
 3579 0175 06       		.uleb128 0x6
 3580 0176 11020000 		.4byte	.LASF31
 3581 017a 06       		.byte	0x6
 3582 017b 66       		.byte	0x66
 3583 017c 7B020000 		.4byte	0x27b
 3584 0180 02       		.byte	0x2
 3585 0181 23       		.byte	0x23
 3586 0182 10       		.uleb128 0x10
 3587 0183 06       		.uleb128 0x6
 3588 0184 7A090000 		.4byte	.LASF32
 3589 0188 06       		.byte	0x6
 3590 0189 67       		.byte	0x67
 3591 018a 7B020000 		.4byte	0x27b
 3592 018e 02       		.byte	0x2
 3593 018f 23       		.byte	0x23
 3594 0190 14       		.uleb128 0x14
 3595 0191 06       		.uleb128 0x6
 3596 0192 430D0000 		.4byte	.LASF33
 3597 0196 06       		.byte	0x6
 3598 0197 6E       		.byte	0x6e
 3599 0198 87050000 		.4byte	0x587
 3600 019c 02       		.byte	0x2
 3601 019d 23       		.byte	0x23
 3602 019e 18       		.uleb128 0x18
 3603 019f 06       		.uleb128 0x6
 3604 01a0 BB0D0000 		.4byte	.LASF34
 3605 01a4 06       		.byte	0x6
 3606 01a5 79       		.byte	0x79
 3607 01a6 CE000000 		.4byte	0xce
 3608 01aa 02       		.byte	0x2
 3609 01ab 23       		.byte	0x23
 3610 01ac 1C       		.uleb128 0x1c
 3611 01ad 06       		.uleb128 0x6
 3612 01ae A0070000 		.4byte	.LASF35
 3613 01b2 06       		.byte	0x6
 3614 01b3 7D       		.byte	0x7d
 3615 01b4 C3000000 		.4byte	0xc3
 3616 01b8 02       		.byte	0x2
 3617 01b9 23       		.byte	0x23
 3618 01ba 1D       		.uleb128 0x1d
ARM GAS  C:\Users\jenny\AppData\Local\Temp\ccWqzXsD.s 			page 65


 3619 01bb 06       		.uleb128 0x6
 3620 01bc 01080000 		.4byte	.LASF36
 3621 01c0 06       		.byte	0x6
 3622 01c1 82       		.byte	0x82
 3623 01c2 D9000000 		.4byte	0xd9
 3624 01c6 02       		.byte	0x2
 3625 01c7 23       		.byte	0x23
 3626 01c8 1E       		.uleb128 0x1e
 3627 01c9 06       		.uleb128 0x6
 3628 01ca FD020000 		.4byte	.LASF37
 3629 01ce 06       		.byte	0x6
 3630 01cf 88       		.byte	0x88
 3631 01d0 E4000000 		.4byte	0xe4
 3632 01d4 02       		.byte	0x2
 3633 01d5 23       		.byte	0x23
 3634 01d6 1F       		.uleb128 0x1f
 3635 01d7 06       		.uleb128 0x6
 3636 01d8 67080000 		.4byte	.LASF38
 3637 01dc 06       		.byte	0x6
 3638 01dd 8F       		.byte	0x8f
 3639 01de 63040000 		.4byte	0x463
 3640 01e2 02       		.byte	0x2
 3641 01e3 23       		.byte	0x23
 3642 01e4 20       		.uleb128 0x20
 3643 01e5 07       		.uleb128 0x7
 3644 01e6 705F7500 		.ascii	"p_u\000"
 3645 01ea 06       		.byte	0x6
 3646 01eb B4       		.byte	0xb4
 3647 01ec 52050000 		.4byte	0x552
 3648 01f0 02       		.byte	0x2
 3649 01f1 23       		.byte	0x23
 3650 01f2 24       		.uleb128 0x24
 3651 01f3 06       		.uleb128 0x6
 3652 01f4 91070000 		.4byte	.LASF39
 3653 01f8 06       		.byte	0x6
 3654 01f9 B9       		.byte	0xb9
 3655 01fa A3020000 		.4byte	0x2a3
 3656 01fe 02       		.byte	0x2
 3657 01ff 23       		.byte	0x23
 3658 0200 28       		.uleb128 0x28
 3659 0201 06       		.uleb128 0x6
 3660 0202 6F000000 		.4byte	.LASF40
 3661 0206 06       		.byte	0x6
 3662 0207 BF       		.byte	0xbf
 3663 0208 81020000 		.4byte	0x281
 3664 020c 02       		.byte	0x2
 3665 020d 23       		.byte	0x23
 3666 020e 2C       		.uleb128 0x2c
 3667 020f 06       		.uleb128 0x6
 3668 0210 B50D0000 		.4byte	.LASF41
 3669 0214 06       		.byte	0x6
 3670 0215 C3       		.byte	0xc3
 3671 0216 FA000000 		.4byte	0xfa
 3672 021a 02       		.byte	0x2
 3673 021b 23       		.byte	0x23
 3674 021c 34       		.uleb128 0x34
 3675 021d 06       		.uleb128 0x6
ARM GAS  C:\Users\jenny\AppData\Local\Temp\ccWqzXsD.s 			page 66


 3676 021e 95050000 		.4byte	.LASF42
 3677 0222 06       		.byte	0x6
 3678 0223 C9       		.byte	0xc9
 3679 0224 05010000 		.4byte	0x105
 3680 0228 02       		.byte	0x2
 3681 0229 23       		.byte	0x23
 3682 022a 38       		.uleb128 0x38
 3683 022b 06       		.uleb128 0x6
 3684 022c 74020000 		.4byte	.LASF43
 3685 0230 06       		.byte	0x6
 3686 0231 D0       		.byte	0xd0
 3687 0232 99050000 		.4byte	0x599
 3688 0236 02       		.byte	0x2
 3689 0237 23       		.byte	0x23
 3690 0238 3C       		.uleb128 0x3c
 3691 0239 06       		.uleb128 0x6
 3692 023a D0080000 		.4byte	.LASF44
 3693 023e 06       		.byte	0x6
 3694 023f D4       		.byte	0xd4
 3695 0240 EF000000 		.4byte	0xef
 3696 0244 02       		.byte	0x2
 3697 0245 23       		.byte	0x23
 3698 0246 40       		.uleb128 0x40
 3699 0247 06       		.uleb128 0x6
 3700 0248 DD070000 		.4byte	.LASF45
 3701 024c 06       		.byte	0x6
 3702 024d DA       		.byte	0xda
 3703 024e B9020000 		.4byte	0x2b9
 3704 0252 02       		.byte	0x2
 3705 0253 23       		.byte	0x23
 3706 0254 44       		.uleb128 0x44
 3707 0255 00       		.byte	0
 3708 0256 08       		.uleb128 0x8
 3709 0257 08       		.byte	0x8
 3710 0258 05       		.byte	0x5
 3711 0259 61       		.byte	0x61
 3712 025a 7B020000 		.4byte	0x27b
 3713 025e 06       		.uleb128 0x6
 3714 025f 34020000 		.4byte	.LASF27
 3715 0263 05       		.byte	0x5
 3716 0264 62       		.byte	0x62
 3717 0265 7B020000 		.4byte	0x27b
 3718 0269 02       		.byte	0x2
 3719 026a 23       		.byte	0x23
 3720 026b 00       		.uleb128 0
 3721 026c 06       		.uleb128 0x6
 3722 026d 43020000 		.4byte	.LASF28
 3723 0271 05       		.byte	0x5
 3724 0272 64       		.byte	0x64
 3725 0273 7B020000 		.4byte	0x27b
 3726 0277 02       		.byte	0x2
 3727 0278 23       		.byte	0x23
 3728 0279 04       		.uleb128 0x4
 3729 027a 00       		.byte	0
 3730 027b 09       		.uleb128 0x9
 3731 027c 04       		.byte	0x4
 3732 027d 26010000 		.4byte	0x126
ARM GAS  C:\Users\jenny\AppData\Local\Temp\ccWqzXsD.s 			page 67


 3733 0281 03       		.uleb128 0x3
 3734 0282 7D0C0000 		.4byte	.LASF46
 3735 0286 05       		.byte	0x5
 3736 0287 66       		.byte	0x66
 3737 0288 56020000 		.4byte	0x256
 3738 028c 08       		.uleb128 0x8
 3739 028d 04       		.byte	0x4
 3740 028e 05       		.byte	0x5
 3741 028f 6B       		.byte	0x6b
 3742 0290 A3020000 		.4byte	0x2a3
 3743 0294 06       		.uleb128 0x6
 3744 0295 34020000 		.4byte	.LASF27
 3745 0299 05       		.byte	0x5
 3746 029a 6D       		.byte	0x6d
 3747 029b 7B020000 		.4byte	0x27b
 3748 029f 02       		.byte	0x2
 3749 02a0 23       		.byte	0x23
 3750 02a1 00       		.uleb128 0
 3751 02a2 00       		.byte	0
 3752 02a3 03       		.uleb128 0x3
 3753 02a4 18080000 		.4byte	.LASF47
 3754 02a8 05       		.byte	0x5
 3755 02a9 70       		.byte	0x70
 3756 02aa 8C020000 		.4byte	0x28c
 3757 02ae 03       		.uleb128 0x3
 3758 02af 7E020000 		.4byte	.LASF48
 3759 02b3 07       		.byte	0x7
 3760 02b4 E5       		.byte	0xe5
 3761 02b5 B9020000 		.4byte	0x2b9
 3762 02b9 0A       		.uleb128 0xa
 3763 02ba 04       		.byte	0x4
 3764 02bb 0B       		.uleb128 0xb
 3765 02bc 8E050000 		.4byte	.LASF49
 3766 02c0 64       		.byte	0x64
 3767 02c1 07       		.byte	0x7
 3768 02c2 0C01     		.2byte	0x10c
 3769 02c4 39040000 		.4byte	0x439
 3770 02c8 0C       		.uleb128 0xc
 3771 02c9 73313600 		.ascii	"s16\000"
 3772 02cd 07       		.byte	0x7
 3773 02ce 0E01     		.2byte	0x10e
 3774 02d0 AE020000 		.4byte	0x2ae
 3775 02d4 02       		.byte	0x2
 3776 02d5 23       		.byte	0x23
 3777 02d6 00       		.uleb128 0
 3778 02d7 0C       		.uleb128 0xc
 3779 02d8 73313700 		.ascii	"s17\000"
 3780 02dc 07       		.byte	0x7
 3781 02dd 0F01     		.2byte	0x10f
 3782 02df AE020000 		.4byte	0x2ae
 3783 02e3 02       		.byte	0x2
 3784 02e4 23       		.byte	0x23
 3785 02e5 04       		.uleb128 0x4
 3786 02e6 0C       		.uleb128 0xc
 3787 02e7 73313800 		.ascii	"s18\000"
 3788 02eb 07       		.byte	0x7
 3789 02ec 1001     		.2byte	0x110
ARM GAS  C:\Users\jenny\AppData\Local\Temp\ccWqzXsD.s 			page 68


 3790 02ee AE020000 		.4byte	0x2ae
 3791 02f2 02       		.byte	0x2
 3792 02f3 23       		.byte	0x23
 3793 02f4 08       		.uleb128 0x8
 3794 02f5 0C       		.uleb128 0xc
 3795 02f6 73313900 		.ascii	"s19\000"
 3796 02fa 07       		.byte	0x7
 3797 02fb 1101     		.2byte	0x111
 3798 02fd AE020000 		.4byte	0x2ae
 3799 0301 02       		.byte	0x2
 3800 0302 23       		.byte	0x23
 3801 0303 0C       		.uleb128 0xc
 3802 0304 0C       		.uleb128 0xc
 3803 0305 73323000 		.ascii	"s20\000"
 3804 0309 07       		.byte	0x7
 3805 030a 1201     		.2byte	0x112
 3806 030c AE020000 		.4byte	0x2ae
 3807 0310 02       		.byte	0x2
 3808 0311 23       		.byte	0x23
 3809 0312 10       		.uleb128 0x10
 3810 0313 0C       		.uleb128 0xc
 3811 0314 73323100 		.ascii	"s21\000"
 3812 0318 07       		.byte	0x7
 3813 0319 1301     		.2byte	0x113
 3814 031b AE020000 		.4byte	0x2ae
 3815 031f 02       		.byte	0x2
 3816 0320 23       		.byte	0x23
 3817 0321 14       		.uleb128 0x14
 3818 0322 0C       		.uleb128 0xc
 3819 0323 73323200 		.ascii	"s22\000"
 3820 0327 07       		.byte	0x7
 3821 0328 1401     		.2byte	0x114
 3822 032a AE020000 		.4byte	0x2ae
 3823 032e 02       		.byte	0x2
 3824 032f 23       		.byte	0x23
 3825 0330 18       		.uleb128 0x18
 3826 0331 0C       		.uleb128 0xc
 3827 0332 73323300 		.ascii	"s23\000"
 3828 0336 07       		.byte	0x7
 3829 0337 1501     		.2byte	0x115
 3830 0339 AE020000 		.4byte	0x2ae
 3831 033d 02       		.byte	0x2
 3832 033e 23       		.byte	0x23
 3833 033f 1C       		.uleb128 0x1c
 3834 0340 0C       		.uleb128 0xc
 3835 0341 73323400 		.ascii	"s24\000"
 3836 0345 07       		.byte	0x7
 3837 0346 1601     		.2byte	0x116
 3838 0348 AE020000 		.4byte	0x2ae
 3839 034c 02       		.byte	0x2
 3840 034d 23       		.byte	0x23
 3841 034e 20       		.uleb128 0x20
 3842 034f 0C       		.uleb128 0xc
 3843 0350 73323500 		.ascii	"s25\000"
 3844 0354 07       		.byte	0x7
 3845 0355 1701     		.2byte	0x117
 3846 0357 AE020000 		.4byte	0x2ae
ARM GAS  C:\Users\jenny\AppData\Local\Temp\ccWqzXsD.s 			page 69


 3847 035b 02       		.byte	0x2
 3848 035c 23       		.byte	0x23
 3849 035d 24       		.uleb128 0x24
 3850 035e 0C       		.uleb128 0xc
 3851 035f 73323600 		.ascii	"s26\000"
 3852 0363 07       		.byte	0x7
 3853 0364 1801     		.2byte	0x118
 3854 0366 AE020000 		.4byte	0x2ae
 3855 036a 02       		.byte	0x2
 3856 036b 23       		.byte	0x23
 3857 036c 28       		.uleb128 0x28
 3858 036d 0C       		.uleb128 0xc
 3859 036e 73323700 		.ascii	"s27\000"
 3860 0372 07       		.byte	0x7
 3861 0373 1901     		.2byte	0x119
 3862 0375 AE020000 		.4byte	0x2ae
 3863 0379 02       		.byte	0x2
 3864 037a 23       		.byte	0x23
 3865 037b 2C       		.uleb128 0x2c
 3866 037c 0C       		.uleb128 0xc
 3867 037d 73323800 		.ascii	"s28\000"
 3868 0381 07       		.byte	0x7
 3869 0382 1A01     		.2byte	0x11a
 3870 0384 AE020000 		.4byte	0x2ae
 3871 0388 02       		.byte	0x2
 3872 0389 23       		.byte	0x23
 3873 038a 30       		.uleb128 0x30
 3874 038b 0C       		.uleb128 0xc
 3875 038c 73323900 		.ascii	"s29\000"
 3876 0390 07       		.byte	0x7
 3877 0391 1B01     		.2byte	0x11b
 3878 0393 AE020000 		.4byte	0x2ae
 3879 0397 02       		.byte	0x2
 3880 0398 23       		.byte	0x23
 3881 0399 34       		.uleb128 0x34
 3882 039a 0C       		.uleb128 0xc
 3883 039b 73333000 		.ascii	"s30\000"
 3884 039f 07       		.byte	0x7
 3885 03a0 1C01     		.2byte	0x11c
 3886 03a2 AE020000 		.4byte	0x2ae
 3887 03a6 02       		.byte	0x2
 3888 03a7 23       		.byte	0x23
 3889 03a8 38       		.uleb128 0x38
 3890 03a9 0C       		.uleb128 0xc
 3891 03aa 73333100 		.ascii	"s31\000"
 3892 03ae 07       		.byte	0x7
 3893 03af 1D01     		.2byte	0x11d
 3894 03b1 AE020000 		.4byte	0x2ae
 3895 03b5 02       		.byte	0x2
 3896 03b6 23       		.byte	0x23
 3897 03b7 3C       		.uleb128 0x3c
 3898 03b8 0C       		.uleb128 0xc
 3899 03b9 723400   		.ascii	"r4\000"
 3900 03bc 07       		.byte	0x7
 3901 03bd 1F01     		.2byte	0x11f
 3902 03bf AE020000 		.4byte	0x2ae
 3903 03c3 02       		.byte	0x2
ARM GAS  C:\Users\jenny\AppData\Local\Temp\ccWqzXsD.s 			page 70


 3904 03c4 23       		.byte	0x23
 3905 03c5 40       		.uleb128 0x40
 3906 03c6 0C       		.uleb128 0xc
 3907 03c7 723500   		.ascii	"r5\000"
 3908 03ca 07       		.byte	0x7
 3909 03cb 2001     		.2byte	0x120
 3910 03cd AE020000 		.4byte	0x2ae
 3911 03d1 02       		.byte	0x2
 3912 03d2 23       		.byte	0x23
 3913 03d3 44       		.uleb128 0x44
 3914 03d4 0C       		.uleb128 0xc
 3915 03d5 723600   		.ascii	"r6\000"
 3916 03d8 07       		.byte	0x7
 3917 03d9 2101     		.2byte	0x121
 3918 03db AE020000 		.4byte	0x2ae
 3919 03df 02       		.byte	0x2
 3920 03e0 23       		.byte	0x23
 3921 03e1 48       		.uleb128 0x48
 3922 03e2 0C       		.uleb128 0xc
 3923 03e3 723700   		.ascii	"r7\000"
 3924 03e6 07       		.byte	0x7
 3925 03e7 2201     		.2byte	0x122
 3926 03e9 AE020000 		.4byte	0x2ae
 3927 03ed 02       		.byte	0x2
 3928 03ee 23       		.byte	0x23
 3929 03ef 4C       		.uleb128 0x4c
 3930 03f0 0C       		.uleb128 0xc
 3931 03f1 723800   		.ascii	"r8\000"
 3932 03f4 07       		.byte	0x7
 3933 03f5 2301     		.2byte	0x123
 3934 03f7 AE020000 		.4byte	0x2ae
 3935 03fb 02       		.byte	0x2
 3936 03fc 23       		.byte	0x23
 3937 03fd 50       		.uleb128 0x50
 3938 03fe 0C       		.uleb128 0xc
 3939 03ff 723900   		.ascii	"r9\000"
 3940 0402 07       		.byte	0x7
 3941 0403 2401     		.2byte	0x124
 3942 0405 AE020000 		.4byte	0x2ae
 3943 0409 02       		.byte	0x2
 3944 040a 23       		.byte	0x23
 3945 040b 54       		.uleb128 0x54
 3946 040c 0C       		.uleb128 0xc
 3947 040d 72313000 		.ascii	"r10\000"
 3948 0411 07       		.byte	0x7
 3949 0412 2501     		.2byte	0x125
 3950 0414 AE020000 		.4byte	0x2ae
 3951 0418 02       		.byte	0x2
 3952 0419 23       		.byte	0x23
 3953 041a 58       		.uleb128 0x58
 3954 041b 0C       		.uleb128 0xc
 3955 041c 72313100 		.ascii	"r11\000"
 3956 0420 07       		.byte	0x7
 3957 0421 2601     		.2byte	0x126
 3958 0423 AE020000 		.4byte	0x2ae
 3959 0427 02       		.byte	0x2
 3960 0428 23       		.byte	0x23
ARM GAS  C:\Users\jenny\AppData\Local\Temp\ccWqzXsD.s 			page 71


 3961 0429 5C       		.uleb128 0x5c
 3962 042a 0C       		.uleb128 0xc
 3963 042b 6C7200   		.ascii	"lr\000"
 3964 042e 07       		.byte	0x7
 3965 042f 2701     		.2byte	0x127
 3966 0431 AE020000 		.4byte	0x2ae
 3967 0435 02       		.byte	0x2
 3968 0436 23       		.byte	0x23
 3969 0437 60       		.uleb128 0x60
 3970 0438 00       		.byte	0
 3971 0439 0B       		.uleb128 0xb
 3972 043a 42030000 		.4byte	.LASF50
 3973 043e 04       		.byte	0x4
 3974 043f 07       		.byte	0x7
 3975 0440 3101     		.2byte	0x131
 3976 0442 56040000 		.4byte	0x456
 3977 0446 0C       		.uleb128 0xc
 3978 0447 72313300 		.ascii	"r13\000"
 3979 044b 07       		.byte	0x7
 3980 044c 3201     		.2byte	0x132
 3981 044e 56040000 		.4byte	0x456
 3982 0452 02       		.byte	0x2
 3983 0453 23       		.byte	0x23
 3984 0454 00       		.uleb128 0
 3985 0455 00       		.byte	0
 3986 0456 09       		.uleb128 0x9
 3987 0457 04       		.byte	0x4
 3988 0458 BB020000 		.4byte	0x2bb
 3989 045c 04       		.uleb128 0x4
 3990 045d 04       		.byte	0x4
 3991 045e 07       		.byte	0x7
 3992 045f 18000000 		.4byte	.LASF51
 3993 0463 0D       		.uleb128 0xd
 3994 0464 10010000 		.4byte	0x110
 3995 0468 05       		.uleb128 0x5
 3996 0469 C6080000 		.4byte	.LASF52
 3997 046d 0C       		.byte	0xc
 3998 046e 08       		.byte	0x8
 3999 046f 2C       		.byte	0x2c
 4000 0470 91040000 		.4byte	0x491
 4001 0474 06       		.uleb128 0x6
 4002 0475 170B0000 		.4byte	.LASF53
 4003 0479 08       		.byte	0x8
 4004 047a 2D       		.byte	0x2d
 4005 047b 81020000 		.4byte	0x281
 4006 047f 02       		.byte	0x2
 4007 0480 23       		.byte	0x23
 4008 0481 00       		.uleb128 0
 4009 0482 06       		.uleb128 0x6
 4010 0483 15090000 		.4byte	.LASF54
 4011 0487 08       		.byte	0x8
 4012 0488 2F       		.byte	0x2f
 4013 0489 1B010000 		.4byte	0x11b
 4014 048d 02       		.byte	0x2
 4015 048e 23       		.byte	0x23
 4016 048f 08       		.uleb128 0x8
 4017 0490 00       		.byte	0
ARM GAS  C:\Users\jenny\AppData\Local\Temp\ccWqzXsD.s 			page 72


 4018 0491 03       		.uleb128 0x3
 4019 0492 C6080000 		.4byte	.LASF52
 4020 0496 08       		.byte	0x8
 4021 0497 30       		.byte	0x30
 4022 0498 68040000 		.4byte	0x468
 4023 049c 05       		.uleb128 0x5
 4024 049d FE060000 		.4byte	.LASF55
 4025 04a1 10       		.byte	0x10
 4026 04a2 09       		.byte	0x9
 4027 04a3 2C       		.byte	0x2c
 4028 04a4 D3040000 		.4byte	0x4d3
 4029 04a8 06       		.uleb128 0x6
 4030 04a9 41070000 		.4byte	.LASF56
 4031 04ad 09       		.byte	0x9
 4032 04ae 2D       		.byte	0x2d
 4033 04af 81020000 		.4byte	0x281
 4034 04b3 02       		.byte	0x2
 4035 04b4 23       		.byte	0x23
 4036 04b5 00       		.uleb128 0
 4037 04b6 06       		.uleb128 0x6
 4038 04b7 BE010000 		.4byte	.LASF57
 4039 04bb 09       		.byte	0x9
 4040 04bc 2F       		.byte	0x2f
 4041 04bd 7B020000 		.4byte	0x27b
 4042 04c1 02       		.byte	0x2
 4043 04c2 23       		.byte	0x23
 4044 04c3 08       		.uleb128 0x8
 4045 04c4 06       		.uleb128 0x6
 4046 04c5 4F0D0000 		.4byte	.LASF58
 4047 04c9 09       		.byte	0x9
 4048 04ca 31       		.byte	0x31
 4049 04cb D3040000 		.4byte	0x4d3
 4050 04cf 02       		.byte	0x2
 4051 04d0 23       		.byte	0x23
 4052 04d1 0C       		.uleb128 0xc
 4053 04d2 00       		.byte	0
 4054 04d3 09       		.uleb128 0x9
 4055 04d4 04       		.byte	0x4
 4056 04d5 9C040000 		.4byte	0x49c
 4057 04d9 03       		.uleb128 0x3
 4058 04da FE060000 		.4byte	.LASF55
 4059 04de 09       		.byte	0x9
 4060 04df 33       		.byte	0x33
 4061 04e0 9C040000 		.4byte	0x49c
 4062 04e4 08       		.uleb128 0x8
 4063 04e5 28       		.byte	0x28
 4064 04e6 0A       		.byte	0xa
 4065 04e7 33       		.byte	0x33
 4066 04e8 41050000 		.4byte	0x541
 4067 04ec 06       		.uleb128 0x6
 4068 04ed C1000000 		.4byte	.LASF59
 4069 04f1 0A       		.byte	0xa
 4070 04f2 34       		.byte	0x34
 4071 04f3 41050000 		.4byte	0x541
 4072 04f7 02       		.byte	0x2
 4073 04f8 23       		.byte	0x23
 4074 04f9 00       		.uleb128 0
ARM GAS  C:\Users\jenny\AppData\Local\Temp\ccWqzXsD.s 			page 73


 4075 04fa 06       		.uleb128 0x6
 4076 04fb F4080000 		.4byte	.LASF60
 4077 04ff 0A       		.byte	0xa
 4078 0500 36       		.byte	0x36
 4079 0501 41050000 		.4byte	0x541
 4080 0505 02       		.byte	0x2
 4081 0506 23       		.byte	0x23
 4082 0507 04       		.uleb128 0x4
 4083 0508 06       		.uleb128 0x6
 4084 0509 5A070000 		.4byte	.LASF61
 4085 050d 0A       		.byte	0xa
 4086 050e 38       		.byte	0x38
 4087 050f 41050000 		.4byte	0x541
 4088 0513 02       		.byte	0x2
 4089 0514 23       		.byte	0x23
 4090 0515 08       		.uleb128 0x8
 4091 0516 06       		.uleb128 0x6
 4092 0517 2D030000 		.4byte	.LASF62
 4093 051b 0A       		.byte	0xa
 4094 051c 39       		.byte	0x39
 4095 051d 41050000 		.4byte	0x541
 4096 0521 02       		.byte	0x2
 4097 0522 23       		.byte	0x23
 4098 0523 0C       		.uleb128 0xc
 4099 0524 06       		.uleb128 0x6
 4100 0525 BE060000 		.4byte	.LASF63
 4101 0529 0A       		.byte	0xa
 4102 052a 3A       		.byte	0x3a
 4103 052b 91040000 		.4byte	0x491
 4104 052f 02       		.byte	0x2
 4105 0530 23       		.byte	0x23
 4106 0531 10       		.uleb128 0x10
 4107 0532 06       		.uleb128 0x6
 4108 0533 3D040000 		.4byte	.LASF64
 4109 0537 0A       		.byte	0xa
 4110 0538 3C       		.byte	0x3c
 4111 0539 91040000 		.4byte	0x491
 4112 053d 02       		.byte	0x2
 4113 053e 23       		.byte	0x23
 4114 053f 1C       		.uleb128 0x1c
 4115 0540 00       		.byte	0
 4116 0541 09       		.uleb128 0x9
 4117 0542 04       		.byte	0x4
 4118 0543 FA000000 		.4byte	0xfa
 4119 0547 03       		.uleb128 0x3
 4120 0548 EB050000 		.4byte	.LASF65
 4121 054c 0A       		.byte	0xa
 4122 054d 3E       		.byte	0x3e
 4123 054e E4040000 		.4byte	0x4e4
 4124 0552 0E       		.uleb128 0xe
 4125 0553 04       		.byte	0x4
 4126 0554 06       		.byte	0x6
 4127 0555 96       		.byte	0x96
 4128 0556 87050000 		.4byte	0x587
 4129 055a 0F       		.uleb128 0xf
 4130 055b A70C0000 		.4byte	.LASF66
 4131 055f 06       		.byte	0x6
ARM GAS  C:\Users\jenny\AppData\Local\Temp\ccWqzXsD.s 			page 74


 4132 0560 9D       		.byte	0x9d
 4133 0561 FA000000 		.4byte	0xfa
 4134 0565 0F       		.uleb128 0xf
 4135 0566 CE010000 		.4byte	.LASF67
 4136 056a 06       		.byte	0x6
 4137 056b A4       		.byte	0xa4
 4138 056c FA000000 		.4byte	0xfa
 4139 0570 0F       		.uleb128 0xf
 4140 0571 49040000 		.4byte	.LASF68
 4141 0575 06       		.byte	0x6
 4142 0576 AB       		.byte	0xab
 4143 0577 B9020000 		.4byte	0x2b9
 4144 057b 0F       		.uleb128 0xf
 4145 057c DF010000 		.4byte	.LASF69
 4146 0580 06       		.byte	0x6
 4147 0581 B2       		.byte	0xb2
 4148 0582 05010000 		.4byte	0x105
 4149 0586 00       		.byte	0
 4150 0587 09       		.uleb128 0x9
 4151 0588 04       		.byte	0x4
 4152 0589 8D050000 		.4byte	0x58d
 4153 058d 10       		.uleb128 0x10
 4154 058e 92050000 		.4byte	0x592
 4155 0592 04       		.uleb128 0x4
 4156 0593 01       		.byte	0x1
 4157 0594 08       		.byte	0x8
 4158 0595 19040000 		.4byte	.LASF70
 4159 0599 09       		.uleb128 0x9
 4160 059a 04       		.byte	0x4
 4161 059b D9040000 		.4byte	0x4d9
 4162 059f 03       		.uleb128 0x3
 4163 05a0 C60C0000 		.4byte	.LASF71
 4164 05a4 0B       		.byte	0xb
 4165 05a5 38       		.byte	0x38
 4166 05a6 54000000 		.4byte	0x54
 4167 05aa 03       		.uleb128 0x3
 4168 05ab C10C0000 		.4byte	.LASF72
 4169 05af 0B       		.byte	0xb
 4170 05b0 39       		.byte	0x39
 4171 05b1 42000000 		.4byte	0x42
 4172 05b5 03       		.uleb128 0x3
 4173 05b6 CD070000 		.4byte	.LASF73
 4174 05ba 0B       		.byte	0xb
 4175 05bb 3A       		.byte	0x3a
 4176 05bc 78000000 		.4byte	0x78
 4177 05c0 03       		.uleb128 0x3
 4178 05c1 260C0000 		.4byte	.LASF74
 4179 05c5 0B       		.byte	0xb
 4180 05c6 3B       		.byte	0x3b
 4181 05c7 66000000 		.4byte	0x66
 4182 05cb 03       		.uleb128 0x3
 4183 05cc D90A0000 		.4byte	.LASF75
 4184 05d0 0B       		.byte	0xb
 4185 05d1 3C       		.byte	0x3c
 4186 05d2 9C000000 		.4byte	0x9c
 4187 05d6 05       		.uleb128 0x5
 4188 05d7 82040000 		.4byte	.LASF76
ARM GAS  C:\Users\jenny\AppData\Local\Temp\ccWqzXsD.s 			page 75


 4189 05db 04       		.byte	0x4
 4190 05dc 0C       		.byte	0xc
 4191 05dd 2C       		.byte	0x2c
 4192 05de F1050000 		.4byte	0x5f1
 4193 05e2 06       		.uleb128 0x6
 4194 05e3 9B070000 		.4byte	.LASF77
 4195 05e7 0C       		.byte	0xc
 4196 05e8 2D       		.byte	0x2d
 4197 05e9 CB050000 		.4byte	0x5cb
 4198 05ed 02       		.byte	0x2
 4199 05ee 23       		.byte	0x23
 4200 05ef 00       		.uleb128 0
 4201 05f0 00       		.byte	0
 4202 05f1 03       		.uleb128 0x3
 4203 05f2 BC080000 		.4byte	.LASF78
 4204 05f6 0C       		.byte	0xc
 4205 05f7 40       		.byte	0x40
 4206 05f8 D6050000 		.4byte	0x5d6
 4207 05fc 03       		.uleb128 0x3
 4208 05fd DB080000 		.4byte	.LASF79
 4209 0601 0D       		.byte	0xd
 4210 0602 2F       		.byte	0x2f
 4211 0603 AA050000 		.4byte	0x5aa
 4212 0607 03       		.uleb128 0x3
 4213 0608 58020000 		.4byte	.LASF80
 4214 060c 0E       		.byte	0xe
 4215 060d 38       		.byte	0x38
 4216 060e 12060000 		.4byte	0x612
 4217 0612 09       		.uleb128 0x9
 4218 0613 04       		.byte	0x4
 4219 0614 91040000 		.4byte	0x491
 4220 0618 03       		.uleb128 0x3
 4221 0619 F3060000 		.4byte	.LASF81
 4222 061d 0E       		.byte	0xe
 4223 061e 39       		.byte	0x39
 4224 061f 23060000 		.4byte	0x623
 4225 0623 09       		.uleb128 0x9
 4226 0624 04       		.byte	0x4
 4227 0625 47050000 		.4byte	0x547
 4228 0629 11       		.uleb128 0x11
 4229 062a 01       		.byte	0x1
 4230 062b 0F       		.byte	0xf
 4231 062c 32       		.byte	0x32
 4232 062d 4A060000 		.4byte	0x64a
 4233 0631 12       		.uleb128 0x12
 4234 0632 6E0C0000 		.4byte	.LASF82
 4235 0636 00       		.sleb128 0
 4236 0637 12       		.uleb128 0x12
 4237 0638 F9070000 		.4byte	.LASF83
 4238 063c 01       		.sleb128 1
 4239 063d 12       		.uleb128 0x12
 4240 063e AB0D0000 		.4byte	.LASF84
 4241 0642 02       		.sleb128 2
 4242 0643 12       		.uleb128 0x12
 4243 0644 3A0D0000 		.4byte	.LASF85
 4244 0648 03       		.sleb128 3
 4245 0649 00       		.byte	0
ARM GAS  C:\Users\jenny\AppData\Local\Temp\ccWqzXsD.s 			page 76


 4246 064a 03       		.uleb128 0x3
 4247 064b 630A0000 		.4byte	.LASF86
 4248 064f 0F       		.byte	0xf
 4249 0650 37       		.byte	0x37
 4250 0651 29060000 		.4byte	0x629
 4251 0655 11       		.uleb128 0x11
 4252 0656 01       		.byte	0x1
 4253 0657 0F       		.byte	0xf
 4254 0658 39       		.byte	0x39
 4255 0659 76060000 		.4byte	0x676
 4256 065d 12       		.uleb128 0x12
 4257 065e 230D0000 		.4byte	.LASF87
 4258 0662 00       		.sleb128 0
 4259 0663 12       		.uleb128 0x12
 4260 0664 2C060000 		.4byte	.LASF88
 4261 0668 01       		.sleb128 1
 4262 0669 12       		.uleb128 0x12
 4263 066a 28010000 		.4byte	.LASF89
 4264 066e 02       		.sleb128 2
 4265 066f 12       		.uleb128 0x12
 4266 0670 D5030000 		.4byte	.LASF90
 4267 0674 03       		.sleb128 3
 4268 0675 00       		.byte	0
 4269 0676 03       		.uleb128 0x3
 4270 0677 3C080000 		.4byte	.LASF91
 4271 067b 0F       		.byte	0xf
 4272 067c 3E       		.byte	0x3e
 4273 067d 55060000 		.4byte	0x655
 4274 0681 05       		.uleb128 0x5
 4275 0682 1E040000 		.4byte	.LASF92
 4276 0686 10       		.byte	0x10
 4277 0687 0F       		.byte	0xf
 4278 0688 4F       		.byte	0x4f
 4279 0689 F0060000 		.4byte	0x6f0
 4280 068d 06       		.uleb128 0x6
 4281 068e 4A0D0000 		.4byte	.LASF93
 4282 0692 0F       		.byte	0xf
 4283 0693 51       		.byte	0x51
 4284 0694 F0060000 		.4byte	0x6f0
 4285 0698 02       		.byte	0x2
 4286 0699 23       		.byte	0x23
 4287 069a 00       		.uleb128 0
 4288 069b 06       		.uleb128 0x6
 4289 069c 93060000 		.4byte	.LASF94
 4290 06a0 0F       		.byte	0xf
 4291 06a1 54       		.byte	0x54
 4292 06a2 B9020000 		.4byte	0x2b9
 4293 06a6 02       		.byte	0x2
 4294 06a7 23       		.byte	0x23
 4295 06a8 04       		.uleb128 0x4
 4296 06a9 06       		.uleb128 0x6
 4297 06aa A6080000 		.4byte	.LASF95
 4298 06ae 0F       		.byte	0xf
 4299 06af 5D       		.byte	0x5d
 4300 06b0 B5050000 		.4byte	0x5b5
 4301 06b4 02       		.byte	0x2
 4302 06b5 23       		.byte	0x23
ARM GAS  C:\Users\jenny\AppData\Local\Temp\ccWqzXsD.s 			page 77


 4303 06b6 08       		.uleb128 0x8
 4304 06b7 07       		.uleb128 0x7
 4305 06b8 6C656E00 		.ascii	"len\000"
 4306 06bc 0F       		.byte	0xf
 4307 06bd 60       		.byte	0x60
 4308 06be B5050000 		.4byte	0x5b5
 4309 06c2 02       		.byte	0x2
 4310 06c3 23       		.byte	0x23
 4311 06c4 0A       		.uleb128 0xa
 4312 06c5 06       		.uleb128 0x6
 4313 06c6 13010000 		.4byte	.LASF96
 4314 06ca 0F       		.byte	0xf
 4315 06cb 63       		.byte	0x63
 4316 06cc 9F050000 		.4byte	0x59f
 4317 06d0 02       		.byte	0x2
 4318 06d1 23       		.byte	0x23
 4319 06d2 0C       		.uleb128 0xc
 4320 06d3 06       		.uleb128 0x6
 4321 06d4 FE030000 		.4byte	.LASF97
 4322 06d8 0F       		.byte	0xf
 4323 06d9 66       		.byte	0x66
 4324 06da 9F050000 		.4byte	0x59f
 4325 06de 02       		.byte	0x2
 4326 06df 23       		.byte	0x23
 4327 06e0 0D       		.uleb128 0xd
 4328 06e1 07       		.uleb128 0x7
 4329 06e2 72656600 		.ascii	"ref\000"
 4330 06e6 0F       		.byte	0xf
 4331 06e7 6D       		.byte	0x6d
 4332 06e8 B5050000 		.4byte	0x5b5
 4333 06ec 02       		.byte	0x2
 4334 06ed 23       		.byte	0x23
 4335 06ee 0E       		.uleb128 0xe
 4336 06ef 00       		.byte	0
 4337 06f0 09       		.uleb128 0x9
 4338 06f1 04       		.byte	0x4
 4339 06f2 81060000 		.4byte	0x681
 4340 06f6 09       		.uleb128 0x9
 4341 06f7 04       		.byte	0x4
 4342 06f8 F1050000 		.4byte	0x5f1
 4343 06fc 05       		.uleb128 0x5
 4344 06fd 6B040000 		.4byte	.LASF98
 4345 0701 10       		.byte	0x10
 4346 0702 10       		.byte	0x10
 4347 0703 30       		.byte	0x30
 4348 0704 3F070000 		.4byte	0x73f
 4349 0708 07       		.uleb128 0x7
 4350 0709 7000     		.ascii	"p\000"
 4351 070b 10       		.byte	0x10
 4352 070c 31       		.byte	0x31
 4353 070d F0060000 		.4byte	0x6f0
 4354 0711 02       		.byte	0x2
 4355 0712 23       		.byte	0x23
 4356 0713 00       		.uleb128 0
 4357 0714 07       		.uleb128 0x7
 4358 0715 70747200 		.ascii	"ptr\000"
 4359 0719 10       		.byte	0x10
ARM GAS  C:\Users\jenny\AppData\Local\Temp\ccWqzXsD.s 			page 78


 4360 071a 31       		.byte	0x31
 4361 071b F0060000 		.4byte	0x6f0
 4362 071f 02       		.byte	0x2
 4363 0720 23       		.byte	0x23
 4364 0721 04       		.uleb128 0x4
 4365 0722 06       		.uleb128 0x6
 4366 0723 9B070000 		.4byte	.LASF77
 4367 0727 10       		.byte	0x10
 4368 0728 32       		.byte	0x32
 4369 0729 F1050000 		.4byte	0x5f1
 4370 072d 02       		.byte	0x2
 4371 072e 23       		.byte	0x23
 4372 072f 08       		.uleb128 0x8
 4373 0730 06       		.uleb128 0x6
 4374 0731 1F0B0000 		.4byte	.LASF99
 4375 0735 10       		.byte	0x10
 4376 0736 33       		.byte	0x33
 4377 0737 B5050000 		.4byte	0x5b5
 4378 073b 02       		.byte	0x2
 4379 073c 23       		.byte	0x23
 4380 073d 0C       		.uleb128 0xc
 4381 073e 00       		.byte	0
 4382 073f 13       		.uleb128 0x13
 4383 0740 2F080000 		.4byte	.LASF106
 4384 0744 01       		.byte	0x1
 4385 0745 11       		.byte	0x11
 4386 0746 53       		.byte	0x53
 4387 0747 71070000 		.4byte	0x771
 4388 074b 12       		.uleb128 0x12
 4389 074c A9010000 		.4byte	.LASF100
 4390 0750 00       		.sleb128 0
 4391 0751 12       		.uleb128 0x12
 4392 0752 E8030000 		.4byte	.LASF101
 4393 0756 10       		.sleb128 16
 4394 0757 12       		.uleb128 0x12
 4395 0758 04070000 		.4byte	.LASF102
 4396 075c 20       		.sleb128 32
 4397 075d 12       		.uleb128 0x12
 4398 075e 710B0000 		.4byte	.LASF103
 4399 0762 21       		.sleb128 33
 4400 0763 12       		.uleb128 0x12
 4401 0764 EA000000 		.4byte	.LASF104
 4402 0768 22       		.sleb128 34
 4403 0769 12       		.uleb128 0x12
 4404 076a 0B0B0000 		.4byte	.LASF105
 4405 076e C000     		.sleb128 64
 4406 0770 00       		.byte	0
 4407 0771 13       		.uleb128 0x13
 4408 0772 83070000 		.4byte	.LASF107
 4409 0776 01       		.byte	0x1
 4410 0777 11       		.byte	0x11
 4411 0778 61       		.byte	0x61
 4412 0779 9C070000 		.4byte	0x79c
 4413 077d 12       		.uleb128 0x12
 4414 077e E60B0000 		.4byte	.LASF108
 4415 0782 00       		.sleb128 0
 4416 0783 12       		.uleb128 0x12
ARM GAS  C:\Users\jenny\AppData\Local\Temp\ccWqzXsD.s 			page 79


 4417 0784 4A020000 		.4byte	.LASF109
 4418 0788 01       		.sleb128 1
 4419 0789 12       		.uleb128 0x12
 4420 078a 540B0000 		.4byte	.LASF110
 4421 078e 02       		.sleb128 2
 4422 078f 12       		.uleb128 0x12
 4423 0790 96080000 		.4byte	.LASF111
 4424 0794 03       		.sleb128 3
 4425 0795 12       		.uleb128 0x12
 4426 0796 00060000 		.4byte	.LASF112
 4427 079a 04       		.sleb128 4
 4428 079b 00       		.byte	0
 4429 079c 13       		.uleb128 0x13
 4430 079d 87020000 		.4byte	.LASF113
 4431 07a1 01       		.byte	0x1
 4432 07a2 11       		.byte	0x11
 4433 07a3 6A       		.byte	0x6a
 4434 07a4 C7070000 		.4byte	0x7c7
 4435 07a8 12       		.uleb128 0x12
 4436 07a9 930C0000 		.4byte	.LASF114
 4437 07ad 00       		.sleb128 0
 4438 07ae 12       		.uleb128 0x12
 4439 07af 4E0A0000 		.4byte	.LASF115
 4440 07b3 01       		.sleb128 1
 4441 07b4 12       		.uleb128 0x12
 4442 07b5 35060000 		.4byte	.LASF116
 4443 07b9 02       		.sleb128 2
 4444 07ba 12       		.uleb128 0x12
 4445 07bb FE090000 		.4byte	.LASF117
 4446 07bf 03       		.sleb128 3
 4447 07c0 12       		.uleb128 0x12
 4448 07c1 19020000 		.4byte	.LASF118
 4449 07c5 04       		.sleb128 4
 4450 07c6 00       		.byte	0
 4451 07c7 03       		.uleb128 0x3
 4452 07c8 550C0000 		.4byte	.LASF119
 4453 07cc 11       		.byte	0x11
 4454 07cd 83       		.byte	0x83
 4455 07ce D2070000 		.4byte	0x7d2
 4456 07d2 09       		.uleb128 0x9
 4457 07d3 04       		.byte	0x4
 4458 07d4 D8070000 		.4byte	0x7d8
 4459 07d8 14       		.uleb128 0x14
 4460 07d9 01       		.byte	0x1
 4461 07da EE070000 		.4byte	0x7ee
 4462 07de 15       		.uleb128 0x15
 4463 07df EE070000 		.4byte	0x7ee
 4464 07e3 15       		.uleb128 0x15
 4465 07e4 9C070000 		.4byte	0x79c
 4466 07e8 15       		.uleb128 0x15
 4467 07e9 B5050000 		.4byte	0x5b5
 4468 07ed 00       		.byte	0
 4469 07ee 09       		.uleb128 0x9
 4470 07ef 04       		.byte	0x4
 4471 07f0 F4070000 		.4byte	0x7f4
 4472 07f4 05       		.uleb128 0x5
 4473 07f5 E6010000 		.4byte	.LASF120
ARM GAS  C:\Users\jenny\AppData\Local\Temp\ccWqzXsD.s 			page 80


 4474 07f9 2C       		.byte	0x2c
 4475 07fa 11       		.byte	0x11
 4476 07fb 86       		.byte	0x86
 4477 07fc A9080000 		.4byte	0x8a9
 4478 0800 06       		.uleb128 0x6
 4479 0801 13010000 		.4byte	.LASF96
 4480 0805 11       		.byte	0x11
 4481 0806 88       		.byte	0x88
 4482 0807 3F070000 		.4byte	0x73f
 4483 080b 02       		.byte	0x2
 4484 080c 23       		.byte	0x23
 4485 080d 00       		.uleb128 0
 4486 080e 06       		.uleb128 0x6
 4487 080f D2000000 		.4byte	.LASF121
 4488 0813 11       		.byte	0x11
 4489 0814 8A       		.byte	0x8a
 4490 0815 71070000 		.4byte	0x771
 4491 0819 02       		.byte	0x2
 4492 081a 23       		.byte	0x23
 4493 081b 01       		.uleb128 0x1
 4494 081c 07       		.uleb128 0x7
 4495 081d 70636200 		.ascii	"pcb\000"
 4496 0821 11       		.byte	0x11
 4497 0822 91       		.byte	0x91
 4498 0823 A9080000 		.4byte	0x8a9
 4499 0827 02       		.byte	0x2
 4500 0828 23       		.byte	0x23
 4501 0829 04       		.uleb128 0x4
 4502 082a 06       		.uleb128 0x6
 4503 082b 7C0D0000 		.4byte	.LASF122
 4504 082f 11       		.byte	0x11
 4505 0830 93       		.byte	0x93
 4506 0831 FC050000 		.4byte	0x5fc
 4507 0835 02       		.byte	0x2
 4508 0836 23       		.byte	0x23
 4509 0837 08       		.uleb128 0x8
 4510 0838 06       		.uleb128 0x6
 4511 0839 04020000 		.4byte	.LASF123
 4512 083d 11       		.byte	0x11
 4513 083e 95       		.byte	0x95
 4514 083f 07060000 		.4byte	0x607
 4515 0843 02       		.byte	0x2
 4516 0844 23       		.byte	0x23
 4517 0845 0C       		.uleb128 0xc
 4518 0846 06       		.uleb128 0x6
 4519 0847 8A0C0000 		.4byte	.LASF124
 4520 084b 11       		.byte	0x11
 4521 084c 98       		.byte	0x98
 4522 084d 18060000 		.4byte	0x618
 4523 0851 02       		.byte	0x2
 4524 0852 23       		.byte	0x23
 4525 0853 10       		.uleb128 0x10
 4526 0854 06       		.uleb128 0x6
 4527 0855 6B060000 		.4byte	.LASF125
 4528 0859 11       		.byte	0x11
 4529 085a 9C       		.byte	0x9c
 4530 085b 18060000 		.4byte	0x618
ARM GAS  C:\Users\jenny\AppData\Local\Temp\ccWqzXsD.s 			page 81


 4531 085f 02       		.byte	0x2
 4532 0860 23       		.byte	0x23
 4533 0861 14       		.uleb128 0x14
 4534 0862 06       		.uleb128 0x6
 4535 0863 170C0000 		.4byte	.LASF126
 4536 0867 11       		.byte	0x11
 4537 0868 A0       		.byte	0xa0
 4538 0869 29000000 		.4byte	0x29
 4539 086d 02       		.byte	0x2
 4540 086e 23       		.byte	0x23
 4541 086f 18       		.uleb128 0x18
 4542 0870 06       		.uleb128 0x6
 4543 0871 FE030000 		.4byte	.LASF97
 4544 0875 11       		.byte	0x11
 4545 0876 B6       		.byte	0xb6
 4546 0877 9F050000 		.4byte	0x59f
 4547 087b 02       		.byte	0x2
 4548 087c 23       		.byte	0x23
 4549 087d 1C       		.uleb128 0x1c
 4550 087e 06       		.uleb128 0x6
 4551 087f E70A0000 		.4byte	.LASF127
 4552 0883 11       		.byte	0x11
 4553 0884 BA       		.byte	0xba
 4554 0885 30000000 		.4byte	0x30
 4555 0889 02       		.byte	0x2
 4556 088a 23       		.byte	0x23
 4557 088b 20       		.uleb128 0x20
 4558 088c 06       		.uleb128 0x6
 4559 088d 0E060000 		.4byte	.LASF128
 4560 0891 11       		.byte	0x11
 4561 0892 BE       		.byte	0xbe
 4562 0893 DB0D0000 		.4byte	0xddb
 4563 0897 02       		.byte	0x2
 4564 0898 23       		.byte	0x23
 4565 0899 24       		.uleb128 0x24
 4566 089a 06       		.uleb128 0x6
 4567 089b 7F060000 		.4byte	.LASF129
 4568 089f 11       		.byte	0x11
 4569 08a0 C1       		.byte	0xc1
 4570 08a1 C7070000 		.4byte	0x7c7
 4571 08a5 02       		.byte	0x2
 4572 08a6 23       		.byte	0x23
 4573 08a7 28       		.uleb128 0x28
 4574 08a8 00       		.byte	0
 4575 08a9 0E       		.uleb128 0xe
 4576 08aa 04       		.byte	0x4
 4577 08ab 11       		.byte	0x11
 4578 08ac 8C       		.byte	0x8c
 4579 08ad DD080000 		.4byte	0x8dd
 4580 08b1 16       		.uleb128 0x16
 4581 08b2 697000   		.ascii	"ip\000"
 4582 08b5 11       		.byte	0x11
 4583 08b6 8D       		.byte	0x8d
 4584 08b7 30090000 		.4byte	0x930
 4585 08bb 16       		.uleb128 0x16
 4586 08bc 74637000 		.ascii	"tcp\000"
 4587 08c0 11       		.byte	0x11
ARM GAS  C:\Users\jenny\AppData\Local\Temp\ccWqzXsD.s 			page 82


 4588 08c1 8E       		.byte	0x8e
 4589 08c2 600C0000 		.4byte	0xc60
 4590 08c6 16       		.uleb128 0x16
 4591 08c7 75647000 		.ascii	"udp\000"
 4592 08cb 11       		.byte	0x11
 4593 08cc 8F       		.byte	0x8f
 4594 08cd 0D0D0000 		.4byte	0xd0d
 4595 08d1 16       		.uleb128 0x16
 4596 08d2 72617700 		.ascii	"raw\000"
 4597 08d6 11       		.byte	0x11
 4598 08d7 90       		.byte	0x90
 4599 08d8 9E0D0000 		.4byte	0xd9e
 4600 08dc 00       		.byte	0
 4601 08dd 05       		.uleb128 0x5
 4602 08de 2C070000 		.4byte	.LASF130
 4603 08e2 0C       		.byte	0xc
 4604 08e3 12       		.byte	0x12
 4605 08e4 59       		.byte	0x59
 4606 08e5 30090000 		.4byte	0x930
 4607 08e9 06       		.uleb128 0x6
 4608 08ea 4A030000 		.4byte	.LASF131
 4609 08ee 12       		.byte	0x12
 4610 08ef 5B       		.byte	0x5b
 4611 08f0 F1050000 		.4byte	0x5f1
 4612 08f4 02       		.byte	0x2
 4613 08f5 23       		.byte	0x23
 4614 08f6 00       		.uleb128 0
 4615 08f7 06       		.uleb128 0x6
 4616 08f8 B50A0000 		.4byte	.LASF132
 4617 08fc 12       		.byte	0x12
 4618 08fd 5B       		.byte	0x5b
 4619 08fe F1050000 		.4byte	0x5f1
 4620 0902 02       		.byte	0x2
 4621 0903 23       		.byte	0x23
 4622 0904 04       		.uleb128 0x4
 4623 0905 06       		.uleb128 0x6
 4624 0906 A5000000 		.4byte	.LASF133
 4625 090a 12       		.byte	0x12
 4626 090b 5B       		.byte	0x5b
 4627 090c 9F050000 		.4byte	0x59f
 4628 0910 02       		.byte	0x2
 4629 0911 23       		.byte	0x23
 4630 0912 08       		.uleb128 0x8
 4631 0913 07       		.uleb128 0x7
 4632 0914 746F7300 		.ascii	"tos\000"
 4633 0918 12       		.byte	0x12
 4634 0919 5B       		.byte	0x5b
 4635 091a 9F050000 		.4byte	0x59f
 4636 091e 02       		.byte	0x2
 4637 091f 23       		.byte	0x23
 4638 0920 09       		.uleb128 0x9
 4639 0921 07       		.uleb128 0x7
 4640 0922 74746C00 		.ascii	"ttl\000"
 4641 0926 12       		.byte	0x12
 4642 0927 5B       		.byte	0x5b
 4643 0928 9F050000 		.4byte	0x59f
 4644 092c 02       		.byte	0x2
ARM GAS  C:\Users\jenny\AppData\Local\Temp\ccWqzXsD.s 			page 83


 4645 092d 23       		.byte	0x23
 4646 092e 0A       		.uleb128 0xa
 4647 092f 00       		.byte	0
 4648 0930 09       		.uleb128 0x9
 4649 0931 04       		.byte	0x4
 4650 0932 DD080000 		.4byte	0x8dd
 4651 0936 05       		.uleb128 0x5
 4652 0937 63040000 		.4byte	.LASF134
 4653 093b 98       		.byte	0x98
 4654 093c 13       		.byte	0x13
 4655 093d A8       		.byte	0xa8
 4656 093e 600C0000 		.4byte	0xc60
 4657 0942 06       		.uleb128 0x6
 4658 0943 4A030000 		.4byte	.LASF131
 4659 0947 13       		.byte	0x13
 4660 0948 AA       		.byte	0xaa
 4661 0949 F1050000 		.4byte	0x5f1
 4662 094d 02       		.byte	0x2
 4663 094e 23       		.byte	0x23
 4664 094f 00       		.uleb128 0
 4665 0950 06       		.uleb128 0x6
 4666 0951 B50A0000 		.4byte	.LASF132
 4667 0955 13       		.byte	0x13
 4668 0956 AA       		.byte	0xaa
 4669 0957 F1050000 		.4byte	0x5f1
 4670 095b 02       		.byte	0x2
 4671 095c 23       		.byte	0x23
 4672 095d 04       		.uleb128 0x4
 4673 095e 06       		.uleb128 0x6
 4674 095f A5000000 		.4byte	.LASF133
 4675 0963 13       		.byte	0x13
 4676 0964 AA       		.byte	0xaa
 4677 0965 9F050000 		.4byte	0x59f
 4678 0969 02       		.byte	0x2
 4679 096a 23       		.byte	0x23
 4680 096b 08       		.uleb128 0x8
 4681 096c 07       		.uleb128 0x7
 4682 096d 746F7300 		.ascii	"tos\000"
 4683 0971 13       		.byte	0x13
 4684 0972 AA       		.byte	0xaa
 4685 0973 9F050000 		.4byte	0x59f
 4686 0977 02       		.byte	0x2
 4687 0978 23       		.byte	0x23
 4688 0979 09       		.uleb128 0x9
 4689 097a 07       		.uleb128 0x7
 4690 097b 74746C00 		.ascii	"ttl\000"
 4691 097f 13       		.byte	0x13
 4692 0980 AA       		.byte	0xaa
 4693 0981 9F050000 		.4byte	0x59f
 4694 0985 02       		.byte	0x2
 4695 0986 23       		.byte	0x23
 4696 0987 0A       		.uleb128 0xa
 4697 0988 06       		.uleb128 0x6
 4698 0989 4A0D0000 		.4byte	.LASF93
 4699 098d 13       		.byte	0x13
 4700 098e AC       		.byte	0xac
 4701 098f 600C0000 		.4byte	0xc60
ARM GAS  C:\Users\jenny\AppData\Local\Temp\ccWqzXsD.s 			page 84


 4702 0993 02       		.byte	0x2
 4703 0994 23       		.byte	0x23
 4704 0995 0C       		.uleb128 0xc
 4705 0996 06       		.uleb128 0x6
 4706 0997 910B0000 		.4byte	.LASF135
 4707 099b 13       		.byte	0x13
 4708 099c AC       		.byte	0xac
 4709 099d B9020000 		.4byte	0x2b9
 4710 09a1 02       		.byte	0x2
 4711 09a2 23       		.byte	0x23
 4712 09a3 10       		.uleb128 0x10
 4713 09a4 06       		.uleb128 0x6
 4714 09a5 CC0B0000 		.4byte	.LASF136
 4715 09a9 13       		.byte	0x13
 4716 09aa AC       		.byte	0xac
 4717 09ab 400F0000 		.4byte	0xf40
 4718 09af 02       		.byte	0x2
 4719 09b0 23       		.byte	0x23
 4720 09b1 14       		.uleb128 0x14
 4721 09b2 06       		.uleb128 0x6
 4722 09b3 D2000000 		.4byte	.LASF121
 4723 09b7 13       		.byte	0x13
 4724 09b8 AC       		.byte	0xac
 4725 09b9 19100000 		.4byte	0x1019
 4726 09bd 02       		.byte	0x2
 4727 09be 23       		.byte	0x23
 4728 09bf 18       		.uleb128 0x18
 4729 09c0 06       		.uleb128 0x6
 4730 09c1 B9010000 		.4byte	.LASF137
 4731 09c5 13       		.byte	0x13
 4732 09c6 AC       		.byte	0xac
 4733 09c7 9F050000 		.4byte	0x59f
 4734 09cb 02       		.byte	0x2
 4735 09cc 23       		.byte	0x23
 4736 09cd 19       		.uleb128 0x19
 4737 09ce 06       		.uleb128 0x6
 4738 09cf 58040000 		.4byte	.LASF138
 4739 09d3 13       		.byte	0x13
 4740 09d4 AC       		.byte	0xac
 4741 09d5 B5050000 		.4byte	0x5b5
 4742 09d9 02       		.byte	0x2
 4743 09da 23       		.byte	0x23
 4744 09db 1A       		.uleb128 0x1a
 4745 09dc 06       		.uleb128 0x6
 4746 09dd 66090000 		.4byte	.LASF139
 4747 09e1 13       		.byte	0x13
 4748 09e2 AF       		.byte	0xaf
 4749 09e3 B5050000 		.4byte	0x5b5
 4750 09e7 02       		.byte	0x2
 4751 09e8 23       		.byte	0x23
 4752 09e9 1C       		.uleb128 0x1c
 4753 09ea 06       		.uleb128 0x6
 4754 09eb FE030000 		.4byte	.LASF97
 4755 09ef 13       		.byte	0x13
 4756 09f0 B1       		.byte	0xb1
 4757 09f1 9F050000 		.4byte	0x59f
 4758 09f5 02       		.byte	0x2
ARM GAS  C:\Users\jenny\AppData\Local\Temp\ccWqzXsD.s 			page 85


 4759 09f6 23       		.byte	0x23
 4760 09f7 1E       		.uleb128 0x1e
 4761 09f8 06       		.uleb128 0x6
 4762 09f9 C6010000 		.4byte	.LASF140
 4763 09fd 13       		.byte	0x13
 4764 09fe BF       		.byte	0xbf
 4765 09ff 9F050000 		.4byte	0x59f
 4766 0a03 02       		.byte	0x2
 4767 0a04 23       		.byte	0x23
 4768 0a05 1F       		.uleb128 0x1f
 4769 0a06 06       		.uleb128 0x6
 4770 0a07 76070000 		.4byte	.LASF141
 4771 0a0b 13       		.byte	0x13
 4772 0a0c BF       		.byte	0xbf
 4773 0a0d 9F050000 		.4byte	0x59f
 4774 0a11 02       		.byte	0x2
 4775 0a12 23       		.byte	0x23
 4776 0a13 20       		.uleb128 0x20
 4777 0a14 06       		.uleb128 0x6
 4778 0a15 C7050000 		.4byte	.LASF142
 4779 0a19 13       		.byte	0x13
 4780 0a1a C0       		.byte	0xc0
 4781 0a1b 9F050000 		.4byte	0x59f
 4782 0a1f 02       		.byte	0x2
 4783 0a20 23       		.byte	0x23
 4784 0a21 21       		.uleb128 0x21
 4785 0a22 07       		.uleb128 0x7
 4786 0a23 746D7200 		.ascii	"tmr\000"
 4787 0a27 13       		.byte	0x13
 4788 0a28 C1       		.byte	0xc1
 4789 0a29 CB050000 		.4byte	0x5cb
 4790 0a2d 02       		.byte	0x2
 4791 0a2e 23       		.byte	0x23
 4792 0a2f 24       		.uleb128 0x24
 4793 0a30 06       		.uleb128 0x6
 4794 0a31 F1070000 		.4byte	.LASF143
 4795 0a35 13       		.byte	0x13
 4796 0a36 C4       		.byte	0xc4
 4797 0a37 CB050000 		.4byte	0x5cb
 4798 0a3b 02       		.byte	0x2
 4799 0a3c 23       		.byte	0x23
 4800 0a3d 28       		.uleb128 0x28
 4801 0a3e 06       		.uleb128 0x6
 4802 0a3f 9D000000 		.4byte	.LASF144
 4803 0a43 13       		.byte	0x13
 4804 0a44 C5       		.byte	0xc5
 4805 0a45 B5050000 		.4byte	0x5b5
 4806 0a49 02       		.byte	0x2
 4807 0a4a 23       		.byte	0x23
 4808 0a4b 2C       		.uleb128 0x2c
 4809 0a4c 06       		.uleb128 0x6
 4810 0a4d 34000000 		.4byte	.LASF145
 4811 0a51 13       		.byte	0x13
 4812 0a52 C6       		.byte	0xc6
 4813 0a53 B5050000 		.4byte	0x5b5
 4814 0a57 02       		.byte	0x2
 4815 0a58 23       		.byte	0x23
ARM GAS  C:\Users\jenny\AppData\Local\Temp\ccWqzXsD.s 			page 86


 4816 0a59 2E       		.uleb128 0x2e
 4817 0a5a 06       		.uleb128 0x6
 4818 0a5b 7B050000 		.4byte	.LASF146
 4819 0a5f 13       		.byte	0x13
 4820 0a60 C7       		.byte	0xc7
 4821 0a61 CB050000 		.4byte	0x5cb
 4822 0a65 02       		.byte	0x2
 4823 0a66 23       		.byte	0x23
 4824 0a67 30       		.uleb128 0x30
 4825 0a68 06       		.uleb128 0x6
 4826 0a69 58080000 		.4byte	.LASF147
 4827 0a6d 13       		.byte	0x13
 4828 0a6e CA       		.byte	0xca
 4829 0a6f C0050000 		.4byte	0x5c0
 4830 0a73 02       		.byte	0x2
 4831 0a74 23       		.byte	0x23
 4832 0a75 34       		.uleb128 0x34
 4833 0a76 07       		.uleb128 0x7
 4834 0a77 6D737300 		.ascii	"mss\000"
 4835 0a7b 13       		.byte	0x13
 4836 0a7c CC       		.byte	0xcc
 4837 0a7d B5050000 		.4byte	0x5b5
 4838 0a81 02       		.byte	0x2
 4839 0a82 23       		.byte	0x23
 4840 0a83 36       		.uleb128 0x36
 4841 0a84 06       		.uleb128 0x6
 4842 0a85 7B040000 		.4byte	.LASF148
 4843 0a89 13       		.byte	0x13
 4844 0a8a CF       		.byte	0xcf
 4845 0a8b CB050000 		.4byte	0x5cb
 4846 0a8f 02       		.byte	0x2
 4847 0a90 23       		.byte	0x23
 4848 0a91 38       		.uleb128 0x38
 4849 0a92 06       		.uleb128 0x6
 4850 0a93 A0050000 		.4byte	.LASF149
 4851 0a97 13       		.byte	0x13
 4852 0a98 D0       		.byte	0xd0
 4853 0a99 CB050000 		.4byte	0x5cb
 4854 0a9d 02       		.byte	0x2
 4855 0a9e 23       		.byte	0x23
 4856 0a9f 3C       		.uleb128 0x3c
 4857 0aa0 07       		.uleb128 0x7
 4858 0aa1 736100   		.ascii	"sa\000"
 4859 0aa4 13       		.byte	0x13
 4860 0aa5 D1       		.byte	0xd1
 4861 0aa6 C0050000 		.4byte	0x5c0
 4862 0aaa 02       		.byte	0x2
 4863 0aab 23       		.byte	0x23
 4864 0aac 40       		.uleb128 0x40
 4865 0aad 07       		.uleb128 0x7
 4866 0aae 737600   		.ascii	"sv\000"
 4867 0ab1 13       		.byte	0x13
 4868 0ab2 D1       		.byte	0xd1
 4869 0ab3 C0050000 		.4byte	0x5c0
 4870 0ab7 02       		.byte	0x2
 4871 0ab8 23       		.byte	0x23
 4872 0ab9 42       		.uleb128 0x42
ARM GAS  C:\Users\jenny\AppData\Local\Temp\ccWqzXsD.s 			page 87


 4873 0aba 07       		.uleb128 0x7
 4874 0abb 72746F00 		.ascii	"rto\000"
 4875 0abf 13       		.byte	0x13
 4876 0ac0 D3       		.byte	0xd3
 4877 0ac1 C0050000 		.4byte	0x5c0
 4878 0ac5 02       		.byte	0x2
 4879 0ac6 23       		.byte	0x23
 4880 0ac7 44       		.uleb128 0x44
 4881 0ac8 06       		.uleb128 0x6
 4882 0ac9 9B060000 		.4byte	.LASF150
 4883 0acd 13       		.byte	0x13
 4884 0ace D4       		.byte	0xd4
 4885 0acf 9F050000 		.4byte	0x59f
 4886 0ad3 02       		.byte	0x2
 4887 0ad4 23       		.byte	0x23
 4888 0ad5 46       		.uleb128 0x46
 4889 0ad6 06       		.uleb128 0x6
 4890 0ad7 1E0C0000 		.4byte	.LASF151
 4891 0adb 13       		.byte	0x13
 4892 0adc D7       		.byte	0xd7
 4893 0add 9F050000 		.4byte	0x59f
 4894 0ae1 02       		.byte	0x2
 4895 0ae2 23       		.byte	0x23
 4896 0ae3 47       		.uleb128 0x47
 4897 0ae4 06       		.uleb128 0x6
 4898 0ae5 C9060000 		.4byte	.LASF152
 4899 0ae9 13       		.byte	0x13
 4900 0aea D8       		.byte	0xd8
 4901 0aeb CB050000 		.4byte	0x5cb
 4902 0aef 02       		.byte	0x2
 4903 0af0 23       		.byte	0x23
 4904 0af1 48       		.uleb128 0x48
 4905 0af2 06       		.uleb128 0x6
 4906 0af3 CE090000 		.4byte	.LASF153
 4907 0af7 13       		.byte	0x13
 4908 0af8 DB       		.byte	0xdb
 4909 0af9 B5050000 		.4byte	0x5b5
 4910 0afd 02       		.byte	0x2
 4911 0afe 23       		.byte	0x23
 4912 0aff 4C       		.uleb128 0x4c
 4913 0b00 06       		.uleb128 0x6
 4914 0b01 0A010000 		.4byte	.LASF154
 4915 0b05 13       		.byte	0x13
 4916 0b06 DC       		.byte	0xdc
 4917 0b07 B5050000 		.4byte	0x5b5
 4918 0b0b 02       		.byte	0x2
 4919 0b0c 23       		.byte	0x23
 4920 0b0d 4E       		.uleb128 0x4e
 4921 0b0e 06       		.uleb128 0x6
 4922 0b0f D1060000 		.4byte	.LASF155
 4923 0b13 13       		.byte	0x13
 4924 0b14 DF       		.byte	0xdf
 4925 0b15 CB050000 		.4byte	0x5cb
 4926 0b19 02       		.byte	0x2
 4927 0b1a 23       		.byte	0x23
 4928 0b1b 50       		.uleb128 0x50
 4929 0b1c 06       		.uleb128 0x6
ARM GAS  C:\Users\jenny\AppData\Local\Temp\ccWqzXsD.s 			page 88


 4930 0b1d F30B0000 		.4byte	.LASF156
 4931 0b21 13       		.byte	0x13
 4932 0b22 E0       		.byte	0xe0
 4933 0b23 CB050000 		.4byte	0x5cb
 4934 0b27 02       		.byte	0x2
 4935 0b28 23       		.byte	0x23
 4936 0b29 54       		.uleb128 0x54
 4937 0b2a 06       		.uleb128 0x6
 4938 0b2b FB0B0000 		.4byte	.LASF157
 4939 0b2f 13       		.byte	0x13
 4940 0b30 E0       		.byte	0xe0
 4941 0b31 CB050000 		.4byte	0x5cb
 4942 0b35 02       		.byte	0x2
 4943 0b36 23       		.byte	0x23
 4944 0b37 58       		.uleb128 0x58
 4945 0b38 06       		.uleb128 0x6
 4946 0b39 08050000 		.4byte	.LASF158
 4947 0b3d 13       		.byte	0x13
 4948 0b3e E2       		.byte	0xe2
 4949 0b3f CB050000 		.4byte	0x5cb
 4950 0b43 02       		.byte	0x2
 4951 0b44 23       		.byte	0x23
 4952 0b45 5C       		.uleb128 0x5c
 4953 0b46 06       		.uleb128 0x6
 4954 0b47 0B0D0000 		.4byte	.LASF159
 4955 0b4b 13       		.byte	0x13
 4956 0b4c E3       		.byte	0xe3
 4957 0b4d B5050000 		.4byte	0x5b5
 4958 0b51 02       		.byte	0x2
 4959 0b52 23       		.byte	0x23
 4960 0b53 60       		.uleb128 0x60
 4961 0b54 06       		.uleb128 0x6
 4962 0b55 E5070000 		.4byte	.LASF160
 4963 0b59 13       		.byte	0x13
 4964 0b5a E4       		.byte	0xe4
 4965 0b5b B5050000 		.4byte	0x5b5
 4966 0b5f 02       		.byte	0x2
 4967 0b60 23       		.byte	0x23
 4968 0b61 62       		.uleb128 0x62
 4969 0b62 06       		.uleb128 0x6
 4970 0b63 2E0B0000 		.4byte	.LASF161
 4971 0b67 13       		.byte	0x13
 4972 0b68 E6       		.byte	0xe6
 4973 0b69 B5050000 		.4byte	0x5b5
 4974 0b6d 02       		.byte	0x2
 4975 0b6e 23       		.byte	0x23
 4976 0b6f 64       		.uleb128 0x64
 4977 0b70 06       		.uleb128 0x6
 4978 0b71 F10C0000 		.4byte	.LASF162
 4979 0b75 13       		.byte	0x13
 4980 0b76 E8       		.byte	0xe8
 4981 0b77 B5050000 		.4byte	0x5b5
 4982 0b7b 02       		.byte	0x2
 4983 0b7c 23       		.byte	0x23
 4984 0b7d 66       		.uleb128 0x66
 4985 0b7e 06       		.uleb128 0x6
 4986 0b7f 140A0000 		.4byte	.LASF163
ARM GAS  C:\Users\jenny\AppData\Local\Temp\ccWqzXsD.s 			page 89


 4987 0b83 13       		.byte	0x13
 4988 0b84 EA       		.byte	0xea
 4989 0b85 B5050000 		.4byte	0x5b5
 4990 0b89 02       		.byte	0x2
 4991 0b8a 23       		.byte	0x23
 4992 0b8b 68       		.uleb128 0x68
 4993 0b8c 06       		.uleb128 0x6
 4994 0b8d 7D0A0000 		.4byte	.LASF164
 4995 0b91 13       		.byte	0x13
 4996 0b92 EE       		.byte	0xee
 4997 0b93 B5050000 		.4byte	0x5b5
 4998 0b97 02       		.byte	0x2
 4999 0b98 23       		.byte	0x23
 5000 0b99 6A       		.uleb128 0x6a
 5001 0b9a 06       		.uleb128 0x6
 5002 0b9b 6E0A0000 		.4byte	.LASF165
 5003 0b9f 13       		.byte	0x13
 5004 0ba0 F2       		.byte	0xf2
 5005 0ba1 6E100000 		.4byte	0x106e
 5006 0ba5 02       		.byte	0x2
 5007 0ba6 23       		.byte	0x23
 5008 0ba7 6C       		.uleb128 0x6c
 5009 0ba8 06       		.uleb128 0x6
 5010 0ba9 810B0000 		.4byte	.LASF166
 5011 0bad 13       		.byte	0x13
 5012 0bae F3       		.byte	0xf3
 5013 0baf 6E100000 		.4byte	0x106e
 5014 0bb3 02       		.byte	0x2
 5015 0bb4 23       		.byte	0x23
 5016 0bb5 70       		.uleb128 0x70
 5017 0bb6 06       		.uleb128 0x6
 5018 0bb7 8E0D0000 		.4byte	.LASF167
 5019 0bbb 13       		.byte	0x13
 5020 0bbc F5       		.byte	0xf5
 5021 0bbd 6E100000 		.4byte	0x106e
 5022 0bc1 02       		.byte	0x2
 5023 0bc2 23       		.byte	0x23
 5024 0bc3 74       		.uleb128 0x74
 5025 0bc4 06       		.uleb128 0x6
 5026 0bc5 F1090000 		.4byte	.LASF168
 5027 0bc9 13       		.byte	0x13
 5028 0bca F8       		.byte	0xf8
 5029 0bcb F0060000 		.4byte	0x6f0
 5030 0bcf 02       		.byte	0x2
 5031 0bd0 23       		.byte	0x23
 5032 0bd1 78       		.uleb128 0x78
 5033 0bd2 06       		.uleb128 0x6
 5034 0bd3 19070000 		.4byte	.LASF169
 5035 0bd7 13       		.byte	0x13
 5036 0bd8 FC       		.byte	0xfc
 5037 0bd9 9B0F0000 		.4byte	0xf9b
 5038 0bdd 02       		.byte	0x2
 5039 0bde 23       		.byte	0x23
 5040 0bdf 7C       		.uleb128 0x7c
 5041 0be0 06       		.uleb128 0x6
 5042 0be1 91080000 		.4byte	.LASF170
 5043 0be5 13       		.byte	0x13
ARM GAS  C:\Users\jenny\AppData\Local\Temp\ccWqzXsD.s 			page 90


 5044 0be6 FE       		.byte	0xfe
 5045 0be7 6B0F0000 		.4byte	0xf6b
 5046 0beb 03       		.byte	0x3
 5047 0bec 23       		.byte	0x23
 5048 0bed 8001     		.uleb128 0x80
 5049 0bef 17       		.uleb128 0x17
 5050 0bf0 5E0D0000 		.4byte	.LASF171
 5051 0bf4 13       		.byte	0x13
 5052 0bf5 0001     		.2byte	0x100
 5053 0bf7 0E100000 		.4byte	0x100e
 5054 0bfb 03       		.byte	0x3
 5055 0bfc 23       		.byte	0x23
 5056 0bfd 8401     		.uleb128 0x84
 5057 0bff 17       		.uleb128 0x17
 5058 0c00 46080000 		.4byte	.LASF172
 5059 0c04 13       		.byte	0x13
 5060 0c05 0201     		.2byte	0x102
 5061 0c07 C60F0000 		.4byte	0xfc6
 5062 0c0b 03       		.byte	0x3
 5063 0c0c 23       		.byte	0x23
 5064 0c0d 8801     		.uleb128 0x88
 5065 0c0f 17       		.uleb128 0x17
 5066 0c10 BE0B0000 		.4byte	.LASF173
 5067 0c14 13       		.byte	0x13
 5068 0c15 0401     		.2byte	0x104
 5069 0c17 EC0F0000 		.4byte	0xfec
 5070 0c1b 03       		.byte	0x3
 5071 0c1c 23       		.byte	0x23
 5072 0c1d 8C01     		.uleb128 0x8c
 5073 0c1f 17       		.uleb128 0x17
 5074 0c20 400B0000 		.4byte	.LASF174
 5075 0c24 13       		.byte	0x13
 5076 0c25 0D01     		.2byte	0x10d
 5077 0c27 CB050000 		.4byte	0x5cb
 5078 0c2b 03       		.byte	0x3
 5079 0c2c 23       		.byte	0x23
 5080 0c2d 9001     		.uleb128 0x90
 5081 0c2f 17       		.uleb128 0x17
 5082 0c30 39050000 		.4byte	.LASF175
 5083 0c34 13       		.byte	0x13
 5084 0c35 1401     		.2byte	0x114
 5085 0c37 9F050000 		.4byte	0x59f
 5086 0c3b 03       		.byte	0x3
 5087 0c3c 23       		.byte	0x23
 5088 0c3d 9401     		.uleb128 0x94
 5089 0c3f 17       		.uleb128 0x17
 5090 0c40 98090000 		.4byte	.LASF176
 5091 0c44 13       		.byte	0x13
 5092 0c45 1601     		.2byte	0x116
 5093 0c47 9F050000 		.4byte	0x59f
 5094 0c4b 03       		.byte	0x3
 5095 0c4c 23       		.byte	0x23
 5096 0c4d 9501     		.uleb128 0x95
 5097 0c4f 17       		.uleb128 0x17
 5098 0c50 1F030000 		.4byte	.LASF177
 5099 0c54 13       		.byte	0x13
 5100 0c55 1901     		.2byte	0x119
ARM GAS  C:\Users\jenny\AppData\Local\Temp\ccWqzXsD.s 			page 91


 5101 0c57 9F050000 		.4byte	0x59f
 5102 0c5b 03       		.byte	0x3
 5103 0c5c 23       		.byte	0x23
 5104 0c5d 9601     		.uleb128 0x96
 5105 0c5f 00       		.byte	0
 5106 0c60 09       		.uleb128 0x9
 5107 0c61 04       		.byte	0x4
 5108 0c62 36090000 		.4byte	0x936
 5109 0c66 05       		.uleb128 0x5
 5110 0c67 50040000 		.4byte	.LASF178
 5111 0c6b 20       		.byte	0x20
 5112 0c6c 14       		.byte	0x14
 5113 0c6d 5B       		.byte	0x5b
 5114 0c6e 0D0D0000 		.4byte	0xd0d
 5115 0c72 06       		.uleb128 0x6
 5116 0c73 4A030000 		.4byte	.LASF131
 5117 0c77 14       		.byte	0x14
 5118 0c78 5D       		.byte	0x5d
 5119 0c79 F1050000 		.4byte	0x5f1
 5120 0c7d 02       		.byte	0x2
 5121 0c7e 23       		.byte	0x23
 5122 0c7f 00       		.uleb128 0
 5123 0c80 06       		.uleb128 0x6
 5124 0c81 B50A0000 		.4byte	.LASF132
 5125 0c85 14       		.byte	0x14
 5126 0c86 5D       		.byte	0x5d
 5127 0c87 F1050000 		.4byte	0x5f1
 5128 0c8b 02       		.byte	0x2
 5129 0c8c 23       		.byte	0x23
 5130 0c8d 04       		.uleb128 0x4
 5131 0c8e 06       		.uleb128 0x6
 5132 0c8f A5000000 		.4byte	.LASF133
 5133 0c93 14       		.byte	0x14
 5134 0c94 5D       		.byte	0x5d
 5135 0c95 9F050000 		.4byte	0x59f
 5136 0c99 02       		.byte	0x2
 5137 0c9a 23       		.byte	0x23
 5138 0c9b 08       		.uleb128 0x8
 5139 0c9c 07       		.uleb128 0x7
 5140 0c9d 746F7300 		.ascii	"tos\000"
 5141 0ca1 14       		.byte	0x14
 5142 0ca2 5D       		.byte	0x5d
 5143 0ca3 9F050000 		.4byte	0x59f
 5144 0ca7 02       		.byte	0x2
 5145 0ca8 23       		.byte	0x23
 5146 0ca9 09       		.uleb128 0x9
 5147 0caa 07       		.uleb128 0x7
 5148 0cab 74746C00 		.ascii	"ttl\000"
 5149 0caf 14       		.byte	0x14
 5150 0cb0 5D       		.byte	0x5d
 5151 0cb1 9F050000 		.4byte	0x59f
 5152 0cb5 02       		.byte	0x2
 5153 0cb6 23       		.byte	0x23
 5154 0cb7 0A       		.uleb128 0xa
 5155 0cb8 06       		.uleb128 0x6
 5156 0cb9 4A0D0000 		.4byte	.LASF93
 5157 0cbd 14       		.byte	0x14
ARM GAS  C:\Users\jenny\AppData\Local\Temp\ccWqzXsD.s 			page 92


 5158 0cbe 61       		.byte	0x61
 5159 0cbf 0D0D0000 		.4byte	0xd0d
 5160 0cc3 02       		.byte	0x2
 5161 0cc4 23       		.byte	0x23
 5162 0cc5 0C       		.uleb128 0xc
 5163 0cc6 06       		.uleb128 0x6
 5164 0cc7 FE030000 		.4byte	.LASF97
 5165 0ccb 14       		.byte	0x14
 5166 0ccc 63       		.byte	0x63
 5167 0ccd 9F050000 		.4byte	0x59f
 5168 0cd1 02       		.byte	0x2
 5169 0cd2 23       		.byte	0x23
 5170 0cd3 10       		.uleb128 0x10
 5171 0cd4 06       		.uleb128 0x6
 5172 0cd5 58040000 		.4byte	.LASF138
 5173 0cd9 14       		.byte	0x14
 5174 0cda 65       		.byte	0x65
 5175 0cdb B5050000 		.4byte	0x5b5
 5176 0cdf 02       		.byte	0x2
 5177 0ce0 23       		.byte	0x23
 5178 0ce1 12       		.uleb128 0x12
 5179 0ce2 06       		.uleb128 0x6
 5180 0ce3 66090000 		.4byte	.LASF139
 5181 0ce7 14       		.byte	0x14
 5182 0ce8 65       		.byte	0x65
 5183 0ce9 B5050000 		.4byte	0x5b5
 5184 0ced 02       		.byte	0x2
 5185 0cee 23       		.byte	0x23
 5186 0cef 14       		.uleb128 0x14
 5187 0cf0 06       		.uleb128 0x6
 5188 0cf1 91080000 		.4byte	.LASF170
 5189 0cf5 14       		.byte	0x14
 5190 0cf6 72       		.byte	0x72
 5191 0cf7 0F0F0000 		.4byte	0xf0f
 5192 0cfb 02       		.byte	0x2
 5193 0cfc 23       		.byte	0x23
 5194 0cfd 18       		.uleb128 0x18
 5195 0cfe 06       		.uleb128 0x6
 5196 0cff 380A0000 		.4byte	.LASF179
 5197 0d03 14       		.byte	0x14
 5198 0d04 74       		.byte	0x74
 5199 0d05 B9020000 		.4byte	0x2b9
 5200 0d09 02       		.byte	0x2
 5201 0d0a 23       		.byte	0x23
 5202 0d0b 1C       		.uleb128 0x1c
 5203 0d0c 00       		.byte	0
 5204 0d0d 09       		.uleb128 0x9
 5205 0d0e 04       		.byte	0x4
 5206 0d0f 660C0000 		.4byte	0xc66
 5207 0d13 05       		.uleb128 0x5
 5208 0d14 340C0000 		.4byte	.LASF180
 5209 0d18 1C       		.byte	0x1c
 5210 0d19 15       		.byte	0x15
 5211 0d1a 3F       		.byte	0x3f
 5212 0d1b 9E0D0000 		.4byte	0xd9e
 5213 0d1f 06       		.uleb128 0x6
 5214 0d20 4A030000 		.4byte	.LASF131
ARM GAS  C:\Users\jenny\AppData\Local\Temp\ccWqzXsD.s 			page 93


 5215 0d24 15       		.byte	0x15
 5216 0d25 41       		.byte	0x41
 5217 0d26 F1050000 		.4byte	0x5f1
 5218 0d2a 02       		.byte	0x2
 5219 0d2b 23       		.byte	0x23
 5220 0d2c 00       		.uleb128 0
 5221 0d2d 06       		.uleb128 0x6
 5222 0d2e B50A0000 		.4byte	.LASF132
 5223 0d32 15       		.byte	0x15
 5224 0d33 41       		.byte	0x41
 5225 0d34 F1050000 		.4byte	0x5f1
 5226 0d38 02       		.byte	0x2
 5227 0d39 23       		.byte	0x23
 5228 0d3a 04       		.uleb128 0x4
 5229 0d3b 06       		.uleb128 0x6
 5230 0d3c A5000000 		.4byte	.LASF133
 5231 0d40 15       		.byte	0x15
 5232 0d41 41       		.byte	0x41
 5233 0d42 9F050000 		.4byte	0x59f
 5234 0d46 02       		.byte	0x2
 5235 0d47 23       		.byte	0x23
 5236 0d48 08       		.uleb128 0x8
 5237 0d49 07       		.uleb128 0x7
 5238 0d4a 746F7300 		.ascii	"tos\000"
 5239 0d4e 15       		.byte	0x15
 5240 0d4f 41       		.byte	0x41
 5241 0d50 9F050000 		.4byte	0x59f
 5242 0d54 02       		.byte	0x2
 5243 0d55 23       		.byte	0x23
 5244 0d56 09       		.uleb128 0x9
 5245 0d57 07       		.uleb128 0x7
 5246 0d58 74746C00 		.ascii	"ttl\000"
 5247 0d5c 15       		.byte	0x15
 5248 0d5d 41       		.byte	0x41
 5249 0d5e 9F050000 		.4byte	0x59f
 5250 0d62 02       		.byte	0x2
 5251 0d63 23       		.byte	0x23
 5252 0d64 0A       		.uleb128 0xa
 5253 0d65 06       		.uleb128 0x6
 5254 0d66 4A0D0000 		.4byte	.LASF93
 5255 0d6a 15       		.byte	0x15
 5256 0d6b 43       		.byte	0x43
 5257 0d6c 9E0D0000 		.4byte	0xd9e
 5258 0d70 02       		.byte	0x2
 5259 0d71 23       		.byte	0x23
 5260 0d72 0C       		.uleb128 0xc
 5261 0d73 06       		.uleb128 0x6
 5262 0d74 10070000 		.4byte	.LASF181
 5263 0d78 15       		.byte	0x15
 5264 0d79 45       		.byte	0x45
 5265 0d7a 9F050000 		.4byte	0x59f
 5266 0d7e 02       		.byte	0x2
 5267 0d7f 23       		.byte	0x23
 5268 0d80 10       		.uleb128 0x10
 5269 0d81 06       		.uleb128 0x6
 5270 0d82 91080000 		.4byte	.LASF170
 5271 0d86 15       		.byte	0x15
ARM GAS  C:\Users\jenny\AppData\Local\Temp\ccWqzXsD.s 			page 94


 5272 0d87 48       		.byte	0x48
 5273 0d88 74100000 		.4byte	0x1074
 5274 0d8c 02       		.byte	0x2
 5275 0d8d 23       		.byte	0x23
 5276 0d8e 14       		.uleb128 0x14
 5277 0d8f 06       		.uleb128 0x6
 5278 0d90 380A0000 		.4byte	.LASF179
 5279 0d94 15       		.byte	0x15
 5280 0d95 4A       		.byte	0x4a
 5281 0d96 B9020000 		.4byte	0x2b9
 5282 0d9a 02       		.byte	0x2
 5283 0d9b 23       		.byte	0x23
 5284 0d9c 18       		.uleb128 0x18
 5285 0d9d 00       		.byte	0
 5286 0d9e 09       		.uleb128 0x9
 5287 0d9f 04       		.byte	0x4
 5288 0da0 130D0000 		.4byte	0xd13
 5289 0da4 05       		.uleb128 0x5
 5290 0da5 A00A0000 		.4byte	.LASF182
 5291 0da9 14       		.byte	0x14
 5292 0daa 16       		.byte	0x16
 5293 0dab 3E       		.byte	0x3e
 5294 0dac DB0D0000 		.4byte	0xddb
 5295 0db0 06       		.uleb128 0x6
 5296 0db1 9A010000 		.4byte	.LASF183
 5297 0db5 16       		.byte	0x16
 5298 0db6 41       		.byte	0x41
 5299 0db7 EE070000 		.4byte	0x7ee
 5300 0dbb 02       		.byte	0x2
 5301 0dbc 23       		.byte	0x23
 5302 0dbd 00       		.uleb128 0
 5303 0dbe 07       		.uleb128 0x7
 5304 0dbf 65727200 		.ascii	"err\000"
 5305 0dc3 16       		.byte	0x16
 5306 0dc4 43       		.byte	0x43
 5307 0dc5 FC050000 		.4byte	0x5fc
 5308 0dc9 02       		.byte	0x2
 5309 0dca 23       		.byte	0x23
 5310 0dcb 04       		.uleb128 0x4
 5311 0dcc 07       		.uleb128 0x7
 5312 0dcd 6D736700 		.ascii	"msg\000"
 5313 0dd1 16       		.byte	0x16
 5314 0dd2 75       		.byte	0x75
 5315 0dd3 BE0E0000 		.4byte	0xebe
 5316 0dd7 02       		.byte	0x2
 5317 0dd8 23       		.byte	0x23
 5318 0dd9 08       		.uleb128 0x8
 5319 0dda 00       		.byte	0
 5320 0ddb 09       		.uleb128 0x9
 5321 0ddc 04       		.byte	0x4
 5322 0ddd A40D0000 		.4byte	0xda4
 5323 0de1 08       		.uleb128 0x8
 5324 0de2 01       		.byte	0x1
 5325 0de3 16       		.byte	0x16
 5326 0de4 49       		.byte	0x49
 5327 0de5 F80D0000 		.4byte	0xdf8
 5328 0de9 06       		.uleb128 0x6
ARM GAS  C:\Users\jenny\AppData\Local\Temp\ccWqzXsD.s 			page 95


 5329 0dea 7A000000 		.4byte	.LASF184
 5330 0dee 16       		.byte	0x16
 5331 0def 4A       		.byte	0x4a
 5332 0df0 9F050000 		.4byte	0x59f
 5333 0df4 02       		.byte	0x2
 5334 0df5 23       		.byte	0x23
 5335 0df6 00       		.uleb128 0
 5336 0df7 00       		.byte	0
 5337 0df8 08       		.uleb128 0x8
 5338 0df9 08       		.byte	0x8
 5339 0dfa 16       		.byte	0x16
 5340 0dfb 4D       		.byte	0x4d
 5341 0dfc 1D0E0000 		.4byte	0xe1d
 5342 0e00 06       		.uleb128 0x6
 5343 0e01 EE010000 		.4byte	.LASF185
 5344 0e05 16       		.byte	0x16
 5345 0e06 4E       		.byte	0x4e
 5346 0e07 F6060000 		.4byte	0x6f6
 5347 0e0b 02       		.byte	0x2
 5348 0e0c 23       		.byte	0x23
 5349 0e0d 00       		.uleb128 0
 5350 0e0e 06       		.uleb128 0x6
 5351 0e0f 1F0B0000 		.4byte	.LASF99
 5352 0e13 16       		.byte	0x16
 5353 0e14 4F       		.byte	0x4f
 5354 0e15 B5050000 		.4byte	0x5b5
 5355 0e19 02       		.byte	0x2
 5356 0e1a 23       		.byte	0x23
 5357 0e1b 04       		.uleb128 0x4
 5358 0e1c 00       		.byte	0
 5359 0e1d 08       		.uleb128 0x8
 5360 0e1e 0C       		.byte	0xc
 5361 0e1f 16       		.byte	0x16
 5362 0e20 52       		.byte	0x52
 5363 0e21 500E0000 		.4byte	0xe50
 5364 0e25 06       		.uleb128 0x6
 5365 0e26 EE010000 		.4byte	.LASF185
 5366 0e2a 16       		.byte	0x16
 5367 0e2b 53       		.byte	0x53
 5368 0e2c F6060000 		.4byte	0x6f6
 5369 0e30 02       		.byte	0x2
 5370 0e31 23       		.byte	0x23
 5371 0e32 00       		.uleb128 0
 5372 0e33 06       		.uleb128 0x6
 5373 0e34 1F0B0000 		.4byte	.LASF99
 5374 0e38 16       		.byte	0x16
 5375 0e39 54       		.byte	0x54
 5376 0e3a 500E0000 		.4byte	0xe50
 5377 0e3e 02       		.byte	0x2
 5378 0e3f 23       		.byte	0x23
 5379 0e40 04       		.uleb128 0x4
 5380 0e41 06       		.uleb128 0x6
 5381 0e42 22010000 		.4byte	.LASF186
 5382 0e46 16       		.byte	0x16
 5383 0e47 55       		.byte	0x55
 5384 0e48 9F050000 		.4byte	0x59f
 5385 0e4c 02       		.byte	0x2
ARM GAS  C:\Users\jenny\AppData\Local\Temp\ccWqzXsD.s 			page 96


 5386 0e4d 23       		.byte	0x23
 5387 0e4e 08       		.uleb128 0x8
 5388 0e4f 00       		.byte	0
 5389 0e50 09       		.uleb128 0x9
 5390 0e51 04       		.byte	0x4
 5391 0e52 B5050000 		.4byte	0x5b5
 5392 0e56 08       		.uleb128 0x8
 5393 0e57 0C       		.byte	0xc
 5394 0e58 16       		.byte	0x16
 5395 0e59 58       		.byte	0x58
 5396 0e5a 890E0000 		.4byte	0xe89
 5397 0e5e 06       		.uleb128 0x6
 5398 0e5f 660C0000 		.4byte	.LASF187
 5399 0e63 16       		.byte	0x16
 5400 0e64 59       		.byte	0x59
 5401 0e65 890E0000 		.4byte	0xe89
 5402 0e69 02       		.byte	0x2
 5403 0e6a 23       		.byte	0x23
 5404 0e6b 00       		.uleb128 0
 5405 0e6c 07       		.uleb128 0x7
 5406 0e6d 6C656E00 		.ascii	"len\000"
 5407 0e71 16       		.byte	0x16
 5408 0e72 5A       		.byte	0x5a
 5409 0e73 30000000 		.4byte	0x30
 5410 0e77 02       		.byte	0x2
 5411 0e78 23       		.byte	0x23
 5412 0e79 04       		.uleb128 0x4
 5413 0e7a 06       		.uleb128 0x6
 5414 0e7b C30B0000 		.4byte	.LASF188
 5415 0e7f 16       		.byte	0x16
 5416 0e80 5B       		.byte	0x5b
 5417 0e81 9F050000 		.4byte	0x59f
 5418 0e85 02       		.byte	0x2
 5419 0e86 23       		.byte	0x23
 5420 0e87 08       		.uleb128 0x8
 5421 0e88 00       		.byte	0
 5422 0e89 09       		.uleb128 0x9
 5423 0e8a 04       		.byte	0x4
 5424 0e8b 8F0E0000 		.4byte	0xe8f
 5425 0e8f 18       		.uleb128 0x18
 5426 0e90 08       		.uleb128 0x8
 5427 0e91 04       		.byte	0x4
 5428 0e92 16       		.byte	0x16
 5429 0e93 61       		.byte	0x61
 5430 0e94 A70E0000 		.4byte	0xea7
 5431 0e98 07       		.uleb128 0x7
 5432 0e99 6C656E00 		.ascii	"len\000"
 5433 0e9d 16       		.byte	0x16
 5434 0e9e 62       		.byte	0x62
 5435 0e9f CB050000 		.4byte	0x5cb
 5436 0ea3 02       		.byte	0x2
 5437 0ea4 23       		.byte	0x23
 5438 0ea5 00       		.uleb128 0
 5439 0ea6 00       		.byte	0
 5440 0ea7 08       		.uleb128 0x8
 5441 0ea8 01       		.byte	0x1
 5442 0ea9 16       		.byte	0x16
ARM GAS  C:\Users\jenny\AppData\Local\Temp\ccWqzXsD.s 			page 97


 5443 0eaa 65       		.byte	0x65
 5444 0eab BE0E0000 		.4byte	0xebe
 5445 0eaf 06       		.uleb128 0x6
 5446 0eb0 8A040000 		.4byte	.LASF189
 5447 0eb4 16       		.byte	0x16
 5448 0eb5 66       		.byte	0x66
 5449 0eb6 9F050000 		.4byte	0x59f
 5450 0eba 02       		.byte	0x2
 5451 0ebb 23       		.byte	0x23
 5452 0ebc 00       		.uleb128 0
 5453 0ebd 00       		.byte	0
 5454 0ebe 0E       		.uleb128 0xe
 5455 0ebf 0C       		.byte	0xc
 5456 0ec0 16       		.byte	0x16
 5457 0ec1 45       		.byte	0x45
 5458 0ec2 090F0000 		.4byte	0xf09
 5459 0ec6 16       		.uleb128 0x16
 5460 0ec7 6200     		.ascii	"b\000"
 5461 0ec9 16       		.byte	0x16
 5462 0eca 47       		.byte	0x47
 5463 0ecb 090F0000 		.4byte	0xf09
 5464 0ecf 16       		.uleb128 0x16
 5465 0ed0 6E00     		.ascii	"n\000"
 5466 0ed2 16       		.byte	0x16
 5467 0ed3 4B       		.byte	0x4b
 5468 0ed4 E10D0000 		.4byte	0xde1
 5469 0ed8 16       		.uleb128 0x16
 5470 0ed9 626300   		.ascii	"bc\000"
 5471 0edc 16       		.byte	0x16
 5472 0edd 50       		.byte	0x50
 5473 0ede F80D0000 		.4byte	0xdf8
 5474 0ee2 16       		.uleb128 0x16
 5475 0ee3 616400   		.ascii	"ad\000"
 5476 0ee6 16       		.byte	0x16
 5477 0ee7 56       		.byte	0x56
 5478 0ee8 1D0E0000 		.4byte	0xe1d
 5479 0eec 16       		.uleb128 0x16
 5480 0eed 7700     		.ascii	"w\000"
 5481 0eef 16       		.byte	0x16
 5482 0ef0 5F       		.byte	0x5f
 5483 0ef1 560E0000 		.4byte	0xe56
 5484 0ef5 16       		.uleb128 0x16
 5485 0ef6 7200     		.ascii	"r\000"
 5486 0ef8 16       		.byte	0x16
 5487 0ef9 63       		.byte	0x63
 5488 0efa 900E0000 		.4byte	0xe90
 5489 0efe 16       		.uleb128 0x16
 5490 0eff 736400   		.ascii	"sd\000"
 5491 0f02 16       		.byte	0x16
 5492 0f03 67       		.byte	0x67
 5493 0f04 A70E0000 		.4byte	0xea7
 5494 0f08 00       		.byte	0
 5495 0f09 09       		.uleb128 0x9
 5496 0f0a 04       		.byte	0x4
 5497 0f0b FC060000 		.4byte	0x6fc
 5498 0f0f 03       		.uleb128 0x3
 5499 0f10 E8080000 		.4byte	.LASF190
ARM GAS  C:\Users\jenny\AppData\Local\Temp\ccWqzXsD.s 			page 98


 5500 0f14 14       		.byte	0x14
 5501 0f15 57       		.byte	0x57
 5502 0f16 1A0F0000 		.4byte	0xf1a
 5503 0f1a 09       		.uleb128 0x9
 5504 0f1b 04       		.byte	0x4
 5505 0f1c 200F0000 		.4byte	0xf20
 5506 0f20 14       		.uleb128 0x14
 5507 0f21 01       		.byte	0x1
 5508 0f22 400F0000 		.4byte	0xf40
 5509 0f26 15       		.uleb128 0x15
 5510 0f27 B9020000 		.4byte	0x2b9
 5511 0f2b 15       		.uleb128 0x15
 5512 0f2c 0D0D0000 		.4byte	0xd0d
 5513 0f30 15       		.uleb128 0x15
 5514 0f31 F0060000 		.4byte	0x6f0
 5515 0f35 15       		.uleb128 0x15
 5516 0f36 F6060000 		.4byte	0x6f6
 5517 0f3a 15       		.uleb128 0x15
 5518 0f3b B5050000 		.4byte	0x5b5
 5519 0f3f 00       		.byte	0
 5520 0f40 03       		.uleb128 0x3
 5521 0f41 2C0D0000 		.4byte	.LASF191
 5522 0f45 13       		.byte	0x13
 5523 0f46 3C       		.byte	0x3c
 5524 0f47 4B0F0000 		.4byte	0xf4b
 5525 0f4b 09       		.uleb128 0x9
 5526 0f4c 04       		.byte	0x4
 5527 0f4d 510F0000 		.4byte	0xf51
 5528 0f51 19       		.uleb128 0x19
 5529 0f52 01       		.byte	0x1
 5530 0f53 FC050000 		.4byte	0x5fc
 5531 0f57 6B0F0000 		.4byte	0xf6b
 5532 0f5b 15       		.uleb128 0x15
 5533 0f5c B9020000 		.4byte	0x2b9
 5534 0f60 15       		.uleb128 0x15
 5535 0f61 600C0000 		.4byte	0xc60
 5536 0f65 15       		.uleb128 0x15
 5537 0f66 FC050000 		.4byte	0x5fc
 5538 0f6a 00       		.byte	0
 5539 0f6b 03       		.uleb128 0x3
 5540 0f6c DA0B0000 		.4byte	.LASF192
 5541 0f70 13       		.byte	0x13
 5542 0f71 48       		.byte	0x48
 5543 0f72 760F0000 		.4byte	0xf76
 5544 0f76 09       		.uleb128 0x9
 5545 0f77 04       		.byte	0x4
 5546 0f78 7C0F0000 		.4byte	0xf7c
 5547 0f7c 19       		.uleb128 0x19
 5548 0f7d 01       		.byte	0x1
 5549 0f7e FC050000 		.4byte	0x5fc
 5550 0f82 9B0F0000 		.4byte	0xf9b
 5551 0f86 15       		.uleb128 0x15
 5552 0f87 B9020000 		.4byte	0x2b9
 5553 0f8b 15       		.uleb128 0x15
 5554 0f8c 600C0000 		.4byte	0xc60
 5555 0f90 15       		.uleb128 0x15
 5556 0f91 F0060000 		.4byte	0x6f0
ARM GAS  C:\Users\jenny\AppData\Local\Temp\ccWqzXsD.s 			page 99


 5557 0f95 15       		.uleb128 0x15
 5558 0f96 FC050000 		.4byte	0x5fc
 5559 0f9a 00       		.byte	0
 5560 0f9b 03       		.uleb128 0x3
 5561 0f9c CB020000 		.4byte	.LASF193
 5562 0fa0 13       		.byte	0x13
 5563 0fa1 56       		.byte	0x56
 5564 0fa2 A60F0000 		.4byte	0xfa6
 5565 0fa6 09       		.uleb128 0x9
 5566 0fa7 04       		.byte	0x4
 5567 0fa8 AC0F0000 		.4byte	0xfac
 5568 0fac 19       		.uleb128 0x19
 5569 0fad 01       		.byte	0x1
 5570 0fae FC050000 		.4byte	0x5fc
 5571 0fb2 C60F0000 		.4byte	0xfc6
 5572 0fb6 15       		.uleb128 0x15
 5573 0fb7 B9020000 		.4byte	0x2b9
 5574 0fbb 15       		.uleb128 0x15
 5575 0fbc 600C0000 		.4byte	0xc60
 5576 0fc0 15       		.uleb128 0x15
 5577 0fc1 B5050000 		.4byte	0x5b5
 5578 0fc5 00       		.byte	0
 5579 0fc6 03       		.uleb128 0x3
 5580 0fc7 55060000 		.4byte	.LASF194
 5581 0fcb 13       		.byte	0x13
 5582 0fcc 62       		.byte	0x62
 5583 0fcd D10F0000 		.4byte	0xfd1
 5584 0fd1 09       		.uleb128 0x9
 5585 0fd2 04       		.byte	0x4
 5586 0fd3 D70F0000 		.4byte	0xfd7
 5587 0fd7 19       		.uleb128 0x19
 5588 0fd8 01       		.byte	0x1
 5589 0fd9 FC050000 		.4byte	0x5fc
 5590 0fdd EC0F0000 		.4byte	0xfec
 5591 0fe1 15       		.uleb128 0x15
 5592 0fe2 B9020000 		.4byte	0x2b9
 5593 0fe6 15       		.uleb128 0x15
 5594 0fe7 600C0000 		.4byte	0xc60
 5595 0feb 00       		.byte	0
 5596 0fec 03       		.uleb128 0x3
 5597 0fed D7020000 		.4byte	.LASF195
 5598 0ff1 13       		.byte	0x13
 5599 0ff2 6E       		.byte	0x6e
 5600 0ff3 F70F0000 		.4byte	0xff7
 5601 0ff7 09       		.uleb128 0x9
 5602 0ff8 04       		.byte	0x4
 5603 0ff9 FD0F0000 		.4byte	0xffd
 5604 0ffd 14       		.uleb128 0x14
 5605 0ffe 01       		.byte	0x1
 5606 0fff 0E100000 		.4byte	0x100e
 5607 1003 15       		.uleb128 0x15
 5608 1004 B9020000 		.4byte	0x2b9
 5609 1008 15       		.uleb128 0x15
 5610 1009 FC050000 		.4byte	0x5fc
 5611 100d 00       		.byte	0
 5612 100e 03       		.uleb128 0x3
 5613 100f C80A0000 		.4byte	.LASF196
ARM GAS  C:\Users\jenny\AppData\Local\Temp\ccWqzXsD.s 			page 100


 5614 1013 13       		.byte	0x13
 5615 1014 7C       		.byte	0x7c
 5616 1015 4B0F0000 		.4byte	0xf4b
 5617 1019 13       		.uleb128 0x13
 5618 101a 9F010000 		.4byte	.LASF197
 5619 101e 01       		.byte	0x1
 5620 101f 13       		.byte	0x13
 5621 1020 7E       		.byte	0x7e
 5622 1021 68100000 		.4byte	0x1068
 5623 1025 12       		.uleb128 0x12
 5624 1026 100C0000 		.4byte	.LASF198
 5625 102a 00       		.sleb128 0
 5626 102b 12       		.uleb128 0x12
 5627 102c CB000000 		.4byte	.LASF199
 5628 1030 01       		.sleb128 1
 5629 1031 12       		.uleb128 0x12
 5630 1032 04040000 		.4byte	.LASF200
 5631 1036 02       		.sleb128 2
 5632 1037 12       		.uleb128 0x12
 5633 1038 5E080000 		.4byte	.LASF201
 5634 103c 03       		.sleb128 3
 5635 103d 12       		.uleb128 0x12
 5636 103e 36090000 		.4byte	.LASF202
 5637 1042 04       		.sleb128 4
 5638 1043 12       		.uleb128 0x12
 5639 1044 A9030000 		.4byte	.LASF203
 5640 1048 05       		.sleb128 5
 5641 1049 12       		.uleb128 0x12
 5642 104a E8060000 		.4byte	.LASF204
 5643 104e 06       		.sleb128 6
 5644 104f 12       		.uleb128 0x12
 5645 1050 5D050000 		.4byte	.LASF205
 5646 1054 07       		.sleb128 7
 5647 1055 12       		.uleb128 0x12
 5648 1056 E00C0000 		.4byte	.LASF206
 5649 105a 08       		.sleb128 8
 5650 105b 12       		.uleb128 0x12
 5651 105c 34040000 		.4byte	.LASF207
 5652 1060 09       		.sleb128 9
 5653 1061 12       		.uleb128 0x12
 5654 1062 90010000 		.4byte	.LASF208
 5655 1066 0A       		.sleb128 10
 5656 1067 00       		.byte	0
 5657 1068 1A       		.uleb128 0x1a
 5658 1069 560D0000 		.4byte	.LASF319
 5659 106d 01       		.byte	0x1
 5660 106e 09       		.uleb128 0x9
 5661 106f 04       		.byte	0x4
 5662 1070 68100000 		.4byte	0x1068
 5663 1074 03       		.uleb128 0x3
 5664 1075 A2020000 		.4byte	.LASF209
 5665 1079 15       		.byte	0x15
 5666 107a 3C       		.byte	0x3c
 5667 107b 7F100000 		.4byte	0x107f
 5668 107f 09       		.uleb128 0x9
 5669 1080 04       		.byte	0x4
 5670 1081 85100000 		.4byte	0x1085
ARM GAS  C:\Users\jenny\AppData\Local\Temp\ccWqzXsD.s 			page 101


 5671 1085 19       		.uleb128 0x19
 5672 1086 01       		.byte	0x1
 5673 1087 9F050000 		.4byte	0x59f
 5674 108b A4100000 		.4byte	0x10a4
 5675 108f 15       		.uleb128 0x15
 5676 1090 B9020000 		.4byte	0x2b9
 5677 1094 15       		.uleb128 0x15
 5678 1095 9E0D0000 		.4byte	0xd9e
 5679 1099 15       		.uleb128 0x15
 5680 109a F0060000 		.4byte	0x6f0
 5681 109e 15       		.uleb128 0x15
 5682 109f F6060000 		.4byte	0x6f6
 5683 10a3 00       		.byte	0
 5684 10a4 11       		.uleb128 0x11
 5685 10a5 01       		.byte	0x1
 5686 10a6 17       		.byte	0x17
 5687 10a7 2B       		.byte	0x2b
 5688 10a8 07110000 		.4byte	0x1107
 5689 10ac 12       		.uleb128 0x12
 5690 10ad F3050000 		.4byte	.LASF210
 5691 10b1 00       		.sleb128 0
 5692 10b2 12       		.uleb128 0x12
 5693 10b3 59090000 		.4byte	.LASF211
 5694 10b7 01       		.sleb128 1
 5695 10b8 12       		.uleb128 0x12
 5696 10b9 4E000000 		.4byte	.LASF212
 5697 10bd 02       		.sleb128 2
 5698 10be 12       		.uleb128 0x12
 5699 10bf 680D0000 		.4byte	.LASF213
 5700 10c3 03       		.sleb128 3
 5701 10c4 12       		.uleb128 0x12
 5702 10c5 82090000 		.4byte	.LASF214
 5703 10c9 04       		.sleb128 4
 5704 10ca 12       		.uleb128 0x12
 5705 10cb FB080000 		.4byte	.LASF215
 5706 10cf 05       		.sleb128 5
 5707 10d0 12       		.uleb128 0x12
 5708 10d1 1B090000 		.4byte	.LASF216
 5709 10d5 06       		.sleb128 6
 5710 10d6 12       		.uleb128 0x12
 5711 10d7 8C030000 		.4byte	.LASF217
 5712 10db 07       		.sleb128 7
 5713 10dc 12       		.uleb128 0x12
 5714 10dd 45050000 		.4byte	.LASF218
 5715 10e1 08       		.sleb128 8
 5716 10e2 12       		.uleb128 0x12
 5717 10e3 AB0B0000 		.4byte	.LASF219
 5718 10e7 09       		.sleb128 9
 5719 10e8 12       		.uleb128 0x12
 5720 10e9 AE090000 		.4byte	.LASF220
 5721 10ed 0A       		.sleb128 10
 5722 10ee 12       		.uleb128 0x12
 5723 10ef B0000000 		.4byte	.LASF221
 5724 10f3 0B       		.sleb128 11
 5725 10f4 12       		.uleb128 0x12
 5726 10f5 240B0000 		.4byte	.LASF222
 5727 10f9 0C       		.sleb128 12
ARM GAS  C:\Users\jenny\AppData\Local\Temp\ccWqzXsD.s 			page 102


 5728 10fa 12       		.uleb128 0x12
 5729 10fb E2020000 		.4byte	.LASF223
 5730 10ff 0D       		.sleb128 13
 5731 1100 12       		.uleb128 0x12
 5732 1101 970A0000 		.4byte	.LASF224
 5733 1105 0E       		.sleb128 14
 5734 1106 00       		.byte	0
 5735 1107 03       		.uleb128 0x3
 5736 1108 E1080000 		.4byte	.LASF225
 5737 110c 17       		.byte	0x17
 5738 110d 2F       		.byte	0x2f
 5739 110e A4100000 		.4byte	0x10a4
 5740 1112 09       		.uleb128 0x9
 5741 1113 04       		.byte	0x4
 5742 1114 07060000 		.4byte	0x607
 5743 1118 1B       		.uleb128 0x1b
 5744 1119 BF0A0000 		.4byte	.LASF320
 5745 111d 01       		.byte	0x1
 5746 111e 3901     		.2byte	0x139
 5747 1120 01       		.byte	0x1
 5748 1121 FC050000 		.4byte	0x5fc
 5749 1125 01       		.byte	0x1
 5750 1126 5B110000 		.4byte	0x115b
 5751 112a 1C       		.uleb128 0x1c
 5752 112b 61726700 		.ascii	"arg\000"
 5753 112f 01       		.byte	0x1
 5754 1130 3901     		.2byte	0x139
 5755 1132 B9020000 		.4byte	0x2b9
 5756 1136 1C       		.uleb128 0x1c
 5757 1137 70636200 		.ascii	"pcb\000"
 5758 113b 01       		.byte	0x1
 5759 113c 3901     		.2byte	0x139
 5760 113e 600C0000 		.4byte	0xc60
 5761 1142 1C       		.uleb128 0x1c
 5762 1143 6C656E00 		.ascii	"len\000"
 5763 1147 01       		.byte	0x1
 5764 1148 3901     		.2byte	0x139
 5765 114a B5050000 		.4byte	0x5b5
 5766 114e 1D       		.uleb128 0x1d
 5767 114f 9A010000 		.4byte	.LASF183
 5768 1153 01       		.byte	0x1
 5769 1154 3B01     		.2byte	0x13b
 5770 1156 EE070000 		.4byte	0x7ee
 5771 115a 00       		.byte	0
 5772 115b 1E       		.uleb128 0x1e
 5773 115c 87080000 		.4byte	.LASF227
 5774 1160 01       		.byte	0x1
 5775 1161 9D01     		.2byte	0x19d
 5776 1163 01       		.byte	0x1
 5777 1164 00000000 		.4byte	.LFB13
 5778 1168 4A000000 		.4byte	.LFE13
 5779 116c 00000000 		.4byte	.LLST0
 5780 1170 01       		.byte	0x1
 5781 1171 25120000 		.4byte	0x1225
 5782 1175 1F       		.uleb128 0x1f
 5783 1176 9A010000 		.4byte	.LASF183
 5784 117a 01       		.byte	0x1
ARM GAS  C:\Users\jenny\AppData\Local\Temp\ccWqzXsD.s 			page 103


 5785 117b 9D01     		.2byte	0x19d
 5786 117d EE070000 		.4byte	0x7ee
 5787 1181 20000000 		.4byte	.LLST1
 5788 1185 20       		.uleb128 0x20
 5789 1186 70636200 		.ascii	"pcb\000"
 5790 118a 01       		.byte	0x1
 5791 118b 9F01     		.2byte	0x19f
 5792 118d 600C0000 		.4byte	0xc60
 5793 1191 01       		.byte	0x1
 5794 1192 54       		.byte	0x54
 5795 1193 21       		.uleb128 0x21
 5796 1194 0C000000 		.4byte	.LVL3
 5797 1198 88260000 		.4byte	0x2688
 5798 119c AE110000 		.4byte	0x11ae
 5799 11a0 22       		.uleb128 0x22
 5800 11a1 01       		.byte	0x1
 5801 11a2 51       		.byte	0x51
 5802 11a3 03       		.byte	0x3
 5803 11a4 F3       		.byte	0xf3
 5804 11a5 01       		.uleb128 0x1
 5805 11a6 50       		.byte	0x50
 5806 11a7 22       		.uleb128 0x22
 5807 11a8 01       		.byte	0x1
 5808 11a9 50       		.byte	0x50
 5809 11aa 02       		.byte	0x2
 5810 11ab 74       		.byte	0x74
 5811 11ac 00       		.sleb128 0
 5812 11ad 00       		.byte	0
 5813 11ae 21       		.uleb128 0x21
 5814 11af 1A000000 		.4byte	.LVL4
 5815 11b3 A2260000 		.4byte	0x26a2
 5816 11b7 CB110000 		.4byte	0x11cb
 5817 11bb 22       		.uleb128 0x22
 5818 11bc 01       		.byte	0x1
 5819 11bd 51       		.byte	0x51
 5820 11be 05       		.byte	0x5
 5821 11bf 03       		.byte	0x3
 5822 11c0 00000000 		.4byte	recv_tcp
 5823 11c4 22       		.uleb128 0x22
 5824 11c5 01       		.byte	0x1
 5825 11c6 50       		.byte	0x50
 5826 11c7 02       		.byte	0x2
 5827 11c8 74       		.byte	0x74
 5828 11c9 00       		.sleb128 0
 5829 11ca 00       		.byte	0
 5830 11cb 21       		.uleb128 0x21
 5831 11cc 28000000 		.4byte	.LVL5
 5832 11d0 BC260000 		.4byte	0x26bc
 5833 11d4 E8110000 		.4byte	0x11e8
 5834 11d8 22       		.uleb128 0x22
 5835 11d9 01       		.byte	0x1
 5836 11da 51       		.byte	0x51
 5837 11db 05       		.byte	0x5
 5838 11dc 03       		.byte	0x3
 5839 11dd 00000000 		.4byte	sent_tcp
 5840 11e1 22       		.uleb128 0x22
 5841 11e2 01       		.byte	0x1
ARM GAS  C:\Users\jenny\AppData\Local\Temp\ccWqzXsD.s 			page 104


 5842 11e3 50       		.byte	0x50
 5843 11e4 02       		.byte	0x2
 5844 11e5 74       		.byte	0x74
 5845 11e6 00       		.sleb128 0
 5846 11e7 00       		.byte	0
 5847 11e8 21       		.uleb128 0x21
 5848 11e9 38000000 		.4byte	.LVL6
 5849 11ed D6260000 		.4byte	0x26d6
 5850 11f1 0A120000 		.4byte	0x120a
 5851 11f5 22       		.uleb128 0x22
 5852 11f6 01       		.byte	0x1
 5853 11f7 52       		.byte	0x52
 5854 11f8 01       		.byte	0x1
 5855 11f9 34       		.byte	0x34
 5856 11fa 22       		.uleb128 0x22
 5857 11fb 01       		.byte	0x1
 5858 11fc 51       		.byte	0x51
 5859 11fd 05       		.byte	0x5
 5860 11fe 03       		.byte	0x3
 5861 11ff 00000000 		.4byte	poll_tcp
 5862 1203 22       		.uleb128 0x22
 5863 1204 01       		.byte	0x1
 5864 1205 50       		.byte	0x50
 5865 1206 02       		.byte	0x2
 5866 1207 74       		.byte	0x74
 5867 1208 00       		.sleb128 0
 5868 1209 00       		.byte	0
 5869 120a 23       		.uleb128 0x23
 5870 120b 4A000000 		.4byte	.LVL7
 5871 120f 01       		.byte	0x1
 5872 1210 F5260000 		.4byte	0x26f5
 5873 1214 22       		.uleb128 0x22
 5874 1215 01       		.byte	0x1
 5875 1216 51       		.byte	0x51
 5876 1217 05       		.byte	0x5
 5877 1218 03       		.byte	0x3
 5878 1219 00000000 		.4byte	err_tcp
 5879 121d 22       		.uleb128 0x22
 5880 121e 01       		.byte	0x1
 5881 121f 50       		.byte	0x50
 5882 1220 02       		.byte	0x2
 5883 1221 74       		.byte	0x74
 5884 1222 00       		.sleb128 0
 5885 1223 00       		.byte	0
 5886 1224 00       		.byte	0
 5887 1225 24       		.uleb128 0x24
 5888 1226 CB0C0000 		.4byte	.LASF235
 5889 122a 01       		.byte	0x1
 5890 122b A903     		.2byte	0x3a9
 5891 122d 01       		.byte	0x1
 5892 122e FC050000 		.4byte	0x5fc
 5893 1232 00000000 		.4byte	.LFB23
 5894 1236 92000000 		.4byte	.LFE23
 5895 123a 4C000000 		.4byte	.LLST2
 5896 123e 01       		.byte	0x1
 5897 123f E8120000 		.4byte	0x12e8
 5898 1243 25       		.uleb128 0x25
ARM GAS  C:\Users\jenny\AppData\Local\Temp\ccWqzXsD.s 			page 105


 5899 1244 61726700 		.ascii	"arg\000"
 5900 1248 01       		.byte	0x1
 5901 1249 A903     		.2byte	0x3a9
 5902 124b B9020000 		.4byte	0x2b9
 5903 124f 6C000000 		.4byte	.LLST3
 5904 1253 25       		.uleb128 0x25
 5905 1254 70636200 		.ascii	"pcb\000"
 5906 1258 01       		.byte	0x1
 5907 1259 A903     		.2byte	0x3a9
 5908 125b 600C0000 		.4byte	0xc60
 5909 125f 95000000 		.4byte	.LLST4
 5910 1263 25       		.uleb128 0x25
 5911 1264 65727200 		.ascii	"err\000"
 5912 1268 01       		.byte	0x1
 5913 1269 A903     		.2byte	0x3a9
 5914 126b FC050000 		.4byte	0x5fc
 5915 126f CF000000 		.4byte	.LLST5
 5916 1273 26       		.uleb128 0x26
 5917 1274 9A010000 		.4byte	.LASF183
 5918 1278 01       		.byte	0x1
 5919 1279 AB03     		.2byte	0x3ab
 5920 127b EE070000 		.4byte	0x7ee
 5921 127f 6C000000 		.4byte	.LLST3
 5922 1283 26       		.uleb128 0x26
 5923 1284 410A0000 		.4byte	.LASF226
 5924 1288 01       		.byte	0x1
 5925 1289 AC03     		.2byte	0x3ac
 5926 128b 29000000 		.4byte	0x29
 5927 128f FB000000 		.4byte	.LLST7
 5928 1293 27       		.uleb128 0x27
 5929 1294 14000000 		.4byte	.LVL9
 5930 1298 0F270000 		.4byte	0x270f
 5931 129c 28       		.uleb128 0x28
 5932 129d 46000000 		.4byte	.LVL11
 5933 12a1 B6120000 		.4byte	0x12b6
 5934 12a5 22       		.uleb128 0x22
 5935 12a6 01       		.byte	0x1
 5936 12a7 52       		.byte	0x52
 5937 12a8 01       		.byte	0x1
 5938 12a9 30       		.byte	0x30
 5939 12aa 22       		.uleb128 0x22
 5940 12ab 01       		.byte	0x1
 5941 12ac 51       		.byte	0x51
 5942 12ad 01       		.byte	0x1
 5943 12ae 32       		.byte	0x32
 5944 12af 22       		.uleb128 0x22
 5945 12b0 01       		.byte	0x1
 5946 12b1 50       		.byte	0x50
 5947 12b2 02       		.byte	0x2
 5948 12b3 74       		.byte	0x74
 5949 12b4 00       		.sleb128 0
 5950 12b5 00       		.byte	0
 5951 12b6 21       		.uleb128 0x21
 5952 12b7 64000000 		.4byte	.LVL14
 5953 12bb 1A270000 		.4byte	0x271a
 5954 12bf CA120000 		.4byte	0x12ca
 5955 12c3 22       		.uleb128 0x22
ARM GAS  C:\Users\jenny\AppData\Local\Temp\ccWqzXsD.s 			page 106


 5956 12c4 01       		.byte	0x1
 5957 12c5 50       		.byte	0x50
 5958 12c6 02       		.byte	0x2
 5959 12c7 74       		.byte	0x74
 5960 12c8 0C       		.sleb128 12
 5961 12c9 00       		.byte	0
 5962 12ca 21       		.uleb128 0x21
 5963 12cb 74000000 		.4byte	.LVL16
 5964 12cf 5B110000 		.4byte	0x115b
 5965 12d3 DE120000 		.4byte	0x12de
 5966 12d7 22       		.uleb128 0x22
 5967 12d8 01       		.byte	0x1
 5968 12d9 50       		.byte	0x50
 5969 12da 02       		.byte	0x2
 5970 12db 74       		.byte	0x74
 5971 12dc 00       		.sleb128 0
 5972 12dd 00       		.byte	0
 5973 12de 27       		.uleb128 0x27
 5974 12df 86000000 		.4byte	.LVL17
 5975 12e3 0F270000 		.4byte	0x270f
 5976 12e7 00       		.byte	0
 5977 12e8 1E       		.uleb128 0x1e
 5978 12e9 F90C0000 		.4byte	.LASF228
 5979 12ed 01       		.byte	0x1
 5980 12ee EB02     		.2byte	0x2eb
 5981 12f0 01       		.byte	0x1
 5982 12f1 00000000 		.4byte	.LFB20
 5983 12f5 50010000 		.4byte	.LFE20
 5984 12f9 19010000 		.4byte	.LLST8
 5985 12fd 01       		.byte	0x1
 5986 12fe 06150000 		.4byte	0x1506
 5987 1302 1F       		.uleb128 0x1f
 5988 1303 9A010000 		.4byte	.LASF183
 5989 1307 01       		.byte	0x1
 5990 1308 EB02     		.2byte	0x2eb
 5991 130a EE070000 		.4byte	0x7ee
 5992 130e 39010000 		.4byte	.LLST9
 5993 1312 29       		.uleb128 0x29
 5994 1313 65727200 		.ascii	"err\000"
 5995 1317 01       		.byte	0x1
 5996 1318 ED02     		.2byte	0x2ed
 5997 131a FC050000 		.4byte	0x5fc
 5998 131e 6D010000 		.4byte	.LLST10
 5999 1322 26       		.uleb128 0x26
 6000 1323 8A040000 		.4byte	.LASF189
 6001 1327 01       		.byte	0x1
 6002 1328 EE02     		.2byte	0x2ee
 6003 132a 9F050000 		.4byte	0x59f
 6004 132e 96010000 		.4byte	.LLST11
 6005 1332 26       		.uleb128 0x26
 6006 1333 3C0C0000 		.4byte	.LASF229
 6007 1337 01       		.byte	0x1
 6008 1338 EE02     		.2byte	0x2ee
 6009 133a 9F050000 		.4byte	0x59f
 6010 133e B6010000 		.4byte	.LLST12
 6011 1342 26       		.uleb128 0x26
 6012 1343 130D0000 		.4byte	.LASF230
ARM GAS  C:\Users\jenny\AppData\Local\Temp\ccWqzXsD.s 			page 107


 6013 1347 01       		.byte	0x1
 6014 1348 EE02     		.2byte	0x2ee
 6015 134a 9F050000 		.4byte	0x59f
 6016 134e C9010000 		.4byte	.LLST13
 6017 1352 26       		.uleb128 0x26
 6018 1353 63070000 		.4byte	.LASF231
 6019 1357 01       		.byte	0x1
 6020 1358 EE02     		.2byte	0x2ee
 6021 135a 9F050000 		.4byte	0x59f
 6022 135e DC010000 		.4byte	.LLST14
 6023 1362 27       		.uleb128 0x27
 6024 1363 14000000 		.4byte	.LVL22
 6025 1367 0F270000 		.4byte	0x270f
 6026 136b 27       		.uleb128 0x27
 6027 136c 1E000000 		.4byte	.LVL23
 6028 1370 0F270000 		.4byte	0x270f
 6029 1374 21       		.uleb128 0x21
 6030 1375 60000000 		.4byte	.LVL28
 6031 1379 2E270000 		.4byte	0x272e
 6032 137d 8E130000 		.4byte	0x138e
 6033 1381 22       		.uleb128 0x22
 6034 1382 01       		.byte	0x1
 6035 1383 52       		.byte	0x52
 6036 1384 02       		.byte	0x2
 6037 1385 76       		.byte	0x76
 6038 1386 00       		.sleb128 0
 6039 1387 22       		.uleb128 0x22
 6040 1388 01       		.byte	0x1
 6041 1389 51       		.byte	0x51
 6042 138a 02       		.byte	0x2
 6043 138b 77       		.byte	0x77
 6044 138c 00       		.sleb128 0
 6045 138d 00       		.byte	0
 6046 138e 2A       		.uleb128 0x2a
 6047 138f 7A000000 		.4byte	.LVL30
 6048 1393 02       		.byte	0x2
 6049 1394 75       		.byte	0x75
 6050 1395 00       		.sleb128 0
 6051 1396 A6130000 		.4byte	0x13a6
 6052 139a 22       		.uleb128 0x22
 6053 139b 01       		.byte	0x1
 6054 139c 51       		.byte	0x51
 6055 139d 01       		.byte	0x1
 6056 139e 34       		.byte	0x34
 6057 139f 22       		.uleb128 0x22
 6058 13a0 01       		.byte	0x1
 6059 13a1 50       		.byte	0x50
 6060 13a2 02       		.byte	0x2
 6061 13a3 74       		.byte	0x74
 6062 13a4 00       		.sleb128 0
 6063 13a5 00       		.byte	0
 6064 13a6 28       		.uleb128 0x28
 6065 13a7 88000000 		.4byte	.LVL31
 6066 13ab C0130000 		.4byte	0x13c0
 6067 13af 22       		.uleb128 0x22
 6068 13b0 01       		.byte	0x1
 6069 13b1 52       		.byte	0x52
ARM GAS  C:\Users\jenny\AppData\Local\Temp\ccWqzXsD.s 			page 108


 6070 13b2 01       		.byte	0x1
 6071 13b3 30       		.byte	0x30
 6072 13b4 22       		.uleb128 0x22
 6073 13b5 01       		.byte	0x1
 6074 13b6 51       		.byte	0x51
 6075 13b7 01       		.byte	0x1
 6076 13b8 30       		.byte	0x30
 6077 13b9 22       		.uleb128 0x22
 6078 13ba 01       		.byte	0x1
 6079 13bb 50       		.byte	0x50
 6080 13bc 02       		.byte	0x2
 6081 13bd 74       		.byte	0x74
 6082 13be 00       		.sleb128 0
 6083 13bf 00       		.byte	0
 6084 13c0 28       		.uleb128 0x28
 6085 13c1 96000000 		.4byte	.LVL32
 6086 13c5 DA130000 		.4byte	0x13da
 6087 13c9 22       		.uleb128 0x22
 6088 13ca 01       		.byte	0x1
 6089 13cb 52       		.byte	0x52
 6090 13cc 01       		.byte	0x1
 6091 13cd 30       		.byte	0x30
 6092 13ce 22       		.uleb128 0x22
 6093 13cf 01       		.byte	0x1
 6094 13d0 51       		.byte	0x51
 6095 13d1 01       		.byte	0x1
 6096 13d2 32       		.byte	0x32
 6097 13d3 22       		.uleb128 0x22
 6098 13d4 01       		.byte	0x1
 6099 13d5 50       		.byte	0x50
 6100 13d6 02       		.byte	0x2
 6101 13d7 74       		.byte	0x74
 6102 13d8 00       		.sleb128 0
 6103 13d9 00       		.byte	0
 6104 13da 2B       		.uleb128 0x2b
 6105 13db A2000000 		.4byte	.LVL33
 6106 13df 01       		.byte	0x1
 6107 13e0 1A270000 		.4byte	0x271a
 6108 13e4 EF130000 		.4byte	0x13ef
 6109 13e8 22       		.uleb128 0x22
 6110 13e9 01       		.byte	0x1
 6111 13ea 50       		.byte	0x50
 6112 13eb 02       		.byte	0x2
 6113 13ec 74       		.byte	0x74
 6114 13ed 0C       		.sleb128 12
 6115 13ee 00       		.byte	0
 6116 13ef 21       		.uleb128 0x21
 6117 13f0 B0000000 		.4byte	.LVL35
 6118 13f4 BC260000 		.4byte	0x26bc
 6119 13f8 06140000 		.4byte	0x1406
 6120 13fc 22       		.uleb128 0x22
 6121 13fd 01       		.byte	0x1
 6122 13fe 51       		.byte	0x51
 6123 13ff 05       		.byte	0x5
 6124 1400 03       		.byte	0x3
 6125 1401 00000000 		.4byte	sent_tcp
 6126 1405 00       		.byte	0
ARM GAS  C:\Users\jenny\AppData\Local\Temp\ccWqzXsD.s 			page 109


 6127 1406 21       		.uleb128 0x21
 6128 1407 BA000000 		.4byte	.LVL36
 6129 140b D6260000 		.4byte	0x26d6
 6130 140f 22140000 		.4byte	0x1422
 6131 1413 22       		.uleb128 0x22
 6132 1414 01       		.byte	0x1
 6133 1415 52       		.byte	0x52
 6134 1416 01       		.byte	0x1
 6135 1417 34       		.byte	0x34
 6136 1418 22       		.uleb128 0x22
 6137 1419 01       		.byte	0x1
 6138 141a 51       		.byte	0x51
 6139 141b 05       		.byte	0x5
 6140 141c 03       		.byte	0x3
 6141 141d 00000000 		.4byte	poll_tcp
 6142 1421 00       		.byte	0
 6143 1422 21       		.uleb128 0x21
 6144 1423 C2000000 		.4byte	.LVL37
 6145 1427 F5260000 		.4byte	0x26f5
 6146 142b 39140000 		.4byte	0x1439
 6147 142f 22       		.uleb128 0x22
 6148 1430 01       		.byte	0x1
 6149 1431 51       		.byte	0x51
 6150 1432 05       		.byte	0x5
 6151 1433 03       		.byte	0x3
 6152 1434 00000000 		.4byte	err_tcp
 6153 1438 00       		.byte	0
 6154 1439 2B       		.uleb128 0x2b
 6155 143a CE000000 		.4byte	.LVL38
 6156 143e 01       		.byte	0x1
 6157 143f 88260000 		.4byte	0x2688
 6158 1443 4E140000 		.4byte	0x144e
 6159 1447 22       		.uleb128 0x22
 6160 1448 01       		.byte	0x1
 6161 1449 51       		.byte	0x51
 6162 144a 02       		.byte	0x2
 6163 144b 74       		.byte	0x74
 6164 144c 00       		.sleb128 0
 6165 144d 00       		.byte	0
 6166 144e 21       		.uleb128 0x21
 6167 144f D4000000 		.4byte	.LVL39
 6168 1453 BC260000 		.4byte	0x26bc
 6169 1457 61140000 		.4byte	0x1461
 6170 145b 22       		.uleb128 0x22
 6171 145c 01       		.byte	0x1
 6172 145d 51       		.byte	0x51
 6173 145e 01       		.byte	0x1
 6174 145f 30       		.byte	0x30
 6175 1460 00       		.byte	0
 6176 1461 21       		.uleb128 0x21
 6177 1462 E2000000 		.4byte	.LVL40
 6178 1466 D6260000 		.4byte	0x26d6
 6179 146a 79140000 		.4byte	0x1479
 6180 146e 22       		.uleb128 0x22
 6181 146f 01       		.byte	0x1
 6182 1470 52       		.byte	0x52
 6183 1471 01       		.byte	0x1
ARM GAS  C:\Users\jenny\AppData\Local\Temp\ccWqzXsD.s 			page 110


 6184 1472 34       		.byte	0x34
 6185 1473 22       		.uleb128 0x22
 6186 1474 01       		.byte	0x1
 6187 1475 51       		.byte	0x51
 6188 1476 01       		.byte	0x1
 6189 1477 30       		.byte	0x30
 6190 1478 00       		.byte	0
 6191 1479 21       		.uleb128 0x21
 6192 147a EA000000 		.4byte	.LVL41
 6193 147e F5260000 		.4byte	0x26f5
 6194 1482 8C140000 		.4byte	0x148c
 6195 1486 22       		.uleb128 0x22
 6196 1487 01       		.byte	0x1
 6197 1488 51       		.byte	0x51
 6198 1489 01       		.byte	0x1
 6199 148a 30       		.byte	0x30
 6200 148b 00       		.byte	0
 6201 148c 27       		.uleb128 0x27
 6202 148d F0000000 		.4byte	.LVL42
 6203 1491 51270000 		.4byte	0x2751
 6204 1495 21       		.uleb128 0x21
 6205 1496 FA000000 		.4byte	.LVL45
 6206 149a A2260000 		.4byte	0x26a2
 6207 149e A8140000 		.4byte	0x14a8
 6208 14a2 22       		.uleb128 0x22
 6209 14a3 01       		.byte	0x1
 6210 14a4 51       		.byte	0x51
 6211 14a5 01       		.byte	0x1
 6212 14a6 30       		.byte	0x30
 6213 14a7 00       		.byte	0
 6214 14a8 21       		.uleb128 0x21
 6215 14a9 02010000 		.4byte	.LVL46
 6216 14ad 6A270000 		.4byte	0x276a
 6217 14b1 BB140000 		.4byte	0x14bb
 6218 14b5 22       		.uleb128 0x22
 6219 14b6 01       		.byte	0x1
 6220 14b7 51       		.byte	0x51
 6221 14b8 01       		.byte	0x1
 6222 14b9 30       		.byte	0x30
 6223 14ba 00       		.byte	0
 6224 14bb 21       		.uleb128 0x21
 6225 14bc 12010000 		.4byte	.LVL48
 6226 14c0 88260000 		.4byte	0x2688
 6227 14c4 CE140000 		.4byte	0x14ce
 6228 14c8 22       		.uleb128 0x22
 6229 14c9 01       		.byte	0x1
 6230 14ca 51       		.byte	0x51
 6231 14cb 01       		.byte	0x1
 6232 14cc 30       		.byte	0x30
 6233 14cd 00       		.byte	0
 6234 14ce 21       		.uleb128 0x21
 6235 14cf 20010000 		.4byte	.LVL49
 6236 14d3 6A270000 		.4byte	0x276a
 6237 14d7 E1140000 		.4byte	0x14e1
 6238 14db 22       		.uleb128 0x22
 6239 14dc 01       		.byte	0x1
 6240 14dd 51       		.byte	0x51
ARM GAS  C:\Users\jenny\AppData\Local\Temp\ccWqzXsD.s 			page 111


 6241 14de 01       		.byte	0x1
 6242 14df 30       		.byte	0x30
 6243 14e0 00       		.byte	0
 6244 14e1 27       		.uleb128 0x27
 6245 14e2 2C010000 		.4byte	.LVL50
 6246 14e6 0F270000 		.4byte	0x270f
 6247 14ea 27       		.uleb128 0x27
 6248 14eb 34010000 		.4byte	.LVL52
 6249 14ef 0F270000 		.4byte	0x270f
 6250 14f3 27       		.uleb128 0x27
 6251 14f4 3A010000 		.4byte	.LVL53
 6252 14f8 0F270000 		.4byte	0x270f
 6253 14fc 27       		.uleb128 0x27
 6254 14fd 42010000 		.4byte	.LVL55
 6255 1501 0F270000 		.4byte	0x270f
 6256 1505 00       		.byte	0
 6257 1506 1E       		.uleb128 0x1e
 6258 1507 10080000 		.4byte	.LASF232
 6259 150b 01       		.byte	0x1
 6260 150c 5B01     		.2byte	0x15b
 6261 150e 01       		.byte	0x1
 6262 150f 00000000 		.4byte	.LFB12
 6263 1513 B8000000 		.4byte	.LFE12
 6264 1517 02020000 		.4byte	.LLST15
 6265 151b 01       		.byte	0x1
 6266 151c 58160000 		.4byte	0x1658
 6267 1520 25       		.uleb128 0x25
 6268 1521 61726700 		.ascii	"arg\000"
 6269 1525 01       		.byte	0x1
 6270 1526 5B01     		.2byte	0x15b
 6271 1528 B9020000 		.4byte	0x2b9
 6272 152c 22020000 		.4byte	.LLST16
 6273 1530 25       		.uleb128 0x25
 6274 1531 65727200 		.ascii	"err\000"
 6275 1535 01       		.byte	0x1
 6276 1536 5B01     		.2byte	0x15b
 6277 1538 FC050000 		.4byte	0x5fc
 6278 153c 56020000 		.4byte	.LLST17
 6279 1540 26       		.uleb128 0x26
 6280 1541 9A010000 		.4byte	.LASF183
 6281 1545 01       		.byte	0x1
 6282 1546 5D01     		.2byte	0x15d
 6283 1548 EE070000 		.4byte	0x7ee
 6284 154c 22020000 		.4byte	.LLST16
 6285 1550 26       		.uleb128 0x26
 6286 1551 F5010000 		.4byte	.LASF233
 6287 1555 01       		.byte	0x1
 6288 1556 5E01     		.2byte	0x15e
 6289 1558 71070000 		.4byte	0x771
 6290 155c 90020000 		.4byte	.LLST19
 6291 1560 2C       		.uleb128 0x2c
 6292 1561 00000000 		.4byte	.Ldebug_ranges0+0
 6293 1565 98150000 		.4byte	0x1598
 6294 1569 26       		.uleb128 0x26
 6295 156a 21050000 		.4byte	.LASF234
 6296 156e 01       		.byte	0x1
 6297 156f 8601     		.2byte	0x186
ARM GAS  C:\Users\jenny\AppData\Local\Temp\ccWqzXsD.s 			page 112


 6298 1571 29000000 		.4byte	0x29
 6299 1575 BA020000 		.4byte	.LLST20
 6300 1579 2B       		.uleb128 0x2b
 6301 157a 94000000 		.4byte	.LVL68
 6302 157e 01       		.byte	0x1
 6303 157f 1A270000 		.4byte	0x271a
 6304 1583 8E150000 		.4byte	0x158e
 6305 1587 22       		.uleb128 0x22
 6306 1588 01       		.byte	0x1
 6307 1589 50       		.byte	0x50
 6308 158a 02       		.byte	0x2
 6309 158b 74       		.byte	0x74
 6310 158c 0C       		.sleb128 12
 6311 158d 00       		.byte	0
 6312 158e 27       		.uleb128 0x27
 6313 158f B4000000 		.4byte	.LVL74
 6314 1593 0F270000 		.4byte	0x270f
 6315 1597 00       		.byte	0
 6316 1598 28       		.uleb128 0x28
 6317 1599 20000000 		.4byte	.LVL59
 6318 159d B3150000 		.4byte	0x15b3
 6319 15a1 22       		.uleb128 0x22
 6320 15a2 01       		.byte	0x1
 6321 15a3 52       		.byte	0x52
 6322 15a4 02       		.byte	0x2
 6323 15a5 75       		.byte	0x75
 6324 15a6 00       		.sleb128 0
 6325 15a7 22       		.uleb128 0x22
 6326 15a8 01       		.byte	0x1
 6327 15a9 51       		.byte	0x51
 6328 15aa 01       		.byte	0x1
 6329 15ab 34       		.byte	0x34
 6330 15ac 22       		.uleb128 0x22
 6331 15ad 01       		.byte	0x1
 6332 15ae 50       		.byte	0x50
 6333 15af 02       		.byte	0x2
 6334 15b0 74       		.byte	0x74
 6335 15b1 00       		.sleb128 0
 6336 15b2 00       		.byte	0
 6337 15b3 28       		.uleb128 0x28
 6338 15b4 2C000000 		.4byte	.LVL60
 6339 15b8 CF150000 		.4byte	0x15cf
 6340 15bc 22       		.uleb128 0x22
 6341 15bd 01       		.byte	0x1
 6342 15be 52       		.byte	0x52
 6343 15bf 02       		.byte	0x2
 6344 15c0 75       		.byte	0x75
 6345 15c1 00       		.sleb128 0
 6346 15c2 22       		.uleb128 0x22
 6347 15c3 01       		.byte	0x1
 6348 15c4 51       		.byte	0x51
 6349 15c5 02       		.byte	0x2
 6350 15c6 75       		.byte	0x75
 6351 15c7 00       		.sleb128 0
 6352 15c8 22       		.uleb128 0x22
 6353 15c9 01       		.byte	0x1
 6354 15ca 50       		.byte	0x50
ARM GAS  C:\Users\jenny\AppData\Local\Temp\ccWqzXsD.s 			page 113


 6355 15cb 02       		.byte	0x2
 6356 15cc 74       		.byte	0x74
 6357 15cd 00       		.sleb128 0
 6358 15ce 00       		.byte	0
 6359 15cf 28       		.uleb128 0x28
 6360 15d0 38000000 		.4byte	.LVL61
 6361 15d4 EA150000 		.4byte	0x15ea
 6362 15d8 22       		.uleb128 0x22
 6363 15d9 01       		.byte	0x1
 6364 15da 52       		.byte	0x52
 6365 15db 02       		.byte	0x2
 6366 15dc 75       		.byte	0x75
 6367 15dd 00       		.sleb128 0
 6368 15de 22       		.uleb128 0x22
 6369 15df 01       		.byte	0x1
 6370 15e0 51       		.byte	0x51
 6371 15e1 01       		.byte	0x1
 6372 15e2 32       		.byte	0x32
 6373 15e3 22       		.uleb128 0x22
 6374 15e4 01       		.byte	0x1
 6375 15e5 50       		.byte	0x50
 6376 15e6 02       		.byte	0x2
 6377 15e7 74       		.byte	0x74
 6378 15e8 00       		.sleb128 0
 6379 15e9 00       		.byte	0
 6380 15ea 21       		.uleb128 0x21
 6381 15eb 42000000 		.4byte	.LVL62
 6382 15ef 84270000 		.4byte	0x2784
 6383 15f3 FE150000 		.4byte	0x15fe
 6384 15f7 22       		.uleb128 0x22
 6385 15f8 01       		.byte	0x1
 6386 15f9 50       		.byte	0x50
 6387 15fa 02       		.byte	0x2
 6388 15fb 75       		.byte	0x75
 6389 15fc 00       		.sleb128 0
 6390 15fd 00       		.byte	0
 6391 15fe 21       		.uleb128 0x21
 6392 15ff 50000000 		.4byte	.LVL63
 6393 1603 84270000 		.4byte	0x2784
 6394 1607 12160000 		.4byte	0x1612
 6395 160b 22       		.uleb128 0x22
 6396 160c 01       		.byte	0x1
 6397 160d 50       		.byte	0x50
 6398 160e 02       		.byte	0x2
 6399 160f 75       		.byte	0x75
 6400 1610 00       		.sleb128 0
 6401 1611 00       		.byte	0
 6402 1612 2D       		.uleb128 0x2d
 6403 1613 6E000000 		.4byte	.LVL64
 6404 1617 01       		.byte	0x1
 6405 1618 0F270000 		.4byte	0x270f
 6406 161c 21       		.uleb128 0x21
 6407 161d 9E000000 		.4byte	.LVL69
 6408 1621 A2270000 		.4byte	0x27a2
 6409 1625 35160000 		.4byte	0x1635
 6410 1629 22       		.uleb128 0x22
 6411 162a 01       		.byte	0x1
ARM GAS  C:\Users\jenny\AppData\Local\Temp\ccWqzXsD.s 			page 114


 6412 162b 51       		.byte	0x51
 6413 162c 01       		.byte	0x1
 6414 162d 30       		.byte	0x30
 6415 162e 22       		.uleb128 0x22
 6416 162f 01       		.byte	0x1
 6417 1630 50       		.byte	0x50
 6418 1631 02       		.byte	0x2
 6419 1632 75       		.byte	0x75
 6420 1633 00       		.sleb128 0
 6421 1634 00       		.byte	0
 6422 1635 21       		.uleb128 0x21
 6423 1636 A8000000 		.4byte	.LVL70
 6424 163a A2270000 		.4byte	0x27a2
 6425 163e 4E160000 		.4byte	0x164e
 6426 1642 22       		.uleb128 0x22
 6427 1643 01       		.byte	0x1
 6428 1644 51       		.byte	0x51
 6429 1645 01       		.byte	0x1
 6430 1646 30       		.byte	0x30
 6431 1647 22       		.uleb128 0x22
 6432 1648 01       		.byte	0x1
 6433 1649 50       		.byte	0x50
 6434 164a 02       		.byte	0x2
 6435 164b 75       		.byte	0x75
 6436 164c 00       		.sleb128 0
 6437 164d 00       		.byte	0
 6438 164e 27       		.uleb128 0x27
 6439 164f AE000000 		.4byte	.LVL72
 6440 1653 0F270000 		.4byte	0x270f
 6441 1657 00       		.byte	0
 6442 1658 2E       		.uleb128 0x2e
 6443 1659 E1000000 		.4byte	.LASF236
 6444 165d 01       		.byte	0x1
 6445 165e D8       		.byte	0xd8
 6446 165f 01       		.byte	0x1
 6447 1660 FC050000 		.4byte	0x5fc
 6448 1664 00000000 		.4byte	.LFB9
 6449 1668 92000000 		.4byte	.LFE9
 6450 166c 08030000 		.4byte	.LLST21
 6451 1670 01       		.byte	0x1
 6452 1671 5B170000 		.4byte	0x175b
 6453 1675 2F       		.uleb128 0x2f
 6454 1676 61726700 		.ascii	"arg\000"
 6455 167a 01       		.byte	0x1
 6456 167b D8       		.byte	0xd8
 6457 167c B9020000 		.4byte	0x2b9
 6458 1680 28030000 		.4byte	.LLST22
 6459 1684 2F       		.uleb128 0x2f
 6460 1685 70636200 		.ascii	"pcb\000"
 6461 1689 01       		.byte	0x1
 6462 168a D8       		.byte	0xd8
 6463 168b 600C0000 		.4byte	0xc60
 6464 168f 5C030000 		.4byte	.LLST23
 6465 1693 2F       		.uleb128 0x2f
 6466 1694 7000     		.ascii	"p\000"
 6467 1696 01       		.byte	0x1
 6468 1697 D8       		.byte	0xd8
ARM GAS  C:\Users\jenny\AppData\Local\Temp\ccWqzXsD.s 			page 115


 6469 1698 F0060000 		.4byte	0x6f0
 6470 169c DE030000 		.4byte	.LLST24
 6471 16a0 2F       		.uleb128 0x2f
 6472 16a1 65727200 		.ascii	"err\000"
 6473 16a5 01       		.byte	0x1
 6474 16a6 D8       		.byte	0xd8
 6475 16a7 FC050000 		.4byte	0x5fc
 6476 16ab 47040000 		.4byte	.LLST25
 6477 16af 30       		.uleb128 0x30
 6478 16b0 9A010000 		.4byte	.LASF183
 6479 16b4 01       		.byte	0x1
 6480 16b5 DA       		.byte	0xda
 6481 16b6 EE070000 		.4byte	0x7ee
 6482 16ba 81040000 		.4byte	.LLST26
 6483 16be 31       		.uleb128 0x31
 6484 16bf 6C656E00 		.ascii	"len\000"
 6485 16c3 01       		.byte	0x1
 6486 16c4 DB       		.byte	0xdb
 6487 16c5 B5050000 		.4byte	0x5b5
 6488 16c9 AA040000 		.4byte	.LLST27
 6489 16cd 27       		.uleb128 0x27
 6490 16ce 1E000000 		.4byte	.LVL78
 6491 16d2 0F270000 		.4byte	0x270f
 6492 16d6 21       		.uleb128 0x21
 6493 16d7 28000000 		.4byte	.LVL79
 6494 16db 84270000 		.4byte	0x2784
 6495 16df EA160000 		.4byte	0x16ea
 6496 16e3 22       		.uleb128 0x22
 6497 16e4 01       		.byte	0x1
 6498 16e5 50       		.byte	0x50
 6499 16e6 02       		.byte	0x2
 6500 16e7 77       		.byte	0x77
 6501 16e8 00       		.sleb128 0
 6502 16e9 00       		.byte	0
 6503 16ea 21       		.uleb128 0x21
 6504 16eb 36000000 		.4byte	.LVL80
 6505 16ef BF270000 		.4byte	0x27bf
 6506 16f3 FE160000 		.4byte	0x16fe
 6507 16f7 22       		.uleb128 0x22
 6508 16f8 01       		.byte	0x1
 6509 16f9 50       		.byte	0x50
 6510 16fa 02       		.byte	0x2
 6511 16fb 76       		.byte	0x76
 6512 16fc 00       		.sleb128 0
 6513 16fd 00       		.byte	0
 6514 16fe 21       		.uleb128 0x21
 6515 16ff 3C000000 		.4byte	.LVL81
 6516 1703 D9270000 		.4byte	0x27d9
 6517 1707 12170000 		.4byte	0x1712
 6518 170b 22       		.uleb128 0x22
 6519 170c 01       		.byte	0x1
 6520 170d 50       		.byte	0x50
 6521 170e 02       		.byte	0x2
 6522 170f 75       		.byte	0x75
 6523 1710 00       		.sleb128 0
 6524 1711 00       		.byte	0
 6525 1712 21       		.uleb128 0x21
ARM GAS  C:\Users\jenny\AppData\Local\Temp\ccWqzXsD.s 			page 116


 6526 1713 64000000 		.4byte	.LVL85
 6527 1717 A2270000 		.4byte	0x27a2
 6528 171b 2C170000 		.4byte	0x172c
 6529 171f 22       		.uleb128 0x22
 6530 1720 01       		.byte	0x1
 6531 1721 51       		.byte	0x51
 6532 1722 02       		.byte	0x2
 6533 1723 75       		.byte	0x75
 6534 1724 00       		.sleb128 0
 6535 1725 22       		.uleb128 0x22
 6536 1726 01       		.byte	0x1
 6537 1727 50       		.byte	0x50
 6538 1728 02       		.byte	0x2
 6539 1729 77       		.byte	0x77
 6540 172a 00       		.sleb128 0
 6541 172b 00       		.byte	0
 6542 172c 28       		.uleb128 0x28
 6543 172d 76000000 		.4byte	.LVL87
 6544 1731 48170000 		.4byte	0x1748
 6545 1735 22       		.uleb128 0x22
 6546 1736 01       		.byte	0x1
 6547 1737 52       		.byte	0x52
 6548 1738 02       		.byte	0x2
 6549 1739 76       		.byte	0x76
 6550 173a 00       		.sleb128 0
 6551 173b 22       		.uleb128 0x22
 6552 173c 01       		.byte	0x1
 6553 173d 51       		.byte	0x51
 6554 173e 02       		.byte	0x2
 6555 173f 75       		.byte	0x75
 6556 1740 00       		.sleb128 0
 6557 1741 22       		.uleb128 0x22
 6558 1742 01       		.byte	0x1
 6559 1743 50       		.byte	0x50
 6560 1744 02       		.byte	0x2
 6561 1745 74       		.byte	0x74
 6562 1746 00       		.sleb128 0
 6563 1747 00       		.byte	0
 6564 1748 27       		.uleb128 0x27
 6565 1749 82000000 		.4byte	.LVL89
 6566 174d 0F270000 		.4byte	0x270f
 6567 1751 27       		.uleb128 0x27
 6568 1752 8C000000 		.4byte	.LVL93
 6569 1756 0F270000 		.4byte	0x270f
 6570 175a 00       		.byte	0
 6571 175b 24       		.uleb128 0x24
 6572 175c 9E0B0000 		.4byte	.LASF237
 6573 1760 01       		.byte	0x1
 6574 1761 B804     		.2byte	0x4b8
 6575 1763 01       		.byte	0x1
 6576 1764 FC050000 		.4byte	0x5fc
 6577 1768 00000000 		.4byte	.LFB29
 6578 176c 60010000 		.4byte	.LFE29
 6579 1770 C8040000 		.4byte	.LLST28
 6580 1774 01       		.byte	0x1
 6581 1775 BF180000 		.4byte	0x18bf
 6582 1779 1F       		.uleb128 0x1f
ARM GAS  C:\Users\jenny\AppData\Local\Temp\ccWqzXsD.s 			page 117


 6583 177a 9A010000 		.4byte	.LASF183
 6584 177e 01       		.byte	0x1
 6585 177f B804     		.2byte	0x4b8
 6586 1781 EE070000 		.4byte	0x7ee
 6587 1785 E8040000 		.4byte	.LLST29
 6588 1789 29       		.uleb128 0x29
 6589 178a 65727200 		.ascii	"err\000"
 6590 178e 01       		.byte	0x1
 6591 178f BA04     		.2byte	0x4ba
 6592 1791 FC050000 		.4byte	0x5fc
 6593 1795 06050000 		.4byte	.LLST30
 6594 1799 26       		.uleb128 0x26
 6595 179a 660C0000 		.4byte	.LASF187
 6596 179e 01       		.byte	0x1
 6597 179f BB04     		.2byte	0x4bb
 6598 17a1 B9020000 		.4byte	0x2b9
 6599 17a5 50050000 		.4byte	.LLST31
 6600 17a9 29       		.uleb128 0x29
 6601 17aa 6C656E00 		.ascii	"len\000"
 6602 17ae 01       		.byte	0x1
 6603 17af BC04     		.2byte	0x4bc
 6604 17b1 B5050000 		.4byte	0x5b5
 6605 17b5 79050000 		.4byte	.LLST32
 6606 17b9 26       		.uleb128 0x26
 6607 17ba 61060000 		.4byte	.LASF238
 6608 17be 01       		.byte	0x1
 6609 17bf BC04     		.2byte	0x4bc
 6610 17c1 B5050000 		.4byte	0x5b5
 6611 17c5 EA050000 		.4byte	.LLST33
 6612 17c9 26       		.uleb128 0x26
 6613 17ca 93020000 		.4byte	.LASF239
 6614 17ce 01       		.byte	0x1
 6615 17cf BD04     		.2byte	0x4bd
 6616 17d1 9F050000 		.4byte	0x59f
 6617 17d5 19060000 		.4byte	.LLST34
 6618 17d9 26       		.uleb128 0x26
 6619 17da FF010000 		.4byte	.LASF240
 6620 17de 01       		.byte	0x1
 6621 17df BE04     		.2byte	0x4be
 6622 17e1 30000000 		.4byte	0x30
 6623 17e5 5D060000 		.4byte	.LLST35
 6624 17e9 26       		.uleb128 0x26
 6625 17ea D9060000 		.4byte	.LASF241
 6626 17ee 01       		.byte	0x1
 6627 17ef BF04     		.2byte	0x4bf
 6628 17f1 9F050000 		.4byte	0x59f
 6629 17f5 86060000 		.4byte	.LLST36
 6630 17f9 26       		.uleb128 0x26
 6631 17fa C30B0000 		.4byte	.LASF188
 6632 17fe 01       		.byte	0x1
 6633 17ff C104     		.2byte	0x4c1
 6634 1801 9F050000 		.4byte	0x59f
 6635 1805 A4060000 		.4byte	.LLST37
 6636 1809 32       		.uleb128 0x32
 6637 180a 84030000 		.4byte	.LASF246
 6638 180e 01       		.byte	0x1
 6639 180f F904     		.2byte	0x4f9
ARM GAS  C:\Users\jenny\AppData\Local\Temp\ccWqzXsD.s 			page 118


 6640 1811 0A010000 		.4byte	.L164
 6641 1815 27       		.uleb128 0x27
 6642 1816 24000000 		.4byte	.LVL98
 6643 181a 0F270000 		.4byte	0x270f
 6644 181e 28       		.uleb128 0x28
 6645 181f 7E000000 		.4byte	.LVL104
 6646 1823 39180000 		.4byte	0x1839
 6647 1827 22       		.uleb128 0x22
 6648 1828 01       		.byte	0x1
 6649 1829 52       		.byte	0x52
 6650 182a 02       		.byte	0x2
 6651 182b 75       		.byte	0x75
 6652 182c 00       		.sleb128 0
 6653 182d 22       		.uleb128 0x22
 6654 182e 01       		.byte	0x1
 6655 182f 51       		.byte	0x51
 6656 1830 01       		.byte	0x1
 6657 1831 33       		.byte	0x33
 6658 1832 22       		.uleb128 0x22
 6659 1833 01       		.byte	0x1
 6660 1834 50       		.byte	0x50
 6661 1835 02       		.byte	0x2
 6662 1836 74       		.byte	0x74
 6663 1837 00       		.sleb128 0
 6664 1838 00       		.byte	0
 6665 1839 27       		.uleb128 0x27
 6666 183a AA000000 		.4byte	.LVL108
 6667 183e F1270000 		.4byte	0x27f1
 6668 1842 21       		.uleb128 0x21
 6669 1843 BC000000 		.4byte	.LVL109
 6670 1847 1A270000 		.4byte	0x271a
 6671 184b 56180000 		.4byte	0x1856
 6672 184f 22       		.uleb128 0x22
 6673 1850 01       		.byte	0x1
 6674 1851 50       		.byte	0x50
 6675 1852 02       		.byte	0x2
 6676 1853 74       		.byte	0x74
 6677 1854 0C       		.sleb128 12
 6678 1855 00       		.byte	0
 6679 1856 21       		.uleb128 0x21
 6680 1857 DA000000 		.4byte	.LVL114
 6681 185b 0A280000 		.4byte	0x280a
 6682 185f 76180000 		.4byte	0x1876
 6683 1863 22       		.uleb128 0x22
 6684 1864 01       		.byte	0x1
 6685 1865 53       		.byte	0x53
 6686 1866 02       		.byte	0x2
 6687 1867 77       		.byte	0x77
 6688 1868 00       		.sleb128 0
 6689 1869 22       		.uleb128 0x22
 6690 186a 01       		.byte	0x1
 6691 186b 52       		.byte	0x52
 6692 186c 02       		.byte	0x2
 6693 186d 75       		.byte	0x75
 6694 186e 00       		.sleb128 0
 6695 186f 22       		.uleb128 0x22
 6696 1870 01       		.byte	0x1
ARM GAS  C:\Users\jenny\AppData\Local\Temp\ccWqzXsD.s 			page 119


 6697 1871 51       		.byte	0x51
 6698 1872 02       		.byte	0x2
 6699 1873 7A       		.byte	0x7a
 6700 1874 00       		.sleb128 0
 6701 1875 00       		.byte	0
 6702 1876 27       		.uleb128 0x27
 6703 1877 FA000000 		.4byte	.LVL120
 6704 187b 0F270000 		.4byte	0x270f
 6705 187f 27       		.uleb128 0x27
 6706 1880 06010000 		.4byte	.LVL122
 6707 1884 0F270000 		.4byte	0x270f
 6708 1888 28       		.uleb128 0x28
 6709 1889 2A010000 		.4byte	.LVL125
 6710 188d A3180000 		.4byte	0x18a3
 6711 1891 22       		.uleb128 0x22
 6712 1892 01       		.byte	0x1
 6713 1893 52       		.byte	0x52
 6714 1894 02       		.byte	0x2
 6715 1895 75       		.byte	0x75
 6716 1896 00       		.sleb128 0
 6717 1897 22       		.uleb128 0x22
 6718 1898 01       		.byte	0x1
 6719 1899 51       		.byte	0x51
 6720 189a 01       		.byte	0x1
 6721 189b 33       		.byte	0x33
 6722 189c 22       		.uleb128 0x22
 6723 189d 01       		.byte	0x1
 6724 189e 50       		.byte	0x50
 6725 189f 02       		.byte	0x2
 6726 18a0 74       		.byte	0x74
 6727 18a1 00       		.sleb128 0
 6728 18a2 00       		.byte	0
 6729 18a3 27       		.uleb128 0x27
 6730 18a4 3E010000 		.4byte	.LVL128
 6731 18a8 F1270000 		.4byte	0x27f1
 6732 18ac 27       		.uleb128 0x27
 6733 18ad 52010000 		.4byte	.LVL131
 6734 18b1 0F270000 		.4byte	0x270f
 6735 18b5 27       		.uleb128 0x27
 6736 18b6 5E010000 		.4byte	.LVL134
 6737 18ba 0F270000 		.4byte	0x270f
 6738 18be 00       		.byte	0
 6739 18bf 24       		.uleb128 0x24
 6740 18c0 D8000000 		.4byte	.LASF242
 6741 18c4 01       		.byte	0x1
 6742 18c5 1501     		.2byte	0x115
 6743 18c7 01       		.byte	0x1
 6744 18c8 FC050000 		.4byte	0x5fc
 6745 18cc 00000000 		.4byte	.LFB10
 6746 18d0 5C000000 		.4byte	.LFE10
 6747 18d4 E3060000 		.4byte	.LLST38
 6748 18d8 01       		.byte	0x1
 6749 18d9 5C190000 		.4byte	0x195c
 6750 18dd 25       		.uleb128 0x25
 6751 18de 61726700 		.ascii	"arg\000"
 6752 18e2 01       		.byte	0x1
 6753 18e3 1501     		.2byte	0x115
ARM GAS  C:\Users\jenny\AppData\Local\Temp\ccWqzXsD.s 			page 120


 6754 18e5 B9020000 		.4byte	0x2b9
 6755 18e9 03070000 		.4byte	.LLST39
 6756 18ed 25       		.uleb128 0x25
 6757 18ee 70636200 		.ascii	"pcb\000"
 6758 18f2 01       		.byte	0x1
 6759 18f3 1501     		.2byte	0x115
 6760 18f5 600C0000 		.4byte	0xc60
 6761 18f9 37070000 		.4byte	.LLST40
 6762 18fd 26       		.uleb128 0x26
 6763 18fe 9A010000 		.4byte	.LASF183
 6764 1902 01       		.byte	0x1
 6765 1903 1701     		.2byte	0x117
 6766 1905 EE070000 		.4byte	0x7ee
 6767 1909 03070000 		.4byte	.LLST39
 6768 190d 2A       		.uleb128 0x2a
 6769 190e 42000000 		.4byte	.LVL137
 6770 1912 02       		.byte	0x2
 6771 1913 75       		.byte	0x75
 6772 1914 00       		.sleb128 0
 6773 1915 2A190000 		.4byte	0x192a
 6774 1919 22       		.uleb128 0x22
 6775 191a 01       		.byte	0x1
 6776 191b 52       		.byte	0x52
 6777 191c 01       		.byte	0x1
 6778 191d 30       		.byte	0x30
 6779 191e 22       		.uleb128 0x22
 6780 191f 01       		.byte	0x1
 6781 1920 51       		.byte	0x51
 6782 1921 01       		.byte	0x1
 6783 1922 32       		.byte	0x32
 6784 1923 22       		.uleb128 0x22
 6785 1924 01       		.byte	0x1
 6786 1925 50       		.byte	0x50
 6787 1926 02       		.byte	0x2
 6788 1927 74       		.byte	0x74
 6789 1928 00       		.sleb128 0
 6790 1929 00       		.byte	0
 6791 192a 21       		.uleb128 0x21
 6792 192b 4C000000 		.4byte	.LVL138
 6793 192f 5B170000 		.4byte	0x175b
 6794 1933 3E190000 		.4byte	0x193e
 6795 1937 22       		.uleb128 0x22
 6796 1938 01       		.byte	0x1
 6797 1939 50       		.byte	0x50
 6798 193a 02       		.byte	0x2
 6799 193b 74       		.byte	0x74
 6800 193c 00       		.sleb128 0
 6801 193d 00       		.byte	0
 6802 193e 21       		.uleb128 0x21
 6803 193f 54000000 		.4byte	.LVL139
 6804 1943 E8120000 		.4byte	0x12e8
 6805 1947 52190000 		.4byte	0x1952
 6806 194b 22       		.uleb128 0x22
 6807 194c 01       		.byte	0x1
 6808 194d 50       		.byte	0x50
 6809 194e 02       		.byte	0x2
 6810 194f 74       		.byte	0x74
ARM GAS  C:\Users\jenny\AppData\Local\Temp\ccWqzXsD.s 			page 121


 6811 1950 00       		.sleb128 0
 6812 1951 00       		.byte	0
 6813 1952 27       		.uleb128 0x27
 6814 1953 5A000000 		.4byte	.LVL141
 6815 1957 0F270000 		.4byte	0x270f
 6816 195b 00       		.byte	0
 6817 195c 33       		.uleb128 0x33
 6818 195d 72040000 		.4byte	.LASF243
 6819 1961 01       		.byte	0x1
 6820 1962 90       		.byte	0x90
 6821 1963 01       		.byte	0x1
 6822 1964 00000000 		.4byte	.LFB8
 6823 1968 9C000000 		.4byte	.LFE8
 6824 196c 71070000 		.4byte	.LLST42
 6825 1970 01       		.byte	0x1
 6826 1971 871A0000 		.4byte	0x1a87
 6827 1975 2F       		.uleb128 0x2f
 6828 1976 61726700 		.ascii	"arg\000"
 6829 197a 01       		.byte	0x1
 6830 197b 90       		.byte	0x90
 6831 197c B9020000 		.4byte	0x2b9
 6832 1980 9D070000 		.4byte	.LLST43
 6833 1984 2F       		.uleb128 0x2f
 6834 1985 70636200 		.ascii	"pcb\000"
 6835 1989 01       		.byte	0x1
 6836 198a 90       		.byte	0x90
 6837 198b 0D0D0000 		.4byte	0xd0d
 6838 198f D1070000 		.4byte	.LLST44
 6839 1993 2F       		.uleb128 0x2f
 6840 1994 7000     		.ascii	"p\000"
 6841 1996 01       		.byte	0x1
 6842 1997 90       		.byte	0x90
 6843 1998 F0060000 		.4byte	0x6f0
 6844 199c 0B080000 		.4byte	.LLST45
 6845 19a0 34       		.uleb128 0x34
 6846 19a1 9B070000 		.4byte	.LASF77
 6847 19a5 01       		.byte	0x1
 6848 19a6 91       		.byte	0x91
 6849 19a7 F6060000 		.4byte	0x6f6
 6850 19ab 72080000 		.4byte	.LLST46
 6851 19af 35       		.uleb128 0x35
 6852 19b0 1F0B0000 		.4byte	.LASF99
 6853 19b4 01       		.byte	0x1
 6854 19b5 91       		.byte	0x91
 6855 19b6 B5050000 		.4byte	0x5b5
 6856 19ba 02       		.byte	0x2
 6857 19bb 91       		.byte	0x91
 6858 19bc 00       		.sleb128 0
 6859 19bd 31       		.uleb128 0x31
 6860 19be 62756600 		.ascii	"buf\000"
 6861 19c2 01       		.byte	0x1
 6862 19c3 93       		.byte	0x93
 6863 19c4 090F0000 		.4byte	0xf09
 6864 19c8 A6080000 		.4byte	.LLST47
 6865 19cc 30       		.uleb128 0x30
 6866 19cd 9A010000 		.4byte	.LASF183
 6867 19d1 01       		.byte	0x1
ARM GAS  C:\Users\jenny\AppData\Local\Temp\ccWqzXsD.s 			page 122


 6868 19d2 94       		.byte	0x94
 6869 19d3 EE070000 		.4byte	0x7ee
 6870 19d7 DA080000 		.4byte	.LLST48
 6871 19db 31       		.uleb128 0x31
 6872 19dc 6C656E00 		.ascii	"len\000"
 6873 19e0 01       		.byte	0x1
 6874 19e1 95       		.byte	0x95
 6875 19e2 B5050000 		.4byte	0x5b5
 6876 19e6 03090000 		.4byte	.LLST49
 6877 19ea 27       		.uleb128 0x27
 6878 19eb 22000000 		.4byte	.LVL145
 6879 19ef 0F270000 		.4byte	0x270f
 6880 19f3 21       		.uleb128 0x21
 6881 19f4 2C000000 		.4byte	.LVL146
 6882 19f8 84270000 		.4byte	0x2784
 6883 19fc 071A0000 		.4byte	0x1a07
 6884 1a00 22       		.uleb128 0x22
 6885 1a01 01       		.byte	0x1
 6886 1a02 50       		.byte	0x50
 6887 1a03 02       		.byte	0x2
 6888 1a04 77       		.byte	0x77
 6889 1a05 00       		.sleb128 0
 6890 1a06 00       		.byte	0
 6891 1a07 2B       		.uleb128 0x2b
 6892 1a08 3A000000 		.4byte	.LVL147
 6893 1a0c 01       		.byte	0x1
 6894 1a0d D9270000 		.4byte	0x27d9
 6895 1a11 1C1A0000 		.4byte	0x1a1c
 6896 1a15 22       		.uleb128 0x22
 6897 1a16 01       		.byte	0x1
 6898 1a17 50       		.byte	0x50
 6899 1a18 02       		.byte	0x2
 6900 1a19 75       		.byte	0x75
 6901 1a1a 00       		.sleb128 0
 6902 1a1b 00       		.byte	0
 6903 1a1c 21       		.uleb128 0x21
 6904 1a1d 40000000 		.4byte	.LVL148
 6905 1a21 32280000 		.4byte	0x2832
 6906 1a25 2F1A0000 		.4byte	0x1a2f
 6907 1a29 22       		.uleb128 0x22
 6908 1a2a 01       		.byte	0x1
 6909 1a2b 50       		.byte	0x50
 6910 1a2c 01       		.byte	0x1
 6911 1a2d 37       		.byte	0x37
 6912 1a2e 00       		.byte	0
 6913 1a2f 21       		.uleb128 0x21
 6914 1a30 64000000 		.4byte	.LVL151
 6915 1a34 A2270000 		.4byte	0x27a2
 6916 1a38 491A0000 		.4byte	0x1a49
 6917 1a3c 22       		.uleb128 0x22
 6918 1a3d 01       		.byte	0x1
 6919 1a3e 51       		.byte	0x51
 6920 1a3f 02       		.byte	0x2
 6921 1a40 76       		.byte	0x76
 6922 1a41 00       		.sleb128 0
 6923 1a42 22       		.uleb128 0x22
 6924 1a43 01       		.byte	0x1
ARM GAS  C:\Users\jenny\AppData\Local\Temp\ccWqzXsD.s 			page 123


 6925 1a44 50       		.byte	0x50
 6926 1a45 02       		.byte	0x2
 6927 1a46 77       		.byte	0x77
 6928 1a47 00       		.sleb128 0
 6929 1a48 00       		.byte	0
 6930 1a49 28       		.uleb128 0x28
 6931 1a4a 72000000 		.4byte	.LVL152
 6932 1a4e 5F1A0000 		.4byte	0x1a5f
 6933 1a52 22       		.uleb128 0x22
 6934 1a53 01       		.byte	0x1
 6935 1a54 52       		.byte	0x52
 6936 1a55 02       		.byte	0x2
 6937 1a56 75       		.byte	0x75
 6938 1a57 00       		.sleb128 0
 6939 1a58 22       		.uleb128 0x22
 6940 1a59 01       		.byte	0x1
 6941 1a5a 50       		.byte	0x50
 6942 1a5b 02       		.byte	0x2
 6943 1a5c 74       		.byte	0x74
 6944 1a5d 00       		.sleb128 0
 6945 1a5e 00       		.byte	0
 6946 1a5f 27       		.uleb128 0x27
 6947 1a60 7E000000 		.4byte	.LVL154
 6948 1a64 0F270000 		.4byte	0x270f
 6949 1a68 2B       		.uleb128 0x2b
 6950 1a69 8E000000 		.4byte	.LVL156
 6951 1a6d 01       		.byte	0x1
 6952 1a6e 4A280000 		.4byte	0x284a
 6953 1a72 7D1A0000 		.4byte	0x1a7d
 6954 1a76 22       		.uleb128 0x22
 6955 1a77 01       		.byte	0x1
 6956 1a78 50       		.byte	0x50
 6957 1a79 02       		.byte	0x2
 6958 1a7a 76       		.byte	0x76
 6959 1a7b 00       		.sleb128 0
 6960 1a7c 00       		.byte	0
 6961 1a7d 27       		.uleb128 0x27
 6962 1a7e 94000000 		.4byte	.LVL157
 6963 1a82 0F270000 		.4byte	0x270f
 6964 1a86 00       		.byte	0
 6965 1a87 2E       		.uleb128 0x2e
 6966 1a88 6B020000 		.4byte	.LASF244
 6967 1a8c 01       		.byte	0x1
 6968 1a8d 4E       		.byte	0x4e
 6969 1a8e 01       		.byte	0x1
 6970 1a8f 9F050000 		.4byte	0x59f
 6971 1a93 00000000 		.4byte	.LFB7
 6972 1a97 88000000 		.4byte	.LFE7
 6973 1a9b 30090000 		.4byte	.LLST50
 6974 1a9f 01       		.byte	0x1
 6975 1aa0 CC1B0000 		.4byte	0x1bcc
 6976 1aa4 2F       		.uleb128 0x2f
 6977 1aa5 61726700 		.ascii	"arg\000"
 6978 1aa9 01       		.byte	0x1
 6979 1aaa 4E       		.byte	0x4e
 6980 1aab B9020000 		.4byte	0x2b9
 6981 1aaf 50090000 		.4byte	.LLST51
ARM GAS  C:\Users\jenny\AppData\Local\Temp\ccWqzXsD.s 			page 124


 6982 1ab3 2F       		.uleb128 0x2f
 6983 1ab4 70636200 		.ascii	"pcb\000"
 6984 1ab8 01       		.byte	0x1
 6985 1ab9 4E       		.byte	0x4e
 6986 1aba 9E0D0000 		.4byte	0xd9e
 6987 1abe 6E090000 		.4byte	.LLST52
 6988 1ac2 2F       		.uleb128 0x2f
 6989 1ac3 7000     		.ascii	"p\000"
 6990 1ac5 01       		.byte	0x1
 6991 1ac6 4E       		.byte	0x4e
 6992 1ac7 F0060000 		.4byte	0x6f0
 6993 1acb CC090000 		.4byte	.LLST53
 6994 1acf 34       		.uleb128 0x34
 6995 1ad0 9B070000 		.4byte	.LASF77
 6996 1ad4 01       		.byte	0x1
 6997 1ad5 4F       		.byte	0x4f
 6998 1ad6 F6060000 		.4byte	0x6f6
 6999 1ada 110A0000 		.4byte	.LLST54
 7000 1ade 31       		.uleb128 0x31
 7001 1adf 7100     		.ascii	"q\000"
 7002 1ae1 01       		.byte	0x1
 7003 1ae2 51       		.byte	0x51
 7004 1ae3 F0060000 		.4byte	0x6f0
 7005 1ae7 320A0000 		.4byte	.LLST55
 7006 1aeb 31       		.uleb128 0x31
 7007 1aec 62756600 		.ascii	"buf\000"
 7008 1af0 01       		.byte	0x1
 7009 1af1 52       		.byte	0x52
 7010 1af2 090F0000 		.4byte	0xf09
 7011 1af6 500A0000 		.4byte	.LLST56
 7012 1afa 30       		.uleb128 0x30
 7013 1afb 9A010000 		.4byte	.LASF183
 7014 1aff 01       		.byte	0x1
 7015 1b00 53       		.byte	0x53
 7016 1b01 EE070000 		.4byte	0x7ee
 7017 1b05 50090000 		.4byte	.LLST51
 7018 1b09 2C       		.uleb128 0x2c
 7019 1b0a 20000000 		.4byte	.Ldebug_ranges0+0x20
 7020 1b0e 891B0000 		.4byte	0x1b89
 7021 1b12 31       		.uleb128 0x31
 7022 1b13 6C656E00 		.ascii	"len\000"
 7023 1b17 01       		.byte	0x1
 7024 1b18 6A       		.byte	0x6a
 7025 1b19 B5050000 		.4byte	0x5b5
 7026 1b1d 790A0000 		.4byte	.LLST58
 7027 1b21 21       		.uleb128 0x21
 7028 1b22 3C000000 		.4byte	.LVL166
 7029 1b26 32280000 		.4byte	0x2832
 7030 1b2a 341B0000 		.4byte	0x1b34
 7031 1b2e 22       		.uleb128 0x22
 7032 1b2f 01       		.byte	0x1
 7033 1b30 50       		.byte	0x50
 7034 1b31 01       		.byte	0x1
 7035 1b32 37       		.byte	0x37
 7036 1b33 00       		.byte	0
 7037 1b34 21       		.uleb128 0x21
 7038 1b35 5E000000 		.4byte	.LVL170
ARM GAS  C:\Users\jenny\AppData\Local\Temp\ccWqzXsD.s 			page 125


 7039 1b39 A2270000 		.4byte	0x27a2
 7040 1b3d 4E1B0000 		.4byte	0x1b4e
 7041 1b41 22       		.uleb128 0x22
 7042 1b42 01       		.byte	0x1
 7043 1b43 51       		.byte	0x51
 7044 1b44 02       		.byte	0x2
 7045 1b45 76       		.byte	0x76
 7046 1b46 00       		.sleb128 0
 7047 1b47 22       		.uleb128 0x22
 7048 1b48 01       		.byte	0x1
 7049 1b49 50       		.byte	0x50
 7050 1b4a 02       		.byte	0x2
 7051 1b4b 75       		.byte	0x75
 7052 1b4c 00       		.sleb128 0
 7053 1b4d 00       		.byte	0
 7054 1b4e 28       		.uleb128 0x28
 7055 1b4f 6E000000 		.4byte	.LVL171
 7056 1b53 641B0000 		.4byte	0x1b64
 7057 1b57 22       		.uleb128 0x22
 7058 1b58 01       		.byte	0x1
 7059 1b59 52       		.byte	0x52
 7060 1b5a 02       		.byte	0x2
 7061 1b5b 77       		.byte	0x77
 7062 1b5c 00       		.sleb128 0
 7063 1b5d 22       		.uleb128 0x22
 7064 1b5e 01       		.byte	0x1
 7065 1b5f 50       		.byte	0x50
 7066 1b60 02       		.byte	0x2
 7067 1b61 74       		.byte	0x74
 7068 1b62 00       		.sleb128 0
 7069 1b63 00       		.byte	0
 7070 1b64 21       		.uleb128 0x21
 7071 1b65 7A000000 		.4byte	.LVL173
 7072 1b69 D9270000 		.4byte	0x27d9
 7073 1b6d 781B0000 		.4byte	0x1b78
 7074 1b71 22       		.uleb128 0x22
 7075 1b72 01       		.byte	0x1
 7076 1b73 50       		.byte	0x50
 7077 1b74 02       		.byte	0x2
 7078 1b75 78       		.byte	0x78
 7079 1b76 00       		.sleb128 0
 7080 1b77 00       		.byte	0
 7081 1b78 36       		.uleb128 0x36
 7082 1b79 82000000 		.4byte	.LVL175
 7083 1b7d 4A280000 		.4byte	0x284a
 7084 1b81 22       		.uleb128 0x22
 7085 1b82 01       		.byte	0x1
 7086 1b83 50       		.byte	0x50
 7087 1b84 02       		.byte	0x2
 7088 1b85 76       		.byte	0x76
 7089 1b86 00       		.sleb128 0
 7090 1b87 00       		.byte	0
 7091 1b88 00       		.byte	0
 7092 1b89 21       		.uleb128 0x21
 7093 1b8a 16000000 		.4byte	.LVL161
 7094 1b8e 84270000 		.4byte	0x2784
 7095 1b92 9D1B0000 		.4byte	0x1b9d
ARM GAS  C:\Users\jenny\AppData\Local\Temp\ccWqzXsD.s 			page 126


 7096 1b96 22       		.uleb128 0x22
 7097 1b97 01       		.byte	0x1
 7098 1b98 50       		.byte	0x50
 7099 1b99 02       		.byte	0x2
 7100 1b9a 75       		.byte	0x75
 7101 1b9b 00       		.sleb128 0
 7102 1b9c 00       		.byte	0
 7103 1b9d 21       		.uleb128 0x21
 7104 1b9e 28000000 		.4byte	.LVL164
 7105 1ba2 5E280000 		.4byte	0x285e
 7106 1ba6 B51B0000 		.4byte	0x1bb5
 7107 1baa 22       		.uleb128 0x22
 7108 1bab 01       		.byte	0x1
 7109 1bac 52       		.byte	0x52
 7110 1bad 01       		.byte	0x1
 7111 1bae 30       		.byte	0x30
 7112 1baf 22       		.uleb128 0x22
 7113 1bb0 01       		.byte	0x1
 7114 1bb1 50       		.byte	0x50
 7115 1bb2 01       		.byte	0x1
 7116 1bb3 33       		.byte	0x33
 7117 1bb4 00       		.byte	0
 7118 1bb5 36       		.uleb128 0x36
 7119 1bb6 34000000 		.4byte	.LVL165
 7120 1bba 80280000 		.4byte	0x2880
 7121 1bbe 22       		.uleb128 0x22
 7122 1bbf 01       		.byte	0x1
 7123 1bc0 51       		.byte	0x51
 7124 1bc1 02       		.byte	0x2
 7125 1bc2 76       		.byte	0x76
 7126 1bc3 00       		.sleb128 0
 7127 1bc4 22       		.uleb128 0x22
 7128 1bc5 01       		.byte	0x1
 7129 1bc6 50       		.byte	0x50
 7130 1bc7 02       		.byte	0x2
 7131 1bc8 78       		.byte	0x78
 7132 1bc9 00       		.sleb128 0
 7133 1bca 00       		.byte	0
 7134 1bcb 00       		.byte	0
 7135 1bcc 37       		.uleb128 0x37
 7136 1bcd 18110000 		.4byte	0x1118
 7137 1bd1 00000000 		.4byte	.LFB11
 7138 1bd5 56000000 		.4byte	.LFE11
 7139 1bd9 A30A0000 		.4byte	.LLST59
 7140 1bdd 01       		.byte	0x1
 7141 1bde 8A1C0000 		.4byte	0x1c8a
 7142 1be2 38       		.uleb128 0x38
 7143 1be3 2A110000 		.4byte	0x112a
 7144 1be7 C30A0000 		.4byte	.LLST60
 7145 1beb 38       		.uleb128 0x38
 7146 1bec 36110000 		.4byte	0x1136
 7147 1bf0 F70A0000 		.4byte	.LLST61
 7148 1bf4 38       		.uleb128 0x38
 7149 1bf5 42110000 		.4byte	0x1142
 7150 1bf9 310B0000 		.4byte	.LLST62
 7151 1bfd 39       		.uleb128 0x39
 7152 1bfe 4E110000 		.4byte	0x114e
ARM GAS  C:\Users\jenny\AppData\Local\Temp\ccWqzXsD.s 			page 127


 7153 1c02 C30A0000 		.4byte	.LLST60
 7154 1c06 3A       		.uleb128 0x3a
 7155 1c07 18110000 		.4byte	0x1118
 7156 1c0b 28000000 		.4byte	.LBB9
 7157 1c0f 3C000000 		.4byte	.LBE9
 7158 1c13 01       		.byte	0x1
 7159 1c14 3901     		.2byte	0x139
 7160 1c16 581C0000 		.4byte	0x1c58
 7161 1c1a 38       		.uleb128 0x38
 7162 1c1b 42110000 		.4byte	0x1142
 7163 1c1f 6B0B0000 		.4byte	.LLST64
 7164 1c23 38       		.uleb128 0x38
 7165 1c24 2A110000 		.4byte	0x112a
 7166 1c28 7E0B0000 		.4byte	.LLST65
 7167 1c2c 3B       		.uleb128 0x3b
 7168 1c2d 28000000 		.4byte	.LBB10
 7169 1c31 3C000000 		.4byte	.LBE10
 7170 1c35 3C       		.uleb128 0x3c
 7171 1c36 4E110000 		.4byte	0x114e
 7172 1c3a 3D       		.uleb128 0x3d
 7173 1c3b 36110000 		.4byte	0x1136
 7174 1c3f 3E       		.uleb128 0x3e
 7175 1c40 3C000000 		.4byte	.LVL179
 7176 1c44 22       		.uleb128 0x22
 7177 1c45 01       		.byte	0x1
 7178 1c46 52       		.byte	0x52
 7179 1c47 02       		.byte	0x2
 7180 1c48 75       		.byte	0x75
 7181 1c49 00       		.sleb128 0
 7182 1c4a 22       		.uleb128 0x22
 7183 1c4b 01       		.byte	0x1
 7184 1c4c 51       		.byte	0x51
 7185 1c4d 01       		.byte	0x1
 7186 1c4e 32       		.byte	0x32
 7187 1c4f 22       		.uleb128 0x22
 7188 1c50 01       		.byte	0x1
 7189 1c51 50       		.byte	0x50
 7190 1c52 02       		.byte	0x2
 7191 1c53 74       		.byte	0x74
 7192 1c54 00       		.sleb128 0
 7193 1c55 00       		.byte	0
 7194 1c56 00       		.byte	0
 7195 1c57 00       		.byte	0
 7196 1c58 21       		.uleb128 0x21
 7197 1c59 46000000 		.4byte	.LVL180
 7198 1c5d 5B170000 		.4byte	0x175b
 7199 1c61 6C1C0000 		.4byte	0x1c6c
 7200 1c65 22       		.uleb128 0x22
 7201 1c66 01       		.byte	0x1
 7202 1c67 50       		.byte	0x50
 7203 1c68 02       		.byte	0x2
 7204 1c69 74       		.byte	0x74
 7205 1c6a 00       		.sleb128 0
 7206 1c6b 00       		.byte	0
 7207 1c6c 21       		.uleb128 0x21
 7208 1c6d 4E000000 		.4byte	.LVL181
 7209 1c71 E8120000 		.4byte	0x12e8
ARM GAS  C:\Users\jenny\AppData\Local\Temp\ccWqzXsD.s 			page 128


 7210 1c75 801C0000 		.4byte	0x1c80
 7211 1c79 22       		.uleb128 0x22
 7212 1c7a 01       		.byte	0x1
 7213 1c7b 50       		.byte	0x50
 7214 1c7c 02       		.byte	0x2
 7215 1c7d 74       		.byte	0x74
 7216 1c7e 00       		.sleb128 0
 7217 1c7f 00       		.byte	0
 7218 1c80 27       		.uleb128 0x27
 7219 1c81 54000000 		.4byte	.LVL183
 7220 1c85 0F270000 		.4byte	0x270f
 7221 1c89 00       		.byte	0
 7222 1c8a 3F       		.uleb128 0x3f
 7223 1c8b D80C0000 		.4byte	.LASF321
 7224 1c8f 01       		.byte	0x1
 7225 1c90 EA01     		.2byte	0x1ea
 7226 1c92 01       		.byte	0x1
 7227 1c93 01       		.byte	0x1
 7228 1c94 A51C0000 		.4byte	0x1ca5
 7229 1c98 1C       		.uleb128 0x1c
 7230 1c99 6D736700 		.ascii	"msg\000"
 7231 1c9d 01       		.byte	0x1
 7232 1c9e EA01     		.2byte	0x1ea
 7233 1ca0 DB0D0000 		.4byte	0xddb
 7234 1ca4 00       		.byte	0
 7235 1ca5 40       		.uleb128 0x40
 7236 1ca6 01       		.byte	0x1
 7237 1ca7 F40A0000 		.4byte	.LASF248
 7238 1cab 01       		.byte	0x1
 7239 1cac 2402     		.2byte	0x224
 7240 1cae 01       		.byte	0x1
 7241 1caf 00000000 		.4byte	.LFB16
 7242 1cb3 98000000 		.4byte	.LFE16
 7243 1cb7 910B0000 		.4byte	.LLST66
 7244 1cbb 01       		.byte	0x1
 7245 1cbc 631D0000 		.4byte	0x1d63
 7246 1cc0 25       		.uleb128 0x25
 7247 1cc1 6D736700 		.ascii	"msg\000"
 7248 1cc5 01       		.byte	0x1
 7249 1cc6 2402     		.2byte	0x224
 7250 1cc8 DB0D0000 		.4byte	0xddb
 7251 1ccc B10B0000 		.4byte	.LLST67
 7252 1cd0 3A       		.uleb128 0x3a
 7253 1cd1 8A1C0000 		.4byte	0x1c8a
 7254 1cd5 1A000000 		.4byte	.LBB13
 7255 1cd9 98000000 		.4byte	.LBE13
 7256 1cdd 01       		.byte	0x1
 7257 1cde 2802     		.2byte	0x228
 7258 1ce0 511D0000 		.4byte	0x1d51
 7259 1ce4 41       		.uleb128 0x41
 7260 1ce5 981C0000 		.4byte	0x1c98
 7261 1ce9 01       		.byte	0x1
 7262 1cea 55       		.byte	0x55
 7263 1ceb 27       		.uleb128 0x27
 7264 1cec 36000000 		.4byte	.LVL187
 7265 1cf0 9D280000 		.4byte	0x289d
 7266 1cf4 21       		.uleb128 0x21
ARM GAS  C:\Users\jenny\AppData\Local\Temp\ccWqzXsD.s 			page 129


 7267 1cf5 44000000 		.4byte	.LVL188
 7268 1cf9 5B110000 		.4byte	0x115b
 7269 1cfd 081D0000 		.4byte	0x1d08
 7270 1d01 22       		.uleb128 0x22
 7271 1d02 01       		.byte	0x1
 7272 1d03 50       		.byte	0x50
 7273 1d04 02       		.byte	0x2
 7274 1d05 74       		.byte	0x74
 7275 1d06 00       		.sleb128 0
 7276 1d07 00       		.byte	0
 7277 1d08 27       		.uleb128 0x27
 7278 1d09 4E000000 		.4byte	.LVL189
 7279 1d0d AC280000 		.4byte	0x28ac
 7280 1d11 21       		.uleb128 0x21
 7281 1d12 5E000000 		.4byte	.LVL190
 7282 1d16 C4280000 		.4byte	0x28c4
 7283 1d1a 2E1D0000 		.4byte	0x1d2e
 7284 1d1e 22       		.uleb128 0x22
 7285 1d1f 01       		.byte	0x1
 7286 1d20 52       		.byte	0x52
 7287 1d21 02       		.byte	0x2
 7288 1d22 74       		.byte	0x74
 7289 1d23 00       		.sleb128 0
 7290 1d24 22       		.uleb128 0x22
 7291 1d25 01       		.byte	0x1
 7292 1d26 51       		.byte	0x51
 7293 1d27 05       		.byte	0x5
 7294 1d28 03       		.byte	0x3
 7295 1d29 00000000 		.4byte	recv_raw
 7296 1d2d 00       		.byte	0
 7297 1d2e 27       		.uleb128 0x27
 7298 1d2f 66000000 		.4byte	.LVL191
 7299 1d33 E2280000 		.4byte	0x28e2
 7300 1d37 36       		.uleb128 0x36
 7301 1d38 84000000 		.4byte	.LVL192
 7302 1d3c F0280000 		.4byte	0x28f0
 7303 1d40 22       		.uleb128 0x22
 7304 1d41 01       		.byte	0x1
 7305 1d42 52       		.byte	0x52
 7306 1d43 02       		.byte	0x2
 7307 1d44 74       		.byte	0x74
 7308 1d45 00       		.sleb128 0
 7309 1d46 22       		.uleb128 0x22
 7310 1d47 01       		.byte	0x1
 7311 1d48 51       		.byte	0x51
 7312 1d49 05       		.byte	0x5
 7313 1d4a 03       		.byte	0x3
 7314 1d4b 00000000 		.4byte	recv_udp
 7315 1d4f 00       		.byte	0
 7316 1d50 00       		.byte	0
 7317 1d51 23       		.uleb128 0x23
 7318 1d52 1A000000 		.4byte	.LVL186
 7319 1d56 01       		.byte	0x1
 7320 1d57 1A270000 		.4byte	0x271a
 7321 1d5b 22       		.uleb128 0x22
 7322 1d5c 01       		.byte	0x1
 7323 1d5d 50       		.byte	0x50
ARM GAS  C:\Users\jenny\AppData\Local\Temp\ccWqzXsD.s 			page 130


 7324 1d5e 02       		.byte	0x2
 7325 1d5f 74       		.byte	0x74
 7326 1d60 0C       		.sleb128 12
 7327 1d61 00       		.byte	0
 7328 1d62 00       		.byte	0
 7329 1d63 42       		.uleb128 0x42
 7330 1d64 01       		.byte	0x1
 7331 1d65 7A010000 		.4byte	.LASF322
 7332 1d69 01       		.byte	0x1
 7333 1d6a 3C02     		.2byte	0x23c
 7334 1d6c 01       		.byte	0x1
 7335 1d6d EE070000 		.4byte	0x7ee
 7336 1d71 00000000 		.4byte	.LFB17
 7337 1d75 82000000 		.4byte	.LFE17
 7338 1d79 CF0B0000 		.4byte	.LLST68
 7339 1d7d 01       		.byte	0x1
 7340 1d7e 591E0000 		.4byte	0x1e59
 7341 1d82 25       		.uleb128 0x25
 7342 1d83 7400     		.ascii	"t\000"
 7343 1d85 01       		.byte	0x1
 7344 1d86 3C02     		.2byte	0x23c
 7345 1d88 3F070000 		.4byte	0x73f
 7346 1d8c EF0B0000 		.4byte	.LLST69
 7347 1d90 1F       		.uleb128 0x1f
 7348 1d91 7F060000 		.4byte	.LASF129
 7349 1d95 01       		.byte	0x1
 7350 1d96 3C02     		.2byte	0x23c
 7351 1d98 C7070000 		.4byte	0x7c7
 7352 1d9c 100C0000 		.4byte	.LLST70
 7353 1da0 26       		.uleb128 0x26
 7354 1da1 9A010000 		.4byte	.LASF183
 7355 1da5 01       		.byte	0x1
 7356 1da6 3E02     		.2byte	0x23e
 7357 1da8 EE070000 		.4byte	0x7ee
 7358 1dac 2E0C0000 		.4byte	.LLST71
 7359 1db0 26       		.uleb128 0x26
 7360 1db1 2A090000 		.4byte	.LASF245
 7361 1db5 01       		.byte	0x1
 7362 1db6 3F02     		.2byte	0x23f
 7363 1db8 29000000 		.4byte	0x29
 7364 1dbc 780C0000 		.4byte	.LLST72
 7365 1dc0 32       		.uleb128 0x32
 7366 1dc1 0F030000 		.4byte	.LASF247
 7367 1dc5 01       		.byte	0x1
 7368 1dc6 8502     		.2byte	0x285
 7369 1dc8 2C000000 		.4byte	.L286
 7370 1dcc 21       		.uleb128 0x21
 7371 1dcd 0C000000 		.4byte	.LVL195
 7372 1dd1 32280000 		.4byte	0x2832
 7373 1dd5 DF1D0000 		.4byte	0x1ddf
 7374 1dd9 22       		.uleb128 0x22
 7375 1dda 01       		.byte	0x1
 7376 1ddb 50       		.byte	0x50
 7377 1ddc 01       		.byte	0x1
 7378 1ddd 38       		.byte	0x38
 7379 1dde 00       		.byte	0
 7380 1ddf 27       		.uleb128 0x27
ARM GAS  C:\Users\jenny\AppData\Local\Temp\ccWqzXsD.s 			page 131


 7381 1de0 2C000000 		.4byte	.LVL196
 7382 1de4 0F270000 		.4byte	0x270f
 7383 1de8 21       		.uleb128 0x21
 7384 1de9 34000000 		.4byte	.LVL197
 7385 1ded 0E290000 		.4byte	0x290e
 7386 1df1 011E0000 		.4byte	0x1e01
 7387 1df5 22       		.uleb128 0x22
 7388 1df6 01       		.byte	0x1
 7389 1df7 51       		.byte	0x51
 7390 1df8 02       		.byte	0x2
 7391 1df9 74       		.byte	0x74
 7392 1dfa 00       		.sleb128 0
 7393 1dfb 22       		.uleb128 0x22
 7394 1dfc 01       		.byte	0x1
 7395 1dfd 50       		.byte	0x50
 7396 1dfe 01       		.byte	0x1
 7397 1dff 38       		.byte	0x38
 7398 1e00 00       		.byte	0
 7399 1e01 21       		.uleb128 0x21
 7400 1e02 48000000 		.4byte	.LVL202
 7401 1e06 27290000 		.4byte	0x2927
 7402 1e0a 1A1E0000 		.4byte	0x1e1a
 7403 1e0e 22       		.uleb128 0x22
 7404 1e0f 01       		.byte	0x1
 7405 1e10 51       		.byte	0x51
 7406 1e11 01       		.byte	0x1
 7407 1e12 30       		.byte	0x30
 7408 1e13 22       		.uleb128 0x22
 7409 1e14 01       		.byte	0x1
 7410 1e15 50       		.byte	0x50
 7411 1e16 02       		.byte	0x2
 7412 1e17 77       		.byte	0x77
 7413 1e18 00       		.sleb128 0
 7414 1e19 00       		.byte	0
 7415 1e1a 21       		.uleb128 0x21
 7416 1e1b 56000000 		.4byte	.LVL203
 7417 1e1f 44290000 		.4byte	0x2944
 7418 1e23 341E0000 		.4byte	0x1e34
 7419 1e27 22       		.uleb128 0x22
 7420 1e28 01       		.byte	0x1
 7421 1e29 51       		.byte	0x51
 7422 1e2a 02       		.byte	0x2
 7423 1e2b 75       		.byte	0x75
 7424 1e2c 00       		.sleb128 0
 7425 1e2d 22       		.uleb128 0x22
 7426 1e2e 01       		.byte	0x1
 7427 1e2f 50       		.byte	0x50
 7428 1e30 02       		.byte	0x2
 7429 1e31 74       		.byte	0x74
 7430 1e32 10       		.sleb128 16
 7431 1e33 00       		.byte	0
 7432 1e34 21       		.uleb128 0x21
 7433 1e35 62000000 		.4byte	.LVL205
 7434 1e39 61290000 		.4byte	0x2961
 7435 1e3d 481E0000 		.4byte	0x1e48
 7436 1e41 22       		.uleb128 0x22
 7437 1e42 01       		.byte	0x1
ARM GAS  C:\Users\jenny\AppData\Local\Temp\ccWqzXsD.s 			page 132


 7438 1e43 50       		.byte	0x50
 7439 1e44 02       		.byte	0x2
 7440 1e45 74       		.byte	0x74
 7441 1e46 14       		.sleb128 20
 7442 1e47 00       		.byte	0
 7443 1e48 36       		.uleb128 0x36
 7444 1e49 80000000 		.4byte	.LVL208
 7445 1e4d 75290000 		.4byte	0x2975
 7446 1e51 22       		.uleb128 0x22
 7447 1e52 01       		.byte	0x1
 7448 1e53 50       		.byte	0x50
 7449 1e54 02       		.byte	0x2
 7450 1e55 77       		.byte	0x77
 7451 1e56 00       		.sleb128 0
 7452 1e57 00       		.byte	0
 7453 1e58 00       		.byte	0
 7454 1e59 40       		.uleb128 0x40
 7455 1e5a 01       		.byte	0x1
 7456 1e5b 030C0000 		.4byte	.LASF249
 7457 1e5f 01       		.byte	0x1
 7458 1e60 9102     		.2byte	0x291
 7459 1e62 01       		.byte	0x1
 7460 1e63 00000000 		.4byte	.LFB18
 7461 1e67 46000000 		.4byte	.LFE18
 7462 1e6b 8B0C0000 		.4byte	.LLST73
 7463 1e6f 01       		.byte	0x1
 7464 1e70 0A1F0000 		.4byte	0x1f0a
 7465 1e74 1F       		.uleb128 0x1f
 7466 1e75 9A010000 		.4byte	.LASF183
 7467 1e79 01       		.byte	0x1
 7468 1e7a 9102     		.2byte	0x291
 7469 1e7c EE070000 		.4byte	0x7ee
 7470 1e80 AB0C0000 		.4byte	.LLST74
 7471 1e84 27       		.uleb128 0x27
 7472 1e85 0C000000 		.4byte	.LVL210
 7473 1e89 0F270000 		.4byte	0x270f
 7474 1e8d 21       		.uleb128 0x21
 7475 1e8e 14000000 		.4byte	.LVL211
 7476 1e92 84270000 		.4byte	0x2784
 7477 1e96 A11E0000 		.4byte	0x1ea1
 7478 1e9a 22       		.uleb128 0x22
 7479 1e9b 01       		.byte	0x1
 7480 1e9c 50       		.byte	0x50
 7481 1e9d 02       		.byte	0x2
 7482 1e9e 74       		.byte	0x74
 7483 1e9f 10       		.sleb128 16
 7484 1ea0 00       		.byte	0
 7485 1ea1 21       		.uleb128 0x21
 7486 1ea2 1E000000 		.4byte	.LVL212
 7487 1ea6 84270000 		.4byte	0x2784
 7488 1eaa B51E0000 		.4byte	0x1eb5
 7489 1eae 22       		.uleb128 0x22
 7490 1eaf 01       		.byte	0x1
 7491 1eb0 50       		.byte	0x50
 7492 1eb1 02       		.byte	0x2
 7493 1eb2 74       		.byte	0x74
 7494 1eb3 14       		.sleb128 20
ARM GAS  C:\Users\jenny\AppData\Local\Temp\ccWqzXsD.s 			page 133


 7495 1eb4 00       		.byte	0
 7496 1eb5 27       		.uleb128 0x27
 7497 1eb6 24000000 		.4byte	.LVL213
 7498 1eba 0F270000 		.4byte	0x270f
 7499 1ebe 21       		.uleb128 0x21
 7500 1ebf 2E000000 		.4byte	.LVL214
 7501 1ec3 75290000 		.4byte	0x2975
 7502 1ec7 D21E0000 		.4byte	0x1ed2
 7503 1ecb 22       		.uleb128 0x22
 7504 1ecc 01       		.byte	0x1
 7505 1ecd 50       		.byte	0x50
 7506 1ece 02       		.byte	0x2
 7507 1ecf 75       		.byte	0x75
 7508 1ed0 00       		.sleb128 0
 7509 1ed1 00       		.byte	0
 7510 1ed2 21       		.uleb128 0x21
 7511 1ed3 34000000 		.4byte	.LVL215
 7512 1ed7 89290000 		.4byte	0x2989
 7513 1edb E61E0000 		.4byte	0x1ee6
 7514 1edf 22       		.uleb128 0x22
 7515 1ee0 01       		.byte	0x1
 7516 1ee1 50       		.byte	0x50
 7517 1ee2 02       		.byte	0x2
 7518 1ee3 75       		.byte	0x75
 7519 1ee4 00       		.sleb128 0
 7520 1ee5 00       		.byte	0
 7521 1ee6 2B       		.uleb128 0x2b
 7522 1ee7 40000000 		.4byte	.LVL216
 7523 1eeb 01       		.byte	0x1
 7524 1eec 0E290000 		.4byte	0x290e
 7525 1ef0 001F0000 		.4byte	0x1f00
 7526 1ef4 22       		.uleb128 0x22
 7527 1ef5 01       		.byte	0x1
 7528 1ef6 51       		.byte	0x51
 7529 1ef7 02       		.byte	0x2
 7530 1ef8 74       		.byte	0x74
 7531 1ef9 00       		.sleb128 0
 7532 1efa 22       		.uleb128 0x22
 7533 1efb 01       		.byte	0x1
 7534 1efc 50       		.byte	0x50
 7535 1efd 01       		.byte	0x1
 7536 1efe 38       		.byte	0x38
 7537 1eff 00       		.byte	0
 7538 1f00 27       		.uleb128 0x27
 7539 1f01 44000000 		.4byte	.LVL217
 7540 1f05 0F270000 		.4byte	0x270f
 7541 1f09 00       		.byte	0
 7542 1f0a 1E       		.uleb128 0x1e
 7543 1f0b 33070000 		.4byte	.LASF250
 7544 1f0f 01       		.byte	0x1
 7545 1f10 AA02     		.2byte	0x2aa
 7546 1f12 01       		.byte	0x1
 7547 1f13 00000000 		.4byte	.LFB19
 7548 1f17 A8000000 		.4byte	.LFE19
 7549 1f1b C90C0000 		.4byte	.LLST75
 7550 1f1f 01       		.byte	0x1
 7551 1f20 74200000 		.4byte	0x2074
ARM GAS  C:\Users\jenny\AppData\Local\Temp\ccWqzXsD.s 			page 134


 7552 1f24 1F       		.uleb128 0x1f
 7553 1f25 9A010000 		.4byte	.LASF183
 7554 1f29 01       		.byte	0x1
 7555 1f2a AA02     		.2byte	0x2aa
 7556 1f2c EE070000 		.4byte	0x7ee
 7557 1f30 F50C0000 		.4byte	.LLST76
 7558 1f34 20       		.uleb128 0x20
 7559 1f35 6D656D00 		.ascii	"mem\000"
 7560 1f39 01       		.byte	0x1
 7561 1f3a AC02     		.2byte	0x2ac
 7562 1f3c B9020000 		.4byte	0x2b9
 7563 1f40 02       		.byte	0x2
 7564 1f41 91       		.byte	0x91
 7565 1f42 64       		.sleb128 -28
 7566 1f43 29       		.uleb128 0x29
 7567 1f44 7000     		.ascii	"p\000"
 7568 1f46 01       		.byte	0x1
 7569 1f47 AE02     		.2byte	0x2ae
 7570 1f49 F0060000 		.4byte	0x6f0
 7571 1f4d 130D0000 		.4byte	.LLST77
 7572 1f51 43       		.uleb128 0x43
 7573 1f52 20000000 		.4byte	.LBB15
 7574 1f56 4C000000 		.4byte	.LBE15
 7575 1f5a A51F0000 		.4byte	0x1fa5
 7576 1f5e 26       		.uleb128 0x26
 7577 1f5f 3B020000 		.4byte	.LASF251
 7578 1f63 01       		.byte	0x1
 7579 1f64 CE02     		.2byte	0x2ce
 7580 1f66 EE070000 		.4byte	0x7ee
 7581 1f6a 260D0000 		.4byte	.LLST78
 7582 1f6e 27       		.uleb128 0x27
 7583 1f6f 34000000 		.4byte	.LVL224
 7584 1f73 0F270000 		.4byte	0x270f
 7585 1f77 21       		.uleb128 0x21
 7586 1f78 3A000000 		.4byte	.LVL225
 7587 1f7c 0A1F0000 		.4byte	0x1f0a
 7588 1f80 8B1F0000 		.4byte	0x1f8b
 7589 1f84 22       		.uleb128 0x22
 7590 1f85 01       		.byte	0x1
 7591 1f86 50       		.byte	0x50
 7592 1f87 02       		.byte	0x2
 7593 1f88 74       		.byte	0x74
 7594 1f89 00       		.sleb128 0
 7595 1f8a 00       		.byte	0
 7596 1f8b 27       		.uleb128 0x27
 7597 1f8c 44000000 		.4byte	.LVL226
 7598 1f90 9D290000 		.4byte	0x299d
 7599 1f94 36       		.uleb128 0x36
 7600 1f95 4C000000 		.4byte	.LVL227
 7601 1f99 591E0000 		.4byte	0x1e59
 7602 1f9d 22       		.uleb128 0x22
 7603 1f9e 01       		.byte	0x1
 7604 1f9f 50       		.byte	0x50
 7605 1fa0 02       		.byte	0x2
 7606 1fa1 74       		.byte	0x74
 7607 1fa2 00       		.sleb128 0
 7608 1fa3 00       		.byte	0
ARM GAS  C:\Users\jenny\AppData\Local\Temp\ccWqzXsD.s 			page 135


 7609 1fa4 00       		.byte	0
 7610 1fa5 21       		.uleb128 0x21
 7611 1fa6 10000000 		.4byte	.LVL220
 7612 1faa 84270000 		.4byte	0x2784
 7613 1fae B91F0000 		.4byte	0x1fb9
 7614 1fb2 22       		.uleb128 0x22
 7615 1fb3 01       		.byte	0x1
 7616 1fb4 50       		.byte	0x50
 7617 1fb5 02       		.byte	0x2
 7618 1fb6 74       		.byte	0x74
 7619 1fb7 00       		.sleb128 0
 7620 1fb8 00       		.byte	0
 7621 1fb9 21       		.uleb128 0x21
 7622 1fba 1E000000 		.4byte	.LVL222
 7623 1fbe 84270000 		.4byte	0x2784
 7624 1fc2 CD1F0000 		.4byte	0x1fcd
 7625 1fc6 22       		.uleb128 0x22
 7626 1fc7 01       		.byte	0x1
 7627 1fc8 50       		.byte	0x50
 7628 1fc9 02       		.byte	0x2
 7629 1fca 76       		.byte	0x76
 7630 1fcb 00       		.sleb128 0
 7631 1fcc 00       		.byte	0
 7632 1fcd 21       		.uleb128 0x21
 7633 1fce 54000000 		.4byte	.LVL228
 7634 1fd2 B2290000 		.4byte	0x29b2
 7635 1fd6 E71F0000 		.4byte	0x1fe7
 7636 1fda 22       		.uleb128 0x22
 7637 1fdb 01       		.byte	0x1
 7638 1fdc 51       		.byte	0x51
 7639 1fdd 02       		.byte	0x2
 7640 1fde 91       		.byte	0x91
 7641 1fdf 64       		.sleb128 -28
 7642 1fe0 22       		.uleb128 0x22
 7643 1fe1 01       		.byte	0x1
 7644 1fe2 50       		.byte	0x50
 7645 1fe3 02       		.byte	0x2
 7646 1fe4 76       		.byte	0x76
 7647 1fe5 00       		.sleb128 0
 7648 1fe6 00       		.byte	0
 7649 1fe7 21       		.uleb128 0x21
 7650 1fe8 5E000000 		.4byte	.LVL229
 7651 1fec D5290000 		.4byte	0x29d5
 7652 1ff0 FB1F0000 		.4byte	0x1ffb
 7653 1ff4 22       		.uleb128 0x22
 7654 1ff5 01       		.byte	0x1
 7655 1ff6 50       		.byte	0x50
 7656 1ff7 02       		.byte	0x2
 7657 1ff8 76       		.byte	0x76
 7658 1ff9 00       		.sleb128 0
 7659 1ffa 00       		.byte	0
 7660 1ffb 21       		.uleb128 0x21
 7661 1ffc 64000000 		.4byte	.LVL230
 7662 2000 61290000 		.4byte	0x2961
 7663 2004 0F200000 		.4byte	0x200f
 7664 2008 22       		.uleb128 0x22
 7665 2009 01       		.byte	0x1
ARM GAS  C:\Users\jenny\AppData\Local\Temp\ccWqzXsD.s 			page 136


 7666 200a 50       		.byte	0x50
 7667 200b 02       		.byte	0x2
 7668 200c 76       		.byte	0x76
 7669 200d 00       		.sleb128 0
 7670 200e 00       		.byte	0
 7671 200f 27       		.uleb128 0x27
 7672 2010 6E000000 		.4byte	.LVL231
 7673 2014 4A280000 		.4byte	0x284a
 7674 2018 21       		.uleb128 0x21
 7675 2019 76000000 		.4byte	.LVL232
 7676 201d B2290000 		.4byte	0x29b2
 7677 2021 32200000 		.4byte	0x2032
 7678 2025 22       		.uleb128 0x22
 7679 2026 01       		.byte	0x1
 7680 2027 51       		.byte	0x51
 7681 2028 02       		.byte	0x2
 7682 2029 91       		.byte	0x91
 7683 202a 64       		.sleb128 -28
 7684 202b 22       		.uleb128 0x22
 7685 202c 01       		.byte	0x1
 7686 202d 50       		.byte	0x50
 7687 202e 02       		.byte	0x2
 7688 202f 74       		.byte	0x74
 7689 2030 00       		.sleb128 0
 7690 2031 00       		.byte	0
 7691 2032 27       		.uleb128 0x27
 7692 2033 92000000 		.4byte	.LVL234
 7693 2037 BF270000 		.4byte	0x27bf
 7694 203b 21       		.uleb128 0x21
 7695 203c 98000000 		.4byte	.LVL235
 7696 2040 D9270000 		.4byte	0x27d9
 7697 2044 4F200000 		.4byte	0x204f
 7698 2048 22       		.uleb128 0x22
 7699 2049 01       		.byte	0x1
 7700 204a 50       		.byte	0x50
 7701 204b 02       		.byte	0x2
 7702 204c 76       		.byte	0x76
 7703 204d 00       		.sleb128 0
 7704 204e 00       		.byte	0
 7705 204f 21       		.uleb128 0x21
 7706 2050 A0000000 		.4byte	.LVL237
 7707 2054 D5290000 		.4byte	0x29d5
 7708 2058 63200000 		.4byte	0x2063
 7709 205c 22       		.uleb128 0x22
 7710 205d 01       		.byte	0x1
 7711 205e 50       		.byte	0x50
 7712 205f 02       		.byte	0x2
 7713 2060 74       		.byte	0x74
 7714 2061 00       		.sleb128 0
 7715 2062 00       		.byte	0
 7716 2063 36       		.uleb128 0x36
 7717 2064 A6000000 		.4byte	.LVL238
 7718 2068 61290000 		.4byte	0x2961
 7719 206c 22       		.uleb128 0x22
 7720 206d 01       		.byte	0x1
 7721 206e 50       		.byte	0x50
 7722 206f 02       		.byte	0x2
ARM GAS  C:\Users\jenny\AppData\Local\Temp\ccWqzXsD.s 			page 137


 7723 2070 74       		.byte	0x74
 7724 2071 00       		.sleb128 0
 7725 2072 00       		.byte	0
 7726 2073 00       		.byte	0
 7727 2074 24       		.uleb128 0x24
 7728 2075 DB050000 		.4byte	.LASF252
 7729 2079 01       		.byte	0x1
 7730 207a B001     		.2byte	0x1b0
 7731 207c 01       		.byte	0x1
 7732 207d FC050000 		.4byte	0x5fc
 7733 2081 00000000 		.4byte	.LFB14
 7734 2085 A6000000 		.4byte	.LFE14
 7735 2089 390D0000 		.4byte	.LLST79
 7736 208d 01       		.byte	0x1
 7737 208e 1E220000 		.4byte	0x221e
 7738 2092 25       		.uleb128 0x25
 7739 2093 61726700 		.ascii	"arg\000"
 7740 2097 01       		.byte	0x1
 7741 2098 B001     		.2byte	0x1b0
 7742 209a B9020000 		.4byte	0x2b9
 7743 209e 590D0000 		.4byte	.LLST80
 7744 20a2 1F       		.uleb128 0x1f
 7745 20a3 C6070000 		.4byte	.LASF253
 7746 20a7 01       		.byte	0x1
 7747 20a8 B001     		.2byte	0x1b0
 7748 20aa 600C0000 		.4byte	0xc60
 7749 20ae 9E0D0000 		.4byte	.LLST81
 7750 20b2 25       		.uleb128 0x25
 7751 20b3 65727200 		.ascii	"err\000"
 7752 20b7 01       		.byte	0x1
 7753 20b8 B001     		.2byte	0x1b0
 7754 20ba FC050000 		.4byte	0x5fc
 7755 20be BC0D0000 		.4byte	.LLST82
 7756 20c2 26       		.uleb128 0x26
 7757 20c3 3B020000 		.4byte	.LASF251
 7758 20c7 01       		.byte	0x1
 7759 20c8 B201     		.2byte	0x1b2
 7760 20ca EE070000 		.4byte	0x7ee
 7761 20ce DD0D0000 		.4byte	.LLST83
 7762 20d2 26       		.uleb128 0x26
 7763 20d3 9A010000 		.4byte	.LASF183
 7764 20d7 01       		.byte	0x1
 7765 20d8 B301     		.2byte	0x1b3
 7766 20da EE070000 		.4byte	0x7ee
 7767 20de 1C0E0000 		.4byte	.LLST84
 7768 20e2 43       		.uleb128 0x43
 7769 20e3 5C000000 		.4byte	.LBB16
 7770 20e7 A6000000 		.4byte	.LBE16
 7771 20eb BA210000 		.4byte	0x21ba
 7772 20ef 29       		.uleb128 0x29
 7773 20f0 70636200 		.ascii	"pcb\000"
 7774 20f4 01       		.byte	0x1
 7775 20f5 CC01     		.2byte	0x1cc
 7776 20f7 600C0000 		.4byte	0xc60
 7777 20fb 610E0000 		.4byte	.LLST85
 7778 20ff 21       		.uleb128 0x21
 7779 2100 66000000 		.4byte	.LVL253
ARM GAS  C:\Users\jenny\AppData\Local\Temp\ccWqzXsD.s 			page 138


 7780 2104 88260000 		.4byte	0x2688
 7781 2108 18210000 		.4byte	0x2118
 7782 210c 22       		.uleb128 0x22
 7783 210d 01       		.byte	0x1
 7784 210e 51       		.byte	0x51
 7785 210f 01       		.byte	0x1
 7786 2110 30       		.byte	0x30
 7787 2111 22       		.uleb128 0x22
 7788 2112 01       		.byte	0x1
 7789 2113 50       		.byte	0x50
 7790 2114 02       		.byte	0x2
 7791 2115 74       		.byte	0x74
 7792 2116 00       		.sleb128 0
 7793 2117 00       		.byte	0
 7794 2118 21       		.uleb128 0x21
 7795 2119 6E000000 		.4byte	.LVL254
 7796 211d A2260000 		.4byte	0x26a2
 7797 2121 31210000 		.4byte	0x2131
 7798 2125 22       		.uleb128 0x22
 7799 2126 01       		.byte	0x1
 7800 2127 51       		.byte	0x51
 7801 2128 01       		.byte	0x1
 7802 2129 30       		.byte	0x30
 7803 212a 22       		.uleb128 0x22
 7804 212b 01       		.byte	0x1
 7805 212c 50       		.byte	0x50
 7806 212d 02       		.byte	0x2
 7807 212e 74       		.byte	0x74
 7808 212f 00       		.sleb128 0
 7809 2130 00       		.byte	0
 7810 2131 21       		.uleb128 0x21
 7811 2132 76000000 		.4byte	.LVL255
 7812 2136 BC260000 		.4byte	0x26bc
 7813 213a 4A210000 		.4byte	0x214a
 7814 213e 22       		.uleb128 0x22
 7815 213f 01       		.byte	0x1
 7816 2140 51       		.byte	0x51
 7817 2141 01       		.byte	0x1
 7818 2142 30       		.byte	0x30
 7819 2143 22       		.uleb128 0x22
 7820 2144 01       		.byte	0x1
 7821 2145 50       		.byte	0x50
 7822 2146 02       		.byte	0x2
 7823 2147 74       		.byte	0x74
 7824 2148 00       		.sleb128 0
 7825 2149 00       		.byte	0
 7826 214a 21       		.uleb128 0x21
 7827 214b 80000000 		.4byte	.LVL256
 7828 214f D6260000 		.4byte	0x26d6
 7829 2153 68210000 		.4byte	0x2168
 7830 2157 22       		.uleb128 0x22
 7831 2158 01       		.byte	0x1
 7832 2159 52       		.byte	0x52
 7833 215a 01       		.byte	0x1
 7834 215b 34       		.byte	0x34
 7835 215c 22       		.uleb128 0x22
 7836 215d 01       		.byte	0x1
ARM GAS  C:\Users\jenny\AppData\Local\Temp\ccWqzXsD.s 			page 139


 7837 215e 51       		.byte	0x51
 7838 215f 01       		.byte	0x1
 7839 2160 30       		.byte	0x30
 7840 2161 22       		.uleb128 0x22
 7841 2162 01       		.byte	0x1
 7842 2163 50       		.byte	0x50
 7843 2164 02       		.byte	0x2
 7844 2165 74       		.byte	0x74
 7845 2166 00       		.sleb128 0
 7846 2167 00       		.byte	0
 7847 2168 21       		.uleb128 0x21
 7848 2169 88000000 		.4byte	.LVL257
 7849 216d F5260000 		.4byte	0x26f5
 7850 2171 81210000 		.4byte	0x2181
 7851 2175 22       		.uleb128 0x22
 7852 2176 01       		.byte	0x1
 7853 2177 51       		.byte	0x51
 7854 2178 01       		.byte	0x1
 7855 2179 30       		.byte	0x30
 7856 217a 22       		.uleb128 0x22
 7857 217b 01       		.byte	0x1
 7858 217c 50       		.byte	0x50
 7859 217d 02       		.byte	0x2
 7860 217e 74       		.byte	0x74
 7861 217f 00       		.sleb128 0
 7862 2180 00       		.byte	0
 7863 2181 21       		.uleb128 0x21
 7864 2182 96000000 		.4byte	.LVL259
 7865 2186 D5290000 		.4byte	0x29d5
 7866 218a 95210000 		.4byte	0x2195
 7867 218e 22       		.uleb128 0x22
 7868 218f 01       		.byte	0x1
 7869 2190 50       		.byte	0x50
 7870 2191 02       		.byte	0x2
 7871 2192 74       		.byte	0x74
 7872 2193 00       		.sleb128 0
 7873 2194 00       		.byte	0
 7874 2195 21       		.uleb128 0x21
 7875 2196 9C000000 		.4byte	.LVL260
 7876 219a 61290000 		.4byte	0x2961
 7877 219e A9210000 		.4byte	0x21a9
 7878 21a2 22       		.uleb128 0x22
 7879 21a3 01       		.byte	0x1
 7880 21a4 50       		.byte	0x50
 7881 21a5 02       		.byte	0x2
 7882 21a6 74       		.byte	0x74
 7883 21a7 00       		.sleb128 0
 7884 21a8 00       		.byte	0
 7885 21a9 36       		.uleb128 0x36
 7886 21aa A2000000 		.4byte	.LVL261
 7887 21ae 591E0000 		.4byte	0x1e59
 7888 21b2 22       		.uleb128 0x22
 7889 21b3 01       		.byte	0x1
 7890 21b4 50       		.byte	0x50
 7891 21b5 02       		.byte	0x2
 7892 21b6 76       		.byte	0x76
 7893 21b7 00       		.sleb128 0
ARM GAS  C:\Users\jenny\AppData\Local\Temp\ccWqzXsD.s 			page 140


 7894 21b8 00       		.byte	0
 7895 21b9 00       		.byte	0
 7896 21ba 21       		.uleb128 0x21
 7897 21bb 14000000 		.4byte	.LVL242
 7898 21bf 84270000 		.4byte	0x2784
 7899 21c3 CE210000 		.4byte	0x21ce
 7900 21c7 22       		.uleb128 0x22
 7901 21c8 01       		.byte	0x1
 7902 21c9 50       		.byte	0x50
 7903 21ca 02       		.byte	0x2
 7904 21cb 75       		.byte	0x75
 7905 21cc 00       		.sleb128 0
 7906 21cd 00       		.byte	0
 7907 21ce 27       		.uleb128 0x27
 7908 21cf 1E000000 		.4byte	.LVL243
 7909 21d3 631D0000 		.4byte	0x1d63
 7910 21d7 21       		.uleb128 0x21
 7911 21d8 2A000000 		.4byte	.LVL244
 7912 21dc 5B110000 		.4byte	0x115b
 7913 21e0 EB210000 		.4byte	0x21eb
 7914 21e4 22       		.uleb128 0x22
 7915 21e5 01       		.byte	0x1
 7916 21e6 50       		.byte	0x50
 7917 21e7 02       		.byte	0x2
 7918 21e8 76       		.byte	0x76
 7919 21e9 00       		.sleb128 0
 7920 21ea 00       		.byte	0
 7921 21eb 21       		.uleb128 0x21
 7922 21ec 34000000 		.4byte	.LVL245
 7923 21f0 A2270000 		.4byte	0x27a2
 7924 21f4 05220000 		.4byte	0x2205
 7925 21f8 22       		.uleb128 0x22
 7926 21f9 01       		.byte	0x1
 7927 21fa 51       		.byte	0x51
 7928 21fb 02       		.byte	0x2
 7929 21fc 76       		.byte	0x76
 7930 21fd 00       		.sleb128 0
 7931 21fe 22       		.uleb128 0x22
 7932 21ff 01       		.byte	0x1
 7933 2200 50       		.byte	0x50
 7934 2201 02       		.byte	0x2
 7935 2202 75       		.byte	0x75
 7936 2203 00       		.sleb128 0
 7937 2204 00       		.byte	0
 7938 2205 3E       		.uleb128 0x3e
 7939 2206 44000000 		.4byte	.LVL246
 7940 220a 22       		.uleb128 0x22
 7941 220b 01       		.byte	0x1
 7942 220c 52       		.byte	0x52
 7943 220d 02       		.byte	0x2
 7944 220e 75       		.byte	0x75
 7945 220f 00       		.sleb128 0
 7946 2210 22       		.uleb128 0x22
 7947 2211 01       		.byte	0x1
 7948 2212 51       		.byte	0x51
 7949 2213 02       		.byte	0x2
 7950 2214 75       		.byte	0x75
ARM GAS  C:\Users\jenny\AppData\Local\Temp\ccWqzXsD.s 			page 141


 7951 2215 00       		.sleb128 0
 7952 2216 22       		.uleb128 0x22
 7953 2217 01       		.byte	0x1
 7954 2218 50       		.byte	0x50
 7955 2219 02       		.byte	0x2
 7956 221a 74       		.byte	0x74
 7957 221b 00       		.sleb128 0
 7958 221c 00       		.byte	0
 7959 221d 00       		.byte	0
 7960 221e 40       		.uleb128 0x40
 7961 221f 01       		.byte	0x1
 7962 2220 0A090000 		.4byte	.LASF254
 7963 2224 01       		.byte	0x1
 7964 2225 4003     		.2byte	0x340
 7965 2227 01       		.byte	0x1
 7966 2228 00000000 		.4byte	.LFB21
 7967 222c D8000000 		.4byte	.LFE21
 7968 2230 740E0000 		.4byte	.LLST86
 7969 2234 01       		.byte	0x1
 7970 2235 D4220000 		.4byte	0x22d4
 7971 2239 25       		.uleb128 0x25
 7972 223a 6D736700 		.ascii	"msg\000"
 7973 223e 01       		.byte	0x1
 7974 223f 4003     		.2byte	0x340
 7975 2241 DB0D0000 		.4byte	0xddb
 7976 2245 940E0000 		.4byte	.LLST87
 7977 2249 27       		.uleb128 0x27
 7978 224a 1C000000 		.4byte	.LVL263
 7979 224e 0F270000 		.4byte	0x270f
 7980 2252 27       		.uleb128 0x27
 7981 2253 2A000000 		.4byte	.LVL264
 7982 2257 E9290000 		.4byte	0x29e9
 7983 225b 27       		.uleb128 0x27
 7984 225c 3E000000 		.4byte	.LVL267
 7985 2260 0F270000 		.4byte	0x270f
 7986 2264 27       		.uleb128 0x27
 7987 2265 46000000 		.4byte	.LVL268
 7988 2269 0A1F0000 		.4byte	0x1f0a
 7989 226d 2A       		.uleb128 0x2a
 7990 226e 72000000 		.4byte	.LVL269
 7991 2272 02       		.byte	0x2
 7992 2273 75       		.byte	0x75
 7993 2274 00       		.sleb128 0
 7994 2275 84220000 		.4byte	0x2284
 7995 2279 22       		.uleb128 0x22
 7996 227a 01       		.byte	0x1
 7997 227b 52       		.byte	0x52
 7998 227c 01       		.byte	0x1
 7999 227d 30       		.byte	0x30
 8000 227e 22       		.uleb128 0x22
 8001 227f 01       		.byte	0x1
 8002 2280 51       		.byte	0x51
 8003 2281 01       		.byte	0x1
 8004 2282 30       		.byte	0x30
 8005 2283 00       		.byte	0
 8006 2284 2A       		.uleb128 0x2a
 8007 2285 82000000 		.4byte	.LVL270
ARM GAS  C:\Users\jenny\AppData\Local\Temp\ccWqzXsD.s 			page 142


 8008 2289 02       		.byte	0x2
 8009 228a 75       		.byte	0x75
 8010 228b 00       		.sleb128 0
 8011 228c 9B220000 		.4byte	0x229b
 8012 2290 22       		.uleb128 0x22
 8013 2291 01       		.byte	0x1
 8014 2292 52       		.byte	0x52
 8015 2293 01       		.byte	0x1
 8016 2294 30       		.byte	0x30
 8017 2295 22       		.uleb128 0x22
 8018 2296 01       		.byte	0x1
 8019 2297 51       		.byte	0x51
 8020 2298 01       		.byte	0x1
 8021 2299 32       		.byte	0x32
 8022 229a 00       		.byte	0
 8023 229b 27       		.uleb128 0x27
 8024 229c 8C000000 		.4byte	.LVL271
 8025 22a0 E9290000 		.4byte	0x29e9
 8026 22a4 2D       		.uleb128 0x2d
 8027 22a5 9C000000 		.4byte	.LVL272
 8028 22a9 01       		.byte	0x1
 8029 22aa 1A270000 		.4byte	0x271a
 8030 22ae 27       		.uleb128 0x27
 8031 22af A6000000 		.4byte	.LVL273
 8032 22b3 012A0000 		.4byte	0x2a01
 8033 22b7 27       		.uleb128 0x27
 8034 22b8 B2000000 		.4byte	.LVL274
 8035 22bc 0F270000 		.4byte	0x270f
 8036 22c0 2D       		.uleb128 0x2d
 8037 22c1 C8000000 		.4byte	.LVL275
 8038 22c5 01       		.byte	0x1
 8039 22c6 E8120000 		.4byte	0x12e8
 8040 22ca 27       		.uleb128 0x27
 8041 22cb CC000000 		.4byte	.LVL276
 8042 22cf 152A0000 		.4byte	0x2a15
 8043 22d3 00       		.byte	0
 8044 22d4 40       		.uleb128 0x40
 8045 22d5 01       		.byte	0x1
 8046 22d6 88010000 		.4byte	.LASF255
 8047 22da 01       		.byte	0x1
 8048 22db 8203     		.2byte	0x382
 8049 22dd 01       		.byte	0x1
 8050 22de 00000000 		.4byte	.LFB22
 8051 22e2 60000000 		.4byte	.LFE22
 8052 22e6 C80E0000 		.4byte	.LLST88
 8053 22ea 01       		.byte	0x1
 8054 22eb 25230000 		.4byte	0x2325
 8055 22ef 25       		.uleb128 0x25
 8056 22f0 6D736700 		.ascii	"msg\000"
 8057 22f4 01       		.byte	0x1
 8058 22f5 8203     		.2byte	0x382
 8059 22f7 DB0D0000 		.4byte	0xddb
 8060 22fb E80E0000 		.4byte	.LLST89
 8061 22ff 2D       		.uleb128 0x2d
 8062 2300 34000000 		.4byte	.LVL279
 8063 2304 01       		.byte	0x1
 8064 2305 1A270000 		.4byte	0x271a
ARM GAS  C:\Users\jenny\AppData\Local\Temp\ccWqzXsD.s 			page 143


 8065 2309 27       		.uleb128 0x27
 8066 230a 40000000 		.4byte	.LVL281
 8067 230e 292A0000 		.4byte	0x2a29
 8068 2312 27       		.uleb128 0x27
 8069 2313 4E000000 		.4byte	.LVL282
 8070 2317 4B2A0000 		.4byte	0x2a4b
 8071 231b 27       		.uleb128 0x27
 8072 231c 5A000000 		.4byte	.LVL283
 8073 2320 6E2A0000 		.4byte	0x2a6e
 8074 2324 00       		.byte	0
 8075 2325 40       		.uleb128 0x40
 8076 2326 01       		.byte	0x1
 8077 2327 6E080000 		.4byte	.LASF256
 8078 232b 01       		.byte	0x1
 8079 232c D803     		.2byte	0x3d8
 8080 232e 01       		.byte	0x1
 8081 232f 00000000 		.4byte	.LFB24
 8082 2333 A8000000 		.4byte	.LFE24
 8083 2337 1C0F0000 		.4byte	.LLST90
 8084 233b 01       		.byte	0x1
 8085 233c AC230000 		.4byte	0x23ac
 8086 2340 25       		.uleb128 0x25
 8087 2341 6D736700 		.ascii	"msg\000"
 8088 2345 01       		.byte	0x1
 8089 2346 D803     		.2byte	0x3d8
 8090 2348 DB0D0000 		.4byte	0xddb
 8091 234c 3C0F0000 		.4byte	.LLST91
 8092 2350 2C       		.uleb128 0x2c
 8093 2351 38000000 		.4byte	.Ldebug_ranges0+0x38
 8094 2355 6A230000 		.4byte	0x236a
 8095 2359 26       		.uleb128 0x26
 8096 235a 2B0A0000 		.4byte	.LASF257
 8097 235e 01       		.byte	0x1
 8098 235f F303     		.2byte	0x3f3
 8099 2361 9F050000 		.4byte	0x59f
 8100 2365 5A0F0000 		.4byte	.LLST92
 8101 2369 00       		.byte	0
 8102 236a 27       		.uleb128 0x27
 8103 236b 22000000 		.4byte	.LVL286
 8104 236f 0F270000 		.4byte	0x270f
 8105 2373 2D       		.uleb128 0x2d
 8106 2374 34000000 		.4byte	.LVL287
 8107 2378 01       		.byte	0x1
 8108 2379 1A270000 		.4byte	0x271a
 8109 237d 27       		.uleb128 0x27
 8110 237e 3A000000 		.4byte	.LVL288
 8111 2382 8B2A0000 		.4byte	0x2a8b
 8112 2386 27       		.uleb128 0x27
 8113 2387 52000000 		.4byte	.LVL289
 8114 238b A82A0000 		.4byte	0x2aa8
 8115 238f 27       		.uleb128 0x27
 8116 2390 5E000000 		.4byte	.LVL290
 8117 2394 5B110000 		.4byte	0x115b
 8118 2398 36       		.uleb128 0x36
 8119 2399 6C000000 		.4byte	.LVL291
 8120 239d CA2A0000 		.4byte	0x2aca
 8121 23a1 22       		.uleb128 0x22
ARM GAS  C:\Users\jenny\AppData\Local\Temp\ccWqzXsD.s 			page 144


 8122 23a2 01       		.byte	0x1
 8123 23a3 53       		.byte	0x53
 8124 23a4 05       		.byte	0x5
 8125 23a5 03       		.byte	0x3
 8126 23a6 00000000 		.4byte	do_connected
 8127 23aa 00       		.byte	0
 8128 23ab 00       		.byte	0
 8129 23ac 40       		.uleb128 0x40
 8130 23ad 01       		.byte	0x1
 8131 23ae 630B0000 		.4byte	.LASF258
 8132 23b2 01       		.byte	0x1
 8133 23b3 1204     		.2byte	0x412
 8134 23b5 01       		.byte	0x1
 8135 23b6 00000000 		.4byte	.LFB25
 8136 23ba 2C000000 		.4byte	.LFE25
 8137 23be B50F0000 		.4byte	.LLST93
 8138 23c2 01       		.byte	0x1
 8139 23c3 EB230000 		.4byte	0x23eb
 8140 23c7 25       		.uleb128 0x25
 8141 23c8 6D736700 		.ascii	"msg\000"
 8142 23cc 01       		.byte	0x1
 8143 23cd 1204     		.2byte	0x412
 8144 23cf DB0D0000 		.4byte	0xddb
 8145 23d3 D50F0000 		.4byte	.LLST94
 8146 23d7 2D       		.uleb128 0x2d
 8147 23d8 1E000000 		.4byte	.LVL299
 8148 23dc 01       		.byte	0x1
 8149 23dd 1A270000 		.4byte	0x271a
 8150 23e1 27       		.uleb128 0x27
 8151 23e2 24000000 		.4byte	.LVL300
 8152 23e6 F22A0000 		.4byte	0x2af2
 8153 23ea 00       		.byte	0
 8154 23eb 40       		.uleb128 0x40
 8155 23ec 01       		.byte	0x1
 8156 23ed 71050000 		.4byte	.LASF259
 8157 23f1 01       		.byte	0x1
 8158 23f2 2804     		.2byte	0x428
 8159 23f4 01       		.byte	0x1
 8160 23f5 00000000 		.4byte	.LFB26
 8161 23f9 B4000000 		.4byte	.LFE26
 8162 23fd F30F0000 		.4byte	.LLST95
 8163 2401 01       		.byte	0x1
 8164 2402 BE240000 		.4byte	0x24be
 8165 2406 25       		.uleb128 0x25
 8166 2407 6D736700 		.ascii	"msg\000"
 8167 240b 01       		.byte	0x1
 8168 240c 2804     		.2byte	0x428
 8169 240e DB0D0000 		.4byte	0xddb
 8170 2412 13100000 		.4byte	.LLST96
 8171 2416 43       		.uleb128 0x43
 8172 2417 32000000 		.4byte	.LBB20
 8173 241b B4000000 		.4byte	.LBE20
 8174 241f B3240000 		.4byte	0x24b3
 8175 2423 26       		.uleb128 0x26
 8176 2424 E3060000 		.4byte	.LASF260
 8177 2428 01       		.byte	0x1
 8178 2429 3404     		.2byte	0x434
ARM GAS  C:\Users\jenny\AppData\Local\Temp\ccWqzXsD.s 			page 145


 8179 242b 600C0000 		.4byte	0xc60
 8180 242f 31100000 		.4byte	.LLST97
 8181 2433 21       		.uleb128 0x21
 8182 2434 38000000 		.4byte	.LVL304
 8183 2438 062B0000 		.4byte	0x2b06
 8184 243c 47240000 		.4byte	0x2447
 8185 2440 22       		.uleb128 0x22
 8186 2441 01       		.byte	0x1
 8187 2442 51       		.byte	0x51
 8188 2443 02       		.byte	0x2
 8189 2444 09       		.byte	0x9
 8190 2445 FF       		.byte	0xff
 8191 2446 00       		.byte	0
 8192 2447 27       		.uleb128 0x27
 8193 2448 44000000 		.4byte	.LVL306
 8194 244c 84270000 		.4byte	0x2784
 8195 2450 27       		.uleb128 0x27
 8196 2451 52000000 		.4byte	.LVL307
 8197 2455 84270000 		.4byte	0x2784
 8198 2459 27       		.uleb128 0x27
 8199 245a 68000000 		.4byte	.LVL308
 8200 245e 88260000 		.4byte	0x2688
 8201 2462 21       		.uleb128 0x21
 8202 2463 72000000 		.4byte	.LVL309
 8203 2467 6A270000 		.4byte	0x276a
 8204 246b 79240000 		.4byte	0x2479
 8205 246f 22       		.uleb128 0x22
 8206 2470 01       		.byte	0x1
 8207 2471 51       		.byte	0x51
 8208 2472 05       		.byte	0x5
 8209 2473 03       		.byte	0x3
 8210 2474 00000000 		.4byte	accept_function
 8211 2478 00       		.byte	0
 8212 2479 21       		.uleb128 0x21
 8213 247a 84000000 		.4byte	.LVL312
 8214 247e 51270000 		.4byte	0x2751
 8215 2482 8D240000 		.4byte	0x248d
 8216 2486 22       		.uleb128 0x22
 8217 2487 01       		.byte	0x1
 8218 2488 50       		.byte	0x50
 8219 2489 02       		.byte	0x2
 8220 248a 75       		.byte	0x75
 8221 248b 00       		.sleb128 0
 8222 248c 00       		.byte	0
 8223 248d 21       		.uleb128 0x21
 8224 248e 98000000 		.4byte	.LVL313
 8225 2492 44290000 		.4byte	0x2944
 8226 2496 A0240000 		.4byte	0x24a0
 8227 249a 22       		.uleb128 0x22
 8228 249b 01       		.byte	0x1
 8229 249c 51       		.byte	0x51
 8230 249d 01       		.byte	0x1
 8231 249e 34       		.byte	0x34
 8232 249f 00       		.byte	0
 8233 24a0 27       		.uleb128 0x27
 8234 24a1 A4000000 		.4byte	.LVL314
 8235 24a5 D5290000 		.4byte	0x29d5
ARM GAS  C:\Users\jenny\AppData\Local\Temp\ccWqzXsD.s 			page 146


 8236 24a9 27       		.uleb128 0x27
 8237 24aa AC000000 		.4byte	.LVL315
 8238 24ae 61290000 		.4byte	0x2961
 8239 24b2 00       		.byte	0
 8240 24b3 2D       		.uleb128 0x2d
 8241 24b4 2C000000 		.4byte	.LVL303
 8242 24b8 01       		.byte	0x1
 8243 24b9 1A270000 		.4byte	0x271a
 8244 24bd 00       		.byte	0
 8245 24be 40       		.uleb128 0x40
 8246 24bf 01       		.byte	0x1
 8247 24c0 750A0000 		.4byte	.LASF261
 8248 24c4 01       		.byte	0x1
 8249 24c5 6004     		.2byte	0x460
 8250 24c7 01       		.byte	0x1
 8251 24c8 00000000 		.4byte	.LFB27
 8252 24cc 7E000000 		.4byte	.LFE27
 8253 24d0 65100000 		.4byte	.LLST98
 8254 24d4 01       		.byte	0x1
 8255 24d5 18250000 		.4byte	0x2518
 8256 24d9 25       		.uleb128 0x25
 8257 24da 6D736700 		.ascii	"msg\000"
 8258 24de 01       		.byte	0x1
 8259 24df 6004     		.2byte	0x460
 8260 24e1 DB0D0000 		.4byte	0xddb
 8261 24e5 85100000 		.4byte	.LLST99
 8262 24e9 2D       		.uleb128 0x2d
 8263 24ea 30000000 		.4byte	.LVL318
 8264 24ee 01       		.byte	0x1
 8265 24ef 1A270000 		.4byte	0x271a
 8266 24f3 27       		.uleb128 0x27
 8267 24f4 46000000 		.4byte	.LVL320
 8268 24f8 242B0000 		.4byte	0x2b24
 8269 24fc 27       		.uleb128 0x27
 8270 24fd 5E000000 		.4byte	.LVL321
 8271 2501 412B0000 		.4byte	0x2b41
 8272 2505 27       		.uleb128 0x27
 8273 2506 6C000000 		.4byte	.LVL322
 8274 250a 5E2B0000 		.4byte	0x2b5e
 8275 250e 27       		.uleb128 0x27
 8276 250f 78000000 		.4byte	.LVL323
 8277 2513 852B0000 		.4byte	0x2b85
 8278 2517 00       		.byte	0
 8279 2518 40       		.uleb128 0x40
 8280 2519 01       		.byte	0x1
 8281 251a 440C0000 		.4byte	.LASF262
 8282 251e 01       		.byte	0x1
 8283 251f 9504     		.2byte	0x495
 8284 2521 01       		.byte	0x1
 8285 2522 00000000 		.4byte	.LFB28
 8286 2526 44000000 		.4byte	.LFE28
 8287 252a B9100000 		.4byte	.LLST100
 8288 252e 01       		.byte	0x1
 8289 252f 8F250000 		.4byte	0x258f
 8290 2533 25       		.uleb128 0x25
 8291 2534 6D736700 		.ascii	"msg\000"
 8292 2538 01       		.byte	0x1
ARM GAS  C:\Users\jenny\AppData\Local\Temp\ccWqzXsD.s 			page 147


 8293 2539 9504     		.2byte	0x495
 8294 253b DB0D0000 		.4byte	0xddb
 8295 253f D9100000 		.4byte	.LLST101
 8296 2543 43       		.uleb128 0x43
 8297 2544 20000000 		.4byte	.LBB21
 8298 2548 44000000 		.4byte	.LBE21
 8299 254c 84250000 		.4byte	0x2584
 8300 2550 26       		.uleb128 0x26
 8301 2551 23040000 		.4byte	.LASF263
 8302 2555 01       		.byte	0x1
 8303 2556 A004     		.2byte	0x4a0
 8304 2558 CB050000 		.4byte	0x5cb
 8305 255c F7100000 		.4byte	.LLST102
 8306 2560 3B       		.uleb128 0x3b
 8307 2561 22000000 		.4byte	.LBB22
 8308 2565 3C000000 		.4byte	.LBE22
 8309 2569 26       		.uleb128 0x26
 8310 256a 2F090000 		.4byte	.LASF264
 8311 256e 01       		.byte	0x1
 8312 256f A204     		.2byte	0x4a2
 8313 2571 B5050000 		.4byte	0x5b5
 8314 2575 25110000 		.4byte	.LLST103
 8315 2579 27       		.uleb128 0x27
 8316 257a 3C000000 		.4byte	.LVL330
 8317 257e BF270000 		.4byte	0x27bf
 8318 2582 00       		.byte	0
 8319 2583 00       		.byte	0
 8320 2584 2D       		.uleb128 0x2d
 8321 2585 20000000 		.4byte	.LVL326
 8322 2589 01       		.byte	0x1
 8323 258a 1A270000 		.4byte	0x271a
 8324 258e 00       		.byte	0
 8325 258f 40       		.uleb128 0x40
 8326 2590 01       		.byte	0x1
 8327 2591 21000000 		.4byte	.LASF265
 8328 2595 01       		.byte	0x1
 8329 2596 3F05     		.2byte	0x53f
 8330 2598 01       		.byte	0x1
 8331 2599 00000000 		.4byte	.LFB30
 8332 259d 74000000 		.4byte	.LFE30
 8333 25a1 38110000 		.4byte	.LLST104
 8334 25a5 01       		.byte	0x1
 8335 25a6 E1250000 		.4byte	0x25e1
 8336 25aa 25       		.uleb128 0x25
 8337 25ab 6D736700 		.ascii	"msg\000"
 8338 25af 01       		.byte	0x1
 8339 25b0 3F05     		.2byte	0x53f
 8340 25b2 DB0D0000 		.4byte	0xddb
 8341 25b6 64110000 		.4byte	.LLST105
 8342 25ba 2D       		.uleb128 0x2d
 8343 25bb 26000000 		.4byte	.LVL334
 8344 25bf 01       		.byte	0x1
 8345 25c0 1A270000 		.4byte	0x271a
 8346 25c4 27       		.uleb128 0x27
 8347 25c5 42000000 		.4byte	.LVL335
 8348 25c9 0F270000 		.4byte	0x270f
 8349 25cd 2D       		.uleb128 0x2d
ARM GAS  C:\Users\jenny\AppData\Local\Temp\ccWqzXsD.s 			page 148


 8350 25ce 5C000000 		.4byte	.LVL336
 8351 25d2 01       		.byte	0x1
 8352 25d3 5B170000 		.4byte	0x175b
 8353 25d7 27       		.uleb128 0x27
 8354 25d8 62000000 		.4byte	.LVL337
 8355 25dc 0F270000 		.4byte	0x270f
 8356 25e0 00       		.byte	0
 8357 25e1 40       		.uleb128 0x40
 8358 25e2 01       		.byte	0x1
 8359 25e3 5B000000 		.4byte	.LASF266
 8360 25e7 01       		.byte	0x1
 8361 25e8 7605     		.2byte	0x576
 8362 25ea 01       		.byte	0x1
 8363 25eb 00000000 		.4byte	.LFB31
 8364 25ef 98000000 		.4byte	.LFE31
 8365 25f3 A9110000 		.4byte	.LLST106
 8366 25f7 01       		.byte	0x1
 8367 25f8 20260000 		.4byte	0x2620
 8368 25fc 25       		.uleb128 0x25
 8369 25fd 6D736700 		.ascii	"msg\000"
 8370 2601 01       		.byte	0x1
 8371 2602 7605     		.2byte	0x576
 8372 2604 DB0D0000 		.4byte	0xddb
 8373 2608 C9110000 		.4byte	.LLST107
 8374 260c 27       		.uleb128 0x27
 8375 260d 30000000 		.4byte	.LVL341
 8376 2611 0F270000 		.4byte	0x270f
 8377 2615 2D       		.uleb128 0x2d
 8378 2616 3C000000 		.4byte	.LVL342
 8379 261a 01       		.byte	0x1
 8380 261b 1A270000 		.4byte	0x271a
 8381 261f 00       		.byte	0
 8382 2620 40       		.uleb128 0x40
 8383 2621 01       		.byte	0x1
 8384 2622 DF030000 		.4byte	.LASF267
 8385 2626 01       		.byte	0x1
 8386 2627 AB05     		.2byte	0x5ab
 8387 2629 01       		.byte	0x1
 8388 262a 00000000 		.4byte	.LFB32
 8389 262e 74000000 		.4byte	.LFE32
 8390 2632 E7110000 		.4byte	.LLST108
 8391 2636 01       		.byte	0x1
 8392 2637 7B260000 		.4byte	0x267b
 8393 263b 25       		.uleb128 0x25
 8394 263c 6D736700 		.ascii	"msg\000"
 8395 2640 01       		.byte	0x1
 8396 2641 AB05     		.2byte	0x5ab
 8397 2643 DB0D0000 		.4byte	0xddb
 8398 2647 07120000 		.4byte	.LLST109
 8399 264b 27       		.uleb128 0x27
 8400 264c 18000000 		.4byte	.LVL345
 8401 2650 0F270000 		.4byte	0x270f
 8402 2654 2D       		.uleb128 0x2d
 8403 2655 38000000 		.4byte	.LVL346
 8404 2659 01       		.byte	0x1
 8405 265a 1A270000 		.4byte	0x271a
 8406 265e 27       		.uleb128 0x27
ARM GAS  C:\Users\jenny\AppData\Local\Temp\ccWqzXsD.s 			page 149


 8407 265f 4E000000 		.4byte	.LVL347
 8408 2663 0F270000 		.4byte	0x270f
 8409 2667 2D       		.uleb128 0x2d
 8410 2668 5E000000 		.4byte	.LVL348
 8411 266c 01       		.byte	0x1
 8412 266d E8120000 		.4byte	0x12e8
 8413 2671 27       		.uleb128 0x27
 8414 2672 6A000000 		.4byte	.LVL349
 8415 2676 0A1F0000 		.4byte	0x1f0a
 8416 267a 00       		.byte	0
 8417 267b 44       		.uleb128 0x44
 8418 267c AE020000 		.4byte	.LASF323
 8419 2680 12       		.byte	0x12
 8420 2681 AA       		.byte	0xaa
 8421 2682 F1050000 		.4byte	0x5f1
 8422 2686 01       		.byte	0x1
 8423 2687 01       		.byte	0x1
 8424 2688 45       		.uleb128 0x45
 8425 2689 01       		.byte	0x1
 8426 268a 72090000 		.4byte	.LASF268
 8427 268e 13       		.byte	0x13
 8428 268f 3E01     		.2byte	0x13e
 8429 2691 01       		.byte	0x1
 8430 2692 01       		.byte	0x1
 8431 2693 A2260000 		.4byte	0x26a2
 8432 2697 15       		.uleb128 0x15
 8433 2698 600C0000 		.4byte	0xc60
 8434 269c 15       		.uleb128 0x15
 8435 269d B9020000 		.4byte	0x2b9
 8436 26a1 00       		.byte	0
 8437 26a2 45       		.uleb128 0x45
 8438 26a3 01       		.byte	0x1
 8439 26a4 D2050000 		.4byte	.LASF269
 8440 26a8 13       		.byte	0x13
 8441 26a9 4001     		.2byte	0x140
 8442 26ab 01       		.byte	0x1
 8443 26ac 01       		.byte	0x1
 8444 26ad BC260000 		.4byte	0x26bc
 8445 26b1 15       		.uleb128 0x15
 8446 26b2 600C0000 		.4byte	0xc60
 8447 26b6 15       		.uleb128 0x15
 8448 26b7 6B0F0000 		.4byte	0xf6b
 8449 26bb 00       		.byte	0
 8450 26bc 45       		.uleb128 0x45
 8451 26bd 01       		.byte	0x1
 8452 26be A8070000 		.4byte	.LASF270
 8453 26c2 13       		.byte	0x13
 8454 26c3 4101     		.2byte	0x141
 8455 26c5 01       		.byte	0x1
 8456 26c6 01       		.byte	0x1
 8457 26c7 D6260000 		.4byte	0x26d6
 8458 26cb 15       		.uleb128 0x15
 8459 26cc 600C0000 		.4byte	0xc60
 8460 26d0 15       		.uleb128 0x15
 8461 26d1 9B0F0000 		.4byte	0xf9b
 8462 26d5 00       		.byte	0
 8463 26d6 45       		.uleb128 0x45
ARM GAS  C:\Users\jenny\AppData\Local\Temp\ccWqzXsD.s 			page 150


 8464 26d7 01       		.byte	0x1
 8465 26d8 850D0000 		.4byte	.LASF271
 8466 26dc 13       		.byte	0x13
 8467 26dd 4201     		.2byte	0x142
 8468 26df 01       		.byte	0x1
 8469 26e0 01       		.byte	0x1
 8470 26e1 F5260000 		.4byte	0x26f5
 8471 26e5 15       		.uleb128 0x15
 8472 26e6 600C0000 		.4byte	0xc60
 8473 26ea 15       		.uleb128 0x15
 8474 26eb C60F0000 		.4byte	0xfc6
 8475 26ef 15       		.uleb128 0x15
 8476 26f0 9F050000 		.4byte	0x59f
 8477 26f4 00       		.byte	0
 8478 26f5 45       		.uleb128 0x45
 8479 26f6 01       		.byte	0x1
 8480 26f7 08080000 		.4byte	.LASF272
 8481 26fb 13       		.byte	0x13
 8482 26fc 4301     		.2byte	0x143
 8483 26fe 01       		.byte	0x1
 8484 26ff 01       		.byte	0x1
 8485 2700 0F270000 		.4byte	0x270f
 8486 2704 15       		.uleb128 0x15
 8487 2705 600C0000 		.4byte	0xc60
 8488 2709 15       		.uleb128 0x15
 8489 270a EC0F0000 		.4byte	0xfec
 8490 270e 00       		.byte	0
 8491 270f 46       		.uleb128 0x46
 8492 2710 01       		.byte	0x1
 8493 2711 F4030000 		.4byte	.LASF324
 8494 2715 07       		.byte	0x7
 8495 2716 0102     		.2byte	0x201
 8496 2718 01       		.byte	0x1
 8497 2719 01       		.byte	0x1
 8498 271a 47       		.uleb128 0x47
 8499 271b 01       		.byte	0x1
 8500 271c 8F040000 		.4byte	.LASF273
 8501 2720 18       		.byte	0x18
 8502 2721 8E       		.byte	0x8e
 8503 2722 01       		.byte	0x1
 8504 2723 01       		.byte	0x1
 8505 2724 2E270000 		.4byte	0x272e
 8506 2728 15       		.uleb128 0x15
 8507 2729 12110000 		.4byte	0x1112
 8508 272d 00       		.byte	0
 8509 272e 48       		.uleb128 0x48
 8510 272f 01       		.byte	0x1
 8511 2730 69070000 		.4byte	.LASF274
 8512 2734 13       		.byte	0x13
 8513 2735 6001     		.2byte	0x160
 8514 2737 01       		.byte	0x1
 8515 2738 FC050000 		.4byte	0x5fc
 8516 273c 01       		.byte	0x1
 8517 273d 51270000 		.4byte	0x2751
 8518 2741 15       		.uleb128 0x15
 8519 2742 600C0000 		.4byte	0xc60
 8520 2746 15       		.uleb128 0x15
ARM GAS  C:\Users\jenny\AppData\Local\Temp\ccWqzXsD.s 			page 151


 8521 2747 29000000 		.4byte	0x29
 8522 274b 15       		.uleb128 0x15
 8523 274c 29000000 		.4byte	0x29
 8524 2750 00       		.byte	0
 8525 2751 48       		.uleb128 0x48
 8526 2752 01       		.byte	0x1
 8527 2753 F1040000 		.4byte	.LASF275
 8528 2757 13       		.byte	0x13
 8529 2758 5F01     		.2byte	0x15f
 8530 275a 01       		.byte	0x1
 8531 275b FC050000 		.4byte	0x5fc
 8532 275f 01       		.byte	0x1
 8533 2760 6A270000 		.4byte	0x276a
 8534 2764 15       		.uleb128 0x15
 8535 2765 600C0000 		.4byte	0xc60
 8536 2769 00       		.byte	0
 8537 276a 45       		.uleb128 0x45
 8538 276b 01       		.byte	0x1
 8539 276c 52050000 		.4byte	.LASF276
 8540 2770 13       		.byte	0x13
 8541 2771 3F01     		.2byte	0x13f
 8542 2773 01       		.byte	0x1
 8543 2774 01       		.byte	0x1
 8544 2775 84270000 		.4byte	0x2784
 8545 2779 15       		.uleb128 0x15
 8546 277a 600C0000 		.4byte	0xc60
 8547 277e 15       		.uleb128 0x15
 8548 277f 400F0000 		.4byte	0xf40
 8549 2783 00       		.byte	0
 8550 2784 49       		.uleb128 0x49
 8551 2785 01       		.byte	0x1
 8552 2786 AF060000 		.4byte	.LASF277
 8553 278a 18       		.byte	0x18
 8554 278b D5       		.byte	0xd5
 8555 278c 01       		.byte	0x1
 8556 278d 29000000 		.4byte	0x29
 8557 2791 01       		.byte	0x1
 8558 2792 9C270000 		.4byte	0x279c
 8559 2796 15       		.uleb128 0x15
 8560 2797 9C270000 		.4byte	0x279c
 8561 279b 00       		.byte	0
 8562 279c 09       		.uleb128 0x9
 8563 279d 04       		.byte	0x4
 8564 279e 18060000 		.4byte	0x618
 8565 27a2 49       		.uleb128 0x49
 8566 27a3 01       		.byte	0x1
 8567 27a4 49070000 		.4byte	.LASF278
 8568 27a8 18       		.byte	0x18
 8569 27a9 BA       		.byte	0xba
 8570 27aa 01       		.byte	0x1
 8571 27ab FC050000 		.4byte	0x5fc
 8572 27af 01       		.byte	0x1
 8573 27b0 BF270000 		.4byte	0x27bf
 8574 27b4 15       		.uleb128 0x15
 8575 27b5 9C270000 		.4byte	0x279c
 8576 27b9 15       		.uleb128 0x15
 8577 27ba B9020000 		.4byte	0x2b9
ARM GAS  C:\Users\jenny\AppData\Local\Temp\ccWqzXsD.s 			page 152


 8578 27be 00       		.byte	0
 8579 27bf 45       		.uleb128 0x45
 8580 27c0 01       		.byte	0x1
 8581 27c1 C0020000 		.4byte	.LASF279
 8582 27c5 13       		.byte	0x13
 8583 27c6 5501     		.2byte	0x155
 8584 27c8 01       		.byte	0x1
 8585 27c9 01       		.byte	0x1
 8586 27ca D9270000 		.4byte	0x27d9
 8587 27ce 15       		.uleb128 0x15
 8588 27cf 600C0000 		.4byte	0xc60
 8589 27d3 15       		.uleb128 0x15
 8590 27d4 B5050000 		.4byte	0x5b5
 8591 27d8 00       		.byte	0
 8592 27d9 49       		.uleb128 0x49
 8593 27da 01       		.byte	0x1
 8594 27db 8D0A0000 		.4byte	.LASF280
 8595 27df 0F       		.byte	0xf
 8596 27e0 9B       		.byte	0x9b
 8597 27e1 01       		.byte	0x1
 8598 27e2 9F050000 		.4byte	0x59f
 8599 27e6 01       		.byte	0x1
 8600 27e7 F1270000 		.4byte	0x27f1
 8601 27eb 15       		.uleb128 0x15
 8602 27ec F0060000 		.4byte	0x6f0
 8603 27f0 00       		.byte	0
 8604 27f1 48       		.uleb128 0x48
 8605 27f2 01       		.byte	0x1
 8606 27f3 88060000 		.4byte	.LASF281
 8607 27f7 13       		.byte	0x13
 8608 27f8 6F01     		.2byte	0x16f
 8609 27fa 01       		.byte	0x1
 8610 27fb FC050000 		.4byte	0x5fc
 8611 27ff 01       		.byte	0x1
 8612 2800 0A280000 		.4byte	0x280a
 8613 2804 15       		.uleb128 0x15
 8614 2805 600C0000 		.4byte	0xc60
 8615 2809 00       		.byte	0
 8616 280a 48       		.uleb128 0x48
 8617 280b 01       		.byte	0x1
 8618 280c 18010000 		.4byte	.LASF282
 8619 2810 13       		.byte	0x13
 8620 2811 6601     		.2byte	0x166
 8621 2813 01       		.byte	0x1
 8622 2814 FC050000 		.4byte	0x5fc
 8623 2818 01       		.byte	0x1
 8624 2819 32280000 		.4byte	0x2832
 8625 281d 15       		.uleb128 0x15
 8626 281e 600C0000 		.4byte	0xc60
 8627 2822 15       		.uleb128 0x15
 8628 2823 890E0000 		.4byte	0xe89
 8629 2827 15       		.uleb128 0x15
 8630 2828 B5050000 		.4byte	0x5b5
 8631 282c 15       		.uleb128 0x15
 8632 282d 9F050000 		.4byte	0x59f
 8633 2831 00       		.byte	0
 8634 2832 49       		.uleb128 0x49
ARM GAS  C:\Users\jenny\AppData\Local\Temp\ccWqzXsD.s 			page 153


 8635 2833 01       		.byte	0x1
 8636 2834 0D040000 		.4byte	.LASF283
 8637 2838 17       		.byte	0x17
 8638 2839 6A       		.byte	0x6a
 8639 283a 01       		.byte	0x1
 8640 283b B9020000 		.4byte	0x2b9
 8641 283f 01       		.byte	0x1
 8642 2840 4A280000 		.4byte	0x284a
 8643 2844 15       		.uleb128 0x15
 8644 2845 07110000 		.4byte	0x1107
 8645 2849 00       		.byte	0
 8646 284a 47       		.uleb128 0x47
 8647 284b 01       		.byte	0x1
 8648 284c 53030000 		.4byte	.LASF284
 8649 2850 10       		.byte	0x10
 8650 2851 41       		.byte	0x41
 8651 2852 01       		.byte	0x1
 8652 2853 01       		.byte	0x1
 8653 2854 5E280000 		.4byte	0x285e
 8654 2858 15       		.uleb128 0x15
 8655 2859 090F0000 		.4byte	0xf09
 8656 285d 00       		.byte	0
 8657 285e 49       		.uleb128 0x49
 8658 285f 01       		.byte	0x1
 8659 2860 C3090000 		.4byte	.LASF285
 8660 2864 0F       		.byte	0xf
 8661 2865 92       		.byte	0x92
 8662 2866 01       		.byte	0x1
 8663 2867 F0060000 		.4byte	0x6f0
 8664 286b 01       		.byte	0x1
 8665 286c 80280000 		.4byte	0x2880
 8666 2870 15       		.uleb128 0x15
 8667 2871 4A060000 		.4byte	0x64a
 8668 2875 15       		.uleb128 0x15
 8669 2876 B5050000 		.4byte	0x5b5
 8670 287a 15       		.uleb128 0x15
 8671 287b 76060000 		.4byte	0x676
 8672 287f 00       		.byte	0
 8673 2880 49       		.uleb128 0x49
 8674 2881 01       		.byte	0x1
 8675 2882 07000000 		.4byte	.LASF286
 8676 2886 0F       		.byte	0xf
 8677 2887 A0       		.byte	0xa0
 8678 2888 01       		.byte	0x1
 8679 2889 FC050000 		.4byte	0x5fc
 8680 288d 01       		.byte	0x1
 8681 288e 9D280000 		.4byte	0x289d
 8682 2892 15       		.uleb128 0x15
 8683 2893 F0060000 		.4byte	0x6f0
 8684 2897 15       		.uleb128 0x15
 8685 2898 F0060000 		.4byte	0x6f0
 8686 289c 00       		.byte	0
 8687 289d 4A       		.uleb128 0x4a
 8688 289e 01       		.byte	0x1
 8689 289f D7010000 		.4byte	.LASF289
 8690 28a3 13       		.byte	0x13
 8691 28a4 3C01     		.2byte	0x13c
ARM GAS  C:\Users\jenny\AppData\Local\Temp\ccWqzXsD.s 			page 154


 8692 28a6 01       		.byte	0x1
 8693 28a7 600C0000 		.4byte	0xc60
 8694 28ab 01       		.byte	0x1
 8695 28ac 49       		.uleb128 0x49
 8696 28ad 01       		.byte	0x1
 8697 28ae BE070000 		.4byte	.LASF287
 8698 28b2 15       		.byte	0x15
 8699 28b3 4F       		.byte	0x4f
 8700 28b4 01       		.byte	0x1
 8701 28b5 9E0D0000 		.4byte	0xd9e
 8702 28b9 01       		.byte	0x1
 8703 28ba C4280000 		.4byte	0x28c4
 8704 28be 15       		.uleb128 0x15
 8705 28bf 9F050000 		.4byte	0x59f
 8706 28c3 00       		.byte	0
 8707 28c4 47       		.uleb128 0x47
 8708 28c5 01       		.byte	0x1
 8709 28c6 E80C0000 		.4byte	.LASF288
 8710 28ca 15       		.byte	0x15
 8711 28cb 54       		.byte	0x54
 8712 28cc 01       		.byte	0x1
 8713 28cd 01       		.byte	0x1
 8714 28ce E2280000 		.4byte	0x28e2
 8715 28d2 15       		.uleb128 0x15
 8716 28d3 9E0D0000 		.4byte	0xd9e
 8717 28d7 15       		.uleb128 0x15
 8718 28d8 74100000 		.4byte	0x1074
 8719 28dc 15       		.uleb128 0x15
 8720 28dd B9020000 		.4byte	0x2b9
 8721 28e1 00       		.byte	0
 8722 28e2 4B       		.uleb128 0x4b
 8723 28e3 01       		.byte	0x1
 8724 28e4 1B0D0000 		.4byte	.LASF290
 8725 28e8 14       		.byte	0x14
 8726 28e9 7B       		.byte	0x7b
 8727 28ea 01       		.byte	0x1
 8728 28eb 0D0D0000 		.4byte	0xd0d
 8729 28ef 01       		.byte	0x1
 8730 28f0 47       		.uleb128 0x47
 8731 28f1 01       		.byte	0x1
 8732 28f2 BE050000 		.4byte	.LASF291
 8733 28f6 14       		.byte	0x14
 8734 28f7 82       		.byte	0x82
 8735 28f8 01       		.byte	0x1
 8736 28f9 01       		.byte	0x1
 8737 28fa 0E290000 		.4byte	0x290e
 8738 28fe 15       		.uleb128 0x15
 8739 28ff 0D0D0000 		.4byte	0xd0d
 8740 2903 15       		.uleb128 0x15
 8741 2904 0F0F0000 		.4byte	0xf0f
 8742 2908 15       		.uleb128 0x15
 8743 2909 B9020000 		.4byte	0x2b9
 8744 290d 00       		.byte	0
 8745 290e 47       		.uleb128 0x47
 8746 290f 01       		.byte	0x1
 8747 2910 210A0000 		.4byte	.LASF292
 8748 2914 17       		.byte	0x17
ARM GAS  C:\Users\jenny\AppData\Local\Temp\ccWqzXsD.s 			page 155


 8749 2915 6C       		.byte	0x6c
 8750 2916 01       		.byte	0x1
 8751 2917 01       		.byte	0x1
 8752 2918 27290000 		.4byte	0x2927
 8753 291c 15       		.uleb128 0x15
 8754 291d 07110000 		.4byte	0x1107
 8755 2921 15       		.uleb128 0x15
 8756 2922 B9020000 		.4byte	0x2b9
 8757 2926 00       		.byte	0
 8758 2927 49       		.uleb128 0x49
 8759 2928 01       		.byte	0x1
 8760 2929 340B0000 		.4byte	.LASF293
 8761 292d 18       		.byte	0x18
 8762 292e 8B       		.byte	0x8b
 8763 292f 01       		.byte	0x1
 8764 2930 FC050000 		.4byte	0x5fc
 8765 2934 01       		.byte	0x1
 8766 2935 44290000 		.4byte	0x2944
 8767 2939 15       		.uleb128 0x15
 8768 293a 12110000 		.4byte	0x1112
 8769 293e 15       		.uleb128 0x15
 8770 293f 9F050000 		.4byte	0x59f
 8771 2943 00       		.byte	0
 8772 2944 49       		.uleb128 0x49
 8773 2945 01       		.byte	0x1
 8774 2946 FB040000 		.4byte	.LASF294
 8775 294a 18       		.byte	0x18
 8776 294b B1       		.byte	0xb1
 8777 294c 01       		.byte	0x1
 8778 294d FC050000 		.4byte	0x5fc
 8779 2951 01       		.byte	0x1
 8780 2952 61290000 		.4byte	0x2961
 8781 2956 15       		.uleb128 0x15
 8782 2957 9C270000 		.4byte	0x279c
 8783 295b 15       		.uleb128 0x15
 8784 295c 29000000 		.4byte	0x29
 8785 2960 00       		.byte	0
 8786 2961 47       		.uleb128 0x47
 8787 2962 01       		.byte	0x1
 8788 2963 88000000 		.4byte	.LASF295
 8789 2967 18       		.byte	0x18
 8790 2968 D9       		.byte	0xd9
 8791 2969 01       		.byte	0x1
 8792 296a 01       		.byte	0x1
 8793 296b 75290000 		.4byte	0x2975
 8794 296f 15       		.uleb128 0x15
 8795 2970 9C270000 		.4byte	0x279c
 8796 2974 00       		.byte	0
 8797 2975 47       		.uleb128 0x47
 8798 2976 01       		.byte	0x1
 8799 2977 4B080000 		.4byte	.LASF296
 8800 297b 18       		.byte	0x18
 8801 297c 9A       		.byte	0x9a
 8802 297d 01       		.byte	0x1
 8803 297e 01       		.byte	0x1
 8804 297f 89290000 		.4byte	0x2989
 8805 2983 15       		.uleb128 0x15
ARM GAS  C:\Users\jenny\AppData\Local\Temp\ccWqzXsD.s 			page 156


 8806 2984 12110000 		.4byte	0x1112
 8807 2988 00       		.byte	0
 8808 2989 47       		.uleb128 0x47
 8809 298a 01       		.byte	0x1
 8810 298b DD090000 		.4byte	.LASF297
 8811 298f 18       		.byte	0x18
 8812 2990 A3       		.byte	0xa3
 8813 2991 01       		.byte	0x1
 8814 2992 01       		.byte	0x1
 8815 2993 9D290000 		.4byte	0x299d
 8816 2997 15       		.uleb128 0x15
 8817 2998 12110000 		.4byte	0x1112
 8818 299c 00       		.byte	0
 8819 299d 45       		.uleb128 0x45
 8820 299e 01       		.byte	0x1
 8821 299f D3070000 		.4byte	.LASF298
 8822 29a3 13       		.byte	0x13
 8823 29a4 5E01     		.2byte	0x15e
 8824 29a6 01       		.byte	0x1
 8825 29a7 01       		.byte	0x1
 8826 29a8 B2290000 		.4byte	0x29b2
 8827 29ac 15       		.uleb128 0x15
 8828 29ad 600C0000 		.4byte	0xc60
 8829 29b1 00       		.byte	0
 8830 29b2 49       		.uleb128 0x49
 8831 29b3 01       		.byte	0x1
 8832 29b4 940D0000 		.4byte	.LASF299
 8833 29b8 18       		.byte	0x18
 8834 29b9 CB       		.byte	0xcb
 8835 29ba 01       		.byte	0x1
 8836 29bb CB050000 		.4byte	0x5cb
 8837 29bf 01       		.byte	0x1
 8838 29c0 CF290000 		.4byte	0x29cf
 8839 29c4 15       		.uleb128 0x15
 8840 29c5 9C270000 		.4byte	0x279c
 8841 29c9 15       		.uleb128 0x15
 8842 29ca CF290000 		.4byte	0x29cf
 8843 29ce 00       		.byte	0
 8844 29cf 09       		.uleb128 0x9
 8845 29d0 04       		.byte	0x4
 8846 29d1 B9020000 		.4byte	0x2b9
 8847 29d5 47       		.uleb128 0x47
 8848 29d6 01       		.byte	0x1
 8849 29d7 AE080000 		.4byte	.LASF300
 8850 29db 18       		.byte	0x18
 8851 29dc D1       		.byte	0xd1
 8852 29dd 01       		.byte	0x1
 8853 29de 01       		.byte	0x1
 8854 29df E9290000 		.4byte	0x29e9
 8855 29e3 15       		.uleb128 0x15
 8856 29e4 9C270000 		.4byte	0x279c
 8857 29e8 00       		.byte	0
 8858 29e9 49       		.uleb128 0x49
 8859 29ea 01       		.byte	0x1
 8860 29eb 79080000 		.4byte	.LASF301
 8861 29ef 18       		.byte	0x18
 8862 29f0 9F       		.byte	0x9f
ARM GAS  C:\Users\jenny\AppData\Local\Temp\ccWqzXsD.s 			page 157


 8863 29f1 01       		.byte	0x1
 8864 29f2 29000000 		.4byte	0x29
 8865 29f6 01       		.byte	0x1
 8866 29f7 012A0000 		.4byte	0x2a01
 8867 29fb 15       		.uleb128 0x15
 8868 29fc 12110000 		.4byte	0x1112
 8869 2a00 00       		.byte	0
 8870 2a01 47       		.uleb128 0x47
 8871 2a02 01       		.byte	0x1
 8872 2a03 4A060000 		.4byte	.LASF302
 8873 2a07 14       		.byte	0x14
 8874 2a08 7C       		.byte	0x7c
 8875 2a09 01       		.byte	0x1
 8876 2a0a 01       		.byte	0x1
 8877 2a0b 152A0000 		.4byte	0x2a15
 8878 2a0f 15       		.uleb128 0x15
 8879 2a10 0D0D0000 		.4byte	0xd0d
 8880 2a14 00       		.byte	0
 8881 2a15 47       		.uleb128 0x47
 8882 2a16 01       		.byte	0x1
 8883 2a17 10050000 		.4byte	.LASF303
 8884 2a1b 15       		.byte	0x15
 8885 2a1c 50       		.byte	0x50
 8886 2a1d 01       		.byte	0x1
 8887 2a1e 01       		.byte	0x1
 8888 2a1f 292A0000 		.4byte	0x2a29
 8889 2a23 15       		.uleb128 0x15
 8890 2a24 9E0D0000 		.4byte	0xd9e
 8891 2a28 00       		.byte	0
 8892 2a29 49       		.uleb128 0x49
 8893 2a2a 01       		.byte	0x1
 8894 2a2b 76060000 		.4byte	.LASF304
 8895 2a2f 14       		.byte	0x14
 8896 2a30 7D       		.byte	0x7d
 8897 2a31 01       		.byte	0x1
 8898 2a32 FC050000 		.4byte	0x5fc
 8899 2a36 01       		.byte	0x1
 8900 2a37 4B2A0000 		.4byte	0x2a4b
 8901 2a3b 15       		.uleb128 0x15
 8902 2a3c 0D0D0000 		.4byte	0xd0d
 8903 2a40 15       		.uleb128 0x15
 8904 2a41 F6060000 		.4byte	0x6f6
 8905 2a45 15       		.uleb128 0x15
 8906 2a46 B5050000 		.4byte	0x5b5
 8907 2a4a 00       		.byte	0
 8908 2a4b 48       		.uleb128 0x48
 8909 2a4c 01       		.byte	0x1
 8910 2a4d AC0A0000 		.4byte	.LASF305
 8911 2a51 13       		.byte	0x13
 8912 2a52 5601     		.2byte	0x156
 8913 2a54 01       		.byte	0x1
 8914 2a55 FC050000 		.4byte	0x5fc
 8915 2a59 01       		.byte	0x1
 8916 2a5a 6E2A0000 		.4byte	0x2a6e
 8917 2a5e 15       		.uleb128 0x15
 8918 2a5f 600C0000 		.4byte	0xc60
 8919 2a63 15       		.uleb128 0x15
ARM GAS  C:\Users\jenny\AppData\Local\Temp\ccWqzXsD.s 			page 158


 8920 2a64 F6060000 		.4byte	0x6f6
 8921 2a68 15       		.uleb128 0x15
 8922 2a69 B5050000 		.4byte	0x5b5
 8923 2a6d 00       		.byte	0
 8924 2a6e 49       		.uleb128 0x49
 8925 2a6f 01       		.byte	0x1
 8926 2a70 66000000 		.4byte	.LASF306
 8927 2a74 15       		.byte	0x15
 8928 2a75 51       		.byte	0x51
 8929 2a76 01       		.byte	0x1
 8930 2a77 FC050000 		.4byte	0x5fc
 8931 2a7b 01       		.byte	0x1
 8932 2a7c 8B2A0000 		.4byte	0x2a8b
 8933 2a80 15       		.uleb128 0x15
 8934 2a81 9E0D0000 		.4byte	0xd9e
 8935 2a85 15       		.uleb128 0x15
 8936 2a86 F6060000 		.4byte	0x6f6
 8937 2a8a 00       		.byte	0
 8938 2a8b 49       		.uleb128 0x49
 8939 2a8c 01       		.byte	0x1
 8940 2a8d 6F030000 		.4byte	.LASF307
 8941 2a91 15       		.byte	0x15
 8942 2a92 52       		.byte	0x52
 8943 2a93 01       		.byte	0x1
 8944 2a94 FC050000 		.4byte	0x5fc
 8945 2a98 01       		.byte	0x1
 8946 2a99 A82A0000 		.4byte	0x2aa8
 8947 2a9d 15       		.uleb128 0x15
 8948 2a9e 9E0D0000 		.4byte	0xd9e
 8949 2aa2 15       		.uleb128 0x15
 8950 2aa3 F6060000 		.4byte	0x6f6
 8951 2aa7 00       		.byte	0
 8952 2aa8 49       		.uleb128 0x49
 8953 2aa9 01       		.byte	0x1
 8954 2aaa FE000000 		.4byte	.LASF308
 8955 2aae 14       		.byte	0x14
 8956 2aaf 7F       		.byte	0x7f
 8957 2ab0 01       		.byte	0x1
 8958 2ab1 FC050000 		.4byte	0x5fc
 8959 2ab5 01       		.byte	0x1
 8960 2ab6 CA2A0000 		.4byte	0x2aca
 8961 2aba 15       		.uleb128 0x15
 8962 2abb 0D0D0000 		.4byte	0xd0d
 8963 2abf 15       		.uleb128 0x15
 8964 2ac0 F6060000 		.4byte	0x6f6
 8965 2ac4 15       		.uleb128 0x15
 8966 2ac5 B5050000 		.4byte	0x5b5
 8967 2ac9 00       		.byte	0
 8968 2aca 48       		.uleb128 0x48
 8969 2acb 01       		.byte	0x1
 8970 2acc FF0A0000 		.4byte	.LASF309
 8971 2ad0 13       		.byte	0x13
 8972 2ad1 5801     		.2byte	0x158
 8973 2ad3 01       		.byte	0x1
 8974 2ad4 FC050000 		.4byte	0x5fc
 8975 2ad8 01       		.byte	0x1
 8976 2ad9 F22A0000 		.4byte	0x2af2
ARM GAS  C:\Users\jenny\AppData\Local\Temp\ccWqzXsD.s 			page 159


 8977 2add 15       		.uleb128 0x15
 8978 2ade 600C0000 		.4byte	0xc60
 8979 2ae2 15       		.uleb128 0x15
 8980 2ae3 F6060000 		.4byte	0x6f6
 8981 2ae7 15       		.uleb128 0x15
 8982 2ae8 B5050000 		.4byte	0x5b5
 8983 2aec 15       		.uleb128 0x15
 8984 2aed 0E100000 		.4byte	0x100e
 8985 2af1 00       		.byte	0
 8986 2af2 47       		.uleb128 0x47
 8987 2af3 01       		.byte	0x1
 8988 2af4 A0060000 		.4byte	.LASF310
 8989 2af8 14       		.byte	0x14
 8990 2af9 81       		.byte	0x81
 8991 2afa 01       		.byte	0x1
 8992 2afb 01       		.byte	0x1
 8993 2afc 062B0000 		.4byte	0x2b06
 8994 2b00 15       		.uleb128 0x15
 8995 2b01 0D0D0000 		.4byte	0xd0d
 8996 2b05 00       		.byte	0
 8997 2b06 48       		.uleb128 0x48
 8998 2b07 01       		.byte	0x1
 8999 2b08 A6050000 		.4byte	.LASF311
 9000 2b0c 13       		.byte	0x13
 9001 2b0d 5B01     		.2byte	0x15b
 9002 2b0f 01       		.byte	0x1
 9003 2b10 600C0000 		.4byte	0xc60
 9004 2b14 01       		.byte	0x1
 9005 2b15 242B0000 		.4byte	0x2b24
 9006 2b19 15       		.uleb128 0x15
 9007 2b1a 600C0000 		.4byte	0xc60
 9008 2b1e 15       		.uleb128 0x15
 9009 2b1f 9F050000 		.4byte	0x59f
 9010 2b23 00       		.byte	0
 9011 2b24 49       		.uleb128 0x49
 9012 2b25 01       		.byte	0x1
 9013 2b26 7B030000 		.4byte	.LASF312
 9014 2b2a 14       		.byte	0x14
 9015 2b2b 89       		.byte	0x89
 9016 2b2c 01       		.byte	0x1
 9017 2b2d FC050000 		.4byte	0x5fc
 9018 2b31 01       		.byte	0x1
 9019 2b32 412B0000 		.4byte	0x2b41
 9020 2b36 15       		.uleb128 0x15
 9021 2b37 0D0D0000 		.4byte	0xd0d
 9022 2b3b 15       		.uleb128 0x15
 9023 2b3c F0060000 		.4byte	0x6f0
 9024 2b40 00       		.byte	0
 9025 2b41 49       		.uleb128 0x49
 9026 2b42 01       		.byte	0x1
 9027 2b43 68050000 		.4byte	.LASF313
 9028 2b47 15       		.byte	0x15
 9029 2b48 56       		.byte	0x56
 9030 2b49 01       		.byte	0x1
 9031 2b4a FC050000 		.4byte	0x5fc
 9032 2b4e 01       		.byte	0x1
 9033 2b4f 5E2B0000 		.4byte	0x2b5e
ARM GAS  C:\Users\jenny\AppData\Local\Temp\ccWqzXsD.s 			page 160


 9034 2b53 15       		.uleb128 0x15
 9035 2b54 9E0D0000 		.4byte	0xd9e
 9036 2b58 15       		.uleb128 0x15
 9037 2b59 F0060000 		.4byte	0x6f0
 9038 2b5d 00       		.byte	0
 9039 2b5e 49       		.uleb128 0x49
 9040 2b5f 01       		.byte	0x1
 9041 2b60 24080000 		.4byte	.LASF314
 9042 2b64 14       		.byte	0x14
 9043 2b65 87       		.byte	0x87
 9044 2b66 01       		.byte	0x1
 9045 2b67 FC050000 		.4byte	0x5fc
 9046 2b6b 01       		.byte	0x1
 9047 2b6c 852B0000 		.4byte	0x2b85
 9048 2b70 15       		.uleb128 0x15
 9049 2b71 0D0D0000 		.4byte	0xd0d
 9050 2b75 15       		.uleb128 0x15
 9051 2b76 F0060000 		.4byte	0x6f0
 9052 2b7a 15       		.uleb128 0x15
 9053 2b7b F6060000 		.4byte	0x6f6
 9054 2b7f 15       		.uleb128 0x15
 9055 2b80 B5050000 		.4byte	0x5b5
 9056 2b84 00       		.byte	0
 9057 2b85 4C       		.uleb128 0x4c
 9058 2b86 01       		.byte	0x1
 9059 2b87 98030000 		.4byte	.LASF315
 9060 2b8b 15       		.byte	0x15
 9061 2b8c 55       		.byte	0x55
 9062 2b8d 01       		.byte	0x1
 9063 2b8e FC050000 		.4byte	0x5fc
 9064 2b92 01       		.byte	0x1
 9065 2b93 15       		.uleb128 0x15
 9066 2b94 9E0D0000 		.4byte	0xd9e
 9067 2b98 15       		.uleb128 0x15
 9068 2b99 F0060000 		.4byte	0x6f0
 9069 2b9d 15       		.uleb128 0x15
 9070 2b9e F6060000 		.4byte	0x6f6
 9071 2ba2 00       		.byte	0
 9072 2ba3 00       		.byte	0
 9073              		.section	.debug_abbrev,"",%progbits
 9074              	.Ldebug_abbrev0:
 9075 0000 01       		.uleb128 0x1
 9076 0001 11       		.uleb128 0x11
 9077 0002 01       		.byte	0x1
 9078 0003 25       		.uleb128 0x25
 9079 0004 0E       		.uleb128 0xe
 9080 0005 13       		.uleb128 0x13
 9081 0006 0B       		.uleb128 0xb
 9082 0007 03       		.uleb128 0x3
 9083 0008 0E       		.uleb128 0xe
 9084 0009 1B       		.uleb128 0x1b
 9085 000a 0E       		.uleb128 0xe
 9086 000b 55       		.uleb128 0x55
 9087 000c 06       		.uleb128 0x6
 9088 000d 11       		.uleb128 0x11
 9089 000e 01       		.uleb128 0x1
 9090 000f 52       		.uleb128 0x52
ARM GAS  C:\Users\jenny\AppData\Local\Temp\ccWqzXsD.s 			page 161


 9091 0010 01       		.uleb128 0x1
 9092 0011 10       		.uleb128 0x10
 9093 0012 06       		.uleb128 0x6
 9094 0013 00       		.byte	0
 9095 0014 00       		.byte	0
 9096 0015 02       		.uleb128 0x2
 9097 0016 24       		.uleb128 0x24
 9098 0017 00       		.byte	0
 9099 0018 0B       		.uleb128 0xb
 9100 0019 0B       		.uleb128 0xb
 9101 001a 3E       		.uleb128 0x3e
 9102 001b 0B       		.uleb128 0xb
 9103 001c 03       		.uleb128 0x3
 9104 001d 08       		.uleb128 0x8
 9105 001e 00       		.byte	0
 9106 001f 00       		.byte	0
 9107 0020 03       		.uleb128 0x3
 9108 0021 16       		.uleb128 0x16
 9109 0022 00       		.byte	0
 9110 0023 03       		.uleb128 0x3
 9111 0024 0E       		.uleb128 0xe
 9112 0025 3A       		.uleb128 0x3a
 9113 0026 0B       		.uleb128 0xb
 9114 0027 3B       		.uleb128 0x3b
 9115 0028 0B       		.uleb128 0xb
 9116 0029 49       		.uleb128 0x49
 9117 002a 13       		.uleb128 0x13
 9118 002b 00       		.byte	0
 9119 002c 00       		.byte	0
 9120 002d 04       		.uleb128 0x4
 9121 002e 24       		.uleb128 0x24
 9122 002f 00       		.byte	0
 9123 0030 0B       		.uleb128 0xb
 9124 0031 0B       		.uleb128 0xb
 9125 0032 3E       		.uleb128 0x3e
 9126 0033 0B       		.uleb128 0xb
 9127 0034 03       		.uleb128 0x3
 9128 0035 0E       		.uleb128 0xe
 9129 0036 00       		.byte	0
 9130 0037 00       		.byte	0
 9131 0038 05       		.uleb128 0x5
 9132 0039 13       		.uleb128 0x13
 9133 003a 01       		.byte	0x1
 9134 003b 03       		.uleb128 0x3
 9135 003c 0E       		.uleb128 0xe
 9136 003d 0B       		.uleb128 0xb
 9137 003e 0B       		.uleb128 0xb
 9138 003f 3A       		.uleb128 0x3a
 9139 0040 0B       		.uleb128 0xb
 9140 0041 3B       		.uleb128 0x3b
 9141 0042 0B       		.uleb128 0xb
 9142 0043 01       		.uleb128 0x1
 9143 0044 13       		.uleb128 0x13
 9144 0045 00       		.byte	0
 9145 0046 00       		.byte	0
 9146 0047 06       		.uleb128 0x6
 9147 0048 0D       		.uleb128 0xd
ARM GAS  C:\Users\jenny\AppData\Local\Temp\ccWqzXsD.s 			page 162


 9148 0049 00       		.byte	0
 9149 004a 03       		.uleb128 0x3
 9150 004b 0E       		.uleb128 0xe
 9151 004c 3A       		.uleb128 0x3a
 9152 004d 0B       		.uleb128 0xb
 9153 004e 3B       		.uleb128 0x3b
 9154 004f 0B       		.uleb128 0xb
 9155 0050 49       		.uleb128 0x49
 9156 0051 13       		.uleb128 0x13
 9157 0052 38       		.uleb128 0x38
 9158 0053 0A       		.uleb128 0xa
 9159 0054 00       		.byte	0
 9160 0055 00       		.byte	0
 9161 0056 07       		.uleb128 0x7
 9162 0057 0D       		.uleb128 0xd
 9163 0058 00       		.byte	0
 9164 0059 03       		.uleb128 0x3
 9165 005a 08       		.uleb128 0x8
 9166 005b 3A       		.uleb128 0x3a
 9167 005c 0B       		.uleb128 0xb
 9168 005d 3B       		.uleb128 0x3b
 9169 005e 0B       		.uleb128 0xb
 9170 005f 49       		.uleb128 0x49
 9171 0060 13       		.uleb128 0x13
 9172 0061 38       		.uleb128 0x38
 9173 0062 0A       		.uleb128 0xa
 9174 0063 00       		.byte	0
 9175 0064 00       		.byte	0
 9176 0065 08       		.uleb128 0x8
 9177 0066 13       		.uleb128 0x13
 9178 0067 01       		.byte	0x1
 9179 0068 0B       		.uleb128 0xb
 9180 0069 0B       		.uleb128 0xb
 9181 006a 3A       		.uleb128 0x3a
 9182 006b 0B       		.uleb128 0xb
 9183 006c 3B       		.uleb128 0x3b
 9184 006d 0B       		.uleb128 0xb
 9185 006e 01       		.uleb128 0x1
 9186 006f 13       		.uleb128 0x13
 9187 0070 00       		.byte	0
 9188 0071 00       		.byte	0
 9189 0072 09       		.uleb128 0x9
 9190 0073 0F       		.uleb128 0xf
 9191 0074 00       		.byte	0
 9192 0075 0B       		.uleb128 0xb
 9193 0076 0B       		.uleb128 0xb
 9194 0077 49       		.uleb128 0x49
 9195 0078 13       		.uleb128 0x13
 9196 0079 00       		.byte	0
 9197 007a 00       		.byte	0
 9198 007b 0A       		.uleb128 0xa
 9199 007c 0F       		.uleb128 0xf
 9200 007d 00       		.byte	0
 9201 007e 0B       		.uleb128 0xb
 9202 007f 0B       		.uleb128 0xb
 9203 0080 00       		.byte	0
 9204 0081 00       		.byte	0
ARM GAS  C:\Users\jenny\AppData\Local\Temp\ccWqzXsD.s 			page 163


 9205 0082 0B       		.uleb128 0xb
 9206 0083 13       		.uleb128 0x13
 9207 0084 01       		.byte	0x1
 9208 0085 03       		.uleb128 0x3
 9209 0086 0E       		.uleb128 0xe
 9210 0087 0B       		.uleb128 0xb
 9211 0088 0B       		.uleb128 0xb
 9212 0089 3A       		.uleb128 0x3a
 9213 008a 0B       		.uleb128 0xb
 9214 008b 3B       		.uleb128 0x3b
 9215 008c 05       		.uleb128 0x5
 9216 008d 01       		.uleb128 0x1
 9217 008e 13       		.uleb128 0x13
 9218 008f 00       		.byte	0
 9219 0090 00       		.byte	0
 9220 0091 0C       		.uleb128 0xc
 9221 0092 0D       		.uleb128 0xd
 9222 0093 00       		.byte	0
 9223 0094 03       		.uleb128 0x3
 9224 0095 08       		.uleb128 0x8
 9225 0096 3A       		.uleb128 0x3a
 9226 0097 0B       		.uleb128 0xb
 9227 0098 3B       		.uleb128 0x3b
 9228 0099 05       		.uleb128 0x5
 9229 009a 49       		.uleb128 0x49
 9230 009b 13       		.uleb128 0x13
 9231 009c 38       		.uleb128 0x38
 9232 009d 0A       		.uleb128 0xa
 9233 009e 00       		.byte	0
 9234 009f 00       		.byte	0
 9235 00a0 0D       		.uleb128 0xd
 9236 00a1 35       		.uleb128 0x35
 9237 00a2 00       		.byte	0
 9238 00a3 49       		.uleb128 0x49
 9239 00a4 13       		.uleb128 0x13
 9240 00a5 00       		.byte	0
 9241 00a6 00       		.byte	0
 9242 00a7 0E       		.uleb128 0xe
 9243 00a8 17       		.uleb128 0x17
 9244 00a9 01       		.byte	0x1
 9245 00aa 0B       		.uleb128 0xb
 9246 00ab 0B       		.uleb128 0xb
 9247 00ac 3A       		.uleb128 0x3a
 9248 00ad 0B       		.uleb128 0xb
 9249 00ae 3B       		.uleb128 0x3b
 9250 00af 0B       		.uleb128 0xb
 9251 00b0 01       		.uleb128 0x1
 9252 00b1 13       		.uleb128 0x13
 9253 00b2 00       		.byte	0
 9254 00b3 00       		.byte	0
 9255 00b4 0F       		.uleb128 0xf
 9256 00b5 0D       		.uleb128 0xd
 9257 00b6 00       		.byte	0
 9258 00b7 03       		.uleb128 0x3
 9259 00b8 0E       		.uleb128 0xe
 9260 00b9 3A       		.uleb128 0x3a
 9261 00ba 0B       		.uleb128 0xb
ARM GAS  C:\Users\jenny\AppData\Local\Temp\ccWqzXsD.s 			page 164


 9262 00bb 3B       		.uleb128 0x3b
 9263 00bc 0B       		.uleb128 0xb
 9264 00bd 49       		.uleb128 0x49
 9265 00be 13       		.uleb128 0x13
 9266 00bf 00       		.byte	0
 9267 00c0 00       		.byte	0
 9268 00c1 10       		.uleb128 0x10
 9269 00c2 26       		.uleb128 0x26
 9270 00c3 00       		.byte	0
 9271 00c4 49       		.uleb128 0x49
 9272 00c5 13       		.uleb128 0x13
 9273 00c6 00       		.byte	0
 9274 00c7 00       		.byte	0
 9275 00c8 11       		.uleb128 0x11
 9276 00c9 04       		.uleb128 0x4
 9277 00ca 01       		.byte	0x1
 9278 00cb 0B       		.uleb128 0xb
 9279 00cc 0B       		.uleb128 0xb
 9280 00cd 3A       		.uleb128 0x3a
 9281 00ce 0B       		.uleb128 0xb
 9282 00cf 3B       		.uleb128 0x3b
 9283 00d0 0B       		.uleb128 0xb
 9284 00d1 01       		.uleb128 0x1
 9285 00d2 13       		.uleb128 0x13
 9286 00d3 00       		.byte	0
 9287 00d4 00       		.byte	0
 9288 00d5 12       		.uleb128 0x12
 9289 00d6 28       		.uleb128 0x28
 9290 00d7 00       		.byte	0
 9291 00d8 03       		.uleb128 0x3
 9292 00d9 0E       		.uleb128 0xe
 9293 00da 1C       		.uleb128 0x1c
 9294 00db 0D       		.uleb128 0xd
 9295 00dc 00       		.byte	0
 9296 00dd 00       		.byte	0
 9297 00de 13       		.uleb128 0x13
 9298 00df 04       		.uleb128 0x4
 9299 00e0 01       		.byte	0x1
 9300 00e1 03       		.uleb128 0x3
 9301 00e2 0E       		.uleb128 0xe
 9302 00e3 0B       		.uleb128 0xb
 9303 00e4 0B       		.uleb128 0xb
 9304 00e5 3A       		.uleb128 0x3a
 9305 00e6 0B       		.uleb128 0xb
 9306 00e7 3B       		.uleb128 0x3b
 9307 00e8 0B       		.uleb128 0xb
 9308 00e9 01       		.uleb128 0x1
 9309 00ea 13       		.uleb128 0x13
 9310 00eb 00       		.byte	0
 9311 00ec 00       		.byte	0
 9312 00ed 14       		.uleb128 0x14
 9313 00ee 15       		.uleb128 0x15
 9314 00ef 01       		.byte	0x1
 9315 00f0 27       		.uleb128 0x27
 9316 00f1 0C       		.uleb128 0xc
 9317 00f2 01       		.uleb128 0x1
 9318 00f3 13       		.uleb128 0x13
ARM GAS  C:\Users\jenny\AppData\Local\Temp\ccWqzXsD.s 			page 165


 9319 00f4 00       		.byte	0
 9320 00f5 00       		.byte	0
 9321 00f6 15       		.uleb128 0x15
 9322 00f7 05       		.uleb128 0x5
 9323 00f8 00       		.byte	0
 9324 00f9 49       		.uleb128 0x49
 9325 00fa 13       		.uleb128 0x13
 9326 00fb 00       		.byte	0
 9327 00fc 00       		.byte	0
 9328 00fd 16       		.uleb128 0x16
 9329 00fe 0D       		.uleb128 0xd
 9330 00ff 00       		.byte	0
 9331 0100 03       		.uleb128 0x3
 9332 0101 08       		.uleb128 0x8
 9333 0102 3A       		.uleb128 0x3a
 9334 0103 0B       		.uleb128 0xb
 9335 0104 3B       		.uleb128 0x3b
 9336 0105 0B       		.uleb128 0xb
 9337 0106 49       		.uleb128 0x49
 9338 0107 13       		.uleb128 0x13
 9339 0108 00       		.byte	0
 9340 0109 00       		.byte	0
 9341 010a 17       		.uleb128 0x17
 9342 010b 0D       		.uleb128 0xd
 9343 010c 00       		.byte	0
 9344 010d 03       		.uleb128 0x3
 9345 010e 0E       		.uleb128 0xe
 9346 010f 3A       		.uleb128 0x3a
 9347 0110 0B       		.uleb128 0xb
 9348 0111 3B       		.uleb128 0x3b
 9349 0112 05       		.uleb128 0x5
 9350 0113 49       		.uleb128 0x49
 9351 0114 13       		.uleb128 0x13
 9352 0115 38       		.uleb128 0x38
 9353 0116 0A       		.uleb128 0xa
 9354 0117 00       		.byte	0
 9355 0118 00       		.byte	0
 9356 0119 18       		.uleb128 0x18
 9357 011a 26       		.uleb128 0x26
 9358 011b 00       		.byte	0
 9359 011c 00       		.byte	0
 9360 011d 00       		.byte	0
 9361 011e 19       		.uleb128 0x19
 9362 011f 15       		.uleb128 0x15
 9363 0120 01       		.byte	0x1
 9364 0121 27       		.uleb128 0x27
 9365 0122 0C       		.uleb128 0xc
 9366 0123 49       		.uleb128 0x49
 9367 0124 13       		.uleb128 0x13
 9368 0125 01       		.uleb128 0x1
 9369 0126 13       		.uleb128 0x13
 9370 0127 00       		.byte	0
 9371 0128 00       		.byte	0
 9372 0129 1A       		.uleb128 0x1a
 9373 012a 13       		.uleb128 0x13
 9374 012b 00       		.byte	0
 9375 012c 03       		.uleb128 0x3
ARM GAS  C:\Users\jenny\AppData\Local\Temp\ccWqzXsD.s 			page 166


 9376 012d 0E       		.uleb128 0xe
 9377 012e 3C       		.uleb128 0x3c
 9378 012f 0C       		.uleb128 0xc
 9379 0130 00       		.byte	0
 9380 0131 00       		.byte	0
 9381 0132 1B       		.uleb128 0x1b
 9382 0133 2E       		.uleb128 0x2e
 9383 0134 01       		.byte	0x1
 9384 0135 03       		.uleb128 0x3
 9385 0136 0E       		.uleb128 0xe
 9386 0137 3A       		.uleb128 0x3a
 9387 0138 0B       		.uleb128 0xb
 9388 0139 3B       		.uleb128 0x3b
 9389 013a 05       		.uleb128 0x5
 9390 013b 27       		.uleb128 0x27
 9391 013c 0C       		.uleb128 0xc
 9392 013d 49       		.uleb128 0x49
 9393 013e 13       		.uleb128 0x13
 9394 013f 20       		.uleb128 0x20
 9395 0140 0B       		.uleb128 0xb
 9396 0141 01       		.uleb128 0x1
 9397 0142 13       		.uleb128 0x13
 9398 0143 00       		.byte	0
 9399 0144 00       		.byte	0
 9400 0145 1C       		.uleb128 0x1c
 9401 0146 05       		.uleb128 0x5
 9402 0147 00       		.byte	0
 9403 0148 03       		.uleb128 0x3
 9404 0149 08       		.uleb128 0x8
 9405 014a 3A       		.uleb128 0x3a
 9406 014b 0B       		.uleb128 0xb
 9407 014c 3B       		.uleb128 0x3b
 9408 014d 05       		.uleb128 0x5
 9409 014e 49       		.uleb128 0x49
 9410 014f 13       		.uleb128 0x13
 9411 0150 00       		.byte	0
 9412 0151 00       		.byte	0
 9413 0152 1D       		.uleb128 0x1d
 9414 0153 34       		.uleb128 0x34
 9415 0154 00       		.byte	0
 9416 0155 03       		.uleb128 0x3
 9417 0156 0E       		.uleb128 0xe
 9418 0157 3A       		.uleb128 0x3a
 9419 0158 0B       		.uleb128 0xb
 9420 0159 3B       		.uleb128 0x3b
 9421 015a 05       		.uleb128 0x5
 9422 015b 49       		.uleb128 0x49
 9423 015c 13       		.uleb128 0x13
 9424 015d 00       		.byte	0
 9425 015e 00       		.byte	0
 9426 015f 1E       		.uleb128 0x1e
 9427 0160 2E       		.uleb128 0x2e
 9428 0161 01       		.byte	0x1
 9429 0162 03       		.uleb128 0x3
 9430 0163 0E       		.uleb128 0xe
 9431 0164 3A       		.uleb128 0x3a
 9432 0165 0B       		.uleb128 0xb
ARM GAS  C:\Users\jenny\AppData\Local\Temp\ccWqzXsD.s 			page 167


 9433 0166 3B       		.uleb128 0x3b
 9434 0167 05       		.uleb128 0x5
 9435 0168 27       		.uleb128 0x27
 9436 0169 0C       		.uleb128 0xc
 9437 016a 11       		.uleb128 0x11
 9438 016b 01       		.uleb128 0x1
 9439 016c 12       		.uleb128 0x12
 9440 016d 01       		.uleb128 0x1
 9441 016e 40       		.uleb128 0x40
 9442 016f 06       		.uleb128 0x6
 9443 0170 9742     		.uleb128 0x2117
 9444 0172 0C       		.uleb128 0xc
 9445 0173 01       		.uleb128 0x1
 9446 0174 13       		.uleb128 0x13
 9447 0175 00       		.byte	0
 9448 0176 00       		.byte	0
 9449 0177 1F       		.uleb128 0x1f
 9450 0178 05       		.uleb128 0x5
 9451 0179 00       		.byte	0
 9452 017a 03       		.uleb128 0x3
 9453 017b 0E       		.uleb128 0xe
 9454 017c 3A       		.uleb128 0x3a
 9455 017d 0B       		.uleb128 0xb
 9456 017e 3B       		.uleb128 0x3b
 9457 017f 05       		.uleb128 0x5
 9458 0180 49       		.uleb128 0x49
 9459 0181 13       		.uleb128 0x13
 9460 0182 02       		.uleb128 0x2
 9461 0183 06       		.uleb128 0x6
 9462 0184 00       		.byte	0
 9463 0185 00       		.byte	0
 9464 0186 20       		.uleb128 0x20
 9465 0187 34       		.uleb128 0x34
 9466 0188 00       		.byte	0
 9467 0189 03       		.uleb128 0x3
 9468 018a 08       		.uleb128 0x8
 9469 018b 3A       		.uleb128 0x3a
 9470 018c 0B       		.uleb128 0xb
 9471 018d 3B       		.uleb128 0x3b
 9472 018e 05       		.uleb128 0x5
 9473 018f 49       		.uleb128 0x49
 9474 0190 13       		.uleb128 0x13
 9475 0191 02       		.uleb128 0x2
 9476 0192 0A       		.uleb128 0xa
 9477 0193 00       		.byte	0
 9478 0194 00       		.byte	0
 9479 0195 21       		.uleb128 0x21
 9480 0196 898201   		.uleb128 0x4109
 9481 0199 01       		.byte	0x1
 9482 019a 11       		.uleb128 0x11
 9483 019b 01       		.uleb128 0x1
 9484 019c 31       		.uleb128 0x31
 9485 019d 13       		.uleb128 0x13
 9486 019e 01       		.uleb128 0x1
 9487 019f 13       		.uleb128 0x13
 9488 01a0 00       		.byte	0
 9489 01a1 00       		.byte	0
ARM GAS  C:\Users\jenny\AppData\Local\Temp\ccWqzXsD.s 			page 168


 9490 01a2 22       		.uleb128 0x22
 9491 01a3 8A8201   		.uleb128 0x410a
 9492 01a6 00       		.byte	0
 9493 01a7 02       		.uleb128 0x2
 9494 01a8 0A       		.uleb128 0xa
 9495 01a9 9142     		.uleb128 0x2111
 9496 01ab 0A       		.uleb128 0xa
 9497 01ac 00       		.byte	0
 9498 01ad 00       		.byte	0
 9499 01ae 23       		.uleb128 0x23
 9500 01af 898201   		.uleb128 0x4109
 9501 01b2 01       		.byte	0x1
 9502 01b3 11       		.uleb128 0x11
 9503 01b4 01       		.uleb128 0x1
 9504 01b5 9542     		.uleb128 0x2115
 9505 01b7 0C       		.uleb128 0xc
 9506 01b8 31       		.uleb128 0x31
 9507 01b9 13       		.uleb128 0x13
 9508 01ba 00       		.byte	0
 9509 01bb 00       		.byte	0
 9510 01bc 24       		.uleb128 0x24
 9511 01bd 2E       		.uleb128 0x2e
 9512 01be 01       		.byte	0x1
 9513 01bf 03       		.uleb128 0x3
 9514 01c0 0E       		.uleb128 0xe
 9515 01c1 3A       		.uleb128 0x3a
 9516 01c2 0B       		.uleb128 0xb
 9517 01c3 3B       		.uleb128 0x3b
 9518 01c4 05       		.uleb128 0x5
 9519 01c5 27       		.uleb128 0x27
 9520 01c6 0C       		.uleb128 0xc
 9521 01c7 49       		.uleb128 0x49
 9522 01c8 13       		.uleb128 0x13
 9523 01c9 11       		.uleb128 0x11
 9524 01ca 01       		.uleb128 0x1
 9525 01cb 12       		.uleb128 0x12
 9526 01cc 01       		.uleb128 0x1
 9527 01cd 40       		.uleb128 0x40
 9528 01ce 06       		.uleb128 0x6
 9529 01cf 9742     		.uleb128 0x2117
 9530 01d1 0C       		.uleb128 0xc
 9531 01d2 01       		.uleb128 0x1
 9532 01d3 13       		.uleb128 0x13
 9533 01d4 00       		.byte	0
 9534 01d5 00       		.byte	0
 9535 01d6 25       		.uleb128 0x25
 9536 01d7 05       		.uleb128 0x5
 9537 01d8 00       		.byte	0
 9538 01d9 03       		.uleb128 0x3
 9539 01da 08       		.uleb128 0x8
 9540 01db 3A       		.uleb128 0x3a
 9541 01dc 0B       		.uleb128 0xb
 9542 01dd 3B       		.uleb128 0x3b
 9543 01de 05       		.uleb128 0x5
 9544 01df 49       		.uleb128 0x49
 9545 01e0 13       		.uleb128 0x13
 9546 01e1 02       		.uleb128 0x2
ARM GAS  C:\Users\jenny\AppData\Local\Temp\ccWqzXsD.s 			page 169


 9547 01e2 06       		.uleb128 0x6
 9548 01e3 00       		.byte	0
 9549 01e4 00       		.byte	0
 9550 01e5 26       		.uleb128 0x26
 9551 01e6 34       		.uleb128 0x34
 9552 01e7 00       		.byte	0
 9553 01e8 03       		.uleb128 0x3
 9554 01e9 0E       		.uleb128 0xe
 9555 01ea 3A       		.uleb128 0x3a
 9556 01eb 0B       		.uleb128 0xb
 9557 01ec 3B       		.uleb128 0x3b
 9558 01ed 05       		.uleb128 0x5
 9559 01ee 49       		.uleb128 0x49
 9560 01ef 13       		.uleb128 0x13
 9561 01f0 02       		.uleb128 0x2
 9562 01f1 06       		.uleb128 0x6
 9563 01f2 00       		.byte	0
 9564 01f3 00       		.byte	0
 9565 01f4 27       		.uleb128 0x27
 9566 01f5 898201   		.uleb128 0x4109
 9567 01f8 00       		.byte	0
 9568 01f9 11       		.uleb128 0x11
 9569 01fa 01       		.uleb128 0x1
 9570 01fb 31       		.uleb128 0x31
 9571 01fc 13       		.uleb128 0x13
 9572 01fd 00       		.byte	0
 9573 01fe 00       		.byte	0
 9574 01ff 28       		.uleb128 0x28
 9575 0200 898201   		.uleb128 0x4109
 9576 0203 01       		.byte	0x1
 9577 0204 11       		.uleb128 0x11
 9578 0205 01       		.uleb128 0x1
 9579 0206 01       		.uleb128 0x1
 9580 0207 13       		.uleb128 0x13
 9581 0208 00       		.byte	0
 9582 0209 00       		.byte	0
 9583 020a 29       		.uleb128 0x29
 9584 020b 34       		.uleb128 0x34
 9585 020c 00       		.byte	0
 9586 020d 03       		.uleb128 0x3
 9587 020e 08       		.uleb128 0x8
 9588 020f 3A       		.uleb128 0x3a
 9589 0210 0B       		.uleb128 0xb
 9590 0211 3B       		.uleb128 0x3b
 9591 0212 05       		.uleb128 0x5
 9592 0213 49       		.uleb128 0x49
 9593 0214 13       		.uleb128 0x13
 9594 0215 02       		.uleb128 0x2
 9595 0216 06       		.uleb128 0x6
 9596 0217 00       		.byte	0
 9597 0218 00       		.byte	0
 9598 0219 2A       		.uleb128 0x2a
 9599 021a 898201   		.uleb128 0x4109
 9600 021d 01       		.byte	0x1
 9601 021e 11       		.uleb128 0x11
 9602 021f 01       		.uleb128 0x1
 9603 0220 9342     		.uleb128 0x2113
ARM GAS  C:\Users\jenny\AppData\Local\Temp\ccWqzXsD.s 			page 170


 9604 0222 0A       		.uleb128 0xa
 9605 0223 01       		.uleb128 0x1
 9606 0224 13       		.uleb128 0x13
 9607 0225 00       		.byte	0
 9608 0226 00       		.byte	0
 9609 0227 2B       		.uleb128 0x2b
 9610 0228 898201   		.uleb128 0x4109
 9611 022b 01       		.byte	0x1
 9612 022c 11       		.uleb128 0x11
 9613 022d 01       		.uleb128 0x1
 9614 022e 9542     		.uleb128 0x2115
 9615 0230 0C       		.uleb128 0xc
 9616 0231 31       		.uleb128 0x31
 9617 0232 13       		.uleb128 0x13
 9618 0233 01       		.uleb128 0x1
 9619 0234 13       		.uleb128 0x13
 9620 0235 00       		.byte	0
 9621 0236 00       		.byte	0
 9622 0237 2C       		.uleb128 0x2c
 9623 0238 0B       		.uleb128 0xb
 9624 0239 01       		.byte	0x1
 9625 023a 55       		.uleb128 0x55
 9626 023b 06       		.uleb128 0x6
 9627 023c 01       		.uleb128 0x1
 9628 023d 13       		.uleb128 0x13
 9629 023e 00       		.byte	0
 9630 023f 00       		.byte	0
 9631 0240 2D       		.uleb128 0x2d
 9632 0241 898201   		.uleb128 0x4109
 9633 0244 00       		.byte	0
 9634 0245 11       		.uleb128 0x11
 9635 0246 01       		.uleb128 0x1
 9636 0247 9542     		.uleb128 0x2115
 9637 0249 0C       		.uleb128 0xc
 9638 024a 31       		.uleb128 0x31
 9639 024b 13       		.uleb128 0x13
 9640 024c 00       		.byte	0
 9641 024d 00       		.byte	0
 9642 024e 2E       		.uleb128 0x2e
 9643 024f 2E       		.uleb128 0x2e
 9644 0250 01       		.byte	0x1
 9645 0251 03       		.uleb128 0x3
 9646 0252 0E       		.uleb128 0xe
 9647 0253 3A       		.uleb128 0x3a
 9648 0254 0B       		.uleb128 0xb
 9649 0255 3B       		.uleb128 0x3b
 9650 0256 0B       		.uleb128 0xb
 9651 0257 27       		.uleb128 0x27
 9652 0258 0C       		.uleb128 0xc
 9653 0259 49       		.uleb128 0x49
 9654 025a 13       		.uleb128 0x13
 9655 025b 11       		.uleb128 0x11
 9656 025c 01       		.uleb128 0x1
 9657 025d 12       		.uleb128 0x12
 9658 025e 01       		.uleb128 0x1
 9659 025f 40       		.uleb128 0x40
 9660 0260 06       		.uleb128 0x6
ARM GAS  C:\Users\jenny\AppData\Local\Temp\ccWqzXsD.s 			page 171


 9661 0261 9742     		.uleb128 0x2117
 9662 0263 0C       		.uleb128 0xc
 9663 0264 01       		.uleb128 0x1
 9664 0265 13       		.uleb128 0x13
 9665 0266 00       		.byte	0
 9666 0267 00       		.byte	0
 9667 0268 2F       		.uleb128 0x2f
 9668 0269 05       		.uleb128 0x5
 9669 026a 00       		.byte	0
 9670 026b 03       		.uleb128 0x3
 9671 026c 08       		.uleb128 0x8
 9672 026d 3A       		.uleb128 0x3a
 9673 026e 0B       		.uleb128 0xb
 9674 026f 3B       		.uleb128 0x3b
 9675 0270 0B       		.uleb128 0xb
 9676 0271 49       		.uleb128 0x49
 9677 0272 13       		.uleb128 0x13
 9678 0273 02       		.uleb128 0x2
 9679 0274 06       		.uleb128 0x6
 9680 0275 00       		.byte	0
 9681 0276 00       		.byte	0
 9682 0277 30       		.uleb128 0x30
 9683 0278 34       		.uleb128 0x34
 9684 0279 00       		.byte	0
 9685 027a 03       		.uleb128 0x3
 9686 027b 0E       		.uleb128 0xe
 9687 027c 3A       		.uleb128 0x3a
 9688 027d 0B       		.uleb128 0xb
 9689 027e 3B       		.uleb128 0x3b
 9690 027f 0B       		.uleb128 0xb
 9691 0280 49       		.uleb128 0x49
 9692 0281 13       		.uleb128 0x13
 9693 0282 02       		.uleb128 0x2
 9694 0283 06       		.uleb128 0x6
 9695 0284 00       		.byte	0
 9696 0285 00       		.byte	0
 9697 0286 31       		.uleb128 0x31
 9698 0287 34       		.uleb128 0x34
 9699 0288 00       		.byte	0
 9700 0289 03       		.uleb128 0x3
 9701 028a 08       		.uleb128 0x8
 9702 028b 3A       		.uleb128 0x3a
 9703 028c 0B       		.uleb128 0xb
 9704 028d 3B       		.uleb128 0x3b
 9705 028e 0B       		.uleb128 0xb
 9706 028f 49       		.uleb128 0x49
 9707 0290 13       		.uleb128 0x13
 9708 0291 02       		.uleb128 0x2
 9709 0292 06       		.uleb128 0x6
 9710 0293 00       		.byte	0
 9711 0294 00       		.byte	0
 9712 0295 32       		.uleb128 0x32
 9713 0296 0A       		.uleb128 0xa
 9714 0297 00       		.byte	0
 9715 0298 03       		.uleb128 0x3
 9716 0299 0E       		.uleb128 0xe
 9717 029a 3A       		.uleb128 0x3a
ARM GAS  C:\Users\jenny\AppData\Local\Temp\ccWqzXsD.s 			page 172


 9718 029b 0B       		.uleb128 0xb
 9719 029c 3B       		.uleb128 0x3b
 9720 029d 05       		.uleb128 0x5
 9721 029e 11       		.uleb128 0x11
 9722 029f 01       		.uleb128 0x1
 9723 02a0 00       		.byte	0
 9724 02a1 00       		.byte	0
 9725 02a2 33       		.uleb128 0x33
 9726 02a3 2E       		.uleb128 0x2e
 9727 02a4 01       		.byte	0x1
 9728 02a5 03       		.uleb128 0x3
 9729 02a6 0E       		.uleb128 0xe
 9730 02a7 3A       		.uleb128 0x3a
 9731 02a8 0B       		.uleb128 0xb
 9732 02a9 3B       		.uleb128 0x3b
 9733 02aa 0B       		.uleb128 0xb
 9734 02ab 27       		.uleb128 0x27
 9735 02ac 0C       		.uleb128 0xc
 9736 02ad 11       		.uleb128 0x11
 9737 02ae 01       		.uleb128 0x1
 9738 02af 12       		.uleb128 0x12
 9739 02b0 01       		.uleb128 0x1
 9740 02b1 40       		.uleb128 0x40
 9741 02b2 06       		.uleb128 0x6
 9742 02b3 9742     		.uleb128 0x2117
 9743 02b5 0C       		.uleb128 0xc
 9744 02b6 01       		.uleb128 0x1
 9745 02b7 13       		.uleb128 0x13
 9746 02b8 00       		.byte	0
 9747 02b9 00       		.byte	0
 9748 02ba 34       		.uleb128 0x34
 9749 02bb 05       		.uleb128 0x5
 9750 02bc 00       		.byte	0
 9751 02bd 03       		.uleb128 0x3
 9752 02be 0E       		.uleb128 0xe
 9753 02bf 3A       		.uleb128 0x3a
 9754 02c0 0B       		.uleb128 0xb
 9755 02c1 3B       		.uleb128 0x3b
 9756 02c2 0B       		.uleb128 0xb
 9757 02c3 49       		.uleb128 0x49
 9758 02c4 13       		.uleb128 0x13
 9759 02c5 02       		.uleb128 0x2
 9760 02c6 06       		.uleb128 0x6
 9761 02c7 00       		.byte	0
 9762 02c8 00       		.byte	0
 9763 02c9 35       		.uleb128 0x35
 9764 02ca 05       		.uleb128 0x5
 9765 02cb 00       		.byte	0
 9766 02cc 03       		.uleb128 0x3
 9767 02cd 0E       		.uleb128 0xe
 9768 02ce 3A       		.uleb128 0x3a
 9769 02cf 0B       		.uleb128 0xb
 9770 02d0 3B       		.uleb128 0x3b
 9771 02d1 0B       		.uleb128 0xb
 9772 02d2 49       		.uleb128 0x49
 9773 02d3 13       		.uleb128 0x13
 9774 02d4 02       		.uleb128 0x2
ARM GAS  C:\Users\jenny\AppData\Local\Temp\ccWqzXsD.s 			page 173


 9775 02d5 0A       		.uleb128 0xa
 9776 02d6 00       		.byte	0
 9777 02d7 00       		.byte	0
 9778 02d8 36       		.uleb128 0x36
 9779 02d9 898201   		.uleb128 0x4109
 9780 02dc 01       		.byte	0x1
 9781 02dd 11       		.uleb128 0x11
 9782 02de 01       		.uleb128 0x1
 9783 02df 31       		.uleb128 0x31
 9784 02e0 13       		.uleb128 0x13
 9785 02e1 00       		.byte	0
 9786 02e2 00       		.byte	0
 9787 02e3 37       		.uleb128 0x37
 9788 02e4 2E       		.uleb128 0x2e
 9789 02e5 01       		.byte	0x1
 9790 02e6 31       		.uleb128 0x31
 9791 02e7 13       		.uleb128 0x13
 9792 02e8 11       		.uleb128 0x11
 9793 02e9 01       		.uleb128 0x1
 9794 02ea 12       		.uleb128 0x12
 9795 02eb 01       		.uleb128 0x1
 9796 02ec 40       		.uleb128 0x40
 9797 02ed 06       		.uleb128 0x6
 9798 02ee 9742     		.uleb128 0x2117
 9799 02f0 0C       		.uleb128 0xc
 9800 02f1 01       		.uleb128 0x1
 9801 02f2 13       		.uleb128 0x13
 9802 02f3 00       		.byte	0
 9803 02f4 00       		.byte	0
 9804 02f5 38       		.uleb128 0x38
 9805 02f6 05       		.uleb128 0x5
 9806 02f7 00       		.byte	0
 9807 02f8 31       		.uleb128 0x31
 9808 02f9 13       		.uleb128 0x13
 9809 02fa 02       		.uleb128 0x2
 9810 02fb 06       		.uleb128 0x6
 9811 02fc 00       		.byte	0
 9812 02fd 00       		.byte	0
 9813 02fe 39       		.uleb128 0x39
 9814 02ff 34       		.uleb128 0x34
 9815 0300 00       		.byte	0
 9816 0301 31       		.uleb128 0x31
 9817 0302 13       		.uleb128 0x13
 9818 0303 02       		.uleb128 0x2
 9819 0304 06       		.uleb128 0x6
 9820 0305 00       		.byte	0
 9821 0306 00       		.byte	0
 9822 0307 3A       		.uleb128 0x3a
 9823 0308 1D       		.uleb128 0x1d
 9824 0309 01       		.byte	0x1
 9825 030a 31       		.uleb128 0x31
 9826 030b 13       		.uleb128 0x13
 9827 030c 11       		.uleb128 0x11
 9828 030d 01       		.uleb128 0x1
 9829 030e 12       		.uleb128 0x12
 9830 030f 01       		.uleb128 0x1
 9831 0310 58       		.uleb128 0x58
ARM GAS  C:\Users\jenny\AppData\Local\Temp\ccWqzXsD.s 			page 174


 9832 0311 0B       		.uleb128 0xb
 9833 0312 59       		.uleb128 0x59
 9834 0313 05       		.uleb128 0x5
 9835 0314 01       		.uleb128 0x1
 9836 0315 13       		.uleb128 0x13
 9837 0316 00       		.byte	0
 9838 0317 00       		.byte	0
 9839 0318 3B       		.uleb128 0x3b
 9840 0319 0B       		.uleb128 0xb
 9841 031a 01       		.byte	0x1
 9842 031b 11       		.uleb128 0x11
 9843 031c 01       		.uleb128 0x1
 9844 031d 12       		.uleb128 0x12
 9845 031e 01       		.uleb128 0x1
 9846 031f 00       		.byte	0
 9847 0320 00       		.byte	0
 9848 0321 3C       		.uleb128 0x3c
 9849 0322 34       		.uleb128 0x34
 9850 0323 00       		.byte	0
 9851 0324 31       		.uleb128 0x31
 9852 0325 13       		.uleb128 0x13
 9853 0326 00       		.byte	0
 9854 0327 00       		.byte	0
 9855 0328 3D       		.uleb128 0x3d
 9856 0329 05       		.uleb128 0x5
 9857 032a 00       		.byte	0
 9858 032b 31       		.uleb128 0x31
 9859 032c 13       		.uleb128 0x13
 9860 032d 00       		.byte	0
 9861 032e 00       		.byte	0
 9862 032f 3E       		.uleb128 0x3e
 9863 0330 898201   		.uleb128 0x4109
 9864 0333 01       		.byte	0x1
 9865 0334 11       		.uleb128 0x11
 9866 0335 01       		.uleb128 0x1
 9867 0336 00       		.byte	0
 9868 0337 00       		.byte	0
 9869 0338 3F       		.uleb128 0x3f
 9870 0339 2E       		.uleb128 0x2e
 9871 033a 01       		.byte	0x1
 9872 033b 03       		.uleb128 0x3
 9873 033c 0E       		.uleb128 0xe
 9874 033d 3A       		.uleb128 0x3a
 9875 033e 0B       		.uleb128 0xb
 9876 033f 3B       		.uleb128 0x3b
 9877 0340 05       		.uleb128 0x5
 9878 0341 27       		.uleb128 0x27
 9879 0342 0C       		.uleb128 0xc
 9880 0343 20       		.uleb128 0x20
 9881 0344 0B       		.uleb128 0xb
 9882 0345 01       		.uleb128 0x1
 9883 0346 13       		.uleb128 0x13
 9884 0347 00       		.byte	0
 9885 0348 00       		.byte	0
 9886 0349 40       		.uleb128 0x40
 9887 034a 2E       		.uleb128 0x2e
 9888 034b 01       		.byte	0x1
ARM GAS  C:\Users\jenny\AppData\Local\Temp\ccWqzXsD.s 			page 175


 9889 034c 3F       		.uleb128 0x3f
 9890 034d 0C       		.uleb128 0xc
 9891 034e 03       		.uleb128 0x3
 9892 034f 0E       		.uleb128 0xe
 9893 0350 3A       		.uleb128 0x3a
 9894 0351 0B       		.uleb128 0xb
 9895 0352 3B       		.uleb128 0x3b
 9896 0353 05       		.uleb128 0x5
 9897 0354 27       		.uleb128 0x27
 9898 0355 0C       		.uleb128 0xc
 9899 0356 11       		.uleb128 0x11
 9900 0357 01       		.uleb128 0x1
 9901 0358 12       		.uleb128 0x12
 9902 0359 01       		.uleb128 0x1
 9903 035a 40       		.uleb128 0x40
 9904 035b 06       		.uleb128 0x6
 9905 035c 9742     		.uleb128 0x2117
 9906 035e 0C       		.uleb128 0xc
 9907 035f 01       		.uleb128 0x1
 9908 0360 13       		.uleb128 0x13
 9909 0361 00       		.byte	0
 9910 0362 00       		.byte	0
 9911 0363 41       		.uleb128 0x41
 9912 0364 05       		.uleb128 0x5
 9913 0365 00       		.byte	0
 9914 0366 31       		.uleb128 0x31
 9915 0367 13       		.uleb128 0x13
 9916 0368 02       		.uleb128 0x2
 9917 0369 0A       		.uleb128 0xa
 9918 036a 00       		.byte	0
 9919 036b 00       		.byte	0
 9920 036c 42       		.uleb128 0x42
 9921 036d 2E       		.uleb128 0x2e
 9922 036e 01       		.byte	0x1
 9923 036f 3F       		.uleb128 0x3f
 9924 0370 0C       		.uleb128 0xc
 9925 0371 03       		.uleb128 0x3
 9926 0372 0E       		.uleb128 0xe
 9927 0373 3A       		.uleb128 0x3a
 9928 0374 0B       		.uleb128 0xb
 9929 0375 3B       		.uleb128 0x3b
 9930 0376 05       		.uleb128 0x5
 9931 0377 27       		.uleb128 0x27
 9932 0378 0C       		.uleb128 0xc
 9933 0379 49       		.uleb128 0x49
 9934 037a 13       		.uleb128 0x13
 9935 037b 11       		.uleb128 0x11
 9936 037c 01       		.uleb128 0x1
 9937 037d 12       		.uleb128 0x12
 9938 037e 01       		.uleb128 0x1
 9939 037f 40       		.uleb128 0x40
 9940 0380 06       		.uleb128 0x6
 9941 0381 9742     		.uleb128 0x2117
 9942 0383 0C       		.uleb128 0xc
 9943 0384 01       		.uleb128 0x1
 9944 0385 13       		.uleb128 0x13
 9945 0386 00       		.byte	0
ARM GAS  C:\Users\jenny\AppData\Local\Temp\ccWqzXsD.s 			page 176


 9946 0387 00       		.byte	0
 9947 0388 43       		.uleb128 0x43
 9948 0389 0B       		.uleb128 0xb
 9949 038a 01       		.byte	0x1
 9950 038b 11       		.uleb128 0x11
 9951 038c 01       		.uleb128 0x1
 9952 038d 12       		.uleb128 0x12
 9953 038e 01       		.uleb128 0x1
 9954 038f 01       		.uleb128 0x1
 9955 0390 13       		.uleb128 0x13
 9956 0391 00       		.byte	0
 9957 0392 00       		.byte	0
 9958 0393 44       		.uleb128 0x44
 9959 0394 34       		.uleb128 0x34
 9960 0395 00       		.byte	0
 9961 0396 03       		.uleb128 0x3
 9962 0397 0E       		.uleb128 0xe
 9963 0398 3A       		.uleb128 0x3a
 9964 0399 0B       		.uleb128 0xb
 9965 039a 3B       		.uleb128 0x3b
 9966 039b 0B       		.uleb128 0xb
 9967 039c 49       		.uleb128 0x49
 9968 039d 13       		.uleb128 0x13
 9969 039e 3F       		.uleb128 0x3f
 9970 039f 0C       		.uleb128 0xc
 9971 03a0 3C       		.uleb128 0x3c
 9972 03a1 0C       		.uleb128 0xc
 9973 03a2 00       		.byte	0
 9974 03a3 00       		.byte	0
 9975 03a4 45       		.uleb128 0x45
 9976 03a5 2E       		.uleb128 0x2e
 9977 03a6 01       		.byte	0x1
 9978 03a7 3F       		.uleb128 0x3f
 9979 03a8 0C       		.uleb128 0xc
 9980 03a9 03       		.uleb128 0x3
 9981 03aa 0E       		.uleb128 0xe
 9982 03ab 3A       		.uleb128 0x3a
 9983 03ac 0B       		.uleb128 0xb
 9984 03ad 3B       		.uleb128 0x3b
 9985 03ae 05       		.uleb128 0x5
 9986 03af 27       		.uleb128 0x27
 9987 03b0 0C       		.uleb128 0xc
 9988 03b1 3C       		.uleb128 0x3c
 9989 03b2 0C       		.uleb128 0xc
 9990 03b3 01       		.uleb128 0x1
 9991 03b4 13       		.uleb128 0x13
 9992 03b5 00       		.byte	0
 9993 03b6 00       		.byte	0
 9994 03b7 46       		.uleb128 0x46
 9995 03b8 2E       		.uleb128 0x2e
 9996 03b9 00       		.byte	0
 9997 03ba 3F       		.uleb128 0x3f
 9998 03bb 0C       		.uleb128 0xc
 9999 03bc 03       		.uleb128 0x3
 10000 03bd 0E       		.uleb128 0xe
 10001 03be 3A       		.uleb128 0x3a
 10002 03bf 0B       		.uleb128 0xb
ARM GAS  C:\Users\jenny\AppData\Local\Temp\ccWqzXsD.s 			page 177


 10003 03c0 3B       		.uleb128 0x3b
 10004 03c1 05       		.uleb128 0x5
 10005 03c2 27       		.uleb128 0x27
 10006 03c3 0C       		.uleb128 0xc
 10007 03c4 3C       		.uleb128 0x3c
 10008 03c5 0C       		.uleb128 0xc
 10009 03c6 00       		.byte	0
 10010 03c7 00       		.byte	0
 10011 03c8 47       		.uleb128 0x47
 10012 03c9 2E       		.uleb128 0x2e
 10013 03ca 01       		.byte	0x1
 10014 03cb 3F       		.uleb128 0x3f
 10015 03cc 0C       		.uleb128 0xc
 10016 03cd 03       		.uleb128 0x3
 10017 03ce 0E       		.uleb128 0xe
 10018 03cf 3A       		.uleb128 0x3a
 10019 03d0 0B       		.uleb128 0xb
 10020 03d1 3B       		.uleb128 0x3b
 10021 03d2 0B       		.uleb128 0xb
 10022 03d3 27       		.uleb128 0x27
 10023 03d4 0C       		.uleb128 0xc
 10024 03d5 3C       		.uleb128 0x3c
 10025 03d6 0C       		.uleb128 0xc
 10026 03d7 01       		.uleb128 0x1
 10027 03d8 13       		.uleb128 0x13
 10028 03d9 00       		.byte	0
 10029 03da 00       		.byte	0
 10030 03db 48       		.uleb128 0x48
 10031 03dc 2E       		.uleb128 0x2e
 10032 03dd 01       		.byte	0x1
 10033 03de 3F       		.uleb128 0x3f
 10034 03df 0C       		.uleb128 0xc
 10035 03e0 03       		.uleb128 0x3
 10036 03e1 0E       		.uleb128 0xe
 10037 03e2 3A       		.uleb128 0x3a
 10038 03e3 0B       		.uleb128 0xb
 10039 03e4 3B       		.uleb128 0x3b
 10040 03e5 05       		.uleb128 0x5
 10041 03e6 27       		.uleb128 0x27
 10042 03e7 0C       		.uleb128 0xc
 10043 03e8 49       		.uleb128 0x49
 10044 03e9 13       		.uleb128 0x13
 10045 03ea 3C       		.uleb128 0x3c
 10046 03eb 0C       		.uleb128 0xc
 10047 03ec 01       		.uleb128 0x1
 10048 03ed 13       		.uleb128 0x13
 10049 03ee 00       		.byte	0
 10050 03ef 00       		.byte	0
 10051 03f0 49       		.uleb128 0x49
 10052 03f1 2E       		.uleb128 0x2e
 10053 03f2 01       		.byte	0x1
 10054 03f3 3F       		.uleb128 0x3f
 10055 03f4 0C       		.uleb128 0xc
 10056 03f5 03       		.uleb128 0x3
 10057 03f6 0E       		.uleb128 0xe
 10058 03f7 3A       		.uleb128 0x3a
 10059 03f8 0B       		.uleb128 0xb
ARM GAS  C:\Users\jenny\AppData\Local\Temp\ccWqzXsD.s 			page 178


 10060 03f9 3B       		.uleb128 0x3b
 10061 03fa 0B       		.uleb128 0xb
 10062 03fb 27       		.uleb128 0x27
 10063 03fc 0C       		.uleb128 0xc
 10064 03fd 49       		.uleb128 0x49
 10065 03fe 13       		.uleb128 0x13
 10066 03ff 3C       		.uleb128 0x3c
 10067 0400 0C       		.uleb128 0xc
 10068 0401 01       		.uleb128 0x1
 10069 0402 13       		.uleb128 0x13
 10070 0403 00       		.byte	0
 10071 0404 00       		.byte	0
 10072 0405 4A       		.uleb128 0x4a
 10073 0406 2E       		.uleb128 0x2e
 10074 0407 00       		.byte	0
 10075 0408 3F       		.uleb128 0x3f
 10076 0409 0C       		.uleb128 0xc
 10077 040a 03       		.uleb128 0x3
 10078 040b 0E       		.uleb128 0xe
 10079 040c 3A       		.uleb128 0x3a
 10080 040d 0B       		.uleb128 0xb
 10081 040e 3B       		.uleb128 0x3b
 10082 040f 05       		.uleb128 0x5
 10083 0410 27       		.uleb128 0x27
 10084 0411 0C       		.uleb128 0xc
 10085 0412 49       		.uleb128 0x49
 10086 0413 13       		.uleb128 0x13
 10087 0414 3C       		.uleb128 0x3c
 10088 0415 0C       		.uleb128 0xc
 10089 0416 00       		.byte	0
 10090 0417 00       		.byte	0
 10091 0418 4B       		.uleb128 0x4b
 10092 0419 2E       		.uleb128 0x2e
 10093 041a 00       		.byte	0
 10094 041b 3F       		.uleb128 0x3f
 10095 041c 0C       		.uleb128 0xc
 10096 041d 03       		.uleb128 0x3
 10097 041e 0E       		.uleb128 0xe
 10098 041f 3A       		.uleb128 0x3a
 10099 0420 0B       		.uleb128 0xb
 10100 0421 3B       		.uleb128 0x3b
 10101 0422 0B       		.uleb128 0xb
 10102 0423 27       		.uleb128 0x27
 10103 0424 0C       		.uleb128 0xc
 10104 0425 49       		.uleb128 0x49
 10105 0426 13       		.uleb128 0x13
 10106 0427 3C       		.uleb128 0x3c
 10107 0428 0C       		.uleb128 0xc
 10108 0429 00       		.byte	0
 10109 042a 00       		.byte	0
 10110 042b 4C       		.uleb128 0x4c
 10111 042c 2E       		.uleb128 0x2e
 10112 042d 01       		.byte	0x1
 10113 042e 3F       		.uleb128 0x3f
 10114 042f 0C       		.uleb128 0xc
 10115 0430 03       		.uleb128 0x3
 10116 0431 0E       		.uleb128 0xe
ARM GAS  C:\Users\jenny\AppData\Local\Temp\ccWqzXsD.s 			page 179


 10117 0432 3A       		.uleb128 0x3a
 10118 0433 0B       		.uleb128 0xb
 10119 0434 3B       		.uleb128 0x3b
 10120 0435 0B       		.uleb128 0xb
 10121 0436 27       		.uleb128 0x27
 10122 0437 0C       		.uleb128 0xc
 10123 0438 49       		.uleb128 0x49
 10124 0439 13       		.uleb128 0x13
 10125 043a 3C       		.uleb128 0x3c
 10126 043b 0C       		.uleb128 0xc
 10127 043c 00       		.byte	0
 10128 043d 00       		.byte	0
 10129 043e 00       		.byte	0
 10130              		.section	.debug_loc,"",%progbits
 10131              	.Ldebug_loc0:
 10132              	.LLST0:
 10133 0000 00000000 		.4byte	.LFB13
 10134 0004 02000000 		.4byte	.LCFI0
 10135 0008 0200     		.2byte	0x2
 10136 000a 7D       		.byte	0x7d
 10137 000b 00       		.sleb128 0
 10138 000c 02000000 		.4byte	.LCFI0
 10139 0010 4A000000 		.4byte	.LFE13
 10140 0014 0200     		.2byte	0x2
 10141 0016 7D       		.byte	0x7d
 10142 0017 08       		.sleb128 8
 10143 0018 00000000 		.4byte	0
 10144 001c 00000000 		.4byte	0
 10145              	.LLST1:
 10146 0020 00000000 		.4byte	.LVL0
 10147 0024 08000000 		.4byte	.LVL2
 10148 0028 0100     		.2byte	0x1
 10149 002a 50       		.byte	0x50
 10150 002b 08000000 		.4byte	.LVL2
 10151 002f 0B000000 		.4byte	.LVL3-1
 10152 0033 0100     		.2byte	0x1
 10153 0035 51       		.byte	0x51
 10154 0036 0B000000 		.4byte	.LVL3-1
 10155 003a 4A000000 		.4byte	.LFE13
 10156 003e 0400     		.2byte	0x4
 10157 0040 F3       		.byte	0xf3
 10158 0041 01       		.uleb128 0x1
 10159 0042 50       		.byte	0x50
 10160 0043 9F       		.byte	0x9f
 10161 0044 00000000 		.4byte	0
 10162 0048 00000000 		.4byte	0
 10163              	.LLST2:
 10164 004c 00000000 		.4byte	.LFB23
 10165 0050 02000000 		.4byte	.LCFI1
 10166 0054 0200     		.2byte	0x2
 10167 0056 7D       		.byte	0x7d
 10168 0057 00       		.sleb128 0
 10169 0058 02000000 		.4byte	.LCFI1
 10170 005c 92000000 		.4byte	.LFE23
 10171 0060 0200     		.2byte	0x2
 10172 0062 7D       		.byte	0x7d
 10173 0063 10       		.sleb128 16
ARM GAS  C:\Users\jenny\AppData\Local\Temp\ccWqzXsD.s 			page 180


 10174 0064 00000000 		.4byte	0
 10175 0068 00000000 		.4byte	0
 10176              	.LLST3:
 10177 006c 00000000 		.4byte	.LVL8
 10178 0070 13000000 		.4byte	.LVL9-1
 10179 0074 0100     		.2byte	0x1
 10180 0076 50       		.byte	0x50
 10181 0077 13000000 		.4byte	.LVL9-1
 10182 007b 8E000000 		.4byte	.LVL18
 10183 007f 0100     		.2byte	0x1
 10184 0081 54       		.byte	0x54
 10185 0082 8E000000 		.4byte	.LVL18
 10186 0086 92000000 		.4byte	.LFE23
 10187 008a 0100     		.2byte	0x1
 10188 008c 50       		.byte	0x50
 10189 008d 00000000 		.4byte	0
 10190 0091 00000000 		.4byte	0
 10191              	.LLST4:
 10192 0095 00000000 		.4byte	.LVL8
 10193 0099 13000000 		.4byte	.LVL9-1
 10194 009d 0100     		.2byte	0x1
 10195 009f 51       		.byte	0x51
 10196 00a0 13000000 		.4byte	.LVL9-1
 10197 00a4 8E000000 		.4byte	.LVL18
 10198 00a8 0400     		.2byte	0x4
 10199 00aa F3       		.byte	0xf3
 10200 00ab 01       		.uleb128 0x1
 10201 00ac 51       		.byte	0x51
 10202 00ad 9F       		.byte	0x9f
 10203 00ae 8E000000 		.4byte	.LVL18
 10204 00b2 90000000 		.4byte	.LVL19
 10205 00b6 0100     		.2byte	0x1
 10206 00b8 51       		.byte	0x51
 10207 00b9 90000000 		.4byte	.LVL19
 10208 00bd 92000000 		.4byte	.LFE23
 10209 00c1 0400     		.2byte	0x4
 10210 00c3 F3       		.byte	0xf3
 10211 00c4 01       		.uleb128 0x1
 10212 00c5 51       		.byte	0x51
 10213 00c6 9F       		.byte	0x9f
 10214 00c7 00000000 		.4byte	0
 10215 00cb 00000000 		.4byte	0
 10216              	.LLST5:
 10217 00cf 00000000 		.4byte	.LVL8
 10218 00d3 13000000 		.4byte	.LVL9-1
 10219 00d7 0100     		.2byte	0x1
 10220 00d9 52       		.byte	0x52
 10221 00da 13000000 		.4byte	.LVL9-1
 10222 00de 8E000000 		.4byte	.LVL18
 10223 00e2 0400     		.2byte	0x4
 10224 00e4 F3       		.byte	0xf3
 10225 00e5 01       		.uleb128 0x1
 10226 00e6 52       		.byte	0x52
 10227 00e7 9F       		.byte	0x9f
 10228 00e8 8E000000 		.4byte	.LVL18
 10229 00ec 92000000 		.4byte	.LFE23
 10230 00f0 0100     		.2byte	0x1
ARM GAS  C:\Users\jenny\AppData\Local\Temp\ccWqzXsD.s 			page 181


 10231 00f2 52       		.byte	0x52
 10232 00f3 00000000 		.4byte	0
 10233 00f7 00000000 		.4byte	0
 10234              	.LLST7:
 10235 00fb 32000000 		.4byte	.LVL10
 10236 00ff 4A000000 		.4byte	.LVL12
 10237 0103 0100     		.2byte	0x1
 10238 0105 55       		.byte	0x55
 10239 0106 4E000000 		.4byte	.LVL13
 10240 010a 6A000000 		.4byte	.LVL15
 10241 010e 0100     		.2byte	0x1
 10242 0110 55       		.byte	0x55
 10243 0111 00000000 		.4byte	0
 10244 0115 00000000 		.4byte	0
 10245              	.LLST8:
 10246 0119 00000000 		.4byte	.LFB20
 10247 011d 02000000 		.4byte	.LCFI2
 10248 0121 0200     		.2byte	0x2
 10249 0123 7D       		.byte	0x7d
 10250 0124 00       		.sleb128 0
 10251 0125 02000000 		.4byte	.LCFI2
 10252 0129 50010000 		.4byte	.LFE20
 10253 012d 0200     		.2byte	0x2
 10254 012f 7D       		.byte	0x7d
 10255 0130 18       		.sleb128 24
 10256 0131 00000000 		.4byte	0
 10257 0135 00000000 		.4byte	0
 10258              	.LLST9:
 10259 0139 00000000 		.4byte	.LVL20
 10260 013d 0A000000 		.4byte	.LVL21
 10261 0141 0100     		.2byte	0x1
 10262 0143 50       		.byte	0x50
 10263 0144 0A000000 		.4byte	.LVL21
 10264 0148 3E010000 		.4byte	.LVL54
 10265 014c 0100     		.2byte	0x1
 10266 014e 54       		.byte	0x54
 10267 014f 3E010000 		.4byte	.LVL54
 10268 0153 41010000 		.4byte	.LVL55-1
 10269 0157 0100     		.2byte	0x1
 10270 0159 50       		.byte	0x50
 10271 015a 41010000 		.4byte	.LVL55-1
 10272 015e 50010000 		.4byte	.LFE20
 10273 0162 0100     		.2byte	0x1
 10274 0164 54       		.byte	0x54
 10275 0165 00000000 		.4byte	0
 10276 0169 00000000 		.4byte	0
 10277              	.LLST10:
 10278 016d 62000000 		.4byte	.LVL29
 10279 0171 79000000 		.4byte	.LVL30-1
 10280 0175 0100     		.2byte	0x1
 10281 0177 52       		.byte	0x52
 10282 0178 A2000000 		.4byte	.LVL33
 10283 017c A6000000 		.4byte	.LVL34
 10284 0180 0100     		.2byte	0x1
 10285 0182 52       		.byte	0x52
 10286 0183 F2000000 		.4byte	.LVL43
 10287 0187 F4000000 		.4byte	.LVL44
ARM GAS  C:\Users\jenny\AppData\Local\Temp\ccWqzXsD.s 			page 182


 10288 018b 0100     		.2byte	0x1
 10289 018d 50       		.byte	0x50
 10290 018e 00000000 		.4byte	0
 10291 0192 00000000 		.4byte	0
 10292              	.LLST11:
 10293 0196 30000000 		.4byte	.LVL24
 10294 019a 4C000000 		.4byte	.LVL27
 10295 019e 0200     		.2byte	0x2
 10296 01a0 72       		.byte	0x72
 10297 01a1 08       		.sleb128 8
 10298 01a2 0A010000 		.4byte	.LVL47
 10299 01a6 11010000 		.4byte	.LVL48-1
 10300 01aa 0200     		.2byte	0x2
 10301 01ac 72       		.byte	0x72
 10302 01ad 08       		.sleb128 8
 10303 01ae 00000000 		.4byte	0
 10304 01b2 00000000 		.4byte	0
 10305              	.LLST12:
 10306 01b6 3E000000 		.4byte	.LVL25
 10307 01ba 30010000 		.4byte	.LVL51
 10308 01be 0100     		.2byte	0x1
 10309 01c0 57       		.byte	0x57
 10310 01c1 00000000 		.4byte	0
 10311 01c5 00000000 		.4byte	0
 10312              	.LLST13:
 10313 01c9 40000000 		.4byte	.LVL26
 10314 01cd 30010000 		.4byte	.LVL51
 10315 01d1 0100     		.2byte	0x1
 10316 01d3 56       		.byte	0x56
 10317 01d4 00000000 		.4byte	0
 10318 01d8 00000000 		.4byte	0
 10319              	.LLST14:
 10320 01dc 40000000 		.4byte	.LVL26
 10321 01e0 4C000000 		.4byte	.LVL27
 10322 01e4 0500     		.2byte	0x5
 10323 01e6 73       		.byte	0x73
 10324 01e7 00       		.sleb128 0
 10325 01e8 30       		.byte	0x30
 10326 01e9 29       		.byte	0x29
 10327 01ea 9F       		.byte	0x9f
 10328 01eb 0A010000 		.4byte	.LVL47
 10329 01ef 11010000 		.4byte	.LVL48-1
 10330 01f3 0500     		.2byte	0x5
 10331 01f5 73       		.byte	0x73
 10332 01f6 00       		.sleb128 0
 10333 01f7 30       		.byte	0x30
 10334 01f8 29       		.byte	0x29
 10335 01f9 9F       		.byte	0x9f
 10336 01fa 00000000 		.4byte	0
 10337 01fe 00000000 		.4byte	0
 10338              	.LLST15:
 10339 0202 00000000 		.4byte	.LFB12
 10340 0206 02000000 		.4byte	.LCFI3
 10341 020a 0200     		.2byte	0x2
 10342 020c 7D       		.byte	0x7d
 10343 020d 00       		.sleb128 0
 10344 020e 02000000 		.4byte	.LCFI3
ARM GAS  C:\Users\jenny\AppData\Local\Temp\ccWqzXsD.s 			page 183


 10345 0212 B8000000 		.4byte	.LFE12
 10346 0216 0200     		.2byte	0x2
 10347 0218 7D       		.byte	0x7d
 10348 0219 18       		.sleb128 24
 10349 021a 00000000 		.4byte	0
 10350 021e 00000000 		.4byte	0
 10351              	.LLST16:
 10352 0222 00000000 		.4byte	.LVL56
 10353 0226 0A000000 		.4byte	.LVL57
 10354 022a 0100     		.2byte	0x1
 10355 022c 50       		.byte	0x50
 10356 022d 0A000000 		.4byte	.LVL57
 10357 0231 AA000000 		.4byte	.LVL71
 10358 0235 0100     		.2byte	0x1
 10359 0237 54       		.byte	0x54
 10360 0238 AA000000 		.4byte	.LVL71
 10361 023c AD000000 		.4byte	.LVL72-1
 10362 0240 0100     		.2byte	0x1
 10363 0242 50       		.byte	0x50
 10364 0243 AD000000 		.4byte	.LVL72-1
 10365 0247 B8000000 		.4byte	.LFE12
 10366 024b 0100     		.2byte	0x1
 10367 024d 54       		.byte	0x54
 10368 024e 00000000 		.4byte	0
 10369 0252 00000000 		.4byte	0
 10370              	.LLST17:
 10371 0256 00000000 		.4byte	.LVL56
 10372 025a 0A000000 		.4byte	.LVL57
 10373 025e 0100     		.2byte	0x1
 10374 0260 51       		.byte	0x51
 10375 0261 0A000000 		.4byte	.LVL57
 10376 0265 AA000000 		.4byte	.LVL71
 10377 0269 0400     		.2byte	0x4
 10378 026b F3       		.byte	0xf3
 10379 026c 01       		.uleb128 0x1
 10380 026d 51       		.byte	0x51
 10381 026e 9F       		.byte	0x9f
 10382 026f AA000000 		.4byte	.LVL71
 10383 0273 AD000000 		.4byte	.LVL72-1
 10384 0277 0100     		.2byte	0x1
 10385 0279 51       		.byte	0x51
 10386 027a AD000000 		.4byte	.LVL72-1
 10387 027e B8000000 		.4byte	.LFE12
 10388 0282 0400     		.2byte	0x4
 10389 0284 F3       		.byte	0xf3
 10390 0285 01       		.uleb128 0x1
 10391 0286 51       		.byte	0x51
 10392 0287 9F       		.byte	0x9f
 10393 0288 00000000 		.4byte	0
 10394 028c 00000000 		.4byte	0
 10395              	.LLST19:
 10396 0290 0E000000 		.4byte	.LVL58
 10397 0294 1F000000 		.4byte	.LVL59-1
 10398 0298 0200     		.2byte	0x2
 10399 029a 74       		.byte	0x74
 10400 029b 01       		.sleb128 1
 10401 029c 1F000000 		.4byte	.LVL59-1
ARM GAS  C:\Users\jenny\AppData\Local\Temp\ccWqzXsD.s 			page 184


 10402 02a0 AA000000 		.4byte	.LVL71
 10403 02a4 0100     		.2byte	0x1
 10404 02a6 56       		.byte	0x56
 10405 02a7 B0000000 		.4byte	.LVL73
 10406 02ab B8000000 		.4byte	.LFE12
 10407 02af 0100     		.2byte	0x1
 10408 02b1 56       		.byte	0x56
 10409 02b2 00000000 		.4byte	0
 10410 02b6 00000000 		.4byte	0
 10411              	.LLST20:
 10412 02ba 70000000 		.4byte	.LVL65
 10413 02be 80000000 		.4byte	.LVL66
 10414 02c2 0C00     		.2byte	0xc
 10415 02c4 71       		.byte	0x71
 10416 02c5 00       		.sleb128 0
 10417 02c6 34       		.byte	0x34
 10418 02c7 1A       		.byte	0x1a
 10419 02c8 48       		.byte	0x48
 10420 02c9 24       		.byte	0x24
 10421 02ca 30       		.byte	0x30
 10422 02cb 2E       		.byte	0x2e
 10423 02cc 08       		.byte	0x8
 10424 02cd FF       		.byte	0xff
 10425 02ce 1A       		.byte	0x1a
 10426 02cf 9F       		.byte	0x9f
 10427 02d0 80000000 		.4byte	.LVL66
 10428 02d4 82000000 		.4byte	.LVL67
 10429 02d8 0E00     		.2byte	0xe
 10430 02da 74       		.byte	0x74
 10431 02db 1C       		.sleb128 28
 10432 02dc 94       		.byte	0x94
 10433 02dd 01       		.byte	0x1
 10434 02de 34       		.byte	0x34
 10435 02df 1A       		.byte	0x1a
 10436 02e0 48       		.byte	0x48
 10437 02e1 24       		.byte	0x24
 10438 02e2 30       		.byte	0x30
 10439 02e3 2E       		.byte	0x2e
 10440 02e4 08       		.byte	0x8
 10441 02e5 FF       		.byte	0xff
 10442 02e6 1A       		.byte	0x1a
 10443 02e7 9F       		.byte	0x9f
 10444 02e8 B0000000 		.4byte	.LVL73
 10445 02ec B3000000 		.4byte	.LVL74-1
 10446 02f0 0E00     		.2byte	0xe
 10447 02f2 74       		.byte	0x74
 10448 02f3 1C       		.sleb128 28
 10449 02f4 94       		.byte	0x94
 10450 02f5 01       		.byte	0x1
 10451 02f6 34       		.byte	0x34
 10452 02f7 1A       		.byte	0x1a
 10453 02f8 48       		.byte	0x48
 10454 02f9 24       		.byte	0x24
 10455 02fa 30       		.byte	0x30
 10456 02fb 2E       		.byte	0x2e
 10457 02fc 08       		.byte	0x8
 10458 02fd FF       		.byte	0xff
ARM GAS  C:\Users\jenny\AppData\Local\Temp\ccWqzXsD.s 			page 185


 10459 02fe 1A       		.byte	0x1a
 10460 02ff 9F       		.byte	0x9f
 10461 0300 00000000 		.4byte	0
 10462 0304 00000000 		.4byte	0
 10463              	.LLST21:
 10464 0308 00000000 		.4byte	.LFB9
 10465 030c 04000000 		.4byte	.LCFI4
 10466 0310 0200     		.2byte	0x2
 10467 0312 7D       		.byte	0x7d
 10468 0313 00       		.sleb128 0
 10469 0314 04000000 		.4byte	.LCFI4
 10470 0318 92000000 		.4byte	.LFE9
 10471 031c 0200     		.2byte	0x2
 10472 031e 7D       		.byte	0x7d
 10473 031f 20       		.sleb128 32
 10474 0320 00000000 		.4byte	0
 10475 0324 00000000 		.4byte	0
 10476              	.LLST22:
 10477 0328 00000000 		.4byte	.LVL75
 10478 032c 10000000 		.4byte	.LVL76
 10479 0330 0100     		.2byte	0x1
 10480 0332 50       		.byte	0x50
 10481 0333 10000000 		.4byte	.LVL76
 10482 0337 7E000000 		.4byte	.LVL88
 10483 033b 0100     		.2byte	0x1
 10484 033d 54       		.byte	0x54
 10485 033e 7E000000 		.4byte	.LVL88
 10486 0342 81000000 		.4byte	.LVL89-1
 10487 0346 0100     		.2byte	0x1
 10488 0348 50       		.byte	0x50
 10489 0349 81000000 		.4byte	.LVL89-1
 10490 034d 92000000 		.4byte	.LFE9
 10491 0351 0100     		.2byte	0x1
 10492 0353 54       		.byte	0x54
 10493 0354 00000000 		.4byte	0
 10494 0358 00000000 		.4byte	0
 10495              	.LLST23:
 10496 035c 00000000 		.4byte	.LVL75
 10497 0360 10000000 		.4byte	.LVL76
 10498 0364 0100     		.2byte	0x1
 10499 0366 51       		.byte	0x51
 10500 0367 10000000 		.4byte	.LVL76
 10501 036b 3E000000 		.4byte	.LVL82
 10502 036f 0100     		.2byte	0x1
 10503 0371 56       		.byte	0x56
 10504 0372 3E000000 		.4byte	.LVL82
 10505 0376 4C000000 		.4byte	.LVL83
 10506 037a 0400     		.2byte	0x4
 10507 037c F3       		.byte	0xf3
 10508 037d 01       		.uleb128 0x1
 10509 037e 51       		.byte	0x51
 10510 037f 9F       		.byte	0x9f
 10511 0380 4C000000 		.4byte	.LVL83
 10512 0384 5C000000 		.4byte	.LVL84
 10513 0388 0100     		.2byte	0x1
 10514 038a 56       		.byte	0x56
 10515 038b 5C000000 		.4byte	.LVL84
ARM GAS  C:\Users\jenny\AppData\Local\Temp\ccWqzXsD.s 			page 186


 10516 038f 7E000000 		.4byte	.LVL88
 10517 0393 0400     		.2byte	0x4
 10518 0395 F3       		.byte	0xf3
 10519 0396 01       		.uleb128 0x1
 10520 0397 51       		.byte	0x51
 10521 0398 9F       		.byte	0x9f
 10522 0399 7E000000 		.4byte	.LVL88
 10523 039d 81000000 		.4byte	.LVL89-1
 10524 03a1 0100     		.2byte	0x1
 10525 03a3 51       		.byte	0x51
 10526 03a4 81000000 		.4byte	.LVL89-1
 10527 03a8 86000000 		.4byte	.LVL91
 10528 03ac 0100     		.2byte	0x1
 10529 03ae 56       		.byte	0x56
 10530 03af 86000000 		.4byte	.LVL91
 10531 03b3 88000000 		.4byte	.LVL92
 10532 03b7 0400     		.2byte	0x4
 10533 03b9 F3       		.byte	0xf3
 10534 03ba 01       		.uleb128 0x1
 10535 03bb 51       		.byte	0x51
 10536 03bc 9F       		.byte	0x9f
 10537 03bd 88000000 		.4byte	.LVL92
 10538 03c1 8E000000 		.4byte	.LVL94
 10539 03c5 0100     		.2byte	0x1
 10540 03c7 56       		.byte	0x56
 10541 03c8 8E000000 		.4byte	.LVL94
 10542 03cc 92000000 		.4byte	.LFE9
 10543 03d0 0400     		.2byte	0x4
 10544 03d2 F3       		.byte	0xf3
 10545 03d3 01       		.uleb128 0x1
 10546 03d4 51       		.byte	0x51
 10547 03d5 9F       		.byte	0x9f
 10548 03d6 00000000 		.4byte	0
 10549 03da 00000000 		.4byte	0
 10550              	.LLST24:
 10551 03de 00000000 		.4byte	.LVL75
 10552 03e2 10000000 		.4byte	.LVL76
 10553 03e6 0100     		.2byte	0x1
 10554 03e8 52       		.byte	0x52
 10555 03e9 10000000 		.4byte	.LVL76
 10556 03ed 3E000000 		.4byte	.LVL82
 10557 03f1 0100     		.2byte	0x1
 10558 03f3 55       		.byte	0x55
 10559 03f4 3E000000 		.4byte	.LVL82
 10560 03f8 4C000000 		.4byte	.LVL83
 10561 03fc 0400     		.2byte	0x4
 10562 03fe F3       		.byte	0xf3
 10563 03ff 01       		.uleb128 0x1
 10564 0400 52       		.byte	0x52
 10565 0401 9F       		.byte	0x9f
 10566 0402 4C000000 		.4byte	.LVL83
 10567 0406 66000000 		.4byte	.LVL86
 10568 040a 0100     		.2byte	0x1
 10569 040c 55       		.byte	0x55
 10570 040d 66000000 		.4byte	.LVL86
 10571 0411 7E000000 		.4byte	.LVL88
 10572 0415 0400     		.2byte	0x4
ARM GAS  C:\Users\jenny\AppData\Local\Temp\ccWqzXsD.s 			page 187


 10573 0417 F3       		.byte	0xf3
 10574 0418 01       		.uleb128 0x1
 10575 0419 52       		.byte	0x52
 10576 041a 9F       		.byte	0x9f
 10577 041b 7E000000 		.4byte	.LVL88
 10578 041f 81000000 		.4byte	.LVL89-1
 10579 0423 0100     		.2byte	0x1
 10580 0425 52       		.byte	0x52
 10581 0426 81000000 		.4byte	.LVL89-1
 10582 042a 8E000000 		.4byte	.LVL94
 10583 042e 0100     		.2byte	0x1
 10584 0430 55       		.byte	0x55
 10585 0431 8E000000 		.4byte	.LVL94
 10586 0435 92000000 		.4byte	.LFE9
 10587 0439 0400     		.2byte	0x4
 10588 043b F3       		.byte	0xf3
 10589 043c 01       		.uleb128 0x1
 10590 043d 52       		.byte	0x52
 10591 043e 9F       		.byte	0x9f
 10592 043f 00000000 		.4byte	0
 10593 0443 00000000 		.4byte	0
 10594              	.LLST25:
 10595 0447 00000000 		.4byte	.LVL75
 10596 044b 10000000 		.4byte	.LVL76
 10597 044f 0100     		.2byte	0x1
 10598 0451 53       		.byte	0x53
 10599 0452 10000000 		.4byte	.LVL76
 10600 0456 7E000000 		.4byte	.LVL88
 10601 045a 0400     		.2byte	0x4
 10602 045c F3       		.byte	0xf3
 10603 045d 01       		.uleb128 0x1
 10604 045e 53       		.byte	0x53
 10605 045f 9F       		.byte	0x9f
 10606 0460 7E000000 		.4byte	.LVL88
 10607 0464 81000000 		.4byte	.LVL89-1
 10608 0468 0100     		.2byte	0x1
 10609 046a 53       		.byte	0x53
 10610 046b 81000000 		.4byte	.LVL89-1
 10611 046f 92000000 		.4byte	.LFE9
 10612 0473 0400     		.2byte	0x4
 10613 0475 F3       		.byte	0xf3
 10614 0476 01       		.uleb128 0x1
 10615 0477 53       		.byte	0x53
 10616 0478 9F       		.byte	0x9f
 10617 0479 00000000 		.4byte	0
 10618 047d 00000000 		.4byte	0
 10619              	.LLST26:
 10620 0481 14000000 		.4byte	.LVL77
 10621 0485 7E000000 		.4byte	.LVL88
 10622 0489 0100     		.2byte	0x1
 10623 048b 54       		.byte	0x54
 10624 048c 84000000 		.4byte	.LVL90
 10625 0490 88000000 		.4byte	.LVL92
 10626 0494 0100     		.2byte	0x1
 10627 0496 54       		.byte	0x54
 10628 0497 8E000000 		.4byte	.LVL94
 10629 049b 92000000 		.4byte	.LFE9
ARM GAS  C:\Users\jenny\AppData\Local\Temp\ccWqzXsD.s 			page 188


 10630 049f 0100     		.2byte	0x1
 10631 04a1 54       		.byte	0x54
 10632 04a2 00000000 		.4byte	0
 10633 04a6 00000000 		.4byte	0
 10634              	.LLST27:
 10635 04aa 5C000000 		.4byte	.LVL84
 10636 04ae 7E000000 		.4byte	.LVL88
 10637 04b2 0100     		.2byte	0x1
 10638 04b4 56       		.byte	0x56
 10639 04b5 8E000000 		.4byte	.LVL94
 10640 04b9 92000000 		.4byte	.LFE9
 10641 04bd 0100     		.2byte	0x1
 10642 04bf 56       		.byte	0x56
 10643 04c0 00000000 		.4byte	0
 10644 04c4 00000000 		.4byte	0
 10645              	.LLST28:
 10646 04c8 00000000 		.4byte	.LFB29
 10647 04cc 04000000 		.4byte	.LCFI5
 10648 04d0 0200     		.2byte	0x2
 10649 04d2 7D       		.byte	0x7d
 10650 04d3 00       		.sleb128 0
 10651 04d4 04000000 		.4byte	.LCFI5
 10652 04d8 60010000 		.4byte	.LFE29
 10653 04dc 0200     		.2byte	0x2
 10654 04de 7D       		.byte	0x7d
 10655 04df 20       		.sleb128 32
 10656 04e0 00000000 		.4byte	0
 10657 04e4 00000000 		.4byte	0
 10658              	.LLST29:
 10659 04e8 00000000 		.4byte	.LVL95
 10660 04ec 0C000000 		.4byte	.LVL96
 10661 04f0 0100     		.2byte	0x1
 10662 04f2 50       		.byte	0x50
 10663 04f3 0C000000 		.4byte	.LVL96
 10664 04f7 60010000 		.4byte	.LFE29
 10665 04fb 0100     		.2byte	0x1
 10666 04fd 54       		.byte	0x54
 10667 04fe 00000000 		.4byte	0
 10668 0502 00000000 		.4byte	0
 10669              	.LLST30:
 10670 0506 86000000 		.4byte	.LVL105
 10671 050a AA000000 		.4byte	.LVL108
 10672 050e 0100     		.2byte	0x1
 10673 0510 57       		.byte	0x57
 10674 0511 DC000000 		.4byte	.LVL115
 10675 0515 DE000000 		.4byte	.LVL116
 10676 0519 0100     		.2byte	0x1
 10677 051b 50       		.byte	0x50
 10678 051c DE000000 		.4byte	.LVL116
 10679 0520 E4000000 		.4byte	.LVL117
 10680 0524 0100     		.2byte	0x1
 10681 0526 57       		.byte	0x57
 10682 0527 0A010000 		.4byte	.LVL123
 10683 052b 10010000 		.4byte	.LVL124
 10684 052f 0100     		.2byte	0x1
 10685 0531 57       		.byte	0x57
 10686 0532 2C010000 		.4byte	.LVL126
ARM GAS  C:\Users\jenny\AppData\Local\Temp\ccWqzXsD.s 			page 189


 10687 0536 44010000 		.4byte	.LVL129
 10688 053a 0100     		.2byte	0x1
 10689 053c 57       		.byte	0x57
 10690 053d 54010000 		.4byte	.LVL132
 10691 0541 5A010000 		.4byte	.LVL133
 10692 0545 0100     		.2byte	0x1
 10693 0547 57       		.byte	0x57
 10694 0548 00000000 		.4byte	0
 10695 054c 00000000 		.4byte	0
 10696              	.LLST31:
 10697 0550 44000000 		.4byte	.LVL99
 10698 0554 EC000000 		.4byte	.LVL118
 10699 0558 0100     		.2byte	0x1
 10700 055a 5A       		.byte	0x5a
 10701 055b 02010000 		.4byte	.LVL121
 10702 055f 4E010000 		.4byte	.LVL130
 10703 0563 0100     		.2byte	0x1
 10704 0565 5A       		.byte	0x5a
 10705 0566 54010000 		.4byte	.LVL132
 10706 056a 5A010000 		.4byte	.LVL133
 10707 056e 0100     		.2byte	0x1
 10708 0570 5A       		.byte	0x5a
 10709 0571 00000000 		.4byte	0
 10710 0575 00000000 		.4byte	0
 10711              	.LLST32:
 10712 0579 4C000000 		.4byte	.LVL100
 10713 057d 5A000000 		.4byte	.LVL101
 10714 0581 0300     		.2byte	0x3
 10715 0583 09       		.byte	0x9
 10716 0584 FF       		.byte	0xff
 10717 0585 9F       		.byte	0x9f
 10718 0586 5A000000 		.4byte	.LVL101
 10719 058a 5E000000 		.4byte	.LVL102
 10720 058e 0100     		.2byte	0x1
 10721 0590 55       		.byte	0x55
 10722 0591 5E000000 		.4byte	.LVL102
 10723 0595 6E000000 		.4byte	.LVL103
 10724 0599 0300     		.2byte	0x3
 10725 059b 70       		.byte	0x70
 10726 059c E600     		.sleb128 102
 10727 059e 86000000 		.4byte	.LVL105
 10728 05a2 90000000 		.4byte	.LVL106
 10729 05a6 0100     		.2byte	0x1
 10730 05a8 55       		.byte	0x55
 10731 05a9 C2000000 		.4byte	.LVL110
 10732 05ad C8000000 		.4byte	.LVL112
 10733 05b1 0300     		.2byte	0x3
 10734 05b3 70       		.byte	0x70
 10735 05b4 E600     		.sleb128 102
 10736 05b6 C8000000 		.4byte	.LVL112
 10737 05ba E4000000 		.4byte	.LVL117
 10738 05be 0100     		.2byte	0x1
 10739 05c0 55       		.byte	0x55
 10740 05c1 02010000 		.4byte	.LVL121
 10741 05c5 10010000 		.4byte	.LVL124
 10742 05c9 0100     		.2byte	0x1
 10743 05cb 55       		.byte	0x55
ARM GAS  C:\Users\jenny\AppData\Local\Temp\ccWqzXsD.s 			page 190


 10744 05cc 2C010000 		.4byte	.LVL126
 10745 05d0 38010000 		.4byte	.LVL127
 10746 05d4 0100     		.2byte	0x1
 10747 05d6 55       		.byte	0x55
 10748 05d7 54010000 		.4byte	.LVL132
 10749 05db 5A010000 		.4byte	.LVL133
 10750 05df 0100     		.2byte	0x1
 10751 05e1 55       		.byte	0x55
 10752 05e2 00000000 		.4byte	0
 10753 05e6 00000000 		.4byte	0
 10754              	.LLST33:
 10755 05ea 5A000000 		.4byte	.LVL101
 10756 05ee 6E000000 		.4byte	.LVL103
 10757 05f2 0300     		.2byte	0x3
 10758 05f4 70       		.byte	0x70
 10759 05f5 E600     		.sleb128 102
 10760 05f7 C2000000 		.4byte	.LVL110
 10761 05fb D0000000 		.4byte	.LVL113
 10762 05ff 0300     		.2byte	0x3
 10763 0601 70       		.byte	0x70
 10764 0602 E600     		.sleb128 102
 10765 0604 02010000 		.4byte	.LVL121
 10766 0608 05010000 		.4byte	.LVL122-1
 10767 060c 0300     		.2byte	0x3
 10768 060e 70       		.byte	0x70
 10769 060f E600     		.sleb128 102
 10770 0611 00000000 		.4byte	0
 10771 0615 00000000 		.4byte	0
 10772              	.LLST34:
 10773 0619 00000000 		.4byte	.LVL95
 10774 061d A0000000 		.4byte	.LVL107
 10775 0621 0200     		.2byte	0x2
 10776 0623 30       		.byte	0x30
 10777 0624 9F       		.byte	0x9f
 10778 0625 A0000000 		.4byte	.LVL107
 10779 0629 C2000000 		.4byte	.LVL110
 10780 062d 0200     		.2byte	0x2
 10781 062f 31       		.byte	0x31
 10782 0630 9F       		.byte	0x9f
 10783 0631 C2000000 		.4byte	.LVL110
 10784 0635 E4000000 		.4byte	.LVL117
 10785 0639 0200     		.2byte	0x2
 10786 063b 30       		.byte	0x30
 10787 063c 9F       		.byte	0x9f
 10788 063d E4000000 		.4byte	.LVL117
 10789 0641 EC000000 		.4byte	.LVL118
 10790 0645 0200     		.2byte	0x2
 10791 0647 31       		.byte	0x31
 10792 0648 9F       		.byte	0x9f
 10793 0649 EC000000 		.4byte	.LVL118
 10794 064d 60010000 		.4byte	.LFE29
 10795 0651 0200     		.2byte	0x2
 10796 0653 30       		.byte	0x30
 10797 0654 9F       		.byte	0x9f
 10798 0655 00000000 		.4byte	0
 10799 0659 00000000 		.4byte	0
 10800              	.LLST35:
ARM GAS  C:\Users\jenny\AppData\Local\Temp\ccWqzXsD.s 			page 191


 10801 065d 4C000000 		.4byte	.LVL100
 10802 0661 6E000000 		.4byte	.LVL103
 10803 0665 0100     		.2byte	0x1
 10804 0667 53       		.byte	0x53
 10805 0668 C2000000 		.4byte	.LVL110
 10806 066c D0000000 		.4byte	.LVL113
 10807 0670 0100     		.2byte	0x1
 10808 0672 53       		.byte	0x53
 10809 0673 02010000 		.4byte	.LVL121
 10810 0677 05010000 		.4byte	.LVL122-1
 10811 067b 0100     		.2byte	0x1
 10812 067d 53       		.byte	0x53
 10813 067e 00000000 		.4byte	0
 10814 0682 00000000 		.4byte	0
 10815              	.LLST36:
 10816 0686 1A000000 		.4byte	.LVL97
 10817 068a EC000000 		.4byte	.LVL118
 10818 068e 0100     		.2byte	0x1
 10819 0690 58       		.byte	0x58
 10820 0691 F6000000 		.4byte	.LVL119
 10821 0695 60010000 		.4byte	.LFE29
 10822 0699 0100     		.2byte	0x1
 10823 069b 58       		.byte	0x58
 10824 069c 00000000 		.4byte	0
 10825 06a0 00000000 		.4byte	0
 10826              	.LLST37:
 10827 06a4 1A000000 		.4byte	.LVL97
 10828 06a8 6E000000 		.4byte	.LVL103
 10829 06ac 0100     		.2byte	0x1
 10830 06ae 57       		.byte	0x57
 10831 06af C2000000 		.4byte	.LVL110
 10832 06b3 DC000000 		.4byte	.LVL115
 10833 06b7 0100     		.2byte	0x1
 10834 06b9 57       		.byte	0x57
 10835 06ba F6000000 		.4byte	.LVL119
 10836 06be 0A010000 		.4byte	.LVL123
 10837 06c2 0100     		.2byte	0x1
 10838 06c4 57       		.byte	0x57
 10839 06c5 4E010000 		.4byte	.LVL130
 10840 06c9 54010000 		.4byte	.LVL132
 10841 06cd 0100     		.2byte	0x1
 10842 06cf 57       		.byte	0x57
 10843 06d0 5A010000 		.4byte	.LVL133
 10844 06d4 60010000 		.4byte	.LFE29
 10845 06d8 0100     		.2byte	0x1
 10846 06da 57       		.byte	0x57
 10847 06db 00000000 		.4byte	0
 10848 06df 00000000 		.4byte	0
 10849              	.LLST38:
 10850 06e3 00000000 		.4byte	.LFB10
 10851 06e7 02000000 		.4byte	.LCFI6
 10852 06eb 0200     		.2byte	0x2
 10853 06ed 7D       		.byte	0x7d
 10854 06ee 00       		.sleb128 0
 10855 06ef 02000000 		.4byte	.LCFI6
 10856 06f3 5C000000 		.4byte	.LFE10
 10857 06f7 0200     		.2byte	0x2
ARM GAS  C:\Users\jenny\AppData\Local\Temp\ccWqzXsD.s 			page 192


 10858 06f9 7D       		.byte	0x7d
 10859 06fa 10       		.sleb128 16
 10860 06fb 00000000 		.4byte	0
 10861 06ff 00000000 		.4byte	0
 10862              	.LLST39:
 10863 0703 00000000 		.4byte	.LVL135
 10864 0707 06000000 		.4byte	.LVL136
 10865 070b 0100     		.2byte	0x1
 10866 070d 50       		.byte	0x50
 10867 070e 06000000 		.4byte	.LVL136
 10868 0712 56000000 		.4byte	.LVL140
 10869 0716 0100     		.2byte	0x1
 10870 0718 54       		.byte	0x54
 10871 0719 56000000 		.4byte	.LVL140
 10872 071d 59000000 		.4byte	.LVL141-1
 10873 0721 0100     		.2byte	0x1
 10874 0723 50       		.byte	0x50
 10875 0724 59000000 		.4byte	.LVL141-1
 10876 0728 5C000000 		.4byte	.LFE10
 10877 072c 0100     		.2byte	0x1
 10878 072e 54       		.byte	0x54
 10879 072f 00000000 		.4byte	0
 10880 0733 00000000 		.4byte	0
 10881              	.LLST40:
 10882 0737 00000000 		.4byte	.LVL135
 10883 073b 06000000 		.4byte	.LVL136
 10884 073f 0100     		.2byte	0x1
 10885 0741 51       		.byte	0x51
 10886 0742 06000000 		.4byte	.LVL136
 10887 0746 56000000 		.4byte	.LVL140
 10888 074a 0400     		.2byte	0x4
 10889 074c F3       		.byte	0xf3
 10890 074d 01       		.uleb128 0x1
 10891 074e 51       		.byte	0x51
 10892 074f 9F       		.byte	0x9f
 10893 0750 56000000 		.4byte	.LVL140
 10894 0754 59000000 		.4byte	.LVL141-1
 10895 0758 0100     		.2byte	0x1
 10896 075a 51       		.byte	0x51
 10897 075b 59000000 		.4byte	.LVL141-1
 10898 075f 5C000000 		.4byte	.LFE10
 10899 0763 0400     		.2byte	0x4
 10900 0765 F3       		.byte	0xf3
 10901 0766 01       		.uleb128 0x1
 10902 0767 51       		.byte	0x51
 10903 0768 9F       		.byte	0x9f
 10904 0769 00000000 		.4byte	0
 10905 076d 00000000 		.4byte	0
 10906              	.LLST42:
 10907 0771 00000000 		.4byte	.LFB8
 10908 0775 04000000 		.4byte	.LCFI7
 10909 0779 0200     		.2byte	0x2
 10910 077b 7D       		.byte	0x7d
 10911 077c 00       		.sleb128 0
 10912 077d 04000000 		.4byte	.LCFI7
 10913 0781 06000000 		.4byte	.LCFI8
 10914 0785 0200     		.2byte	0x2
ARM GAS  C:\Users\jenny\AppData\Local\Temp\ccWqzXsD.s 			page 193


 10915 0787 7D       		.byte	0x7d
 10916 0788 1C       		.sleb128 28
 10917 0789 06000000 		.4byte	.LCFI8
 10918 078d 9C000000 		.4byte	.LFE8
 10919 0791 0200     		.2byte	0x2
 10920 0793 7D       		.byte	0x7d
 10921 0794 28       		.sleb128 40
 10922 0795 00000000 		.4byte	0
 10923 0799 00000000 		.4byte	0
 10924              	.LLST43:
 10925 079d 00000000 		.4byte	.LVL142
 10926 07a1 14000000 		.4byte	.LVL143
 10927 07a5 0100     		.2byte	0x1
 10928 07a7 50       		.byte	0x50
 10929 07a8 14000000 		.4byte	.LVL143
 10930 07ac 78000000 		.4byte	.LVL153
 10931 07b0 0100     		.2byte	0x1
 10932 07b2 54       		.byte	0x54
 10933 07b3 78000000 		.4byte	.LVL153
 10934 07b7 7D000000 		.4byte	.LVL154-1
 10935 07bb 0100     		.2byte	0x1
 10936 07bd 50       		.byte	0x50
 10937 07be 7D000000 		.4byte	.LVL154-1
 10938 07c2 9C000000 		.4byte	.LFE8
 10939 07c6 0100     		.2byte	0x1
 10940 07c8 54       		.byte	0x54
 10941 07c9 00000000 		.4byte	0
 10942 07cd 00000000 		.4byte	0
 10943              	.LLST44:
 10944 07d1 00000000 		.4byte	.LVL142
 10945 07d5 14000000 		.4byte	.LVL143
 10946 07d9 0100     		.2byte	0x1
 10947 07db 51       		.byte	0x51
 10948 07dc 14000000 		.4byte	.LVL143
 10949 07e0 78000000 		.4byte	.LVL153
 10950 07e4 0400     		.2byte	0x4
 10951 07e6 F3       		.byte	0xf3
 10952 07e7 01       		.uleb128 0x1
 10953 07e8 51       		.byte	0x51
 10954 07e9 9F       		.byte	0x9f
 10955 07ea 78000000 		.4byte	.LVL153
 10956 07ee 7D000000 		.4byte	.LVL154-1
 10957 07f2 0100     		.2byte	0x1
 10958 07f4 51       		.byte	0x51
 10959 07f5 7D000000 		.4byte	.LVL154-1
 10960 07f9 9C000000 		.4byte	.LFE8
 10961 07fd 0400     		.2byte	0x4
 10962 07ff F3       		.byte	0xf3
 10963 0800 01       		.uleb128 0x1
 10964 0801 51       		.byte	0x51
 10965 0802 9F       		.byte	0x9f
 10966 0803 00000000 		.4byte	0
 10967 0807 00000000 		.4byte	0
 10968              	.LLST45:
 10969 080b 00000000 		.4byte	.LVL142
 10970 080f 14000000 		.4byte	.LVL143
 10971 0813 0100     		.2byte	0x1
ARM GAS  C:\Users\jenny\AppData\Local\Temp\ccWqzXsD.s 			page 194


 10972 0815 52       		.byte	0x52
 10973 0816 14000000 		.4byte	.LVL143
 10974 081a 60000000 		.4byte	.LVL150
 10975 081e 0100     		.2byte	0x1
 10976 0820 55       		.byte	0x55
 10977 0821 60000000 		.4byte	.LVL150
 10978 0825 63000000 		.4byte	.LVL151-1
 10979 0829 0200     		.2byte	0x2
 10980 082b 76       		.byte	0x76
 10981 082c 00       		.sleb128 0
 10982 082d 63000000 		.4byte	.LVL151-1
 10983 0831 78000000 		.4byte	.LVL153
 10984 0835 0400     		.2byte	0x4
 10985 0837 F3       		.byte	0xf3
 10986 0838 01       		.uleb128 0x1
 10987 0839 52       		.byte	0x52
 10988 083a 9F       		.byte	0x9f
 10989 083b 78000000 		.4byte	.LVL153
 10990 083f 7D000000 		.4byte	.LVL154-1
 10991 0843 0100     		.2byte	0x1
 10992 0845 52       		.byte	0x52
 10993 0846 7D000000 		.4byte	.LVL154-1
 10994 084a 82000000 		.4byte	.LVL155
 10995 084e 0100     		.2byte	0x1
 10996 0850 55       		.byte	0x55
 10997 0851 82000000 		.4byte	.LVL155
 10998 0855 8E000000 		.4byte	.LVL156
 10999 0859 0400     		.2byte	0x4
 11000 085b F3       		.byte	0xf3
 11001 085c 01       		.uleb128 0x1
 11002 085d 52       		.byte	0x52
 11003 085e 9F       		.byte	0x9f
 11004 085f 8E000000 		.4byte	.LVL156
 11005 0863 9C000000 		.4byte	.LFE8
 11006 0867 0100     		.2byte	0x1
 11007 0869 55       		.byte	0x55
 11008 086a 00000000 		.4byte	0
 11009 086e 00000000 		.4byte	0
 11010              	.LLST46:
 11011 0872 00000000 		.4byte	.LVL142
 11012 0876 14000000 		.4byte	.LVL143
 11013 087a 0100     		.2byte	0x1
 11014 087c 53       		.byte	0x53
 11015 087d 14000000 		.4byte	.LVL143
 11016 0881 78000000 		.4byte	.LVL153
 11017 0885 0100     		.2byte	0x1
 11018 0887 58       		.byte	0x58
 11019 0888 78000000 		.4byte	.LVL153
 11020 088c 7D000000 		.4byte	.LVL154-1
 11021 0890 0100     		.2byte	0x1
 11022 0892 53       		.byte	0x53
 11023 0893 7D000000 		.4byte	.LVL154-1
 11024 0897 9C000000 		.4byte	.LFE8
 11025 089b 0100     		.2byte	0x1
 11026 089d 58       		.byte	0x58
 11027 089e 00000000 		.4byte	0
 11028 08a2 00000000 		.4byte	0
ARM GAS  C:\Users\jenny\AppData\Local\Temp\ccWqzXsD.s 			page 195


 11029              	.LLST47:
 11030 08a6 40000000 		.4byte	.LVL148
 11031 08aa 5E000000 		.4byte	.LVL149
 11032 08ae 0100     		.2byte	0x1
 11033 08b0 50       		.byte	0x50
 11034 08b1 5E000000 		.4byte	.LVL149
 11035 08b5 78000000 		.4byte	.LVL153
 11036 08b9 0100     		.2byte	0x1
 11037 08bb 56       		.byte	0x56
 11038 08bc 82000000 		.4byte	.LVL155
 11039 08c0 8E000000 		.4byte	.LVL156
 11040 08c4 0100     		.2byte	0x1
 11041 08c6 56       		.byte	0x56
 11042 08c7 98000000 		.4byte	.LVL158
 11043 08cb 9C000000 		.4byte	.LFE8
 11044 08cf 0100     		.2byte	0x1
 11045 08d1 50       		.byte	0x50
 11046 08d2 00000000 		.4byte	0
 11047 08d6 00000000 		.4byte	0
 11048              	.LLST48:
 11049 08da 18000000 		.4byte	.LVL144
 11050 08de 78000000 		.4byte	.LVL153
 11051 08e2 0100     		.2byte	0x1
 11052 08e4 54       		.byte	0x54
 11053 08e5 82000000 		.4byte	.LVL155
 11054 08e9 8E000000 		.4byte	.LVL156
 11055 08ed 0100     		.2byte	0x1
 11056 08ef 54       		.byte	0x54
 11057 08f0 98000000 		.4byte	.LVL158
 11058 08f4 9C000000 		.4byte	.LFE8
 11059 08f8 0100     		.2byte	0x1
 11060 08fa 54       		.byte	0x54
 11061 08fb 00000000 		.4byte	0
 11062 08ff 00000000 		.4byte	0
 11063              	.LLST49:
 11064 0903 60000000 		.4byte	.LVL150
 11065 0907 63000000 		.4byte	.LVL151-1
 11066 090b 0500     		.2byte	0x5
 11067 090d 76       		.byte	0x76
 11068 090e 00       		.sleb128 0
 11069 090f 06       		.byte	0x6
 11070 0910 23       		.byte	0x23
 11071 0911 08       		.uleb128 0x8
 11072 0912 63000000 		.4byte	.LVL151-1
 11073 0916 78000000 		.4byte	.LVL153
 11074 091a 0100     		.2byte	0x1
 11075 091c 55       		.byte	0x55
 11076 091d 82000000 		.4byte	.LVL155
 11077 0921 8E000000 		.4byte	.LVL156
 11078 0925 0100     		.2byte	0x1
 11079 0927 55       		.byte	0x55
 11080 0928 00000000 		.4byte	0
 11081 092c 00000000 		.4byte	0
 11082              	.LLST50:
 11083 0930 00000000 		.4byte	.LFB7
 11084 0934 04000000 		.4byte	.LCFI9
 11085 0938 0200     		.2byte	0x2
ARM GAS  C:\Users\jenny\AppData\Local\Temp\ccWqzXsD.s 			page 196


 11086 093a 7D       		.byte	0x7d
 11087 093b 00       		.sleb128 0
 11088 093c 04000000 		.4byte	.LCFI9
 11089 0940 88000000 		.4byte	.LFE7
 11090 0944 0200     		.2byte	0x2
 11091 0946 7D       		.byte	0x7d
 11092 0947 18       		.sleb128 24
 11093 0948 00000000 		.4byte	0
 11094 094c 00000000 		.4byte	0
 11095              	.LLST51:
 11096 0950 00000000 		.4byte	.LVL159
 11097 0954 12000000 		.4byte	.LVL160
 11098 0958 0100     		.2byte	0x1
 11099 095a 50       		.byte	0x50
 11100 095b 12000000 		.4byte	.LVL160
 11101 095f 88000000 		.4byte	.LFE7
 11102 0963 0100     		.2byte	0x1
 11103 0965 54       		.byte	0x54
 11104 0966 00000000 		.4byte	0
 11105 096a 00000000 		.4byte	0
 11106              	.LLST52:
 11107 096e 00000000 		.4byte	.LVL159
 11108 0972 15000000 		.4byte	.LVL161-1
 11109 0976 0100     		.2byte	0x1
 11110 0978 51       		.byte	0x51
 11111 0979 15000000 		.4byte	.LVL161-1
 11112 097d 18000000 		.4byte	.LVL162
 11113 0981 0100     		.2byte	0x1
 11114 0983 57       		.byte	0x57
 11115 0984 18000000 		.4byte	.LVL162
 11116 0988 1E000000 		.4byte	.LVL163
 11117 098c 0400     		.2byte	0x4
 11118 098e F3       		.byte	0xf3
 11119 098f 01       		.uleb128 0x1
 11120 0990 51       		.byte	0x51
 11121 0991 9F       		.byte	0x9f
 11122 0992 1E000000 		.4byte	.LVL163
 11123 0996 54000000 		.4byte	.LVL169
 11124 099a 0100     		.2byte	0x1
 11125 099c 57       		.byte	0x57
 11126 099d 54000000 		.4byte	.LVL169
 11127 09a1 74000000 		.4byte	.LVL172
 11128 09a5 0400     		.2byte	0x4
 11129 09a7 F3       		.byte	0xf3
 11130 09a8 01       		.uleb128 0x1
 11131 09a9 51       		.byte	0x51
 11132 09aa 9F       		.byte	0x9f
 11133 09ab 74000000 		.4byte	.LVL172
 11134 09af 7C000000 		.4byte	.LVL174
 11135 09b3 0100     		.2byte	0x1
 11136 09b5 57       		.byte	0x57
 11137 09b6 7C000000 		.4byte	.LVL174
 11138 09ba 88000000 		.4byte	.LFE7
 11139 09be 0400     		.2byte	0x4
 11140 09c0 F3       		.byte	0xf3
 11141 09c1 01       		.uleb128 0x1
 11142 09c2 51       		.byte	0x51
ARM GAS  C:\Users\jenny\AppData\Local\Temp\ccWqzXsD.s 			page 197


 11143 09c3 9F       		.byte	0x9f
 11144 09c4 00000000 		.4byte	0
 11145 09c8 00000000 		.4byte	0
 11146              	.LLST53:
 11147 09cc 00000000 		.4byte	.LVL159
 11148 09d0 15000000 		.4byte	.LVL161-1
 11149 09d4 0100     		.2byte	0x1
 11150 09d6 52       		.byte	0x52
 11151 09d7 15000000 		.4byte	.LVL161-1
 11152 09db 18000000 		.4byte	.LVL162
 11153 09df 0100     		.2byte	0x1
 11154 09e1 56       		.byte	0x56
 11155 09e2 18000000 		.4byte	.LVL162
 11156 09e6 1E000000 		.4byte	.LVL163
 11157 09ea 0400     		.2byte	0x4
 11158 09ec F3       		.byte	0xf3
 11159 09ed 01       		.uleb128 0x1
 11160 09ee 52       		.byte	0x52
 11161 09ef 9F       		.byte	0x9f
 11162 09f0 1E000000 		.4byte	.LVL163
 11163 09f4 3E000000 		.4byte	.LVL167
 11164 09f8 0100     		.2byte	0x1
 11165 09fa 56       		.byte	0x56
 11166 09fb 3E000000 		.4byte	.LVL167
 11167 09ff 88000000 		.4byte	.LFE7
 11168 0a03 0400     		.2byte	0x4
 11169 0a05 F3       		.byte	0xf3
 11170 0a06 01       		.uleb128 0x1
 11171 0a07 52       		.byte	0x52
 11172 0a08 9F       		.byte	0x9f
 11173 0a09 00000000 		.4byte	0
 11174 0a0d 00000000 		.4byte	0
 11175              	.LLST54:
 11176 0a11 00000000 		.4byte	.LVL159
 11177 0a15 15000000 		.4byte	.LVL161-1
 11178 0a19 0100     		.2byte	0x1
 11179 0a1b 53       		.byte	0x53
 11180 0a1c 15000000 		.4byte	.LVL161-1
 11181 0a20 88000000 		.4byte	.LFE7
 11182 0a24 0400     		.2byte	0x4
 11183 0a26 F3       		.byte	0xf3
 11184 0a27 01       		.uleb128 0x1
 11185 0a28 53       		.byte	0x53
 11186 0a29 9F       		.byte	0x9f
 11187 0a2a 00000000 		.4byte	0
 11188 0a2e 00000000 		.4byte	0
 11189              	.LLST55:
 11190 0a32 28000000 		.4byte	.LVL164
 11191 0a36 33000000 		.4byte	.LVL165-1
 11192 0a3a 0100     		.2byte	0x1
 11193 0a3c 50       		.byte	0x50
 11194 0a3d 33000000 		.4byte	.LVL165-1
 11195 0a41 88000000 		.4byte	.LFE7
 11196 0a45 0100     		.2byte	0x1
 11197 0a47 58       		.byte	0x58
 11198 0a48 00000000 		.4byte	0
 11199 0a4c 00000000 		.4byte	0
ARM GAS  C:\Users\jenny\AppData\Local\Temp\ccWqzXsD.s 			page 198


 11200              	.LLST56:
 11201 0a50 3C000000 		.4byte	.LVL166
 11202 0a54 48000000 		.4byte	.LVL168
 11203 0a58 0100     		.2byte	0x1
 11204 0a5a 50       		.byte	0x50
 11205 0a5b 48000000 		.4byte	.LVL168
 11206 0a5f 74000000 		.4byte	.LVL172
 11207 0a63 0100     		.2byte	0x1
 11208 0a65 56       		.byte	0x56
 11209 0a66 7C000000 		.4byte	.LVL174
 11210 0a6a 88000000 		.4byte	.LFE7
 11211 0a6e 0100     		.2byte	0x1
 11212 0a70 56       		.byte	0x56
 11213 0a71 00000000 		.4byte	0
 11214 0a75 00000000 		.4byte	0
 11215              	.LLST58:
 11216 0a79 54000000 		.4byte	.LVL169
 11217 0a7d 5D000000 		.4byte	.LVL170-1
 11218 0a81 0200     		.2byte	0x2
 11219 0a83 78       		.byte	0x78
 11220 0a84 08       		.sleb128 8
 11221 0a85 5D000000 		.4byte	.LVL170-1
 11222 0a89 74000000 		.4byte	.LVL172
 11223 0a8d 0100     		.2byte	0x1
 11224 0a8f 57       		.byte	0x57
 11225 0a90 7C000000 		.4byte	.LVL174
 11226 0a94 88000000 		.4byte	.LFE7
 11227 0a98 0100     		.2byte	0x1
 11228 0a9a 57       		.byte	0x57
 11229 0a9b 00000000 		.4byte	0
 11230 0a9f 00000000 		.4byte	0
 11231              	.LLST59:
 11232 0aa3 00000000 		.4byte	.LFB11
 11233 0aa7 02000000 		.4byte	.LCFI10
 11234 0aab 0200     		.2byte	0x2
 11235 0aad 7D       		.byte	0x7d
 11236 0aae 00       		.sleb128 0
 11237 0aaf 02000000 		.4byte	.LCFI10
 11238 0ab3 56000000 		.4byte	.LFE11
 11239 0ab7 0200     		.2byte	0x2
 11240 0ab9 7D       		.byte	0x7d
 11241 0aba 10       		.sleb128 16
 11242 0abb 00000000 		.4byte	0
 11243 0abf 00000000 		.4byte	0
 11244              	.LLST60:
 11245 0ac3 00000000 		.4byte	.LVL176
 11246 0ac7 08000000 		.4byte	.LVL177
 11247 0acb 0100     		.2byte	0x1
 11248 0acd 50       		.byte	0x50
 11249 0ace 08000000 		.4byte	.LVL177
 11250 0ad2 50000000 		.4byte	.LVL182
 11251 0ad6 0100     		.2byte	0x1
 11252 0ad8 54       		.byte	0x54
 11253 0ad9 50000000 		.4byte	.LVL182
 11254 0add 53000000 		.4byte	.LVL183-1
 11255 0ae1 0100     		.2byte	0x1
 11256 0ae3 50       		.byte	0x50
ARM GAS  C:\Users\jenny\AppData\Local\Temp\ccWqzXsD.s 			page 199


 11257 0ae4 53000000 		.4byte	.LVL183-1
 11258 0ae8 56000000 		.4byte	.LFE11
 11259 0aec 0100     		.2byte	0x1
 11260 0aee 54       		.byte	0x54
 11261 0aef 00000000 		.4byte	0
 11262 0af3 00000000 		.4byte	0
 11263              	.LLST61:
 11264 0af7 00000000 		.4byte	.LVL176
 11265 0afb 08000000 		.4byte	.LVL177
 11266 0aff 0100     		.2byte	0x1
 11267 0b01 51       		.byte	0x51
 11268 0b02 08000000 		.4byte	.LVL177
 11269 0b06 50000000 		.4byte	.LVL182
 11270 0b0a 0400     		.2byte	0x4
 11271 0b0c F3       		.byte	0xf3
 11272 0b0d 01       		.uleb128 0x1
 11273 0b0e 51       		.byte	0x51
 11274 0b0f 9F       		.byte	0x9f
 11275 0b10 50000000 		.4byte	.LVL182
 11276 0b14 53000000 		.4byte	.LVL183-1
 11277 0b18 0100     		.2byte	0x1
 11278 0b1a 51       		.byte	0x51
 11279 0b1b 53000000 		.4byte	.LVL183-1
 11280 0b1f 56000000 		.4byte	.LFE11
 11281 0b23 0400     		.2byte	0x4
 11282 0b25 F3       		.byte	0xf3
 11283 0b26 01       		.uleb128 0x1
 11284 0b27 51       		.byte	0x51
 11285 0b28 9F       		.byte	0x9f
 11286 0b29 00000000 		.4byte	0
 11287 0b2d 00000000 		.4byte	0
 11288              	.LLST62:
 11289 0b31 00000000 		.4byte	.LVL176
 11290 0b35 08000000 		.4byte	.LVL177
 11291 0b39 0100     		.2byte	0x1
 11292 0b3b 52       		.byte	0x52
 11293 0b3c 08000000 		.4byte	.LVL177
 11294 0b40 50000000 		.4byte	.LVL182
 11295 0b44 0400     		.2byte	0x4
 11296 0b46 F3       		.byte	0xf3
 11297 0b47 01       		.uleb128 0x1
 11298 0b48 52       		.byte	0x52
 11299 0b49 9F       		.byte	0x9f
 11300 0b4a 50000000 		.4byte	.LVL182
 11301 0b4e 53000000 		.4byte	.LVL183-1
 11302 0b52 0100     		.2byte	0x1
 11303 0b54 52       		.byte	0x52
 11304 0b55 53000000 		.4byte	.LVL183-1
 11305 0b59 56000000 		.4byte	.LFE11
 11306 0b5d 0400     		.2byte	0x4
 11307 0b5f F3       		.byte	0xf3
 11308 0b60 01       		.uleb128 0x1
 11309 0b61 52       		.byte	0x52
 11310 0b62 9F       		.byte	0x9f
 11311 0b63 00000000 		.4byte	0
 11312 0b67 00000000 		.4byte	0
 11313              	.LLST64:
ARM GAS  C:\Users\jenny\AppData\Local\Temp\ccWqzXsD.s 			page 200


 11314 0b6b 28000000 		.4byte	.LVL178
 11315 0b6f 3C000000 		.4byte	.LVL179
 11316 0b73 0100     		.2byte	0x1
 11317 0b75 55       		.byte	0x55
 11318 0b76 00000000 		.4byte	0
 11319 0b7a 00000000 		.4byte	0
 11320              	.LLST65:
 11321 0b7e 28000000 		.4byte	.LVL178
 11322 0b82 3C000000 		.4byte	.LVL179
 11323 0b86 0100     		.2byte	0x1
 11324 0b88 54       		.byte	0x54
 11325 0b89 00000000 		.4byte	0
 11326 0b8d 00000000 		.4byte	0
 11327              	.LLST66:
 11328 0b91 00000000 		.4byte	.LFB16
 11329 0b95 02000000 		.4byte	.LCFI11
 11330 0b99 0200     		.2byte	0x2
 11331 0b9b 7D       		.byte	0x7d
 11332 0b9c 00       		.sleb128 0
 11333 0b9d 02000000 		.4byte	.LCFI11
 11334 0ba1 98000000 		.4byte	.LFE16
 11335 0ba5 0200     		.2byte	0x2
 11336 0ba7 7D       		.byte	0x7d
 11337 0ba8 10       		.sleb128 16
 11338 0ba9 00000000 		.4byte	0
 11339 0bad 00000000 		.4byte	0
 11340              	.LLST67:
 11341 0bb1 00000000 		.4byte	.LVL184
 11342 0bb5 0C000000 		.4byte	.LVL185
 11343 0bb9 0100     		.2byte	0x1
 11344 0bbb 50       		.byte	0x50
 11345 0bbc 0C000000 		.4byte	.LVL185
 11346 0bc0 98000000 		.4byte	.LFE16
 11347 0bc4 0100     		.2byte	0x1
 11348 0bc6 55       		.byte	0x55
 11349 0bc7 00000000 		.4byte	0
 11350 0bcb 00000000 		.4byte	0
 11351              	.LLST68:
 11352 0bcf 00000000 		.4byte	.LFB17
 11353 0bd3 02000000 		.4byte	.LCFI12
 11354 0bd7 0200     		.2byte	0x2
 11355 0bd9 7D       		.byte	0x7d
 11356 0bda 00       		.sleb128 0
 11357 0bdb 02000000 		.4byte	.LCFI12
 11358 0bdf 82000000 		.4byte	.LFE17
 11359 0be3 0200     		.2byte	0x2
 11360 0be5 7D       		.byte	0x7d
 11361 0be6 18       		.sleb128 24
 11362 0be7 00000000 		.4byte	0
 11363 0beb 00000000 		.4byte	0
 11364              	.LLST69:
 11365 0bef 00000000 		.4byte	.LVL193
 11366 0bf3 06000000 		.4byte	.LVL194
 11367 0bf7 0100     		.2byte	0x1
 11368 0bf9 50       		.byte	0x50
 11369 0bfa 06000000 		.4byte	.LVL194
 11370 0bfe 82000000 		.4byte	.LFE17
ARM GAS  C:\Users\jenny\AppData\Local\Temp\ccWqzXsD.s 			page 201


 11371 0c02 0400     		.2byte	0x4
 11372 0c04 F3       		.byte	0xf3
 11373 0c05 01       		.uleb128 0x1
 11374 0c06 50       		.byte	0x50
 11375 0c07 9F       		.byte	0x9f
 11376 0c08 00000000 		.4byte	0
 11377 0c0c 00000000 		.4byte	0
 11378              	.LLST70:
 11379 0c10 00000000 		.4byte	.LVL193
 11380 0c14 0B000000 		.4byte	.LVL195-1
 11381 0c18 0100     		.2byte	0x1
 11382 0c1a 51       		.byte	0x51
 11383 0c1b 0B000000 		.4byte	.LVL195-1
 11384 0c1f 82000000 		.4byte	.LFE17
 11385 0c23 0100     		.2byte	0x1
 11386 0c25 56       		.byte	0x56
 11387 0c26 00000000 		.4byte	0
 11388 0c2a 00000000 		.4byte	0
 11389              	.LLST71:
 11390 0c2e 0C000000 		.4byte	.LVL195
 11391 0c32 2B000000 		.4byte	.LVL196-1
 11392 0c36 0100     		.2byte	0x1
 11393 0c38 50       		.byte	0x50
 11394 0c39 2B000000 		.4byte	.LVL196-1
 11395 0c3d 36000000 		.4byte	.LVL198
 11396 0c41 0100     		.2byte	0x1
 11397 0c43 54       		.byte	0x54
 11398 0c44 3A000000 		.4byte	.LVL199
 11399 0c48 42000000 		.4byte	.LVL201
 11400 0c4c 0100     		.2byte	0x1
 11401 0c4e 50       		.byte	0x50
 11402 0c4f 42000000 		.4byte	.LVL201
 11403 0c53 76000000 		.4byte	.LVL206
 11404 0c57 0100     		.2byte	0x1
 11405 0c59 54       		.byte	0x54
 11406 0c5a 76000000 		.4byte	.LVL206
 11407 0c5e 7A000000 		.4byte	.LVL207
 11408 0c62 0100     		.2byte	0x1
 11409 0c64 50       		.byte	0x50
 11410 0c65 7A000000 		.4byte	.LVL207
 11411 0c69 82000000 		.4byte	.LFE17
 11412 0c6d 0100     		.2byte	0x1
 11413 0c6f 54       		.byte	0x54
 11414 0c70 00000000 		.4byte	0
 11415 0c74 00000000 		.4byte	0
 11416              	.LLST72:
 11417 0c78 3C000000 		.4byte	.LVL200
 11418 0c7c 58000000 		.4byte	.LVL204
 11419 0c80 0100     		.2byte	0x1
 11420 0c82 55       		.byte	0x55
 11421 0c83 00000000 		.4byte	0
 11422 0c87 00000000 		.4byte	0
 11423              	.LLST73:
 11424 0c8b 00000000 		.4byte	.LFB18
 11425 0c8f 02000000 		.4byte	.LCFI13
 11426 0c93 0200     		.2byte	0x2
 11427 0c95 7D       		.byte	0x7d
ARM GAS  C:\Users\jenny\AppData\Local\Temp\ccWqzXsD.s 			page 202


 11428 0c96 00       		.sleb128 0
 11429 0c97 02000000 		.4byte	.LCFI13
 11430 0c9b 46000000 		.4byte	.LFE18
 11431 0c9f 0200     		.2byte	0x2
 11432 0ca1 7D       		.byte	0x7d
 11433 0ca2 10       		.sleb128 16
 11434 0ca3 00000000 		.4byte	0
 11435 0ca7 00000000 		.4byte	0
 11436              	.LLST74:
 11437 0cab 00000000 		.4byte	.LVL209
 11438 0caf 0B000000 		.4byte	.LVL210-1
 11439 0cb3 0100     		.2byte	0x1
 11440 0cb5 50       		.byte	0x50
 11441 0cb6 0B000000 		.4byte	.LVL210-1
 11442 0cba 46000000 		.4byte	.LFE18
 11443 0cbe 0100     		.2byte	0x1
 11444 0cc0 54       		.byte	0x54
 11445 0cc1 00000000 		.4byte	0
 11446 0cc5 00000000 		.4byte	0
 11447              	.LLST75:
 11448 0cc9 00000000 		.4byte	.LFB19
 11449 0ccd 02000000 		.4byte	.LCFI14
 11450 0cd1 0200     		.2byte	0x2
 11451 0cd3 7D       		.byte	0x7d
 11452 0cd4 00       		.sleb128 0
 11453 0cd5 02000000 		.4byte	.LCFI14
 11454 0cd9 08000000 		.4byte	.LCFI15
 11455 0cdd 0200     		.2byte	0x2
 11456 0cdf 7D       		.byte	0x7d
 11457 0ce0 14       		.sleb128 20
 11458 0ce1 08000000 		.4byte	.LCFI15
 11459 0ce5 A8000000 		.4byte	.LFE19
 11460 0ce9 0200     		.2byte	0x2
 11461 0ceb 7D       		.byte	0x7d
 11462 0cec 20       		.sleb128 32
 11463 0ced 00000000 		.4byte	0
 11464 0cf1 00000000 		.4byte	0
 11465              	.LLST76:
 11466 0cf5 00000000 		.4byte	.LVL218
 11467 0cf9 0C000000 		.4byte	.LVL219
 11468 0cfd 0100     		.2byte	0x1
 11469 0cff 50       		.byte	0x50
 11470 0d00 0C000000 		.4byte	.LVL219
 11471 0d04 A8000000 		.4byte	.LFE19
 11472 0d08 0100     		.2byte	0x1
 11473 0d0a 55       		.byte	0x55
 11474 0d0b 00000000 		.4byte	0
 11475 0d0f 00000000 		.4byte	0
 11476              	.LLST77:
 11477 0d13 82000000 		.4byte	.LVL233
 11478 0d17 9A000000 		.4byte	.LVL236
 11479 0d1b 0100     		.2byte	0x1
 11480 0d1d 56       		.byte	0x56
 11481 0d1e 00000000 		.4byte	0
 11482 0d22 00000000 		.4byte	0
 11483              	.LLST78:
 11484 0d26 28000000 		.4byte	.LVL223
ARM GAS  C:\Users\jenny\AppData\Local\Temp\ccWqzXsD.s 			page 203


 11485 0d2a 4C000000 		.4byte	.LVL227
 11486 0d2e 0100     		.2byte	0x1
 11487 0d30 54       		.byte	0x54
 11488 0d31 00000000 		.4byte	0
 11489 0d35 00000000 		.4byte	0
 11490              	.LLST79:
 11491 0d39 00000000 		.4byte	.LFB14
 11492 0d3d 04000000 		.4byte	.LCFI16
 11493 0d41 0200     		.2byte	0x2
 11494 0d43 7D       		.byte	0x7d
 11495 0d44 00       		.sleb128 0
 11496 0d45 04000000 		.4byte	.LCFI16
 11497 0d49 A6000000 		.4byte	.LFE14
 11498 0d4d 0200     		.2byte	0x2
 11499 0d4f 7D       		.byte	0x7d
 11500 0d50 18       		.sleb128 24
 11501 0d51 00000000 		.4byte	0
 11502 0d55 00000000 		.4byte	0
 11503              	.LLST80:
 11504 0d59 00000000 		.4byte	.LVL239
 11505 0d5d 0C000000 		.4byte	.LVL241
 11506 0d61 0100     		.2byte	0x1
 11507 0d63 50       		.byte	0x50
 11508 0d64 0C000000 		.4byte	.LVL241
 11509 0d68 46000000 		.4byte	.LVL247
 11510 0d6c 0100     		.2byte	0x1
 11511 0d6e 54       		.byte	0x54
 11512 0d6f 46000000 		.4byte	.LVL247
 11513 0d73 4C000000 		.4byte	.LVL248
 11514 0d77 0400     		.2byte	0x4
 11515 0d79 F3       		.byte	0xf3
 11516 0d7a 01       		.uleb128 0x1
 11517 0d7b 50       		.byte	0x50
 11518 0d7c 9F       		.byte	0x9f
 11519 0d7d 4C000000 		.4byte	.LVL248
 11520 0d81 5E000000 		.4byte	.LVL252
 11521 0d85 0100     		.2byte	0x1
 11522 0d87 54       		.byte	0x54
 11523 0d88 5E000000 		.4byte	.LVL252
 11524 0d8c A6000000 		.4byte	.LFE14
 11525 0d90 0400     		.2byte	0x4
 11526 0d92 F3       		.byte	0xf3
 11527 0d93 01       		.uleb128 0x1
 11528 0d94 50       		.byte	0x50
 11529 0d95 9F       		.byte	0x9f
 11530 0d96 00000000 		.4byte	0
 11531 0d9a 00000000 		.4byte	0
 11532              	.LLST81:
 11533 0d9e 00000000 		.4byte	.LVL239
 11534 0da2 13000000 		.4byte	.LVL242-1
 11535 0da6 0100     		.2byte	0x1
 11536 0da8 51       		.byte	0x51
 11537 0da9 13000000 		.4byte	.LVL242-1
 11538 0dad A6000000 		.4byte	.LFE14
 11539 0db1 0100     		.2byte	0x1
 11540 0db3 58       		.byte	0x58
 11541 0db4 00000000 		.4byte	0
ARM GAS  C:\Users\jenny\AppData\Local\Temp\ccWqzXsD.s 			page 204


 11542 0db8 00000000 		.4byte	0
 11543              	.LLST82:
 11544 0dbc 00000000 		.4byte	.LVL239
 11545 0dc0 13000000 		.4byte	.LVL242-1
 11546 0dc4 0100     		.2byte	0x1
 11547 0dc6 52       		.byte	0x52
 11548 0dc7 13000000 		.4byte	.LVL242-1
 11549 0dcb A6000000 		.4byte	.LFE14
 11550 0dcf 0400     		.2byte	0x4
 11551 0dd1 F3       		.byte	0xf3
 11552 0dd2 01       		.uleb128 0x1
 11553 0dd3 52       		.byte	0x52
 11554 0dd4 9F       		.byte	0x9f
 11555 0dd5 00000000 		.4byte	0
 11556 0dd9 00000000 		.4byte	0
 11557              	.LLST83:
 11558 0ddd 1E000000 		.4byte	.LVL243
 11559 0de1 29000000 		.4byte	.LVL244-1
 11560 0de5 0100     		.2byte	0x1
 11561 0de7 50       		.byte	0x50
 11562 0de8 29000000 		.4byte	.LVL244-1
 11563 0dec 46000000 		.4byte	.LVL247
 11564 0df0 0100     		.2byte	0x1
 11565 0df2 56       		.byte	0x56
 11566 0df3 4C000000 		.4byte	.LVL248
 11567 0df7 54000000 		.4byte	.LVL249
 11568 0dfb 0100     		.2byte	0x1
 11569 0dfd 56       		.byte	0x56
 11570 0dfe 58000000 		.4byte	.LVL250
 11571 0e02 5A000000 		.4byte	.LVL251
 11572 0e06 0100     		.2byte	0x1
 11573 0e08 50       		.byte	0x50
 11574 0e09 5A000000 		.4byte	.LVL251
 11575 0e0d A6000000 		.4byte	.LFE14
 11576 0e11 0100     		.2byte	0x1
 11577 0e13 56       		.byte	0x56
 11578 0e14 00000000 		.4byte	0
 11579 0e18 00000000 		.4byte	0
 11580              	.LLST84:
 11581 0e1c 0A000000 		.4byte	.LVL240
 11582 0e20 0C000000 		.4byte	.LVL241
 11583 0e24 0100     		.2byte	0x1
 11584 0e26 50       		.byte	0x50
 11585 0e27 0C000000 		.4byte	.LVL241
 11586 0e2b 46000000 		.4byte	.LVL247
 11587 0e2f 0100     		.2byte	0x1
 11588 0e31 54       		.byte	0x54
 11589 0e32 46000000 		.4byte	.LVL247
 11590 0e36 4C000000 		.4byte	.LVL248
 11591 0e3a 0400     		.2byte	0x4
 11592 0e3c F3       		.byte	0xf3
 11593 0e3d 01       		.uleb128 0x1
 11594 0e3e 50       		.byte	0x50
 11595 0e3f 9F       		.byte	0x9f
 11596 0e40 4C000000 		.4byte	.LVL248
 11597 0e44 5E000000 		.4byte	.LVL252
 11598 0e48 0100     		.2byte	0x1
ARM GAS  C:\Users\jenny\AppData\Local\Temp\ccWqzXsD.s 			page 205


 11599 0e4a 54       		.byte	0x54
 11600 0e4b 5E000000 		.4byte	.LVL252
 11601 0e4f A6000000 		.4byte	.LFE14
 11602 0e53 0400     		.2byte	0x4
 11603 0e55 F3       		.byte	0xf3
 11604 0e56 01       		.uleb128 0x1
 11605 0e57 50       		.byte	0x50
 11606 0e58 9F       		.byte	0x9f
 11607 0e59 00000000 		.4byte	0
 11608 0e5d 00000000 		.4byte	0
 11609              	.LLST85:
 11610 0e61 5E000000 		.4byte	.LVL252
 11611 0e65 8C000000 		.4byte	.LVL258
 11612 0e69 0100     		.2byte	0x1
 11613 0e6b 54       		.byte	0x54
 11614 0e6c 00000000 		.4byte	0
 11615 0e70 00000000 		.4byte	0
 11616              	.LLST86:
 11617 0e74 00000000 		.4byte	.LFB21
 11618 0e78 02000000 		.4byte	.LCFI17
 11619 0e7c 0200     		.2byte	0x2
 11620 0e7e 7D       		.byte	0x7d
 11621 0e7f 00       		.sleb128 0
 11622 0e80 02000000 		.4byte	.LCFI17
 11623 0e84 D8000000 		.4byte	.LFE21
 11624 0e88 0200     		.2byte	0x2
 11625 0e8a 7D       		.byte	0x7d
 11626 0e8b 10       		.sleb128 16
 11627 0e8c 00000000 		.4byte	0
 11628 0e90 00000000 		.4byte	0
 11629              	.LLST87:
 11630 0e94 00000000 		.4byte	.LVL262
 11631 0e98 1B000000 		.4byte	.LVL263-1
 11632 0e9c 0100     		.2byte	0x1
 11633 0e9e 50       		.byte	0x50
 11634 0e9f 1B000000 		.4byte	.LVL263-1
 11635 0ea3 30000000 		.4byte	.LVL265
 11636 0ea7 0100     		.2byte	0x1
 11637 0ea9 54       		.byte	0x54
 11638 0eaa 30000000 		.4byte	.LVL265
 11639 0eae 32000000 		.4byte	.LVL266
 11640 0eb2 0100     		.2byte	0x1
 11641 0eb4 50       		.byte	0x50
 11642 0eb5 32000000 		.4byte	.LVL266
 11643 0eb9 D8000000 		.4byte	.LFE21
 11644 0ebd 0100     		.2byte	0x1
 11645 0ebf 54       		.byte	0x54
 11646 0ec0 00000000 		.4byte	0
 11647 0ec4 00000000 		.4byte	0
 11648              	.LLST88:
 11649 0ec8 00000000 		.4byte	.LFB22
 11650 0ecc 02000000 		.4byte	.LCFI18
 11651 0ed0 0200     		.2byte	0x2
 11652 0ed2 7D       		.byte	0x7d
 11653 0ed3 00       		.sleb128 0
 11654 0ed4 02000000 		.4byte	.LCFI18
 11655 0ed8 60000000 		.4byte	.LFE22
ARM GAS  C:\Users\jenny\AppData\Local\Temp\ccWqzXsD.s 			page 206


 11656 0edc 0200     		.2byte	0x2
 11657 0ede 7D       		.byte	0x7d
 11658 0edf 08       		.sleb128 8
 11659 0ee0 00000000 		.4byte	0
 11660 0ee4 00000000 		.4byte	0
 11661              	.LLST89:
 11662 0ee8 00000000 		.4byte	.LVL277
 11663 0eec 10000000 		.4byte	.LVL278
 11664 0ef0 0100     		.2byte	0x1
 11665 0ef2 50       		.byte	0x50
 11666 0ef3 10000000 		.4byte	.LVL278
 11667 0ef7 34000000 		.4byte	.LVL279
 11668 0efb 0100     		.2byte	0x1
 11669 0efd 54       		.byte	0x54
 11670 0efe 34000000 		.4byte	.LVL279
 11671 0f02 38000000 		.4byte	.LVL280
 11672 0f06 0100     		.2byte	0x1
 11673 0f08 50       		.byte	0x50
 11674 0f09 38000000 		.4byte	.LVL280
 11675 0f0d 60000000 		.4byte	.LFE22
 11676 0f11 0100     		.2byte	0x1
 11677 0f13 54       		.byte	0x54
 11678 0f14 00000000 		.4byte	0
 11679 0f18 00000000 		.4byte	0
 11680              	.LLST90:
 11681 0f1c 00000000 		.4byte	.LFB24
 11682 0f20 02000000 		.4byte	.LCFI19
 11683 0f24 0200     		.2byte	0x2
 11684 0f26 7D       		.byte	0x7d
 11685 0f27 00       		.sleb128 0
 11686 0f28 02000000 		.4byte	.LCFI19
 11687 0f2c A8000000 		.4byte	.LFE24
 11688 0f30 0200     		.2byte	0x2
 11689 0f32 7D       		.byte	0x7d
 11690 0f33 08       		.sleb128 8
 11691 0f34 00000000 		.4byte	0
 11692 0f38 00000000 		.4byte	0
 11693              	.LLST91:
 11694 0f3c 00000000 		.4byte	.LVL284
 11695 0f40 08000000 		.4byte	.LVL285
 11696 0f44 0100     		.2byte	0x1
 11697 0f46 50       		.byte	0x50
 11698 0f47 08000000 		.4byte	.LVL285
 11699 0f4b A8000000 		.4byte	.LFE24
 11700 0f4f 0100     		.2byte	0x1
 11701 0f51 54       		.byte	0x54
 11702 0f52 00000000 		.4byte	0
 11703 0f56 00000000 		.4byte	0
 11704              	.LLST92:
 11705 0f5a 76000000 		.4byte	.LVL292
 11706 0f5e 90000000 		.4byte	.LVL293
 11707 0f62 0900     		.2byte	0x9
 11708 0f64 72       		.byte	0x72
 11709 0f65 00       		.sleb128 0
 11710 0f66 32       		.byte	0x32
 11711 0f67 1A       		.byte	0x1a
 11712 0f68 48       		.byte	0x48
ARM GAS  C:\Users\jenny\AppData\Local\Temp\ccWqzXsD.s 			page 207


 11713 0f69 24       		.byte	0x24
 11714 0f6a 30       		.byte	0x30
 11715 0f6b 2E       		.byte	0x2e
 11716 0f6c 9F       		.byte	0x9f
 11717 0f6d 96000000 		.4byte	.LVL294
 11718 0f71 9A000000 		.4byte	.LVL295
 11719 0f75 0900     		.2byte	0x9
 11720 0f77 72       		.byte	0x72
 11721 0f78 00       		.sleb128 0
 11722 0f79 32       		.byte	0x32
 11723 0f7a 1A       		.byte	0x1a
 11724 0f7b 48       		.byte	0x48
 11725 0f7c 24       		.byte	0x24
 11726 0f7d 30       		.byte	0x30
 11727 0f7e 2E       		.byte	0x2e
 11728 0f7f 9F       		.byte	0x9f
 11729 0f80 9A000000 		.4byte	.LVL295
 11730 0f84 9E000000 		.4byte	.LVL296
 11731 0f88 0B00     		.2byte	0xb
 11732 0f8a 73       		.byte	0x73
 11733 0f8b 1C       		.sleb128 28
 11734 0f8c 94       		.byte	0x94
 11735 0f8d 01       		.byte	0x1
 11736 0f8e 32       		.byte	0x32
 11737 0f8f 1A       		.byte	0x1a
 11738 0f90 48       		.byte	0x48
 11739 0f91 24       		.byte	0x24
 11740 0f92 30       		.byte	0x30
 11741 0f93 2E       		.byte	0x2e
 11742 0f94 9F       		.byte	0x9f
 11743 0f95 9E000000 		.4byte	.LVL296
 11744 0f99 A8000000 		.4byte	.LFE24
 11745 0f9d 0E00     		.2byte	0xe
 11746 0f9f 74       		.byte	0x74
 11747 0fa0 00       		.sleb128 0
 11748 0fa1 06       		.byte	0x6
 11749 0fa2 23       		.byte	0x23
 11750 0fa3 1C       		.uleb128 0x1c
 11751 0fa4 94       		.byte	0x94
 11752 0fa5 01       		.byte	0x1
 11753 0fa6 32       		.byte	0x32
 11754 0fa7 1A       		.byte	0x1a
 11755 0fa8 48       		.byte	0x48
 11756 0fa9 24       		.byte	0x24
 11757 0faa 30       		.byte	0x30
 11758 0fab 2E       		.byte	0x2e
 11759 0fac 9F       		.byte	0x9f
 11760 0fad 00000000 		.4byte	0
 11761 0fb1 00000000 		.4byte	0
 11762              	.LLST93:
 11763 0fb5 00000000 		.4byte	.LFB25
 11764 0fb9 02000000 		.4byte	.LCFI20
 11765 0fbd 0200     		.2byte	0x2
 11766 0fbf 7D       		.byte	0x7d
 11767 0fc0 00       		.sleb128 0
 11768 0fc1 02000000 		.4byte	.LCFI20
 11769 0fc5 2C000000 		.4byte	.LFE25
ARM GAS  C:\Users\jenny\AppData\Local\Temp\ccWqzXsD.s 			page 208


 11770 0fc9 0200     		.2byte	0x2
 11771 0fcb 7D       		.byte	0x7d
 11772 0fcc 08       		.sleb128 8
 11773 0fcd 00000000 		.4byte	0
 11774 0fd1 00000000 		.4byte	0
 11775              	.LLST94:
 11776 0fd5 00000000 		.4byte	.LVL297
 11777 0fd9 06000000 		.4byte	.LVL298
 11778 0fdd 0100     		.2byte	0x1
 11779 0fdf 50       		.byte	0x50
 11780 0fe0 06000000 		.4byte	.LVL298
 11781 0fe4 2C000000 		.4byte	.LFE25
 11782 0fe8 0100     		.2byte	0x1
 11783 0fea 54       		.byte	0x54
 11784 0feb 00000000 		.4byte	0
 11785 0fef 00000000 		.4byte	0
 11786              	.LLST95:
 11787 0ff3 00000000 		.4byte	.LFB26
 11788 0ff7 02000000 		.4byte	.LCFI21
 11789 0ffb 0200     		.2byte	0x2
 11790 0ffd 7D       		.byte	0x7d
 11791 0ffe 00       		.sleb128 0
 11792 0fff 02000000 		.4byte	.LCFI21
 11793 1003 B4000000 		.4byte	.LFE26
 11794 1007 0200     		.2byte	0x2
 11795 1009 7D       		.byte	0x7d
 11796 100a 10       		.sleb128 16
 11797 100b 00000000 		.4byte	0
 11798 100f 00000000 		.4byte	0
 11799              	.LLST96:
 11800 1013 00000000 		.4byte	.LVL301
 11801 1017 08000000 		.4byte	.LVL302
 11802 101b 0100     		.2byte	0x1
 11803 101d 50       		.byte	0x50
 11804 101e 08000000 		.4byte	.LVL302
 11805 1022 B4000000 		.4byte	.LFE26
 11806 1026 0100     		.2byte	0x1
 11807 1028 54       		.byte	0x54
 11808 1029 00000000 		.4byte	0
 11809 102d 00000000 		.4byte	0
 11810              	.LLST97:
 11811 1031 38000000 		.4byte	.LVL304
 11812 1035 3E000000 		.4byte	.LVL305
 11813 1039 0100     		.2byte	0x1
 11814 103b 50       		.byte	0x50
 11815 103c 3E000000 		.4byte	.LVL305
 11816 1040 76000000 		.4byte	.LVL310
 11817 1044 0100     		.2byte	0x1
 11818 1046 55       		.byte	0x55
 11819 1047 76000000 		.4byte	.LVL310
 11820 104b 7E000000 		.4byte	.LVL311
 11821 104f 0100     		.2byte	0x1
 11822 1051 50       		.byte	0x50
 11823 1052 7E000000 		.4byte	.LVL311
 11824 1056 B4000000 		.4byte	.LFE26
 11825 105a 0100     		.2byte	0x1
 11826 105c 55       		.byte	0x55
ARM GAS  C:\Users\jenny\AppData\Local\Temp\ccWqzXsD.s 			page 209


 11827 105d 00000000 		.4byte	0
 11828 1061 00000000 		.4byte	0
 11829              	.LLST98:
 11830 1065 00000000 		.4byte	.LFB27
 11831 1069 02000000 		.4byte	.LCFI22
 11832 106d 0200     		.2byte	0x2
 11833 106f 7D       		.byte	0x7d
 11834 1070 00       		.sleb128 0
 11835 1071 02000000 		.4byte	.LCFI22
 11836 1075 7E000000 		.4byte	.LFE27
 11837 1079 0200     		.2byte	0x2
 11838 107b 7D       		.byte	0x7d
 11839 107c 08       		.sleb128 8
 11840 107d 00000000 		.4byte	0
 11841 1081 00000000 		.4byte	0
 11842              	.LLST99:
 11843 1085 00000000 		.4byte	.LVL316
 11844 1089 10000000 		.4byte	.LVL317
 11845 108d 0100     		.2byte	0x1
 11846 108f 50       		.byte	0x50
 11847 1090 10000000 		.4byte	.LVL317
 11848 1094 30000000 		.4byte	.LVL318
 11849 1098 0100     		.2byte	0x1
 11850 109a 54       		.byte	0x54
 11851 109b 30000000 		.4byte	.LVL318
 11852 109f 34000000 		.4byte	.LVL319
 11853 10a3 0100     		.2byte	0x1
 11854 10a5 50       		.byte	0x50
 11855 10a6 34000000 		.4byte	.LVL319
 11856 10aa 7E000000 		.4byte	.LFE27
 11857 10ae 0100     		.2byte	0x1
 11858 10b0 54       		.byte	0x54
 11859 10b1 00000000 		.4byte	0
 11860 10b5 00000000 		.4byte	0
 11861              	.LLST100:
 11862 10b9 00000000 		.4byte	.LFB28
 11863 10bd 02000000 		.4byte	.LCFI23
 11864 10c1 0200     		.2byte	0x2
 11865 10c3 7D       		.byte	0x7d
 11866 10c4 00       		.sleb128 0
 11867 10c5 02000000 		.4byte	.LCFI23
 11868 10c9 44000000 		.4byte	.LFE28
 11869 10cd 0200     		.2byte	0x2
 11870 10cf 7D       		.byte	0x7d
 11871 10d0 18       		.sleb128 24
 11872 10d1 00000000 		.4byte	0
 11873 10d5 00000000 		.4byte	0
 11874              	.LLST101:
 11875 10d9 00000000 		.4byte	.LVL324
 11876 10dd 0C000000 		.4byte	.LVL325
 11877 10e1 0100     		.2byte	0x1
 11878 10e3 50       		.byte	0x50
 11879 10e4 0C000000 		.4byte	.LVL325
 11880 10e8 44000000 		.4byte	.LFE28
 11881 10ec 0100     		.2byte	0x1
 11882 10ee 56       		.byte	0x56
 11883 10ef 00000000 		.4byte	0
ARM GAS  C:\Users\jenny\AppData\Local\Temp\ccWqzXsD.s 			page 210


 11884 10f3 00000000 		.4byte	0
 11885              	.LLST102:
 11886 10f7 22000000 		.4byte	.LVL327
 11887 10fb 3C000000 		.4byte	.LVL330
 11888 10ff 0100     		.2byte	0x1
 11889 1101 54       		.byte	0x54
 11890 1102 3C000000 		.4byte	.LVL330
 11891 1106 3E000000 		.4byte	.LVL331
 11892 110a 0600     		.2byte	0x6
 11893 110c 74       		.byte	0x74
 11894 110d 00       		.sleb128 0
 11895 110e 75       		.byte	0x75
 11896 110f 00       		.sleb128 0
 11897 1110 1C       		.byte	0x1c
 11898 1111 9F       		.byte	0x9f
 11899 1112 3E000000 		.4byte	.LVL331
 11900 1116 44000000 		.4byte	.LFE28
 11901 111a 0100     		.2byte	0x1
 11902 111c 54       		.byte	0x54
 11903 111d 00000000 		.4byte	0
 11904 1121 00000000 		.4byte	0
 11905              	.LLST103:
 11906 1125 38000000 		.4byte	.LVL329
 11907 1129 3B000000 		.4byte	.LVL330-1
 11908 112d 0100     		.2byte	0x1
 11909 112f 51       		.byte	0x51
 11910 1130 00000000 		.4byte	0
 11911 1134 00000000 		.4byte	0
 11912              	.LLST104:
 11913 1138 00000000 		.4byte	.LFB30
 11914 113c 02000000 		.4byte	.LCFI24
 11915 1140 0200     		.2byte	0x2
 11916 1142 7D       		.byte	0x7d
 11917 1143 00       		.sleb128 0
 11918 1144 02000000 		.4byte	.LCFI24
 11919 1148 0C000000 		.4byte	.LCFI25
 11920 114c 0200     		.2byte	0x2
 11921 114e 7D       		.byte	0x7d
 11922 114f 04       		.sleb128 4
 11923 1150 0C000000 		.4byte	.LCFI25
 11924 1154 74000000 		.4byte	.LFE30
 11925 1158 0200     		.2byte	0x2
 11926 115a 7D       		.byte	0x7d
 11927 115b 10       		.sleb128 16
 11928 115c 00000000 		.4byte	0
 11929 1160 00000000 		.4byte	0
 11930              	.LLST105:
 11931 1164 00000000 		.4byte	.LVL332
 11932 1168 1C000000 		.4byte	.LVL333
 11933 116c 0100     		.2byte	0x1
 11934 116e 50       		.byte	0x50
 11935 116f 1C000000 		.4byte	.LVL333
 11936 1173 26000000 		.4byte	.LVL334
 11937 1177 0400     		.2byte	0x4
 11938 1179 F3       		.byte	0xf3
 11939 117a 01       		.uleb128 0x1
 11940 117b 50       		.byte	0x50
ARM GAS  C:\Users\jenny\AppData\Local\Temp\ccWqzXsD.s 			page 211


 11941 117c 9F       		.byte	0x9f
 11942 117d 26000000 		.4byte	.LVL334
 11943 1181 41000000 		.4byte	.LVL335-1
 11944 1185 0100     		.2byte	0x1
 11945 1187 50       		.byte	0x50
 11946 1188 41000000 		.4byte	.LVL335-1
 11947 118c 66000000 		.4byte	.LVL338
 11948 1190 0400     		.2byte	0x4
 11949 1192 F3       		.byte	0xf3
 11950 1193 01       		.uleb128 0x1
 11951 1194 50       		.byte	0x50
 11952 1195 9F       		.byte	0x9f
 11953 1196 66000000 		.4byte	.LVL338
 11954 119a 74000000 		.4byte	.LFE30
 11955 119e 0100     		.2byte	0x1
 11956 11a0 50       		.byte	0x50
 11957 11a1 00000000 		.4byte	0
 11958 11a5 00000000 		.4byte	0
 11959              	.LLST106:
 11960 11a9 00000000 		.4byte	.LFB31
 11961 11ad 02000000 		.4byte	.LCFI26
 11962 11b1 0200     		.2byte	0x2
 11963 11b3 7D       		.byte	0x7d
 11964 11b4 00       		.sleb128 0
 11965 11b5 02000000 		.4byte	.LCFI26
 11966 11b9 98000000 		.4byte	.LFE31
 11967 11bd 0200     		.2byte	0x2
 11968 11bf 7D       		.byte	0x7d
 11969 11c0 08       		.sleb128 8
 11970 11c1 00000000 		.4byte	0
 11971 11c5 00000000 		.4byte	0
 11972              	.LLST107:
 11973 11c9 00000000 		.4byte	.LVL339
 11974 11cd 06000000 		.4byte	.LVL340
 11975 11d1 0100     		.2byte	0x1
 11976 11d3 50       		.byte	0x50
 11977 11d4 06000000 		.4byte	.LVL340
 11978 11d8 98000000 		.4byte	.LFE31
 11979 11dc 0100     		.2byte	0x1
 11980 11de 54       		.byte	0x54
 11981 11df 00000000 		.4byte	0
 11982 11e3 00000000 		.4byte	0
 11983              	.LLST108:
 11984 11e7 00000000 		.4byte	.LFB32
 11985 11eb 02000000 		.4byte	.LCFI27
 11986 11ef 0200     		.2byte	0x2
 11987 11f1 7D       		.byte	0x7d
 11988 11f2 00       		.sleb128 0
 11989 11f3 02000000 		.4byte	.LCFI27
 11990 11f7 74000000 		.4byte	.LFE32
 11991 11fb 0200     		.2byte	0x2
 11992 11fd 7D       		.byte	0x7d
 11993 11fe 08       		.sleb128 8
 11994 11ff 00000000 		.4byte	0
 11995 1203 00000000 		.4byte	0
 11996              	.LLST109:
 11997 1207 00000000 		.4byte	.LVL343
ARM GAS  C:\Users\jenny\AppData\Local\Temp\ccWqzXsD.s 			page 212


 11998 120b 06000000 		.4byte	.LVL344
 11999 120f 0100     		.2byte	0x1
 12000 1211 50       		.byte	0x50
 12001 1212 06000000 		.4byte	.LVL344
 12002 1216 74000000 		.4byte	.LFE32
 12003 121a 0100     		.2byte	0x1
 12004 121c 54       		.byte	0x54
 12005 121d 00000000 		.4byte	0
 12006 1221 00000000 		.4byte	0
 12007              		.section	.debug_aranges,"",%progbits
 12008 0000 DC000000 		.4byte	0xdc
 12009 0004 0200     		.2byte	0x2
 12010 0006 00000000 		.4byte	.Ldebug_info0
 12011 000a 04       		.byte	0x4
 12012 000b 00       		.byte	0
 12013 000c 0000     		.2byte	0
 12014 000e 0000     		.2byte	0
 12015 0010 00000000 		.4byte	.LFB13
 12016 0014 4A000000 		.4byte	.LFE13-.LFB13
 12017 0018 00000000 		.4byte	.LFB23
 12018 001c 92000000 		.4byte	.LFE23-.LFB23
 12019 0020 00000000 		.4byte	.LFB20
 12020 0024 50010000 		.4byte	.LFE20-.LFB20
 12021 0028 00000000 		.4byte	.LFB12
 12022 002c B8000000 		.4byte	.LFE12-.LFB12
 12023 0030 00000000 		.4byte	.LFB9
 12024 0034 92000000 		.4byte	.LFE9-.LFB9
 12025 0038 00000000 		.4byte	.LFB29
 12026 003c 60010000 		.4byte	.LFE29-.LFB29
 12027 0040 00000000 		.4byte	.LFB10
 12028 0044 5C000000 		.4byte	.LFE10-.LFB10
 12029 0048 00000000 		.4byte	.LFB8
 12030 004c 9C000000 		.4byte	.LFE8-.LFB8
 12031 0050 00000000 		.4byte	.LFB7
 12032 0054 88000000 		.4byte	.LFE7-.LFB7
 12033 0058 00000000 		.4byte	.LFB11
 12034 005c 56000000 		.4byte	.LFE11-.LFB11
 12035 0060 00000000 		.4byte	.LFB16
 12036 0064 98000000 		.4byte	.LFE16-.LFB16
 12037 0068 00000000 		.4byte	.LFB17
 12038 006c 82000000 		.4byte	.LFE17-.LFB17
 12039 0070 00000000 		.4byte	.LFB18
 12040 0074 46000000 		.4byte	.LFE18-.LFB18
 12041 0078 00000000 		.4byte	.LFB19
 12042 007c A8000000 		.4byte	.LFE19-.LFB19
 12043 0080 00000000 		.4byte	.LFB14
 12044 0084 A6000000 		.4byte	.LFE14-.LFB14
 12045 0088 00000000 		.4byte	.LFB21
 12046 008c D8000000 		.4byte	.LFE21-.LFB21
 12047 0090 00000000 		.4byte	.LFB22
 12048 0094 60000000 		.4byte	.LFE22-.LFB22
 12049 0098 00000000 		.4byte	.LFB24
 12050 009c A8000000 		.4byte	.LFE24-.LFB24
 12051 00a0 00000000 		.4byte	.LFB25
 12052 00a4 2C000000 		.4byte	.LFE25-.LFB25
 12053 00a8 00000000 		.4byte	.LFB26
 12054 00ac B4000000 		.4byte	.LFE26-.LFB26
ARM GAS  C:\Users\jenny\AppData\Local\Temp\ccWqzXsD.s 			page 213


 12055 00b0 00000000 		.4byte	.LFB27
 12056 00b4 7E000000 		.4byte	.LFE27-.LFB27
 12057 00b8 00000000 		.4byte	.LFB28
 12058 00bc 44000000 		.4byte	.LFE28-.LFB28
 12059 00c0 00000000 		.4byte	.LFB30
 12060 00c4 74000000 		.4byte	.LFE30-.LFB30
 12061 00c8 00000000 		.4byte	.LFB31
 12062 00cc 98000000 		.4byte	.LFE31-.LFB31
 12063 00d0 00000000 		.4byte	.LFB32
 12064 00d4 74000000 		.4byte	.LFE32-.LFB32
 12065 00d8 00000000 		.4byte	0
 12066 00dc 00000000 		.4byte	0
 12067              		.section	.debug_ranges,"",%progbits
 12068              	.Ldebug_ranges0:
 12069 0000 6E000000 		.4byte	.LBB2
 12070 0004 8C000000 		.4byte	.LBE2
 12071 0008 90000000 		.4byte	.LBB3
 12072 000c 96000000 		.4byte	.LBE3
 12073 0010 B0000000 		.4byte	.LBB4
 12074 0014 B8000000 		.4byte	.LBE4
 12075 0018 00000000 		.4byte	0
 12076 001c 00000000 		.4byte	0
 12077 0020 36000000 		.4byte	.LBB5
 12078 0024 6E000000 		.4byte	.LBE5
 12079 0028 74000000 		.4byte	.LBB6
 12080 002c 88000000 		.4byte	.LBE6
 12081 0030 00000000 		.4byte	0
 12082 0034 00000000 		.4byte	0
 12083 0038 6C000000 		.4byte	.LBB17
 12084 003c 6E000000 		.4byte	.LBE17
 12085 0040 74000000 		.4byte	.LBB18
 12086 0044 90000000 		.4byte	.LBE18
 12087 0048 96000000 		.4byte	.LBB19
 12088 004c A8000000 		.4byte	.LBE19
 12089 0050 00000000 		.4byte	0
 12090 0054 00000000 		.4byte	0
 12091 0058 00000000 		.4byte	.LFB13
 12092 005c 4A000000 		.4byte	.LFE13
 12093 0060 00000000 		.4byte	.LFB23
 12094 0064 92000000 		.4byte	.LFE23
 12095 0068 00000000 		.4byte	.LFB20
 12096 006c 50010000 		.4byte	.LFE20
 12097 0070 00000000 		.4byte	.LFB12
 12098 0074 B8000000 		.4byte	.LFE12
 12099 0078 00000000 		.4byte	.LFB9
 12100 007c 92000000 		.4byte	.LFE9
 12101 0080 00000000 		.4byte	.LFB29
 12102 0084 60010000 		.4byte	.LFE29
 12103 0088 00000000 		.4byte	.LFB10
 12104 008c 5C000000 		.4byte	.LFE10
 12105 0090 00000000 		.4byte	.LFB8
 12106 0094 9C000000 		.4byte	.LFE8
 12107 0098 00000000 		.4byte	.LFB7
 12108 009c 88000000 		.4byte	.LFE7
 12109 00a0 00000000 		.4byte	.LFB11
 12110 00a4 56000000 		.4byte	.LFE11
 12111 00a8 00000000 		.4byte	.LFB16
ARM GAS  C:\Users\jenny\AppData\Local\Temp\ccWqzXsD.s 			page 214


 12112 00ac 98000000 		.4byte	.LFE16
 12113 00b0 00000000 		.4byte	.LFB17
 12114 00b4 82000000 		.4byte	.LFE17
 12115 00b8 00000000 		.4byte	.LFB18
 12116 00bc 46000000 		.4byte	.LFE18
 12117 00c0 00000000 		.4byte	.LFB19
 12118 00c4 A8000000 		.4byte	.LFE19
 12119 00c8 00000000 		.4byte	.LFB14
 12120 00cc A6000000 		.4byte	.LFE14
 12121 00d0 00000000 		.4byte	.LFB21
 12122 00d4 D8000000 		.4byte	.LFE21
 12123 00d8 00000000 		.4byte	.LFB22
 12124 00dc 60000000 		.4byte	.LFE22
 12125 00e0 00000000 		.4byte	.LFB24
 12126 00e4 A8000000 		.4byte	.LFE24
 12127 00e8 00000000 		.4byte	.LFB25
 12128 00ec 2C000000 		.4byte	.LFE25
 12129 00f0 00000000 		.4byte	.LFB26
 12130 00f4 B4000000 		.4byte	.LFE26
 12131 00f8 00000000 		.4byte	.LFB27
 12132 00fc 7E000000 		.4byte	.LFE27
 12133 0100 00000000 		.4byte	.LFB28
 12134 0104 44000000 		.4byte	.LFE28
 12135 0108 00000000 		.4byte	.LFB30
 12136 010c 74000000 		.4byte	.LFE30
 12137 0110 00000000 		.4byte	.LFB31
 12138 0114 98000000 		.4byte	.LFE31
 12139 0118 00000000 		.4byte	.LFB32
 12140 011c 74000000 		.4byte	.LFE32
 12141 0120 00000000 		.4byte	0
 12142 0124 00000000 		.4byte	0
 12143              		.section	.debug_line,"",%progbits
 12144              	.Ldebug_line0:
 12145 0000 CD090000 		.section	.debug_str,"MS",%progbits,1
 12145      02006502 
 12145      00000201 
 12145      FB0E0D00 
 12145      01010101 
 12146              	.LASF2:
 12147 0000 696E7438 		.ascii	"int8_t\000"
 12147      5F7400
 12148              	.LASF286:
 12149 0007 70627566 		.ascii	"pbuf_copy\000"
 12149      5F636F70 
 12149      7900
 12150              	.LASF1:
 12151 0011 73697A65 		.ascii	"size_t\000"
 12151      5F7400
 12152              	.LASF51:
 12153 0018 73697A65 		.ascii	"sizetype\000"
 12153      74797065 
 12153      00
 12154              	.LASF265:
 12155 0021 646F5F77 		.ascii	"do_write\000"
 12155      72697465 
 12155      00
 12156              	.LASF24:
ARM GAS  C:\Users\jenny\AppData\Local\Temp\ccWqzXsD.s 			page 215


 12157 002a 73797374 		.ascii	"systime_t\000"
 12157      696D655F 
 12157      7400
 12158              	.LASF145:
 12159 0034 7263765F 		.ascii	"rcv_ann_wnd\000"
 12159      616E6E5F 
 12159      776E6400 
 12160              	.LASF30:
 12161 0040 705F6374 		.ascii	"p_ctx\000"
 12161      7800
 12162              	.LASF21:
 12163 0046 74707269 		.ascii	"tprio_t\000"
 12163      6F5F7400 
 12164              	.LASF212:
 12165 004e 4D454D50 		.ascii	"MEMP_TCP_PCB\000"
 12165      5F544350 
 12165      5F504342 
 12165      00
 12166              	.LASF266:
 12167 005b 646F5F67 		.ascii	"do_getaddr\000"
 12167      65746164 
 12167      647200
 12168              	.LASF306:
 12169 0066 7261775F 		.ascii	"raw_bind\000"
 12169      62696E64 
 12169      00
 12170              	.LASF40:
 12171 006f 705F6D73 		.ascii	"p_msgqueue\000"
 12171      67717565 
 12171      756500
 12172              	.LASF184:
 12173 007a 70726F74 		.ascii	"proto\000"
 12173      6F00
 12174              	.LASF10:
 12175 0080 696E7433 		.ascii	"int32_t\000"
 12175      325F7400 
 12176              	.LASF295:
 12177 0088 7379735F 		.ascii	"sys_mbox_set_invalid\000"
 12177      6D626F78 
 12177      5F736574 
 12177      5F696E76 
 12177      616C6964 
 12178              	.LASF144:
 12179 009d 7263765F 		.ascii	"rcv_wnd\000"
 12179      776E6400 
 12180              	.LASF133:
 12181 00a5 736F5F6F 		.ascii	"so_options\000"
 12181      7074696F 
 12181      6E7300
 12182              	.LASF221:
 12183 00b0 4D454D50 		.ascii	"MEMP_SYS_TIMEOUT\000"
 12183      5F535953 
 12183      5F54494D 
 12183      454F5554 
 12183      00
 12184              	.LASF59:
 12185 00c1 6D625F62 		.ascii	"mb_buffer\000"
ARM GAS  C:\Users\jenny\AppData\Local\Temp\ccWqzXsD.s 			page 216


 12185      75666665 
 12185      7200
 12186              	.LASF199:
 12187 00cb 4C495354 		.ascii	"LISTEN\000"
 12187      454E00
 12188              	.LASF121:
 12189 00d2 73746174 		.ascii	"state\000"
 12189      6500
 12190              	.LASF242:
 12191 00d8 706F6C6C 		.ascii	"poll_tcp\000"
 12191      5F746370 
 12191      00
 12192              	.LASF236:
 12193 00e1 72656376 		.ascii	"recv_tcp\000"
 12193      5F746370 
 12193      00
 12194              	.LASF104:
 12195 00ea 4E455443 		.ascii	"NETCONN_UDPNOCHKSUM\000"
 12195      4F4E4E5F 
 12195      5544504E 
 12195      4F43484B 
 12195      53554D00 
 12196              	.LASF308:
 12197 00fe 7564705F 		.ascii	"udp_connect\000"
 12197      636F6E6E 
 12197      65637400 
 12198              	.LASF154:
 12199 010a 73737468 		.ascii	"ssthresh\000"
 12199      72657368 
 12199      00
 12200              	.LASF96:
 12201 0113 74797065 		.ascii	"type\000"
 12201      00
 12202              	.LASF282:
 12203 0118 7463705F 		.ascii	"tcp_write\000"
 12203      77726974 
 12203      6500
 12204              	.LASF186:
 12205 0122 6C6F6361 		.ascii	"local\000"
 12205      6C00
 12206              	.LASF89:
 12207 0128 50425546 		.ascii	"PBUF_REF\000"
 12207      5F524546 
 12207      00
 12208              	.LASF316:
 12209 0131 474E5520 		.ascii	"GNU C 4.7.4 20130913 (release) [ARM/embedded-4_7-br"
 12209      4320342E 
 12209      372E3420 
 12209      32303133 
 12209      30393133 
 12210 0164 616E6368 		.ascii	"anch revision 202601]\000"
 12210      20726576 
 12210      6973696F 
 12210      6E203230 
 12210      32363031 
 12211              	.LASF322:
 12212 017a 6E657463 		.ascii	"netconn_alloc\000"
ARM GAS  C:\Users\jenny\AppData\Local\Temp\ccWqzXsD.s 			page 217


 12212      6F6E6E5F 
 12212      616C6C6F 
 12212      6300
 12213              	.LASF255:
 12214 0188 646F5F62 		.ascii	"do_bind\000"
 12214      696E6400 
 12215              	.LASF208:
 12216 0190 54494D45 		.ascii	"TIME_WAIT\000"
 12216      5F574149 
 12216      5400
 12217              	.LASF183:
 12218 019a 636F6E6E 		.ascii	"conn\000"
 12218      00
 12219              	.LASF197:
 12220 019f 7463705F 		.ascii	"tcp_state\000"
 12220      73746174 
 12220      6500
 12221              	.LASF100:
 12222 01a9 4E455443 		.ascii	"NETCONN_INVALID\000"
 12222      4F4E4E5F 
 12222      494E5641 
 12222      4C494400 
 12223              	.LASF137:
 12224 01b9 7072696F 		.ascii	"prio\000"
 12224      00
 12225              	.LASF57:
 12226 01be 6D5F6F77 		.ascii	"m_owner\000"
 12226      6E657200 
 12227              	.LASF140:
 12228 01c6 706F6C6C 		.ascii	"polltmr\000"
 12228      746D7200 
 12229              	.LASF67:
 12230 01ce 65786974 		.ascii	"exitcode\000"
 12230      636F6465 
 12230      00
 12231              	.LASF289:
 12232 01d7 7463705F 		.ascii	"tcp_new\000"
 12232      6E657700 
 12233              	.LASF69:
 12234 01df 65776D61 		.ascii	"ewmask\000"
 12234      736B00
 12235              	.LASF120:
 12236 01e6 6E657463 		.ascii	"netconn\000"
 12236      6F6E6E00 
 12237              	.LASF185:
 12238 01ee 69706164 		.ascii	"ipaddr\000"
 12238      647200
 12239              	.LASF233:
 12240 01f5 6F6C645F 		.ascii	"old_state\000"
 12240      73746174 
 12240      6500
 12241              	.LASF240:
 12242 01ff 64696666 		.ascii	"diff\000"
 12242      00
 12243              	.LASF123:
 12244 0204 6F705F63 		.ascii	"op_completed\000"
 12244      6F6D706C 
ARM GAS  C:\Users\jenny\AppData\Local\Temp\ccWqzXsD.s 			page 218


 12244      65746564 
 12244      00
 12245              	.LASF31:
 12246 0211 705F6E65 		.ascii	"p_newer\000"
 12246      77657200 
 12247              	.LASF118:
 12248 0219 4E455443 		.ascii	"NETCONN_EVT_ERROR\000"
 12248      4F4E4E5F 
 12248      4556545F 
 12248      4552524F 
 12248      5200
 12249              	.LASF11:
 12250 022b 6C6F6E67 		.ascii	"long int\000"
 12250      20696E74 
 12250      00
 12251              	.LASF27:
 12252 0234 705F6E65 		.ascii	"p_next\000"
 12252      787400
 12253              	.LASF251:
 12254 023b 6E657763 		.ascii	"newconn\000"
 12254      6F6E6E00 
 12255              	.LASF28:
 12256 0243 705F7072 		.ascii	"p_prev\000"
 12256      657600
 12257              	.LASF109:
 12258 024a 4E455443 		.ascii	"NETCONN_WRITE\000"
 12258      4F4E4E5F 
 12258      57524954 
 12258      4500
 12259              	.LASF80:
 12260 0258 7379735F 		.ascii	"sys_sem_t\000"
 12260      73656D5F 
 12260      7400
 12261              	.LASF18:
 12262 0262 74737461 		.ascii	"tstate_t\000"
 12262      74655F74 
 12262      00
 12263              	.LASF244:
 12264 026b 72656376 		.ascii	"recv_raw\000"
 12264      5F726177 
 12264      00
 12265              	.LASF43:
 12266 0274 705F6D74 		.ascii	"p_mtxlist\000"
 12266      786C6973 
 12266      7400
 12267              	.LASF48:
 12268 027e 72656761 		.ascii	"regarm_t\000"
 12268      726D5F74 
 12268      00
 12269              	.LASF113:
 12270 0287 6E657463 		.ascii	"netconn_evt\000"
 12270      6F6E6E5F 
 12270      65767400 
 12271              	.LASF239:
 12272 0293 77726974 		.ascii	"write_finished\000"
 12272      655F6669 
 12272      6E697368 
ARM GAS  C:\Users\jenny\AppData\Local\Temp\ccWqzXsD.s 			page 219


 12272      656400
 12273              	.LASF209:
 12274 02a2 7261775F 		.ascii	"raw_recv_fn\000"
 12274      72656376 
 12274      5F666E00 
 12275              	.LASF323:
 12276 02ae 63757272 		.ascii	"current_iphdr_src\000"
 12276      656E745F 
 12276      69706864 
 12276      725F7372 
 12276      6300
 12277              	.LASF279:
 12278 02c0 7463705F 		.ascii	"tcp_recved\000"
 12278      72656376 
 12278      656400
 12279              	.LASF193:
 12280 02cb 7463705F 		.ascii	"tcp_sent_fn\000"
 12280      73656E74 
 12280      5F666E00 
 12281              	.LASF195:
 12282 02d7 7463705F 		.ascii	"tcp_err_fn\000"
 12282      6572725F 
 12282      666E00
 12283              	.LASF223:
 12284 02e2 4D454D50 		.ascii	"MEMP_PBUF_POOL\000"
 12284      5F504255 
 12284      465F504F 
 12284      4F4C00
 12285              	.LASF3:
 12286 02f1 7369676E 		.ascii	"signed char\000"
 12286      65642063 
 12286      68617200 
 12287              	.LASF37:
 12288 02fd 705F7072 		.ascii	"p_preempt\000"
 12288      65656D70 
 12288      7400
 12289              	.LASF4:
 12290 0307 75696E74 		.ascii	"uint8_t\000"
 12290      385F7400 
 12291              	.LASF247:
 12292 030f 66726565 		.ascii	"free_and_return\000"
 12292      5F616E64 
 12292      5F726574 
 12292      75726E00 
 12293              	.LASF177:
 12294 031f 6B656570 		.ascii	"keep_cnt_sent\000"
 12294      5F636E74 
 12294      5F73656E 
 12294      7400
 12295              	.LASF62:
 12296 032d 6D625F72 		.ascii	"mb_rdptr\000"
 12296      64707472 
 12296      00
 12297              	.LASF23:
 12298 0336 6576656E 		.ascii	"eventmask_t\000"
 12298      746D6173 
 12298      6B5F7400 
ARM GAS  C:\Users\jenny\AppData\Local\Temp\ccWqzXsD.s 			page 220


 12299              	.LASF50:
 12300 0342 636F6E74 		.ascii	"context\000"
 12300      65787400 
 12301              	.LASF131:
 12302 034a 6C6F6361 		.ascii	"local_ip\000"
 12302      6C5F6970 
 12302      00
 12303              	.LASF284:
 12304 0353 6E657462 		.ascii	"netbuf_delete\000"
 12304      75665F64 
 12304      656C6574 
 12304      6500
 12305              	.LASF5:
 12306 0361 756E7369 		.ascii	"unsigned char\000"
 12306      676E6564 
 12306      20636861 
 12306      7200
 12307              	.LASF307:
 12308 036f 7261775F 		.ascii	"raw_connect\000"
 12308      636F6E6E 
 12308      65637400 
 12309              	.LASF312:
 12310 037b 7564705F 		.ascii	"udp_send\000"
 12310      73656E64 
 12310      00
 12311              	.LASF246:
 12312 0384 6572725F 		.ascii	"err_mem\000"
 12312      6D656D00 
 12313              	.LASF217:
 12314 038c 4D454D50 		.ascii	"MEMP_NETBUF\000"
 12314      5F4E4554 
 12314      42554600 
 12315              	.LASF315:
 12316 0398 7261775F 		.ascii	"raw_sendto\000"
 12316      73656E64 
 12316      746F00
 12317              	.LASF16:
 12318 03a3 5F426F6F 		.ascii	"_Bool\000"
 12318      6C00
 12319              	.LASF203:
 12320 03a9 46494E5F 		.ascii	"FIN_WAIT_1\000"
 12320      57414954 
 12320      5F3100
 12321              	.LASF317:
 12322 03b4 2E2E2F2E 		.ascii	"../../ext/lwip/src/api/api_msg.c\000"
 12322      2E2F6578 
 12322      742F6C77 
 12322      69702F73 
 12322      72632F61 
 12323              	.LASF90:
 12324 03d5 50425546 		.ascii	"PBUF_POOL\000"
 12324      5F504F4F 
 12324      4C00
 12325              	.LASF267:
 12326 03df 646F5F63 		.ascii	"do_close\000"
 12326      6C6F7365 
 12326      00
ARM GAS  C:\Users\jenny\AppData\Local\Temp\ccWqzXsD.s 			page 221


 12327              	.LASF101:
 12328 03e8 4E455443 		.ascii	"NETCONN_TCP\000"
 12328      4F4E4E5F 
 12328      54435000 
 12329              	.LASF324:
 12330 03f4 706F7274 		.ascii	"port_halt\000"
 12330      5F68616C 
 12330      7400
 12331              	.LASF97:
 12332 03fe 666C6167 		.ascii	"flags\000"
 12332      7300
 12333              	.LASF200:
 12334 0404 53594E5F 		.ascii	"SYN_SENT\000"
 12334      53454E54 
 12334      00
 12335              	.LASF283:
 12336 040d 6D656D70 		.ascii	"memp_malloc\000"
 12336      5F6D616C 
 12336      6C6F6300 
 12337              	.LASF70:
 12338 0419 63686172 		.ascii	"char\000"
 12338      00
 12339              	.LASF92:
 12340 041e 70627566 		.ascii	"pbuf\000"
 12340      00
 12341              	.LASF263:
 12342 0423 72656D61 		.ascii	"remaining\000"
 12342      696E696E 
 12342      6700
 12343              	.LASF29:
 12344 042d 705F7072 		.ascii	"p_prio\000"
 12344      696F00
 12345              	.LASF207:
 12346 0434 4C415354 		.ascii	"LAST_ACK\000"
 12346      5F41434B 
 12346      00
 12347              	.LASF64:
 12348 043d 6D625F65 		.ascii	"mb_emptysem\000"
 12348      6D707479 
 12348      73656D00 
 12349              	.LASF68:
 12350 0449 77746F62 		.ascii	"wtobjp\000"
 12350      6A7000
 12351              	.LASF178:
 12352 0450 7564705F 		.ascii	"udp_pcb\000"
 12352      70636200 
 12353              	.LASF138:
 12354 0458 6C6F6361 		.ascii	"local_port\000"
 12354      6C5F706F 
 12354      727400
 12355              	.LASF134:
 12356 0463 7463705F 		.ascii	"tcp_pcb\000"
 12356      70636200 
 12357              	.LASF98:
 12358 046b 6E657462 		.ascii	"netbuf\000"
 12358      756600
 12359              	.LASF243:
ARM GAS  C:\Users\jenny\AppData\Local\Temp\ccWqzXsD.s 			page 222


 12360 0472 72656376 		.ascii	"recv_udp\000"
 12360      5F756470 
 12360      00
 12361              	.LASF148:
 12362 047b 72747465 		.ascii	"rttest\000"
 12362      737400
 12363              	.LASF76:
 12364 0482 69705F61 		.ascii	"ip_addr\000"
 12364      64647200 
 12365              	.LASF189:
 12366 048a 73687574 		.ascii	"shut\000"
 12366      00
 12367              	.LASF273:
 12368 048f 7379735F 		.ascii	"sys_sem_signal\000"
 12368      73656D5F 
 12368      7369676E 
 12368      616C00
 12369              	.LASF318:
 12370 049e 443A5C6A 		.ascii	"D:\\jenny\\dev\\probe\\chibios\\chibios.workspace\\"
 12370      656E6E79 
 12370      5C646576 
 12370      5C70726F 
 12370      62655C63 
 12371 04cb 64656D6F 		.ascii	"demos\\ARMCM4-STM32F407-LWIP-FATFS-USB\000"
 12371      735C4152 
 12371      4D434D34 
 12371      2D53544D 
 12371      33324634 
 12372              	.LASF275:
 12373 04f1 7463705F 		.ascii	"tcp_close\000"
 12373      636C6F73 
 12373      6500
 12374              	.LASF294:
 12375 04fb 7379735F 		.ascii	"sys_mbox_new\000"
 12375      6D626F78 
 12375      5F6E6577 
 12375      00
 12376              	.LASF158:
 12377 0508 736E645F 		.ascii	"snd_lbb\000"
 12377      6C626200 
 12378              	.LASF303:
 12379 0510 7261775F 		.ascii	"raw_remove\000"
 12379      72656D6F 
 12379      766500
 12380              	.LASF25:
 12381 051b 636E745F 		.ascii	"cnt_t\000"
 12381      7400
 12382              	.LASF234:
 12383 0521 7761735F 		.ascii	"was_nonblocking_connect\000"
 12383      6E6F6E62 
 12383      6C6F636B 
 12383      696E675F 
 12383      636F6E6E 
 12384              	.LASF175:
 12385 0539 70657273 		.ascii	"persist_cnt\000"
 12385      6973745F 
 12385      636E7400 
ARM GAS  C:\Users\jenny\AppData\Local\Temp\ccWqzXsD.s 			page 223


 12386              	.LASF218:
 12387 0545 4D454D50 		.ascii	"MEMP_NETCONN\000"
 12387      5F4E4554 
 12387      434F4E4E 
 12387      00
 12388              	.LASF276:
 12389 0552 7463705F 		.ascii	"tcp_accept\000"
 12389      61636365 
 12389      707400
 12390              	.LASF205:
 12391 055d 434C4F53 		.ascii	"CLOSE_WAIT\000"
 12391      455F5741 
 12391      495400
 12392              	.LASF313:
 12393 0568 7261775F 		.ascii	"raw_send\000"
 12393      73656E64 
 12393      00
 12394              	.LASF259:
 12395 0571 646F5F6C 		.ascii	"do_listen\000"
 12395      69737465 
 12395      6E00
 12396              	.LASF146:
 12397 057b 7263765F 		.ascii	"rcv_ann_right_edge\000"
 12397      616E6E5F 
 12397      72696768 
 12397      745F6564 
 12397      676500
 12398              	.LASF49:
 12399 058e 696E7463 		.ascii	"intctx\000"
 12399      747800
 12400              	.LASF42:
 12401 0595 705F6570 		.ascii	"p_epending\000"
 12401      656E6469 
 12401      6E6700
 12402              	.LASF149:
 12403 05a0 72747365 		.ascii	"rtseq\000"
 12403      7100
 12404              	.LASF311:
 12405 05a6 7463705F 		.ascii	"tcp_listen_with_backlog\000"
 12405      6C697374 
 12405      656E5F77 
 12405      6974685F 
 12405      6261636B 
 12406              	.LASF291:
 12407 05be 7564705F 		.ascii	"udp_recv\000"
 12407      72656376 
 12407      00
 12408              	.LASF142:
 12409 05c7 6C617374 		.ascii	"last_timer\000"
 12409      5F74696D 
 12409      657200
 12410              	.LASF269:
 12411 05d2 7463705F 		.ascii	"tcp_recv\000"
 12411      72656376 
 12411      00
 12412              	.LASF252:
 12413 05db 61636365 		.ascii	"accept_function\000"
ARM GAS  C:\Users\jenny\AppData\Local\Temp\ccWqzXsD.s 			page 224


 12413      70745F66 
 12413      756E6374 
 12413      696F6E00 
 12414              	.LASF65:
 12415 05eb 4D61696C 		.ascii	"Mailbox\000"
 12415      626F7800 
 12416              	.LASF210:
 12417 05f3 4D454D50 		.ascii	"MEMP_RAW_PCB\000"
 12417      5F524157 
 12417      5F504342 
 12417      00
 12418              	.LASF112:
 12419 0600 4E455443 		.ascii	"NETCONN_CLOSE\000"
 12419      4F4E4E5F 
 12419      434C4F53 
 12419      4500
 12420              	.LASF128:
 12421 060e 63757272 		.ascii	"current_msg\000"
 12421      656E745F 
 12421      6D736700 
 12422              	.LASF13:
 12423 061a 6C6F6E67 		.ascii	"long unsigned int\000"
 12423      20756E73 
 12423      69676E65 
 12423      6420696E 
 12423      7400
 12424              	.LASF88:
 12425 062c 50425546 		.ascii	"PBUF_ROM\000"
 12425      5F524F4D 
 12425      00
 12426              	.LASF116:
 12427 0635 4E455443 		.ascii	"NETCONN_EVT_SENDPLUS\000"
 12427      4F4E4E5F 
 12427      4556545F 
 12427      53454E44 
 12427      504C5553 
 12428              	.LASF302:
 12429 064a 7564705F 		.ascii	"udp_remove\000"
 12429      72656D6F 
 12429      766500
 12430              	.LASF194:
 12431 0655 7463705F 		.ascii	"tcp_poll_fn\000"
 12431      706F6C6C 
 12431      5F666E00 
 12432              	.LASF238:
 12433 0661 61766169 		.ascii	"available\000"
 12433      6C61626C 
 12433      6500
 12434              	.LASF125:
 12435 066b 61636365 		.ascii	"acceptmbox\000"
 12435      70746D62 
 12435      6F7800
 12436              	.LASF304:
 12437 0676 7564705F 		.ascii	"udp_bind\000"
 12437      62696E64 
 12437      00
 12438              	.LASF129:
ARM GAS  C:\Users\jenny\AppData\Local\Temp\ccWqzXsD.s 			page 225


 12439 067f 63616C6C 		.ascii	"callback\000"
 12439      6261636B 
 12439      00
 12440              	.LASF281:
 12441 0688 7463705F 		.ascii	"tcp_output\000"
 12441      6F757470 
 12441      757400
 12442              	.LASF94:
 12443 0693 7061796C 		.ascii	"payload\000"
 12443      6F616400 
 12444              	.LASF150:
 12445 069b 6E727478 		.ascii	"nrtx\000"
 12445      00
 12446              	.LASF310:
 12447 06a0 7564705F 		.ascii	"udp_disconnect\000"
 12447      64697363 
 12447      6F6E6E65 
 12447      637400
 12448              	.LASF277:
 12449 06af 7379735F 		.ascii	"sys_mbox_valid\000"
 12449      6D626F78 
 12449      5F76616C 
 12449      696400
 12450              	.LASF63:
 12451 06be 6D625F66 		.ascii	"mb_fullsem\000"
 12451      756C6C73 
 12451      656D00
 12452              	.LASF152:
 12453 06c9 6C617374 		.ascii	"lastack\000"
 12453      61636B00 
 12454              	.LASF155:
 12455 06d1 736E645F 		.ascii	"snd_nxt\000"
 12455      6E787400 
 12456              	.LASF241:
 12457 06d9 646F6E74 		.ascii	"dontblock\000"
 12457      626C6F63 
 12457      6B00
 12458              	.LASF260:
 12459 06e3 6C706362 		.ascii	"lpcb\000"
 12459      00
 12460              	.LASF204:
 12461 06e8 46494E5F 		.ascii	"FIN_WAIT_2\000"
 12461      57414954 
 12461      5F3200
 12462              	.LASF81:
 12463 06f3 7379735F 		.ascii	"sys_mbox_t\000"
 12463      6D626F78 
 12463      5F7400
 12464              	.LASF55:
 12465 06fe 4D757465 		.ascii	"Mutex\000"
 12465      7800
 12466              	.LASF102:
 12467 0704 4E455443 		.ascii	"NETCONN_UDP\000"
 12467      4F4E4E5F 
 12467      55445000 
 12468              	.LASF181:
 12469 0710 70726F74 		.ascii	"protocol\000"
ARM GAS  C:\Users\jenny\AppData\Local\Temp\ccWqzXsD.s 			page 226


 12469      6F636F6C 
 12469      00
 12470              	.LASF169:
 12471 0719 73656E74 		.ascii	"sent\000"
 12471      00
 12472              	.LASF14:
 12473 071e 6C6F6E67 		.ascii	"long long int\000"
 12473      206C6F6E 
 12473      6720696E 
 12473      7400
 12474              	.LASF130:
 12475 072c 69705F70 		.ascii	"ip_pcb\000"
 12475      636200
 12476              	.LASF250:
 12477 0733 6E657463 		.ascii	"netconn_drain\000"
 12477      6F6E6E5F 
 12477      64726169 
 12477      6E00
 12478              	.LASF56:
 12479 0741 6D5F7175 		.ascii	"m_queue\000"
 12479      65756500 
 12480              	.LASF278:
 12481 0749 7379735F 		.ascii	"sys_mbox_trypost\000"
 12481      6D626F78 
 12481      5F747279 
 12481      706F7374 
 12481      00
 12482              	.LASF61:
 12483 075a 6D625F77 		.ascii	"mb_wrptr\000"
 12483      72707472 
 12483      00
 12484              	.LASF231:
 12485 0763 636C6F73 		.ascii	"close\000"
 12485      6500
 12486              	.LASF274:
 12487 0769 7463705F 		.ascii	"tcp_shutdown\000"
 12487      73687574 
 12487      646F776E 
 12487      00
 12488              	.LASF141:
 12489 0776 706F6C6C 		.ascii	"pollinterval\000"
 12489      696E7465 
 12489      7276616C 
 12489      00
 12490              	.LASF107:
 12491 0783 6E657463 		.ascii	"netconn_state\000"
 12491      6F6E6E5F 
 12491      73746174 
 12491      6500
 12492              	.LASF39:
 12493 0791 705F7761 		.ascii	"p_waiting\000"
 12493      6974696E 
 12493      6700
 12494              	.LASF77:
 12495 079b 61646472 		.ascii	"addr\000"
 12495      00
 12496              	.LASF35:
ARM GAS  C:\Users\jenny\AppData\Local\Temp\ccWqzXsD.s 			page 227


 12497 07a0 705F666C 		.ascii	"p_flags\000"
 12497      61677300 
 12498              	.LASF270:
 12499 07a8 7463705F 		.ascii	"tcp_sent\000"
 12499      73656E74 
 12499      00
 12500              	.LASF0:
 12501 07b1 756E7369 		.ascii	"unsigned int\000"
 12501      676E6564 
 12501      20696E74 
 12501      00
 12502              	.LASF287:
 12503 07be 7261775F 		.ascii	"raw_new\000"
 12503      6E657700 
 12504              	.LASF253:
 12505 07c6 6E657770 		.ascii	"newpcb\000"
 12505      636200
 12506              	.LASF73:
 12507 07cd 7531365F 		.ascii	"u16_t\000"
 12507      7400
 12508              	.LASF298:
 12509 07d3 7463705F 		.ascii	"tcp_abort\000"
 12509      61626F72 
 12509      7400
 12510              	.LASF45:
 12511 07dd 705F6D70 		.ascii	"p_mpool\000"
 12511      6F6F6C00 
 12512              	.LASF160:
 12513 07e5 736E645F 		.ascii	"snd_wnd_max\000"
 12513      776E645F 
 12513      6D617800 
 12514              	.LASF143:
 12515 07f1 7263765F 		.ascii	"rcv_nxt\000"
 12515      6E787400 
 12516              	.LASF83:
 12517 07f9 50425546 		.ascii	"PBUF_IP\000"
 12517      5F495000 
 12518              	.LASF36:
 12519 0801 705F7265 		.ascii	"p_refs\000"
 12519      667300
 12520              	.LASF272:
 12521 0808 7463705F 		.ascii	"tcp_err\000"
 12521      65727200 
 12522              	.LASF232:
 12523 0810 6572725F 		.ascii	"err_tcp\000"
 12523      74637000 
 12524              	.LASF47:
 12525 0818 54687265 		.ascii	"ThreadsList\000"
 12525      6164734C 
 12525      69737400 
 12526              	.LASF314:
 12527 0824 7564705F 		.ascii	"udp_sendto\000"
 12527      73656E64 
 12527      746F00
 12528              	.LASF106:
 12529 082f 6E657463 		.ascii	"netconn_type\000"
 12529      6F6E6E5F 
ARM GAS  C:\Users\jenny\AppData\Local\Temp\ccWqzXsD.s 			page 228


 12529      74797065 
 12529      00
 12530              	.LASF91:
 12531 083c 70627566 		.ascii	"pbuf_type\000"
 12531      5F747970 
 12531      6500
 12532              	.LASF172:
 12533 0846 706F6C6C 		.ascii	"poll\000"
 12533      00
 12534              	.LASF296:
 12535 084b 7379735F 		.ascii	"sys_sem_free\000"
 12535      73656D5F 
 12535      66726565 
 12535      00
 12536              	.LASF147:
 12537 0858 7274696D 		.ascii	"rtime\000"
 12537      6500
 12538              	.LASF201:
 12539 085e 53594E5F 		.ascii	"SYN_RCVD\000"
 12539      52435644 
 12539      00
 12540              	.LASF38:
 12541 0867 705F7469 		.ascii	"p_time\000"
 12541      6D6500
 12542              	.LASF256:
 12543 086e 646F5F63 		.ascii	"do_connect\000"
 12543      6F6E6E65 
 12543      637400
 12544              	.LASF301:
 12545 0879 7379735F 		.ascii	"sys_sem_valid\000"
 12545      73656D5F 
 12545      76616C69 
 12545      6400
 12546              	.LASF227:
 12547 0887 73657475 		.ascii	"setup_tcp\000"
 12547      705F7463 
 12547      7000
 12548              	.LASF170:
 12549 0891 72656376 		.ascii	"recv\000"
 12549      00
 12550              	.LASF111:
 12551 0896 4E455443 		.ascii	"NETCONN_CONNECT\000"
 12551      4F4E4E5F 
 12551      434F4E4E 
 12551      45435400 
 12552              	.LASF95:
 12553 08a6 746F745F 		.ascii	"tot_len\000"
 12553      6C656E00 
 12554              	.LASF300:
 12555 08ae 7379735F 		.ascii	"sys_mbox_free\000"
 12555      6D626F78 
 12555      5F667265 
 12555      6500
 12556              	.LASF78:
 12557 08bc 69705F61 		.ascii	"ip_addr_t\000"
 12557      6464725F 
 12557      7400
ARM GAS  C:\Users\jenny\AppData\Local\Temp\ccWqzXsD.s 			page 229


 12558              	.LASF52:
 12559 08c6 53656D61 		.ascii	"Semaphore\000"
 12559      70686F72 
 12559      6500
 12560              	.LASF44:
 12561 08d0 705F7265 		.ascii	"p_realprio\000"
 12561      616C7072 
 12561      696F00
 12562              	.LASF79:
 12563 08db 6572725F 		.ascii	"err_t\000"
 12563      7400
 12564              	.LASF225:
 12565 08e1 6D656D70 		.ascii	"memp_t\000"
 12565      5F7400
 12566              	.LASF190:
 12567 08e8 7564705F 		.ascii	"udp_recv_fn\000"
 12567      72656376 
 12567      5F666E00 
 12568              	.LASF60:
 12569 08f4 6D625F74 		.ascii	"mb_top\000"
 12569      6F7000
 12570              	.LASF215:
 12571 08fb 4D454D50 		.ascii	"MEMP_REASSDATA\000"
 12571      5F524541 
 12571      53534441 
 12571      544100
 12572              	.LASF254:
 12573 090a 646F5F64 		.ascii	"do_delconn\000"
 12573      656C636F 
 12573      6E6E00
 12574              	.LASF54:
 12575 0915 735F636E 		.ascii	"s_cnt\000"
 12575      7400
 12576              	.LASF216:
 12577 091b 4D454D50 		.ascii	"MEMP_FRAG_PBUF\000"
 12577      5F465241 
 12577      475F5042 
 12577      554600
 12578              	.LASF245:
 12579 092a 73697A65 		.ascii	"size\000"
 12579      00
 12580              	.LASF264:
 12581 092f 72656376 		.ascii	"recved\000"
 12581      656400
 12582              	.LASF202:
 12583 0936 45535441 		.ascii	"ESTABLISHED\000"
 12583      424C4953 
 12583      48454400 
 12584              	.LASF15:
 12585 0942 6C6F6E67 		.ascii	"long long unsigned int\000"
 12585      206C6F6E 
 12585      6720756E 
 12585      7369676E 
 12585      65642069 
 12586              	.LASF211:
 12587 0959 4D454D50 		.ascii	"MEMP_UDP_PCB\000"
 12587      5F554450 
ARM GAS  C:\Users\jenny\AppData\Local\Temp\ccWqzXsD.s 			page 230


 12587      5F504342 
 12587      00
 12588              	.LASF139:
 12589 0966 72656D6F 		.ascii	"remote_port\000"
 12589      74655F70 
 12589      6F727400 
 12590              	.LASF268:
 12591 0972 7463705F 		.ascii	"tcp_arg\000"
 12591      61726700 
 12592              	.LASF32:
 12593 097a 705F6F6C 		.ascii	"p_older\000"
 12593      64657200 
 12594              	.LASF214:
 12595 0982 4D454D50 		.ascii	"MEMP_TCP_SEG\000"
 12595      5F544350 
 12595      5F534547 
 12595      00
 12596              	.LASF8:
 12597 098f 75696E74 		.ascii	"uint16_t\000"
 12597      31365F74 
 12597      00
 12598              	.LASF176:
 12599 0998 70657273 		.ascii	"persist_backoff\000"
 12599      6973745F 
 12599      6261636B 
 12599      6F666600 
 12600              	.LASF22:
 12601 09a8 6D73675F 		.ascii	"msg_t\000"
 12601      7400
 12602              	.LASF220:
 12603 09ae 4D454D50 		.ascii	"MEMP_TCPIP_MSG_INPKT\000"
 12603      5F544350 
 12603      49505F4D 
 12603      53475F49 
 12603      4E504B54 
 12604              	.LASF285:
 12605 09c3 70627566 		.ascii	"pbuf_alloc\000"
 12605      5F616C6C 
 12605      6F6300
 12606              	.LASF153:
 12607 09ce 63776E64 		.ascii	"cwnd\000"
 12607      00
 12608              	.LASF20:
 12609 09d3 74736C69 		.ascii	"tslices_t\000"
 12609      6365735F 
 12609      7400
 12610              	.LASF297:
 12611 09dd 7379735F 		.ascii	"sys_sem_set_invalid\000"
 12611      73656D5F 
 12611      7365745F 
 12611      696E7661 
 12611      6C696400 
 12612              	.LASF168:
 12613 09f1 72656675 		.ascii	"refused_data\000"
 12613      7365645F 
 12613      64617461 
 12613      00
ARM GAS  C:\Users\jenny\AppData\Local\Temp\ccWqzXsD.s 			page 231


 12614              	.LASF117:
 12615 09fe 4E455443 		.ascii	"NETCONN_EVT_SENDMINUS\000"
 12615      4F4E4E5F 
 12615      4556545F 
 12615      53454E44 
 12615      4D494E55 
 12616              	.LASF163:
 12617 0a14 736E645F 		.ascii	"snd_queuelen\000"
 12617      71756575 
 12617      656C656E 
 12617      00
 12618              	.LASF292:
 12619 0a21 6D656D70 		.ascii	"memp_free\000"
 12619      5F667265 
 12619      6500
 12620              	.LASF257:
 12621 0a2b 6E6F6E5F 		.ascii	"non_blocking\000"
 12621      626C6F63 
 12621      6B696E67 
 12621      00
 12622              	.LASF179:
 12623 0a38 72656376 		.ascii	"recv_arg\000"
 12623      5F617267 
 12623      00
 12624              	.LASF226:
 12625 0a41 7761735F 		.ascii	"was_blocking\000"
 12625      626C6F63 
 12625      6B696E67 
 12625      00
 12626              	.LASF115:
 12627 0a4e 4E455443 		.ascii	"NETCONN_EVT_RCVMINUS\000"
 12627      4F4E4E5F 
 12627      4556545F 
 12627      5243564D 
 12627      494E5553 
 12628              	.LASF86:
 12629 0a63 70627566 		.ascii	"pbuf_layer\000"
 12629      5F6C6179 
 12629      657200
 12630              	.LASF165:
 12631 0a6e 756E7365 		.ascii	"unsent\000"
 12631      6E7400
 12632              	.LASF261:
 12633 0a75 646F5F73 		.ascii	"do_send\000"
 12633      656E6400 
 12634              	.LASF164:
 12635 0a7d 756E7365 		.ascii	"unsent_oversize\000"
 12635      6E745F6F 
 12635      76657273 
 12635      697A6500 
 12636              	.LASF280:
 12637 0a8d 70627566 		.ascii	"pbuf_free\000"
 12637      5F667265 
 12637      6500
 12638              	.LASF224:
 12639 0a97 4D454D50 		.ascii	"MEMP_MAX\000"
 12639      5F4D4158 
ARM GAS  C:\Users\jenny\AppData\Local\Temp\ccWqzXsD.s 			page 232


 12639      00
 12640              	.LASF182:
 12641 0aa0 6170695F 		.ascii	"api_msg_msg\000"
 12641      6D73675F 
 12641      6D736700 
 12642              	.LASF305:
 12643 0aac 7463705F 		.ascii	"tcp_bind\000"
 12643      62696E64 
 12643      00
 12644              	.LASF132:
 12645 0ab5 72656D6F 		.ascii	"remote_ip\000"
 12645      74655F69 
 12645      7000
 12646              	.LASF320:
 12647 0abf 73656E74 		.ascii	"sent_tcp\000"
 12647      5F746370 
 12647      00
 12648              	.LASF196:
 12649 0ac8 7463705F 		.ascii	"tcp_connected_fn\000"
 12649      636F6E6E 
 12649      65637465 
 12649      645F666E 
 12649      00
 12650              	.LASF75:
 12651 0ad9 7533325F 		.ascii	"u32_t\000"
 12651      7400
 12652              	.LASF17:
 12653 0adf 746D6F64 		.ascii	"tmode_t\000"
 12653      655F7400 
 12654              	.LASF127:
 12655 0ae7 77726974 		.ascii	"write_offset\000"
 12655      655F6F66 
 12655      66736574 
 12655      00
 12656              	.LASF248:
 12657 0af4 646F5F6E 		.ascii	"do_newconn\000"
 12657      6577636F 
 12657      6E6E00
 12658              	.LASF309:
 12659 0aff 7463705F 		.ascii	"tcp_connect\000"
 12659      636F6E6E 
 12659      65637400 
 12660              	.LASF105:
 12661 0b0b 4E455443 		.ascii	"NETCONN_RAW\000"
 12661      4F4E4E5F 
 12661      52415700 
 12662              	.LASF53:
 12663 0b17 735F7175 		.ascii	"s_queue\000"
 12663      65756500 
 12664              	.LASF99:
 12665 0b1f 706F7274 		.ascii	"port\000"
 12665      00
 12666              	.LASF222:
 12667 0b24 4D454D50 		.ascii	"MEMP_PBUF\000"
 12667      5F504255 
 12667      4600
 12668              	.LASF161:
ARM GAS  C:\Users\jenny\AppData\Local\Temp\ccWqzXsD.s 			page 233


 12669 0b2e 61636B65 		.ascii	"acked\000"
 12669      6400
 12670              	.LASF293:
 12671 0b34 7379735F 		.ascii	"sys_sem_new\000"
 12671      73656D5F 
 12671      6E657700 
 12672              	.LASF174:
 12673 0b40 6B656570 		.ascii	"keep_idle\000"
 12673      5F69646C 
 12673      6500
 12674              	.LASF7:
 12675 0b4a 73686F72 		.ascii	"short int\000"
 12675      7420696E 
 12675      7400
 12676              	.LASF110:
 12677 0b54 4E455443 		.ascii	"NETCONN_LISTEN\000"
 12677      4F4E4E5F 
 12677      4C495354 
 12677      454E00
 12678              	.LASF258:
 12679 0b63 646F5F64 		.ascii	"do_disconnect\000"
 12679      6973636F 
 12679      6E6E6563 
 12679      7400
 12680              	.LASF103:
 12681 0b71 4E455443 		.ascii	"NETCONN_UDPLITE\000"
 12681      4F4E4E5F 
 12681      5544504C 
 12681      49544500 
 12682              	.LASF166:
 12683 0b81 756E6163 		.ascii	"unacked\000"
 12683      6B656400 
 12684              	.LASF6:
 12685 0b89 696E7431 		.ascii	"int16_t\000"
 12685      365F7400 
 12686              	.LASF135:
 12687 0b91 63616C6C 		.ascii	"callback_arg\000"
 12687      6261636B 
 12687      5F617267 
 12687      00
 12688              	.LASF237:
 12689 0b9e 646F5F77 		.ascii	"do_writemore\000"
 12689      72697465 
 12689      6D6F7265 
 12689      00
 12690              	.LASF219:
 12691 0bab 4D454D50 		.ascii	"MEMP_TCPIP_MSG_API\000"
 12691      5F544350 
 12691      49505F4D 
 12691      53475F41 
 12691      504900
 12692              	.LASF173:
 12693 0bbe 65727266 		.ascii	"errf\000"
 12693      00
 12694              	.LASF188:
 12695 0bc3 61706966 		.ascii	"apiflags\000"
 12695      6C616773 
ARM GAS  C:\Users\jenny\AppData\Local\Temp\ccWqzXsD.s 			page 234


 12695      00
 12696              	.LASF136:
 12697 0bcc 61636365 		.ascii	"accept\000"
 12697      707400
 12698              	.LASF26:
 12699 0bd3 54687265 		.ascii	"Thread\000"
 12699      616400
 12700              	.LASF192:
 12701 0bda 7463705F 		.ascii	"tcp_recv_fn\000"
 12701      72656376 
 12701      5F666E00 
 12702              	.LASF108:
 12703 0be6 4E455443 		.ascii	"NETCONN_NONE\000"
 12703      4F4E4E5F 
 12703      4E4F4E45 
 12703      00
 12704              	.LASF156:
 12705 0bf3 736E645F 		.ascii	"snd_wl1\000"
 12705      776C3100 
 12706              	.LASF157:
 12707 0bfb 736E645F 		.ascii	"snd_wl2\000"
 12707      776C3200 
 12708              	.LASF249:
 12709 0c03 6E657463 		.ascii	"netconn_free\000"
 12709      6F6E6E5F 
 12709      66726565 
 12709      00
 12710              	.LASF198:
 12711 0c10 434C4F53 		.ascii	"CLOSED\000"
 12711      454400
 12712              	.LASF126:
 12713 0c17 736F636B 		.ascii	"socket\000"
 12713      657400
 12714              	.LASF151:
 12715 0c1e 64757061 		.ascii	"dupacks\000"
 12715      636B7300 
 12716              	.LASF74:
 12717 0c26 7331365F 		.ascii	"s16_t\000"
 12717      7400
 12718              	.LASF19:
 12719 0c2c 74726566 		.ascii	"trefs_t\000"
 12719      735F7400 
 12720              	.LASF180:
 12721 0c34 7261775F 		.ascii	"raw_pcb\000"
 12721      70636200 
 12722              	.LASF229:
 12723 0c3c 73687574 		.ascii	"shut_rx\000"
 12723      5F727800 
 12724              	.LASF262:
 12725 0c44 646F5F72 		.ascii	"do_recv\000"
 12725      65637600 
 12726              	.LASF12:
 12727 0c4c 75696E74 		.ascii	"uint32_t\000"
 12727      33325F74 
 12727      00
 12728              	.LASF119:
 12729 0c55 6E657463 		.ascii	"netconn_callback\000"
ARM GAS  C:\Users\jenny\AppData\Local\Temp\ccWqzXsD.s 			page 235


 12729      6F6E6E5F 
 12729      63616C6C 
 12729      6261636B 
 12729      00
 12730              	.LASF187:
 12731 0c66 64617461 		.ascii	"dataptr\000"
 12731      70747200 
 12732              	.LASF82:
 12733 0c6e 50425546 		.ascii	"PBUF_TRANSPORT\000"
 12733      5F545241 
 12733      4E53504F 
 12733      525400
 12734              	.LASF46:
 12735 0c7d 54687265 		.ascii	"ThreadsQueue\000"
 12735      61647351 
 12735      75657565 
 12735      00
 12736              	.LASF124:
 12737 0c8a 72656376 		.ascii	"recvmbox\000"
 12737      6D626F78 
 12737      00
 12738              	.LASF114:
 12739 0c93 4E455443 		.ascii	"NETCONN_EVT_RCVPLUS\000"
 12739      4F4E4E5F 
 12739      4556545F 
 12739      52435650 
 12739      4C555300 
 12740              	.LASF66:
 12741 0ca7 7264796D 		.ascii	"rdymsg\000"
 12741      736700
 12742              	.LASF9:
 12743 0cae 73686F72 		.ascii	"short unsigned int\000"
 12743      7420756E 
 12743      7369676E 
 12743      65642069 
 12743      6E7400
 12744              	.LASF72:
 12745 0cc1 73385F74 		.ascii	"s8_t\000"
 12745      00
 12746              	.LASF71:
 12747 0cc6 75385F74 		.ascii	"u8_t\000"
 12747      00
 12748              	.LASF235:
 12749 0ccb 646F5F63 		.ascii	"do_connected\000"
 12749      6F6E6E65 
 12749      63746564 
 12749      00
 12750              	.LASF321:
 12751 0cd8 7063625F 		.ascii	"pcb_new\000"
 12751      6E657700 
 12752              	.LASF206:
 12753 0ce0 434C4F53 		.ascii	"CLOSING\000"
 12753      494E4700 
 12754              	.LASF288:
 12755 0ce8 7261775F 		.ascii	"raw_recv\000"
 12755      72656376 
 12755      00
ARM GAS  C:\Users\jenny\AppData\Local\Temp\ccWqzXsD.s 			page 236


 12756              	.LASF162:
 12757 0cf1 736E645F 		.ascii	"snd_buf\000"
 12757      62756600 
 12758              	.LASF228:
 12759 0cf9 646F5F63 		.ascii	"do_close_internal\000"
 12759      6C6F7365 
 12759      5F696E74 
 12759      65726E61 
 12759      6C00
 12760              	.LASF159:
 12761 0d0b 736E645F 		.ascii	"snd_wnd\000"
 12761      776E6400 
 12762              	.LASF230:
 12763 0d13 73687574 		.ascii	"shut_tx\000"
 12763      5F747800 
 12764              	.LASF290:
 12765 0d1b 7564705F 		.ascii	"udp_new\000"
 12765      6E657700 
 12766              	.LASF87:
 12767 0d23 50425546 		.ascii	"PBUF_RAM\000"
 12767      5F52414D 
 12767      00
 12768              	.LASF191:
 12769 0d2c 7463705F 		.ascii	"tcp_accept_fn\000"
 12769      61636365 
 12769      70745F66 
 12769      6E00
 12770              	.LASF85:
 12771 0d3a 50425546 		.ascii	"PBUF_RAW\000"
 12771      5F524157 
 12771      00
 12772              	.LASF33:
 12773 0d43 705F6E61 		.ascii	"p_name\000"
 12773      6D6500
 12774              	.LASF93:
 12775 0d4a 6E657874 		.ascii	"next\000"
 12775      00
 12776              	.LASF58:
 12777 0d4f 6D5F6E65 		.ascii	"m_next\000"
 12777      787400
 12778              	.LASF319:
 12779 0d56 7463705F 		.ascii	"tcp_seg\000"
 12779      73656700 
 12780              	.LASF171:
 12781 0d5e 636F6E6E 		.ascii	"connected\000"
 12781      65637465 
 12781      6400
 12782              	.LASF213:
 12783 0d68 4D454D50 		.ascii	"MEMP_TCP_PCB_LISTEN\000"
 12783      5F544350 
 12783      5F504342 
 12783      5F4C4953 
 12783      54454E00 
 12784              	.LASF122:
 12785 0d7c 6C617374 		.ascii	"last_err\000"
 12785      5F657272 
 12785      00
ARM GAS  C:\Users\jenny\AppData\Local\Temp\ccWqzXsD.s 			page 237


 12786              	.LASF271:
 12787 0d85 7463705F 		.ascii	"tcp_poll\000"
 12787      706F6C6C 
 12787      00
 12788              	.LASF167:
 12789 0d8e 6F6F7365 		.ascii	"ooseq\000"
 12789      7100
 12790              	.LASF299:
 12791 0d94 7379735F 		.ascii	"sys_arch_mbox_tryfetch\000"
 12791      61726368 
 12791      5F6D626F 
 12791      785F7472 
 12791      79666574 
 12792              	.LASF84:
 12793 0dab 50425546 		.ascii	"PBUF_LINK\000"
 12793      5F4C494E 
 12793      4B00
 12794              	.LASF41:
 12795 0db5 705F6D73 		.ascii	"p_msg\000"
 12795      6700
 12796              	.LASF34:
 12797 0dbb 705F7374 		.ascii	"p_state\000"
 12797      61746500 
 12798              		.ident	"GCC: (GNU Tools for ARM Embedded Processors) 4.7.4 20130913 (release) [ARM/embedded-4_7-br
ARM GAS  C:\Users\jenny\AppData\Local\Temp\ccWqzXsD.s 			page 238


DEFINED SYMBOLS
                            *ABS*:00000000 api_msg.c
C:\Users\jenny\AppData\Local\Temp\ccWqzXsD.s:20     .text.setup_tcp:00000000 $t
C:\Users\jenny\AppData\Local\Temp\ccWqzXsD.s:25     .text.setup_tcp:00000000 setup_tcp
C:\Users\jenny\AppData\Local\Temp\ccWqzXsD.s:677    .text.recv_tcp:00000000 recv_tcp
C:\Users\jenny\AppData\Local\Temp\ccWqzXsD.s:1475   .text.sent_tcp:00000000 sent_tcp
C:\Users\jenny\AppData\Local\Temp\ccWqzXsD.s:1114   .text.poll_tcp:00000000 poll_tcp
C:\Users\jenny\AppData\Local\Temp\ccWqzXsD.s:505    .text.err_tcp:00000000 err_tcp
C:\Users\jenny\AppData\Local\Temp\ccWqzXsD.s:79     .text.do_connected:00000000 $t
C:\Users\jenny\AppData\Local\Temp\ccWqzXsD.s:84     .text.do_connected:00000000 do_connected
C:\Users\jenny\AppData\Local\Temp\ccWqzXsD.s:217    .text.do_close_internal:00000000 $t
C:\Users\jenny\AppData\Local\Temp\ccWqzXsD.s:222    .text.do_close_internal:00000000 do_close_internal
C:\Users\jenny\AppData\Local\Temp\ccWqzXsD.s:493    .text.do_close_internal:00000144 $d
C:\Users\jenny\AppData\Local\Temp\ccWqzXsD.s:500    .text.err_tcp:00000000 $t
C:\Users\jenny\AppData\Local\Temp\ccWqzXsD.s:672    .text.recv_tcp:00000000 $t
C:\Users\jenny\AppData\Local\Temp\ccWqzXsD.s:813    .text.do_writemore:00000000 $t
C:\Users\jenny\AppData\Local\Temp\ccWqzXsD.s:818    .text.do_writemore:00000000 do_writemore
C:\Users\jenny\AppData\Local\Temp\ccWqzXsD.s:1109   .text.poll_tcp:00000000 $t
C:\Users\jenny\AppData\Local\Temp\ccWqzXsD.s:1195   .text.recv_udp:00000000 $t
C:\Users\jenny\AppData\Local\Temp\ccWqzXsD.s:1200   .text.recv_udp:00000000 recv_udp
C:\Users\jenny\AppData\Local\Temp\ccWqzXsD.s:1340   .text.recv_raw:00000000 $t
C:\Users\jenny\AppData\Local\Temp\ccWqzXsD.s:1345   .text.recv_raw:00000000 recv_raw
C:\Users\jenny\AppData\Local\Temp\ccWqzXsD.s:1464   .text.recv_raw:00000084 $d
C:\Users\jenny\AppData\Local\Temp\ccWqzXsD.s:1470   .text.sent_tcp:00000000 $t
C:\Users\jenny\AppData\Local\Temp\ccWqzXsD.s:1560   .text.do_newconn:00000000 $t
C:\Users\jenny\AppData\Local\Temp\ccWqzXsD.s:1566   .text.do_newconn:00000000 do_newconn
C:\Users\jenny\AppData\Local\Temp\ccWqzXsD.s:1681   .text.do_newconn:00000090 $d
C:\Users\jenny\AppData\Local\Temp\ccWqzXsD.s:1689   .text.netconn_alloc:00000000 $t
C:\Users\jenny\AppData\Local\Temp\ccWqzXsD.s:1695   .text.netconn_alloc:00000000 netconn_alloc
C:\Users\jenny\AppData\Local\Temp\ccWqzXsD.s:1818   .text.netconn_free:00000000 $t
C:\Users\jenny\AppData\Local\Temp\ccWqzXsD.s:1824   .text.netconn_free:00000000 netconn_free
C:\Users\jenny\AppData\Local\Temp\ccWqzXsD.s:1889   .text.netconn_drain:00000000 $t
C:\Users\jenny\AppData\Local\Temp\ccWqzXsD.s:1894   .text.netconn_drain:00000000 netconn_drain
C:\Users\jenny\AppData\Local\Temp\ccWqzXsD.s:2046   .text.accept_function:00000000 $t
C:\Users\jenny\AppData\Local\Temp\ccWqzXsD.s:2051   .text.accept_function:00000000 accept_function
C:\Users\jenny\AppData\Local\Temp\ccWqzXsD.s:2196   .text.do_delconn:00000000 $t
C:\Users\jenny\AppData\Local\Temp\ccWqzXsD.s:2202   .text.do_delconn:00000000 do_delconn
C:\Users\jenny\AppData\Local\Temp\ccWqzXsD.s:2377   .text.do_bind:00000000 $t
C:\Users\jenny\AppData\Local\Temp\ccWqzXsD.s:2383   .text.do_bind:00000000 do_bind
C:\Users\jenny\AppData\Local\Temp\ccWqzXsD.s:2466   .text.do_connect:00000000 $t
C:\Users\jenny\AppData\Local\Temp\ccWqzXsD.s:2472   .text.do_connect:00000000 do_connect
C:\Users\jenny\AppData\Local\Temp\ccWqzXsD.s:2610   .text.do_connect:000000a4 $d
C:\Users\jenny\AppData\Local\Temp\ccWqzXsD.s:2616   .text.do_disconnect:00000000 $t
C:\Users\jenny\AppData\Local\Temp\ccWqzXsD.s:2622   .text.do_disconnect:00000000 do_disconnect
C:\Users\jenny\AppData\Local\Temp\ccWqzXsD.s:2668   .text.do_listen:00000000 $t
C:\Users\jenny\AppData\Local\Temp\ccWqzXsD.s:2674   .text.do_listen:00000000 do_listen
C:\Users\jenny\AppData\Local\Temp\ccWqzXsD.s:2821   .text.do_listen:000000b0 $d
C:\Users\jenny\AppData\Local\Temp\ccWqzXsD.s:2827   .text.do_send:00000000 $t
C:\Users\jenny\AppData\Local\Temp\ccWqzXsD.s:2833   .text.do_send:00000000 do_send
C:\Users\jenny\AppData\Local\Temp\ccWqzXsD.s:2934   .text.do_recv:00000000 $t
C:\Users\jenny\AppData\Local\Temp\ccWqzXsD.s:2940   .text.do_recv:00000000 do_recv
C:\Users\jenny\AppData\Local\Temp\ccWqzXsD.s:3015   .text.do_write:00000000 $t
C:\Users\jenny\AppData\Local\Temp\ccWqzXsD.s:3021   .text.do_write:00000000 do_write
C:\Users\jenny\AppData\Local\Temp\ccWqzXsD.s:3128   .text.do_getaddr:00000000 $t
C:\Users\jenny\AppData\Local\Temp\ccWqzXsD.s:3134   .text.do_getaddr:00000000 do_getaddr
C:\Users\jenny\AppData\Local\Temp\ccWqzXsD.s:3259   .text.do_close:00000000 $t
C:\Users\jenny\AppData\Local\Temp\ccWqzXsD.s:3265   .text.do_close:00000000 do_close
ARM GAS  C:\Users\jenny\AppData\Local\Temp\ccWqzXsD.s 			page 239


                     .debug_frame:00000010 $d
C:\Users\jenny\AppData\Local\Temp\ccWqzXsD.s:1469   .text.recv_raw:00000088 $t
C:\Users\jenny\AppData\Local\Temp\ccWqzXsD.s:12798  .text.do_newconn:00000098 $t
C:\Users\jenny\AppData\Local\Temp\ccWqzXsD.s:2615   .text.do_connect:000000a8 $t
C:\Users\jenny\AppData\Local\Temp\ccWqzXsD.s:2826   .text.do_listen:000000b4 $t

UNDEFINED SYMBOLS
tcp_arg
tcp_recv
tcp_sent
tcp_poll
tcp_err
port_halt
sys_sem_signal
tcp_shutdown
tcp_close
tcp_accept
sys_mbox_valid
sys_mbox_trypost
tcp_recved
pbuf_free
tcp_output
tcp_write
memp_malloc
netbuf_delete
pbuf_alloc
pbuf_copy
current_iphdr_src
tcp_new
raw_new
raw_recv
udp_new
udp_recv
memp_free
sys_sem_new
sys_mbox_new
sys_mbox_set_invalid
sys_sem_free
sys_sem_set_invalid
tcp_abort
sys_arch_mbox_tryfetch
sys_mbox_free
sys_sem_valid
udp_remove
raw_remove
udp_bind
tcp_bind
raw_bind
raw_connect
udp_connect
tcp_connect
udp_disconnect
tcp_listen_with_backlog
udp_send
raw_send
udp_sendto
raw_sendto
ARM GAS  C:\Users\jenny\AppData\Local\Temp\ccWqzXsD.s 			page 240


