ARM GAS  C:\Users\jenny\AppData\Local\Temp\cc0Y1Ehz.s 			page 1


   1              		.syntax unified
   2              		.cpu cortex-m4
   3              		.eabi_attribute 27, 3
   4              		.fpu fpv4-sp-d16
   5              		.eabi_attribute 20, 1
   6              		.eabi_attribute 21, 1
   7              		.eabi_attribute 23, 3
   8              		.eabi_attribute 24, 1
   9              		.eabi_attribute 25, 1
  10              		.eabi_attribute 26, 1
  11              		.eabi_attribute 30, 2
  12              		.eabi_attribute 34, 1
  13              		.eabi_attribute 18, 4
  14              		.thumb
  15              		.file	"api_lib.c"
  16              		.text
  17              	.Ltext0:
  18              		.cfi_sections	.debug_frame
  19              		.section	.text.netconn_recv_data,"ax",%progbits
  20              		.align	2
  21              		.p2align 4,,15
  22              		.thumb
  23              		.thumb_func
  24              		.type	netconn_recv_data, %function
  25              	netconn_recv_data:
  26              	.LFB15:
  27              		.file 1 "../../ext/lwip/src/api/api_lib.c"
  28              		.loc 1 343 0
  29              		.cfi_startproc
  30              		@ args = 0, pretend = 0, frame = 32
  31              		@ frame_needed = 0, uses_anonymous_args = 0
  32              	.LVL0:
  33 0000 F0B5     		push	{r4, r5, r6, r7, lr}
  34              	.LCFI0:
  35              		.cfi_def_cfa_offset 20
  36              		.cfi_offset 4, -20
  37              		.cfi_offset 5, -16
  38              		.cfi_offset 6, -12
  39              		.cfi_offset 7, -8
  40              		.cfi_offset 14, -4
  41 0002 89B0     		sub	sp, sp, #36
  42              	.LCFI1:
  43              		.cfi_def_cfa_offset 56
  44              		.loc 1 344 0
  45 0004 0025     		movs	r5, #0
  46              		.loc 1 351 0
  47 0006 0E46     		mov	r6, r1
  48              		.loc 1 343 0
  49 0008 0446     		mov	r4, r0
  50              		.loc 1 344 0
  51 000a 0195     		str	r5, [sp, #4]
  52              	.LVL1:
  53              		.loc 1 351 0
  54 000c 0029     		cmp	r1, #0
  55 000e 5BD0     		beq	.L4
  56              		.loc 1 352 0
  57 0010 0D60     		str	r5, [r1, #0]
ARM GAS  C:\Users\jenny\AppData\Local\Temp\cc0Y1Ehz.s 			page 2


  58              		.loc 1 353 0
  59 0012 0028     		cmp	r0, #0
  60 0014 58D0     		beq	.L4
  61              		.loc 1 354 0
  62 0016 00F11007 		add	r7, r0, #16
  63 001a 3846     		mov	r0, r7
  64              	.LVL2:
  65 001c FFF7FEFF 		bl	sys_mbox_valid
  66              	.LVL3:
  67 0020 0028     		cmp	r0, #0
  68 0022 4CD0     		beq	.L29
  69              	.LVL4:
  70              		.loc 1 357 0
  71 0024 94F90800 		ldrsb	r0, [r4, #8]
  72 0028 10F1090F 		cmn	r0, #9
  73 002c 01DA     		bge	.L30
  74              	.LVL5:
  75              	.L24:
  76              		.loc 1 425 0
  77 002e 09B0     		add	sp, sp, #36
  78 0030 F0BD     		pop	{r4, r5, r6, r7, pc}
  79              	.LVL6:
  80              	.L30:
  81              		.loc 1 371 0
  82 0032 3846     		mov	r0, r7
  83 0034 01A9     		add	r1, sp, #4
  84 0036 2A46     		mov	r2, r5
  85 0038 FFF7FEFF 		bl	sys_arch_mbox_fetch
  86              	.LVL7:
  87              		.loc 1 376 0
  88 003c 2378     		ldrb	r3, [r4, #0]	@ zero_extendqisi2
  89 003e 102B     		cmp	r3, #16
  90 0040 0DD0     		beq	.L31
  91              		.loc 1 409 0
  92 0042 019B     		ldr	r3, [sp, #4]
  93 0044 002B     		cmp	r3, #0
  94 0046 36D0     		beq	.L32
  95              	.L15:
  96              	.LVL8:
  97              		.loc 1 410 0
  98 0048 1A68     		ldr	r2, [r3, #0]
  99 004a 1289     		ldrh	r2, [r2, #8]
 100              	.LVL9:
 101              	.L14:
 102              		.loc 1 418 0
 103 004c A56A     		ldr	r5, [r4, #40]
 104 004e 1DB1     		cbz	r5, .L16
 105              		.loc 1 418 0 is_stmt 0 discriminator 1
 106 0050 2046     		mov	r0, r4
 107 0052 0121     		movs	r1, #1
 108 0054 A847     		blx	r5
 109              	.LVL10:
 110 0056 019B     		ldr	r3, [sp, #4]
 111              	.LVL11:
 112              	.L16:
 113              		.loc 1 422 0 is_stmt 1
 114 0058 3360     		str	r3, [r6, #0]
ARM GAS  C:\Users\jenny\AppData\Local\Temp\cc0Y1Ehz.s 			page 3


 115 005a 0020     		movs	r0, #0
 116 005c E7E7     		b	.L24
 117              	.L31:
 118              		.loc 1 379 0
 119 005e 207F     		ldrb	r0, [r4, #28]	@ zero_extendqisi2
 120 0060 00F00801 		and	r1, r0, #8
 121 0064 CDB2     		uxtb	r5, r1
 122 0066 6DB9     		cbnz	r5, .L7
 123              		.loc 1 383 0
 124 0068 1B4A     		ldr	r2, .L34
 125 006a 0198     		ldr	r0, [sp, #4]
 126 006c 0292     		str	r2, [sp, #8]
 127              		.loc 1 384 0
 128 006e 0394     		str	r4, [sp, #12]
 129              		.loc 1 385 0
 130 0070 70B1     		cbz	r0, .L9
 131              		.loc 1 386 0
 132 0072 0589     		ldrh	r5, [r0, #8]
 133 0074 0595     		str	r5, [sp, #20]
 134              	.L12:
 135              		.loc 1 391 0
 136 0076 02A8     		add	r0, sp, #8
 137 0078 FFF7FEFF 		bl	tcpip_apimsg
 138              	.LVL12:
 139              		.loc 1 395 0
 140 007c 019B     		ldr	r3, [sp, #4]
 141 007e 53B1     		cbz	r3, .L33
 142              	.L11:
 143              		.loc 1 401 0
 144 0080 1A89     		ldrh	r2, [r3, #8]
 145              	.LVL13:
 146 0082 E3E7     		b	.L14
 147              	.LVL14:
 148              	.L7:
 149              		.loc 1 379 0 discriminator 1
 150 0084 019B     		ldr	r3, [sp, #4]
 151 0086 002B     		cmp	r3, #0
 152 0088 FAD1     		bne	.L11
 153              		.loc 1 383 0
 154 008a 134B     		ldr	r3, .L34
 155              		.loc 1 384 0
 156 008c 0394     		str	r4, [sp, #12]
 157              		.loc 1 383 0
 158 008e 0293     		str	r3, [sp, #8]
 159              	.L9:
 160              		.loc 1 388 0
 161 0090 0121     		movs	r1, #1
 162 0092 0591     		str	r1, [sp, #20]
 163 0094 EFE7     		b	.L12
 164              	.LVL15:
 165              	.L33:
 166              		.loc 1 396 0
 167 0096 A56A     		ldr	r5, [r4, #40]
 168 0098 1DB1     		cbz	r5, .L13
 169              		.loc 1 396 0 is_stmt 0 discriminator 1
 170 009a 2046     		mov	r0, r4
 171 009c 0121     		movs	r1, #1
ARM GAS  C:\Users\jenny\AppData\Local\Temp\cc0Y1Ehz.s 			page 4


 172 009e 1A46     		mov	r2, r3
 173 00a0 A847     		blx	r5
 174              	.LVL16:
 175              	.L13:
 176              		.loc 1 398 0 is_stmt 1
 177 00a2 94F90800 		ldrsb	r0, [r4, #8]
 178 00a6 10F10903 		adds	r3, r0, #9
 179 00aa 12DB     		blt	.L17
 180              		.loc 1 398 0 is_stmt 0 discriminator 1
 181 00ac F422     		movs	r2, #244
 182 00ae 2272     		strb	r2, [r4, #8]
 183 00b0 6FF00B00 		mvn	r0, #11
 184 00b4 BBE7     		b	.L24
 185              	.LVL17:
 186              	.L32:
 187              		.loc 1 409 0 is_stmt 1 discriminator 1
 188 00b6 FFF7FEFF 		bl	port_halt
 189              	.LVL18:
 190 00ba 019B     		ldr	r3, [sp, #4]
 191 00bc C4E7     		b	.L15
 192              	.L29:
 193              		.loc 1 354 0 discriminator 1
 194 00be FFF7FEFF 		bl	port_halt
 195              	.LVL19:
 196 00c2 6FF00C00 		mvn	r0, #12
 197 00c6 B2E7     		b	.L24
 198              	.LVL20:
 199              	.L4:
 200              		.loc 1 351 0 discriminator 1
 201 00c8 FFF7FEFF 		bl	port_halt
 202              	.LVL21:
 203 00cc 6FF00D00 		mvn	r0, #13
 204 00d0 ADE7     		b	.L24
 205              	.L17:
 206 00d2 6FF00B00 		mvn	r0, #11
 207 00d6 AAE7     		b	.L24
 208              	.L35:
 209              		.align	2
 210              	.L34:
 211 00d8 00000000 		.word	do_recv
 212              		.cfi_endproc
 213              	.LFE15:
 214              		.size	netconn_recv_data, .-netconn_recv_data
 215 00dc AFF30080 		.section	.text.netconn_new_with_proto_and_callback,"ax",%progbits
 216              		.align	2
 217              		.p2align 4,,15
 218              		.global	netconn_new_with_proto_and_callback
 219              		.thumb
 220              		.thumb_func
 221              		.type	netconn_new_with_proto_and_callback, %function
 222              	netconn_new_with_proto_and_callback:
 223              	.LFB7:
 224              		.loc 1 69 0
 225              		.cfi_startproc
 226              		@ args = 0, pretend = 0, frame = 24
 227              		@ frame_needed = 0, uses_anonymous_args = 0
 228              	.LVL22:
ARM GAS  C:\Users\jenny\AppData\Local\Temp\cc0Y1Ehz.s 			page 5


 229 0000 70B5     		push	{r4, r5, r6, lr}
 230              	.LCFI2:
 231              		.cfi_def_cfa_offset 16
 232              		.cfi_offset 4, -16
 233              		.cfi_offset 5, -12
 234              		.cfi_offset 6, -8
 235              		.cfi_offset 14, -4
 236 0002 0D46     		mov	r5, r1
 237 0004 86B0     		sub	sp, sp, #24
 238              	.LCFI3:
 239              		.cfi_def_cfa_offset 40
 240              		.loc 1 73 0
 241 0006 1146     		mov	r1, r2
 242              	.LVL23:
 243 0008 FFF7FEFF 		bl	netconn_alloc
 244              	.LVL24:
 245              		.loc 1 74 0
 246 000c 0446     		mov	r4, r0
 247 000e 40B1     		cbz	r0, .L37
 248              		.loc 1 75 0
 249 0010 1A4B     		ldr	r3, .L58
 250              		.loc 1 76 0
 251 0012 8DF80C50 		strb	r5, [sp, #12]
 252              		.loc 1 78 0
 253 0016 6846     		mov	r0, sp
 254              	.LVL25:
 255              		.loc 1 77 0
 256 0018 8DE81800 		stmia	sp, {r3, r4}
 257              		.loc 1 78 0
 258 001c FFF7FEFF 		bl	tcpip_apimsg
 259              	.LVL26:
 260 0020 10B9     		cbnz	r0, .L54
 261              	.LVL27:
 262              	.L37:
 263              		.loc 1 92 0
 264 0022 2046     		mov	r0, r4
 265 0024 06B0     		add	sp, sp, #24
 266 0026 70BD     		pop	{r4, r5, r6, pc}
 267              	.LVL28:
 268              	.L54:
 269              		.loc 1 79 0
 270 0028 6368     		ldr	r3, [r4, #4]
 271 002a 0BB1     		cbz	r3, .L38
 272              		.loc 1 79 0 is_stmt 0 discriminator 1
 273 002c FFF7FEFF 		bl	port_halt
 274              	.LVL29:
 275              	.L38:
 276              		.loc 1 80 0 is_stmt 1
 277 0030 04F10C06 		add	r6, r4, #12
 278 0034 3046     		mov	r0, r6
 279 0036 FFF7FEFF 		bl	sys_sem_valid
 280              	.LVL30:
 281 003a E0B1     		cbz	r0, .L55
 282              	.L39:
 283              		.loc 1 81 0
 284 003c 04F11005 		add	r5, r4, #16
 285 0040 2846     		mov	r0, r5
ARM GAS  C:\Users\jenny\AppData\Local\Temp\cc0Y1Ehz.s 			page 6


 286 0042 FFF7FEFF 		bl	sys_mbox_valid
 287              	.LVL31:
 288 0046 98B1     		cbz	r0, .L56
 289              	.L40:
 290              		.loc 1 83 0
 291 0048 04F11400 		add	r0, r4, #20
 292 004c FFF7FEFF 		bl	sys_mbox_valid
 293              	.LVL32:
 294 0050 58B9     		cbnz	r0, .L57
 295              	.L41:
 296              		.loc 1 85 0
 297 0052 3046     		mov	r0, r6
 298 0054 FFF7FEFF 		bl	sys_sem_free
 299              	.LVL33:
 300              		.loc 1 86 0
 301 0058 2846     		mov	r0, r5
 302 005a FFF7FEFF 		bl	sys_mbox_free
 303              	.LVL34:
 304              		.loc 1 87 0
 305 005e 2146     		mov	r1, r4
 306 0060 0820     		movs	r0, #8
 307 0062 FFF7FEFF 		bl	memp_free
 308              	.LVL35:
 309              		.loc 1 88 0
 310 0066 0024     		movs	r4, #0
 311              	.LVL36:
 312 0068 DBE7     		b	.L37
 313              	.LVL37:
 314              	.L57:
 315              		.loc 1 83 0 discriminator 1
 316 006a FFF7FEFF 		bl	port_halt
 317              	.LVL38:
 318 006e F0E7     		b	.L41
 319              	.L56:
 320              		.loc 1 81 0 discriminator 1
 321 0070 FFF7FEFF 		bl	port_halt
 322              	.LVL39:
 323 0074 E8E7     		b	.L40
 324              	.L55:
 325              		.loc 1 80 0 discriminator 1
 326 0076 FFF7FEFF 		bl	port_halt
 327              	.LVL40:
 328 007a DFE7     		b	.L39
 329              	.L59:
 330              		.align	2
 331              	.L58:
 332 007c 00000000 		.word	do_newconn
 333              		.cfi_endproc
 334              	.LFE7:
 335              		.size	netconn_new_with_proto_and_callback, .-netconn_new_with_proto_and_callback
 336              		.section	.text.netconn_delete,"ax",%progbits
 337              		.align	2
 338              		.p2align 4,,15
 339              		.global	netconn_delete
 340              		.thumb
 341              		.thumb_func
 342              		.type	netconn_delete, %function
ARM GAS  C:\Users\jenny\AppData\Local\Temp\cc0Y1Ehz.s 			page 7


 343              	netconn_delete:
 344              	.LFB8:
 345              		.loc 1 104 0
 346              		.cfi_startproc
 347              		@ args = 0, pretend = 0, frame = 24
 348              		@ frame_needed = 0, uses_anonymous_args = 0
 349              	.LVL41:
 350 0000 10B5     		push	{r4, lr}
 351              	.LCFI4:
 352              		.cfi_def_cfa_offset 8
 353              		.cfi_offset 4, -8
 354              		.cfi_offset 14, -4
 355              		.loc 1 108 0
 356 0002 0446     		mov	r4, r0
 357              		.loc 1 104 0
 358 0004 86B0     		sub	sp, sp, #24
 359              	.LCFI5:
 360              		.cfi_def_cfa_offset 32
 361              		.loc 1 108 0
 362 0006 40B1     		cbz	r0, .L61
 363              		.loc 1 112 0
 364 0008 054B     		ldr	r3, .L65
 365              		.loc 1 113 0
 366 000a 0190     		str	r0, [sp, #4]
 367              		.loc 1 114 0
 368 000c 6846     		mov	r0, sp
 369              	.LVL42:
 370              		.loc 1 112 0
 371 000e 0093     		str	r3, [sp, #0]
 372              		.loc 1 114 0
 373 0010 FFF7FEFF 		bl	tcpip_apimsg
 374              	.LVL43:
 375              		.loc 1 116 0
 376 0014 2046     		mov	r0, r4
 377 0016 FFF7FEFF 		bl	netconn_free
 378              	.LVL44:
 379              	.L61:
 380              		.loc 1 121 0
 381 001a 0020     		movs	r0, #0
 382 001c 06B0     		add	sp, sp, #24
 383 001e 10BD     		pop	{r4, pc}
 384              	.L66:
 385              		.align	2
 386              	.L65:
 387 0020 00000000 		.word	do_delconn
 388              		.cfi_endproc
 389              	.LFE8:
 390              		.size	netconn_delete, .-netconn_delete
 391 0024 AFF30080 		.section	.text.netconn_getaddr,"ax",%progbits
 391      AFF30080 
 391      AFF30080 
 392              		.align	2
 393              		.p2align 4,,15
 394              		.global	netconn_getaddr
 395              		.thumb
 396              		.thumb_func
 397              		.type	netconn_getaddr, %function
ARM GAS  C:\Users\jenny\AppData\Local\Temp\cc0Y1Ehz.s 			page 8


 398              	netconn_getaddr:
 399              	.LFB9:
 400              		.loc 1 136 0
 401              		.cfi_startproc
 402              		@ args = 0, pretend = 0, frame = 24
 403              		@ frame_needed = 0, uses_anonymous_args = 0
 404              	.LVL45:
 405 0000 30B5     		push	{r4, r5, lr}
 406              	.LCFI6:
 407              		.cfi_def_cfa_offset 12
 408              		.cfi_offset 4, -12
 409              		.cfi_offset 5, -8
 410              		.cfi_offset 14, -4
 411              		.loc 1 140 0
 412 0002 0446     		mov	r4, r0
 413              		.loc 1 136 0
 414 0004 87B0     		sub	sp, sp, #28
 415              	.LCFI7:
 416              		.cfi_def_cfa_offset 40
 417              		.loc 1 140 0
 418 0006 98B1     		cbz	r0, .L70
 419              		.loc 1 141 0
 420 0008 91B1     		cbz	r1, .L70
 421              		.loc 1 142 0
 422 000a 8AB1     		cbz	r2, .L70
 423              		.loc 1 144 0
 424 000c 0A4D     		ldr	r5, .L77
 425              		.loc 1 145 0
 426 000e 0190     		str	r0, [sp, #4]
 427              		.loc 1 149 0
 428 0010 6846     		mov	r0, sp
 429              	.LVL46:
 430              		.loc 1 148 0
 431 0012 8DF81430 		strb	r3, [sp, #20]
 432              		.loc 1 144 0
 433 0016 0095     		str	r5, [sp, #0]
 434              		.loc 1 146 0
 435 0018 0391     		str	r1, [sp, #12]
 436              		.loc 1 147 0
 437 001a 0492     		str	r2, [sp, #16]
 438              		.loc 1 149 0
 439 001c FFF7FEFF 		bl	tcpip_apimsg
 440              	.LVL47:
 441              		.loc 1 151 0
 442 0020 94F90830 		ldrsb	r3, [r4, #8]
 443 0024 0933     		adds	r3, r3, #9
 444 0026 A8BF     		it	ge
 445 0028 2072     		strbge	r0, [r4, #8]
 446              	.LVL48:
 447              	.L69:
 448              		.loc 1 153 0
 449 002a 40B2     		sxtb	r0, r0
 450 002c 07B0     		add	sp, sp, #28
 451 002e 30BD     		pop	{r4, r5, pc}
 452              	.LVL49:
 453              	.L70:
 454              		.loc 1 140 0 discriminator 1
ARM GAS  C:\Users\jenny\AppData\Local\Temp\cc0Y1Ehz.s 			page 9


 455 0030 FFF7FEFF 		bl	port_halt
 456              	.LVL50:
 457 0034 F220     		movs	r0, #242
 458 0036 F8E7     		b	.L69
 459              	.L78:
 460              		.align	2
 461              	.L77:
 462 0038 00000000 		.word	do_getaddr
 463              		.cfi_endproc
 464              	.LFE9:
 465              		.size	netconn_getaddr, .-netconn_getaddr
 466 003c AFF30080 		.section	.text.netconn_bind,"ax",%progbits
 467              		.align	2
 468              		.p2align 4,,15
 469              		.global	netconn_bind
 470              		.thumb
 471              		.thumb_func
 472              		.type	netconn_bind, %function
 473              	netconn_bind:
 474              	.LFB10:
 475              		.loc 1 167 0
 476              		.cfi_startproc
 477              		@ args = 0, pretend = 0, frame = 24
 478              		@ frame_needed = 0, uses_anonymous_args = 0
 479              	.LVL51:
 480 0000 10B5     		push	{r4, lr}
 481              	.LCFI8:
 482              		.cfi_def_cfa_offset 8
 483              		.cfi_offset 4, -8
 484              		.cfi_offset 14, -4
 485              		.loc 1 171 0
 486 0002 0446     		mov	r4, r0
 487              		.loc 1 167 0
 488 0004 86B0     		sub	sp, sp, #24
 489              	.LCFI9:
 490              		.cfi_def_cfa_offset 32
 491              		.loc 1 171 0
 492 0006 88B1     		cbz	r0, .L82
 493              		.loc 1 173 0
 494 0008 0A4B     		ldr	r3, .L83
 495              		.loc 1 174 0
 496 000a 0190     		str	r0, [sp, #4]
 497              		.loc 1 177 0
 498 000c 6846     		mov	r0, sp
 499              	.LVL52:
 500              		.loc 1 173 0
 501 000e 0093     		str	r3, [sp, #0]
 502              		.loc 1 175 0
 503 0010 0391     		str	r1, [sp, #12]
 504              		.loc 1 176 0
 505 0012 ADF81020 		strh	r2, [sp, #16]	@ movhi
 506              		.loc 1 177 0
 507 0016 FFF7FEFF 		bl	tcpip_apimsg
 508              	.LVL53:
 509              		.loc 1 179 0
 510 001a 94F90810 		ldrsb	r1, [r4, #8]
 511 001e 11F10903 		adds	r3, r1, #9
ARM GAS  C:\Users\jenny\AppData\Local\Temp\cc0Y1Ehz.s 			page 10


 512 0022 A8BF     		it	ge
 513 0024 2072     		strbge	r0, [r4, #8]
 514              	.LVL54:
 515              	.L81:
 516              		.loc 1 181 0
 517 0026 40B2     		sxtb	r0, r0
 518 0028 06B0     		add	sp, sp, #24
 519 002a 10BD     		pop	{r4, pc}
 520              	.LVL55:
 521              	.L82:
 522              		.loc 1 171 0 discriminator 1
 523 002c FFF7FEFF 		bl	port_halt
 524              	.LVL56:
 525 0030 F220     		movs	r0, #242
 526 0032 F8E7     		b	.L81
 527              	.L84:
 528              		.align	2
 529              	.L83:
 530 0034 00000000 		.word	do_bind
 531              		.cfi_endproc
 532              	.LFE10:
 533              		.size	netconn_bind, .-netconn_bind
 534 0038 AFF30080 		.section	.text.netconn_connect,"ax",%progbits
 534      AFF30080 
 535              		.align	2
 536              		.p2align 4,,15
 537              		.global	netconn_connect
 538              		.thumb
 539              		.thumb_func
 540              		.type	netconn_connect, %function
 541              	netconn_connect:
 542              	.LFB11:
 543              		.loc 1 193 0
 544              		.cfi_startproc
 545              		@ args = 0, pretend = 0, frame = 24
 546              		@ frame_needed = 0, uses_anonymous_args = 0
 547              	.LVL57:
 548 0000 10B5     		push	{r4, lr}
 549              	.LCFI10:
 550              		.cfi_def_cfa_offset 8
 551              		.cfi_offset 4, -8
 552              		.cfi_offset 14, -4
 553              		.loc 1 197 0
 554 0002 0446     		mov	r4, r0
 555              		.loc 1 193 0
 556 0004 86B0     		sub	sp, sp, #24
 557              	.LCFI11:
 558              		.cfi_def_cfa_offset 32
 559              		.loc 1 197 0
 560 0006 88B1     		cbz	r0, .L88
 561              		.loc 1 199 0
 562 0008 0A4B     		ldr	r3, .L89
 563              		.loc 1 200 0
 564 000a 0190     		str	r0, [sp, #4]
 565              		.loc 1 204 0
 566 000c 6846     		mov	r0, sp
 567              	.LVL58:
ARM GAS  C:\Users\jenny\AppData\Local\Temp\cc0Y1Ehz.s 			page 11


 568              		.loc 1 199 0
 569 000e 0093     		str	r3, [sp, #0]
 570              		.loc 1 201 0
 571 0010 0391     		str	r1, [sp, #12]
 572              		.loc 1 202 0
 573 0012 ADF81020 		strh	r2, [sp, #16]	@ movhi
 574              		.loc 1 204 0
 575 0016 FFF7FEFF 		bl	tcpip_apimsg
 576              	.LVL59:
 577              		.loc 1 206 0
 578 001a 94F90810 		ldrsb	r1, [r4, #8]
 579 001e 11F10903 		adds	r3, r1, #9
 580 0022 A8BF     		it	ge
 581 0024 2072     		strbge	r0, [r4, #8]
 582              	.LVL60:
 583              	.L87:
 584              		.loc 1 208 0
 585 0026 40B2     		sxtb	r0, r0
 586 0028 06B0     		add	sp, sp, #24
 587 002a 10BD     		pop	{r4, pc}
 588              	.LVL61:
 589              	.L88:
 590              		.loc 1 197 0 discriminator 1
 591 002c FFF7FEFF 		bl	port_halt
 592              	.LVL62:
 593 0030 F220     		movs	r0, #242
 594 0032 F8E7     		b	.L87
 595              	.L90:
 596              		.align	2
 597              	.L89:
 598 0034 00000000 		.word	do_connect
 599              		.cfi_endproc
 600              	.LFE11:
 601              		.size	netconn_connect, .-netconn_connect
 602 0038 AFF30080 		.section	.text.netconn_disconnect,"ax",%progbits
 602      AFF30080 
 603              		.align	2
 604              		.p2align 4,,15
 605              		.global	netconn_disconnect
 606              		.thumb
 607              		.thumb_func
 608              		.type	netconn_disconnect, %function
 609              	netconn_disconnect:
 610              	.LFB12:
 611              		.loc 1 218 0
 612              		.cfi_startproc
 613              		@ args = 0, pretend = 0, frame = 24
 614              		@ frame_needed = 0, uses_anonymous_args = 0
 615              	.LVL63:
 616 0000 10B5     		push	{r4, lr}
 617              	.LCFI12:
 618              		.cfi_def_cfa_offset 8
 619              		.cfi_offset 4, -8
 620              		.cfi_offset 14, -4
 621              		.loc 1 222 0
 622 0002 0446     		mov	r4, r0
 623              		.loc 1 218 0
ARM GAS  C:\Users\jenny\AppData\Local\Temp\cc0Y1Ehz.s 			page 12


 624 0004 86B0     		sub	sp, sp, #24
 625              	.LCFI13:
 626              		.cfi_def_cfa_offset 32
 627              		.loc 1 222 0
 628 0006 70B1     		cbz	r0, .L94
 629              		.loc 1 224 0
 630 0008 094B     		ldr	r3, .L95
 631              		.loc 1 225 0
 632 000a 0190     		str	r0, [sp, #4]
 633              		.loc 1 226 0
 634 000c 6846     		mov	r0, sp
 635              	.LVL64:
 636              		.loc 1 224 0
 637 000e 0093     		str	r3, [sp, #0]
 638              		.loc 1 226 0
 639 0010 FFF7FEFF 		bl	tcpip_apimsg
 640              	.LVL65:
 641              		.loc 1 228 0
 642 0014 94F90810 		ldrsb	r1, [r4, #8]
 643 0018 11F10903 		adds	r3, r1, #9
 644 001c A8BF     		it	ge
 645 001e 2072     		strbge	r0, [r4, #8]
 646              	.LVL66:
 647              	.L93:
 648              		.loc 1 230 0
 649 0020 40B2     		sxtb	r0, r0
 650 0022 06B0     		add	sp, sp, #24
 651 0024 10BD     		pop	{r4, pc}
 652              	.LVL67:
 653              	.L94:
 654              		.loc 1 222 0 discriminator 1
 655 0026 FFF7FEFF 		bl	port_halt
 656              	.LVL68:
 657 002a F220     		movs	r0, #242
 658 002c F8E7     		b	.L93
 659              	.L96:
 660 002e 00BF     		.align	2
 661              	.L95:
 662 0030 00000000 		.word	do_disconnect
 663              		.cfi_endproc
 664              	.LFE12:
 665              		.size	netconn_disconnect, .-netconn_disconnect
 666 0034 AFF30080 		.section	.text.netconn_listen_with_backlog,"ax",%progbits
 666      AFF30080 
 666      AFF30080 
 667              		.align	2
 668              		.p2align 4,,15
 669              		.global	netconn_listen_with_backlog
 670              		.thumb
 671              		.thumb_func
 672              		.type	netconn_listen_with_backlog, %function
 673              	netconn_listen_with_backlog:
 674              	.LFB13:
 675              		.loc 1 242 0
 676              		.cfi_startproc
 677              		@ args = 0, pretend = 0, frame = 24
 678              		@ frame_needed = 0, uses_anonymous_args = 0
ARM GAS  C:\Users\jenny\AppData\Local\Temp\cc0Y1Ehz.s 			page 13


 679              	.LVL69:
 680 0000 10B5     		push	{r4, lr}
 681              	.LCFI14:
 682              		.cfi_def_cfa_offset 8
 683              		.cfi_offset 4, -8
 684              		.cfi_offset 14, -4
 685              		.loc 1 250 0
 686 0002 0446     		mov	r4, r0
 687              		.loc 1 242 0
 688 0004 86B0     		sub	sp, sp, #24
 689              	.LCFI15:
 690              		.cfi_def_cfa_offset 32
 691              		.loc 1 250 0
 692 0006 70B1     		cbz	r0, .L100
 693              		.loc 1 252 0
 694 0008 094B     		ldr	r3, .L101
 695              		.loc 1 253 0
 696 000a 0190     		str	r0, [sp, #4]
 697              		.loc 1 257 0
 698 000c 6846     		mov	r0, sp
 699              	.LVL70:
 700              		.loc 1 252 0
 701 000e 0093     		str	r3, [sp, #0]
 702              		.loc 1 257 0
 703 0010 FFF7FEFF 		bl	tcpip_apimsg
 704              	.LVL71:
 705              		.loc 1 259 0
 706 0014 94F90810 		ldrsb	r1, [r4, #8]
 707 0018 11F10903 		adds	r3, r1, #9
 708 001c A8BF     		it	ge
 709 001e 2072     		strbge	r0, [r4, #8]
 710              	.LVL72:
 711              	.L99:
 712              		.loc 1 266 0
 713 0020 40B2     		sxtb	r0, r0
 714 0022 06B0     		add	sp, sp, #24
 715 0024 10BD     		pop	{r4, pc}
 716              	.LVL73:
 717              	.L100:
 718              		.loc 1 250 0 discriminator 1
 719 0026 FFF7FEFF 		bl	port_halt
 720              	.LVL74:
 721 002a F220     		movs	r0, #242
 722 002c F8E7     		b	.L99
 723              	.L102:
 724 002e 00BF     		.align	2
 725              	.L101:
 726 0030 00000000 		.word	do_listen
 727              		.cfi_endproc
 728              	.LFE13:
 729              		.size	netconn_listen_with_backlog, .-netconn_listen_with_backlog
 730 0034 AFF30080 		.section	.text.netconn_accept,"ax",%progbits
 730      AFF30080 
 730      AFF30080 
 731              		.align	2
 732              		.p2align 4,,15
 733              		.global	netconn_accept
ARM GAS  C:\Users\jenny\AppData\Local\Temp\cc0Y1Ehz.s 			page 14


 734              		.thumb
 735              		.thumb_func
 736              		.type	netconn_accept, %function
 737              	netconn_accept:
 738              	.LFB14:
 739              		.loc 1 278 0
 740              		.cfi_startproc
 741              		@ args = 0, pretend = 0, frame = 8
 742              		@ frame_needed = 0, uses_anonymous_args = 0
 743              	.LVL75:
 744 0000 F0B5     		push	{r4, r5, r6, r7, lr}
 745              	.LCFI16:
 746              		.cfi_def_cfa_offset 20
 747              		.cfi_offset 4, -20
 748              		.cfi_offset 5, -16
 749              		.cfi_offset 6, -12
 750              		.cfi_offset 7, -8
 751              		.cfi_offset 14, -4
 752              		.loc 1 286 0
 753 0002 0D46     		mov	r5, r1
 754              		.loc 1 278 0
 755 0004 83B0     		sub	sp, sp, #12
 756              	.LCFI17:
 757              		.cfi_def_cfa_offset 32
 758              		.loc 1 278 0
 759 0006 0446     		mov	r4, r0
 760              		.loc 1 286 0
 761 0008 0029     		cmp	r1, #0
 762 000a 2ED0     		beq	.L106
 763              		.loc 1 287 0
 764 000c 0026     		movs	r6, #0
 765 000e 0E60     		str	r6, [r1, #0]
 766              		.loc 1 288 0
 767 0010 0028     		cmp	r0, #0
 768 0012 2AD0     		beq	.L106
 769              		.loc 1 289 0
 770 0014 00F11407 		add	r7, r0, #20
 771 0018 3846     		mov	r0, r7
 772              	.LVL76:
 773 001a FFF7FEFF 		bl	sys_mbox_valid
 774              	.LVL77:
 775 001e 0028     		cmp	r0, #0
 776 0020 23D0     		beq	.L106
 777              	.LVL78:
 778              		.loc 1 292 0
 779 0022 94F90800 		ldrsb	r0, [r4, #8]
 780 0026 10F1090F 		cmn	r0, #9
 781 002a 01DA     		bge	.L119
 782              	.LVL79:
 783              	.L105:
 784              		.loc 1 330 0
 785 002c 03B0     		add	sp, sp, #12
 786 002e F0BD     		pop	{r4, r5, r6, r7, pc}
 787              	.LVL80:
 788              	.L119:
 789              		.loc 1 304 0
 790 0030 3846     		mov	r0, r7
ARM GAS  C:\Users\jenny\AppData\Local\Temp\cc0Y1Ehz.s 			page 15


 791 0032 01A9     		add	r1, sp, #4
 792 0034 3246     		mov	r2, r6
 793 0036 FFF7FEFF 		bl	sys_arch_mbox_fetch
 794              	.LVL81:
 795              		.loc 1 307 0
 796 003a A36A     		ldr	r3, [r4, #40]
 797 003c 1BB1     		cbz	r3, .L107
 798              		.loc 1 307 0 is_stmt 0 discriminator 1
 799 003e 2046     		mov	r0, r4
 800 0040 0121     		movs	r1, #1
 801 0042 3246     		mov	r2, r6
 802 0044 9847     		blx	r3
 803              	.LVL82:
 804              	.L107:
 805              		.loc 1 309 0 is_stmt 1
 806 0046 0198     		ldr	r0, [sp, #4]
 807 0048 10B1     		cbz	r0, .L120
 808              		.loc 1 322 0
 809 004a 2860     		str	r0, [r5, #0]
 810 004c 0020     		movs	r0, #0
 811 004e EDE7     		b	.L105
 812              	.L120:
 813              		.loc 1 311 0
 814 0050 94F90810 		ldrsb	r1, [r4, #8]
 815 0054 11F10903 		adds	r3, r1, #9
 816 0058 04DB     		blt	.L109
 817              		.loc 1 311 0 is_stmt 0 discriminator 1
 818 005a F622     		movs	r2, #246
 819 005c 2272     		strb	r2, [r4, #8]
 820 005e 6FF00900 		mvn	r0, #9
 821 0062 E3E7     		b	.L105
 822              	.L109:
 823 0064 6FF00900 		mvn	r0, #9
 824 0068 E0E7     		b	.L105
 825              	.LVL83:
 826              	.L106:
 827              		.loc 1 286 0 is_stmt 1 discriminator 1
 828 006a FFF7FEFF 		bl	port_halt
 829              	.LVL84:
 830 006e 6FF00D00 		mvn	r0, #13
 831 0072 DBE7     		b	.L105
 832              		.cfi_endproc
 833              	.LFE14:
 834              		.size	netconn_accept, .-netconn_accept
 835 0074 AFF30080 		.section	.text.netconn_recv_tcp_pbuf,"ax",%progbits
 835      AFF30080 
 835      AFF30080 
 836              		.align	2
 837              		.p2align 4,,15
 838              		.global	netconn_recv_tcp_pbuf
 839              		.thumb
 840              		.thumb_func
 841              		.type	netconn_recv_tcp_pbuf, %function
 842              	netconn_recv_tcp_pbuf:
 843              	.LFB16:
 844              		.loc 1 438 0
 845              		.cfi_startproc
ARM GAS  C:\Users\jenny\AppData\Local\Temp\cc0Y1Ehz.s 			page 16


 846              		@ args = 0, pretend = 0, frame = 0
 847              		@ frame_needed = 0, uses_anonymous_args = 0
 848              	.LVL85:
 849 0000 08B5     		push	{r3, lr}
 850              	.LCFI18:
 851              		.cfi_def_cfa_offset 8
 852              		.cfi_offset 3, -8
 853              		.cfi_offset 14, -4
 854              		.loc 1 439 0
 855 0002 30B1     		cbz	r0, .L122
 856              		.loc 1 439 0 is_stmt 0 discriminator 2
 857 0004 0278     		ldrb	r2, [r0, #0]	@ zero_extendqisi2
 858 0006 102A     		cmp	r2, #16
 859 0008 03D1     		bne	.L122
 860              		.loc 1 443 0 is_stmt 1
 861 000a BDE80840 		pop	{r3, lr}
 862              		.loc 1 442 0
 863 000e FFF7FEBF 		b	netconn_recv_data
 864              	.LVL86:
 865              	.L122:
 866              		.loc 1 439 0 discriminator 1
 867 0012 FFF7FEFF 		bl	port_halt
 868              	.LVL87:
 869              		.loc 1 443 0 discriminator 1
 870 0016 6FF00D00 		mvn	r0, #13
 871 001a 08BD     		pop	{r3, pc}
 872              		.cfi_endproc
 873              	.LFE16:
 874              		.size	netconn_recv_tcp_pbuf, .-netconn_recv_tcp_pbuf
 875 001c AFF30080 		.section	.text.netconn_recv,"ax",%progbits
 876              		.align	2
 877              		.p2align 4,,15
 878              		.global	netconn_recv
 879              		.thumb
 880              		.thumb_func
 881              		.type	netconn_recv, %function
 882              	netconn_recv:
 883              	.LFB17:
 884              		.loc 1 455 0
 885              		.cfi_startproc
 886              		@ args = 0, pretend = 0, frame = 8
 887              		@ frame_needed = 0, uses_anonymous_args = 0
 888              	.LVL88:
 889 0000 70B5     		push	{r4, r5, r6, lr}
 890              	.LCFI19:
 891              		.cfi_def_cfa_offset 16
 892              		.cfi_offset 4, -16
 893              		.cfi_offset 5, -12
 894              		.cfi_offset 6, -8
 895              		.cfi_offset 14, -4
 896              		.loc 1 461 0
 897 0002 0D46     		mov	r5, r1
 898              		.loc 1 455 0
 899 0004 82B0     		sub	sp, sp, #8
 900              	.LCFI20:
 901              		.cfi_def_cfa_offset 24
 902              		.loc 1 455 0
ARM GAS  C:\Users\jenny\AppData\Local\Temp\cc0Y1Ehz.s 			page 17


 903 0006 0446     		mov	r4, r0
 904              		.loc 1 461 0
 905 0008 0029     		cmp	r1, #0
 906 000a 3DD0     		beq	.L132
 907              		.loc 1 462 0
 908 000c 0026     		movs	r6, #0
 909 000e 0E60     		str	r6, [r1, #0]
 910              		.loc 1 463 0
 911 0010 0028     		cmp	r0, #0
 912 0012 39D0     		beq	.L132
 913              		.loc 1 464 0
 914 0014 00F11000 		add	r0, r0, #16
 915              	.LVL89:
 916 0018 FFF7FEFF 		bl	sys_mbox_valid
 917              	.LVL90:
 918 001c 0028     		cmp	r0, #0
 919 001e 2FD0     		beq	.L143
 920              		.loc 1 468 0
 921 0020 2378     		ldrb	r3, [r4, #0]	@ zero_extendqisi2
 922 0022 102B     		cmp	r3, #16
 923 0024 07D0     		beq	.L144
 924              		.loc 1 501 0
 925 0026 2046     		mov	r0, r4
 926 0028 2946     		mov	r1, r5
 927 002a FFF7FEFF 		bl	netconn_recv_data
 928              	.LVL91:
 929 002e 0446     		mov	r4, r0
 930              	.LVL92:
 931              	.L131:
 932              		.loc 1 504 0
 933 0030 60B2     		sxtb	r0, r4
 934 0032 02B0     		add	sp, sp, #8
 935 0034 70BD     		pop	{r4, r5, r6, pc}
 936              	.LVL93:
 937              	.L144:
 938              	.LBB2:
 939              		.loc 1 474 0
 940 0036 0720     		movs	r0, #7
 941              		.loc 1 471 0
 942 0038 0196     		str	r6, [sp, #4]
 943              	.LVL94:
 944              		.loc 1 474 0
 945 003a FFF7FEFF 		bl	memp_malloc
 946              	.LVL95:
 947              		.loc 1 475 0
 948 003e 0646     		mov	r6, r0
 949 0040 70B1     		cbz	r0, .L145
 950              		.loc 1 480 0
 951 0042 2046     		mov	r0, r4
 952              	.LVL96:
 953 0044 01A9     		add	r1, sp, #4
 954 0046 FFF7FEFF 		bl	netconn_recv_data
 955              	.LVL97:
 956              		.loc 1 481 0
 957 004a 0446     		mov	r4, r0
 958              	.LVL98:
 959 004c 88B9     		cbnz	r0, .L146
ARM GAS  C:\Users\jenny\AppData\Local\Temp\cc0Y1Ehz.s 			page 18


 960              		.loc 1 485 0
 961 004e 0198     		ldr	r0, [sp, #4]
 962              	.LVL99:
 963 0050 F0B1     		cbz	r0, .L147
 964              	.L138:
 965              		.loc 1 489 0
 966 0052 0022     		movs	r2, #0
 967              		.loc 1 487 0
 968 0054 3060     		str	r0, [r6, #0]
 969              		.loc 1 488 0
 970 0056 7060     		str	r0, [r6, #4]
 971              		.loc 1 489 0
 972 0058 B281     		strh	r2, [r6, #12]	@ movhi
 973              		.loc 1 490 0
 974 005a B260     		str	r2, [r6, #8]
 975              		.loc 1 491 0
 976 005c 2E60     		str	r6, [r5, #0]
 977 005e E7E7     		b	.L131
 978              	.LVL100:
 979              	.L145:
 980              		.loc 1 476 0
 981 0060 94F90810 		ldrsb	r1, [r4, #8]
 982 0064 11F10903 		adds	r3, r1, #9
 983 0068 08DB     		blt	.L139
 984              		.loc 1 476 0 is_stmt 0 discriminator 1
 985 006a FF23     		movs	r3, #255
 986 006c 2372     		strb	r3, [r4, #8]
 987              		.loc 1 477 0 is_stmt 1 discriminator 1
 988 006e 1C46     		mov	r4, r3
 989              	.LVL101:
 990 0070 DEE7     		b	.L131
 991              	.LVL102:
 992              	.L146:
 993              		.loc 1 482 0
 994 0072 0720     		movs	r0, #7
 995              	.LVL103:
 996 0074 3146     		mov	r1, r6
 997 0076 FFF7FEFF 		bl	memp_free
 998              	.LVL104:
 999 007a D9E7     		b	.L131
 1000              	.LVL105:
 1001              	.L139:
 1002              		.loc 1 477 0
 1003 007c FF24     		movs	r4, #255
 1004              	.LVL106:
 1005 007e D7E7     		b	.L131
 1006              	.LVL107:
 1007              	.L143:
 1008              	.LBE2:
 1009              		.loc 1 464 0 discriminator 1
 1010 0080 FFF7FEFF 		bl	port_halt
 1011              	.LVL108:
 1012 0084 F324     		movs	r4, #243
 1013              	.LVL109:
 1014 0086 D3E7     		b	.L131
 1015              	.LVL110:
 1016              	.L132:
ARM GAS  C:\Users\jenny\AppData\Local\Temp\cc0Y1Ehz.s 			page 19


 1017              		.loc 1 461 0 discriminator 1
 1018 0088 FFF7FEFF 		bl	port_halt
 1019              	.LVL111:
 1020 008c F224     		movs	r4, #242
 1021              	.LVL112:
 1022 008e CFE7     		b	.L131
 1023              	.LVL113:
 1024              	.L147:
 1025              	.LBB3:
 1026              		.loc 1 485 0 discriminator 1
 1027 0090 FFF7FEFF 		bl	port_halt
 1028              	.LVL114:
 1029 0094 0198     		ldr	r0, [sp, #4]
 1030 0096 DCE7     		b	.L138
 1031              	.LBE3:
 1032              		.cfi_endproc
 1033              	.LFE17:
 1034              		.size	netconn_recv, .-netconn_recv
 1035 0098 AFF30080 		.section	.text.netconn_recved,"ax",%progbits
 1035      AFF30080 
 1036              		.align	2
 1037              		.p2align 4,,15
 1038              		.global	netconn_recved
 1039              		.thumb
 1040              		.thumb_func
 1041              		.type	netconn_recved, %function
 1042              	netconn_recved:
 1043              	.LFB18:
 1044              		.loc 1 518 0
 1045              		.cfi_startproc
 1046              		@ args = 0, pretend = 0, frame = 24
 1047              		@ frame_needed = 0, uses_anonymous_args = 0
 1048              	.LVL115:
 1049 0000 00B5     		push	{lr}
 1050              	.LCFI21:
 1051              		.cfi_def_cfa_offset 4
 1052              		.cfi_offset 14, -4
 1053 0002 87B0     		sub	sp, sp, #28
 1054              	.LCFI22:
 1055              		.cfi_def_cfa_offset 32
 1056              		.loc 1 520 0
 1057 0004 10B1     		cbz	r0, .L148
 1058              		.loc 1 520 0 is_stmt 0 discriminator 1
 1059 0006 0378     		ldrb	r3, [r0, #0]	@ zero_extendqisi2
 1060 0008 102B     		cmp	r3, #16
 1061 000a 01D0     		beq	.L156
 1062              	.LVL116:
 1063              	.L148:
 1064              		.loc 1 536 0 is_stmt 1
 1065 000c 07B0     		add	sp, sp, #28
 1066 000e 00BD     		pop	{pc}
 1067              	.LVL117:
 1068              	.L156:
 1069              		.loc 1 521 0 discriminator 1
 1070 0010 027F     		ldrb	r2, [r0, #28]	@ zero_extendqisi2
 1071              		.loc 1 520 0 discriminator 1
 1072 0012 02F00803 		and	r3, r2, #8
ARM GAS  C:\Users\jenny\AppData\Local\Temp\cc0Y1Ehz.s 			page 20


 1073 0016 DAB2     		uxtb	r2, r3
 1074 0018 002A     		cmp	r2, #0
 1075 001a F7D0     		beq	.L148
 1076              	.LBB4:
 1077              		.loc 1 526 0
 1078 001c 034B     		ldr	r3, .L157
 1079              		.loc 1 527 0
 1080 001e 0190     		str	r0, [sp, #4]
 1081              		.loc 1 530 0
 1082 0020 6846     		mov	r0, sp
 1083              	.LVL118:
 1084              		.loc 1 526 0
 1085 0022 0093     		str	r3, [sp, #0]
 1086              		.loc 1 528 0
 1087 0024 0391     		str	r1, [sp, #12]
 1088              		.loc 1 530 0
 1089 0026 FFF7FEFF 		bl	tcpip_apimsg
 1090              	.LVL119:
 1091 002a EFE7     		b	.L148
 1092              	.L158:
 1093              		.align	2
 1094              	.L157:
 1095 002c 00000000 		.word	do_recv
 1096              	.LBE4:
 1097              		.cfi_endproc
 1098              	.LFE18:
 1099              		.size	netconn_recved, .-netconn_recved
 1100              		.section	.text.netconn_send,"ax",%progbits
 1101              		.align	2
 1102              		.p2align 4,,15
 1103              		.global	netconn_send
 1104              		.thumb
 1105              		.thumb_func
 1106              		.type	netconn_send, %function
 1107              	netconn_send:
 1108              	.LFB20:
 1109              		.loc 1 568 0
 1110              		.cfi_startproc
 1111              		@ args = 0, pretend = 0, frame = 24
 1112              		@ frame_needed = 0, uses_anonymous_args = 0
 1113              	.LVL120:
 1114 0000 10B5     		push	{r4, lr}
 1115              	.LCFI23:
 1116              		.cfi_def_cfa_offset 8
 1117              		.cfi_offset 4, -8
 1118              		.cfi_offset 14, -4
 1119              		.loc 1 572 0
 1120 0002 0446     		mov	r4, r0
 1121              		.loc 1 568 0
 1122 0004 86B0     		sub	sp, sp, #24
 1123              	.LCFI24:
 1124              		.cfi_def_cfa_offset 32
 1125              		.loc 1 572 0
 1126 0006 78B1     		cbz	r0, .L162
 1127              		.loc 1 575 0
 1128 0008 094B     		ldr	r3, .L163
 1129              		.loc 1 576 0
ARM GAS  C:\Users\jenny\AppData\Local\Temp\cc0Y1Ehz.s 			page 21


 1130 000a 0190     		str	r0, [sp, #4]
 1131              		.loc 1 578 0
 1132 000c 6846     		mov	r0, sp
 1133              	.LVL121:
 1134              		.loc 1 575 0
 1135 000e 0093     		str	r3, [sp, #0]
 1136              		.loc 1 577 0
 1137 0010 0391     		str	r1, [sp, #12]
 1138              		.loc 1 578 0
 1139 0012 FFF7FEFF 		bl	tcpip_apimsg
 1140              	.LVL122:
 1141              		.loc 1 580 0
 1142 0016 94F90810 		ldrsb	r1, [r4, #8]
 1143 001a 11F10903 		adds	r3, r1, #9
 1144 001e A8BF     		it	ge
 1145 0020 2072     		strbge	r0, [r4, #8]
 1146              	.LVL123:
 1147              	.L161:
 1148              		.loc 1 582 0
 1149 0022 40B2     		sxtb	r0, r0
 1150 0024 06B0     		add	sp, sp, #24
 1151 0026 10BD     		pop	{r4, pc}
 1152              	.LVL124:
 1153              	.L162:
 1154              		.loc 1 572 0 discriminator 1
 1155 0028 FFF7FEFF 		bl	port_halt
 1156              	.LVL125:
 1157 002c F220     		movs	r0, #242
 1158 002e F8E7     		b	.L161
 1159              	.L164:
 1160              		.align	2
 1161              	.L163:
 1162 0030 00000000 		.word	do_send
 1163              		.cfi_endproc
 1164              	.LFE20:
 1165              		.size	netconn_send, .-netconn_send
 1166 0034 AFF30080 		.section	.text.netconn_sendto,"ax",%progbits
 1166      AFF30080 
 1166      AFF30080 
 1167              		.align	2
 1168              		.p2align 4,,15
 1169              		.global	netconn_sendto
 1170              		.thumb
 1171              		.thumb_func
 1172              		.type	netconn_sendto, %function
 1173              	netconn_sendto:
 1174              	.LFB19:
 1175              		.loc 1 550 0
 1176              		.cfi_startproc
 1177              		@ args = 0, pretend = 0, frame = 0
 1178              		@ frame_needed = 0, uses_anonymous_args = 0
 1179              		@ link register save eliminated.
 1180              	.LVL126:
 1181              		.loc 1 551 0
 1182 0000 29B1     		cbz	r1, .L166
 1183              		.loc 1 552 0
 1184 0002 02B1     		cbz	r2, .L167
ARM GAS  C:\Users\jenny\AppData\Local\Temp\cc0Y1Ehz.s 			page 22


 1185              		.loc 1 552 0 is_stmt 0 discriminator 1
 1186 0004 1268     		ldr	r2, [r2, #0]
 1187              	.LVL127:
 1188              	.L167:
 1189              		.loc 1 552 0 discriminator 3
 1190 0006 8A60     		str	r2, [r1, #8]
 1191              		.loc 1 553 0 is_stmt 1 discriminator 3
 1192 0008 8B81     		strh	r3, [r1, #12]	@ movhi
 1193              		.loc 1 557 0 discriminator 3
 1194              		.loc 1 554 0 discriminator 3
 1195 000a FFF7FEBF 		b	netconn_send
 1196              	.LVL128:
 1197              	.L166:
 1198              		.loc 1 557 0
 1199 000e 6FF00500 		mvn	r0, #5
 1200              	.LVL129:
 1201 0012 7047     		bx	lr
 1202              		.cfi_endproc
 1203              	.LFE19:
 1204              		.size	netconn_sendto, .-netconn_sendto
 1205 0014 AFF30080 		.section	.text.netconn_write_partly,"ax",%progbits
 1205      AFF30080 
 1205      AFF30080 
 1206              		.align	2
 1207              		.p2align 4,,15
 1208              		.global	netconn_write_partly
 1209              		.thumb
 1210              		.thumb_func
 1211              		.type	netconn_write_partly, %function
 1212              	netconn_write_partly:
 1213              	.LFB21:
 1214              		.loc 1 600 0
 1215              		.cfi_startproc
 1216              		@ args = 4, pretend = 0, frame = 32
 1217              		@ frame_needed = 0, uses_anonymous_args = 0
 1218              	.LVL130:
 1219 0000 30B5     		push	{r4, r5, lr}
 1220              	.LCFI25:
 1221              		.cfi_def_cfa_offset 12
 1222              		.cfi_offset 4, -12
 1223              		.cfi_offset 5, -8
 1224              		.cfi_offset 14, -4
 1225              		.loc 1 605 0
 1226 0002 0446     		mov	r4, r0
 1227              		.loc 1 600 0
 1228 0004 89B0     		sub	sp, sp, #36
 1229              	.LCFI26:
 1230              		.cfi_def_cfa_offset 48
 1231              		.loc 1 605 0
 1232 0006 0028     		cmp	r0, #0
 1233 0008 46D0     		beq	.L183
 1234              		.loc 1 606 0
 1235 000a 0078     		ldrb	r0, [r0, #0]	@ zero_extendqisi2
 1236              	.LVL131:
 1237 000c 1028     		cmp	r0, #16
 1238 000e 3DD1     		bne	.L184
 1239              		.loc 1 607 0
ARM GAS  C:\Users\jenny\AppData\Local\Temp\cc0Y1Ehz.s 			page 23


 1240 0010 002A     		cmp	r2, #0
 1241 0012 35D0     		beq	.L179
 1242              		.loc 1 610 0
 1243 0014 207F     		ldrb	r0, [r4, #28]	@ zero_extendqisi2
 1244 0016 00F00200 		and	r0, r0, #2
 1245 001a C0B2     		uxtb	r0, r0
 1246 001c B8B1     		cbz	r0, .L185
 1247              	.L173:
 1248              	.LVL132:
 1249              		.loc 1 611 0
 1250 001e 0C98     		ldr	r0, [sp, #48]
 1251 0020 0028     		cmp	r0, #0
 1252 0022 37D0     		beq	.L180
 1253              		.loc 1 618 0
 1254 0024 1E4D     		ldr	r5, .L186
 1255              		.loc 1 619 0
 1256 0026 0394     		str	r4, [sp, #12]
 1257              		.loc 1 636 0
 1258 0028 02A8     		add	r0, sp, #8
 1259              		.loc 1 618 0
 1260 002a 0295     		str	r5, [sp, #8]
 1261              		.loc 1 620 0
 1262 002c 0591     		str	r1, [sp, #20]
 1263              		.loc 1 621 0
 1264 002e 8DF81C30 		strb	r3, [sp, #28]
 1265              		.loc 1 622 0
 1266 0032 0692     		str	r2, [sp, #24]
 1267              		.loc 1 636 0
 1268 0034 FFF7FEFF 		bl	tcpip_apimsg
 1269              	.LVL133:
 1270              		.loc 1 637 0
 1271 0038 0028     		cmp	r0, #0
 1272 003a 23D0     		beq	.L178
 1273              	.LVL134:
 1274              	.L176:
 1275              		.loc 1 651 0
 1276 003c 94F90810 		ldrsb	r1, [r4, #8]
 1277 0040 11F10903 		adds	r3, r1, #9
 1278 0044 00DB     		blt	.L171
 1279              		.loc 1 651 0 is_stmt 0 discriminator 1
 1280 0046 2072     		strb	r0, [r4, #8]
 1281              	.LVL135:
 1282              	.L171:
 1283 0048 40B2     		sxtb	r0, r0
 1284              		.loc 1 653 0 is_stmt 1
 1285 004a 09B0     		add	sp, sp, #36
 1286 004c 30BD     		pop	{r4, r5, pc}
 1287              	.LVL136:
 1288              	.L185:
 1289              		.loc 1 610 0 discriminator 2
 1290 004e 03F00400 		and	r0, r3, #4
 1291 0052 C0B2     		uxtb	r0, r0
 1292 0054 0028     		cmp	r0, #0
 1293 0056 E2D1     		bne	.L173
 1294              	.LVL137:
 1295              		.loc 1 618 0
 1296 0058 114D     		ldr	r5, .L186
ARM GAS  C:\Users\jenny\AppData\Local\Temp\cc0Y1Ehz.s 			page 24


 1297              		.loc 1 622 0
 1298 005a 0692     		str	r2, [sp, #24]
 1299              		.loc 1 636 0
 1300 005c 02A8     		add	r0, sp, #8
 1301 005e 0192     		str	r2, [sp, #4]
 1302              		.loc 1 619 0
 1303 0060 0394     		str	r4, [sp, #12]
 1304              		.loc 1 618 0
 1305 0062 0295     		str	r5, [sp, #8]
 1306              		.loc 1 620 0
 1307 0064 0591     		str	r1, [sp, #20]
 1308              		.loc 1 621 0
 1309 0066 8DF81C30 		strb	r3, [sp, #28]
 1310              		.loc 1 636 0
 1311 006a FFF7FEFF 		bl	tcpip_apimsg
 1312              	.LVL138:
 1313              		.loc 1 637 0
 1314 006e 019A     		ldr	r2, [sp, #4]
 1315 0070 0028     		cmp	r0, #0
 1316 0072 E3D1     		bne	.L176
 1317              		.loc 1 637 0 is_stmt 0 discriminator 1
 1318 0074 0C9B     		ldr	r3, [sp, #48]
 1319 0076 002B     		cmp	r3, #0
 1320 0078 E0D0     		beq	.L176
 1321              		.loc 1 647 0 is_stmt 1
 1322 007a 0C99     		ldr	r1, [sp, #48]
 1323 007c 0A60     		str	r2, [r1, #0]
 1324 007e DDE7     		b	.L176
 1325              	.LVL139:
 1326              	.L179:
 1327              		.loc 1 608 0
 1328 0080 1046     		mov	r0, r2
 1329 0082 E1E7     		b	.L171
 1330              	.LVL140:
 1331              	.L178:
 1332              		.loc 1 644 0
 1333 0084 069B     		ldr	r3, [sp, #24]
 1334 0086 0C9A     		ldr	r2, [sp, #48]
 1335 0088 1360     		str	r3, [r2, #0]
 1336 008a D7E7     		b	.L176
 1337              	.LVL141:
 1338              	.L184:
 1339              		.loc 1 606 0 discriminator 1
 1340 008c FFF7FEFF 		bl	port_halt
 1341              	.LVL142:
 1342 0090 FA20     		movs	r0, #250
 1343 0092 D9E7     		b	.L171
 1344              	.LVL143:
 1345              	.L180:
 1346              		.loc 1 614 0
 1347 0094 FA20     		movs	r0, #250
 1348 0096 D7E7     		b	.L171
 1349              	.LVL144:
 1350              	.L183:
 1351              		.loc 1 605 0 discriminator 1
 1352 0098 FFF7FEFF 		bl	port_halt
 1353              	.LVL145:
ARM GAS  C:\Users\jenny\AppData\Local\Temp\cc0Y1Ehz.s 			page 25


 1354 009c F220     		movs	r0, #242
 1355 009e D3E7     		b	.L171
 1356              	.L187:
 1357              		.align	2
 1358              	.L186:
 1359 00a0 00000000 		.word	do_write
 1360              		.cfi_endproc
 1361              	.LFE21:
 1362              		.size	netconn_write_partly, .-netconn_write_partly
 1363 00a4 AFF30080 		.section	.text.netconn_close,"ax",%progbits
 1363      AFF30080 
 1363      AFF30080 
 1364              		.align	2
 1365              		.p2align 4,,15
 1366              		.global	netconn_close
 1367              		.thumb
 1368              		.thumb_func
 1369              		.type	netconn_close, %function
 1370              	netconn_close:
 1371              	.LFB23:
 1372              		.loc 1 690 0
 1373              		.cfi_startproc
 1374              		@ args = 0, pretend = 0, frame = 24
 1375              		@ frame_needed = 0, uses_anonymous_args = 0
 1376              	.LVL146:
 1377 0000 10B5     		push	{r4, lr}
 1378              	.LCFI27:
 1379              		.cfi_def_cfa_offset 8
 1380              		.cfi_offset 4, -8
 1381              		.cfi_offset 14, -4
 1382              	.LBB7:
 1383              	.LBB8:
 1384              		.loc 1 668 0
 1385 0002 0446     		mov	r4, r0
 1386              	.LBE8:
 1387              	.LBE7:
 1388              		.loc 1 690 0
 1389 0004 86B0     		sub	sp, sp, #24
 1390              	.LCFI28:
 1391              		.cfi_def_cfa_offset 32
 1392              	.LBB11:
 1393              	.LBB9:
 1394              		.loc 1 668 0
 1395 0006 88B1     		cbz	r0, .L191
 1396              		.loc 1 670 0
 1397 0008 0A4B     		ldr	r3, .L192
 1398              		.loc 1 671 0
 1399 000a 0190     		str	r0, [sp, #4]
 1400              		.loc 1 673 0
 1401 000c 0321     		movs	r1, #3
 1402              		.loc 1 676 0
 1403 000e 6846     		mov	r0, sp
 1404              	.LVL147:
 1405              		.loc 1 670 0
 1406 0010 0093     		str	r3, [sp, #0]
 1407              		.loc 1 673 0
 1408 0012 8DF80C10 		strb	r1, [sp, #12]
ARM GAS  C:\Users\jenny\AppData\Local\Temp\cc0Y1Ehz.s 			page 26


 1409              		.loc 1 676 0
 1410 0016 FFF7FEFF 		bl	tcpip_apimsg
 1411              	.LVL148:
 1412              		.loc 1 678 0
 1413 001a 94F90820 		ldrsb	r2, [r4, #8]
 1414 001e 12F10903 		adds	r3, r2, #9
 1415 0022 A8BF     		it	ge
 1416 0024 2072     		strbge	r0, [r4, #8]
 1417              	.LVL149:
 1418              	.L190:
 1419              	.LBE9:
 1420              	.LBE11:
 1421              		.loc 1 693 0
 1422 0026 40B2     		sxtb	r0, r0
 1423 0028 06B0     		add	sp, sp, #24
 1424 002a 10BD     		pop	{r4, pc}
 1425              	.LVL150:
 1426              	.L191:
 1427              	.LBB12:
 1428              	.LBB10:
 1429              		.loc 1 668 0
 1430 002c FFF7FEFF 		bl	port_halt
 1431              	.LVL151:
 1432 0030 F220     		movs	r0, #242
 1433 0032 F8E7     		b	.L190
 1434              	.L193:
 1435              		.align	2
 1436              	.L192:
 1437 0034 00000000 		.word	do_close
 1438              	.LBE10:
 1439              	.LBE12:
 1440              		.cfi_endproc
 1441              	.LFE23:
 1442              		.size	netconn_close, .-netconn_close
 1443 0038 AFF30080 		.section	.text.netconn_shutdown,"ax",%progbits
 1443      AFF30080 
 1444              		.align	2
 1445              		.p2align 4,,15
 1446              		.global	netconn_shutdown
 1447              		.thumb
 1448              		.thumb_func
 1449              		.type	netconn_shutdown, %function
 1450              	netconn_shutdown:
 1451              	.LFB24:
 1452              		.loc 1 703 0
 1453              		.cfi_startproc
 1454              		@ args = 0, pretend = 0, frame = 24
 1455              		@ frame_needed = 0, uses_anonymous_args = 0
 1456              	.LVL152:
 1457 0000 10B5     		push	{r4, lr}
 1458              	.LCFI29:
 1459              		.cfi_def_cfa_offset 8
 1460              		.cfi_offset 4, -8
 1461              		.cfi_offset 14, -4
 1462              		.loc 1 704 0
 1463 0002 002A     		cmp	r2, #0
 1464 0004 14BF     		ite	ne
ARM GAS  C:\Users\jenny\AppData\Local\Temp\cc0Y1Ehz.s 			page 27


 1465 0006 0222     		movne	r2, #2
 1466 0008 0022     		moveq	r2, #0
 1467              	.LVL153:
 1468              		.loc 1 703 0
 1469 000a 86B0     		sub	sp, sp, #24
 1470              	.LCFI30:
 1471              		.cfi_def_cfa_offset 32
 1472              	.LBB15:
 1473              	.LBB16:
 1474              		.loc 1 668 0
 1475 000c 0446     		mov	r4, r0
 1476              	.LBE16:
 1477              	.LBE15:
 1478              		.loc 1 704 0
 1479 000e 0029     		cmp	r1, #0
 1480 0010 0CBF     		ite	eq
 1481 0012 1146     		moveq	r1, r2
 1482 0014 42F00101 		orrne	r1, r2, #1
 1483              	.LVL154:
 1484              	.LBB19:
 1485              	.LBB17:
 1486              		.loc 1 668 0
 1487 0018 80B1     		cbz	r0, .L199
 1488              		.loc 1 670 0
 1489 001a 0A4B     		ldr	r3, .L200
 1490              		.loc 1 671 0
 1491 001c 0190     		str	r0, [sp, #4]
 1492              		.loc 1 676 0
 1493 001e 6846     		mov	r0, sp
 1494              	.LVL155:
 1495              		.loc 1 670 0
 1496 0020 0093     		str	r3, [sp, #0]
 1497              		.loc 1 673 0
 1498 0022 8DF80C10 		strb	r1, [sp, #12]
 1499              		.loc 1 676 0
 1500 0026 FFF7FEFF 		bl	tcpip_apimsg
 1501              	.LVL156:
 1502              		.loc 1 678 0
 1503 002a 94F90820 		ldrsb	r2, [r4, #8]
 1504 002e 12F10903 		adds	r3, r2, #9
 1505 0032 A8BF     		it	ge
 1506 0034 2072     		strbge	r0, [r4, #8]
 1507              	.LVL157:
 1508              	.L197:
 1509              	.LBE17:
 1510              	.LBE19:
 1511              		.loc 1 705 0
 1512 0036 40B2     		sxtb	r0, r0
 1513 0038 06B0     		add	sp, sp, #24
 1514 003a 10BD     		pop	{r4, pc}
 1515              	.LVL158:
 1516              	.L199:
 1517              	.LBB20:
 1518              	.LBB18:
 1519              		.loc 1 668 0
 1520 003c FFF7FEFF 		bl	port_halt
 1521              	.LVL159:
ARM GAS  C:\Users\jenny\AppData\Local\Temp\cc0Y1Ehz.s 			page 28


 1522 0040 F220     		movs	r0, #242
 1523 0042 F8E7     		b	.L197
 1524              	.L201:
 1525              		.align	2
 1526              	.L200:
 1527 0044 00000000 		.word	do_close
 1528              	.LBE18:
 1529              	.LBE20:
 1530              		.cfi_endproc
 1531              	.LFE24:
 1532              		.size	netconn_shutdown, .-netconn_shutdown
 1533 0048 AFF30080 		.text
 1533      AFF30080 
 1534              	.Letext0:
 1535              		.file 2 "c:\\fbin\\yagarto\\bin\\../lib/gcc/arm-none-eabi/4.7.4/include/stddef.h"
 1536              		.file 3 "c:\\fbin\\yagarto\\bin\\../lib/gcc/arm-none-eabi/4.7.4/../../../../arm-none-eabi/include/
 1537              		.file 4 "../../os/ports/GCC/ARMCMx/chtypes.h"
 1538              		.file 5 "../../os/kernel/include/chlists.h"
 1539              		.file 6 "../../os/kernel/include/chthreads.h"
 1540              		.file 7 "../../os/ports/GCC/ARMCMx/chcore_v7m.h"
 1541              		.file 8 "../../os/kernel/include/chsem.h"
 1542              		.file 9 "../../os/kernel/include/chmtx.h"
 1543              		.file 10 "../../os/kernel/include/chmboxes.h"
 1544              		.file 11 "../../os/various/lwip_bindings/arch/cc.h"
 1545              		.file 12 "../../ext/lwip/src/include/lwip/err.h"
 1546              		.file 13 "../../ext/lwip/src/include/lwip/pbuf.h"
 1547              		.file 14 "../../ext/lwip/src/include/ipv4/lwip/ip_addr.h"
 1548              		.file 15 "../../ext/lwip/src/include/lwip/netbuf.h"
 1549              		.file 16 "../../os/various/lwip_bindings/arch/sys_arch.h"
 1550              		.file 17 "../../ext/lwip/src/include/lwip/api.h"
 1551              		.file 18 "../../ext/lwip/src/include/ipv4/lwip/ip.h"
 1552              		.file 19 "../../ext/lwip/src/include/lwip/tcp.h"
 1553              		.file 20 "../../ext/lwip/src/include/lwip/udp.h"
 1554              		.file 21 "../../ext/lwip/src/include/lwip/raw.h"
 1555              		.file 22 "../../ext/lwip/src/include/lwip/api_msg.h"
 1556              		.file 23 "../../ext/lwip/src/include/lwip/memp.h"
 1557              		.file 24 "../../ext/lwip/src/include/lwip/sys.h"
 1558              		.file 25 "../../ext/lwip/src/include/lwip/tcpip.h"