ARM GAS  C:\Users\jenny\AppData\Local\Temp\ccuytcgf.s 			page 1


   1              		.syntax unified
   2              		.cpu cortex-m4
   3              		.eabi_attribute 27, 3
   4              		.fpu fpv4-sp-d16
   5              		.eabi_attribute 20, 1
   6              		.eabi_attribute 21, 1
   7              		.eabi_attribute 23, 3
   8              		.eabi_attribute 24, 1
   9              		.eabi_attribute 25, 1
  10              		.eabi_attribute 26, 1
  11              		.eabi_attribute 30, 2
  12              		.eabi_attribute 34, 1
  13              		.eabi_attribute 18, 4
  14              		.thumb
  15              		.file	"board.c"
  16              		.text
  17              	.Ltext0:
  18              		.cfi_sections	.debug_frame
  19              		.section	.text.__early_init,"ax",%progbits
  20              		.align	2
  21              		.p2align 4,,15
  22              		.global	__early_init
  23              		.thumb
  24              		.thumb_func
  25              		.type	__early_init, %function
  26              	__early_init:
  27              	.LFB118:
  28              		.file 1 "../../boards/OLIMEX_STM32_E407/board.c"
  29              		.loc 1 54 0
  30              		.cfi_startproc
  31              		@ args = 0, pretend = 0, frame = 0
  32              		@ frame_needed = 0, uses_anonymous_args = 0
  33              		@ link register save eliminated.
  34              		.loc 1 57 0
  35              		.loc 1 56 0
  36 0000 FFF7FEBF 		b	stm32_clock_init
  37              	.LVL0:
  38              		.cfi_endproc
  39              	.LFE118:
  40              		.size	__early_init, .-__early_init
  41 0004 AFF30080 		.section	.text.sdc_lld_is_card_inserted,"ax",%progbits
  41      AFF30080 
  41      AFF30080 
  42              		.align	2
  43              		.p2align 4,,15
  44              		.global	sdc_lld_is_card_inserted
  45              		.thumb
  46              		.thumb_func
  47              		.type	sdc_lld_is_card_inserted, %function
  48              	sdc_lld_is_card_inserted:
  49              	.LFB119:
  50              		.loc 1 63 0
  51              		.cfi_startproc
  52              		@ args = 0, pretend = 0, frame = 0
  53              		@ frame_needed = 0, uses_anonymous_args = 0
  54              		@ link register save eliminated.
  55              	.LVL1:
ARM GAS  C:\Users\jenny\AppData\Local\Temp\ccuytcgf.s 			page 2


  56              		.loc 1 66 0
  57 0000 0379     		ldrb	r3, [r0, #4]	@ zero_extendqisi2
  58 0002 DA1E     		subs	r2, r3, #3
  59 0004 012A     		cmp	r2, #1
  60 0006 0DD9     		bls	.L3
  61              		.loc 1 66 0 is_stmt 0 discriminator 1
  62 0008 062B     		cmp	r3, #6
  63 000a 0BD0     		beq	.L3
  64 000c 072B     		cmp	r3, #7
  65 000e 09D0     		beq	.L3
  66              		.loc 1 68 0 is_stmt 1
  67 0010 4FF40060 		mov	r0, #2048
  68              	.LVL2:
  69 0014 C4F20200 		movt	r0, 16386
  70 0018 044B     		ldr	r3, .L10
  71 001a 0169     		ldr	r1, [r0, #16]
  72 001c C1F3C020 		ubfx	r0, r1, #11, #1
  73 0020 1870     		strb	r0, [r3, #0]
  74              		.loc 1 69 0
  75 0022 7047     		bx	lr
  76              	.LVL3:
  77              	.L3:
  78              		.loc 1 67 0
  79 0024 014A     		ldr	r2, .L10
  80 0026 1078     		ldrb	r0, [r2, #0]	@ zero_extendqisi2
  81              	.LVL4:
  82 0028 7047     		bx	lr
  83              	.L11:
  84 002a 00BF     		.align	2
  85              	.L10:
  86 002c 00000000 		.word	.LANCHOR0
  87              		.cfi_endproc
  88              	.LFE119:
  89              		.size	sdc_lld_is_card_inserted, .-sdc_lld_is_card_inserted
  90              		.section	.text.sdc_lld_is_write_protected,"ax",%progbits
  91              		.align	2
  92              		.p2align 4,,15
  93              		.global	sdc_lld_is_write_protected
  94              		.thumb
  95              		.thumb_func
  96              		.type	sdc_lld_is_write_protected, %function
  97              	sdc_lld_is_write_protected:
  98              	.LFB120:
  99              		.loc 1 74 0
 100              		.cfi_startproc
 101              		@ args = 0, pretend = 0, frame = 0
 102              		@ frame_needed = 0, uses_anonymous_args = 0
 103              		@ link register save eliminated.
 104              	.LVL5:
 105              		.loc 1 78 0
 106 0000 0020     		movs	r0, #0
 107              	.LVL6:
 108 0002 7047     		bx	lr
 109              		.cfi_endproc
 110              	.LFE120:
 111              		.size	sdc_lld_is_write_protected, .-sdc_lld_is_write_protected
 112 0004 AFF30080 		.section	.text.boardInit,"ax",%progbits
ARM GAS  C:\Users\jenny\AppData\Local\Temp\ccuytcgf.s 			page 3


 112      AFF30080 
 112      AFF30080 
 113              		.align	2
 114              		.p2align 4,,15
 115              		.global	boardInit
 116              		.thumb
 117              		.thumb_func
 118              		.type	boardInit, %function
 119              	boardInit:
 120              	.LFB121:
 121              		.loc 1 107 0
 122              		.cfi_startproc
 123              		@ args = 0, pretend = 0, frame = 0
 124              		@ frame_needed = 0, uses_anonymous_args = 0
 125              		@ link register save eliminated.
 126 0000 7047     		bx	lr
 127              		.cfi_endproc
 128              	.LFE121:
 129              		.size	boardInit, .-boardInit
 130              		.global	pal_default_config
 131 0002 00BFAFF3 		.section	.rodata.pal_default_config,"a",%progbits
 131      0080AFF3 
 131      0080AFF3 
 131      0080
 132              		.align	2
 133              		.type	pal_default_config, %object
 134              		.size	pal_default_config, 252
 135              	pal_default_config:
 136 0000 2880A1AA 		.word	-1432256472
 137 0004 00000000 		.word	0
 138 0008 FFFFFFFF 		.word	-1
 139 000c 00150820 		.word	537400576
 140 0010 FFFF0000 		.word	65535
 141 0014 B00B00B0 		.word	-1342174288
 142 0018 00AA0A00 		.word	698880
 143 001c 81022AA2 		.word	-1574305151
 144 0020 00030000 		.word	768
 145 0024 FFFFFFFF 		.word	-1
 146 0028 00544008 		.word	138433536
 147 002c FFFF0000 		.word	65535
 148 0030 00000000 		.word	0
 149 0034 44050CCC 		.word	-871627452
 150 0038 A8AAAA06 		.word	111848104
 151 003c 00000000 		.word	0
 152 0040 FFFFFFFF 		.word	-1
 153 0044 01000000 		.word	1
 154 0048 FFFF0000 		.word	65535
 155 004c B055BB88 		.word	-2000988752
 156 0050 CCCC0C00 		.word	838860
 157 0054 20000000 		.word	32
 158 0058 00000000 		.word	0
 159 005c FFFFFFFF 		.word	-1
 160 0060 45555555 		.word	1431655749
 161 0064 FFFF0000 		.word	65535
 162 0068 000C0000 		.word	3072
 163 006c 00000000 		.word	0
 164 0070 00000000 		.word	0
ARM GAS  C:\Users\jenny\AppData\Local\Temp\ccuytcgf.s 			page 4


 165 0074 00000000 		.word	0
 166 0078 FFFFFFFF 		.word	-1
 167 007c 55555555 		.word	1431655765
 168 0080 FFFF0000 		.word	65535
 169 0084 00000000 		.word	0
 170 0088 00000000 		.word	0
 171 008c 00000000 		.word	0
 172 0090 00000000 		.word	0
 173 0094 FFFFFFFF 		.word	-1
 174 0098 55551555 		.word	1427461461
 175 009c FFFF0000 		.word	65535
 176 00a0 00000000 		.word	0
 177 00a4 00000000 		.word	0
 178 00a8 00009028 		.word	680525824
 179 00ac 00000000 		.word	0
 180 00b0 FFFFFFFF 		.word	-1
 181 00b4 55550541 		.word	1090868565
 182 00b8 FFFF0000 		.word	65535
 183 00bc 00000000 		.word	0
 184 00c0 00B0B00B 		.word	196128768
 185 00c4 00000000 		.word	0
 186 00c8 00000000 		.word	0
 187 00cc FFFFFFFF 		.word	-1
 188 00d0 50555555 		.word	1431655760
 189 00d4 FFFF0000 		.word	65535
 190 00d8 00000000 		.word	0
 191 00dc 00000000 		.word	0
 192 00e0 00000000 		.word	0
 193 00e4 00000000 		.word	0
 194 00e8 FFFFFFFF 		.word	-1
 195 00ec 55555555 		.word	1431655765
 196 00f0 FFFF0000 		.word	65535
 197 00f4 00000000 		.word	0
 198 00f8 00000000 		.word	0
 199              		.section	.bss.last_status.7082,"aw",%nobits
 200              		.set	.LANCHOR0,. + 0
 201              		.type	last_status.7082, %object
 202              		.size	last_status.7082, 1
 203              	last_status.7082:
 204 0000 00       		.space	1
 205              		.text
 206              	.Letext0:
 207              		.file 2 "c:\\fbin\\yagarto\\bin\\../lib/gcc/arm-none-eabi/4.7.4/../../../../arm-none-eabi/include/
 208              		.file 3 "../../os/ports/GCC/ARMCMx/chtypes.h"
 209              		.file 4 "../../os/kernel/include/chlists.h"
 210              		.file 5 "../../os/kernel/include/chthreads.h"
 211              		.file 6 "../../os/ports/GCC/ARMCMx/chcore_v7m.h"
 212              		.file 7 "../../os/kernel/include/chmtx.h"
 213              		.file 8 "../../os/hal/platforms/STM32F4xx/stm32f4xx.h"
 214              		.file 9 "../../os/hal/platforms/STM32F4xx/stm32_dma.h"
 215              		.file 10 "../../os/hal/include/io_block.h"
 216              		.file 11 "../../os/hal/platforms/STM32/GPIOv2/pal_lld.h"
 217              		.file 12 "../../os/hal/platforms/STM32/sdc_lld.h"
 218              		.file 13 "../../os/ports/common/ARMCMx/CMSIS/include/core_cm4.h"
 219              		.file 14 "../../os/hal/platforms/STM32F4xx/hal_lld.h"
 220              		.section	.debug_info,"",%progbits
 221              	.Ldebug_info0:
ARM GAS  C:\Users\jenny\AppData\Local\Temp\ccuytcgf.s 			page 5


 222 0000 360B0000 		.4byte	0xb36
 223 0004 0200     		.2byte	0x2
 224 0006 00000000 		.4byte	.Ldebug_abbrev0
 225 000a 04       		.byte	0x4
 226 000b 01       		.uleb128 0x1
 227 000c 1B010000 		.4byte	.LASF134
 228 0010 01       		.byte	0x1
 229 0011 A0020000 		.4byte	.LASF135
 230 0015 18050000 		.4byte	.LASF136
 231 0019 00000000 		.4byte	.Ldebug_ranges0+0
 232 001d 00000000 		.4byte	0
 233 0021 00000000 		.4byte	0
 234 0025 00000000 		.4byte	.Ldebug_line0
 235 0029 02       		.uleb128 0x2
 236 002a 04       		.byte	0x4
 237 002b 05       		.byte	0x5
 238 002c 696E7400 		.ascii	"int\000"
 239 0030 03       		.uleb128 0x3
 240 0031 04       		.byte	0x4
 241 0032 07       		.byte	0x7
 242 0033 05020000 		.4byte	.LASF0
 243 0037 03       		.uleb128 0x3
 244 0038 01       		.byte	0x1
 245 0039 06       		.byte	0x6
 246 003a D2000000 		.4byte	.LASF1
 247 003e 04       		.uleb128 0x4
 248 003f 05050000 		.4byte	.LASF4
 249 0043 02       		.byte	0x2
 250 0044 2A       		.byte	0x2a
 251 0045 49000000 		.4byte	0x49
 252 0049 03       		.uleb128 0x3
 253 004a 01       		.byte	0x1
 254 004b 08       		.byte	0x8
 255 004c BD030000 		.4byte	.LASF2
 256 0050 03       		.uleb128 0x3
 257 0051 02       		.byte	0x2
 258 0052 05       		.byte	0x5
 259 0053 DA030000 		.4byte	.LASF3
 260 0057 04       		.uleb128 0x4
 261 0058 12020000 		.4byte	.LASF5
 262 005c 02       		.byte	0x2
 263 005d 36       		.byte	0x36
 264 005e 62000000 		.4byte	0x62
 265 0062 03       		.uleb128 0x3
 266 0063 02       		.byte	0x2
 267 0064 07       		.byte	0x7
 268 0065 4E020000 		.4byte	.LASF6
 269 0069 04       		.uleb128 0x4
 270 006a B5030000 		.4byte	.LASF7
 271 006e 02       		.byte	0x2
 272 006f 4F       		.byte	0x4f
 273 0070 74000000 		.4byte	0x74
 274 0074 03       		.uleb128 0x3
 275 0075 04       		.byte	0x4
 276 0076 05       		.byte	0x5
 277 0077 6A010000 		.4byte	.LASF8
 278 007b 04       		.uleb128 0x4
ARM GAS  C:\Users\jenny\AppData\Local\Temp\ccuytcgf.s 			page 6


 279 007c 43040000 		.4byte	.LASF9
 280 0080 02       		.byte	0x2
 281 0081 50       		.byte	0x50
 282 0082 86000000 		.4byte	0x86
 283 0086 03       		.uleb128 0x3
 284 0087 04       		.byte	0x4
 285 0088 07       		.byte	0x7
 286 0089 4C040000 		.4byte	.LASF10
 287 008d 03       		.uleb128 0x3
 288 008e 08       		.byte	0x8
 289 008f 05       		.byte	0x5
 290 0090 C4000000 		.4byte	.LASF11
 291 0094 03       		.uleb128 0x3
 292 0095 08       		.byte	0x8
 293 0096 07       		.byte	0x7
 294 0097 76000000 		.4byte	.LASF12
 295 009b 04       		.uleb128 0x4
 296 009c E6000000 		.4byte	.LASF13
 297 00a0 03       		.byte	0x3
 298 00a1 2B       		.byte	0x2b
 299 00a2 A6000000 		.4byte	0xa6
 300 00a6 03       		.uleb128 0x3
 301 00a7 01       		.byte	0x1
 302 00a8 02       		.byte	0x2
 303 00a9 AF030000 		.4byte	.LASF14
 304 00ad 04       		.uleb128 0x4
 305 00ae D6020000 		.4byte	.LASF15
 306 00b2 03       		.byte	0x3
 307 00b3 2C       		.byte	0x2c
 308 00b4 3E000000 		.4byte	0x3e
 309 00b8 04       		.uleb128 0x4
 310 00b9 7A010000 		.4byte	.LASF16
 311 00bd 03       		.byte	0x3
 312 00be 2D       		.byte	0x2d
 313 00bf 3E000000 		.4byte	0x3e
 314 00c3 04       		.uleb128 0x4
 315 00c4 65030000 		.4byte	.LASF17
 316 00c8 03       		.byte	0x3
 317 00c9 2E       		.byte	0x2e
 318 00ca 3E000000 		.4byte	0x3e
 319 00ce 04       		.uleb128 0x4
 320 00cf 06010000 		.4byte	.LASF18
 321 00d3 03       		.byte	0x3
 322 00d4 2F       		.byte	0x2f
 323 00d5 3E000000 		.4byte	0x3e
 324 00d9 04       		.uleb128 0x4
 325 00da A0030000 		.4byte	.LASF19
 326 00de 03       		.byte	0x3
 327 00df 30       		.byte	0x30
 328 00e0 7B000000 		.4byte	0x7b
 329 00e4 04       		.uleb128 0x4
 330 00e5 9A020000 		.4byte	.LASF20
 331 00e9 03       		.byte	0x3
 332 00ea 31       		.byte	0x31
 333 00eb 69000000 		.4byte	0x69
 334 00ef 04       		.uleb128 0x4
 335 00f0 EA020000 		.4byte	.LASF21
ARM GAS  C:\Users\jenny\AppData\Local\Temp\ccuytcgf.s 			page 7


 336 00f4 03       		.byte	0x3
 337 00f5 33       		.byte	0x33
 338 00f6 7B000000 		.4byte	0x7b
 339 00fa 04       		.uleb128 0x4
 340 00fb 8D040000 		.4byte	.LASF22
 341 00ff 03       		.byte	0x3
 342 0100 35       		.byte	0x35
 343 0101 7B000000 		.4byte	0x7b
 344 0105 04       		.uleb128 0x4
 345 0106 CB010000 		.4byte	.LASF23
 346 010a 04       		.byte	0x4
 347 010b 2A       		.byte	0x2a
 348 010c 10010000 		.4byte	0x110
 349 0110 05       		.uleb128 0x5
 350 0111 CB010000 		.4byte	.LASF23
 351 0115 48       		.byte	0x48
 352 0116 05       		.byte	0x5
 353 0117 5E       		.byte	0x5e
 354 0118 35020000 		.4byte	0x235
 355 011c 06       		.uleb128 0x6
 356 011d 10040000 		.4byte	.LASF24
 357 0121 05       		.byte	0x5
 358 0122 5F       		.byte	0x5f
 359 0123 5A020000 		.4byte	0x25a
 360 0127 02       		.byte	0x2
 361 0128 23       		.byte	0x23
 362 0129 00       		.uleb128 0
 363 012a 06       		.uleb128 0x6
 364 012b 86030000 		.4byte	.LASF25
 365 012f 05       		.byte	0x5
 366 0130 61       		.byte	0x61
 367 0131 5A020000 		.4byte	0x25a
 368 0135 02       		.byte	0x2
 369 0136 23       		.byte	0x23
 370 0137 04       		.uleb128 0x4
 371 0138 06       		.uleb128 0x6
 372 0139 BD000000 		.4byte	.LASF26
 373 013d 05       		.byte	0x5
 374 013e 63       		.byte	0x63
 375 013f D9000000 		.4byte	0xd9
 376 0143 02       		.byte	0x2
 377 0144 23       		.byte	0x23
 378 0145 08       		.uleb128 0x8
 379 0146 06       		.uleb128 0x6
 380 0147 C4050000 		.4byte	.LASF27
 381 014b 05       		.byte	0x5
 382 014c 64       		.byte	0x64
 383 014d 18040000 		.4byte	0x418
 384 0151 02       		.byte	0x2
 385 0152 23       		.byte	0x23
 386 0153 0C       		.uleb128 0xc
 387 0154 06       		.uleb128 0x6
 388 0155 83010000 		.4byte	.LASF28
 389 0159 05       		.byte	0x5
 390 015a 66       		.byte	0x66
 391 015b 5A020000 		.4byte	0x25a
 392 015f 02       		.byte	0x2
ARM GAS  C:\Users\jenny\AppData\Local\Temp\ccuytcgf.s 			page 8


 393 0160 23       		.byte	0x23
 394 0161 10       		.uleb128 0x10
 395 0162 06       		.uleb128 0x6
 396 0163 24030000 		.4byte	.LASF29
 397 0167 05       		.byte	0x5
 398 0168 67       		.byte	0x67
 399 0169 5A020000 		.4byte	0x25a
 400 016d 02       		.byte	0x2
 401 016e 23       		.byte	0x23
 402 016f 14       		.uleb128 0x14
 403 0170 06       		.uleb128 0x6
 404 0171 7A050000 		.4byte	.LASF30
 405 0175 05       		.byte	0x5
 406 0176 6E       		.byte	0x6e
 407 0177 C9040000 		.4byte	0x4c9
 408 017b 02       		.byte	0x2
 409 017c 23       		.byte	0x23
 410 017d 18       		.uleb128 0x18
 411 017e 06       		.uleb128 0x6
 412 017f E4030000 		.4byte	.LASF31
 413 0183 05       		.byte	0x5
 414 0184 79       		.byte	0x79
 415 0185 B8000000 		.4byte	0xb8
 416 0189 02       		.byte	0x2
 417 018a 23       		.byte	0x23
 418 018b 1C       		.uleb128 0x1c
 419 018c 06       		.uleb128 0x6
 420 018d FD010000 		.4byte	.LASF32
 421 0191 05       		.byte	0x5
 422 0192 7D       		.byte	0x7d
 423 0193 AD000000 		.4byte	0xad
 424 0197 02       		.byte	0x2
 425 0198 23       		.byte	0x23
 426 0199 1D       		.uleb128 0x1d
 427 019a 06       		.uleb128 0x6
 428 019b E5040000 		.4byte	.LASF33
 429 019f 05       		.byte	0x5
 430 01a0 82       		.byte	0x82
 431 01a1 C3000000 		.4byte	0xc3
 432 01a5 02       		.byte	0x2
 433 01a6 23       		.byte	0x23
 434 01a7 1E       		.uleb128 0x1e
 435 01a8 06       		.uleb128 0x6
 436 01a9 F8030000 		.4byte	.LASF34
 437 01ad 05       		.byte	0x5
 438 01ae 88       		.byte	0x88
 439 01af CE000000 		.4byte	0xce
 440 01b3 02       		.byte	0x2
 441 01b4 23       		.byte	0x23
 442 01b5 1F       		.uleb128 0x1f
 443 01b6 06       		.uleb128 0x6
 444 01b7 28000000 		.4byte	.LASF35
 445 01bb 05       		.byte	0x5
 446 01bc 8F       		.byte	0x8f
 447 01bd 47040000 		.4byte	0x447
 448 01c1 02       		.byte	0x2
 449 01c2 23       		.byte	0x23
ARM GAS  C:\Users\jenny\AppData\Local\Temp\ccuytcgf.s 			page 9


 450 01c3 20       		.uleb128 0x20
 451 01c4 07       		.uleb128 0x7
 452 01c5 705F7500 		.ascii	"p_u\000"
 453 01c9 05       		.byte	0x5
 454 01ca B4       		.byte	0xb4
 455 01cb 94040000 		.4byte	0x494
 456 01cf 02       		.byte	0x2
 457 01d0 23       		.byte	0x23
 458 01d1 24       		.uleb128 0x24
 459 01d2 06       		.uleb128 0x6
 460 01d3 CA050000 		.4byte	.LASF36
 461 01d7 05       		.byte	0x5
 462 01d8 B9       		.byte	0xb9
 463 01d9 82020000 		.4byte	0x282
 464 01dd 02       		.byte	0x2
 465 01de 23       		.byte	0x23
 466 01df 28       		.uleb128 0x28
 467 01e0 06       		.uleb128 0x6
 468 01e1 22020000 		.4byte	.LASF37
 469 01e5 05       		.byte	0x5
 470 01e6 BF       		.byte	0xbf
 471 01e7 60020000 		.4byte	0x260
 472 01eb 02       		.byte	0x2
 473 01ec 23       		.byte	0x23
 474 01ed 2C       		.uleb128 0x2c
 475 01ee 06       		.uleb128 0x6
 476 01ef 88050000 		.4byte	.LASF38
 477 01f3 05       		.byte	0x5
 478 01f4 C3       		.byte	0xc3
 479 01f5 E4000000 		.4byte	0xe4
 480 01f9 02       		.byte	0x2
 481 01fa 23       		.byte	0x23
 482 01fb 34       		.uleb128 0x34
 483 01fc 06       		.uleb128 0x6
 484 01fd 33040000 		.4byte	.LASF39
 485 0201 05       		.byte	0x5
 486 0202 C9       		.byte	0xc9
 487 0203 EF000000 		.4byte	0xef
 488 0207 02       		.byte	0x2
 489 0208 23       		.byte	0x23
 490 0209 38       		.uleb128 0x38
 491 020a 06       		.uleb128 0x6
 492 020b D0030000 		.4byte	.LASF40
 493 020f 05       		.byte	0x5
 494 0210 D0       		.byte	0xd0
 495 0211 DB040000 		.4byte	0x4db
 496 0215 02       		.byte	0x2
 497 0216 23       		.byte	0x23
 498 0217 3C       		.uleb128 0x3c
 499 0218 06       		.uleb128 0x6
 500 0219 97040000 		.4byte	.LASF41
 501 021d 05       		.byte	0x5
 502 021e D4       		.byte	0xd4
 503 021f D9000000 		.4byte	0xd9
 504 0223 02       		.byte	0x2
 505 0224 23       		.byte	0x23
 506 0225 40       		.uleb128 0x40
ARM GAS  C:\Users\jenny\AppData\Local\Temp\ccuytcgf.s 			page 10


 507 0226 06       		.uleb128 0x6
 508 0227 DE000000 		.4byte	.LASF42
 509 022b 05       		.byte	0x5
 510 022c DA       		.byte	0xda
 511 022d 98020000 		.4byte	0x298
 512 0231 02       		.byte	0x2
 513 0232 23       		.byte	0x23
 514 0233 44       		.uleb128 0x44
 515 0234 00       		.byte	0
 516 0235 08       		.uleb128 0x8
 517 0236 08       		.byte	0x8
 518 0237 04       		.byte	0x4
 519 0238 61       		.byte	0x61
 520 0239 5A020000 		.4byte	0x25a
 521 023d 06       		.uleb128 0x6
 522 023e 10040000 		.4byte	.LASF24
 523 0242 04       		.byte	0x4
 524 0243 62       		.byte	0x62
 525 0244 5A020000 		.4byte	0x25a
 526 0248 02       		.byte	0x2
 527 0249 23       		.byte	0x23
 528 024a 00       		.uleb128 0
 529 024b 06       		.uleb128 0x6
 530 024c 86030000 		.4byte	.LASF25
 531 0250 04       		.byte	0x4
 532 0251 64       		.byte	0x64
 533 0252 5A020000 		.4byte	0x25a
 534 0256 02       		.byte	0x2
 535 0257 23       		.byte	0x23
 536 0258 04       		.uleb128 0x4
 537 0259 00       		.byte	0
 538 025a 09       		.uleb128 0x9
 539 025b 04       		.byte	0x4
 540 025c 05010000 		.4byte	0x105
 541 0260 04       		.uleb128 0x4
 542 0261 42030000 		.4byte	.LASF43
 543 0265 04       		.byte	0x4
 544 0266 66       		.byte	0x66
 545 0267 35020000 		.4byte	0x235
 546 026b 08       		.uleb128 0x8
 547 026c 04       		.byte	0x4
 548 026d 04       		.byte	0x4
 549 026e 6B       		.byte	0x6b
 550 026f 82020000 		.4byte	0x282
 551 0273 06       		.uleb128 0x6
 552 0274 10040000 		.4byte	.LASF24
 553 0278 04       		.byte	0x4
 554 0279 6D       		.byte	0x6d
 555 027a 5A020000 		.4byte	0x25a
 556 027e 02       		.byte	0x2
 557 027f 23       		.byte	0x23
 558 0280 00       		.uleb128 0
 559 0281 00       		.byte	0
 560 0282 04       		.uleb128 0x4
 561 0283 DE020000 		.4byte	.LASF44
 562 0287 04       		.byte	0x4
 563 0288 70       		.byte	0x70
ARM GAS  C:\Users\jenny\AppData\Local\Temp\ccuytcgf.s 			page 11


 564 0289 6B020000 		.4byte	0x26b
 565 028d 04       		.uleb128 0x4
 566 028e B2010000 		.4byte	.LASF45
 567 0292 06       		.byte	0x6
 568 0293 E5       		.byte	0xe5
 569 0294 98020000 		.4byte	0x298
 570 0298 0A       		.uleb128 0xa
 571 0299 04       		.byte	0x4
 572 029a 0B       		.uleb128 0xb
 573 029b CD040000 		.4byte	.LASF46
 574 029f 64       		.byte	0x64
 575 02a0 06       		.byte	0x6
 576 02a1 0C01     		.2byte	0x10c
 577 02a3 18040000 		.4byte	0x418
 578 02a7 0C       		.uleb128 0xc
 579 02a8 73313600 		.ascii	"s16\000"
 580 02ac 06       		.byte	0x6
 581 02ad 0E01     		.2byte	0x10e
 582 02af 8D020000 		.4byte	0x28d
 583 02b3 02       		.byte	0x2
 584 02b4 23       		.byte	0x23
 585 02b5 00       		.uleb128 0
 586 02b6 0C       		.uleb128 0xc
 587 02b7 73313700 		.ascii	"s17\000"
 588 02bb 06       		.byte	0x6
 589 02bc 0F01     		.2byte	0x10f
 590 02be 8D020000 		.4byte	0x28d
 591 02c2 02       		.byte	0x2
 592 02c3 23       		.byte	0x23
 593 02c4 04       		.uleb128 0x4
 594 02c5 0C       		.uleb128 0xc
 595 02c6 73313800 		.ascii	"s18\000"
 596 02ca 06       		.byte	0x6
 597 02cb 1001     		.2byte	0x110
 598 02cd 8D020000 		.4byte	0x28d
 599 02d1 02       		.byte	0x2
 600 02d2 23       		.byte	0x23
 601 02d3 08       		.uleb128 0x8
 602 02d4 0C       		.uleb128 0xc
 603 02d5 73313900 		.ascii	"s19\000"
 604 02d9 06       		.byte	0x6
 605 02da 1101     		.2byte	0x111
 606 02dc 8D020000 		.4byte	0x28d
 607 02e0 02       		.byte	0x2
 608 02e1 23       		.byte	0x23
 609 02e2 0C       		.uleb128 0xc
 610 02e3 0C       		.uleb128 0xc
 611 02e4 73323000 		.ascii	"s20\000"
 612 02e8 06       		.byte	0x6
 613 02e9 1201     		.2byte	0x112
 614 02eb 8D020000 		.4byte	0x28d
 615 02ef 02       		.byte	0x2
 616 02f0 23       		.byte	0x23
 617 02f1 10       		.uleb128 0x10
 618 02f2 0C       		.uleb128 0xc
 619 02f3 73323100 		.ascii	"s21\000"
 620 02f7 06       		.byte	0x6
ARM GAS  C:\Users\jenny\AppData\Local\Temp\ccuytcgf.s 			page 12


 621 02f8 1301     		.2byte	0x113
 622 02fa 8D020000 		.4byte	0x28d
 623 02fe 02       		.byte	0x2
 624 02ff 23       		.byte	0x23
 625 0300 14       		.uleb128 0x14
 626 0301 0C       		.uleb128 0xc
 627 0302 73323200 		.ascii	"s22\000"
 628 0306 06       		.byte	0x6
 629 0307 1401     		.2byte	0x114
 630 0309 8D020000 		.4byte	0x28d
 631 030d 02       		.byte	0x2
 632 030e 23       		.byte	0x23
 633 030f 18       		.uleb128 0x18
 634 0310 0C       		.uleb128 0xc
 635 0311 73323300 		.ascii	"s23\000"
 636 0315 06       		.byte	0x6
 637 0316 1501     		.2byte	0x115
 638 0318 8D020000 		.4byte	0x28d
 639 031c 02       		.byte	0x2
 640 031d 23       		.byte	0x23
 641 031e 1C       		.uleb128 0x1c
 642 031f 0C       		.uleb128 0xc
 643 0320 73323400 		.ascii	"s24\000"
 644 0324 06       		.byte	0x6
 645 0325 1601     		.2byte	0x116
 646 0327 8D020000 		.4byte	0x28d
 647 032b 02       		.byte	0x2
 648 032c 23       		.byte	0x23
 649 032d 20       		.uleb128 0x20
 650 032e 0C       		.uleb128 0xc
 651 032f 73323500 		.ascii	"s25\000"
 652 0333 06       		.byte	0x6
 653 0334 1701     		.2byte	0x117
 654 0336 8D020000 		.4byte	0x28d
 655 033a 02       		.byte	0x2
 656 033b 23       		.byte	0x23
 657 033c 24       		.uleb128 0x24
 658 033d 0C       		.uleb128 0xc
 659 033e 73323600 		.ascii	"s26\000"
 660 0342 06       		.byte	0x6
 661 0343 1801     		.2byte	0x118
 662 0345 8D020000 		.4byte	0x28d
 663 0349 02       		.byte	0x2
 664 034a 23       		.byte	0x23
 665 034b 28       		.uleb128 0x28
 666 034c 0C       		.uleb128 0xc
 667 034d 73323700 		.ascii	"s27\000"
 668 0351 06       		.byte	0x6
 669 0352 1901     		.2byte	0x119
 670 0354 8D020000 		.4byte	0x28d
 671 0358 02       		.byte	0x2
 672 0359 23       		.byte	0x23
 673 035a 2C       		.uleb128 0x2c
 674 035b 0C       		.uleb128 0xc
 675 035c 73323800 		.ascii	"s28\000"
 676 0360 06       		.byte	0x6
 677 0361 1A01     		.2byte	0x11a
ARM GAS  C:\Users\jenny\AppData\Local\Temp\ccuytcgf.s 			page 13


 678 0363 8D020000 		.4byte	0x28d
 679 0367 02       		.byte	0x2
 680 0368 23       		.byte	0x23
 681 0369 30       		.uleb128 0x30
 682 036a 0C       		.uleb128 0xc
 683 036b 73323900 		.ascii	"s29\000"
 684 036f 06       		.byte	0x6
 685 0370 1B01     		.2byte	0x11b
 686 0372 8D020000 		.4byte	0x28d
 687 0376 02       		.byte	0x2
 688 0377 23       		.byte	0x23
 689 0378 34       		.uleb128 0x34
 690 0379 0C       		.uleb128 0xc
 691 037a 73333000 		.ascii	"s30\000"
 692 037e 06       		.byte	0x6
 693 037f 1C01     		.2byte	0x11c
 694 0381 8D020000 		.4byte	0x28d
 695 0385 02       		.byte	0x2
 696 0386 23       		.byte	0x23
 697 0387 38       		.uleb128 0x38
 698 0388 0C       		.uleb128 0xc
 699 0389 73333100 		.ascii	"s31\000"
 700 038d 06       		.byte	0x6
 701 038e 1D01     		.2byte	0x11d
 702 0390 8D020000 		.4byte	0x28d
 703 0394 02       		.byte	0x2
 704 0395 23       		.byte	0x23
 705 0396 3C       		.uleb128 0x3c
 706 0397 0C       		.uleb128 0xc
 707 0398 723400   		.ascii	"r4\000"
 708 039b 06       		.byte	0x6
 709 039c 1F01     		.2byte	0x11f
 710 039e 8D020000 		.4byte	0x28d
 711 03a2 02       		.byte	0x2
 712 03a3 23       		.byte	0x23
 713 03a4 40       		.uleb128 0x40
 714 03a5 0C       		.uleb128 0xc
 715 03a6 723500   		.ascii	"r5\000"
 716 03a9 06       		.byte	0x6
 717 03aa 2001     		.2byte	0x120
 718 03ac 8D020000 		.4byte	0x28d
 719 03b0 02       		.byte	0x2
 720 03b1 23       		.byte	0x23
 721 03b2 44       		.uleb128 0x44
 722 03b3 0C       		.uleb128 0xc
 723 03b4 723600   		.ascii	"r6\000"
 724 03b7 06       		.byte	0x6
 725 03b8 2101     		.2byte	0x121
 726 03ba 8D020000 		.4byte	0x28d
 727 03be 02       		.byte	0x2
 728 03bf 23       		.byte	0x23
 729 03c0 48       		.uleb128 0x48
 730 03c1 0C       		.uleb128 0xc
 731 03c2 723700   		.ascii	"r7\000"
 732 03c5 06       		.byte	0x6
 733 03c6 2201     		.2byte	0x122
 734 03c8 8D020000 		.4byte	0x28d
ARM GAS  C:\Users\jenny\AppData\Local\Temp\ccuytcgf.s 			page 14


 735 03cc 02       		.byte	0x2
 736 03cd 23       		.byte	0x23
 737 03ce 4C       		.uleb128 0x4c
 738 03cf 0C       		.uleb128 0xc
 739 03d0 723800   		.ascii	"r8\000"
 740 03d3 06       		.byte	0x6
 741 03d4 2301     		.2byte	0x123
 742 03d6 8D020000 		.4byte	0x28d
 743 03da 02       		.byte	0x2
 744 03db 23       		.byte	0x23
 745 03dc 50       		.uleb128 0x50
 746 03dd 0C       		.uleb128 0xc
 747 03de 723900   		.ascii	"r9\000"
 748 03e1 06       		.byte	0x6
 749 03e2 2401     		.2byte	0x124
 750 03e4 8D020000 		.4byte	0x28d
 751 03e8 02       		.byte	0x2
 752 03e9 23       		.byte	0x23
 753 03ea 54       		.uleb128 0x54
 754 03eb 0C       		.uleb128 0xc
 755 03ec 72313000 		.ascii	"r10\000"
 756 03f0 06       		.byte	0x6
 757 03f1 2501     		.2byte	0x125
 758 03f3 8D020000 		.4byte	0x28d
 759 03f7 02       		.byte	0x2
 760 03f8 23       		.byte	0x23
 761 03f9 58       		.uleb128 0x58
 762 03fa 0C       		.uleb128 0xc
 763 03fb 72313100 		.ascii	"r11\000"
 764 03ff 06       		.byte	0x6
 765 0400 2601     		.2byte	0x126
 766 0402 8D020000 		.4byte	0x28d
 767 0406 02       		.byte	0x2
 768 0407 23       		.byte	0x23
 769 0408 5C       		.uleb128 0x5c
 770 0409 0C       		.uleb128 0xc
 771 040a 6C7200   		.ascii	"lr\000"
 772 040d 06       		.byte	0x6
 773 040e 2701     		.2byte	0x127
 774 0410 8D020000 		.4byte	0x28d
 775 0414 02       		.byte	0x2
 776 0415 23       		.byte	0x23
 777 0416 60       		.uleb128 0x60
 778 0417 00       		.byte	0
 779 0418 0B       		.uleb128 0xb
 780 0419 BA040000 		.4byte	.LASF47
 781 041d 04       		.byte	0x4
 782 041e 06       		.byte	0x6
 783 041f 3101     		.2byte	0x131
 784 0421 35040000 		.4byte	0x435
 785 0425 0C       		.uleb128 0xc
 786 0426 72313300 		.ascii	"r13\000"
 787 042a 06       		.byte	0x6
 788 042b 3201     		.2byte	0x132
 789 042d 35040000 		.4byte	0x435
 790 0431 02       		.byte	0x2
 791 0432 23       		.byte	0x23
ARM GAS  C:\Users\jenny\AppData\Local\Temp\ccuytcgf.s 			page 15


 792 0433 00       		.uleb128 0
 793 0434 00       		.byte	0
 794 0435 09       		.uleb128 0x9
 795 0436 04       		.byte	0x4
 796 0437 9A020000 		.4byte	0x29a
 797 043b 0D       		.uleb128 0xd
 798 043c 7B000000 		.4byte	0x7b
 799 0440 03       		.uleb128 0x3
 800 0441 04       		.byte	0x4
 801 0442 07       		.byte	0x7
 802 0443 0F030000 		.4byte	.LASF48
 803 0447 0D       		.uleb128 0xd
 804 0448 FA000000 		.4byte	0xfa
 805 044c 05       		.uleb128 0x5
 806 044d 1E030000 		.4byte	.LASF49
 807 0451 10       		.byte	0x10
 808 0452 07       		.byte	0x7
 809 0453 2C       		.byte	0x2c
 810 0454 83040000 		.4byte	0x483
 811 0458 06       		.uleb128 0x6
 812 0459 ED000000 		.4byte	.LASF50
 813 045d 07       		.byte	0x7
 814 045e 2D       		.byte	0x2d
 815 045f 60020000 		.4byte	0x260
 816 0463 02       		.byte	0x2
 817 0464 23       		.byte	0x23
 818 0465 00       		.uleb128 0
 819 0466 06       		.uleb128 0x6
 820 0467 9F050000 		.4byte	.LASF51
 821 046b 07       		.byte	0x7
 822 046c 2F       		.byte	0x2f
 823 046d 5A020000 		.4byte	0x25a
 824 0471 02       		.byte	0x2
 825 0472 23       		.byte	0x23
 826 0473 08       		.uleb128 0x8
 827 0474 06       		.uleb128 0x6
 828 0475 86040000 		.4byte	.LASF52
 829 0479 07       		.byte	0x7
 830 047a 31       		.byte	0x31
 831 047b 83040000 		.4byte	0x483
 832 047f 02       		.byte	0x2
 833 0480 23       		.byte	0x23
 834 0481 0C       		.uleb128 0xc
 835 0482 00       		.byte	0
 836 0483 09       		.uleb128 0x9
 837 0484 04       		.byte	0x4
 838 0485 4C040000 		.4byte	0x44c
 839 0489 04       		.uleb128 0x4
 840 048a 1E030000 		.4byte	.LASF49
 841 048e 07       		.byte	0x7
 842 048f 33       		.byte	0x33
 843 0490 4C040000 		.4byte	0x44c
 844 0494 0E       		.uleb128 0xe
 845 0495 04       		.byte	0x4
 846 0496 05       		.byte	0x5
 847 0497 96       		.byte	0x96
 848 0498 C9040000 		.4byte	0x4c9
ARM GAS  C:\Users\jenny\AppData\Local\Temp\ccuytcgf.s 			page 16


 849 049c 0F       		.uleb128 0xf
 850 049d 37000000 		.4byte	.LASF53
 851 04a1 05       		.byte	0x5
 852 04a2 9D       		.byte	0x9d
 853 04a3 E4000000 		.4byte	0xe4
 854 04a7 0F       		.uleb128 0xf
 855 04a8 93000000 		.4byte	.LASF54
 856 04ac 05       		.byte	0x5
 857 04ad A4       		.byte	0xa4
 858 04ae E4000000 		.4byte	0xe4
 859 04b2 0F       		.uleb128 0xf
 860 04b3 73050000 		.4byte	.LASF55
 861 04b7 05       		.byte	0x5
 862 04b8 AB       		.byte	0xab
 863 04b9 98020000 		.4byte	0x298
 864 04bd 0F       		.uleb128 0xf
 865 04be 09040000 		.4byte	.LASF56
 866 04c2 05       		.byte	0x5
 867 04c3 B2       		.byte	0xb2
 868 04c4 EF000000 		.4byte	0xef
 869 04c8 00       		.byte	0
 870 04c9 09       		.uleb128 0x9
 871 04ca 04       		.byte	0x4
 872 04cb CF040000 		.4byte	0x4cf
 873 04cf 10       		.uleb128 0x10
 874 04d0 D4040000 		.4byte	0x4d4
 875 04d4 03       		.uleb128 0x3
 876 04d5 01       		.byte	0x1
 877 04d6 08       		.byte	0x8
 878 04d7 63040000 		.4byte	.LASF57
 879 04db 09       		.uleb128 0x9
 880 04dc 04       		.byte	0x4
 881 04dd 89040000 		.4byte	0x489
 882 04e1 09       		.uleb128 0x9
 883 04e2 04       		.byte	0x4
 884 04e3 3E000000 		.4byte	0x3e
 885 04e7 09       		.uleb128 0x9
 886 04e8 04       		.byte	0x4
 887 04e9 ED040000 		.4byte	0x4ed
 888 04ed 10       		.uleb128 0x10
 889 04ee 3E000000 		.4byte	0x3e
 890 04f2 11       		.uleb128 0x11
 891 04f3 7B000000 		.4byte	0x7b
 892 04f7 02050000 		.4byte	0x502
 893 04fb 12       		.uleb128 0x12
 894 04fc 40040000 		.4byte	0x440
 895 0500 03       		.byte	0x3
 896 0501 00       		.byte	0
 897 0502 0D       		.uleb128 0xd
 898 0503 69000000 		.4byte	0x69
 899 0507 13       		.uleb128 0x13
 900 0508 18       		.byte	0x18
 901 0509 08       		.byte	0x8
 902 050a D301     		.2byte	0x1d3
 903 050c 6A050000 		.4byte	0x56a
 904 0510 0C       		.uleb128 0xc
 905 0511 435200   		.ascii	"CR\000"
ARM GAS  C:\Users\jenny\AppData\Local\Temp\ccuytcgf.s 			page 17


 906 0514 08       		.byte	0x8
 907 0515 D501     		.2byte	0x1d5
 908 0517 3B040000 		.4byte	0x43b
 909 051b 02       		.byte	0x2
 910 051c 23       		.byte	0x23
 911 051d 00       		.uleb128 0
 912 051e 14       		.uleb128 0x14
 913 051f A2040000 		.4byte	.LASF58
 914 0523 08       		.byte	0x8
 915 0524 D601     		.2byte	0x1d6
 916 0526 3B040000 		.4byte	0x43b
 917 052a 02       		.byte	0x2
 918 052b 23       		.byte	0x23
 919 052c 04       		.uleb128 0x4
 920 052d 0C       		.uleb128 0xc
 921 052e 50415200 		.ascii	"PAR\000"
 922 0532 08       		.byte	0x8
 923 0533 D701     		.2byte	0x1d7
 924 0535 3B040000 		.4byte	0x43b
 925 0539 02       		.byte	0x2
 926 053a 23       		.byte	0x23
 927 053b 08       		.uleb128 0x8
 928 053c 14       		.uleb128 0x14
 929 053d 23000000 		.4byte	.LASF59
 930 0541 08       		.byte	0x8
 931 0542 D801     		.2byte	0x1d8
 932 0544 3B040000 		.4byte	0x43b
 933 0548 02       		.byte	0x2
 934 0549 23       		.byte	0x23
 935 054a 0C       		.uleb128 0xc
 936 054b 14       		.uleb128 0x14
 937 054c E0040000 		.4byte	.LASF60
 938 0550 08       		.byte	0x8
 939 0551 D901     		.2byte	0x1d9
 940 0553 3B040000 		.4byte	0x43b
 941 0557 02       		.byte	0x2
 942 0558 23       		.byte	0x23
 943 0559 10       		.uleb128 0x10
 944 055a 0C       		.uleb128 0xc
 945 055b 46435200 		.ascii	"FCR\000"
 946 055f 08       		.byte	0x8
 947 0560 DA01     		.2byte	0x1da
 948 0562 3B040000 		.4byte	0x43b
 949 0566 02       		.byte	0x2
 950 0567 23       		.byte	0x23
 951 0568 14       		.uleb128 0x14
 952 0569 00       		.byte	0
 953 056a 15       		.uleb128 0x15
 954 056b A7040000 		.4byte	.LASF61
 955 056f 08       		.byte	0x8
 956 0570 DB01     		.2byte	0x1db
 957 0572 07050000 		.4byte	0x507
 958 0576 08       		.uleb128 0x8
 959 0577 0C       		.byte	0xc
 960 0578 09       		.byte	0x9
 961 0579 DA       		.byte	0xda
 962 057a C5050000 		.4byte	0x5c5
ARM GAS  C:\Users\jenny\AppData\Local\Temp\ccuytcgf.s 			page 18


 963 057e 06       		.uleb128 0x6
 964 057f 62000000 		.4byte	.LASF62
 965 0583 09       		.byte	0x9
 966 0584 DB       		.byte	0xdb
 967 0585 C5050000 		.4byte	0x5c5
 968 0589 02       		.byte	0x2
 969 058a 23       		.byte	0x23
 970 058b 00       		.uleb128 0
 971 058c 06       		.uleb128 0x6
 972 058d 3E040000 		.4byte	.LASF63
 973 0591 09       		.byte	0x9
 974 0592 DC       		.byte	0xdc
 975 0593 CB050000 		.4byte	0x5cb
 976 0597 02       		.byte	0x2
 977 0598 23       		.byte	0x23
 978 0599 04       		.uleb128 0x4
 979 059a 06       		.uleb128 0x6
 980 059b 3A020000 		.4byte	.LASF64
 981 059f 09       		.byte	0x9
 982 05a0 DD       		.byte	0xdd
 983 05a1 3E000000 		.4byte	0x3e
 984 05a5 02       		.byte	0x2
 985 05a6 23       		.byte	0x23
 986 05a7 08       		.uleb128 0x8
 987 05a8 06       		.uleb128 0x6
 988 05a9 BB010000 		.4byte	.LASF65
 989 05ad 09       		.byte	0x9
 990 05ae DF       		.byte	0xdf
 991 05af 3E000000 		.4byte	0x3e
 992 05b3 02       		.byte	0x2
 993 05b4 23       		.byte	0x23
 994 05b5 09       		.uleb128 0x9
 995 05b6 06       		.uleb128 0x6
 996 05b7 8E050000 		.4byte	.LASF66
 997 05bb 09       		.byte	0x9
 998 05bc E0       		.byte	0xe0
 999 05bd 3E000000 		.4byte	0x3e
 1000 05c1 02       		.byte	0x2
 1001 05c2 23       		.byte	0x23
 1002 05c3 0A       		.uleb128 0xa
 1003 05c4 00       		.byte	0
 1004 05c5 09       		.uleb128 0x9
 1005 05c6 04       		.byte	0x4
 1006 05c7 6A050000 		.4byte	0x56a
 1007 05cb 09       		.uleb128 0x9
 1008 05cc 04       		.byte	0x4
 1009 05cd 3B040000 		.4byte	0x43b
 1010 05d1 04       		.uleb128 0x4
 1011 05d2 8D030000 		.4byte	.LASF67
 1012 05d6 09       		.byte	0x9
 1013 05d7 E1       		.byte	0xe1
 1014 05d8 76050000 		.4byte	0x576
 1015 05dc 16       		.uleb128 0x16
 1016 05dd 01       		.byte	0x1
 1017 05de 0A       		.byte	0xa
 1018 05df 33       		.byte	0x33
 1019 05e0 1B060000 		.4byte	0x61b
ARM GAS  C:\Users\jenny\AppData\Local\Temp\ccuytcgf.s 			page 19


 1020 05e4 17       		.uleb128 0x17
 1021 05e5 10010000 		.4byte	.LASF68
 1022 05e9 00       		.sleb128 0
 1023 05ea 17       		.uleb128 0x17
 1024 05eb A1010000 		.4byte	.LASF69
 1025 05ef 01       		.sleb128 1
 1026 05f0 17       		.uleb128 0x17
 1027 05f1 68020000 		.4byte	.LASF70
 1028 05f5 02       		.sleb128 2
 1029 05f6 17       		.uleb128 0x17
 1030 05f7 C7020000 		.4byte	.LASF71
 1031 05fb 03       		.sleb128 3
 1032 05fc 17       		.uleb128 0x17
 1033 05fd 68040000 		.4byte	.LASF72
 1034 0601 04       		.sleb128 4
 1035 0602 17       		.uleb128 0x17
 1036 0603 38030000 		.4byte	.LASF73
 1037 0607 05       		.sleb128 5
 1038 0608 17       		.uleb128 0x17
 1039 0609 03030000 		.4byte	.LASF74
 1040 060d 06       		.sleb128 6
 1041 060e 17       		.uleb128 0x17
 1042 060f EC030000 		.4byte	.LASF75
 1043 0613 07       		.sleb128 7
 1044 0614 17       		.uleb128 0x17
 1045 0615 2C030000 		.4byte	.LASF76
 1046 0619 08       		.sleb128 8
 1047 061a 00       		.byte	0
 1048 061b 04       		.uleb128 0x4
 1049 061c B2000000 		.4byte	.LASF77
 1050 0620 0A       		.byte	0xa
 1051 0621 3D       		.byte	0x3d
 1052 0622 DC050000 		.4byte	0x5dc
 1053 0626 08       		.uleb128 0x8
 1054 0627 08       		.byte	0x8
 1055 0628 0A       		.byte	0xa
 1056 0629 42       		.byte	0x42
 1057 062a 4B060000 		.4byte	0x64b
 1058 062e 06       		.uleb128 0x6
 1059 062f D2010000 		.4byte	.LASF78
 1060 0633 0A       		.byte	0xa
 1061 0634 43       		.byte	0x43
 1062 0635 7B000000 		.4byte	0x7b
 1063 0639 02       		.byte	0x2
 1064 063a 23       		.byte	0x23
 1065 063b 00       		.uleb128 0
 1066 063c 06       		.uleb128 0x6
 1067 063d 2F000000 		.4byte	.LASF79
 1068 0641 0A       		.byte	0xa
 1069 0642 44       		.byte	0x44
 1070 0643 7B000000 		.4byte	0x7b
 1071 0647 02       		.byte	0x2
 1072 0648 23       		.byte	0x23
 1073 0649 04       		.uleb128 0x4
 1074 064a 00       		.byte	0
 1075 064b 04       		.uleb128 0x4
 1076 064c 00000000 		.4byte	.LASF80
ARM GAS  C:\Users\jenny\AppData\Local\Temp\ccuytcgf.s 			page 20


 1077 0650 0A       		.byte	0xa
 1078 0651 45       		.byte	0x45
 1079 0652 26060000 		.4byte	0x626
 1080 0656 18       		.uleb128 0x18
 1081 0657 01       		.byte	0x1
 1082 0658 9B000000 		.4byte	0x9b
 1083 065c 66060000 		.4byte	0x666
 1084 0660 19       		.uleb128 0x19
 1085 0661 98020000 		.4byte	0x298
 1086 0665 00       		.byte	0
 1087 0666 09       		.uleb128 0x9
 1088 0667 04       		.byte	0x4
 1089 0668 56060000 		.4byte	0x656
 1090 066c 18       		.uleb128 0x18
 1091 066d 01       		.byte	0x1
 1092 066e 9B000000 		.4byte	0x9b
 1093 0672 8B060000 		.4byte	0x68b
 1094 0676 19       		.uleb128 0x19
 1095 0677 98020000 		.4byte	0x298
 1096 067b 19       		.uleb128 0x19
 1097 067c 7B000000 		.4byte	0x7b
 1098 0680 19       		.uleb128 0x19
 1099 0681 E1040000 		.4byte	0x4e1
 1100 0685 19       		.uleb128 0x19
 1101 0686 7B000000 		.4byte	0x7b
 1102 068a 00       		.byte	0
 1103 068b 09       		.uleb128 0x9
 1104 068c 04       		.byte	0x4
 1105 068d 6C060000 		.4byte	0x66c
 1106 0691 18       		.uleb128 0x18
 1107 0692 01       		.byte	0x1
 1108 0693 9B000000 		.4byte	0x9b
 1109 0697 B0060000 		.4byte	0x6b0
 1110 069b 19       		.uleb128 0x19
 1111 069c 98020000 		.4byte	0x298
 1112 06a0 19       		.uleb128 0x19
 1113 06a1 7B000000 		.4byte	0x7b
 1114 06a5 19       		.uleb128 0x19
 1115 06a6 E7040000 		.4byte	0x4e7
 1116 06aa 19       		.uleb128 0x19
 1117 06ab 7B000000 		.4byte	0x7b
 1118 06af 00       		.byte	0
 1119 06b0 09       		.uleb128 0x9
 1120 06b1 04       		.byte	0x4
 1121 06b2 91060000 		.4byte	0x691
 1122 06b6 18       		.uleb128 0x18
 1123 06b7 01       		.byte	0x1
 1124 06b8 9B000000 		.4byte	0x9b
 1125 06bc CB060000 		.4byte	0x6cb
 1126 06c0 19       		.uleb128 0x19
 1127 06c1 98020000 		.4byte	0x298
 1128 06c5 19       		.uleb128 0x19
 1129 06c6 CB060000 		.4byte	0x6cb
 1130 06ca 00       		.byte	0
 1131 06cb 09       		.uleb128 0x9
 1132 06cc 04       		.byte	0x4
 1133 06cd 4B060000 		.4byte	0x64b
ARM GAS  C:\Users\jenny\AppData\Local\Temp\ccuytcgf.s 			page 21


 1134 06d1 09       		.uleb128 0x9
 1135 06d2 04       		.byte	0x4
 1136 06d3 B6060000 		.4byte	0x6b6
 1137 06d7 08       		.uleb128 0x8
 1138 06d8 04       		.byte	0x4
 1139 06d9 0B       		.byte	0xb
 1140 06da 96       		.byte	0x96
 1141 06db FC060000 		.4byte	0x6fc
 1142 06df 07       		.uleb128 0x7
 1143 06e0 73657400 		.ascii	"set\000"
 1144 06e4 0B       		.byte	0xb
 1145 06e5 97       		.byte	0x97
 1146 06e6 57000000 		.4byte	0x57
 1147 06ea 02       		.byte	0x2
 1148 06eb 23       		.byte	0x23
 1149 06ec 00       		.uleb128 0
 1150 06ed 06       		.uleb128 0x6
 1151 06ee 18030000 		.4byte	.LASF81
 1152 06f2 0B       		.byte	0xb
 1153 06f3 98       		.byte	0x98
 1154 06f4 57000000 		.4byte	0x57
 1155 06f8 02       		.byte	0x2
 1156 06f9 23       		.byte	0x23
 1157 06fa 02       		.uleb128 0x2
 1158 06fb 00       		.byte	0
 1159 06fc 0E       		.uleb128 0xe
 1160 06fd 04       		.byte	0x4
 1161 06fe 0B       		.byte	0xb
 1162 06ff 94       		.byte	0x94
 1163 0700 17070000 		.4byte	0x717
 1164 0704 1A       		.uleb128 0x1a
 1165 0705 5700     		.ascii	"W\000"
 1166 0707 0B       		.byte	0xb
 1167 0708 95       		.byte	0x95
 1168 0709 7B000000 		.4byte	0x7b
 1169 070d 1A       		.uleb128 0x1a
 1170 070e 4800     		.ascii	"H\000"
 1171 0710 0B       		.byte	0xb
 1172 0711 99       		.byte	0x99
 1173 0712 D7060000 		.4byte	0x6d7
 1174 0716 00       		.byte	0
 1175 0717 08       		.uleb128 0x8
 1176 0718 28       		.byte	0x28
 1177 0719 0B       		.byte	0xb
 1178 071a 8C       		.byte	0x8c
 1179 071b AC070000 		.4byte	0x7ac
 1180 071f 06       		.uleb128 0x6
 1181 0720 70000000 		.4byte	.LASF82
 1182 0724 0B       		.byte	0xb
 1183 0725 8E       		.byte	0x8e
 1184 0726 3B040000 		.4byte	0x43b
 1185 072a 02       		.byte	0x2
 1186 072b 23       		.byte	0x23
 1187 072c 00       		.uleb128 0
 1188 072d 06       		.uleb128 0x6
 1189 072e 4B000000 		.4byte	.LASF83
 1190 0732 0B       		.byte	0xb
ARM GAS  C:\Users\jenny\AppData\Local\Temp\ccuytcgf.s 			page 22


 1191 0733 8F       		.byte	0x8f
 1192 0734 3B040000 		.4byte	0x43b
 1193 0738 02       		.byte	0x2
 1194 0739 23       		.byte	0x23
 1195 073a 04       		.uleb128 0x4
 1196 073b 06       		.uleb128 0x6
 1197 073c AA010000 		.4byte	.LASF84
 1198 0740 0B       		.byte	0xb
 1199 0741 90       		.byte	0x90
 1200 0742 3B040000 		.4byte	0x43b
 1201 0746 02       		.byte	0x2
 1202 0747 23       		.byte	0x23
 1203 0748 08       		.uleb128 0x8
 1204 0749 06       		.uleb128 0x6
 1205 074a 8D000000 		.4byte	.LASF85
 1206 074e 0B       		.byte	0xb
 1207 074f 91       		.byte	0x91
 1208 0750 3B040000 		.4byte	0x43b
 1209 0754 02       		.byte	0x2
 1210 0755 23       		.byte	0x23
 1211 0756 0C       		.uleb128 0xc
 1212 0757 07       		.uleb128 0x7
 1213 0758 49445200 		.ascii	"IDR\000"
 1214 075c 0B       		.byte	0xb
 1215 075d 92       		.byte	0x92
 1216 075e 3B040000 		.4byte	0x43b
 1217 0762 02       		.byte	0x2
 1218 0763 23       		.byte	0x23
 1219 0764 10       		.uleb128 0x10
 1220 0765 07       		.uleb128 0x7
 1221 0766 4F445200 		.ascii	"ODR\000"
 1222 076a 0B       		.byte	0xb
 1223 076b 93       		.byte	0x93
 1224 076c 3B040000 		.4byte	0x43b
 1225 0770 02       		.byte	0x2
 1226 0771 23       		.byte	0x23
 1227 0772 14       		.uleb128 0x14
 1228 0773 06       		.uleb128 0x6
 1229 0774 EC040000 		.4byte	.LASF86
 1230 0778 0B       		.byte	0xb
 1231 0779 9A       		.byte	0x9a
 1232 077a AC070000 		.4byte	0x7ac
 1233 077e 02       		.byte	0x2
 1234 077f 23       		.byte	0x23
 1235 0780 18       		.uleb128 0x18
 1236 0781 06       		.uleb128 0x6
 1237 0782 35020000 		.4byte	.LASF87
 1238 0786 0B       		.byte	0xb
 1239 0787 9B       		.byte	0x9b
 1240 0788 3B040000 		.4byte	0x43b
 1241 078c 02       		.byte	0x2
 1242 078d 23       		.byte	0x23
 1243 078e 1C       		.uleb128 0x1c
 1244 078f 06       		.uleb128 0x6
 1245 0790 60030000 		.4byte	.LASF88
 1246 0794 0B       		.byte	0xb
 1247 0795 9C       		.byte	0x9c
ARM GAS  C:\Users\jenny\AppData\Local\Temp\ccuytcgf.s 			page 23


 1248 0796 3B040000 		.4byte	0x43b
 1249 079a 02       		.byte	0x2
 1250 079b 23       		.byte	0x23
 1251 079c 20       		.uleb128 0x20
 1252 079d 06       		.uleb128 0x6
 1253 079e 5B030000 		.4byte	.LASF89
 1254 07a2 0B       		.byte	0xb
 1255 07a3 9D       		.byte	0x9d
 1256 07a4 3B040000 		.4byte	0x43b
 1257 07a8 02       		.byte	0x2
 1258 07a9 23       		.byte	0x23
 1259 07aa 24       		.uleb128 0x24
 1260 07ab 00       		.byte	0
 1261 07ac 0D       		.uleb128 0xd
 1262 07ad FC060000 		.4byte	0x6fc
 1263 07b1 04       		.uleb128 0x4
 1264 07b2 8B010000 		.4byte	.LASF90
 1265 07b6 0B       		.byte	0xb
 1266 07b7 9E       		.byte	0x9e
 1267 07b8 17070000 		.4byte	0x717
 1268 07bc 08       		.uleb128 0x8
 1269 07bd 1C       		.byte	0x1c
 1270 07be 0B       		.byte	0xb
 1271 07bf A3       		.byte	0xa3
 1272 07c0 27080000 		.4byte	0x827
 1273 07c4 06       		.uleb128 0x6
 1274 07c5 00010000 		.4byte	.LASF91
 1275 07c9 0B       		.byte	0xb
 1276 07ca A5       		.byte	0xa5
 1277 07cb 7B000000 		.4byte	0x7b
 1278 07cf 02       		.byte	0x2
 1279 07d0 23       		.byte	0x23
 1280 07d1 00       		.uleb128 0
 1281 07d2 06       		.uleb128 0x6
 1282 07d3 52000000 		.4byte	.LASF92
 1283 07d7 0B       		.byte	0xb
 1284 07d8 A7       		.byte	0xa7
 1285 07d9 7B000000 		.4byte	0x7b
 1286 07dd 02       		.byte	0x2
 1287 07de 23       		.byte	0x23
 1288 07df 04       		.uleb128 0x4
 1289 07e0 06       		.uleb128 0x6
 1290 07e1 2D020000 		.4byte	.LASF93
 1291 07e5 0B       		.byte	0xb
 1292 07e6 A9       		.byte	0xa9
 1293 07e7 7B000000 		.4byte	0x7b
 1294 07eb 02       		.byte	0x2
 1295 07ec 23       		.byte	0x23
 1296 07ed 08       		.uleb128 0x8
 1297 07ee 06       		.uleb128 0x6
 1298 07ef 0D050000 		.4byte	.LASF94
 1299 07f3 0B       		.byte	0xb
 1300 07f4 AB       		.byte	0xab
 1301 07f5 7B000000 		.4byte	0x7b
 1302 07f9 02       		.byte	0x2
 1303 07fa 23       		.byte	0x23
 1304 07fb 0C       		.uleb128 0xc
ARM GAS  C:\Users\jenny\AppData\Local\Temp\ccuytcgf.s 			page 24


 1305 07fc 07       		.uleb128 0x7
 1306 07fd 6F647200 		.ascii	"odr\000"
 1307 0801 0B       		.byte	0xb
 1308 0802 AD       		.byte	0xad
 1309 0803 7B000000 		.4byte	0x7b
 1310 0807 02       		.byte	0x2
 1311 0808 23       		.byte	0x23
 1312 0809 10       		.uleb128 0x10
 1313 080a 06       		.uleb128 0x6
 1314 080b CB030000 		.4byte	.LASF95
 1315 080f 0B       		.byte	0xb
 1316 0810 AF       		.byte	0xaf
 1317 0811 7B000000 		.4byte	0x7b
 1318 0815 02       		.byte	0x2
 1319 0816 23       		.byte	0x23
 1320 0817 14       		.uleb128 0x14
 1321 0818 06       		.uleb128 0x6
 1322 0819 4F030000 		.4byte	.LASF96
 1323 081d 0B       		.byte	0xb
 1324 081e B1       		.byte	0xb1
 1325 081f 7B000000 		.4byte	0x7b
 1326 0823 02       		.byte	0x2
 1327 0824 23       		.byte	0x23
 1328 0825 18       		.uleb128 0x18
 1329 0826 00       		.byte	0
 1330 0827 04       		.uleb128 0x4
 1331 0828 10000000 		.4byte	.LASF97
 1332 082c 0B       		.byte	0xb
 1333 082d B2       		.byte	0xb2
 1334 082e BC070000 		.4byte	0x7bc
 1335 0832 08       		.uleb128 0x8
 1336 0833 FC       		.byte	0xfc
 1337 0834 0B       		.byte	0xb
 1338 0835 BB       		.byte	0xbb
 1339 0836 BD080000 		.4byte	0x8bd
 1340 083a 06       		.uleb128 0x6
 1341 083b 02040000 		.4byte	.LASF98
 1342 083f 0B       		.byte	0xb
 1343 0840 BD       		.byte	0xbd
 1344 0841 27080000 		.4byte	0x827
 1345 0845 02       		.byte	0x2
 1346 0846 23       		.byte	0x23
 1347 0847 00       		.uleb128 0
 1348 0848 06       		.uleb128 0x6
 1349 0849 F6010000 		.4byte	.LASF99
 1350 084d 0B       		.byte	0xb
 1351 084e BF       		.byte	0xbf
 1352 084f 27080000 		.4byte	0x827
 1353 0853 02       		.byte	0x2
 1354 0854 23       		.byte	0x23
 1355 0855 1C       		.uleb128 0x1c
 1356 0856 06       		.uleb128 0x6
 1357 0857 81050000 		.4byte	.LASF100
 1358 085b 0B       		.byte	0xb
 1359 085c C1       		.byte	0xc1
 1360 085d 27080000 		.4byte	0x827
 1361 0861 02       		.byte	0x2
ARM GAS  C:\Users\jenny\AppData\Local\Temp\ccuytcgf.s 			page 25


 1362 0862 23       		.byte	0x23
 1363 0863 38       		.uleb128 0x38
 1364 0864 06       		.uleb128 0x6
 1365 0865 54030000 		.4byte	.LASF101
 1366 0869 0B       		.byte	0xb
 1367 086a C3       		.byte	0xc3
 1368 086b 27080000 		.4byte	0x827
 1369 086f 02       		.byte	0x2
 1370 0870 23       		.byte	0x23
 1371 0871 54       		.uleb128 0x54
 1372 0872 06       		.uleb128 0x6
 1373 0873 73010000 		.4byte	.LASF102
 1374 0877 0B       		.byte	0xb
 1375 0878 C6       		.byte	0xc6
 1376 0879 27080000 		.4byte	0x827
 1377 087d 02       		.byte	0x2
 1378 087e 23       		.byte	0x23
 1379 087f 70       		.uleb128 0x70
 1380 0880 06       		.uleb128 0x6
 1381 0881 61020000 		.4byte	.LASF103
 1382 0885 0B       		.byte	0xb
 1383 0886 CA       		.byte	0xca
 1384 0887 27080000 		.4byte	0x827
 1385 088b 03       		.byte	0x3
 1386 088c 23       		.byte	0x23
 1387 088d 8C01     		.uleb128 0x8c
 1388 088f 06       		.uleb128 0x6
 1389 0890 F6020000 		.4byte	.LASF104
 1390 0894 0B       		.byte	0xb
 1391 0895 CE       		.byte	0xce
 1392 0896 27080000 		.4byte	0x827
 1393 089a 03       		.byte	0x3
 1394 089b 23       		.byte	0x23
 1395 089c A801     		.uleb128 0xa8
 1396 089e 06       		.uleb128 0x6
 1397 089f 69000000 		.4byte	.LASF105
 1398 08a3 0B       		.byte	0xb
 1399 08a4 D2       		.byte	0xd2
 1400 08a5 27080000 		.4byte	0x827
 1401 08a9 03       		.byte	0x3
 1402 08aa 23       		.byte	0x23
 1403 08ab C401     		.uleb128 0xc4
 1404 08ad 06       		.uleb128 0x6
 1405 08ae 24040000 		.4byte	.LASF106
 1406 08b2 0B       		.byte	0xb
 1407 08b3 D6       		.byte	0xd6
 1408 08b4 27080000 		.4byte	0x827
 1409 08b8 03       		.byte	0x3
 1410 08b9 23       		.byte	0x23
 1411 08ba E001     		.uleb128 0xe0
 1412 08bc 00       		.byte	0
 1413 08bd 04       		.uleb128 0x4
 1414 08be 95050000 		.4byte	.LASF107
 1415 08c2 0B       		.byte	0xb
 1416 08c3 D8       		.byte	0xd8
 1417 08c4 32080000 		.4byte	0x832
 1418 08c8 04       		.uleb128 0x4
ARM GAS  C:\Users\jenny\AppData\Local\Temp\ccuytcgf.s 			page 26


 1419 08c9 EC010000 		.4byte	.LASF108
 1420 08cd 0C       		.byte	0xc
 1421 08ce B8       		.byte	0xb8
 1422 08cf 7B000000 		.4byte	0x7b
 1423 08d3 04       		.uleb128 0x4
 1424 08d4 C2040000 		.4byte	.LASF109
 1425 08d8 0C       		.byte	0xc
 1426 08d9 BD       		.byte	0xbd
 1427 08da 7B000000 		.4byte	0x7b
 1428 08de 04       		.uleb128 0x4
 1429 08df A7050000 		.4byte	.LASF110
 1430 08e3 0C       		.byte	0xc
 1431 08e4 C2       		.byte	0xc2
 1432 08e5 E9080000 		.4byte	0x8e9
 1433 08e9 05       		.uleb128 0x5
 1434 08ea A7050000 		.4byte	.LASF110
 1435 08ee 48       		.byte	0x48
 1436 08ef 0C       		.byte	0xc
 1437 08f0 DE       		.byte	0xde
 1438 08f1 9F090000 		.4byte	0x99f
 1439 08f5 07       		.uleb128 0x7
 1440 08f6 766D7400 		.ascii	"vmt\000"
 1441 08fa 0C       		.byte	0xc
 1442 08fb E2       		.byte	0xe2
 1443 08fc 3E0A0000 		.4byte	0xa3e
 1444 0900 02       		.byte	0x2
 1445 0901 23       		.byte	0x23
 1446 0902 00       		.uleb128 0
 1447 0903 06       		.uleb128 0x6
 1448 0904 64010000 		.4byte	.LASF111
 1449 0908 0C       		.byte	0xc
 1450 0909 E3       		.byte	0xe3
 1451 090a 1B060000 		.4byte	0x61b
 1452 090e 02       		.byte	0x2
 1453 090f 23       		.byte	0x23
 1454 0910 04       		.uleb128 0x4
 1455 0911 07       		.uleb128 0x7
 1456 0912 63696400 		.ascii	"cid\000"
 1457 0916 0C       		.byte	0xc
 1458 0917 E3       		.byte	0xe3
 1459 0918 F2040000 		.4byte	0x4f2
 1460 091c 02       		.byte	0x2
 1461 091d 23       		.byte	0x23
 1462 091e 08       		.uleb128 0x8
 1463 091f 07       		.uleb128 0x7
 1464 0920 63736400 		.ascii	"csd\000"
 1465 0924 0C       		.byte	0xc
 1466 0925 E3       		.byte	0xe3
 1467 0926 F2040000 		.4byte	0x4f2
 1468 092a 02       		.byte	0x2
 1469 092b 23       		.byte	0x23
 1470 092c 18       		.uleb128 0x18
 1471 092d 06       		.uleb128 0x6
 1472 092e 59000000 		.4byte	.LASF112
 1473 0932 0C       		.byte	0xc
 1474 0933 E3       		.byte	0xe3
 1475 0934 7B000000 		.4byte	0x7b
ARM GAS  C:\Users\jenny\AppData\Local\Temp\ccuytcgf.s 			page 27


 1476 0938 02       		.byte	0x2
 1477 0939 23       		.byte	0x23
 1478 093a 28       		.uleb128 0x28
 1479 093b 06       		.uleb128 0x6
 1480 093c 7A040000 		.4byte	.LASF113
 1481 0940 0C       		.byte	0xc
 1482 0941 E7       		.byte	0xe7
 1483 0942 490A0000 		.4byte	0xa49
 1484 0946 02       		.byte	0x2
 1485 0947 23       		.byte	0x23
 1486 0948 2C       		.uleb128 0x2c
 1487 0949 06       		.uleb128 0x6
 1488 094a 9C000000 		.4byte	.LASF114
 1489 094e 0C       		.byte	0xc
 1490 094f EB       		.byte	0xeb
 1491 0950 C8080000 		.4byte	0x8c8
 1492 0954 02       		.byte	0x2
 1493 0955 23       		.byte	0x23
 1494 0956 30       		.uleb128 0x30
 1495 0957 06       		.uleb128 0x6
 1496 0958 1B020000 		.4byte	.LASF115
 1497 095c 0C       		.byte	0xc
 1498 095d EF       		.byte	0xef
 1499 095e D3080000 		.4byte	0x8d3
 1500 0962 02       		.byte	0x2
 1501 0963 23       		.byte	0x23
 1502 0964 34       		.uleb128 0x34
 1503 0965 07       		.uleb128 0x7
 1504 0966 72636100 		.ascii	"rca\000"
 1505 096a 0C       		.byte	0xc
 1506 096b F3       		.byte	0xf3
 1507 096c 7B000000 		.4byte	0x7b
 1508 0970 02       		.byte	0x2
 1509 0971 23       		.byte	0x23
 1510 0972 38       		.uleb128 0x38
 1511 0973 06       		.uleb128 0x6
 1512 0974 A8030000 		.4byte	.LASF116
 1513 0978 0C       		.byte	0xc
 1514 0979 F8       		.byte	0xf8
 1515 097a 5A020000 		.4byte	0x25a
 1516 097e 02       		.byte	0x2
 1517 097f 23       		.byte	0x23
 1518 0980 3C       		.uleb128 0x3c
 1519 0981 06       		.uleb128 0x6
 1520 0982 6B050000 		.4byte	.LASF117
 1521 0986 0C       		.byte	0xc
 1522 0987 FC       		.byte	0xfc
 1523 0988 7B000000 		.4byte	0x7b
 1524 098c 02       		.byte	0x2
 1525 098d 23       		.byte	0x23
 1526 098e 40       		.uleb128 0x40
 1527 098f 0C       		.uleb128 0xc
 1528 0990 646D6100 		.ascii	"dma\000"
 1529 0994 0C       		.byte	0xc
 1530 0995 0001     		.2byte	0x100
 1531 0997 540A0000 		.4byte	0xa54
 1532 099b 02       		.byte	0x2
ARM GAS  C:\Users\jenny\AppData\Local\Temp\ccuytcgf.s 			page 28


 1533 099c 23       		.byte	0x23
 1534 099d 44       		.uleb128 0x44
 1535 099e 00       		.byte	0
 1536 099f 08       		.uleb128 0x8
 1537 09a0 04       		.byte	0x4
 1538 09a1 0C       		.byte	0xc
 1539 09a2 C8       		.byte	0xc8
 1540 09a3 B6090000 		.4byte	0x9b6
 1541 09a7 06       		.uleb128 0x6
 1542 09a8 C5010000 		.4byte	.LASF118
 1543 09ac 0C       		.byte	0xc
 1544 09ad C9       		.byte	0xc9
 1545 09ae 7B000000 		.4byte	0x7b
 1546 09b2 02       		.byte	0x2
 1547 09b3 23       		.byte	0x23
 1548 09b4 00       		.uleb128 0
 1549 09b5 00       		.byte	0
 1550 09b6 04       		.uleb128 0x4
 1551 09b7 F1040000 		.4byte	.LASF119
 1552 09bb 0C       		.byte	0xc
 1553 09bc CA       		.byte	0xca
 1554 09bd 9F090000 		.4byte	0x99f
 1555 09c1 05       		.uleb128 0x5
 1556 09c2 17040000 		.4byte	.LASF120
 1557 09c6 20       		.byte	0x20
 1558 09c7 0C       		.byte	0xc
 1559 09c8 D7       		.byte	0xd7
 1560 09c9 3E0A0000 		.4byte	0xa3e
 1561 09cd 06       		.uleb128 0x6
 1562 09ce D4040000 		.4byte	.LASF121
 1563 09d2 0C       		.byte	0xc
 1564 09d3 D8       		.byte	0xd8
 1565 09d4 66060000 		.4byte	0x666
 1566 09d8 02       		.byte	0x2
 1567 09d9 23       		.byte	0x23
 1568 09da 00       		.uleb128 0
 1569 09db 06       		.uleb128 0x6
 1570 09dc 3E000000 		.4byte	.LASF122
 1571 09e0 0C       		.byte	0xc
 1572 09e1 D8       		.byte	0xd8
 1573 09e2 66060000 		.4byte	0x666
 1574 09e6 02       		.byte	0x2
 1575 09e7 23       		.byte	0x23
 1576 09e8 04       		.uleb128 0x4
 1577 09e9 06       		.uleb128 0x6
 1578 09ea 2B040000 		.4byte	.LASF123
 1579 09ee 0C       		.byte	0xc
 1580 09ef D8       		.byte	0xd8
 1581 09f0 66060000 		.4byte	0x666
 1582 09f4 02       		.byte	0x2
 1583 09f5 23       		.byte	0x23
 1584 09f6 08       		.uleb128 0x8
 1585 09f7 06       		.uleb128 0x6
 1586 09f8 F5000000 		.4byte	.LASF124
 1587 09fc 0C       		.byte	0xc
 1588 09fd D8       		.byte	0xd8
 1589 09fe 66060000 		.4byte	0x666
ARM GAS  C:\Users\jenny\AppData\Local\Temp\ccuytcgf.s 			page 29


 1590 0a02 02       		.byte	0x2
 1591 0a03 23       		.byte	0x23
 1592 0a04 0C       		.uleb128 0xc
 1593 0a05 06       		.uleb128 0x6
 1594 0a06 5E040000 		.4byte	.LASF125
 1595 0a0a 0C       		.byte	0xc
 1596 0a0b D8       		.byte	0xd8
 1597 0a0c 8B060000 		.4byte	0x68b
 1598 0a10 02       		.byte	0x2
 1599 0a11 23       		.byte	0x23
 1600 0a12 10       		.uleb128 0x10
 1601 0a13 06       		.uleb128 0x6
 1602 0a14 FD020000 		.4byte	.LASF126
 1603 0a18 0C       		.byte	0xc
 1604 0a19 D8       		.byte	0xd8
 1605 0a1a B0060000 		.4byte	0x6b0
 1606 0a1e 02       		.byte	0x2
 1607 0a1f 23       		.byte	0x23
 1608 0a20 14       		.uleb128 0x14
 1609 0a21 06       		.uleb128 0x6
 1610 0a22 13050000 		.4byte	.LASF127
 1611 0a26 0C       		.byte	0xc
 1612 0a27 D8       		.byte	0xd8
 1613 0a28 66060000 		.4byte	0x666
 1614 0a2c 02       		.byte	0x2
 1615 0a2d 23       		.byte	0x23
 1616 0a2e 18       		.uleb128 0x18
 1617 0a2f 06       		.uleb128 0x6
 1618 0a30 98010000 		.4byte	.LASF128
 1619 0a34 0C       		.byte	0xc
 1620 0a35 D8       		.byte	0xd8
 1621 0a36 D1060000 		.4byte	0x6d1
 1622 0a3a 02       		.byte	0x2
 1623 0a3b 23       		.byte	0x23
 1624 0a3c 1C       		.uleb128 0x1c
 1625 0a3d 00       		.byte	0
 1626 0a3e 09       		.uleb128 0x9
 1627 0a3f 04       		.byte	0x4
 1628 0a40 440A0000 		.4byte	0xa44
 1629 0a44 10       		.uleb128 0x10
 1630 0a45 C1090000 		.4byte	0x9c1
 1631 0a49 09       		.uleb128 0x9
 1632 0a4a 04       		.byte	0x4
 1633 0a4b 4F0A0000 		.4byte	0xa4f
 1634 0a4f 10       		.uleb128 0x10
 1635 0a50 B6090000 		.4byte	0x9b6
 1636 0a54 09       		.uleb128 0x9
 1637 0a55 04       		.byte	0x4
 1638 0a56 5A0A0000 		.4byte	0xa5a
 1639 0a5a 10       		.uleb128 0x10
 1640 0a5b D1050000 		.4byte	0x5d1
 1641 0a5f 1B       		.uleb128 0x1b
 1642 0a60 01       		.byte	0x1
 1643 0a61 41020000 		.4byte	.LASF137
 1644 0a65 01       		.byte	0x1
 1645 0a66 36       		.byte	0x36
 1646 0a67 01       		.byte	0x1
ARM GAS  C:\Users\jenny\AppData\Local\Temp\ccuytcgf.s 			page 30


 1647 0a68 00000000 		.4byte	.LFB118
 1648 0a6c 04000000 		.4byte	.LFE118
 1649 0a70 02       		.byte	0x2
 1650 0a71 7D       		.byte	0x7d
 1651 0a72 00       		.sleb128 0
 1652 0a73 01       		.byte	0x1
 1653 0a74 830A0000 		.4byte	0xa83
 1654 0a78 1C       		.uleb128 0x1c
 1655 0a79 04000000 		.4byte	.LVL0
 1656 0a7d 01       		.byte	0x1
 1657 0a7e 2E0B0000 		.4byte	0xb2e
 1658 0a82 00       		.byte	0
 1659 0a83 1D       		.uleb128 0x1d
 1660 0a84 01       		.byte	0x1
 1661 0a85 6D030000 		.4byte	.LASF129
 1662 0a89 01       		.byte	0x1
 1663 0a8a 3F       		.byte	0x3f
 1664 0a8b 01       		.byte	0x1
 1665 0a8c 9B000000 		.4byte	0x9b
 1666 0a90 00000000 		.4byte	.LFB119
 1667 0a94 30000000 		.4byte	.LFE119
 1668 0a98 02       		.byte	0x2
 1669 0a99 7D       		.byte	0x7d
 1670 0a9a 00       		.sleb128 0
 1671 0a9b 01       		.byte	0x1
 1672 0a9c C10A0000 		.4byte	0xac1
 1673 0aa0 1E       		.uleb128 0x1e
 1674 0aa1 81040000 		.4byte	.LASF131
 1675 0aa5 01       		.byte	0x1
 1676 0aa6 3F       		.byte	0x3f
 1677 0aa7 C10A0000 		.4byte	0xac1
 1678 0aab 00000000 		.4byte	.LLST0
 1679 0aaf 1F       		.uleb128 0x1f
 1680 0ab0 73020000 		.4byte	.LASF138
 1681 0ab4 01       		.byte	0x1
 1682 0ab5 40       		.byte	0x40
 1683 0ab6 9B000000 		.4byte	0x9b
 1684 0aba 05       		.byte	0x5
 1685 0abb 03       		.byte	0x3
 1686 0abc 00000000 		.4byte	last_status.7082
 1687 0ac0 00       		.byte	0
 1688 0ac1 09       		.uleb128 0x9
 1689 0ac2 04       		.byte	0x4
 1690 0ac3 DE080000 		.4byte	0x8de
 1691 0ac7 1D       		.uleb128 0x1d
 1692 0ac8 01       		.byte	0x1
 1693 0ac9 7F020000 		.4byte	.LASF130
 1694 0acd 01       		.byte	0x1
 1695 0ace 4A       		.byte	0x4a
 1696 0acf 01       		.byte	0x1
 1697 0ad0 9B000000 		.4byte	0x9b
 1698 0ad4 00000000 		.4byte	.LFB120
 1699 0ad8 04000000 		.4byte	.LFE120
 1700 0adc 02       		.byte	0x2
 1701 0add 7D       		.byte	0x7d
 1702 0ade 00       		.sleb128 0
 1703 0adf 01       		.byte	0x1
ARM GAS  C:\Users\jenny\AppData\Local\Temp\ccuytcgf.s 			page 31


 1704 0ae0 F40A0000 		.4byte	0xaf4
 1705 0ae4 1E       		.uleb128 0x1e
 1706 0ae5 81040000 		.4byte	.LASF131
 1707 0ae9 01       		.byte	0x1
 1708 0aea 4A       		.byte	0x4a
 1709 0aeb C10A0000 		.4byte	0xac1
 1710 0aef 3A000000 		.4byte	.LLST1
 1711 0af3 00       		.byte	0
 1712 0af4 20       		.uleb128 0x20
 1713 0af5 01       		.byte	0x1
 1714 0af6 FB040000 		.4byte	.LASF139
 1715 0afa 01       		.byte	0x1
 1716 0afb 6B       		.byte	0x6b
 1717 0afc 01       		.byte	0x1
 1718 0afd 00000000 		.4byte	.LFB121
 1719 0b01 02000000 		.4byte	.LFE121
 1720 0b05 02       		.byte	0x2
 1721 0b06 7D       		.byte	0x7d
 1722 0b07 00       		.sleb128 0
 1723 0b08 01       		.byte	0x1
 1724 0b09 21       		.uleb128 0x21
 1725 0b0a A5000000 		.4byte	.LASF132
 1726 0b0e 0D       		.byte	0xd
 1727 0b0f 9806     		.2byte	0x698
 1728 0b11 02050000 		.4byte	0x502
 1729 0b15 01       		.byte	0x1
 1730 0b16 01       		.byte	0x1
 1731 0b17 22       		.uleb128 0x22
 1732 0b18 B1050000 		.4byte	.LASF133
 1733 0b1c 01       		.byte	0x1
 1734 0b1d 1A       		.byte	0x1a
 1735 0b1e 290B0000 		.4byte	0xb29
 1736 0b22 01       		.byte	0x1
 1737 0b23 05       		.byte	0x5
 1738 0b24 03       		.byte	0x3
 1739 0b25 00000000 		.4byte	pal_default_config
 1740 0b29 10       		.uleb128 0x10
 1741 0b2a BD080000 		.4byte	0x8bd
 1742 0b2e 23       		.uleb128 0x23
 1743 0b2f 01       		.byte	0x1
 1744 0b30 DB010000 		.4byte	.LASF140
 1745 0b34 0E       		.byte	0xe
 1746 0b35 0606     		.2byte	0x606
 1747 0b37 01       		.byte	0x1
 1748 0b38 01       		.byte	0x1
 1749 0b39 00       		.byte	0
 1750              		.section	.debug_abbrev,"",%progbits
 1751              	.Ldebug_abbrev0:
 1752 0000 01       		.uleb128 0x1
 1753 0001 11       		.uleb128 0x11
 1754 0002 01       		.byte	0x1
 1755 0003 25       		.uleb128 0x25
 1756 0004 0E       		.uleb128 0xe
 1757 0005 13       		.uleb128 0x13
 1758 0006 0B       		.uleb128 0xb
 1759 0007 03       		.uleb128 0x3
 1760 0008 0E       		.uleb128 0xe
ARM GAS  C:\Users\jenny\AppData\Local\Temp\ccuytcgf.s 			page 32


 1761 0009 1B       		.uleb128 0x1b
 1762 000a 0E       		.uleb128 0xe
 1763 000b 55       		.uleb128 0x55
 1764 000c 06       		.uleb128 0x6
 1765 000d 11       		.uleb128 0x11
 1766 000e 01       		.uleb128 0x1
 1767 000f 52       		.uleb128 0x52
 1768 0010 01       		.uleb128 0x1
 1769 0011 10       		.uleb128 0x10
 1770 0012 06       		.uleb128 0x6
 1771 0013 00       		.byte	0
 1772 0014 00       		.byte	0
 1773 0015 02       		.uleb128 0x2
 1774 0016 24       		.uleb128 0x24
 1775 0017 00       		.byte	0
 1776 0018 0B       		.uleb128 0xb
 1777 0019 0B       		.uleb128 0xb
 1778 001a 3E       		.uleb128 0x3e
 1779 001b 0B       		.uleb128 0xb
 1780 001c 03       		.uleb128 0x3
 1781 001d 08       		.uleb128 0x8
 1782 001e 00       		.byte	0
 1783 001f 00       		.byte	0
 1784 0020 03       		.uleb128 0x3
 1785 0021 24       		.uleb128 0x24
 1786 0022 00       		.byte	0
 1787 0023 0B       		.uleb128 0xb
 1788 0024 0B       		.uleb128 0xb
 1789 0025 3E       		.uleb128 0x3e
 1790 0026 0B       		.uleb128 0xb
 1791 0027 03       		.uleb128 0x3
 1792 0028 0E       		.uleb128 0xe
 1793 0029 00       		.byte	0
 1794 002a 00       		.byte	0
 1795 002b 04       		.uleb128 0x4
 1796 002c 16       		.uleb128 0x16
 1797 002d 00       		.byte	0
 1798 002e 03       		.uleb128 0x3
 1799 002f 0E       		.uleb128 0xe
 1800 0030 3A       		.uleb128 0x3a
 1801 0031 0B       		.uleb128 0xb
 1802 0032 3B       		.uleb128 0x3b
 1803 0033 0B       		.uleb128 0xb
 1804 0034 49       		.uleb128 0x49
 1805 0035 13       		.uleb128 0x13
 1806 0036 00       		.byte	0
 1807 0037 00       		.byte	0
 1808 0038 05       		.uleb128 0x5
 1809 0039 13       		.uleb128 0x13
 1810 003a 01       		.byte	0x1
 1811 003b 03       		.uleb128 0x3
 1812 003c 0E       		.uleb128 0xe
 1813 003d 0B       		.uleb128 0xb
 1814 003e 0B       		.uleb128 0xb
 1815 003f 3A       		.uleb128 0x3a
 1816 0040 0B       		.uleb128 0xb
 1817 0041 3B       		.uleb128 0x3b
ARM GAS  C:\Users\jenny\AppData\Local\Temp\ccuytcgf.s 			page 33


 1818 0042 0B       		.uleb128 0xb
 1819 0043 01       		.uleb128 0x1
 1820 0044 13       		.uleb128 0x13
 1821 0045 00       		.byte	0
 1822 0046 00       		.byte	0
 1823 0047 06       		.uleb128 0x6
 1824 0048 0D       		.uleb128 0xd
 1825 0049 00       		.byte	0
 1826 004a 03       		.uleb128 0x3
 1827 004b 0E       		.uleb128 0xe
 1828 004c 3A       		.uleb128 0x3a
 1829 004d 0B       		.uleb128 0xb
 1830 004e 3B       		.uleb128 0x3b
 1831 004f 0B       		.uleb128 0xb
 1832 0050 49       		.uleb128 0x49
 1833 0051 13       		.uleb128 0x13
 1834 0052 38       		.uleb128 0x38
 1835 0053 0A       		.uleb128 0xa
 1836 0054 00       		.byte	0
 1837 0055 00       		.byte	0
 1838 0056 07       		.uleb128 0x7
 1839 0057 0D       		.uleb128 0xd
 1840 0058 00       		.byte	0
 1841 0059 03       		.uleb128 0x3
 1842 005a 08       		.uleb128 0x8
 1843 005b 3A       		.uleb128 0x3a
 1844 005c 0B       		.uleb128 0xb
 1845 005d 3B       		.uleb128 0x3b
 1846 005e 0B       		.uleb128 0xb
 1847 005f 49       		.uleb128 0x49
 1848 0060 13       		.uleb128 0x13
 1849 0061 38       		.uleb128 0x38
 1850 0062 0A       		.uleb128 0xa
 1851 0063 00       		.byte	0
 1852 0064 00       		.byte	0
 1853 0065 08       		.uleb128 0x8
 1854 0066 13       		.uleb128 0x13
 1855 0067 01       		.byte	0x1
 1856 0068 0B       		.uleb128 0xb
 1857 0069 0B       		.uleb128 0xb
 1858 006a 3A       		.uleb128 0x3a
 1859 006b 0B       		.uleb128 0xb
 1860 006c 3B       		.uleb128 0x3b
 1861 006d 0B       		.uleb128 0xb
 1862 006e 01       		.uleb128 0x1
 1863 006f 13       		.uleb128 0x13
 1864 0070 00       		.byte	0
 1865 0071 00       		.byte	0
 1866 0072 09       		.uleb128 0x9
 1867 0073 0F       		.uleb128 0xf
 1868 0074 00       		.byte	0
 1869 0075 0B       		.uleb128 0xb
 1870 0076 0B       		.uleb128 0xb
 1871 0077 49       		.uleb128 0x49
 1872 0078 13       		.uleb128 0x13
 1873 0079 00       		.byte	0
 1874 007a 00       		.byte	0
ARM GAS  C:\Users\jenny\AppData\Local\Temp\ccuytcgf.s 			page 34


 1875 007b 0A       		.uleb128 0xa
 1876 007c 0F       		.uleb128 0xf
 1877 007d 00       		.byte	0
 1878 007e 0B       		.uleb128 0xb
 1879 007f 0B       		.uleb128 0xb
 1880 0080 00       		.byte	0
 1881 0081 00       		.byte	0
 1882 0082 0B       		.uleb128 0xb
 1883 0083 13       		.uleb128 0x13
 1884 0084 01       		.byte	0x1
 1885 0085 03       		.uleb128 0x3
 1886 0086 0E       		.uleb128 0xe
 1887 0087 0B       		.uleb128 0xb
 1888 0088 0B       		.uleb128 0xb
 1889 0089 3A       		.uleb128 0x3a
 1890 008a 0B       		.uleb128 0xb
 1891 008b 3B       		.uleb128 0x3b
 1892 008c 05       		.uleb128 0x5
 1893 008d 01       		.uleb128 0x1
 1894 008e 13       		.uleb128 0x13
 1895 008f 00       		.byte	0
 1896 0090 00       		.byte	0
 1897 0091 0C       		.uleb128 0xc
 1898 0092 0D       		.uleb128 0xd
 1899 0093 00       		.byte	0
 1900 0094 03       		.uleb128 0x3
 1901 0095 08       		.uleb128 0x8
 1902 0096 3A       		.uleb128 0x3a
 1903 0097 0B       		.uleb128 0xb
 1904 0098 3B       		.uleb128 0x3b
 1905 0099 05       		.uleb128 0x5
 1906 009a 49       		.uleb128 0x49
 1907 009b 13       		.uleb128 0x13
 1908 009c 38       		.uleb128 0x38
 1909 009d 0A       		.uleb128 0xa
 1910 009e 00       		.byte	0
 1911 009f 00       		.byte	0
 1912 00a0 0D       		.uleb128 0xd
 1913 00a1 35       		.uleb128 0x35
 1914 00a2 00       		.byte	0
 1915 00a3 49       		.uleb128 0x49
 1916 00a4 13       		.uleb128 0x13
 1917 00a5 00       		.byte	0
 1918 00a6 00       		.byte	0
 1919 00a7 0E       		.uleb128 0xe
 1920 00a8 17       		.uleb128 0x17
 1921 00a9 01       		.byte	0x1
 1922 00aa 0B       		.uleb128 0xb
 1923 00ab 0B       		.uleb128 0xb
 1924 00ac 3A       		.uleb128 0x3a
 1925 00ad 0B       		.uleb128 0xb
 1926 00ae 3B       		.uleb128 0x3b
 1927 00af 0B       		.uleb128 0xb
 1928 00b0 01       		.uleb128 0x1
 1929 00b1 13       		.uleb128 0x13
 1930 00b2 00       		.byte	0
 1931 00b3 00       		.byte	0
ARM GAS  C:\Users\jenny\AppData\Local\Temp\ccuytcgf.s 			page 35


 1932 00b4 0F       		.uleb128 0xf
 1933 00b5 0D       		.uleb128 0xd
 1934 00b6 00       		.byte	0
 1935 00b7 03       		.uleb128 0x3
 1936 00b8 0E       		.uleb128 0xe
 1937 00b9 3A       		.uleb128 0x3a
 1938 00ba 0B       		.uleb128 0xb
 1939 00bb 3B       		.uleb128 0x3b
 1940 00bc 0B       		.uleb128 0xb
 1941 00bd 49       		.uleb128 0x49
 1942 00be 13       		.uleb128 0x13
 1943 00bf 00       		.byte	0
 1944 00c0 00       		.byte	0
 1945 00c1 10       		.uleb128 0x10
 1946 00c2 26       		.uleb128 0x26
 1947 00c3 00       		.byte	0
 1948 00c4 49       		.uleb128 0x49
 1949 00c5 13       		.uleb128 0x13
 1950 00c6 00       		.byte	0
 1951 00c7 00       		.byte	0
 1952 00c8 11       		.uleb128 0x11
 1953 00c9 01       		.uleb128 0x1
 1954 00ca 01       		.byte	0x1
 1955 00cb 49       		.uleb128 0x49
 1956 00cc 13       		.uleb128 0x13
 1957 00cd 01       		.uleb128 0x1
 1958 00ce 13       		.uleb128 0x13
 1959 00cf 00       		.byte	0
 1960 00d0 00       		.byte	0
 1961 00d1 12       		.uleb128 0x12
 1962 00d2 21       		.uleb128 0x21
 1963 00d3 00       		.byte	0
 1964 00d4 49       		.uleb128 0x49
 1965 00d5 13       		.uleb128 0x13
 1966 00d6 2F       		.uleb128 0x2f
 1967 00d7 0B       		.uleb128 0xb
 1968 00d8 00       		.byte	0
 1969 00d9 00       		.byte	0
 1970 00da 13       		.uleb128 0x13
 1971 00db 13       		.uleb128 0x13
 1972 00dc 01       		.byte	0x1
 1973 00dd 0B       		.uleb128 0xb
 1974 00de 0B       		.uleb128 0xb
 1975 00df 3A       		.uleb128 0x3a
 1976 00e0 0B       		.uleb128 0xb
 1977 00e1 3B       		.uleb128 0x3b
 1978 00e2 05       		.uleb128 0x5
 1979 00e3 01       		.uleb128 0x1
 1980 00e4 13       		.uleb128 0x13
 1981 00e5 00       		.byte	0
 1982 00e6 00       		.byte	0
 1983 00e7 14       		.uleb128 0x14
 1984 00e8 0D       		.uleb128 0xd
 1985 00e9 00       		.byte	0
 1986 00ea 03       		.uleb128 0x3
 1987 00eb 0E       		.uleb128 0xe
 1988 00ec 3A       		.uleb128 0x3a
ARM GAS  C:\Users\jenny\AppData\Local\Temp\ccuytcgf.s 			page 36


 1989 00ed 0B       		.uleb128 0xb
 1990 00ee 3B       		.uleb128 0x3b
 1991 00ef 05       		.uleb128 0x5
 1992 00f0 49       		.uleb128 0x49
 1993 00f1 13       		.uleb128 0x13
 1994 00f2 38       		.uleb128 0x38
 1995 00f3 0A       		.uleb128 0xa
 1996 00f4 00       		.byte	0
 1997 00f5 00       		.byte	0
 1998 00f6 15       		.uleb128 0x15
 1999 00f7 16       		.uleb128 0x16
 2000 00f8 00       		.byte	0
 2001 00f9 03       		.uleb128 0x3
 2002 00fa 0E       		.uleb128 0xe
 2003 00fb 3A       		.uleb128 0x3a
 2004 00fc 0B       		.uleb128 0xb
 2005 00fd 3B       		.uleb128 0x3b
 2006 00fe 05       		.uleb128 0x5
 2007 00ff 49       		.uleb128 0x49
 2008 0100 13       		.uleb128 0x13
 2009 0101 00       		.byte	0
 2010 0102 00       		.byte	0
 2011 0103 16       		.uleb128 0x16
 2012 0104 04       		.uleb128 0x4
 2013 0105 01       		.byte	0x1
 2014 0106 0B       		.uleb128 0xb
 2015 0107 0B       		.uleb128 0xb
 2016 0108 3A       		.uleb128 0x3a
 2017 0109 0B       		.uleb128 0xb
 2018 010a 3B       		.uleb128 0x3b
 2019 010b 0B       		.uleb128 0xb
 2020 010c 01       		.uleb128 0x1
 2021 010d 13       		.uleb128 0x13
 2022 010e 00       		.byte	0
 2023 010f 00       		.byte	0
 2024 0110 17       		.uleb128 0x17
 2025 0111 28       		.uleb128 0x28
 2026 0112 00       		.byte	0
 2027 0113 03       		.uleb128 0x3
 2028 0114 0E       		.uleb128 0xe
 2029 0115 1C       		.uleb128 0x1c
 2030 0116 0D       		.uleb128 0xd
 2031 0117 00       		.byte	0
 2032 0118 00       		.byte	0
 2033 0119 18       		.uleb128 0x18
 2034 011a 15       		.uleb128 0x15
 2035 011b 01       		.byte	0x1
 2036 011c 27       		.uleb128 0x27
 2037 011d 0C       		.uleb128 0xc
 2038 011e 49       		.uleb128 0x49
 2039 011f 13       		.uleb128 0x13
 2040 0120 01       		.uleb128 0x1
 2041 0121 13       		.uleb128 0x13
 2042 0122 00       		.byte	0
 2043 0123 00       		.byte	0
 2044 0124 19       		.uleb128 0x19
 2045 0125 05       		.uleb128 0x5
ARM GAS  C:\Users\jenny\AppData\Local\Temp\ccuytcgf.s 			page 37


 2046 0126 00       		.byte	0
 2047 0127 49       		.uleb128 0x49
 2048 0128 13       		.uleb128 0x13
 2049 0129 00       		.byte	0
 2050 012a 00       		.byte	0
 2051 012b 1A       		.uleb128 0x1a
 2052 012c 0D       		.uleb128 0xd
 2053 012d 00       		.byte	0
 2054 012e 03       		.uleb128 0x3
 2055 012f 08       		.uleb128 0x8
 2056 0130 3A       		.uleb128 0x3a
 2057 0131 0B       		.uleb128 0xb
 2058 0132 3B       		.uleb128 0x3b
 2059 0133 0B       		.uleb128 0xb
 2060 0134 49       		.uleb128 0x49
 2061 0135 13       		.uleb128 0x13
 2062 0136 00       		.byte	0
 2063 0137 00       		.byte	0
 2064 0138 1B       		.uleb128 0x1b
 2065 0139 2E       		.uleb128 0x2e
 2066 013a 01       		.byte	0x1
 2067 013b 3F       		.uleb128 0x3f
 2068 013c 0C       		.uleb128 0xc
 2069 013d 03       		.uleb128 0x3
 2070 013e 0E       		.uleb128 0xe
 2071 013f 3A       		.uleb128 0x3a
 2072 0140 0B       		.uleb128 0xb
 2073 0141 3B       		.uleb128 0x3b
 2074 0142 0B       		.uleb128 0xb
 2075 0143 27       		.uleb128 0x27
 2076 0144 0C       		.uleb128 0xc
 2077 0145 11       		.uleb128 0x11
 2078 0146 01       		.uleb128 0x1
 2079 0147 12       		.uleb128 0x12
 2080 0148 01       		.uleb128 0x1
 2081 0149 40       		.uleb128 0x40
 2082 014a 0A       		.uleb128 0xa
 2083 014b 9742     		.uleb128 0x2117
 2084 014d 0C       		.uleb128 0xc
 2085 014e 01       		.uleb128 0x1
 2086 014f 13       		.uleb128 0x13
 2087 0150 00       		.byte	0
 2088 0151 00       		.byte	0
 2089 0152 1C       		.uleb128 0x1c
 2090 0153 898201   		.uleb128 0x4109
 2091 0156 00       		.byte	0
 2092 0157 11       		.uleb128 0x11
 2093 0158 01       		.uleb128 0x1
 2094 0159 9542     		.uleb128 0x2115
 2095 015b 0C       		.uleb128 0xc
 2096 015c 31       		.uleb128 0x31
 2097 015d 13       		.uleb128 0x13
 2098 015e 00       		.byte	0
 2099 015f 00       		.byte	0
 2100 0160 1D       		.uleb128 0x1d
 2101 0161 2E       		.uleb128 0x2e
 2102 0162 01       		.byte	0x1
ARM GAS  C:\Users\jenny\AppData\Local\Temp\ccuytcgf.s 			page 38


 2103 0163 3F       		.uleb128 0x3f
 2104 0164 0C       		.uleb128 0xc
 2105 0165 03       		.uleb128 0x3
 2106 0166 0E       		.uleb128 0xe
 2107 0167 3A       		.uleb128 0x3a
 2108 0168 0B       		.uleb128 0xb
 2109 0169 3B       		.uleb128 0x3b
 2110 016a 0B       		.uleb128 0xb
 2111 016b 27       		.uleb128 0x27
 2112 016c 0C       		.uleb128 0xc
 2113 016d 49       		.uleb128 0x49
 2114 016e 13       		.uleb128 0x13
 2115 016f 11       		.uleb128 0x11
 2116 0170 01       		.uleb128 0x1
 2117 0171 12       		.uleb128 0x12
 2118 0172 01       		.uleb128 0x1
 2119 0173 40       		.uleb128 0x40
 2120 0174 0A       		.uleb128 0xa
 2121 0175 9742     		.uleb128 0x2117
 2122 0177 0C       		.uleb128 0xc
 2123 0178 01       		.uleb128 0x1
 2124 0179 13       		.uleb128 0x13
 2125 017a 00       		.byte	0
 2126 017b 00       		.byte	0
 2127 017c 1E       		.uleb128 0x1e
 2128 017d 05       		.uleb128 0x5
 2129 017e 00       		.byte	0
 2130 017f 03       		.uleb128 0x3
 2131 0180 0E       		.uleb128 0xe
 2132 0181 3A       		.uleb128 0x3a
 2133 0182 0B       		.uleb128 0xb
 2134 0183 3B       		.uleb128 0x3b
 2135 0184 0B       		.uleb128 0xb
 2136 0185 49       		.uleb128 0x49
 2137 0186 13       		.uleb128 0x13
 2138 0187 02       		.uleb128 0x2
 2139 0188 06       		.uleb128 0x6
 2140 0189 00       		.byte	0
 2141 018a 00       		.byte	0
 2142 018b 1F       		.uleb128 0x1f
 2143 018c 34       		.uleb128 0x34
 2144 018d 00       		.byte	0
 2145 018e 03       		.uleb128 0x3
 2146 018f 0E       		.uleb128 0xe
 2147 0190 3A       		.uleb128 0x3a
 2148 0191 0B       		.uleb128 0xb
 2149 0192 3B       		.uleb128 0x3b
 2150 0193 0B       		.uleb128 0xb
 2151 0194 49       		.uleb128 0x49
 2152 0195 13       		.uleb128 0x13
 2153 0196 02       		.uleb128 0x2
 2154 0197 0A       		.uleb128 0xa
 2155 0198 00       		.byte	0
 2156 0199 00       		.byte	0
 2157 019a 20       		.uleb128 0x20
 2158 019b 2E       		.uleb128 0x2e
 2159 019c 00       		.byte	0
ARM GAS  C:\Users\jenny\AppData\Local\Temp\ccuytcgf.s 			page 39


 2160 019d 3F       		.uleb128 0x3f
 2161 019e 0C       		.uleb128 0xc
 2162 019f 03       		.uleb128 0x3
 2163 01a0 0E       		.uleb128 0xe
 2164 01a1 3A       		.uleb128 0x3a
 2165 01a2 0B       		.uleb128 0xb
 2166 01a3 3B       		.uleb128 0x3b
 2167 01a4 0B       		.uleb128 0xb
 2168 01a5 27       		.uleb128 0x27
 2169 01a6 0C       		.uleb128 0xc
 2170 01a7 11       		.uleb128 0x11
 2171 01a8 01       		.uleb128 0x1
 2172 01a9 12       		.uleb128 0x12
 2173 01aa 01       		.uleb128 0x1
 2174 01ab 40       		.uleb128 0x40
 2175 01ac 0A       		.uleb128 0xa
 2176 01ad 9742     		.uleb128 0x2117
 2177 01af 0C       		.uleb128 0xc
 2178 01b0 00       		.byte	0
 2179 01b1 00       		.byte	0
 2180 01b2 21       		.uleb128 0x21
 2181 01b3 34       		.uleb128 0x34
 2182 01b4 00       		.byte	0
 2183 01b5 03       		.uleb128 0x3
 2184 01b6 0E       		.uleb128 0xe
 2185 01b7 3A       		.uleb128 0x3a
 2186 01b8 0B       		.uleb128 0xb
 2187 01b9 3B       		.uleb128 0x3b
 2188 01ba 05       		.uleb128 0x5
 2189 01bb 49       		.uleb128 0x49
 2190 01bc 13       		.uleb128 0x13
 2191 01bd 3F       		.uleb128 0x3f
 2192 01be 0C       		.uleb128 0xc
 2193 01bf 3C       		.uleb128 0x3c
 2194 01c0 0C       		.uleb128 0xc
 2195 01c1 00       		.byte	0
 2196 01c2 00       		.byte	0
 2197 01c3 22       		.uleb128 0x22
 2198 01c4 34       		.uleb128 0x34
 2199 01c5 00       		.byte	0
 2200 01c6 03       		.uleb128 0x3
 2201 01c7 0E       		.uleb128 0xe
 2202 01c8 3A       		.uleb128 0x3a
 2203 01c9 0B       		.uleb128 0xb
 2204 01ca 3B       		.uleb128 0x3b
 2205 01cb 0B       		.uleb128 0xb
 2206 01cc 49       		.uleb128 0x49
 2207 01cd 13       		.uleb128 0x13
 2208 01ce 3F       		.uleb128 0x3f
 2209 01cf 0C       		.uleb128 0xc
 2210 01d0 02       		.uleb128 0x2
 2211 01d1 0A       		.uleb128 0xa
 2212 01d2 00       		.byte	0
 2213 01d3 00       		.byte	0
 2214 01d4 23       		.uleb128 0x23
 2215 01d5 2E       		.uleb128 0x2e
 2216 01d6 00       		.byte	0
ARM GAS  C:\Users\jenny\AppData\Local\Temp\ccuytcgf.s 			page 40


 2217 01d7 3F       		.uleb128 0x3f
 2218 01d8 0C       		.uleb128 0xc
 2219 01d9 03       		.uleb128 0x3
 2220 01da 0E       		.uleb128 0xe
 2221 01db 3A       		.uleb128 0x3a
 2222 01dc 0B       		.uleb128 0xb
 2223 01dd 3B       		.uleb128 0x3b
 2224 01de 05       		.uleb128 0x5
 2225 01df 27       		.uleb128 0x27
 2226 01e0 0C       		.uleb128 0xc
 2227 01e1 3C       		.uleb128 0x3c
 2228 01e2 0C       		.uleb128 0xc
 2229 01e3 00       		.byte	0
 2230 01e4 00       		.byte	0
 2231 01e5 00       		.byte	0
 2232              		.section	.debug_loc,"",%progbits
 2233              	.Ldebug_loc0:
 2234              	.LLST0:
 2235 0000 00000000 		.4byte	.LVL1
 2236 0004 14000000 		.4byte	.LVL2
 2237 0008 0100     		.2byte	0x1
 2238 000a 50       		.byte	0x50
 2239 000b 14000000 		.4byte	.LVL2
 2240 000f 24000000 		.4byte	.LVL3
 2241 0013 0400     		.2byte	0x4
 2242 0015 F3       		.byte	0xf3
 2243 0016 01       		.uleb128 0x1
 2244 0017 50       		.byte	0x50
 2245 0018 9F       		.byte	0x9f
 2246 0019 24000000 		.4byte	.LVL3
 2247 001d 28000000 		.4byte	.LVL4
 2248 0021 0100     		.2byte	0x1
 2249 0023 50       		.byte	0x50
 2250 0024 28000000 		.4byte	.LVL4
 2251 0028 30000000 		.4byte	.LFE119
 2252 002c 0400     		.2byte	0x4
 2253 002e F3       		.byte	0xf3
 2254 002f 01       		.uleb128 0x1
 2255 0030 50       		.byte	0x50
 2256 0031 9F       		.byte	0x9f
 2257 0032 00000000 		.4byte	0
 2258 0036 00000000 		.4byte	0
 2259              	.LLST1:
 2260 003a 00000000 		.4byte	.LVL5
 2261 003e 02000000 		.4byte	.LVL6
 2262 0042 0100     		.2byte	0x1
 2263 0044 50       		.byte	0x50
 2264 0045 02000000 		.4byte	.LVL6
 2265 0049 04000000 		.4byte	.LFE120
 2266 004d 0400     		.2byte	0x4
 2267 004f F3       		.byte	0xf3
 2268 0050 01       		.uleb128 0x1
 2269 0051 50       		.byte	0x50
 2270 0052 9F       		.byte	0x9f
 2271 0053 00000000 		.4byte	0
 2272 0057 00000000 		.4byte	0
 2273              		.section	.debug_aranges,"",%progbits
ARM GAS  C:\Users\jenny\AppData\Local\Temp\ccuytcgf.s 			page 41


 2274 0000 34000000 		.4byte	0x34
 2275 0004 0200     		.2byte	0x2
 2276 0006 00000000 		.4byte	.Ldebug_info0
 2277 000a 04       		.byte	0x4
 2278 000b 00       		.byte	0
 2279 000c 0000     		.2byte	0
 2280 000e 0000     		.2byte	0
 2281 0010 00000000 		.4byte	.LFB118
 2282 0014 04000000 		.4byte	.LFE118-.LFB118
 2283 0018 00000000 		.4byte	.LFB119
 2284 001c 30000000 		.4byte	.LFE119-.LFB119
 2285 0020 00000000 		.4byte	.LFB120
 2286 0024 04000000 		.4byte	.LFE120-.LFB120
 2287 0028 00000000 		.4byte	.LFB121
 2288 002c 02000000 		.4byte	.LFE121-.LFB121
 2289 0030 00000000 		.4byte	0
 2290 0034 00000000 		.4byte	0
 2291              		.section	.debug_ranges,"",%progbits
 2292              	.Ldebug_ranges0:
 2293 0000 00000000 		.4byte	.LFB118
 2294 0004 04000000 		.4byte	.LFE118
 2295 0008 00000000 		.4byte	.LFB119
 2296 000c 30000000 		.4byte	.LFE119
 2297 0010 00000000 		.4byte	.LFB120
 2298 0014 04000000 		.4byte	.LFE120
 2299 0018 00000000 		.4byte	.LFB121
 2300 001c 02000000 		.4byte	.LFE121
 2301 0020 00000000 		.4byte	0
 2302 0024 00000000 		.4byte	0
 2303              		.section	.debug_line,"",%progbits
 2304              	.Ldebug_line0:
 2305 0000 69020000 		.section	.debug_str,"MS",%progbits,1
 2305      02001702 
 2305      00000201 
 2305      FB0E0D00 
 2305      01010101 
 2306              	.LASF80:
 2307 0000 426C6F63 		.ascii	"BlockDeviceInfo\000"
 2307      6B446576 
 2307      69636549 
 2307      6E666F00 
 2308              	.LASF97:
 2309 0010 73746D33 		.ascii	"stm32_gpio_setup_t\000"
 2309      325F6770 
 2309      696F5F73 
 2309      65747570 
 2309      5F7400
 2310              	.LASF59:
 2311 0023 4D304152 		.ascii	"M0AR\000"
 2311      00
 2312              	.LASF35:
 2313 0028 705F7469 		.ascii	"p_time\000"
 2313      6D6500
 2314              	.LASF79:
 2315 002f 626C6B5F 		.ascii	"blk_num\000"
 2315      6E756D00 
 2316              	.LASF53:
ARM GAS  C:\Users\jenny\AppData\Local\Temp\ccuytcgf.s 			page 42


 2317 0037 7264796D 		.ascii	"rdymsg\000"
 2317      736700
 2318              	.LASF122:
 2319 003e 69735F70 		.ascii	"is_protected\000"
 2319      726F7465 
 2319      63746564 
 2319      00
 2320              	.LASF83:
 2321 004b 4F545950 		.ascii	"OTYPER\000"
 2321      455200
 2322              	.LASF92:
 2323 0052 6F747970 		.ascii	"otyper\000"
 2323      657200
 2324              	.LASF112:
 2325 0059 63617061 		.ascii	"capacity\000"
 2325      63697479 
 2325      00
 2326              	.LASF62:
 2327 0062 73747265 		.ascii	"stream\000"
 2327      616D00
 2328              	.LASF105:
 2329 0069 50484461 		.ascii	"PHData\000"
 2329      746100
 2330              	.LASF82:
 2331 0070 4D4F4445 		.ascii	"MODER\000"
 2331      5200
 2332              	.LASF12:
 2333 0076 6C6F6E67 		.ascii	"long long unsigned int\000"
 2333      206C6F6E 
 2333      6720756E 
 2333      7369676E 
 2333      65642069 
 2334              	.LASF85:
 2335 008d 50555044 		.ascii	"PUPDR\000"
 2335      5200
 2336              	.LASF54:
 2337 0093 65786974 		.ascii	"exitcode\000"
 2337      636F6465 
 2337      00
 2338              	.LASF114:
 2339 009c 63617264 		.ascii	"cardmode\000"
 2339      6D6F6465 
 2339      00
 2340              	.LASF132:
 2341 00a5 49544D5F 		.ascii	"ITM_RxBuffer\000"
 2341      52784275 
 2341      66666572 
 2341      00
 2342              	.LASF77:
 2343 00b2 626C6B73 		.ascii	"blkstate_t\000"
 2343      74617465 
 2343      5F7400
 2344              	.LASF26:
 2345 00bd 705F7072 		.ascii	"p_prio\000"
 2345      696F00
 2346              	.LASF11:
 2347 00c4 6C6F6E67 		.ascii	"long long int\000"
ARM GAS  C:\Users\jenny\AppData\Local\Temp\ccuytcgf.s 			page 43


 2347      206C6F6E 
 2347      6720696E 
 2347      7400
 2348              	.LASF1:
 2349 00d2 7369676E 		.ascii	"signed char\000"
 2349      65642063 
 2349      68617200 
 2350              	.LASF42:
 2351 00de 705F6D70 		.ascii	"p_mpool\000"
 2351      6F6F6C00 
 2352              	.LASF13:
 2353 00e6 626F6F6C 		.ascii	"bool_t\000"
 2353      5F7400
 2354              	.LASF50:
 2355 00ed 6D5F7175 		.ascii	"m_queue\000"
 2355      65756500 
 2356              	.LASF124:
 2357 00f5 64697363 		.ascii	"disconnect\000"
 2357      6F6E6E65 
 2357      637400
 2358              	.LASF91:
 2359 0100 6D6F6465 		.ascii	"moder\000"
 2359      7200
 2360              	.LASF18:
 2361 0106 74736C69 		.ascii	"tslices_t\000"
 2361      6365735F 
 2361      7400
 2362              	.LASF68:
 2363 0110 424C4B5F 		.ascii	"BLK_UNINIT\000"
 2363      554E494E 
 2363      495400
 2364              	.LASF134:
 2365 011b 474E5520 		.ascii	"GNU C 4.7.4 20130913 (release) [ARM/embedded-4_7-br"
 2365      4320342E 
 2365      372E3420 
 2365      32303133 
 2365      30393133 
 2366 014e 616E6368 		.ascii	"anch revision 202601]\000"
 2366      20726576 
 2366      6973696F 
 2366      6E203230 
 2366      32363031 
 2367              	.LASF111:
 2368 0164 73746174 		.ascii	"state\000"
 2368      6500
 2369              	.LASF8:
 2370 016a 6C6F6E67 		.ascii	"long int\000"
 2370      20696E74 
 2370      00
 2371              	.LASF102:
 2372 0173 50454461 		.ascii	"PEData\000"
 2372      746100
 2373              	.LASF16:
 2374 017a 74737461 		.ascii	"tstate_t\000"
 2374      74655F74 
 2374      00
 2375              	.LASF28:
ARM GAS  C:\Users\jenny\AppData\Local\Temp\ccuytcgf.s 			page 44


 2376 0183 705F6E65 		.ascii	"p_newer\000"
 2376      77657200 
 2377              	.LASF90:
 2378 018b 4750494F 		.ascii	"GPIO_TypeDef\000"
 2378      5F547970 
 2378      65446566 
 2378      00
 2379              	.LASF128:
 2380 0198 6765745F 		.ascii	"get_info\000"
 2380      696E666F 
 2380      00
 2381              	.LASF69:
 2382 01a1 424C4B5F 		.ascii	"BLK_STOP\000"
 2382      53544F50 
 2382      00
 2383              	.LASF84:
 2384 01aa 4F535045 		.ascii	"OSPEEDR\000"
 2384      45445200 
 2385              	.LASF45:
 2386 01b2 72656761 		.ascii	"regarm_t\000"
 2386      726D5F74 
 2386      00
 2387              	.LASF65:
 2388 01bb 73656C66 		.ascii	"selfindex\000"
 2388      696E6465 
 2388      7800
 2389              	.LASF118:
 2390 01c5 64756D6D 		.ascii	"dummy\000"
 2390      7900
 2391              	.LASF23:
 2392 01cb 54687265 		.ascii	"Thread\000"
 2392      616400
 2393              	.LASF78:
 2394 01d2 626C6B5F 		.ascii	"blk_size\000"
 2394      73697A65 
 2394      00
 2395              	.LASF140:
 2396 01db 73746D33 		.ascii	"stm32_clock_init\000"
 2396      325F636C 
 2396      6F636B5F 
 2396      696E6974 
 2396      00
 2397              	.LASF108:
 2398 01ec 7364636D 		.ascii	"sdcmode_t\000"
 2398      6F64655F 
 2398      7400
 2399              	.LASF99:
 2400 01f6 50424461 		.ascii	"PBData\000"
 2400      746100
 2401              	.LASF32:
 2402 01fd 705F666C 		.ascii	"p_flags\000"
 2402      61677300 
 2403              	.LASF0:
 2404 0205 756E7369 		.ascii	"unsigned int\000"
 2404      676E6564 
 2404      20696E74 
 2404      00
ARM GAS  C:\Users\jenny\AppData\Local\Temp\ccuytcgf.s 			page 45


 2405              	.LASF5:
 2406 0212 75696E74 		.ascii	"uint16_t\000"
 2406      31365F74 
 2406      00
 2407              	.LASF115:
 2408 021b 6572726F 		.ascii	"errors\000"
 2408      727300
 2409              	.LASF37:
 2410 0222 705F6D73 		.ascii	"p_msgqueue\000"
 2410      67717565 
 2410      756500
 2411              	.LASF93:
 2412 022d 6F737065 		.ascii	"ospeedr\000"
 2412      65647200 
 2413              	.LASF87:
 2414 0235 4C434B52 		.ascii	"LCKR\000"
 2414      00
 2415              	.LASF64:
 2416 023a 69736869 		.ascii	"ishift\000"
 2416      667400
 2417              	.LASF137:
 2418 0241 5F5F6561 		.ascii	"__early_init\000"
 2418      726C795F 
 2418      696E6974 
 2418      00
 2419              	.LASF6:
 2420 024e 73686F72 		.ascii	"short unsigned int\000"
 2420      7420756E 
 2420      7369676E 
 2420      65642069 
 2420      6E7400
 2421              	.LASF103:
 2422 0261 50464461 		.ascii	"PFData\000"
 2422      746100
 2423              	.LASF70:
 2424 0268 424C4B5F 		.ascii	"BLK_ACTIVE\000"
 2424      41435449 
 2424      564500
 2425              	.LASF138:
 2426 0273 6C617374 		.ascii	"last_status\000"
 2426      5F737461 
 2426      74757300 
 2427              	.LASF130:
 2428 027f 7364635F 		.ascii	"sdc_lld_is_write_protected\000"
 2428      6C6C645F 
 2428      69735F77 
 2428      72697465 
 2428      5F70726F 
 2429              	.LASF20:
 2430 029a 6D73675F 		.ascii	"msg_t\000"
 2430      7400
 2431              	.LASF135:
 2432 02a0 2E2E2F2E 		.ascii	"../../boards/OLIMEX_STM32_E407/board.c\000"
 2432      2E2F626F 
 2432      61726473 
 2432      2F4F4C49 
 2432      4D45585F 
ARM GAS  C:\Users\jenny\AppData\Local\Temp\ccuytcgf.s 			page 46


 2433              	.LASF71:
 2434 02c7 424C4B5F 		.ascii	"BLK_CONNECTING\000"
 2434      434F4E4E 
 2434      45435449 
 2434      4E4700
 2435              	.LASF15:
 2436 02d6 746D6F64 		.ascii	"tmode_t\000"
 2436      655F7400 
 2437              	.LASF44:
 2438 02de 54687265 		.ascii	"ThreadsList\000"
 2438      6164734C 
 2438      69737400 
 2439              	.LASF21:
 2440 02ea 6576656E 		.ascii	"eventmask_t\000"
 2440      746D6173 
 2440      6B5F7400 
 2441              	.LASF104:
 2442 02f6 50474461 		.ascii	"PGData\000"
 2442      746100
 2443              	.LASF126:
 2444 02fd 77726974 		.ascii	"write\000"
 2444      6500
 2445              	.LASF74:
 2446 0303 424C4B5F 		.ascii	"BLK_READING\000"
 2446      52454144 
 2446      494E4700 
 2447              	.LASF48:
 2448 030f 73697A65 		.ascii	"sizetype\000"
 2448      74797065 
 2448      00
 2449              	.LASF81:
 2450 0318 636C6561 		.ascii	"clear\000"
 2450      7200
 2451              	.LASF49:
 2452 031e 4D757465 		.ascii	"Mutex\000"
 2452      7800
 2453              	.LASF29:
 2454 0324 705F6F6C 		.ascii	"p_older\000"
 2454      64657200 
 2455              	.LASF76:
 2456 032c 424C4B5F 		.ascii	"BLK_SYNCING\000"
 2456      53594E43 
 2456      494E4700 
 2457              	.LASF73:
 2458 0338 424C4B5F 		.ascii	"BLK_READY\000"
 2458      52454144 
 2458      5900
 2459              	.LASF43:
 2460 0342 54687265 		.ascii	"ThreadsQueue\000"
 2460      61647351 
 2460      75657565 
 2460      00
 2461              	.LASF96:
 2462 034f 61667268 		.ascii	"afrh\000"
 2462      00
 2463              	.LASF101:
 2464 0354 50444461 		.ascii	"PDData\000"
ARM GAS  C:\Users\jenny\AppData\Local\Temp\ccuytcgf.s 			page 47


 2464      746100
 2465              	.LASF89:
 2466 035b 41465248 		.ascii	"AFRH\000"
 2466      00
 2467              	.LASF88:
 2468 0360 4146524C 		.ascii	"AFRL\000"
 2468      00
 2469              	.LASF17:
 2470 0365 74726566 		.ascii	"trefs_t\000"
 2470      735F7400 
 2471              	.LASF129:
 2472 036d 7364635F 		.ascii	"sdc_lld_is_card_inserted\000"
 2472      6C6C645F 
 2472      69735F63 
 2472      6172645F 
 2472      696E7365 
 2473              	.LASF25:
 2474 0386 705F7072 		.ascii	"p_prev\000"
 2474      657600
 2475              	.LASF67:
 2476 038d 73746D33 		.ascii	"stm32_dma_stream_t\000"
 2476      325F646D 
 2476      615F7374 
 2476      7265616D 
 2476      5F7400
 2477              	.LASF19:
 2478 03a0 74707269 		.ascii	"tprio_t\000"
 2478      6F5F7400 
 2479              	.LASF116:
 2480 03a8 74687265 		.ascii	"thread\000"
 2480      616400
 2481              	.LASF14:
 2482 03af 5F426F6F 		.ascii	"_Bool\000"
 2482      6C00
 2483              	.LASF7:
 2484 03b5 696E7433 		.ascii	"int32_t\000"
 2484      325F7400 
 2485              	.LASF2:
 2486 03bd 756E7369 		.ascii	"unsigned char\000"
 2486      676E6564 
 2486      20636861 
 2486      7200
 2487              	.LASF95:
 2488 03cb 6166726C 		.ascii	"afrl\000"
 2488      00
 2489              	.LASF40:
 2490 03d0 705F6D74 		.ascii	"p_mtxlist\000"
 2490      786C6973 
 2490      7400
 2491              	.LASF3:
 2492 03da 73686F72 		.ascii	"short int\000"
 2492      7420696E 
 2492      7400
 2493              	.LASF31:
 2494 03e4 705F7374 		.ascii	"p_state\000"
 2494      61746500 
 2495              	.LASF75:
ARM GAS  C:\Users\jenny\AppData\Local\Temp\ccuytcgf.s 			page 48


 2496 03ec 424C4B5F 		.ascii	"BLK_WRITING\000"
 2496      57524954 
 2496      494E4700 
 2497              	.LASF34:
 2498 03f8 705F7072 		.ascii	"p_preempt\000"
 2498      65656D70 
 2498      7400
 2499              	.LASF98:
 2500 0402 50414461 		.ascii	"PAData\000"
 2500      746100
 2501              	.LASF56:
 2502 0409 65776D61 		.ascii	"ewmask\000"
 2502      736B00
 2503              	.LASF24:
 2504 0410 705F6E65 		.ascii	"p_next\000"
 2504      787400
 2505              	.LASF120:
 2506 0417 53444344 		.ascii	"SDCDriverVMT\000"
 2506      72697665 
 2506      72564D54 
 2506      00
 2507              	.LASF106:
 2508 0424 50494461 		.ascii	"PIData\000"
 2508      746100
 2509              	.LASF123:
 2510 042b 636F6E6E 		.ascii	"connect\000"
 2510      65637400 
 2511              	.LASF39:
 2512 0433 705F6570 		.ascii	"p_epending\000"
 2512      656E6469 
 2512      6E6700
 2513              	.LASF63:
 2514 043e 69666372 		.ascii	"ifcr\000"
 2514      00
 2515              	.LASF9:
 2516 0443 75696E74 		.ascii	"uint32_t\000"
 2516      33325F74 
 2516      00
 2517              	.LASF10:
 2518 044c 6C6F6E67 		.ascii	"long unsigned int\000"
 2518      20756E73 
 2518      69676E65 
 2518      6420696E 
 2518      7400
 2519              	.LASF125:
 2520 045e 72656164 		.ascii	"read\000"
 2520      00
 2521              	.LASF57:
 2522 0463 63686172 		.ascii	"char\000"
 2522      00
 2523              	.LASF72:
 2524 0468 424C4B5F 		.ascii	"BLK_DISCONNECTING\000"
 2524      44495343 
 2524      4F4E4E45 
 2524      4354494E 
 2524      4700
 2525              	.LASF113:
ARM GAS  C:\Users\jenny\AppData\Local\Temp\ccuytcgf.s 			page 49


 2526 047a 636F6E66 		.ascii	"config\000"
 2526      696700
 2527              	.LASF131:
 2528 0481 73646370 		.ascii	"sdcp\000"
 2528      00
 2529              	.LASF52:
 2530 0486 6D5F6E65 		.ascii	"m_next\000"
 2530      787400
 2531              	.LASF22:
 2532 048d 73797374 		.ascii	"systime_t\000"
 2532      696D655F 
 2532      7400
 2533              	.LASF41:
 2534 0497 705F7265 		.ascii	"p_realprio\000"
 2534      616C7072 
 2534      696F00
 2535              	.LASF58:
 2536 04a2 4E445452 		.ascii	"NDTR\000"
 2536      00
 2537              	.LASF61:
 2538 04a7 444D415F 		.ascii	"DMA_Stream_TypeDef\000"
 2538      53747265 
 2538      616D5F54 
 2538      79706544 
 2538      656600
 2539              	.LASF47:
 2540 04ba 636F6E74 		.ascii	"context\000"
 2540      65787400 
 2541              	.LASF109:
 2542 04c2 73646366 		.ascii	"sdcflags_t\000"
 2542      6C616773 
 2542      5F7400
 2543              	.LASF46:
 2544 04cd 696E7463 		.ascii	"intctx\000"
 2544      747800
 2545              	.LASF121:
 2546 04d4 69735F69 		.ascii	"is_inserted\000"
 2546      6E736572 
 2546      74656400 
 2547              	.LASF60:
 2548 04e0 4D314152 		.ascii	"M1AR\000"
 2548      00
 2549              	.LASF33:
 2550 04e5 705F7265 		.ascii	"p_refs\000"
 2550      667300
 2551              	.LASF86:
 2552 04ec 42535252 		.ascii	"BSRR\000"
 2552      00
 2553              	.LASF119:
 2554 04f1 53444343 		.ascii	"SDCConfig\000"
 2554      6F6E6669 
 2554      6700
 2555              	.LASF139:
 2556 04fb 626F6172 		.ascii	"boardInit\000"
 2556      64496E69 
 2556      7400
 2557              	.LASF4:
ARM GAS  C:\Users\jenny\AppData\Local\Temp\ccuytcgf.s 			page 50


 2558 0505 75696E74 		.ascii	"uint8_t\000"
 2558      385F7400 
 2559              	.LASF94:
 2560 050d 70757064 		.ascii	"pupdr\000"
 2560      7200
 2561              	.LASF127:
 2562 0513 73796E63 		.ascii	"sync\000"
 2562      00
 2563              	.LASF136:
 2564 0518 443A5C6A 		.ascii	"D:\\jenny\\dev\\probe\\chibios\\chibios.workspace\\"
 2564      656E6E79 
 2564      5C646576 
 2564      5C70726F 
 2564      62655C63 
 2565 0545 64656D6F 		.ascii	"demos\\ARMCM4-STM32F407-LWIP-FATFS-USB\000"
 2565      735C4152 
 2565      4D434D34 
 2565      2D53544D 
 2565      33324634 
 2566              	.LASF117:
 2567 056b 646D616D 		.ascii	"dmamode\000"
 2567      6F646500 
 2568              	.LASF55:
 2569 0573 77746F62 		.ascii	"wtobjp\000"
 2569      6A7000
 2570              	.LASF30:
 2571 057a 705F6E61 		.ascii	"p_name\000"
 2571      6D6500
 2572              	.LASF100:
 2573 0581 50434461 		.ascii	"PCData\000"
 2573      746100
 2574              	.LASF38:
 2575 0588 705F6D73 		.ascii	"p_msg\000"
 2575      6700
 2576              	.LASF66:
 2577 058e 76656374 		.ascii	"vector\000"
 2577      6F7200
 2578              	.LASF107:
 2579 0595 50414C43 		.ascii	"PALConfig\000"
 2579      6F6E6669 
 2579      6700
 2580              	.LASF51:
 2581 059f 6D5F6F77 		.ascii	"m_owner\000"
 2581      6E657200 
 2582              	.LASF110:
 2583 05a7 53444344 		.ascii	"SDCDriver\000"
 2583      72697665 
 2583      7200
 2584              	.LASF133:
 2585 05b1 70616C5F 		.ascii	"pal_default_config\000"
 2585      64656661 
 2585      756C745F 
 2585      636F6E66 
 2585      696700
 2586              	.LASF27:
 2587 05c4 705F6374 		.ascii	"p_ctx\000"
 2587      7800
ARM GAS  C:\Users\jenny\AppData\Local\Temp\ccuytcgf.s 			page 51


 2588              	.LASF36:
 2589 05ca 705F7761 		.ascii	"p_waiting\000"
 2589      6974696E 
 2589      6700
 2590              		.ident	"GCC: (GNU Tools for ARM Embedded Processors) 4.7.4 20130913 (release) [ARM/embedded-4_7-br
ARM GAS  C:\Users\jenny\AppData\Local\Temp\ccuytcgf.s 			page 52


DEFINED SYMBOLS
                            *ABS*:00000000 board.c
C:\Users\jenny\AppData\Local\Temp\ccuytcgf.s:20     .text.__early_init:00000000 $t
C:\Users\jenny\AppData\Local\Temp\ccuytcgf.s:26     .text.__early_init:00000000 __early_init
C:\Users\jenny\AppData\Local\Temp\ccuytcgf.s:42     .text.sdc_lld_is_card_inserted:00000000 $t
C:\Users\jenny\AppData\Local\Temp\ccuytcgf.s:48     .text.sdc_lld_is_card_inserted:00000000 sdc_lld_is_card_inserted
C:\Users\jenny\AppData\Local\Temp\ccuytcgf.s:86     .text.sdc_lld_is_card_inserted:0000002c $d
C:\Users\jenny\AppData\Local\Temp\ccuytcgf.s:91     .text.sdc_lld_is_write_protected:00000000 $t
C:\Users\jenny\AppData\Local\Temp\ccuytcgf.s:97     .text.sdc_lld_is_write_protected:00000000 sdc_lld_is_write_protected
C:\Users\jenny\AppData\Local\Temp\ccuytcgf.s:113    .text.boardInit:00000000 $t
C:\Users\jenny\AppData\Local\Temp\ccuytcgf.s:119    .text.boardInit:00000000 boardInit
C:\Users\jenny\AppData\Local\Temp\ccuytcgf.s:135    .rodata.pal_default_config:00000000 pal_default_config
C:\Users\jenny\AppData\Local\Temp\ccuytcgf.s:132    .rodata.pal_default_config:00000000 $d
C:\Users\jenny\AppData\Local\Temp\ccuytcgf.s:203    .bss.last_status.7082:00000000 last_status.7082
C:\Users\jenny\AppData\Local\Temp\ccuytcgf.s:204    .bss.last_status.7082:00000000 $d
                     .debug_frame:00000010 $d

UNDEFINED SYMBOLS
stm32_clock_init
