ARM GAS  C:\Users\jenny\AppData\Local\Temp\ccuytcgf.s 			page 1


   1              		.syntax unified
   2              		.cpu cortex-m4
   3              		.eabi_attribute 27, 3
   4              		.fpu fpv4-sp-d16
   5              		.eabi_attribute 20, 1
   6              		.eabi_attribute 21, 1
   7              		.eabi_attribute 23, 3
   8              		.eabi_attribute 24, 1
   9              		.eabi_attribute 25, 1
  10              		.eabi_attribute 26, 1
  11              		.eabi_attribute 30, 2
  12              		.eabi_attribute 34, 1
  13              		.eabi_attribute 18, 4
  14              		.thumb
  15              		.file	"board.c"
  16              		.text
  17              	.Ltext0:
  18              		.cfi_sections	.debug_frame
  19              		.section	.text.__early_init,"ax",%progbits
  20              		.align	2
  21              		.p2align 4,,15
  22              		.global	__early_init
  23              		.thumb
  24              		.thumb_func
  25              		.type	__early_init, %function
  26              	__early_init:
  27              	.LFB118:
  28              		.file 1 "../../boards/OLIMEX_STM32_E407/board.c"
  29              		.loc 1 54 0
  30              		.cfi_startproc
  31              		@ args = 0, pretend = 0, frame = 0
  32              		@ frame_needed = 0, uses_anonymous_args = 0
  33              		@ link register save eliminated.
  34              		.loc 1 57 0
  35              		.loc 1 56 0
  36 0000 FFF7FEBF 		b	stm32_clock_init
  37              	.LVL0:
  38              		.cfi_endproc
  39              	.LFE118:
  40              		.size	__early_init, .-__early_init
  41 0004 AFF30080 		.section	.text.sdc_lld_is_card_inserted,"ax",%progbits
  41      AFF30080 
  41      AFF30080 
  42              		.align	2
  43              		.p2align 4,,15
  44              		.global	sdc_lld_is_card_inserted
  45              		.thumb
  46              		.thumb_func
  47              		.type	sdc_lld_is_card_inserted, %function
  48              	sdc_lld_is_card_inserted:
  49              	.LFB119:
  50              		.loc 1 63 0
  51              		.cfi_startproc
  52              		@ args = 0, pretend = 0, frame = 0
  53              		@ frame_needed = 0, uses_anonymous_args = 0
  54              		@ link register save eliminated.
  55              	.LVL1:
ARM GAS  C:\Users\jenny\AppData\Local\Temp\ccuytcgf.s 			page 2


  56              		.loc 1 66 0
  57 0000 0379     		ldrb	r3, [r0, #4]	@ zero_extendqisi2
  58 0002 DA1E     		subs	r2, r3, #3
  59 0004 012A     		cmp	r2, #1
  60 0006 0DD9     		bls	.L3
  61              		.loc 1 66 0 is_stmt 0 discriminator 1
  62 0008 062B     		cmp	r3, #6
  63 000a 0BD0     		beq	.L3
  64 000c 072B     		cmp	r3, #7
  65 000e 09D0     		beq	.L3
  66              		.loc 1 68 0 is_stmt 1
  67 0010 4FF40060 		mov	r0, #2048
  68              	.LVL2:
  69 0014 C4F20200 		movt	r0, 16386
  70 0018 044B     		ldr	r3, .L10
  71 001a 0169     		ldr	r1, [r0, #16]
  72 001c C1F3C020 		ubfx	r0, r1, #11, #1
  73 0020 1870     		strb	r0, [r3, #0]
  74              		.loc 1 69 0
  75 0022 7047     		bx	lr
  76              	.LVL3:
  77              	.L3:
  78              		.loc 1 67 0
  79 0024 014A     		ldr	r2, .L10
  80 0026 1078     		ldrb	r0, [r2, #0]	@ zero_extendqisi2
  81              	.LVL4:
  82 0028 7047     		bx	lr
  83              	.L11:
  84 002a 00BF     		.align	2
  85              	.L10:
  86 002c 00000000 		.word	.LANCHOR0
  87              		.cfi_endproc
  88              	.LFE119:
  89              		.size	sdc_lld_is_card_inserted, .-sdc_lld_is_card_inserted
  90              		.section	.text.sdc_lld_is_write_protected,"ax",%progbits
  91              		.align	2
  92              		.p2align 4,,15
  93              		.global	sdc_lld_is_write_protected
  94              		.thumb
  95              		.thumb_func
  96              		.type	sdc_lld_is_write_protected, %function
  97              	sdc_lld_is_write_protected:
  98              	.LFB120:
  99              		.loc 1 74 0
 100              		.cfi_startproc
 101              		@ args = 0, pretend = 0, frame = 0
 102              		@ frame_needed = 0, uses_anonymous_args = 0
 103              		@ link register save eliminated.
 104              	.LVL5:
 105              		.loc 1 78 0
 106 0000 0020     		movs	r0, #0
 107              	.LVL6:
 108 0002 7047     		bx	lr
 109              		.cfi_endproc
 110              	.LFE120:
 111              		.size	sdc_lld_is_write_protected, .-sdc_lld_is_write_protected
 112 0004 AFF30080 		.section	.text.boardInit,"ax",%progbits
ARM GAS  C:\Users\jenny\AppData\Local\Temp\ccuytcgf.s 			page 3


 112      AFF30080 
 112      AFF30080 
 113              		.align	2
 114              		.p2align 4,,15
 115              		.global	boardInit
 116              		.thumb
 117              		.thumb_func
 118              		.type	boardInit, %function
 119              	boardInit:
 120              	.LFB121:
 121              		.loc 1 107 0
 122              		.cfi_startproc
 123              		@ args = 0, pretend = 0, frame = 0
 124              		@ frame_needed = 0, uses_anonymous_args = 0
 125              		@ link register save eliminated.
 126 0000 7047     		bx	lr
 127              		.cfi_endproc
 128              	.LFE121:
 129              		.size	boardInit, .-boardInit
 130              		.global	pal_default_config
 131 0002 00BFAFF3 		.section	.rodata.pal_default_config,"a",%progbits
 131      0080AFF3 
 131      0080AFF3 
 131      0080
 132              		.align	2
 133              		.type	pal_default_config, %object
 134              		.size	pal_default_config, 252
 135              	pal_default_config:
 136 0000 2880A1AA 		.word	-1432256472
 137 0004 00000000 		.word	0
 138 0008 FFFFFFFF 		.word	-1
 139 000c 00150820 		.word	537400576
 140 0010 FFFF0000 		.word	65535
 141 0014 B00B00B0 		.word	-1342174288
 142 0018 00AA0A00 		.word	698880
 143 001c 81022AA2 		.word	-1574305151
 144 0020 00030000 		.word	768
 145 0024 FFFFFFFF 		.word	-1
 146 0028 00544008 		.word	138433536
 147 002c FFFF0000 		.word	65535
 148 0030 00000000 		.word	0
 149 0034 44050CCC 		.word	-871627452
 150 0038 A8AAAA06 		.word	111848104
 151 003c 00000000 		.word	0
 152 0040 FFFFFFFF 		.word	-1
 153 0044 01000000 		.word	1
 154 0048 FFFF0000 		.word	65535
 155 004c B055BB88 		.word	-2000988752
 156 0050 CCCC0C00 		.word	838860
 157 0054 20000000 		.word	32
 158 0058 00000000 		.word	0
 159 005c FFFFFFFF 		.word	-1
 160 0060 45555555 		.word	1431655749
 161 0064 FFFF0000 		.word	65535
 162 0068 000C0000 		.word	3072
 163 006c 00000000 		.word	0
 164 0070 00000000 		.word	0
ARM GAS  C:\Users\jenny\AppData\Local\Temp\ccuytcgf.s 			page 4


 165 0074 00000000 		.word	0
 166 0078 FFFFFFFF 		.word	-1
 167 007c 55555555 		.word	1431655765
 168 0080 FFFF0000 		.word	65535
 169 0084 00000000 		.word	0
 170 0088 00000000 		.word	0
 171 008c 00000000 		.word	0
 172 0090 00000000 		.word	0
 173 0094 FFFFFFFF 		.word	-1
 174 0098 55551555 		.word	1427461461
 175 009c FFFF0000 		.word	65535
 176 00a0 00000000 		.word	0
 177 00a4 00000000 		.word	0
 178 00a8 00009028 		.word	680525824
 179 00ac 00000000 		.word	0
 180 00b0 FFFFFFFF 		.word	-1
 181 00b4 55550541 		.word	1090868565
 182 00b8 FFFF0000 		.word	65535
 183 00bc 00000000 		.word	0
 184 00c0 00B0B00B 		.word	196128768
 185 00c4 00000000 		.word	0
 186 00c8 00000000 		.word	0
 187 00cc FFFFFFFF 		.word	-1
 188 00d0 50555555 		.word	1431655760
 189 00d4 FFFF0000 		.word	65535
 190 00d8 00000000 		.word	0
 191 00dc 00000000 		.word	0
 192 00e0 00000000 		.word	0
 193 00e4 00000000 		.word	0
 194 00e8 FFFFFFFF 		.word	-1
 195 00ec 55555555 		.word	1431655765
 196 00f0 FFFF0000 		.word	65535
 197 00f4 00000000 		.word	0
 198 00f8 00000000 		.word	0
 199              		.section	.bss.last_status.7082,"aw",%nobits
 200              		.set	.LANCHOR0,. + 0
 201              		.type	last_status.7082, %object
 202              		.size	last_status.7082, 1
 203              	last_status.7082:
 204 0000 00       		.space	1
 205              		.text
 206              	.Letext0:
 207              		.file 2 "c:\\fbin\\yagarto\\bin\\../lib/gcc/arm-none-eabi/4.7.4/../../../../arm-none-eabi/include/
 208              		.file 3 "../../os/ports/GCC/ARMCMx/chtypes.h"
 209              		.file 4 "../../os/kernel/include/chlists.h"
 210              		.file 5 "../../os/kernel/include/chthreads.h"
 211              		.file 6 "../../os/ports/GCC/ARMCMx/chcore_v7m.h"
 212              		.file 7 "../../os/kernel/include/chmtx.h"
 213              		.file 8 "../../os/hal/platforms/STM32F4xx/stm32f4xx.h"
 214              		.file 9 "../../os/hal/platforms/STM32F4xx/stm32_dma.h"
 215              		.file 10 "../../os/hal/include/io_block.h"
 216              		.file 11 "../../os/hal/platforms/STM32/GPIOv2/pal_lld.h"
 217              		.file 12 "../../os/hal/platforms/STM32/sdc_lld.h"
 218              		.file 13 "../../os/ports/common/ARMCMx/CMSIS/include/core_cm4.h"
 219              		.file 14 "../../os/hal/platforms/STM32F4xx/hal_lld.h"