ARM GAS  C:\Users\jenny\AppData\Local\Temp\cc4vRnau.s 			page 1


   1              		.syntax unified
   2              		.cpu cortex-m4
   3              		.eabi_attribute 27, 3
   4              		.fpu fpv4-sp-d16
   5              		.eabi_attribute 20, 1
   6              		.eabi_attribute 21, 1
   7              		.eabi_attribute 23, 3
   8              		.eabi_attribute 24, 1
   9              		.eabi_attribute 25, 1
  10              		.eabi_attribute 26, 1
  11              		.eabi_attribute 30, 2
  12              		.eabi_attribute 34, 1
  13              		.eabi_attribute 18, 4
  14              		.thumb
  15              		.file	"chcore_v7m.c"
  16              		.text
  17              	.Ltext0:
  18              		.cfi_sections	.debug_frame
  19              		.section	.text._port_switch_from_isr,"ax",%progbits
  20              		.align	2
  21              		.p2align 4,,15
  22              		.global	_port_switch_from_isr
  23              		.thumb
  24              		.thumb_func
  25              		.type	_port_switch_from_isr, %function
  26              	_port_switch_from_isr:
  27              	.LFB11:
  28              		.file 1 "../../os/ports/GCC/ARMCMx/chcore_v7m.c"
  29              		.loc 1 207 0
  30              		.cfi_startproc
  31              		@ Naked Function: prologue and epilogue provided by programmer.
  32              		@ args = 0, pretend = 0, frame = 0
  33              		@ frame_needed = 0, uses_anonymous_args = 0
  34              		.loc 1 210 0
  35 0000 FFF7FEFF 		bl	chSchDoReschedule
  36              	.LVL0:
  37              		.loc 1 212 0
  38              	@ 212 "../../os/ports/GCC/ARMCMx/chcore_v7m.c" 1
  39              		_port_exit_from_isr:
  40              	@ 0 "" 2
  41              		.loc 1 214 0
  42              	@ 214 "../../os/ports/GCC/ARMCMx/chcore_v7m.c" 1
  43 0004 00DF     		svc     #0
  44              	@ 0 "" 2
  45              		.loc 1 221 0
  46              		.thumb
  47              		.cfi_endproc
  48              	.LFE11:
  49              		.size	_port_switch_from_isr, .-_port_switch_from_isr
  50 0006 00BFAFF3 		.section	.text.SVCallVector,"ax",%progbits
  50      0080AFF3 
  50      0080
  51              		.align	2
  52              		.p2align 4,,15
  53              		.global	SVCallVector
  54              		.thumb
  55              		.thumb_func
ARM GAS  C:\Users\jenny\AppData\Local\Temp\cc4vRnau.s 			page 2


  56              		.type	SVCallVector, %function
  57              	SVCallVector:
  58              	.LFB8:
  59              		.loc 1 65 0
  60              		.cfi_startproc
  61              		@ args = 0, pretend = 0, frame = 0
  62              		@ frame_needed = 0, uses_anonymous_args = 0
  63              		@ link register save eliminated.
  64              		.loc 1 69 0
  65              	@ 69 "../../os/ports/GCC/ARMCMx/chcore_v7m.c" 1
  66 0000 EFF30982 		mrs     r2, PSP
  67              	@ 0 "" 2
  68              	.LVL1:
  69              		.loc 1 77 0
  70              		.thumb
  71 0004 4EF63073 		movw	r3, #61232
  72 0008 CEF20003 		movt	r3, 57344
  73 000c D2F8CC10 		ldr	r1, [r2, #204]
  74 0010 5960     		str	r1, [r3, #4]
  75              		.loc 1 78 0
  76 0012 9868     		ldr	r0, [r3, #8]
  77 0014 6830     		adds	r0, r0, #104
  78 0016 9860     		str	r0, [r3, #8]
  79              		.loc 1 73 0
  80 0018 6832     		adds	r2, r2, #104
  81              	.LVL2:
  82              		.loc 1 80 0
  83              	@ 80 "../../os/ports/GCC/ARMCMx/chcore_v7m.c" 1
  84 001a 82F30988 		msr     PSP, r2
  85              	@ 0 "" 2
  86              		.thumb
  87              	.LBB2:
  88              		.loc 1 81 0
  89 001e 0023     		movs	r3, #0
  90              	.LVL3:
  91              	@ 81 "../../os/ports/GCC/ARMCMx/chcore_v7m.c" 1
  92 0020 83F31188 		msr     BASEPRI, r3
  93              	@ 0 "" 2
  94              	.LVL4:
  95              		.thumb
  96 0024 7047     		bx	lr
  97              	.LBE2:
  98              		.cfi_endproc
  99              	.LFE8:
 100              		.size	SVCallVector, .-SVCallVector
 101 0026 00BFAFF3 		.section	.text._port_init,"ax",%progbits
 101      0080AFF3 
 101      0080
 102              		.align	2
 103              		.p2align 4,,15
 104              		.global	_port_init
 105              		.thumb
 106              		.thumb_func
 107              		.type	_port_init, %function
 108              	_port_init:
 109              	.LFB9:
 110              		.loc 1 118 0
ARM GAS  C:\Users\jenny\AppData\Local\Temp\cc4vRnau.s 			page 3


 111              		.cfi_startproc
 112              		@ args = 0, pretend = 0, frame = 0
 113              		@ frame_needed = 0, uses_anonymous_args = 0
 114 0000 08B5     		push	{r3, lr}
 115              	.LCFI0:
 116              		.cfi_def_cfa_offset 8
 117              		.cfi_offset 3, -8
 118              		.cfi_offset 14, -4
 119              		.loc 1 121 0
 120 0002 4FF46D43 		mov	r3, #60672
 121 0006 CEF20003 		movt	r3, 57344
 122              		.loc 1 122 0
 123 000a 4FF44072 		mov	r2, #768
 124 000e C0F2FA52 		movt	r2, 1530
 125              		.loc 1 121 0
 126 0012 0021     		movs	r1, #0
 127 0014 9960     		str	r1, [r3, #8]
 128              		.loc 1 125 0
 129 0016 0720     		movs	r0, #7
 130 0018 1021     		movs	r1, #16
 131              		.loc 1 122 0
 132 001a DA60     		str	r2, [r3, #12]
 133              		.loc 1 125 0
 134 001c FFF7FEFF 		bl	nvicSetSystemHandlerPriority
 135              	.LVL5:
 136              		.loc 1 127 0
 137 0020 0A20     		movs	r0, #10
 138 0022 4FF40071 		mov	r1, #512
 139 0026 FFF7FEFF 		bl	nvicSetSystemHandlerPriority
 140              	.LVL6:
 141              		.loc 1 129 0
 142 002a 0B20     		movs	r0, #11
 143 002c 8021     		movs	r1, #128
 144              		.loc 1 131 0
 145 002e BDE80840 		pop	{r3, lr}
 146              		.loc 1 129 0
 147 0032 FFF7FEBF 		b	nvicSetSystemHandlerPriority
 148              	.LVL7:
 149              		.cfi_endproc
 150              	.LFE9:
 151              		.size	_port_init, .-_port_init
 152 0036 00BFAFF3 		.section	.text._port_irq_epilogue,"ax",%progbits
 152      0080AFF3 
 152      0080
 153              		.align	2
 154              		.p2align 4,,15
 155              		.global	_port_irq_epilogue
 156              		.thumb
 157              		.thumb_func
 158              		.type	_port_irq_epilogue, %function
 159              	_port_irq_epilogue:
 160              	.LFB10:
 161              		.loc 1 148 0
 162              		.cfi_startproc
 163              		@ args = 0, pretend = 0, frame = 0
 164              		@ frame_needed = 0, uses_anonymous_args = 0
 165              		@ link register save eliminated.
ARM GAS  C:\Users\jenny\AppData\Local\Temp\cc4vRnau.s 			page 4


 166              	.LBB3:
 167              		.loc 1 150 0
 168 0000 2023     		movs	r3, #32
 169              	.LVL8:
 170              	@ 150 "../../os/ports/GCC/ARMCMx/chcore_v7m.c" 1
 171 0002 83F31188 		msr     BASEPRI, r3
 172              	@ 0 "" 2
 173              	.LVL9:
 174              		.thumb
 175              	.LBE3:
 176              		.loc 1 151 0
 177 0006 4FF46D43 		mov	r3, #60672
 178              	.LVL10:
 179 000a CEF20003 		movt	r3, 57344
 180 000e 5868     		ldr	r0, [r3, #4]
 181 0010 10F40063 		ands	r3, r0, #2048
 182 0014 24D0     		beq	.L5
 183              	.LBB4:
 184              		.loc 1 155 0
 185              	@ 155 "../../os/ports/GCC/ARMCMx/chcore_v7m.c" 1
 186 0016 EFF30983 		mrs     r3, PSP
 187              	@ 0 "" 2
 188              	.LVL11:
 189              		.loc 1 159 0
 190              		.thumb
 191 001a A3F16802 		sub	r2, r3, #104
 192              	.LVL12:
 193              		.loc 1 160 0
 194              	@ 160 "../../os/ports/GCC/ARMCMx/chcore_v7m.c" 1
 195 001e 82F30988 		msr     PSP, r2
 196              	@ 0 "" 2
 197              		.loc 1 165 0
 198              		.thumb
 199 0022 1649     		ldr	r1, .L13
 200              		.loc 1 161 0
 201 0024 4FF08070 		mov	r0, #16777216
 202              		.loc 1 165 0
 203 0028 8A69     		ldr	r2, [r1, #24]
 204              	.LVL13:
 205              		.loc 1 161 0
 206 002a 43F84C0C 		str	r0, [r3, #-76]
 207              		.loc 1 165 0
 208 002e D07F     		ldrb	r0, [r2, #31]	@ zero_extendqisi2
 209 0030 0968     		ldr	r1, [r1, #0]
 210 0032 9268     		ldr	r2, [r2, #8]
 211 0034 8968     		ldr	r1, [r1, #8]
 212 0036 B0B1     		cbz	r0, .L6
 213              		.loc 1 165 0 is_stmt 0 discriminator 1
 214 0038 9142     		cmp	r1, r2
 215 003a 94BF     		ite	ls
 216 003c 0022     		movls	r2, #0
 217 003e 0122     		movhi	r2, #1
 218 0040 BAB1     		cbz	r2, .L8
 219              	.L12:
 220              		.loc 1 167 0 is_stmt 1
 221 0042 0F4A     		ldr	r2, .L13+4
 222 0044 43F8502C 		str	r2, [r3, #-80]
ARM GAS  C:\Users\jenny\AppData\Local\Temp\cc4vRnau.s 			page 5


 223              		.loc 1 170 0
 224              	@ 170 "../../os/ports/GCC/ARMCMx/chcore_v7m.c" 1
 225 0048 F1EE10FA 		vmrs    APSR_nzcv, FPSCR
 226              	@ 0 "" 2
 227              		.thumb
 228              	.L9:
 229              	.LBB5:
 230              		.loc 1 185 0
 231 004c 4EF63072 		movw	r2, #61232
 232 0050 CEF20002 		movt	r2, 57344
 233 0054 5168     		ldr	r1, [r2, #4]
 234              	.LVL14:
 235              		.loc 1 189 0
 236 0056 41F00100 		orr	r0, r1, #1
 237              		.loc 1 185 0
 238 005a 5966     		str	r1, [r3, #100]
 239              		.loc 1 189 0
 240 005c 5060     		str	r0, [r2, #4]
 241              	.LBE5:
 242              		.loc 1 195 0
 243 005e 7047     		bx	lr
 244              	.LVL15:
 245              	.L5:
 246              	.LBE4:
 247              	.LBB6:
 248              		.loc 1 197 0
 249              	@ 197 "../../os/ports/GCC/ARMCMx/chcore_v7m.c" 1
 250 0060 83F31188 		msr     BASEPRI, r3
 251              	@ 0 "" 2
 252              	.LVL16:
 253              		.thumb
 254 0064 7047     		bx	lr
 255              	.LVL17:
 256              	.L6:
 257              	.LBE6:
 258              	.LBB7:
 259              		.loc 1 165 0 discriminator 2
 260 0066 9142     		cmp	r1, r2
 261 0068 34BF     		ite	cc
 262 006a 0022     		movcc	r2, #0
 263 006c 0122     		movcs	r2, #1
 264 006e 002A     		cmp	r2, #0
 265 0070 E7D1     		bne	.L12
 266              	.L8:
 267              		.loc 1 176 0
 268 0072 0448     		ldr	r0, .L13+8
 269 0074 43F8500C 		str	r0, [r3, #-80]
 270 0078 E8E7     		b	.L9
 271              	.L14:
 272 007a 00BF     		.align	2
 273              	.L13:
 274 007c 00000000 		.word	rlist
 275 0080 00000000 		.word	_port_switch_from_isr
 276 0084 04000000 		.word	_port_exit_from_isr
 277              	.LBE7:
 278              		.cfi_endproc
 279              	.LFE10:
ARM GAS  C:\Users\jenny\AppData\Local\Temp\cc4vRnau.s 			page 6


 280              		.size	_port_irq_epilogue, .-_port_irq_epilogue
 281 0088 AFF30080 		.section	.text.SysTickVector,"ax",%progbits
 281      AFF30080 
 282              		.align	2
 283              		.p2align 4,,15
 284              		.global	SysTickVector
 285              		.thumb
 286              		.thumb_func
 287              		.type	SysTickVector, %function
 288              	SysTickVector:
 289              	.LFB7:
 290              		.loc 1 47 0
 291              		.cfi_startproc
 292              		@ args = 0, pretend = 0, frame = 0
 293              		@ frame_needed = 0, uses_anonymous_args = 0
 294 0000 08B5     		push	{r3, lr}
 295              	.LCFI1:
 296              		.cfi_def_cfa_offset 8
 297              		.cfi_offset 3, -8
 298              		.cfi_offset 14, -4
 299              	.LBB8:
 300              		.loc 1 51 0
 301 0002 2023     		movs	r3, #32
 302              	.LVL18:
 303              	@ 51 "../../os/ports/GCC/ARMCMx/chcore_v7m.c" 1
 304 0004 83F31188 		msr     BASEPRI, r3
 305              	@ 0 "" 2
 306              	.LVL19:
 307              		.thumb
 308              	.LBE8:
 309              		.loc 1 52 0
 310 0008 FFF7FEFF 		bl	chSysTimerHandlerI
 311              	.LVL20:
 312              	.LBB9:
 313              		.loc 1 53 0
 314 000c 0023     		movs	r3, #0
 315              	.LVL21:
 316              	@ 53 "../../os/ports/GCC/ARMCMx/chcore_v7m.c" 1
 317 000e 83F31188 		msr     BASEPRI, r3
 318              	@ 0 "" 2
 319              	.LVL22:
 320              		.thumb
 321              	.LBE9:
 322              		.loc 1 56 0
 323 0012 BDE80840 		pop	{r3, lr}
 324              		.loc 1 55 0
 325 0016 FFF7FEBF 		b	_port_irq_epilogue
 326              	.LVL23:
 327              		.cfi_endproc
 328              	.LFE7:
 329              		.size	SysTickVector, .-SysTickVector
 330              		.section	.text._port_switch,"ax",%progbits
 331              		.align	2
 332              		.p2align 4,,15
 333              		.global	_port_switch
 334              		.thumb
 335              		.thumb_func
ARM GAS  C:\Users\jenny\AppData\Local\Temp\cc4vRnau.s 			page 7


 336              		.type	_port_switch, %function
 337              	_port_switch:
 338              	.LFB12:
 339              		.loc 1 236 0
 340              		.cfi_startproc
 341              		@ Naked Function: prologue and epilogue provided by programmer.
 342              		@ args = 0, pretend = 0, frame = 0
 343              		@ frame_needed = 0, uses_anonymous_args = 0
 344              	.LVL24:
 345              		.loc 1 238 0
 346              	@ 238 "../../os/ports/GCC/ARMCMx/chcore_v7m.c" 1
 347 0000 2DE9F04F 		push    {r4, r5, r6, r7, r8, r9, r10, r11, lr}
 348              	@ 0 "" 2
 349              		.loc 1 241 0
 350              	@ 241 "../../os/ports/GCC/ARMCMx/chcore_v7m.c" 1
 351 0004 2DED108A 		vpush   {s16-s31}
 352              	@ 0 "" 2
 353              		.loc 1 244 0
 354              	@ 244 "../../os/ports/GCC/ARMCMx/chcore_v7m.c" 1
 355 0008 C1F80CD0 		str     sp, [r1, #12]                          
 356 000c D0F80CD0 		ldr     sp, [r0, #12]
 357              	@ 0 "" 2
 358              		.loc 1 248 0
 359              	@ 248 "../../os/ports/GCC/ARMCMx/chcore_v7m.c" 1
 360 0010 BDEC108A 		vpop    {s16-s31}
 361              	@ 0 "" 2
 362              		.loc 1 250 0
 363              	@ 250 "../../os/ports/GCC/ARMCMx/chcore_v7m.c" 1
 364 0014 BDE8F08F 		pop     {r4, r5, r6, r7, r8, r9, r10, r11, pc}
 365              	@ 0 "" 2
 366              		.loc 1 252 0
 367              		.thumb
 368              		.cfi_endproc
 369              	.LFE12:
 370              		.size	_port_switch, .-_port_switch
 371 0018 AFF30080 		.section	.text._port_thread_start,"ax",%progbits
 371      AFF30080 
 372              		.align	2
 373              		.p2align 4,,15
 374              		.global	_port_thread_start
 375              		.thumb
 376              		.thumb_func
 377              		.type	_port_thread_start, %function
 378              	_port_thread_start:
 379              	.LFB13:
 380              		.loc 1 259 0
 381              		.cfi_startproc
 382              		@ args = 0, pretend = 0, frame = 0
 383              		@ frame_needed = 0, uses_anonymous_args = 0
 384              		@ link register save eliminated.
 385              	.LBB10:
 386              		.loc 1 261 0
 387 0000 0023     		movs	r3, #0
 388              	.LVL25:
 389              	@ 261 "../../os/ports/GCC/ARMCMx/chcore_v7m.c" 1
 390 0002 83F31188 		msr     BASEPRI, r3
 391              	@ 0 "" 2
ARM GAS  C:\Users\jenny\AppData\Local\Temp\cc4vRnau.s 			page 8


 392              	.LVL26:
 393              		.thumb
 394              	.LBE10:
 395              		.loc 1 262 0
 396              	@ 262 "../../os/ports/GCC/ARMCMx/chcore_v7m.c" 1
 397 0006 2846     		mov     r0, r5                                 
 398 0008 A047     		blx     r4                                     
 399 000a FFF7FEFF 		bl      chThdExit
 400              	@ 0 "" 2
 401              		.thumb
 402 000e 7047     		bx	lr
 403              		.cfi_endproc
 404              	.LFE13:
 405              		.size	_port_thread_start, .-_port_thread_start
 406              		.text
 407              	.Letext0:
 408              		.file 2 "c:\\fbin\\yagarto\\bin\\../lib/gcc/arm-none-eabi/4.7.4/../../../../arm-none-eabi/include/
 409              		.file 3 "../../os/ports/GCC/ARMCMx/chtypes.h"
 410              		.file 4 "../../os/kernel/include/chlists.h"
 411              		.file 5 "../../os/kernel/include/chthreads.h"
 412              		.file 6 "../../os/ports/GCC/ARMCMx/chcore_v7m.h"
 413              		.file 7 "../../os/ports/common/ARMCMx/nvic.h"
 414              		.file 8 "../../os/kernel/include/chschd.h"
 415              		.file 9 "../../os/kernel/include/chmtx.h"
 416              		.file 10 "../../os/kernel/include/chsys.h"