ARM GAS  C:\Users\jenny\AppData\Local\Temp\cc0jcio7.s 			page 1


   1              		.syntax unified
   2              		.cpu cortex-m4
   3              		.eabi_attribute 27, 3
   4              		.fpu fpv4-sp-d16
   5              		.eabi_attribute 20, 1
   6              		.eabi_attribute 21, 1
   7              		.eabi_attribute 23, 3
   8              		.eabi_attribute 24, 1
   9              		.eabi_attribute 25, 1
  10              		.eabi_attribute 26, 1
  11              		.eabi_attribute 30, 2
  12              		.eabi_attribute 34, 1
  13              		.eabi_attribute 18, 4
  14              		.thumb
  15              		.file	"chdynamic.c"
  16              		.text
  17              	.Ltext0:
  18              		.cfi_sections	.debug_frame
  19              		.section	.text.chThdAddRef,"ax",%progbits
  20              		.align	2
  21              		.p2align 4,,15
  22              		.global	chThdAddRef
  23              		.thumb
  24              		.thumb_func
  25              		.type	chThdAddRef, %function
  26              	chThdAddRef:
  27              	.LFB7:
  28              		.file 1 "../../os/kernel/src/chdynamic.c"
  29              		.loc 1 52 0
  30              		.cfi_startproc
  31              		@ args = 0, pretend = 0, frame = 0
  32              		@ frame_needed = 0, uses_anonymous_args = 0
  33              		@ link register save eliminated.
  34              	.LVL0:
  35              	.LBB2:
  36              		.loc 1 54 0
  37 0000 2023     		movs	r3, #32
  38              	.LVL1:
  39              	@ 54 "../../os/kernel/src/chdynamic.c" 1
  40 0002 83F31188 		msr     BASEPRI, r3
  41              	@ 0 "" 2
  42              	.LVL2:
  43              		.thumb
  44              	.LBE2:
  45              		.loc 1 56 0
  46 0006 837F     		ldrb	r3, [r0, #30]	@ zero_extendqisi2
  47              	.LVL3:
  48 0008 591C     		adds	r1, r3, #1
  49 000a 8177     		strb	r1, [r0, #30]
  50              	.LBB3:
  51              		.loc 1 57 0
  52 000c 0023     		movs	r3, #0
  53              	.LVL4:
  54              	@ 57 "../../os/kernel/src/chdynamic.c" 1
  55 000e 83F31188 		msr     BASEPRI, r3
  56              	@ 0 "" 2
  57              	.LVL5:
ARM GAS  C:\Users\jenny\AppData\Local\Temp\cc0jcio7.s 			page 2


  58              		.thumb
  59              	.LBE3:
  60              		.loc 1 59 0
  61 0012 7047     		bx	lr
  62              		.cfi_endproc
  63              	.LFE7:
  64              		.size	chThdAddRef, .-chThdAddRef
  65 0014 AFF30080 		.section	.text.chThdRelease,"ax",%progbits
  65      AFF30080 
  65      AFF30080 
  66              		.align	2
  67              		.p2align 4,,15
  68              		.global	chThdRelease
  69              		.thumb
  70              		.thumb_func
  71              		.type	chThdRelease, %function
  72              	chThdRelease:
  73              	.LFB8:
  74              		.loc 1 74 0
  75              		.cfi_startproc
  76              		@ args = 0, pretend = 0, frame = 0
  77              		@ frame_needed = 0, uses_anonymous_args = 0
  78              		@ link register save eliminated.
  79              	.LVL6:
  80              		.loc 1 74 0
  81 0000 0146     		mov	r1, r0
  82              	.LBB4:
  83              		.loc 1 77 0
  84 0002 2023     		movs	r3, #32
  85              	.LVL7:
  86              	@ 77 "../../os/kernel/src/chdynamic.c" 1
  87 0004 83F31188 		msr     BASEPRI, r3
  88              	@ 0 "" 2
  89              	.LVL8:
  90              		.thumb
  91              	.LBE4:
  92              		.loc 1 79 0
  93 0008 827F     		ldrb	r2, [r0, #30]	@ zero_extendqisi2
  94 000a 531E     		subs	r3, r2, #1
  95              	.LVL9:
  96 000c DAB2     		uxtb	r2, r3
  97 000e 8277     		strb	r2, [r0, #30]
  98              	.LVL10:
  99              	.LBB5:
 100              		.loc 1 80 0
 101 0010 0023     		movs	r3, #0
 102              	.LVL11:
 103              	@ 80 "../../os/kernel/src/chdynamic.c" 1
 104 0012 83F31188 		msr     BASEPRI, r3
 105              	@ 0 "" 2
 106              	.LVL12:
 107              		.thumb
 108              	.LBE5:
 109              		.loc 1 85 0
 110 0016 12B9     		cbnz	r2, .L2
 111              		.loc 1 85 0 is_stmt 0 discriminator 1
 112 0018 037F     		ldrb	r3, [r0, #28]	@ zero_extendqisi2
ARM GAS  C:\Users\jenny\AppData\Local\Temp\cc0jcio7.s 			page 3


 113              	.LVL13:
 114 001a 0E2B     		cmp	r3, #14
 115 001c 00D0     		beq	.L7
 116              	.LVL14:
 117              	.L2:
 118 001e 7047     		bx	lr
 119              	.LVL15:
 120              	.L7:
 121              		.loc 1 86 0 is_stmt 1
 122 0020 427F     		ldrb	r2, [r0, #29]	@ zero_extendqisi2
 123 0022 02F00303 		and	r3, r2, #3
 124 0026 012B     		cmp	r3, #1
 125 0028 09D0     		beq	.L4
 126 002a 022B     		cmp	r3, #2
 127 002c F7D1     		bne	.L2
 128              		.loc 1 98 0
 129 002e 4369     		ldr	r3, [r0, #20]
 130 0030 0269     		ldr	r2, [r0, #16]
 131              		.loc 1 100 0
 132 0032 406C     		ldr	r0, [r0, #68]
 133              	.LVL16:
 134              		.loc 1 98 0
 135 0034 1A61     		str	r2, [r3, #16]
 136 0036 0A69     		ldr	r2, [r1, #16]
 137 0038 5361     		str	r3, [r2, #20]
 138              		.loc 1 105 0
 139              		.loc 1 100 0
 140 003a FFF7FEBF 		b	chPoolFree
 141              	.LVL17:
 142              	.L4:
 143              		.loc 1 90 0
 144 003e 4369     		ldr	r3, [r0, #20]
 145 0040 0269     		ldr	r2, [r0, #16]
 146 0042 1A61     		str	r2, [r3, #16]
 147 0044 0169     		ldr	r1, [r0, #16]
 148 0046 4B61     		str	r3, [r1, #20]
 149              		.loc 1 105 0
 150              		.loc 1 92 0
 151 0048 FFF7FEBF 		b	chHeapFree
 152              	.LVL18:
 153              		.cfi_endproc
 154              	.LFE8:
 155              		.size	chThdRelease, .-chThdRelease
 156 004c AFF30080 		.section	.text.chThdCreateFromHeap,"ax",%progbits
 157              		.align	2
 158              		.p2align 4,,15
 159              		.global	chThdCreateFromHeap
 160              		.thumb
 161              		.thumb_func
 162              		.type	chThdCreateFromHeap, %function
 163              	chThdCreateFromHeap:
 164              	.LFB9:
 165              		.loc 1 131 0
 166              		.cfi_startproc
 167              		@ args = 4, pretend = 0, frame = 0
 168              		@ frame_needed = 0, uses_anonymous_args = 0
 169              	.LVL19:
ARM GAS  C:\Users\jenny\AppData\Local\Temp\cc0jcio7.s 			page 4


 170 0000 F0B5     		push	{r4, r5, r6, r7, lr}
 171              	.LCFI0:
 172              		.cfi_def_cfa_offset 20
 173              		.cfi_offset 4, -20
 174              		.cfi_offset 5, -16
 175              		.cfi_offset 6, -12
 176              		.cfi_offset 7, -8
 177              		.cfi_offset 14, -4
 178 0002 83B0     		sub	sp, sp, #12
 179              	.LCFI1:
 180              		.cfi_def_cfa_offset 32
 181              		.loc 1 131 0
 182 0004 0D46     		mov	r5, r1
 183 0006 1746     		mov	r7, r2
 184 0008 1E46     		mov	r6, r3
 185              		.loc 1 135 0
 186 000a FFF7FEFF 		bl	chHeapAlloc
 187              	.LVL20:
 188              		.loc 1 136 0
 189 000e 0446     		mov	r4, r0
 190 0010 90B1     		cbz	r0, .L9
 191              	.LBB6:
 192              		.loc 1 148 0
 193 0012 2023     		movs	r3, #32
 194              	.LVL21:
 195              	@ 148 "../../os/kernel/src/chdynamic.c" 1
 196 0014 83F31188 		msr     BASEPRI, r3
 197              	@ 0 "" 2
 198              	.LVL22:
 199              		.thumb
 200              	.LBE6:
 201              		.loc 1 149 0
 202 0018 089C     		ldr	r4, [sp, #32]
 203 001a 3346     		mov	r3, r6
 204              	.LVL23:
 205 001c 2946     		mov	r1, r5
 206 001e 3A46     		mov	r2, r7
 207 0020 0094     		str	r4, [sp, #0]
 208 0022 FFF7FEFF 		bl	chThdCreateI
 209              	.LVL24:
 210              		.loc 1 150 0
 211 0026 0123     		movs	r3, #1
 212 0028 4377     		strb	r3, [r0, #29]
 213              		.loc 1 151 0
 214 002a 0021     		movs	r1, #0
 215              		.loc 1 149 0
 216 002c 0446     		mov	r4, r0
 217              	.LVL25:
 218              		.loc 1 151 0
 219 002e FFF7FEFF 		bl	chSchWakeupS
 220              	.LVL26:
 221              	.LBB7:
 222              		.loc 1 152 0
 223 0032 0023     		movs	r3, #0
 224              	.LVL27:
 225              	@ 152 "../../os/kernel/src/chdynamic.c" 1
 226 0034 83F31188 		msr     BASEPRI, r3
ARM GAS  C:\Users\jenny\AppData\Local\Temp\cc0jcio7.s 			page 5


 227              	@ 0 "" 2
 228              	.LVL28:
 229              		.thumb
 230              	.L9:
 231              	.LBE7:
 232              		.loc 1 154 0
 233 0038 2046     		mov	r0, r4
 234 003a 03B0     		add	sp, sp, #12
 235 003c F0BD     		pop	{r4, r5, r6, r7, pc}
 236              		.cfi_endproc
 237              	.LFE9:
 238              		.size	chThdCreateFromHeap, .-chThdCreateFromHeap
 239 003e 00BF     		.section	.text.chThdCreateFromMemoryPool,"ax",%progbits
 240              		.align	2
 241              		.p2align 4,,15
 242              		.global	chThdCreateFromMemoryPool
 243              		.thumb
 244              		.thumb_func
 245              		.type	chThdCreateFromMemoryPool, %function
 246              	chThdCreateFromMemoryPool:
 247              	.LFB10:
 248              		.loc 1 180 0
 249              		.cfi_startproc
 250              		@ args = 0, pretend = 0, frame = 0
 251              		@ frame_needed = 0, uses_anonymous_args = 0
 252              	.LVL29:
 253 0000 2DE9F041 		push	{r4, r5, r6, r7, r8, lr}
 254              	.LCFI2:
 255              		.cfi_def_cfa_offset 24
 256              		.cfi_offset 4, -24
 257              		.cfi_offset 5, -20
 258              		.cfi_offset 6, -16
 259              		.cfi_offset 7, -12
 260              		.cfi_offset 8, -8
 261              		.cfi_offset 14, -4
 262 0004 82B0     		sub	sp, sp, #8
 263              	.LCFI3:
 264              		.cfi_def_cfa_offset 32
 265              		.loc 1 180 0
 266 0006 0546     		mov	r5, r0
 267 0008 0E46     		mov	r6, r1
 268 000a 9046     		mov	r8, r2
 269 000c 1F46     		mov	r7, r3
 270              		.loc 1 186 0
 271 000e FFF7FEFF 		bl	chPoolAlloc
 272              	.LVL30:
 273              		.loc 1 187 0
 274 0012 0446     		mov	r4, r0
 275 0014 90B1     		cbz	r0, .L12
 276              	.LBB8:
 277              		.loc 1 199 0
 278 0016 2023     		movs	r3, #32
 279              	.LVL31:
 280              	@ 199 "../../os/kernel/src/chdynamic.c" 1
 281 0018 83F31188 		msr     BASEPRI, r3
 282              	@ 0 "" 2
 283              	.LVL32:
ARM GAS  C:\Users\jenny\AppData\Local\Temp\cc0jcio7.s 			page 6


 284              		.thumb
 285              	.LBE8:
 286              		.loc 1 200 0
 287 001c 6968     		ldr	r1, [r5, #4]
 288 001e 0097     		str	r7, [sp, #0]
 289 0020 4346     		mov	r3, r8
 290              	.LVL33:
 291 0022 3246     		mov	r2, r6
 292 0024 FFF7FEFF 		bl	chThdCreateI
 293              	.LVL34:
 294              		.loc 1 201 0
 295 0028 0223     		movs	r3, #2
 296 002a 4377     		strb	r3, [r0, #29]
 297              		.loc 1 202 0
 298 002c 4564     		str	r5, [r0, #68]
 299              		.loc 1 203 0
 300 002e 0021     		movs	r1, #0
 301              		.loc 1 200 0
 302 0030 0446     		mov	r4, r0
 303              	.LVL35:
 304              		.loc 1 203 0
 305 0032 FFF7FEFF 		bl	chSchWakeupS
 306              	.LVL36:
 307              	.LBB9:
 308              		.loc 1 204 0
 309 0036 0023     		movs	r3, #0
 310              	.LVL37:
 311              	@ 204 "../../os/kernel/src/chdynamic.c" 1
 312 0038 83F31188 		msr     BASEPRI, r3
 313              	@ 0 "" 2
 314              	.LVL38:
 315              		.thumb
 316              	.L12:
 317              	.LBE9:
 318              		.loc 1 206 0
 319 003c 2046     		mov	r0, r4
 320 003e 02B0     		add	sp, sp, #8
 321 0040 BDE8F081 		pop	{r4, r5, r6, r7, r8, pc}
 322              		.cfi_endproc
 323              	.LFE10:
 324              		.size	chThdCreateFromMemoryPool, .-chThdCreateFromMemoryPool
 325 0044 AFF30080 		.text
 325      AFF30080 
 325      AFF30080 
 326              	.Letext0:
 327              		.file 2 "c:\\fbin\\yagarto\\bin\\../lib/gcc/arm-none-eabi/4.7.4/include/stddef.h"
 328              		.file 3 "c:\\fbin\\yagarto\\bin\\../lib/gcc/arm-none-eabi/4.7.4/../../../../arm-none-eabi/include/
 329              		.file 4 "../../os/ports/GCC/ARMCMx/chtypes.h"
 330              		.file 5 "../../os/kernel/include/chlists.h"
 331              		.file 6 "../../os/kernel/include/chthreads.h"
 332              		.file 7 "../../os/ports/GCC/ARMCMx/chcore_v7m.h"
 333              		.file 8 "../../os/kernel/include/chmtx.h"
 334              		.file 9 "../../os/kernel/include/chmemcore.h"
 335              		.file 10 "../../os/kernel/include/chheap.h"
 336              		.file 11 "../../os/kernel/include/chmempools.h"
 337              		.file 12 "../../os/kernel/include/chschd.h"