ARM GAS  C:\Users\jenny\AppData\Local\Temp\cc0jcio7.s 			page 1


   1              		.syntax unified
   2              		.cpu cortex-m4
   3              		.eabi_attribute 27, 3
   4              		.fpu fpv4-sp-d16
   5              		.eabi_attribute 20, 1
   6              		.eabi_attribute 21, 1
   7              		.eabi_attribute 23, 3
   8              		.eabi_attribute 24, 1
   9              		.eabi_attribute 25, 1
  10              		.eabi_attribute 26, 1
  11              		.eabi_attribute 30, 2
  12              		.eabi_attribute 34, 1
  13              		.eabi_attribute 18, 4
  14              		.thumb
  15              		.file	"chdynamic.c"
  16              		.text
  17              	.Ltext0:
  18              		.cfi_sections	.debug_frame
  19              		.section	.text.chThdAddRef,"ax",%progbits
  20              		.align	2
  21              		.p2align 4,,15
  22              		.global	chThdAddRef
  23              		.thumb
  24              		.thumb_func
  25              		.type	chThdAddRef, %function
  26              	chThdAddRef:
  27              	.LFB7:
  28              		.file 1 "../../os/kernel/src/chdynamic.c"
  29              		.loc 1 52 0
  30              		.cfi_startproc
  31              		@ args = 0, pretend = 0, frame = 0
  32              		@ frame_needed = 0, uses_anonymous_args = 0
  33              		@ link register save eliminated.
  34              	.LVL0:
  35              	.LBB2:
  36              		.loc 1 54 0
  37 0000 2023     		movs	r3, #32
  38              	.LVL1:
  39              	@ 54 "../../os/kernel/src/chdynamic.c" 1
  40 0002 83F31188 		msr     BASEPRI, r3
  41              	@ 0 "" 2
  42              	.LVL2:
  43              		.thumb
  44              	.LBE2:
  45              		.loc 1 56 0
  46 0006 837F     		ldrb	r3, [r0, #30]	@ zero_extendqisi2
  47              	.LVL3:
  48 0008 591C     		adds	r1, r3, #1
  49 000a 8177     		strb	r1, [r0, #30]
  50              	.LBB3:
  51              		.loc 1 57 0
  52 000c 0023     		movs	r3, #0
  53              	.LVL4:
  54              	@ 57 "../../os/kernel/src/chdynamic.c" 1
  55 000e 83F31188 		msr     BASEPRI, r3
  56              	@ 0 "" 2
  57              	.LVL5:
ARM GAS  C:\Users\jenny\AppData\Local\Temp\cc0jcio7.s 			page 2


  58              		.thumb
  59              	.LBE3:
  60              		.loc 1 59 0
  61 0012 7047     		bx	lr
  62              		.cfi_endproc
  63              	.LFE7:
  64              		.size	chThdAddRef, .-chThdAddRef
  65 0014 AFF30080 		.section	.text.chThdRelease,"ax",%progbits
  65      AFF30080 
  65      AFF30080 
  66              		.align	2
  67              		.p2align 4,,15
  68              		.global	chThdRelease
  69              		.thumb
  70              		.thumb_func
  71              		.type	chThdRelease, %function
  72              	chThdRelease:
  73              	.LFB8:
  74              		.loc 1 74 0
  75              		.cfi_startproc
  76              		@ args = 0, pretend = 0, frame = 0
  77              		@ frame_needed = 0, uses_anonymous_args = 0
  78              		@ link register save eliminated.
  79              	.LVL6:
  80              		.loc 1 74 0
  81 0000 0146     		mov	r1, r0
  82              	.LBB4:
  83              		.loc 1 77 0
  84 0002 2023     		movs	r3, #32
  85              	.LVL7:
  86              	@ 77 "../../os/kernel/src/chdynamic.c" 1
  87 0004 83F31188 		msr     BASEPRI, r3
  88              	@ 0 "" 2
  89              	.LVL8:
  90              		.thumb
  91              	.LBE4:
  92              		.loc 1 79 0
  93 0008 827F     		ldrb	r2, [r0, #30]	@ zero_extendqisi2
  94 000a 531E     		subs	r3, r2, #1
  95              	.LVL9:
  96 000c DAB2     		uxtb	r2, r3
  97 000e 8277     		strb	r2, [r0, #30]
  98              	.LVL10:
  99              	.LBB5:
 100              		.loc 1 80 0
 101 0010 0023     		movs	r3, #0
 102              	.LVL11:
 103              	@ 80 "../../os/kernel/src/chdynamic.c" 1
 104 0012 83F31188 		msr     BASEPRI, r3
 105              	@ 0 "" 2
 106              	.LVL12:
 107              		.thumb
 108              	.LBE5:
 109              		.loc 1 85 0
 110 0016 12B9     		cbnz	r2, .L2
 111              		.loc 1 85 0 is_stmt 0 discriminator 1
 112 0018 037F     		ldrb	r3, [r0, #28]	@ zero_extendqisi2
ARM GAS  C:\Users\jenny\AppData\Local\Temp\cc0jcio7.s 			page 3


 113              	.LVL13:
 114 001a 0E2B     		cmp	r3, #14
 115 001c 00D0     		beq	.L7
 116              	.LVL14:
 117              	.L2:
 118 001e 7047     		bx	lr
 119              	.LVL15:
 120              	.L7:
 121              		.loc 1 86 0 is_stmt 1
 122 0020 427F     		ldrb	r2, [r0, #29]	@ zero_extendqisi2
 123 0022 02F00303 		and	r3, r2, #3
 124 0026 012B     		cmp	r3, #1
 125 0028 09D0     		beq	.L4
 126 002a 022B     		cmp	r3, #2
 127 002c F7D1     		bne	.L2
 128              		.loc 1 98 0
 129 002e 4369     		ldr	r3, [r0, #20]
 130 0030 0269     		ldr	r2, [r0, #16]
 131              		.loc 1 100 0
 132 0032 406C     		ldr	r0, [r0, #68]
 133              	.LVL16:
 134              		.loc 1 98 0
 135 0034 1A61     		str	r2, [r3, #16]
 136 0036 0A69     		ldr	r2, [r1, #16]
 137 0038 5361     		str	r3, [r2, #20]
 138              		.loc 1 105 0
 139              		.loc 1 100 0
 140 003a FFF7FEBF 		b	chPoolFree
 141              	.LVL17:
 142              	.L4:
 143              		.loc 1 90 0
 144 003e 4369     		ldr	r3, [r0, #20]
 145 0040 0269     		ldr	r2, [r0, #16]
 146 0042 1A61     		str	r2, [r3, #16]
 147 0044 0169     		ldr	r1, [r0, #16]
 148 0046 4B61     		str	r3, [r1, #20]
 149              		.loc 1 105 0
 150              		.loc 1 92 0
 151 0048 FFF7FEBF 		b	chHeapFree
 152              	.LVL18:
 153              		.cfi_endproc
 154              	.LFE8:
 155              		.size	chThdRelease, .-chThdRelease
 156 004c AFF30080 		.section	.text.chThdCreateFromHeap,"ax",%progbits
 157              		.align	2
 158              		.p2align 4,,15
 159              		.global	chThdCreateFromHeap
 160              		.thumb
 161              		.thumb_func
 162              		.type	chThdCreateFromHeap, %function
 163              	chThdCreateFromHeap:
 164              	.LFB9:
 165              		.loc 1 131 0
 166              		.cfi_startproc
 167              		@ args = 4, pretend = 0, frame = 0
 168              		@ frame_needed = 0, uses_anonymous_args = 0
 169              	.LVL19:
ARM GAS  C:\Users\jenny\AppData\Local\Temp\cc0jcio7.s 			page 4


 170 0000 F0B5     		push	{r4, r5, r6, r7, lr}
 171              	.LCFI0:
 172              		.cfi_def_cfa_offset 20
 173              		.cfi_offset 4, -20
 174              		.cfi_offset 5, -16
 175              		.cfi_offset 6, -12
 176              		.cfi_offset 7, -8
 177              		.cfi_offset 14, -4
 178 0002 83B0     		sub	sp, sp, #12
 179              	.LCFI1:
 180              		.cfi_def_cfa_offset 32
 181              		.loc 1 131 0
 182 0004 0D46     		mov	r5, r1
 183 0006 1746     		mov	r7, r2
 184 0008 1E46     		mov	r6, r3
 185              		.loc 1 135 0
 186 000a FFF7FEFF 		bl	chHeapAlloc
 187              	.LVL20:
 188              		.loc 1 136 0
 189 000e 0446     		mov	r4, r0
 190 0010 90B1     		cbz	r0, .L9
 191              	.LBB6:
 192              		.loc 1 148 0
 193 0012 2023     		movs	r3, #32
 194              	.LVL21:
 195              	@ 148 "../../os/kernel/src/chdynamic.c" 1
 196 0014 83F31188 		msr     BASEPRI, r3
 197              	@ 0 "" 2
 198              	.LVL22:
 199              		.thumb
 200              	.LBE6:
 201              		.loc 1 149 0
 202 0018 089C     		ldr	r4, [sp, #32]
 203 001a 3346     		mov	r3, r6
 204              	.LVL23:
 205 001c 2946     		mov	r1, r5
 206 001e 3A46     		mov	r2, r7
 207 0020 0094     		str	r4, [sp, #0]
 208 0022 FFF7FEFF 		bl	chThdCreateI
 209              	.LVL24:
 210              		.loc 1 150 0
 211 0026 0123     		movs	r3, #1
 212 0028 4377     		strb	r3, [r0, #29]
 213              		.loc 1 151 0
 214 002a 0021     		movs	r1, #0
 215              		.loc 1 149 0
 216 002c 0446     		mov	r4, r0
 217              	.LVL25:
 218              		.loc 1 151 0
 219 002e FFF7FEFF 		bl	chSchWakeupS
 220              	.LVL26:
 221              	.LBB7:
 222              		.loc 1 152 0
 223 0032 0023     		movs	r3, #0
 224              	.LVL27:
 225              	@ 152 "../../os/kernel/src/chdynamic.c" 1
 226 0034 83F31188 		msr     BASEPRI, r3
ARM GAS  C:\Users\jenny\AppData\Local\Temp\cc0jcio7.s 			page 5


 227              	@ 0 "" 2
 228              	.LVL28:
 229              		.thumb
 230              	.L9:
 231              	.LBE7:
 232              		.loc 1 154 0
 233 0038 2046     		mov	r0, r4
 234 003a 03B0     		add	sp, sp, #12
 235 003c F0BD     		pop	{r4, r5, r6, r7, pc}
 236              		.cfi_endproc
 237              	.LFE9:
 238              		.size	chThdCreateFromHeap, .-chThdCreateFromHeap
 239 003e 00BF     		.section	.text.chThdCreateFromMemoryPool,"ax",%progbits
 240              		.align	2
 241              		.p2align 4,,15
 242              		.global	chThdCreateFromMemoryPool
 243              		.thumb
 244              		.thumb_func
 245              		.type	chThdCreateFromMemoryPool, %function
 246              	chThdCreateFromMemoryPool:
 247              	.LFB10:
 248              		.loc 1 180 0
 249              		.cfi_startproc
 250              		@ args = 0, pretend = 0, frame = 0
 251              		@ frame_needed = 0, uses_anonymous_args = 0
 252              	.LVL29:
 253 0000 2DE9F041 		push	{r4, r5, r6, r7, r8, lr}
 254              	.LCFI2:
 255              		.cfi_def_cfa_offset 24
 256              		.cfi_offset 4, -24
 257              		.cfi_offset 5, -20
 258              		.cfi_offset 6, -16
 259              		.cfi_offset 7, -12
 260              		.cfi_offset 8, -8
 261              		.cfi_offset 14, -4
 262 0004 82B0     		sub	sp, sp, #8
 263              	.LCFI3:
 264              		.cfi_def_cfa_offset 32
 265              		.loc 1 180 0
 266 0006 0546     		mov	r5, r0
 267 0008 0E46     		mov	r6, r1
 268 000a 9046     		mov	r8, r2
 269 000c 1F46     		mov	r7, r3
 270              		.loc 1 186 0
 271 000e FFF7FEFF 		bl	chPoolAlloc
 272              	.LVL30:
 273              		.loc 1 187 0
 274 0012 0446     		mov	r4, r0
 275 0014 90B1     		cbz	r0, .L12
 276              	.LBB8:
 277              		.loc 1 199 0
 278 0016 2023     		movs	r3, #32
 279              	.LVL31:
 280              	@ 199 "../../os/kernel/src/chdynamic.c" 1
 281 0018 83F31188 		msr     BASEPRI, r3
 282              	@ 0 "" 2
 283              	.LVL32:
ARM GAS  C:\Users\jenny\AppData\Local\Temp\cc0jcio7.s 			page 6


 284              		.thumb
 285              	.LBE8:
 286              		.loc 1 200 0
 287 001c 6968     		ldr	r1, [r5, #4]
 288 001e 0097     		str	r7, [sp, #0]
 289 0020 4346     		mov	r3, r8
 290              	.LVL33:
 291 0022 3246     		mov	r2, r6
 292 0024 FFF7FEFF 		bl	chThdCreateI
 293              	.LVL34:
 294              		.loc 1 201 0
 295 0028 0223     		movs	r3, #2
 296 002a 4377     		strb	r3, [r0, #29]
 297              		.loc 1 202 0
 298 002c 4564     		str	r5, [r0, #68]
 299              		.loc 1 203 0
 300 002e 0021     		movs	r1, #0
 301              		.loc 1 200 0
 302 0030 0446     		mov	r4, r0
 303              	.LVL35:
 304              		.loc 1 203 0
 305 0032 FFF7FEFF 		bl	chSchWakeupS
 306              	.LVL36:
 307              	.LBB9:
 308              		.loc 1 204 0
 309 0036 0023     		movs	r3, #0
 310              	.LVL37:
 311              	@ 204 "../../os/kernel/src/chdynamic.c" 1
 312 0038 83F31188 		msr     BASEPRI, r3
 313              	@ 0 "" 2
 314              	.LVL38:
 315              		.thumb
 316              	.L12:
 317              	.LBE9:
 318              		.loc 1 206 0
 319 003c 2046     		mov	r0, r4
 320 003e 02B0     		add	sp, sp, #8
 321 0040 BDE8F081 		pop	{r4, r5, r6, r7, r8, pc}
 322              		.cfi_endproc
 323              	.LFE10:
 324              		.size	chThdCreateFromMemoryPool, .-chThdCreateFromMemoryPool
 325 0044 AFF30080 		.text
 325      AFF30080 
 325      AFF30080 
 326              	.Letext0:
 327              		.file 2 "c:\\fbin\\yagarto\\bin\\../lib/gcc/arm-none-eabi/4.7.4/include/stddef.h"
 328              		.file 3 "c:\\fbin\\yagarto\\bin\\../lib/gcc/arm-none-eabi/4.7.4/../../../../arm-none-eabi/include/
 329              		.file 4 "../../os/ports/GCC/ARMCMx/chtypes.h"
 330              		.file 5 "../../os/kernel/include/chlists.h"
 331              		.file 6 "../../os/kernel/include/chthreads.h"
 332              		.file 7 "../../os/ports/GCC/ARMCMx/chcore_v7m.h"
 333              		.file 8 "../../os/kernel/include/chmtx.h"
 334              		.file 9 "../../os/kernel/include/chmemcore.h"
 335              		.file 10 "../../os/kernel/include/chheap.h"
 336              		.file 11 "../../os/kernel/include/chmempools.h"
 337              		.file 12 "../../os/kernel/include/chschd.h"
 338              		.section	.debug_info,"",%progbits
ARM GAS  C:\Users\jenny\AppData\Local\Temp\cc0jcio7.s 			page 7


 339              	.Ldebug_info0:
 340 0000 EF090000 		.4byte	0x9ef
 341 0004 0200     		.2byte	0x2
 342 0006 00000000 		.4byte	.Ldebug_abbrev0
 343 000a 04       		.byte	0x4
 344 000b 01       		.uleb128 0x1
 345 000c DF000000 		.4byte	.LASF88
 346 0010 01       		.byte	0x1
 347 0011 0E000000 		.4byte	.LASF89
 348 0015 A0030000 		.4byte	.LASF90
 349 0019 00000000 		.4byte	.Ldebug_ranges0+0
 350 001d 00000000 		.4byte	0
 351 0021 00000000 		.4byte	0
 352 0025 00000000 		.4byte	.Ldebug_line0
 353 0029 02       		.uleb128 0x2
 354 002a 04       		.byte	0x4
 355 002b 05       		.byte	0x5
 356 002c 696E7400 		.ascii	"int\000"
 357 0030 03       		.uleb128 0x3
 358 0031 2E000000 		.4byte	.LASF2
 359 0035 02       		.byte	0x2
 360 0036 D5       		.byte	0xd5
 361 0037 3B000000 		.4byte	0x3b
 362 003b 04       		.uleb128 0x4
 363 003c 04       		.byte	0x4
 364 003d 07       		.byte	0x7
 365 003e 94010000 		.4byte	.LASF0
 366 0042 04       		.uleb128 0x4
 367 0043 01       		.byte	0x1
 368 0044 06       		.byte	0x6
 369 0045 9B000000 		.4byte	.LASF1
 370 0049 03       		.uleb128 0x3
 371 004a 81030000 		.4byte	.LASF3
 372 004e 03       		.byte	0x3
 373 004f 2A       		.byte	0x2a
 374 0050 54000000 		.4byte	0x54
 375 0054 04       		.uleb128 0x4
 376 0055 01       		.byte	0x1
 377 0056 08       		.byte	0x8
 378 0057 85020000 		.4byte	.LASF4
 379 005b 04       		.uleb128 0x4
 380 005c 02       		.byte	0x2
 381 005d 05       		.byte	0x5
 382 005e A8020000 		.4byte	.LASF5
 383 0062 04       		.uleb128 0x4
 384 0063 02       		.byte	0x2
 385 0064 07       		.byte	0x7
 386 0065 C0010000 		.4byte	.LASF6
 387 0069 03       		.uleb128 0x3
 388 006a 7D020000 		.4byte	.LASF7
 389 006e 03       		.byte	0x3
 390 006f 4F       		.byte	0x4f
 391 0070 74000000 		.4byte	0x74
 392 0074 04       		.uleb128 0x4
 393 0075 04       		.byte	0x4
 394 0076 05       		.byte	0x5
 395 0077 28010000 		.4byte	.LASF8
ARM GAS  C:\Users\jenny\AppData\Local\Temp\cc0jcio7.s 			page 8


 396 007b 03       		.uleb128 0x3
 397 007c 11030000 		.4byte	.LASF9
 398 0080 03       		.byte	0x3
 399 0081 50       		.byte	0x50
 400 0082 86000000 		.4byte	0x86
 401 0086 04       		.uleb128 0x4
 402 0087 04       		.byte	0x4
 403 0088 07       		.byte	0x7
 404 0089 A1010000 		.4byte	.LASF10
 405 008d 04       		.uleb128 0x4
 406 008e 08       		.byte	0x8
 407 008f 05       		.byte	0x5
 408 0090 8D000000 		.4byte	.LASF11
 409 0094 03       		.uleb128 0x3
 410 0095 3C000000 		.4byte	.LASF12
 411 0099 03       		.byte	0x3
 412 009a 78       		.byte	0x78
 413 009b 9F000000 		.4byte	0x9f
 414 009f 04       		.uleb128 0x4
 415 00a0 08       		.byte	0x8
 416 00a1 07       		.byte	0x7
 417 00a2 5D000000 		.4byte	.LASF13
 418 00a6 04       		.uleb128 0x4
 419 00a7 01       		.byte	0x1
 420 00a8 02       		.byte	0x2
 421 00a9 77020000 		.4byte	.LASF14
 422 00ad 03       		.uleb128 0x3
 423 00ae D9010000 		.4byte	.LASF15
 424 00b2 04       		.byte	0x4
 425 00b3 2C       		.byte	0x2c
 426 00b4 49000000 		.4byte	0x49
 427 00b8 03       		.uleb128 0x3
 428 00b9 45010000 		.4byte	.LASF16
 429 00bd 04       		.byte	0x4
 430 00be 2D       		.byte	0x2d
 431 00bf 49000000 		.4byte	0x49
 432 00c3 03       		.uleb128 0x3
 433 00c4 5B020000 		.4byte	.LASF17
 434 00c8 04       		.byte	0x4
 435 00c9 2E       		.byte	0x2e
 436 00ca 49000000 		.4byte	0x49
 437 00ce 03       		.uleb128 0x3
 438 00cf C8000000 		.4byte	.LASF18
 439 00d3 04       		.byte	0x4
 440 00d4 2F       		.byte	0x2f
 441 00d5 49000000 		.4byte	0x49
 442 00d9 03       		.uleb128 0x3
 443 00da 6F020000 		.4byte	.LASF19
 444 00de 04       		.byte	0x4
 445 00df 30       		.byte	0x30
 446 00e0 7B000000 		.4byte	0x7b
 447 00e4 03       		.uleb128 0x3
 448 00e5 D3010000 		.4byte	.LASF20
 449 00e9 04       		.byte	0x4
 450 00ea 31       		.byte	0x31
 451 00eb 69000000 		.4byte	0x69
 452 00ef 03       		.uleb128 0x3
ARM GAS  C:\Users\jenny\AppData\Local\Temp\cc0jcio7.s 			page 9


 453 00f0 ED010000 		.4byte	.LASF21
 454 00f4 04       		.byte	0x4
 455 00f5 33       		.byte	0x33
 456 00f6 7B000000 		.4byte	0x7b
 457 00fa 03       		.uleb128 0x3
 458 00fb 2B030000 		.4byte	.LASF22
 459 00ff 04       		.byte	0x4
 460 0100 35       		.byte	0x35
 461 0101 7B000000 		.4byte	0x7b
 462 0105 03       		.uleb128 0x3
 463 0106 F3020000 		.4byte	.LASF23
 464 010a 05       		.byte	0x5
 465 010b 2A       		.byte	0x2a
 466 010c 10010000 		.4byte	0x110
 467 0110 05       		.uleb128 0x5
 468 0111 F3020000 		.4byte	.LASF23
 469 0115 48       		.byte	0x48
 470 0116 06       		.byte	0x6
 471 0117 5E       		.byte	0x5e
 472 0118 35020000 		.4byte	0x235
 473 011c 06       		.uleb128 0x6
 474 011d D7020000 		.4byte	.LASF24
 475 0121 06       		.byte	0x6
 476 0122 5F       		.byte	0x5f
 477 0123 5A020000 		.4byte	0x25a
 478 0127 02       		.byte	0x2
 479 0128 23       		.byte	0x23
 480 0129 00       		.uleb128 0
 481 012a 06       		.uleb128 0x6
 482 012b 68020000 		.4byte	.LASF25
 483 012f 06       		.byte	0x6
 484 0130 61       		.byte	0x61
 485 0131 5A020000 		.4byte	0x25a
 486 0135 02       		.byte	0x2
 487 0136 23       		.byte	0x23
 488 0137 04       		.uleb128 0x4
 489 0138 06       		.uleb128 0x6
 490 0139 86000000 		.4byte	.LASF26
 491 013d 06       		.byte	0x6
 492 013e 63       		.byte	0x63
 493 013f D9000000 		.4byte	0xd9
 494 0143 02       		.byte	0x2
 495 0144 23       		.byte	0x23
 496 0145 08       		.uleb128 0x8
 497 0146 06       		.uleb128 0x6
 498 0147 09040000 		.4byte	.LASF27
 499 014b 06       		.byte	0x6
 500 014c 64       		.byte	0x64
 501 014d 23040000 		.4byte	0x423
 502 0151 02       		.byte	0x2
 503 0152 23       		.byte	0x23
 504 0153 0C       		.uleb128 0xc
 505 0154 06       		.uleb128 0x6
 506 0155 4E010000 		.4byte	.LASF28
 507 0159 06       		.byte	0x6
 508 015a 66       		.byte	0x66
 509 015b 5A020000 		.4byte	0x25a
ARM GAS  C:\Users\jenny\AppData\Local\Temp\cc0jcio7.s 			page 10


 510 015f 02       		.byte	0x2
 511 0160 23       		.byte	0x23
 512 0161 10       		.uleb128 0x10
 513 0162 06       		.uleb128 0x6
 514 0163 1F020000 		.4byte	.LASF29
 515 0167 06       		.byte	0x6
 516 0168 67       		.byte	0x67
 517 0169 5A020000 		.4byte	0x25a
 518 016d 02       		.byte	0x2
 519 016e 23       		.byte	0x23
 520 016f 14       		.uleb128 0x14
 521 0170 06       		.uleb128 0x6
 522 0171 FA030000 		.4byte	.LASF30
 523 0175 06       		.byte	0x6
 524 0176 6E       		.byte	0x6e
 525 0177 00060000 		.4byte	0x600
 526 017b 02       		.byte	0x2
 527 017c 23       		.byte	0x23
 528 017d 18       		.uleb128 0x18
 529 017e 06       		.uleb128 0x6
 530 017f B2020000 		.4byte	.LASF31
 531 0183 06       		.byte	0x6
 532 0184 79       		.byte	0x79
 533 0185 B8000000 		.4byte	0xb8
 534 0189 02       		.byte	0x2
 535 018a 23       		.byte	0x23
 536 018b 1C       		.uleb128 0x1c
 537 018c 06       		.uleb128 0x6
 538 018d DE020000 		.4byte	.LASF32
 539 0191 06       		.byte	0x6
 540 0192 7D       		.byte	0x7d
 541 0193 AD000000 		.4byte	0xad
 542 0197 02       		.byte	0x2
 543 0198 23       		.byte	0x23
 544 0199 1D       		.uleb128 0x1d
 545 019a 06       		.uleb128 0x6
 546 019b 7A030000 		.4byte	.LASF33
 547 019f 06       		.byte	0x6
 548 01a0 82       		.byte	0x82
 549 01a1 C3000000 		.4byte	0xc3
 550 01a5 02       		.byte	0x2
 551 01a6 23       		.byte	0x23
 552 01a7 1E       		.uleb128 0x1e
 553 01a8 06       		.uleb128 0x6
 554 01a9 BA020000 		.4byte	.LASF34
 555 01ad 06       		.byte	0x6
 556 01ae 88       		.byte	0x88
 557 01af CE000000 		.4byte	0xce
 558 01b3 02       		.byte	0x2
 559 01b4 23       		.byte	0x23
 560 01b5 1F       		.uleb128 0x1f
 561 01b6 06       		.uleb128 0x6
 562 01b7 48030000 		.4byte	.LASF35
 563 01bb 06       		.byte	0x6
 564 01bc 8F       		.byte	0x8f
 565 01bd 4D040000 		.4byte	0x44d
 566 01c1 02       		.byte	0x2
ARM GAS  C:\Users\jenny\AppData\Local\Temp\cc0jcio7.s 			page 11


 567 01c2 23       		.byte	0x23
 568 01c3 20       		.uleb128 0x20
 569 01c4 07       		.uleb128 0x7
 570 01c5 705F7500 		.ascii	"p_u\000"
 571 01c9 06       		.byte	0x6
 572 01ca B4       		.byte	0xb4
 573 01cb CB050000 		.4byte	0x5cb
 574 01cf 02       		.byte	0x2
 575 01d0 23       		.byte	0x23
 576 01d1 24       		.uleb128 0x24
 577 01d2 06       		.uleb128 0x6
 578 01d3 0F040000 		.4byte	.LASF36
 579 01d7 06       		.byte	0x6
 580 01d8 B9       		.byte	0xb9
 581 01d9 82020000 		.4byte	0x282
 582 01dd 02       		.byte	0x2
 583 01de 23       		.byte	0x23
 584 01df 28       		.uleb128 0x28
 585 01e0 06       		.uleb128 0x6
 586 01e1 56030000 		.4byte	.LASF37
 587 01e5 06       		.byte	0x6
 588 01e6 BF       		.byte	0xbf
 589 01e7 60020000 		.4byte	0x260
 590 01eb 02       		.byte	0x2
 591 01ec 23       		.byte	0x23
 592 01ed 2C       		.uleb128 0x2c
 593 01ee 06       		.uleb128 0x6
 594 01ef 08000000 		.4byte	.LASF38
 595 01f3 06       		.byte	0x6
 596 01f4 C3       		.byte	0xc3
 597 01f5 E4000000 		.4byte	0xe4
 598 01f9 02       		.byte	0x2
 599 01fa 23       		.byte	0x23
 600 01fb 34       		.uleb128 0x34
 601 01fc 06       		.uleb128 0x6
 602 01fd 06030000 		.4byte	.LASF39
 603 0201 06       		.byte	0x6
 604 0202 C9       		.byte	0xc9
 605 0203 EF000000 		.4byte	0xef
 606 0207 02       		.byte	0x2
 607 0208 23       		.byte	0x23
 608 0209 38       		.uleb128 0x38
 609 020a 06       		.uleb128 0x6
 610 020b 9E020000 		.4byte	.LASF40
 611 020f 06       		.byte	0x6
 612 0210 D0       		.byte	0xd0
 613 0211 12060000 		.4byte	0x612
 614 0215 02       		.byte	0x2
 615 0216 23       		.byte	0x23
 616 0217 3C       		.uleb128 0x3c
 617 0218 06       		.uleb128 0x6
 618 0219 35030000 		.4byte	.LASF41
 619 021d 06       		.byte	0x6
 620 021e D4       		.byte	0xd4
 621 021f D9000000 		.4byte	0xd9
 622 0223 02       		.byte	0x2
 623 0224 23       		.byte	0x23
ARM GAS  C:\Users\jenny\AppData\Local\Temp\cc0jcio7.s 			page 12


 624 0225 40       		.uleb128 0x40
 625 0226 06       		.uleb128 0x6
 626 0227 AD000000 		.4byte	.LASF42
 627 022b 06       		.byte	0x6
 628 022c DA       		.byte	0xda
 629 022d 98020000 		.4byte	0x298
 630 0231 02       		.byte	0x2
 631 0232 23       		.byte	0x23
 632 0233 44       		.uleb128 0x44
 633 0234 00       		.byte	0
 634 0235 08       		.uleb128 0x8
 635 0236 08       		.byte	0x8
 636 0237 05       		.byte	0x5
 637 0238 61       		.byte	0x61
 638 0239 5A020000 		.4byte	0x25a
 639 023d 06       		.uleb128 0x6
 640 023e D7020000 		.4byte	.LASF24
 641 0242 05       		.byte	0x5
 642 0243 62       		.byte	0x62
 643 0244 5A020000 		.4byte	0x25a
 644 0248 02       		.byte	0x2
 645 0249 23       		.byte	0x23
 646 024a 00       		.uleb128 0
 647 024b 06       		.uleb128 0x6
 648 024c 68020000 		.4byte	.LASF25
 649 0250 05       		.byte	0x5
 650 0251 64       		.byte	0x64
 651 0252 5A020000 		.4byte	0x25a
 652 0256 02       		.byte	0x2
 653 0257 23       		.byte	0x23
 654 0258 04       		.uleb128 0x4
 655 0259 00       		.byte	0
 656 025a 09       		.uleb128 0x9
 657 025b 04       		.byte	0x4
 658 025c 05010000 		.4byte	0x105
 659 0260 03       		.uleb128 0x3
 660 0261 27020000 		.4byte	.LASF43
 661 0265 05       		.byte	0x5
 662 0266 66       		.byte	0x66
 663 0267 35020000 		.4byte	0x235
 664 026b 08       		.uleb128 0x8
 665 026c 04       		.byte	0x4
 666 026d 05       		.byte	0x5
 667 026e 6B       		.byte	0x6b
 668 026f 82020000 		.4byte	0x282
 669 0273 06       		.uleb128 0x6
 670 0274 D7020000 		.4byte	.LASF24
 671 0278 05       		.byte	0x5
 672 0279 6D       		.byte	0x6d
 673 027a 5A020000 		.4byte	0x25a
 674 027e 02       		.byte	0x2
 675 027f 23       		.byte	0x23
 676 0280 00       		.uleb128 0
 677 0281 00       		.byte	0
 678 0282 03       		.uleb128 0x3
 679 0283 E1010000 		.4byte	.LASF44
 680 0287 05       		.byte	0x5
ARM GAS  C:\Users\jenny\AppData\Local\Temp\cc0jcio7.s 			page 13


 681 0288 70       		.byte	0x70
 682 0289 6B020000 		.4byte	0x26b
 683 028d 03       		.uleb128 0x3
 684 028e 85010000 		.4byte	.LASF45
 685 0292 07       		.byte	0x7
 686 0293 E5       		.byte	0xe5
 687 0294 98020000 		.4byte	0x298
 688 0298 0A       		.uleb128 0xa
 689 0299 04       		.byte	0x4
 690 029a 03       		.uleb128 0x3
 691 029b 0B020000 		.4byte	.LASF46
 692 029f 07       		.byte	0x7
 693 02a0 EB       		.byte	0xeb
 694 02a1 94000000 		.4byte	0x94
 695 02a5 0B       		.uleb128 0xb
 696 02a6 4F030000 		.4byte	.LASF47
 697 02aa 64       		.byte	0x64
 698 02ab 07       		.byte	0x7
 699 02ac 0C01     		.2byte	0x10c
 700 02ae 23040000 		.4byte	0x423
 701 02b2 0C       		.uleb128 0xc
 702 02b3 73313600 		.ascii	"s16\000"
 703 02b7 07       		.byte	0x7
 704 02b8 0E01     		.2byte	0x10e
 705 02ba 8D020000 		.4byte	0x28d
 706 02be 02       		.byte	0x2
 707 02bf 23       		.byte	0x23
 708 02c0 00       		.uleb128 0
 709 02c1 0C       		.uleb128 0xc
 710 02c2 73313700 		.ascii	"s17\000"
 711 02c6 07       		.byte	0x7
 712 02c7 0F01     		.2byte	0x10f
 713 02c9 8D020000 		.4byte	0x28d
 714 02cd 02       		.byte	0x2
 715 02ce 23       		.byte	0x23
 716 02cf 04       		.uleb128 0x4
 717 02d0 0C       		.uleb128 0xc
 718 02d1 73313800 		.ascii	"s18\000"
 719 02d5 07       		.byte	0x7
 720 02d6 1001     		.2byte	0x110
 721 02d8 8D020000 		.4byte	0x28d
 722 02dc 02       		.byte	0x2
 723 02dd 23       		.byte	0x23
 724 02de 08       		.uleb128 0x8
 725 02df 0C       		.uleb128 0xc
 726 02e0 73313900 		.ascii	"s19\000"
 727 02e4 07       		.byte	0x7
 728 02e5 1101     		.2byte	0x111
 729 02e7 8D020000 		.4byte	0x28d
 730 02eb 02       		.byte	0x2
 731 02ec 23       		.byte	0x23
 732 02ed 0C       		.uleb128 0xc
 733 02ee 0C       		.uleb128 0xc
 734 02ef 73323000 		.ascii	"s20\000"
 735 02f3 07       		.byte	0x7
 736 02f4 1201     		.2byte	0x112
 737 02f6 8D020000 		.4byte	0x28d
ARM GAS  C:\Users\jenny\AppData\Local\Temp\cc0jcio7.s 			page 14


 738 02fa 02       		.byte	0x2
 739 02fb 23       		.byte	0x23
 740 02fc 10       		.uleb128 0x10
 741 02fd 0C       		.uleb128 0xc
 742 02fe 73323100 		.ascii	"s21\000"
 743 0302 07       		.byte	0x7
 744 0303 1301     		.2byte	0x113
 745 0305 8D020000 		.4byte	0x28d
 746 0309 02       		.byte	0x2
 747 030a 23       		.byte	0x23
 748 030b 14       		.uleb128 0x14
 749 030c 0C       		.uleb128 0xc
 750 030d 73323200 		.ascii	"s22\000"
 751 0311 07       		.byte	0x7
 752 0312 1401     		.2byte	0x114
 753 0314 8D020000 		.4byte	0x28d
 754 0318 02       		.byte	0x2
 755 0319 23       		.byte	0x23
 756 031a 18       		.uleb128 0x18
 757 031b 0C       		.uleb128 0xc
 758 031c 73323300 		.ascii	"s23\000"
 759 0320 07       		.byte	0x7
 760 0321 1501     		.2byte	0x115
 761 0323 8D020000 		.4byte	0x28d
 762 0327 02       		.byte	0x2
 763 0328 23       		.byte	0x23
 764 0329 1C       		.uleb128 0x1c
 765 032a 0C       		.uleb128 0xc
 766 032b 73323400 		.ascii	"s24\000"
 767 032f 07       		.byte	0x7
 768 0330 1601     		.2byte	0x116
 769 0332 8D020000 		.4byte	0x28d
 770 0336 02       		.byte	0x2
 771 0337 23       		.byte	0x23
 772 0338 20       		.uleb128 0x20
 773 0339 0C       		.uleb128 0xc
 774 033a 73323500 		.ascii	"s25\000"
 775 033e 07       		.byte	0x7
 776 033f 1701     		.2byte	0x117
 777 0341 8D020000 		.4byte	0x28d
 778 0345 02       		.byte	0x2
 779 0346 23       		.byte	0x23
 780 0347 24       		.uleb128 0x24
 781 0348 0C       		.uleb128 0xc
 782 0349 73323600 		.ascii	"s26\000"
 783 034d 07       		.byte	0x7
 784 034e 1801     		.2byte	0x118
 785 0350 8D020000 		.4byte	0x28d
 786 0354 02       		.byte	0x2
 787 0355 23       		.byte	0x23
 788 0356 28       		.uleb128 0x28
 789 0357 0C       		.uleb128 0xc
 790 0358 73323700 		.ascii	"s27\000"
 791 035c 07       		.byte	0x7
 792 035d 1901     		.2byte	0x119
 793 035f 8D020000 		.4byte	0x28d
 794 0363 02       		.byte	0x2
ARM GAS  C:\Users\jenny\AppData\Local\Temp\cc0jcio7.s 			page 15


 795 0364 23       		.byte	0x23
 796 0365 2C       		.uleb128 0x2c
 797 0366 0C       		.uleb128 0xc
 798 0367 73323800 		.ascii	"s28\000"
 799 036b 07       		.byte	0x7
 800 036c 1A01     		.2byte	0x11a
 801 036e 8D020000 		.4byte	0x28d
 802 0372 02       		.byte	0x2
 803 0373 23       		.byte	0x23
 804 0374 30       		.uleb128 0x30
 805 0375 0C       		.uleb128 0xc
 806 0376 73323900 		.ascii	"s29\000"
 807 037a 07       		.byte	0x7
 808 037b 1B01     		.2byte	0x11b
 809 037d 8D020000 		.4byte	0x28d
 810 0381 02       		.byte	0x2
 811 0382 23       		.byte	0x23
 812 0383 34       		.uleb128 0x34
 813 0384 0C       		.uleb128 0xc
 814 0385 73333000 		.ascii	"s30\000"
 815 0389 07       		.byte	0x7
 816 038a 1C01     		.2byte	0x11c
 817 038c 8D020000 		.4byte	0x28d
 818 0390 02       		.byte	0x2
 819 0391 23       		.byte	0x23
 820 0392 38       		.uleb128 0x38
 821 0393 0C       		.uleb128 0xc
 822 0394 73333100 		.ascii	"s31\000"
 823 0398 07       		.byte	0x7
 824 0399 1D01     		.2byte	0x11d
 825 039b 8D020000 		.4byte	0x28d
 826 039f 02       		.byte	0x2
 827 03a0 23       		.byte	0x23
 828 03a1 3C       		.uleb128 0x3c
 829 03a2 0C       		.uleb128 0xc
 830 03a3 723400   		.ascii	"r4\000"
 831 03a6 07       		.byte	0x7
 832 03a7 1F01     		.2byte	0x11f
 833 03a9 8D020000 		.4byte	0x28d
 834 03ad 02       		.byte	0x2
 835 03ae 23       		.byte	0x23
 836 03af 40       		.uleb128 0x40
 837 03b0 0C       		.uleb128 0xc
 838 03b1 723500   		.ascii	"r5\000"
 839 03b4 07       		.byte	0x7
 840 03b5 2001     		.2byte	0x120
 841 03b7 8D020000 		.4byte	0x28d
 842 03bb 02       		.byte	0x2
 843 03bc 23       		.byte	0x23
 844 03bd 44       		.uleb128 0x44
 845 03be 0C       		.uleb128 0xc
 846 03bf 723600   		.ascii	"r6\000"
 847 03c2 07       		.byte	0x7
 848 03c3 2101     		.2byte	0x121
 849 03c5 8D020000 		.4byte	0x28d
 850 03c9 02       		.byte	0x2
 851 03ca 23       		.byte	0x23
ARM GAS  C:\Users\jenny\AppData\Local\Temp\cc0jcio7.s 			page 16


 852 03cb 48       		.uleb128 0x48
 853 03cc 0C       		.uleb128 0xc
 854 03cd 723700   		.ascii	"r7\000"
 855 03d0 07       		.byte	0x7
 856 03d1 2201     		.2byte	0x122
 857 03d3 8D020000 		.4byte	0x28d
 858 03d7 02       		.byte	0x2
 859 03d8 23       		.byte	0x23
 860 03d9 4C       		.uleb128 0x4c
 861 03da 0C       		.uleb128 0xc
 862 03db 723800   		.ascii	"r8\000"
 863 03de 07       		.byte	0x7
 864 03df 2301     		.2byte	0x123
 865 03e1 8D020000 		.4byte	0x28d
 866 03e5 02       		.byte	0x2
 867 03e6 23       		.byte	0x23
 868 03e7 50       		.uleb128 0x50
 869 03e8 0C       		.uleb128 0xc
 870 03e9 723900   		.ascii	"r9\000"
 871 03ec 07       		.byte	0x7
 872 03ed 2401     		.2byte	0x124
 873 03ef 8D020000 		.4byte	0x28d
 874 03f3 02       		.byte	0x2
 875 03f4 23       		.byte	0x23
 876 03f5 54       		.uleb128 0x54
 877 03f6 0C       		.uleb128 0xc
 878 03f7 72313000 		.ascii	"r10\000"
 879 03fb 07       		.byte	0x7
 880 03fc 2501     		.2byte	0x125
 881 03fe 8D020000 		.4byte	0x28d
 882 0402 02       		.byte	0x2
 883 0403 23       		.byte	0x23
 884 0404 58       		.uleb128 0x58
 885 0405 0C       		.uleb128 0xc
 886 0406 72313100 		.ascii	"r11\000"
 887 040a 07       		.byte	0x7
 888 040b 2601     		.2byte	0x126
 889 040d 8D020000 		.4byte	0x28d
 890 0411 02       		.byte	0x2
 891 0412 23       		.byte	0x23
 892 0413 5C       		.uleb128 0x5c
 893 0414 0C       		.uleb128 0xc
 894 0415 6C7200   		.ascii	"lr\000"
 895 0418 07       		.byte	0x7
 896 0419 2701     		.2byte	0x127
 897 041b 8D020000 		.4byte	0x28d
 898 041f 02       		.byte	0x2
 899 0420 23       		.byte	0x23
 900 0421 60       		.uleb128 0x60
 901 0422 00       		.byte	0
 902 0423 0B       		.uleb128 0xb
 903 0424 B3010000 		.4byte	.LASF48
 904 0428 04       		.byte	0x4
 905 0429 07       		.byte	0x7
 906 042a 3101     		.2byte	0x131
 907 042c 40040000 		.4byte	0x440
 908 0430 0C       		.uleb128 0xc
ARM GAS  C:\Users\jenny\AppData\Local\Temp\cc0jcio7.s 			page 17


 909 0431 72313300 		.ascii	"r13\000"
 910 0435 07       		.byte	0x7
 911 0436 3201     		.2byte	0x132
 912 0438 40040000 		.4byte	0x440
 913 043c 02       		.byte	0x2
 914 043d 23       		.byte	0x23
 915 043e 00       		.uleb128 0
 916 043f 00       		.byte	0
 917 0440 09       		.uleb128 0x9
 918 0441 04       		.byte	0x4
 919 0442 A5020000 		.4byte	0x2a5
 920 0446 04       		.uleb128 0x4
 921 0447 04       		.byte	0x4
 922 0448 07       		.byte	0x7
 923 0449 16020000 		.4byte	.LASF49
 924 044d 0D       		.uleb128 0xd
 925 044e FA000000 		.4byte	0xfa
 926 0452 05       		.uleb128 0x5
 927 0453 F9010000 		.4byte	.LASF50
 928 0457 10       		.byte	0x10
 929 0458 08       		.byte	0x8
 930 0459 2C       		.byte	0x2c
 931 045a 89040000 		.4byte	0x489
 932 045e 06       		.uleb128 0x6
 933 045f B5000000 		.4byte	.LASF51
 934 0463 08       		.byte	0x8
 935 0464 2D       		.byte	0x2d
 936 0465 60020000 		.4byte	0x260
 937 0469 02       		.byte	0x2
 938 046a 23       		.byte	0x23
 939 046b 00       		.uleb128 0
 940 046c 06       		.uleb128 0x6
 941 046d 01040000 		.4byte	.LASF52
 942 0471 08       		.byte	0x8
 943 0472 2F       		.byte	0x2f
 944 0473 5A020000 		.4byte	0x25a
 945 0477 02       		.byte	0x2
 946 0478 23       		.byte	0x23
 947 0479 08       		.uleb128 0x8
 948 047a 06       		.uleb128 0x6
 949 047b 24030000 		.4byte	.LASF53
 950 047f 08       		.byte	0x8
 951 0480 31       		.byte	0x31
 952 0481 89040000 		.4byte	0x489
 953 0485 02       		.byte	0x2
 954 0486 23       		.byte	0x23
 955 0487 0C       		.uleb128 0xc
 956 0488 00       		.byte	0
 957 0489 09       		.uleb128 0x9
 958 048a 04       		.byte	0x4
 959 048b 52040000 		.4byte	0x452
 960 048f 03       		.uleb128 0x3
 961 0490 F9010000 		.4byte	.LASF50
 962 0494 08       		.byte	0x8
 963 0495 33       		.byte	0x33
 964 0496 52040000 		.4byte	0x452
 965 049a 03       		.uleb128 0x3
ARM GAS  C:\Users\jenny\AppData\Local\Temp\cc0jcio7.s 			page 18


 966 049b 50000000 		.4byte	.LASF54
 967 049f 09       		.byte	0x9
 968 04a0 2C       		.byte	0x2c
 969 04a1 A5040000 		.4byte	0x4a5
 970 04a5 09       		.uleb128 0x9
 971 04a6 04       		.byte	0x4
 972 04a7 AB040000 		.4byte	0x4ab
 973 04ab 0E       		.uleb128 0xe
 974 04ac 01       		.byte	0x1
 975 04ad 98020000 		.4byte	0x298
 976 04b1 BB040000 		.4byte	0x4bb
 977 04b5 0F       		.uleb128 0xf
 978 04b6 30000000 		.4byte	0x30
 979 04ba 00       		.byte	0
 980 04bb 03       		.uleb128 0x3
 981 04bc 48020000 		.4byte	.LASF55
 982 04c0 0A       		.byte	0xa
 983 04c1 34       		.byte	0x34
 984 04c2 C6040000 		.4byte	0x4c6
 985 04c6 05       		.uleb128 0x5
 986 04c7 19040000 		.4byte	.LASF56
 987 04cb 20       		.byte	0x20
 988 04cc 0A       		.byte	0xa
 989 04cd 47       		.byte	0x47
 990 04ce FD040000 		.4byte	0x4fd
 991 04d2 06       		.uleb128 0x6
 992 04d3 93020000 		.4byte	.LASF57
 993 04d7 0A       		.byte	0xa
 994 04d8 48       		.byte	0x48
 995 04d9 9A040000 		.4byte	0x49a
 996 04dd 02       		.byte	0x2
 997 04de 23       		.byte	0x23
 998 04df 00       		.uleb128 0
 999 04e0 06       		.uleb128 0x6
 1000 04e1 74000000 		.4byte	.LASF58
 1001 04e5 0A       		.byte	0xa
 1002 04e6 4A       		.byte	0x4a
 1003 04e7 1C050000 		.4byte	0x51c
 1004 04eb 02       		.byte	0x2
 1005 04ec 23       		.byte	0x23
 1006 04ed 08       		.uleb128 0x8
 1007 04ee 06       		.uleb128 0x6
 1008 04ef A7000000 		.4byte	.LASF59
 1009 04f3 0A       		.byte	0xa
 1010 04f4 4C       		.byte	0x4c
 1011 04f5 8F040000 		.4byte	0x48f
 1012 04f9 02       		.byte	0x2
 1013 04fa 23       		.byte	0x23
 1014 04fb 10       		.uleb128 0x10
 1015 04fc 00       		.byte	0
 1016 04fd 10       		.uleb128 0x10
 1017 04fe 04       		.byte	0x4
 1018 04ff 0A       		.byte	0xa
 1019 0500 3C       		.byte	0x3c
 1020 0501 1C050000 		.4byte	0x51c
 1021 0505 11       		.uleb128 0x11
 1022 0506 81000000 		.4byte	.LASF60
ARM GAS  C:\Users\jenny\AppData\Local\Temp\cc0jcio7.s 			page 19


 1023 050a 0A       		.byte	0xa
 1024 050b 3D       		.byte	0x3d
 1025 050c 3D050000 		.4byte	0x53d
 1026 0510 11       		.uleb128 0x11
 1027 0511 1A030000 		.4byte	.LASF61
 1028 0515 0A       		.byte	0xa
 1029 0516 3E       		.byte	0x3e
 1030 0517 43050000 		.4byte	0x543
 1031 051b 00       		.byte	0
 1032 051c 12       		.uleb128 0x12
 1033 051d C4020000 		.4byte	.LASF91
 1034 0521 08       		.byte	0x8
 1035 0522 0A       		.byte	0xa
 1036 0523 39       		.byte	0x39
 1037 0524 3D050000 		.4byte	0x53d
 1038 0528 11       		.uleb128 0x11
 1039 0529 8E010000 		.4byte	.LASF62
 1040 052d 0A       		.byte	0xa
 1041 052e 3A       		.byte	0x3a
 1042 052f 9A020000 		.4byte	0x29a
 1043 0533 13       		.uleb128 0x13
 1044 0534 6800     		.ascii	"h\000"
 1045 0536 0A       		.byte	0xa
 1046 0537 41       		.byte	0x41
 1047 0538 49050000 		.4byte	0x549
 1048 053c 00       		.byte	0
 1049 053d 09       		.uleb128 0x9
 1050 053e 04       		.byte	0x4
 1051 053f 1C050000 		.4byte	0x51c
 1052 0543 09       		.uleb128 0x9
 1053 0544 04       		.byte	0x4
 1054 0545 BB040000 		.4byte	0x4bb
 1055 0549 08       		.uleb128 0x8
 1056 054a 08       		.byte	0x8
 1057 054b 0A       		.byte	0xa
 1058 054c 3B       		.byte	0x3b
 1059 054d 6C050000 		.4byte	0x56c
 1060 0551 07       		.uleb128 0x7
 1061 0552 7500     		.ascii	"u\000"
 1062 0554 0A       		.byte	0xa
 1063 0555 3F       		.byte	0x3f
 1064 0556 FD040000 		.4byte	0x4fd
 1065 055a 02       		.byte	0x2
 1066 055b 23       		.byte	0x23
 1067 055c 00       		.uleb128 0
 1068 055d 06       		.uleb128 0x6
 1069 055e BB010000 		.4byte	.LASF63
 1070 0562 0A       		.byte	0xa
 1071 0563 40       		.byte	0x40
 1072 0564 30000000 		.4byte	0x30
 1073 0568 02       		.byte	0x2
 1074 0569 23       		.byte	0x23
 1075 056a 04       		.uleb128 0x4
 1076 056b 00       		.byte	0
 1077 056c 05       		.uleb128 0x5
 1078 056d 6E030000 		.4byte	.LASF64
 1079 0571 04       		.byte	0x4
ARM GAS  C:\Users\jenny\AppData\Local\Temp\cc0jcio7.s 			page 20


 1080 0572 0B       		.byte	0xb
 1081 0573 2C       		.byte	0x2c
 1082 0574 87050000 		.4byte	0x587
 1083 0578 06       		.uleb128 0x6
 1084 0579 53020000 		.4byte	.LASF65
 1085 057d 0B       		.byte	0xb
 1086 057e 2D       		.byte	0x2d
 1087 057f 87050000 		.4byte	0x587
 1088 0583 02       		.byte	0x2
 1089 0584 23       		.byte	0x23
 1090 0585 00       		.uleb128 0
 1091 0586 00       		.byte	0
 1092 0587 09       		.uleb128 0x9
 1093 0588 04       		.byte	0x4
 1094 0589 6C050000 		.4byte	0x56c
 1095 058d 08       		.uleb128 0x8
 1096 058e 0C       		.byte	0xc
 1097 058f 0B       		.byte	0xb
 1098 0590 34       		.byte	0x34
 1099 0591 C0050000 		.4byte	0x5c0
 1100 0595 06       		.uleb128 0x6
 1101 0596 40030000 		.4byte	.LASF66
 1102 059a 0B       		.byte	0xb
 1103 059b 35       		.byte	0x35
 1104 059c 87050000 		.4byte	0x587
 1105 05a0 02       		.byte	0x2
 1106 05a1 23       		.byte	0x23
 1107 05a2 00       		.uleb128 0
 1108 05a3 06       		.uleb128 0x6
 1109 05a4 34020000 		.4byte	.LASF67
 1110 05a8 0B       		.byte	0xb
 1111 05a9 36       		.byte	0x36
 1112 05aa 30000000 		.4byte	0x30
 1113 05ae 02       		.byte	0x2
 1114 05af 23       		.byte	0x23
 1115 05b0 04       		.uleb128 0x4
 1116 05b1 06       		.uleb128 0x6
 1117 05b2 79010000 		.4byte	.LASF68
 1118 05b6 0B       		.byte	0xb
 1119 05b7 38       		.byte	0x38
 1120 05b8 9A040000 		.4byte	0x49a
 1121 05bc 02       		.byte	0x2
 1122 05bd 23       		.byte	0x23
 1123 05be 08       		.uleb128 0x8
 1124 05bf 00       		.byte	0
 1125 05c0 03       		.uleb128 0x3
 1126 05c1 45000000 		.4byte	.LASF69
 1127 05c5 0B       		.byte	0xb
 1128 05c6 3A       		.byte	0x3a
 1129 05c7 8D050000 		.4byte	0x58d
 1130 05cb 10       		.uleb128 0x10
 1131 05cc 04       		.byte	0x4
 1132 05cd 06       		.byte	0x6
 1133 05ce 96       		.byte	0x96
 1134 05cf 00060000 		.4byte	0x600
 1135 05d3 11       		.uleb128 0x11
 1136 05d4 35000000 		.4byte	.LASF70
ARM GAS  C:\Users\jenny\AppData\Local\Temp\cc0jcio7.s 			page 21


 1137 05d8 06       		.byte	0x6
 1138 05d9 9D       		.byte	0x9d
 1139 05da E4000000 		.4byte	0xe4
 1140 05de 11       		.uleb128 0x11
 1141 05df 70010000 		.4byte	.LASF71
 1142 05e3 06       		.byte	0x6
 1143 05e4 A4       		.byte	0xa4
 1144 05e5 E4000000 		.4byte	0xe4
 1145 05e9 11       		.uleb128 0x11
 1146 05ea F3030000 		.4byte	.LASF72
 1147 05ee 06       		.byte	0x6
 1148 05ef AB       		.byte	0xab
 1149 05f0 98020000 		.4byte	0x298
 1150 05f4 11       		.uleb128 0x11
 1151 05f5 D0020000 		.4byte	.LASF73
 1152 05f9 06       		.byte	0x6
 1153 05fa B2       		.byte	0xb2
 1154 05fb EF000000 		.4byte	0xef
 1155 05ff 00       		.byte	0
 1156 0600 09       		.uleb128 0x9
 1157 0601 04       		.byte	0x4
 1158 0602 06060000 		.4byte	0x606
 1159 0606 14       		.uleb128 0x14
 1160 0607 0B060000 		.4byte	0x60b
 1161 060b 04       		.uleb128 0x4
 1162 060c 01       		.byte	0x1
 1163 060d 08       		.byte	0x8
 1164 060e 1F030000 		.4byte	.LASF74
 1165 0612 09       		.uleb128 0x9
 1166 0613 04       		.byte	0x4
 1167 0614 8F040000 		.4byte	0x48f
 1168 0618 03       		.uleb128 0x3
 1169 0619 00000000 		.4byte	.LASF75
 1170 061d 06       		.byte	0x6
 1171 061e E5       		.byte	0xe5
 1172 061f 23060000 		.4byte	0x623
 1173 0623 09       		.uleb128 0x9
 1174 0624 04       		.byte	0x4
 1175 0625 29060000 		.4byte	0x629
 1176 0629 0E       		.uleb128 0xe
 1177 062a 01       		.byte	0x1
 1178 062b E4000000 		.4byte	0xe4
 1179 062f 39060000 		.4byte	0x639
 1180 0633 0F       		.uleb128 0xf
 1181 0634 98020000 		.4byte	0x298
 1182 0638 00       		.byte	0
 1183 0639 15       		.uleb128 0x15
 1184 063a 01       		.byte	0x1
 1185 063b FF010000 		.4byte	.LASF77
 1186 063f 01       		.byte	0x1
 1187 0640 34       		.byte	0x34
 1188 0641 01       		.byte	0x1
 1189 0642 5A020000 		.4byte	0x25a
 1190 0646 00000000 		.4byte	.LFB7
 1191 064a 14000000 		.4byte	.LFE7
 1192 064e 02       		.byte	0x2
 1193 064f 7D       		.byte	0x7d
ARM GAS  C:\Users\jenny\AppData\Local\Temp\cc0jcio7.s 			page 22


 1194 0650 00       		.sleb128 0
 1195 0651 01       		.byte	0x1
 1196 0652 99060000 		.4byte	0x699
 1197 0656 16       		.uleb128 0x16
 1198 0657 747000   		.ascii	"tp\000"
 1199 065a 01       		.byte	0x1
 1200 065b 34       		.byte	0x34
 1201 065c 5A020000 		.4byte	0x25a
 1202 0660 01       		.byte	0x1
 1203 0661 50       		.byte	0x50
 1204 0662 17       		.uleb128 0x17
 1205 0663 00000000 		.4byte	.LBB2
 1206 0667 06000000 		.4byte	.LBE2
 1207 066b 7F060000 		.4byte	0x67f
 1208 066f 18       		.uleb128 0x18
 1209 0670 746D7000 		.ascii	"tmp\000"
 1210 0674 01       		.byte	0x1
 1211 0675 36       		.byte	0x36
 1212 0676 7B000000 		.4byte	0x7b
 1213 067a 00000000 		.4byte	.LLST0
 1214 067e 00       		.byte	0
 1215 067f 19       		.uleb128 0x19
 1216 0680 0C000000 		.4byte	.LBB3
 1217 0684 12000000 		.4byte	.LBE3
 1218 0688 18       		.uleb128 0x18
 1219 0689 746D7000 		.ascii	"tmp\000"
 1220 068d 01       		.byte	0x1
 1221 068e 39       		.byte	0x39
 1222 068f 7B000000 		.4byte	0x7b
 1223 0693 13000000 		.4byte	.LLST1
 1224 0697 00       		.byte	0
 1225 0698 00       		.byte	0
 1226 0699 1A       		.uleb128 0x1a
 1227 069a 01       		.byte	0x1
 1228 069b E6020000 		.4byte	.LASF92
 1229 069f 01       		.byte	0x1
 1230 06a0 4A       		.byte	0x4a
 1231 06a1 01       		.byte	0x1
 1232 06a2 00000000 		.4byte	.LFB8
 1233 06a6 4C000000 		.4byte	.LFE8
 1234 06aa 02       		.byte	0x2
 1235 06ab 7D       		.byte	0x7d
 1236 06ac 00       		.sleb128 0
 1237 06ad 01       		.byte	0x1
 1238 06ae 32070000 		.4byte	0x732
 1239 06b2 1B       		.uleb128 0x1b
 1240 06b3 747000   		.ascii	"tp\000"
 1241 06b6 01       		.byte	0x1
 1242 06b7 4A       		.byte	0x4a
 1243 06b8 5A020000 		.4byte	0x25a
 1244 06bc 26000000 		.4byte	.LLST2
 1245 06c0 1C       		.uleb128 0x1c
 1246 06c1 63020000 		.4byte	.LASF76
 1247 06c5 01       		.byte	0x1
 1248 06c6 4B       		.byte	0x4b
 1249 06c7 C3000000 		.4byte	0xc3
 1250 06cb 6B000000 		.4byte	.LLST3
ARM GAS  C:\Users\jenny\AppData\Local\Temp\cc0jcio7.s 			page 23


 1251 06cf 17       		.uleb128 0x17
 1252 06d0 02000000 		.4byte	.LBB4
 1253 06d4 08000000 		.4byte	.LBE4
 1254 06d8 EC060000 		.4byte	0x6ec
 1255 06dc 18       		.uleb128 0x18
 1256 06dd 746D7000 		.ascii	"tmp\000"
 1257 06e1 01       		.byte	0x1
 1258 06e2 4D       		.byte	0x4d
 1259 06e3 7B000000 		.4byte	0x7b
 1260 06e7 C5000000 		.4byte	.LLST4
 1261 06eb 00       		.byte	0
 1262 06ec 17       		.uleb128 0x17
 1263 06ed 10000000 		.4byte	.LBB5
 1264 06f1 16000000 		.4byte	.LBE5
 1265 06f5 09070000 		.4byte	0x709
 1266 06f9 18       		.uleb128 0x18
 1267 06fa 746D7000 		.ascii	"tmp\000"
 1268 06fe 01       		.byte	0x1
 1269 06ff 50       		.byte	0x50
 1270 0700 7B000000 		.4byte	0x7b
 1271 0704 D8000000 		.4byte	.LLST5
 1272 0708 00       		.byte	0
 1273 0709 1D       		.uleb128 0x1d
 1274 070a 3E000000 		.4byte	.LVL17
 1275 070e 01       		.byte	0x1
 1276 070f 4E090000 		.4byte	0x94e
 1277 0713 1F070000 		.4byte	0x71f
 1278 0717 1E       		.uleb128 0x1e
 1279 0718 01       		.byte	0x1
 1280 0719 51       		.byte	0x51
 1281 071a 03       		.byte	0x3
 1282 071b F3       		.byte	0xf3
 1283 071c 01       		.uleb128 0x1
 1284 071d 50       		.byte	0x50
 1285 071e 00       		.byte	0
 1286 071f 1F       		.uleb128 0x1f
 1287 0720 4C000000 		.4byte	.LVL18
 1288 0724 01       		.byte	0x1
 1289 0725 67090000 		.4byte	0x967
 1290 0729 1E       		.uleb128 0x1e
 1291 072a 01       		.byte	0x1
 1292 072b 50       		.byte	0x50
 1293 072c 03       		.byte	0x3
 1294 072d F3       		.byte	0xf3
 1295 072e 01       		.uleb128 0x1
 1296 072f 50       		.byte	0x50
 1297 0730 00       		.byte	0
 1298 0731 00       		.byte	0
 1299 0732 20       		.uleb128 0x20
 1300 0733 01       		.byte	0x1
 1301 0734 31010000 		.4byte	.LASF78
 1302 0738 01       		.byte	0x1
 1303 0739 82       		.byte	0x82
 1304 073a 01       		.byte	0x1
 1305 073b 5A020000 		.4byte	0x25a
 1306 073f 00000000 		.4byte	.LFB9
 1307 0743 3E000000 		.4byte	.LFE9
ARM GAS  C:\Users\jenny\AppData\Local\Temp\cc0jcio7.s 			page 24


 1308 0747 F6000000 		.4byte	.LLST6
 1309 074b 01       		.byte	0x1
 1310 074c 48080000 		.4byte	0x848
 1311 0750 21       		.uleb128 0x21
 1312 0751 7B000000 		.4byte	.LASF79
 1313 0755 01       		.byte	0x1
 1314 0756 82       		.byte	0x82
 1315 0757 43050000 		.4byte	0x543
 1316 075b 22010000 		.4byte	.LLST7
 1317 075f 21       		.uleb128 0x21
 1318 0760 BB010000 		.4byte	.LASF63
 1319 0764 01       		.byte	0x1
 1320 0765 82       		.byte	0x82
 1321 0766 30000000 		.4byte	0x30
 1322 076a 43010000 		.4byte	.LLST8
 1323 076e 21       		.uleb128 0x21
 1324 076f 43020000 		.4byte	.LASF80
 1325 0773 01       		.byte	0x1
 1326 0774 83       		.byte	0x83
 1327 0775 D9000000 		.4byte	0xd9
 1328 0779 61010000 		.4byte	.LLST9
 1329 077d 1B       		.uleb128 0x1b
 1330 077e 706600   		.ascii	"pf\000"
 1331 0781 01       		.byte	0x1
 1332 0782 83       		.byte	0x83
 1333 0783 18060000 		.4byte	0x618
 1334 0787 7F010000 		.4byte	.LLST10
 1335 078b 16       		.uleb128 0x16
 1336 078c 61726700 		.ascii	"arg\000"
 1337 0790 01       		.byte	0x1
 1338 0791 83       		.byte	0x83
 1339 0792 98020000 		.4byte	0x298
 1340 0796 02       		.byte	0x2
 1341 0797 91       		.byte	0x91
 1342 0798 00       		.sleb128 0
 1343 0799 18       		.uleb128 0x18
 1344 079a 77737000 		.ascii	"wsp\000"
 1345 079e 01       		.byte	0x1
 1346 079f 84       		.byte	0x84
 1347 07a0 98020000 		.4byte	0x298
 1348 07a4 9D010000 		.4byte	.LLST11
 1349 07a8 18       		.uleb128 0x18
 1350 07a9 747000   		.ascii	"tp\000"
 1351 07ac 01       		.byte	0x1
 1352 07ad 85       		.byte	0x85
 1353 07ae 5A020000 		.4byte	0x25a
 1354 07b2 B0010000 		.4byte	.LLST12
 1355 07b6 17       		.uleb128 0x17
 1356 07b7 12000000 		.4byte	.LBB6
 1357 07bb 18000000 		.4byte	.LBE6
 1358 07bf D3070000 		.4byte	0x7d3
 1359 07c3 18       		.uleb128 0x18
 1360 07c4 746D7000 		.ascii	"tmp\000"
 1361 07c8 01       		.byte	0x1
 1362 07c9 94       		.byte	0x94
 1363 07ca 7B000000 		.4byte	0x7b
 1364 07ce CE010000 		.4byte	.LLST13
ARM GAS  C:\Users\jenny\AppData\Local\Temp\cc0jcio7.s 			page 25


 1365 07d2 00       		.byte	0
 1366 07d3 17       		.uleb128 0x17
 1367 07d4 32000000 		.4byte	.LBB7
 1368 07d8 38000000 		.4byte	.LBE7
 1369 07dc F0070000 		.4byte	0x7f0
 1370 07e0 18       		.uleb128 0x18
 1371 07e1 746D7000 		.ascii	"tmp\000"
 1372 07e5 01       		.byte	0x1
 1373 07e6 98       		.byte	0x98
 1374 07e7 7B000000 		.4byte	0x7b
 1375 07eb E1010000 		.4byte	.LLST14
 1376 07ef 00       		.byte	0
 1377 07f0 22       		.uleb128 0x22
 1378 07f1 0E000000 		.4byte	.LVL20
 1379 07f5 7B090000 		.4byte	0x97b
 1380 07f9 0B080000 		.4byte	0x80b
 1381 07fd 1E       		.uleb128 0x1e
 1382 07fe 01       		.byte	0x1
 1383 07ff 51       		.byte	0x51
 1384 0800 02       		.byte	0x2
 1385 0801 75       		.byte	0x75
 1386 0802 00       		.sleb128 0
 1387 0803 1E       		.uleb128 0x1e
 1388 0804 01       		.byte	0x1
 1389 0805 50       		.byte	0x50
 1390 0806 03       		.byte	0x3
 1391 0807 F3       		.byte	0xf3
 1392 0808 01       		.uleb128 0x1
 1393 0809 50       		.byte	0x50
 1394 080a 00       		.byte	0
 1395 080b 22       		.uleb128 0x22
 1396 080c 26000000 		.4byte	.LVL24
 1397 0810 98090000 		.4byte	0x998
 1398 0814 32080000 		.4byte	0x832
 1399 0818 1E       		.uleb128 0x1e
 1400 0819 01       		.byte	0x1
 1401 081a 53       		.byte	0x53
 1402 081b 02       		.byte	0x2
 1403 081c 76       		.byte	0x76
 1404 081d 00       		.sleb128 0
 1405 081e 1E       		.uleb128 0x1e
 1406 081f 01       		.byte	0x1
 1407 0820 52       		.byte	0x52
 1408 0821 02       		.byte	0x2
 1409 0822 77       		.byte	0x77
 1410 0823 00       		.sleb128 0
 1411 0824 1E       		.uleb128 0x1e
 1412 0825 01       		.byte	0x1
 1413 0826 51       		.byte	0x51
 1414 0827 02       		.byte	0x2
 1415 0828 75       		.byte	0x75
 1416 0829 00       		.sleb128 0
 1417 082a 1E       		.uleb128 0x1e
 1418 082b 02       		.byte	0x2
 1419 082c 7D       		.byte	0x7d
 1420 082d 00       		.sleb128 0
 1421 082e 02       		.byte	0x2
ARM GAS  C:\Users\jenny\AppData\Local\Temp\cc0jcio7.s 			page 26


 1422 082f 74       		.byte	0x74
 1423 0830 00       		.sleb128 0
 1424 0831 00       		.byte	0
 1425 0832 23       		.uleb128 0x23
 1426 0833 32000000 		.4byte	.LVL26
 1427 0837 C5090000 		.4byte	0x9c5
 1428 083b 1E       		.uleb128 0x1e
 1429 083c 01       		.byte	0x1
 1430 083d 51       		.byte	0x51
 1431 083e 01       		.byte	0x1
 1432 083f 30       		.byte	0x30
 1433 0840 1E       		.uleb128 0x1e
 1434 0841 01       		.byte	0x1
 1435 0842 50       		.byte	0x50
 1436 0843 02       		.byte	0x2
 1437 0844 74       		.byte	0x74
 1438 0845 00       		.sleb128 0
 1439 0846 00       		.byte	0
 1440 0847 00       		.byte	0
 1441 0848 20       		.uleb128 0x20
 1442 0849 01       		.byte	0x1
 1443 084a 56010000 		.4byte	.LASF81
 1444 084e 01       		.byte	0x1
 1445 084f B3       		.byte	0xb3
 1446 0850 01       		.byte	0x1
 1447 0851 5A020000 		.4byte	0x25a
 1448 0855 00000000 		.4byte	.LFB10
 1449 0859 44000000 		.4byte	.LFE10
 1450 085d F4010000 		.4byte	.LLST15
 1451 0861 01       		.byte	0x1
 1452 0862 48090000 		.4byte	0x948
 1453 0866 1B       		.uleb128 0x1b
 1454 0867 6D7000   		.ascii	"mp\000"
 1455 086a 01       		.byte	0x1
 1456 086b B3       		.byte	0xb3
 1457 086c 48090000 		.4byte	0x948
 1458 0870 20020000 		.4byte	.LLST16
 1459 0874 21       		.uleb128 0x21
 1460 0875 43020000 		.4byte	.LASF80
 1461 0879 01       		.byte	0x1
 1462 087a B3       		.byte	0xb3
 1463 087b D9000000 		.4byte	0xd9
 1464 087f 3E020000 		.4byte	.LLST17
 1465 0883 1B       		.uleb128 0x1b
 1466 0884 706600   		.ascii	"pf\000"
 1467 0887 01       		.byte	0x1
 1468 0888 B4       		.byte	0xb4
 1469 0889 18060000 		.4byte	0x618
 1470 088d 5C020000 		.4byte	.LLST18
 1471 0891 1B       		.uleb128 0x1b
 1472 0892 61726700 		.ascii	"arg\000"
 1473 0896 01       		.byte	0x1
 1474 0897 B4       		.byte	0xb4
 1475 0898 98020000 		.4byte	0x298
 1476 089c 7A020000 		.4byte	.LLST19
 1477 08a0 18       		.uleb128 0x18
 1478 08a1 77737000 		.ascii	"wsp\000"
ARM GAS  C:\Users\jenny\AppData\Local\Temp\cc0jcio7.s 			page 27


 1479 08a5 01       		.byte	0x1
 1480 08a6 B5       		.byte	0xb5
 1481 08a7 98020000 		.4byte	0x298
 1482 08ab 98020000 		.4byte	.LLST20
 1483 08af 18       		.uleb128 0x18
 1484 08b0 747000   		.ascii	"tp\000"
 1485 08b3 01       		.byte	0x1
 1486 08b4 B6       		.byte	0xb6
 1487 08b5 5A020000 		.4byte	0x25a
 1488 08b9 B6020000 		.4byte	.LLST21
 1489 08bd 17       		.uleb128 0x17
 1490 08be 16000000 		.4byte	.LBB8
 1491 08c2 1C000000 		.4byte	.LBE8
 1492 08c6 DA080000 		.4byte	0x8da
 1493 08ca 18       		.uleb128 0x18
 1494 08cb 746D7000 		.ascii	"tmp\000"
 1495 08cf 01       		.byte	0x1
 1496 08d0 C7       		.byte	0xc7
 1497 08d1 7B000000 		.4byte	0x7b
 1498 08d5 D4020000 		.4byte	.LLST22
 1499 08d9 00       		.byte	0
 1500 08da 17       		.uleb128 0x17
 1501 08db 36000000 		.4byte	.LBB9
 1502 08df 3C000000 		.4byte	.LBE9
 1503 08e3 F7080000 		.4byte	0x8f7
 1504 08e7 18       		.uleb128 0x18
 1505 08e8 746D7000 		.ascii	"tmp\000"
 1506 08ec 01       		.byte	0x1
 1507 08ed CC       		.byte	0xcc
 1508 08ee 7B000000 		.4byte	0x7b
 1509 08f2 E7020000 		.4byte	.LLST23
 1510 08f6 00       		.byte	0
 1511 08f7 22       		.uleb128 0x22
 1512 08f8 12000000 		.4byte	.LVL30
 1513 08fc DE090000 		.4byte	0x9de
 1514 0900 0B090000 		.4byte	0x90b
 1515 0904 1E       		.uleb128 0x1e
 1516 0905 01       		.byte	0x1
 1517 0906 50       		.byte	0x50
 1518 0907 02       		.byte	0x2
 1519 0908 75       		.byte	0x75
 1520 0909 00       		.sleb128 0
 1521 090a 00       		.byte	0
 1522 090b 22       		.uleb128 0x22
 1523 090c 28000000 		.4byte	.LVL34
 1524 0910 98090000 		.4byte	0x998
 1525 0914 32090000 		.4byte	0x932
 1526 0918 1E       		.uleb128 0x1e
 1527 0919 01       		.byte	0x1
 1528 091a 53       		.byte	0x53
 1529 091b 02       		.byte	0x2
 1530 091c 78       		.byte	0x78
 1531 091d 00       		.sleb128 0
 1532 091e 1E       		.uleb128 0x1e
 1533 091f 01       		.byte	0x1
 1534 0920 52       		.byte	0x52
 1535 0921 02       		.byte	0x2
ARM GAS  C:\Users\jenny\AppData\Local\Temp\cc0jcio7.s 			page 28


 1536 0922 76       		.byte	0x76
 1537 0923 00       		.sleb128 0
 1538 0924 1E       		.uleb128 0x1e
 1539 0925 01       		.byte	0x1
 1540 0926 50       		.byte	0x50
 1541 0927 02       		.byte	0x2
 1542 0928 74       		.byte	0x74
 1543 0929 00       		.sleb128 0
 1544 092a 1E       		.uleb128 0x1e
 1545 092b 02       		.byte	0x2
 1546 092c 7D       		.byte	0x7d
 1547 092d 00       		.sleb128 0
 1548 092e 02       		.byte	0x2
 1549 092f 77       		.byte	0x77
 1550 0930 00       		.sleb128 0
 1551 0931 00       		.byte	0
 1552 0932 23       		.uleb128 0x23
 1553 0933 36000000 		.4byte	.LVL36
 1554 0937 C5090000 		.4byte	0x9c5
 1555 093b 1E       		.uleb128 0x1e
 1556 093c 01       		.byte	0x1
 1557 093d 51       		.byte	0x51
 1558 093e 01       		.byte	0x1
 1559 093f 30       		.byte	0x30
 1560 0940 1E       		.uleb128 0x1e
 1561 0941 01       		.byte	0x1
 1562 0942 50       		.byte	0x50
 1563 0943 02       		.byte	0x2
 1564 0944 74       		.byte	0x74
 1565 0945 00       		.sleb128 0
 1566 0946 00       		.byte	0
 1567 0947 00       		.byte	0
 1568 0948 09       		.uleb128 0x9
 1569 0949 04       		.byte	0x4
 1570 094a C0050000 		.4byte	0x5c0
 1571 094e 24       		.uleb128 0x24
 1572 094f 01       		.byte	0x1
 1573 0950 95030000 		.4byte	.LASF82
 1574 0954 0B       		.byte	0xb
 1575 0955 84       		.byte	0x84
 1576 0956 01       		.byte	0x1
 1577 0957 01       		.byte	0x1
 1578 0958 67090000 		.4byte	0x967
 1579 095c 0F       		.uleb128 0xf
 1580 095d 48090000 		.4byte	0x948
 1581 0961 0F       		.uleb128 0xf
 1582 0962 98020000 		.4byte	0x298
 1583 0966 00       		.byte	0
 1584 0967 24       		.uleb128 0x24
 1585 0968 01       		.byte	0x1
 1586 0969 BD000000 		.4byte	.LASF83
 1587 096d 0A       		.byte	0xa
 1588 096e 5A       		.byte	0x5a
 1589 096f 01       		.byte	0x1
 1590 0970 01       		.byte	0x1
 1591 0971 7B090000 		.4byte	0x97b
 1592 0975 0F       		.uleb128 0xf
ARM GAS  C:\Users\jenny\AppData\Local\Temp\cc0jcio7.s 			page 29


 1593 0976 98020000 		.4byte	0x298
 1594 097a 00       		.byte	0
 1595 097b 25       		.uleb128 0x25
 1596 097c 01       		.byte	0x1
 1597 097d FA020000 		.4byte	.LASF84
 1598 0981 0A       		.byte	0xa
 1599 0982 59       		.byte	0x59
 1600 0983 01       		.byte	0x1
 1601 0984 98020000 		.4byte	0x298
 1602 0988 01       		.byte	0x1
 1603 0989 98090000 		.4byte	0x998
 1604 098d 0F       		.uleb128 0xf
 1605 098e 43050000 		.4byte	0x543
 1606 0992 0F       		.uleb128 0xf
 1607 0993 30000000 		.4byte	0x30
 1608 0997 00       		.byte	0
 1609 0998 26       		.uleb128 0x26
 1610 0999 01       		.byte	0x1
 1611 099a D2000000 		.4byte	.LASF85
 1612 099e 06       		.byte	0x6
 1613 099f 6E01     		.2byte	0x16e
 1614 09a1 01       		.byte	0x1
 1615 09a2 5A020000 		.4byte	0x25a
 1616 09a6 01       		.byte	0x1
 1617 09a7 C5090000 		.4byte	0x9c5
 1618 09ab 0F       		.uleb128 0xf
 1619 09ac 98020000 		.4byte	0x298
 1620 09b0 0F       		.uleb128 0xf
 1621 09b1 30000000 		.4byte	0x30
 1622 09b5 0F       		.uleb128 0xf
 1623 09b6 D9000000 		.4byte	0xd9
 1624 09ba 0F       		.uleb128 0xf
 1625 09bb 18060000 		.4byte	0x618
 1626 09bf 0F       		.uleb128 0xf
 1627 09c0 98020000 		.4byte	0x298
 1628 09c4 00       		.byte	0
 1629 09c5 24       		.uleb128 0x24
 1630 09c6 01       		.byte	0x1
 1631 09c7 61030000 		.4byte	.LASF86
 1632 09cb 0C       		.byte	0xc
 1633 09cc 99       		.byte	0x99
 1634 09cd 01       		.byte	0x1
 1635 09ce 01       		.byte	0x1
 1636 09cf DE090000 		.4byte	0x9de
 1637 09d3 0F       		.uleb128 0xf
 1638 09d4 5A020000 		.4byte	0x25a
 1639 09d8 0F       		.uleb128 0xf
 1640 09d9 E4000000 		.4byte	0xe4
 1641 09dd 00       		.byte	0
 1642 09de 27       		.uleb128 0x27
 1643 09df 01       		.byte	0x1
 1644 09e0 89030000 		.4byte	.LASF87
 1645 09e4 0B       		.byte	0xb
 1646 09e5 82       		.byte	0x82
 1647 09e6 01       		.byte	0x1
 1648 09e7 98020000 		.4byte	0x298
 1649 09eb 01       		.byte	0x1
ARM GAS  C:\Users\jenny\AppData\Local\Temp\cc0jcio7.s 			page 30


 1650 09ec 0F       		.uleb128 0xf
 1651 09ed 48090000 		.4byte	0x948
 1652 09f1 00       		.byte	0
 1653 09f2 00       		.byte	0
 1654              		.section	.debug_abbrev,"",%progbits
 1655              	.Ldebug_abbrev0:
 1656 0000 01       		.uleb128 0x1
 1657 0001 11       		.uleb128 0x11
 1658 0002 01       		.byte	0x1
 1659 0003 25       		.uleb128 0x25
 1660 0004 0E       		.uleb128 0xe
 1661 0005 13       		.uleb128 0x13
 1662 0006 0B       		.uleb128 0xb
 1663 0007 03       		.uleb128 0x3
 1664 0008 0E       		.uleb128 0xe
 1665 0009 1B       		.uleb128 0x1b
 1666 000a 0E       		.uleb128 0xe
 1667 000b 55       		.uleb128 0x55
 1668 000c 06       		.uleb128 0x6
 1669 000d 11       		.uleb128 0x11
 1670 000e 01       		.uleb128 0x1
 1671 000f 52       		.uleb128 0x52
 1672 0010 01       		.uleb128 0x1
 1673 0011 10       		.uleb128 0x10
 1674 0012 06       		.uleb128 0x6
 1675 0013 00       		.byte	0
 1676 0014 00       		.byte	0
 1677 0015 02       		.uleb128 0x2
 1678 0016 24       		.uleb128 0x24
 1679 0017 00       		.byte	0
 1680 0018 0B       		.uleb128 0xb
 1681 0019 0B       		.uleb128 0xb
 1682 001a 3E       		.uleb128 0x3e
 1683 001b 0B       		.uleb128 0xb
 1684 001c 03       		.uleb128 0x3
 1685 001d 08       		.uleb128 0x8
 1686 001e 00       		.byte	0
 1687 001f 00       		.byte	0
 1688 0020 03       		.uleb128 0x3
 1689 0021 16       		.uleb128 0x16
 1690 0022 00       		.byte	0
 1691 0023 03       		.uleb128 0x3
 1692 0024 0E       		.uleb128 0xe
 1693 0025 3A       		.uleb128 0x3a
 1694 0026 0B       		.uleb128 0xb
 1695 0027 3B       		.uleb128 0x3b
 1696 0028 0B       		.uleb128 0xb
 1697 0029 49       		.uleb128 0x49
 1698 002a 13       		.uleb128 0x13
 1699 002b 00       		.byte	0
 1700 002c 00       		.byte	0
 1701 002d 04       		.uleb128 0x4
 1702 002e 24       		.uleb128 0x24
 1703 002f 00       		.byte	0
 1704 0030 0B       		.uleb128 0xb
 1705 0031 0B       		.uleb128 0xb
 1706 0032 3E       		.uleb128 0x3e
ARM GAS  C:\Users\jenny\AppData\Local\Temp\cc0jcio7.s 			page 31


 1707 0033 0B       		.uleb128 0xb
 1708 0034 03       		.uleb128 0x3
 1709 0035 0E       		.uleb128 0xe
 1710 0036 00       		.byte	0
 1711 0037 00       		.byte	0
 1712 0038 05       		.uleb128 0x5
 1713 0039 13       		.uleb128 0x13
 1714 003a 01       		.byte	0x1
 1715 003b 03       		.uleb128 0x3
 1716 003c 0E       		.uleb128 0xe
 1717 003d 0B       		.uleb128 0xb
 1718 003e 0B       		.uleb128 0xb
 1719 003f 3A       		.uleb128 0x3a
 1720 0040 0B       		.uleb128 0xb
 1721 0041 3B       		.uleb128 0x3b
 1722 0042 0B       		.uleb128 0xb
 1723 0043 01       		.uleb128 0x1
 1724 0044 13       		.uleb128 0x13
 1725 0045 00       		.byte	0
 1726 0046 00       		.byte	0
 1727 0047 06       		.uleb128 0x6
 1728 0048 0D       		.uleb128 0xd
 1729 0049 00       		.byte	0
 1730 004a 03       		.uleb128 0x3
 1731 004b 0E       		.uleb128 0xe
 1732 004c 3A       		.uleb128 0x3a
 1733 004d 0B       		.uleb128 0xb
 1734 004e 3B       		.uleb128 0x3b
 1735 004f 0B       		.uleb128 0xb
 1736 0050 49       		.uleb128 0x49
 1737 0051 13       		.uleb128 0x13
 1738 0052 38       		.uleb128 0x38
 1739 0053 0A       		.uleb128 0xa
 1740 0054 00       		.byte	0
 1741 0055 00       		.byte	0
 1742 0056 07       		.uleb128 0x7
 1743 0057 0D       		.uleb128 0xd
 1744 0058 00       		.byte	0
 1745 0059 03       		.uleb128 0x3
 1746 005a 08       		.uleb128 0x8
 1747 005b 3A       		.uleb128 0x3a
 1748 005c 0B       		.uleb128 0xb
 1749 005d 3B       		.uleb128 0x3b
 1750 005e 0B       		.uleb128 0xb
 1751 005f 49       		.uleb128 0x49
 1752 0060 13       		.uleb128 0x13
 1753 0061 38       		.uleb128 0x38
 1754 0062 0A       		.uleb128 0xa
 1755 0063 00       		.byte	0
 1756 0064 00       		.byte	0
 1757 0065 08       		.uleb128 0x8
 1758 0066 13       		.uleb128 0x13
 1759 0067 01       		.byte	0x1
 1760 0068 0B       		.uleb128 0xb
 1761 0069 0B       		.uleb128 0xb
 1762 006a 3A       		.uleb128 0x3a
 1763 006b 0B       		.uleb128 0xb
ARM GAS  C:\Users\jenny\AppData\Local\Temp\cc0jcio7.s 			page 32


 1764 006c 3B       		.uleb128 0x3b
 1765 006d 0B       		.uleb128 0xb
 1766 006e 01       		.uleb128 0x1
 1767 006f 13       		.uleb128 0x13
 1768 0070 00       		.byte	0
 1769 0071 00       		.byte	0
 1770 0072 09       		.uleb128 0x9
 1771 0073 0F       		.uleb128 0xf
 1772 0074 00       		.byte	0
 1773 0075 0B       		.uleb128 0xb
 1774 0076 0B       		.uleb128 0xb
 1775 0077 49       		.uleb128 0x49
 1776 0078 13       		.uleb128 0x13
 1777 0079 00       		.byte	0
 1778 007a 00       		.byte	0
 1779 007b 0A       		.uleb128 0xa
 1780 007c 0F       		.uleb128 0xf
 1781 007d 00       		.byte	0
 1782 007e 0B       		.uleb128 0xb
 1783 007f 0B       		.uleb128 0xb
 1784 0080 00       		.byte	0
 1785 0081 00       		.byte	0
 1786 0082 0B       		.uleb128 0xb
 1787 0083 13       		.uleb128 0x13
 1788 0084 01       		.byte	0x1
 1789 0085 03       		.uleb128 0x3
 1790 0086 0E       		.uleb128 0xe
 1791 0087 0B       		.uleb128 0xb
 1792 0088 0B       		.uleb128 0xb
 1793 0089 3A       		.uleb128 0x3a
 1794 008a 0B       		.uleb128 0xb
 1795 008b 3B       		.uleb128 0x3b
 1796 008c 05       		.uleb128 0x5
 1797 008d 01       		.uleb128 0x1
 1798 008e 13       		.uleb128 0x13
 1799 008f 00       		.byte	0
 1800 0090 00       		.byte	0
 1801 0091 0C       		.uleb128 0xc
 1802 0092 0D       		.uleb128 0xd
 1803 0093 00       		.byte	0
 1804 0094 03       		.uleb128 0x3
 1805 0095 08       		.uleb128 0x8
 1806 0096 3A       		.uleb128 0x3a
 1807 0097 0B       		.uleb128 0xb
 1808 0098 3B       		.uleb128 0x3b
 1809 0099 05       		.uleb128 0x5
 1810 009a 49       		.uleb128 0x49
 1811 009b 13       		.uleb128 0x13
 1812 009c 38       		.uleb128 0x38
 1813 009d 0A       		.uleb128 0xa
 1814 009e 00       		.byte	0
 1815 009f 00       		.byte	0
 1816 00a0 0D       		.uleb128 0xd
 1817 00a1 35       		.uleb128 0x35
 1818 00a2 00       		.byte	0
 1819 00a3 49       		.uleb128 0x49
 1820 00a4 13       		.uleb128 0x13
ARM GAS  C:\Users\jenny\AppData\Local\Temp\cc0jcio7.s 			page 33


 1821 00a5 00       		.byte	0
 1822 00a6 00       		.byte	0
 1823 00a7 0E       		.uleb128 0xe
 1824 00a8 15       		.uleb128 0x15
 1825 00a9 01       		.byte	0x1
 1826 00aa 27       		.uleb128 0x27
 1827 00ab 0C       		.uleb128 0xc
 1828 00ac 49       		.uleb128 0x49
 1829 00ad 13       		.uleb128 0x13
 1830 00ae 01       		.uleb128 0x1
 1831 00af 13       		.uleb128 0x13
 1832 00b0 00       		.byte	0
 1833 00b1 00       		.byte	0
 1834 00b2 0F       		.uleb128 0xf
 1835 00b3 05       		.uleb128 0x5
 1836 00b4 00       		.byte	0
 1837 00b5 49       		.uleb128 0x49
 1838 00b6 13       		.uleb128 0x13
 1839 00b7 00       		.byte	0
 1840 00b8 00       		.byte	0
 1841 00b9 10       		.uleb128 0x10
 1842 00ba 17       		.uleb128 0x17
 1843 00bb 01       		.byte	0x1
 1844 00bc 0B       		.uleb128 0xb
 1845 00bd 0B       		.uleb128 0xb
 1846 00be 3A       		.uleb128 0x3a
 1847 00bf 0B       		.uleb128 0xb
 1848 00c0 3B       		.uleb128 0x3b
 1849 00c1 0B       		.uleb128 0xb
 1850 00c2 01       		.uleb128 0x1
 1851 00c3 13       		.uleb128 0x13
 1852 00c4 00       		.byte	0
 1853 00c5 00       		.byte	0
 1854 00c6 11       		.uleb128 0x11
 1855 00c7 0D       		.uleb128 0xd
 1856 00c8 00       		.byte	0
 1857 00c9 03       		.uleb128 0x3
 1858 00ca 0E       		.uleb128 0xe
 1859 00cb 3A       		.uleb128 0x3a
 1860 00cc 0B       		.uleb128 0xb
 1861 00cd 3B       		.uleb128 0x3b
 1862 00ce 0B       		.uleb128 0xb
 1863 00cf 49       		.uleb128 0x49
 1864 00d0 13       		.uleb128 0x13
 1865 00d1 00       		.byte	0
 1866 00d2 00       		.byte	0
 1867 00d3 12       		.uleb128 0x12
 1868 00d4 17       		.uleb128 0x17
 1869 00d5 01       		.byte	0x1
 1870 00d6 03       		.uleb128 0x3
 1871 00d7 0E       		.uleb128 0xe
 1872 00d8 0B       		.uleb128 0xb
 1873 00d9 0B       		.uleb128 0xb
 1874 00da 3A       		.uleb128 0x3a
 1875 00db 0B       		.uleb128 0xb
 1876 00dc 3B       		.uleb128 0x3b
 1877 00dd 0B       		.uleb128 0xb
ARM GAS  C:\Users\jenny\AppData\Local\Temp\cc0jcio7.s 			page 34


 1878 00de 01       		.uleb128 0x1
 1879 00df 13       		.uleb128 0x13
 1880 00e0 00       		.byte	0
 1881 00e1 00       		.byte	0
 1882 00e2 13       		.uleb128 0x13
 1883 00e3 0D       		.uleb128 0xd
 1884 00e4 00       		.byte	0
 1885 00e5 03       		.uleb128 0x3
 1886 00e6 08       		.uleb128 0x8
 1887 00e7 3A       		.uleb128 0x3a
 1888 00e8 0B       		.uleb128 0xb
 1889 00e9 3B       		.uleb128 0x3b
 1890 00ea 0B       		.uleb128 0xb
 1891 00eb 49       		.uleb128 0x49
 1892 00ec 13       		.uleb128 0x13
 1893 00ed 00       		.byte	0
 1894 00ee 00       		.byte	0
 1895 00ef 14       		.uleb128 0x14
 1896 00f0 26       		.uleb128 0x26
 1897 00f1 00       		.byte	0
 1898 00f2 49       		.uleb128 0x49
 1899 00f3 13       		.uleb128 0x13
 1900 00f4 00       		.byte	0
 1901 00f5 00       		.byte	0
 1902 00f6 15       		.uleb128 0x15
 1903 00f7 2E       		.uleb128 0x2e
 1904 00f8 01       		.byte	0x1
 1905 00f9 3F       		.uleb128 0x3f
 1906 00fa 0C       		.uleb128 0xc
 1907 00fb 03       		.uleb128 0x3
 1908 00fc 0E       		.uleb128 0xe
 1909 00fd 3A       		.uleb128 0x3a
 1910 00fe 0B       		.uleb128 0xb
 1911 00ff 3B       		.uleb128 0x3b
 1912 0100 0B       		.uleb128 0xb
 1913 0101 27       		.uleb128 0x27
 1914 0102 0C       		.uleb128 0xc
 1915 0103 49       		.uleb128 0x49
 1916 0104 13       		.uleb128 0x13
 1917 0105 11       		.uleb128 0x11
 1918 0106 01       		.uleb128 0x1
 1919 0107 12       		.uleb128 0x12
 1920 0108 01       		.uleb128 0x1
 1921 0109 40       		.uleb128 0x40
 1922 010a 0A       		.uleb128 0xa
 1923 010b 9742     		.uleb128 0x2117
 1924 010d 0C       		.uleb128 0xc
 1925 010e 01       		.uleb128 0x1
 1926 010f 13       		.uleb128 0x13
 1927 0110 00       		.byte	0
 1928 0111 00       		.byte	0
 1929 0112 16       		.uleb128 0x16
 1930 0113 05       		.uleb128 0x5
 1931 0114 00       		.byte	0
 1932 0115 03       		.uleb128 0x3
 1933 0116 08       		.uleb128 0x8
 1934 0117 3A       		.uleb128 0x3a
ARM GAS  C:\Users\jenny\AppData\Local\Temp\cc0jcio7.s 			page 35


 1935 0118 0B       		.uleb128 0xb
 1936 0119 3B       		.uleb128 0x3b
 1937 011a 0B       		.uleb128 0xb
 1938 011b 49       		.uleb128 0x49
 1939 011c 13       		.uleb128 0x13
 1940 011d 02       		.uleb128 0x2
 1941 011e 0A       		.uleb128 0xa
 1942 011f 00       		.byte	0
 1943 0120 00       		.byte	0
 1944 0121 17       		.uleb128 0x17
 1945 0122 0B       		.uleb128 0xb
 1946 0123 01       		.byte	0x1
 1947 0124 11       		.uleb128 0x11
 1948 0125 01       		.uleb128 0x1
 1949 0126 12       		.uleb128 0x12
 1950 0127 01       		.uleb128 0x1
 1951 0128 01       		.uleb128 0x1
 1952 0129 13       		.uleb128 0x13
 1953 012a 00       		.byte	0
 1954 012b 00       		.byte	0
 1955 012c 18       		.uleb128 0x18
 1956 012d 34       		.uleb128 0x34
 1957 012e 00       		.byte	0
 1958 012f 03       		.uleb128 0x3
 1959 0130 08       		.uleb128 0x8
 1960 0131 3A       		.uleb128 0x3a
 1961 0132 0B       		.uleb128 0xb
 1962 0133 3B       		.uleb128 0x3b
 1963 0134 0B       		.uleb128 0xb
 1964 0135 49       		.uleb128 0x49
 1965 0136 13       		.uleb128 0x13
 1966 0137 02       		.uleb128 0x2
 1967 0138 06       		.uleb128 0x6
 1968 0139 00       		.byte	0
 1969 013a 00       		.byte	0
 1970 013b 19       		.uleb128 0x19
 1971 013c 0B       		.uleb128 0xb
 1972 013d 01       		.byte	0x1
 1973 013e 11       		.uleb128 0x11
 1974 013f 01       		.uleb128 0x1
 1975 0140 12       		.uleb128 0x12
 1976 0141 01       		.uleb128 0x1
 1977 0142 00       		.byte	0
 1978 0143 00       		.byte	0
 1979 0144 1A       		.uleb128 0x1a
 1980 0145 2E       		.uleb128 0x2e
 1981 0146 01       		.byte	0x1
 1982 0147 3F       		.uleb128 0x3f
 1983 0148 0C       		.uleb128 0xc
 1984 0149 03       		.uleb128 0x3
 1985 014a 0E       		.uleb128 0xe
 1986 014b 3A       		.uleb128 0x3a
 1987 014c 0B       		.uleb128 0xb
 1988 014d 3B       		.uleb128 0x3b
 1989 014e 0B       		.uleb128 0xb
 1990 014f 27       		.uleb128 0x27
 1991 0150 0C       		.uleb128 0xc
ARM GAS  C:\Users\jenny\AppData\Local\Temp\cc0jcio7.s 			page 36


 1992 0151 11       		.uleb128 0x11
 1993 0152 01       		.uleb128 0x1
 1994 0153 12       		.uleb128 0x12
 1995 0154 01       		.uleb128 0x1
 1996 0155 40       		.uleb128 0x40
 1997 0156 0A       		.uleb128 0xa
 1998 0157 9742     		.uleb128 0x2117
 1999 0159 0C       		.uleb128 0xc
 2000 015a 01       		.uleb128 0x1
 2001 015b 13       		.uleb128 0x13
 2002 015c 00       		.byte	0
 2003 015d 00       		.byte	0
 2004 015e 1B       		.uleb128 0x1b
 2005 015f 05       		.uleb128 0x5
 2006 0160 00       		.byte	0
 2007 0161 03       		.uleb128 0x3
 2008 0162 08       		.uleb128 0x8
 2009 0163 3A       		.uleb128 0x3a
 2010 0164 0B       		.uleb128 0xb
 2011 0165 3B       		.uleb128 0x3b
 2012 0166 0B       		.uleb128 0xb
 2013 0167 49       		.uleb128 0x49
 2014 0168 13       		.uleb128 0x13
 2015 0169 02       		.uleb128 0x2
 2016 016a 06       		.uleb128 0x6
 2017 016b 00       		.byte	0
 2018 016c 00       		.byte	0
 2019 016d 1C       		.uleb128 0x1c
 2020 016e 34       		.uleb128 0x34
 2021 016f 00       		.byte	0
 2022 0170 03       		.uleb128 0x3
 2023 0171 0E       		.uleb128 0xe
 2024 0172 3A       		.uleb128 0x3a
 2025 0173 0B       		.uleb128 0xb
 2026 0174 3B       		.uleb128 0x3b
 2027 0175 0B       		.uleb128 0xb
 2028 0176 49       		.uleb128 0x49
 2029 0177 13       		.uleb128 0x13
 2030 0178 02       		.uleb128 0x2
 2031 0179 06       		.uleb128 0x6
 2032 017a 00       		.byte	0
 2033 017b 00       		.byte	0
 2034 017c 1D       		.uleb128 0x1d
 2035 017d 898201   		.uleb128 0x4109
 2036 0180 01       		.byte	0x1
 2037 0181 11       		.uleb128 0x11
 2038 0182 01       		.uleb128 0x1
 2039 0183 9542     		.uleb128 0x2115
 2040 0185 0C       		.uleb128 0xc
 2041 0186 31       		.uleb128 0x31
 2042 0187 13       		.uleb128 0x13
 2043 0188 01       		.uleb128 0x1
 2044 0189 13       		.uleb128 0x13
 2045 018a 00       		.byte	0
 2046 018b 00       		.byte	0
 2047 018c 1E       		.uleb128 0x1e
 2048 018d 8A8201   		.uleb128 0x410a
ARM GAS  C:\Users\jenny\AppData\Local\Temp\cc0jcio7.s 			page 37


 2049 0190 00       		.byte	0
 2050 0191 02       		.uleb128 0x2
 2051 0192 0A       		.uleb128 0xa
 2052 0193 9142     		.uleb128 0x2111
 2053 0195 0A       		.uleb128 0xa
 2054 0196 00       		.byte	0
 2055 0197 00       		.byte	0
 2056 0198 1F       		.uleb128 0x1f
 2057 0199 898201   		.uleb128 0x4109
 2058 019c 01       		.byte	0x1
 2059 019d 11       		.uleb128 0x11
 2060 019e 01       		.uleb128 0x1
 2061 019f 9542     		.uleb128 0x2115
 2062 01a1 0C       		.uleb128 0xc
 2063 01a2 31       		.uleb128 0x31
 2064 01a3 13       		.uleb128 0x13
 2065 01a4 00       		.byte	0
 2066 01a5 00       		.byte	0
 2067 01a6 20       		.uleb128 0x20
 2068 01a7 2E       		.uleb128 0x2e
 2069 01a8 01       		.byte	0x1
 2070 01a9 3F       		.uleb128 0x3f
 2071 01aa 0C       		.uleb128 0xc
 2072 01ab 03       		.uleb128 0x3
 2073 01ac 0E       		.uleb128 0xe
 2074 01ad 3A       		.uleb128 0x3a
 2075 01ae 0B       		.uleb128 0xb
 2076 01af 3B       		.uleb128 0x3b
 2077 01b0 0B       		.uleb128 0xb
 2078 01b1 27       		.uleb128 0x27
 2079 01b2 0C       		.uleb128 0xc
 2080 01b3 49       		.uleb128 0x49
 2081 01b4 13       		.uleb128 0x13
 2082 01b5 11       		.uleb128 0x11
 2083 01b6 01       		.uleb128 0x1
 2084 01b7 12       		.uleb128 0x12
 2085 01b8 01       		.uleb128 0x1
 2086 01b9 40       		.uleb128 0x40
 2087 01ba 06       		.uleb128 0x6
 2088 01bb 9742     		.uleb128 0x2117
 2089 01bd 0C       		.uleb128 0xc
 2090 01be 01       		.uleb128 0x1
 2091 01bf 13       		.uleb128 0x13
 2092 01c0 00       		.byte	0
 2093 01c1 00       		.byte	0
 2094 01c2 21       		.uleb128 0x21
 2095 01c3 05       		.uleb128 0x5
 2096 01c4 00       		.byte	0
 2097 01c5 03       		.uleb128 0x3
 2098 01c6 0E       		.uleb128 0xe
 2099 01c7 3A       		.uleb128 0x3a
 2100 01c8 0B       		.uleb128 0xb
 2101 01c9 3B       		.uleb128 0x3b
 2102 01ca 0B       		.uleb128 0xb
 2103 01cb 49       		.uleb128 0x49
 2104 01cc 13       		.uleb128 0x13
 2105 01cd 02       		.uleb128 0x2
ARM GAS  C:\Users\jenny\AppData\Local\Temp\cc0jcio7.s 			page 38


 2106 01ce 06       		.uleb128 0x6
 2107 01cf 00       		.byte	0
 2108 01d0 00       		.byte	0
 2109 01d1 22       		.uleb128 0x22
 2110 01d2 898201   		.uleb128 0x4109
 2111 01d5 01       		.byte	0x1
 2112 01d6 11       		.uleb128 0x11
 2113 01d7 01       		.uleb128 0x1
 2114 01d8 31       		.uleb128 0x31
 2115 01d9 13       		.uleb128 0x13
 2116 01da 01       		.uleb128 0x1
 2117 01db 13       		.uleb128 0x13
 2118 01dc 00       		.byte	0
 2119 01dd 00       		.byte	0
 2120 01de 23       		.uleb128 0x23
 2121 01df 898201   		.uleb128 0x4109
 2122 01e2 01       		.byte	0x1
 2123 01e3 11       		.uleb128 0x11
 2124 01e4 01       		.uleb128 0x1
 2125 01e5 31       		.uleb128 0x31
 2126 01e6 13       		.uleb128 0x13
 2127 01e7 00       		.byte	0
 2128 01e8 00       		.byte	0
 2129 01e9 24       		.uleb128 0x24
 2130 01ea 2E       		.uleb128 0x2e
 2131 01eb 01       		.byte	0x1
 2132 01ec 3F       		.uleb128 0x3f
 2133 01ed 0C       		.uleb128 0xc
 2134 01ee 03       		.uleb128 0x3
 2135 01ef 0E       		.uleb128 0xe
 2136 01f0 3A       		.uleb128 0x3a
 2137 01f1 0B       		.uleb128 0xb
 2138 01f2 3B       		.uleb128 0x3b
 2139 01f3 0B       		.uleb128 0xb
 2140 01f4 27       		.uleb128 0x27
 2141 01f5 0C       		.uleb128 0xc
 2142 01f6 3C       		.uleb128 0x3c
 2143 01f7 0C       		.uleb128 0xc
 2144 01f8 01       		.uleb128 0x1
 2145 01f9 13       		.uleb128 0x13
 2146 01fa 00       		.byte	0
 2147 01fb 00       		.byte	0
 2148 01fc 25       		.uleb128 0x25
 2149 01fd 2E       		.uleb128 0x2e
 2150 01fe 01       		.byte	0x1
 2151 01ff 3F       		.uleb128 0x3f
 2152 0200 0C       		.uleb128 0xc
 2153 0201 03       		.uleb128 0x3
 2154 0202 0E       		.uleb128 0xe
 2155 0203 3A       		.uleb128 0x3a
 2156 0204 0B       		.uleb128 0xb
 2157 0205 3B       		.uleb128 0x3b
 2158 0206 0B       		.uleb128 0xb
 2159 0207 27       		.uleb128 0x27
 2160 0208 0C       		.uleb128 0xc
 2161 0209 49       		.uleb128 0x49
 2162 020a 13       		.uleb128 0x13
ARM GAS  C:\Users\jenny\AppData\Local\Temp\cc0jcio7.s 			page 39


 2163 020b 3C       		.uleb128 0x3c
 2164 020c 0C       		.uleb128 0xc
 2165 020d 01       		.uleb128 0x1
 2166 020e 13       		.uleb128 0x13
 2167 020f 00       		.byte	0
 2168 0210 00       		.byte	0
 2169 0211 26       		.uleb128 0x26
 2170 0212 2E       		.uleb128 0x2e
 2171 0213 01       		.byte	0x1
 2172 0214 3F       		.uleb128 0x3f
 2173 0215 0C       		.uleb128 0xc
 2174 0216 03       		.uleb128 0x3
 2175 0217 0E       		.uleb128 0xe
 2176 0218 3A       		.uleb128 0x3a
 2177 0219 0B       		.uleb128 0xb
 2178 021a 3B       		.uleb128 0x3b
 2179 021b 05       		.uleb128 0x5
 2180 021c 27       		.uleb128 0x27
 2181 021d 0C       		.uleb128 0xc
 2182 021e 49       		.uleb128 0x49
 2183 021f 13       		.uleb128 0x13
 2184 0220 3C       		.uleb128 0x3c
 2185 0221 0C       		.uleb128 0xc
 2186 0222 01       		.uleb128 0x1
 2187 0223 13       		.uleb128 0x13
 2188 0224 00       		.byte	0
 2189 0225 00       		.byte	0
 2190 0226 27       		.uleb128 0x27
 2191 0227 2E       		.uleb128 0x2e
 2192 0228 01       		.byte	0x1
 2193 0229 3F       		.uleb128 0x3f
 2194 022a 0C       		.uleb128 0xc
 2195 022b 03       		.uleb128 0x3
 2196 022c 0E       		.uleb128 0xe
 2197 022d 3A       		.uleb128 0x3a
 2198 022e 0B       		.uleb128 0xb
 2199 022f 3B       		.uleb128 0x3b
 2200 0230 0B       		.uleb128 0xb
 2201 0231 27       		.uleb128 0x27
 2202 0232 0C       		.uleb128 0xc
 2203 0233 49       		.uleb128 0x49
 2204 0234 13       		.uleb128 0x13
 2205 0235 3C       		.uleb128 0x3c
 2206 0236 0C       		.uleb128 0xc
 2207 0237 00       		.byte	0
 2208 0238 00       		.byte	0
 2209 0239 00       		.byte	0
 2210              		.section	.debug_loc,"",%progbits
 2211              	.Ldebug_loc0:
 2212              	.LLST0:
 2213 0000 06000000 		.4byte	.LVL2
 2214 0004 08000000 		.4byte	.LVL3
 2215 0008 0100     		.2byte	0x1
 2216 000a 53       		.byte	0x53
 2217 000b 00000000 		.4byte	0
 2218 000f 00000000 		.4byte	0
 2219              	.LLST1:
ARM GAS  C:\Users\jenny\AppData\Local\Temp\cc0jcio7.s 			page 40


 2220 0013 12000000 		.4byte	.LVL5
 2221 0017 14000000 		.4byte	.LFE7
 2222 001b 0100     		.2byte	0x1
 2223 001d 53       		.byte	0x53
 2224 001e 00000000 		.4byte	0
 2225 0022 00000000 		.4byte	0
 2226              	.LLST2:
 2227 0026 00000000 		.4byte	.LVL6
 2228 002a 34000000 		.4byte	.LVL16
 2229 002e 0100     		.2byte	0x1
 2230 0030 50       		.byte	0x50
 2231 0031 34000000 		.4byte	.LVL16
 2232 0035 3D000000 		.4byte	.LVL17-1
 2233 0039 0100     		.2byte	0x1
 2234 003b 51       		.byte	0x51
 2235 003c 3D000000 		.4byte	.LVL17-1
 2236 0040 3E000000 		.4byte	.LVL17
 2237 0044 0400     		.2byte	0x4
 2238 0046 F3       		.byte	0xf3
 2239 0047 01       		.uleb128 0x1
 2240 0048 50       		.byte	0x50
 2241 0049 9F       		.byte	0x9f
 2242 004a 3E000000 		.4byte	.LVL17
 2243 004e 4B000000 		.4byte	.LVL18-1
 2244 0052 0100     		.2byte	0x1
 2245 0054 50       		.byte	0x50
 2246 0055 4B000000 		.4byte	.LVL18-1
 2247 0059 4C000000 		.4byte	.LFE8
 2248 005d 0400     		.2byte	0x4
 2249 005f F3       		.byte	0xf3
 2250 0060 01       		.uleb128 0x1
 2251 0061 50       		.byte	0x50
 2252 0062 9F       		.byte	0x9f
 2253 0063 00000000 		.4byte	0
 2254 0067 00000000 		.4byte	0
 2255              	.LLST3:
 2256 006b 10000000 		.4byte	.LVL10
 2257 006f 12000000 		.4byte	.LVL11
 2258 0073 0100     		.2byte	0x1
 2259 0075 53       		.byte	0x53
 2260 0076 12000000 		.4byte	.LVL11
 2261 007a 1E000000 		.4byte	.LVL14
 2262 007e 0100     		.2byte	0x1
 2263 0080 52       		.byte	0x52
 2264 0081 1E000000 		.4byte	.LVL14
 2265 0085 34000000 		.4byte	.LVL16
 2266 0089 0A00     		.2byte	0xa
 2267 008b 70       		.byte	0x70
 2268 008c 1E       		.sleb128 30
 2269 008d 94       		.byte	0x94
 2270 008e 01       		.byte	0x1
 2271 008f 08       		.byte	0x8
 2272 0090 FF       		.byte	0xff
 2273 0091 1A       		.byte	0x1a
 2274 0092 31       		.byte	0x31
 2275 0093 1C       		.byte	0x1c
 2276 0094 9F       		.byte	0x9f
ARM GAS  C:\Users\jenny\AppData\Local\Temp\cc0jcio7.s 			page 41


 2277 0095 34000000 		.4byte	.LVL16
 2278 0099 3D000000 		.4byte	.LVL17-1
 2279 009d 0A00     		.2byte	0xa
 2280 009f 71       		.byte	0x71
 2281 00a0 1E       		.sleb128 30
 2282 00a1 94       		.byte	0x94
 2283 00a2 01       		.byte	0x1
 2284 00a3 08       		.byte	0x8
 2285 00a4 FF       		.byte	0xff
 2286 00a5 1A       		.byte	0x1a
 2287 00a6 31       		.byte	0x31
 2288 00a7 1C       		.byte	0x1c
 2289 00a8 9F       		.byte	0x9f
 2290 00a9 3E000000 		.4byte	.LVL17
 2291 00ad 4B000000 		.4byte	.LVL18-1
 2292 00b1 0A00     		.2byte	0xa
 2293 00b3 70       		.byte	0x70
 2294 00b4 1E       		.sleb128 30
 2295 00b5 94       		.byte	0x94
 2296 00b6 01       		.byte	0x1
 2297 00b7 08       		.byte	0x8
 2298 00b8 FF       		.byte	0xff
 2299 00b9 1A       		.byte	0x1a
 2300 00ba 31       		.byte	0x31
 2301 00bb 1C       		.byte	0x1c
 2302 00bc 9F       		.byte	0x9f
 2303 00bd 00000000 		.4byte	0
 2304 00c1 00000000 		.4byte	0
 2305              	.LLST4:
 2306 00c5 08000000 		.4byte	.LVL8
 2307 00c9 0C000000 		.4byte	.LVL9
 2308 00cd 0100     		.2byte	0x1
 2309 00cf 53       		.byte	0x53
 2310 00d0 00000000 		.4byte	0
 2311 00d4 00000000 		.4byte	0
 2312              	.LLST5:
 2313 00d8 16000000 		.4byte	.LVL12
 2314 00dc 1A000000 		.4byte	.LVL13
 2315 00e0 0100     		.2byte	0x1
 2316 00e2 53       		.byte	0x53
 2317 00e3 1E000000 		.4byte	.LVL14
 2318 00e7 20000000 		.4byte	.LVL15
 2319 00eb 0100     		.2byte	0x1
 2320 00ed 53       		.byte	0x53
 2321 00ee 00000000 		.4byte	0
 2322 00f2 00000000 		.4byte	0
 2323              	.LLST6:
 2324 00f6 00000000 		.4byte	.LFB9
 2325 00fa 02000000 		.4byte	.LCFI0
 2326 00fe 0200     		.2byte	0x2
 2327 0100 7D       		.byte	0x7d
 2328 0101 00       		.sleb128 0
 2329 0102 02000000 		.4byte	.LCFI0
 2330 0106 04000000 		.4byte	.LCFI1
 2331 010a 0200     		.2byte	0x2
 2332 010c 7D       		.byte	0x7d
 2333 010d 14       		.sleb128 20
ARM GAS  C:\Users\jenny\AppData\Local\Temp\cc0jcio7.s 			page 42


 2334 010e 04000000 		.4byte	.LCFI1
 2335 0112 3E000000 		.4byte	.LFE9
 2336 0116 0200     		.2byte	0x2
 2337 0118 7D       		.byte	0x7d
 2338 0119 20       		.sleb128 32
 2339 011a 00000000 		.4byte	0
 2340 011e 00000000 		.4byte	0
 2341              	.LLST7:
 2342 0122 00000000 		.4byte	.LVL19
 2343 0126 0D000000 		.4byte	.LVL20-1
 2344 012a 0100     		.2byte	0x1
 2345 012c 50       		.byte	0x50
 2346 012d 0D000000 		.4byte	.LVL20-1
 2347 0131 3E000000 		.4byte	.LFE9
 2348 0135 0400     		.2byte	0x4
 2349 0137 F3       		.byte	0xf3
 2350 0138 01       		.uleb128 0x1
 2351 0139 50       		.byte	0x50
 2352 013a 9F       		.byte	0x9f
 2353 013b 00000000 		.4byte	0
 2354 013f 00000000 		.4byte	0
 2355              	.LLST8:
 2356 0143 00000000 		.4byte	.LVL19
 2357 0147 0D000000 		.4byte	.LVL20-1
 2358 014b 0100     		.2byte	0x1
 2359 014d 51       		.byte	0x51
 2360 014e 0D000000 		.4byte	.LVL20-1
 2361 0152 3E000000 		.4byte	.LFE9
 2362 0156 0100     		.2byte	0x1
 2363 0158 55       		.byte	0x55
 2364 0159 00000000 		.4byte	0
 2365 015d 00000000 		.4byte	0
 2366              	.LLST9:
 2367 0161 00000000 		.4byte	.LVL19
 2368 0165 0D000000 		.4byte	.LVL20-1
 2369 0169 0100     		.2byte	0x1
 2370 016b 52       		.byte	0x52
 2371 016c 0D000000 		.4byte	.LVL20-1
 2372 0170 3E000000 		.4byte	.LFE9
 2373 0174 0100     		.2byte	0x1
 2374 0176 57       		.byte	0x57
 2375 0177 00000000 		.4byte	0
 2376 017b 00000000 		.4byte	0
 2377              	.LLST10:
 2378 017f 00000000 		.4byte	.LVL19
 2379 0183 0D000000 		.4byte	.LVL20-1
 2380 0187 0100     		.2byte	0x1
 2381 0189 53       		.byte	0x53
 2382 018a 0D000000 		.4byte	.LVL20-1
 2383 018e 3E000000 		.4byte	.LFE9
 2384 0192 0100     		.2byte	0x1
 2385 0194 56       		.byte	0x56
 2386 0195 00000000 		.4byte	0
 2387 0199 00000000 		.4byte	0
 2388              	.LLST11:
 2389 019d 0E000000 		.4byte	.LVL20
 2390 01a1 25000000 		.4byte	.LVL24-1
ARM GAS  C:\Users\jenny\AppData\Local\Temp\cc0jcio7.s 			page 43


 2391 01a5 0100     		.2byte	0x1
 2392 01a7 50       		.byte	0x50
 2393 01a8 00000000 		.4byte	0
 2394 01ac 00000000 		.4byte	0
 2395              	.LLST12:
 2396 01b0 2E000000 		.4byte	.LVL25
 2397 01b4 31000000 		.4byte	.LVL26-1
 2398 01b8 0100     		.2byte	0x1
 2399 01ba 50       		.byte	0x50
 2400 01bb 31000000 		.4byte	.LVL26-1
 2401 01bf 38000000 		.4byte	.LVL28
 2402 01c3 0100     		.2byte	0x1
 2403 01c5 54       		.byte	0x54
 2404 01c6 00000000 		.4byte	0
 2405 01ca 00000000 		.4byte	0
 2406              	.LLST13:
 2407 01ce 18000000 		.4byte	.LVL22
 2408 01d2 1C000000 		.4byte	.LVL23
 2409 01d6 0100     		.2byte	0x1
 2410 01d8 53       		.byte	0x53
 2411 01d9 00000000 		.4byte	0
 2412 01dd 00000000 		.4byte	0
 2413              	.LLST14:
 2414 01e1 38000000 		.4byte	.LVL28
 2415 01e5 3E000000 		.4byte	.LFE9
 2416 01e9 0100     		.2byte	0x1
 2417 01eb 53       		.byte	0x53
 2418 01ec 00000000 		.4byte	0
 2419 01f0 00000000 		.4byte	0
 2420              	.LLST15:
 2421 01f4 00000000 		.4byte	.LFB10
 2422 01f8 04000000 		.4byte	.LCFI2
 2423 01fc 0200     		.2byte	0x2
 2424 01fe 7D       		.byte	0x7d
 2425 01ff 00       		.sleb128 0
 2426 0200 04000000 		.4byte	.LCFI2
 2427 0204 06000000 		.4byte	.LCFI3
 2428 0208 0200     		.2byte	0x2
 2429 020a 7D       		.byte	0x7d
 2430 020b 18       		.sleb128 24
 2431 020c 06000000 		.4byte	.LCFI3
 2432 0210 44000000 		.4byte	.LFE10
 2433 0214 0200     		.2byte	0x2
 2434 0216 7D       		.byte	0x7d
 2435 0217 20       		.sleb128 32
 2436 0218 00000000 		.4byte	0
 2437 021c 00000000 		.4byte	0
 2438              	.LLST16:
 2439 0220 00000000 		.4byte	.LVL29
 2440 0224 11000000 		.4byte	.LVL30-1
 2441 0228 0100     		.2byte	0x1
 2442 022a 50       		.byte	0x50
 2443 022b 11000000 		.4byte	.LVL30-1
 2444 022f 44000000 		.4byte	.LFE10
 2445 0233 0100     		.2byte	0x1
 2446 0235 55       		.byte	0x55
 2447 0236 00000000 		.4byte	0
ARM GAS  C:\Users\jenny\AppData\Local\Temp\cc0jcio7.s 			page 44


 2448 023a 00000000 		.4byte	0
 2449              	.LLST17:
 2450 023e 00000000 		.4byte	.LVL29
 2451 0242 11000000 		.4byte	.LVL30-1
 2452 0246 0100     		.2byte	0x1
 2453 0248 51       		.byte	0x51
 2454 0249 11000000 		.4byte	.LVL30-1
 2455 024d 44000000 		.4byte	.LFE10
 2456 0251 0100     		.2byte	0x1
 2457 0253 56       		.byte	0x56
 2458 0254 00000000 		.4byte	0
 2459 0258 00000000 		.4byte	0
 2460              	.LLST18:
 2461 025c 00000000 		.4byte	.LVL29
 2462 0260 11000000 		.4byte	.LVL30-1
 2463 0264 0100     		.2byte	0x1
 2464 0266 52       		.byte	0x52
 2465 0267 11000000 		.4byte	.LVL30-1
 2466 026b 44000000 		.4byte	.LFE10
 2467 026f 0100     		.2byte	0x1
 2468 0271 58       		.byte	0x58
 2469 0272 00000000 		.4byte	0
 2470 0276 00000000 		.4byte	0
 2471              	.LLST19:
 2472 027a 00000000 		.4byte	.LVL29
 2473 027e 11000000 		.4byte	.LVL30-1
 2474 0282 0100     		.2byte	0x1
 2475 0284 53       		.byte	0x53
 2476 0285 11000000 		.4byte	.LVL30-1
 2477 0289 44000000 		.4byte	.LFE10
 2478 028d 0100     		.2byte	0x1
 2479 028f 57       		.byte	0x57
 2480 0290 00000000 		.4byte	0
 2481 0294 00000000 		.4byte	0
 2482              	.LLST20:
 2483 0298 12000000 		.4byte	.LVL30
 2484 029c 27000000 		.4byte	.LVL34-1
 2485 02a0 0100     		.2byte	0x1
 2486 02a2 50       		.byte	0x50
 2487 02a3 27000000 		.4byte	.LVL34-1
 2488 02a7 32000000 		.4byte	.LVL35
 2489 02ab 0100     		.2byte	0x1
 2490 02ad 54       		.byte	0x54
 2491 02ae 00000000 		.4byte	0
 2492 02b2 00000000 		.4byte	0
 2493              	.LLST21:
 2494 02b6 32000000 		.4byte	.LVL35
 2495 02ba 35000000 		.4byte	.LVL36-1
 2496 02be 0100     		.2byte	0x1
 2497 02c0 50       		.byte	0x50
 2498 02c1 35000000 		.4byte	.LVL36-1
 2499 02c5 3C000000 		.4byte	.LVL38
 2500 02c9 0100     		.2byte	0x1
 2501 02cb 54       		.byte	0x54
 2502 02cc 00000000 		.4byte	0
 2503 02d0 00000000 		.4byte	0
 2504              	.LLST22:
ARM GAS  C:\Users\jenny\AppData\Local\Temp\cc0jcio7.s 			page 45


 2505 02d4 1C000000 		.4byte	.LVL32
 2506 02d8 22000000 		.4byte	.LVL33
 2507 02dc 0100     		.2byte	0x1
 2508 02de 53       		.byte	0x53
 2509 02df 00000000 		.4byte	0
 2510 02e3 00000000 		.4byte	0
 2511              	.LLST23:
 2512 02e7 3C000000 		.4byte	.LVL38
 2513 02eb 44000000 		.4byte	.LFE10
 2514 02ef 0100     		.2byte	0x1
 2515 02f1 53       		.byte	0x53
 2516 02f2 00000000 		.4byte	0
 2517 02f6 00000000 		.4byte	0
 2518              		.section	.debug_aranges,"",%progbits
 2519 0000 34000000 		.4byte	0x34
 2520 0004 0200     		.2byte	0x2
 2521 0006 00000000 		.4byte	.Ldebug_info0
 2522 000a 04       		.byte	0x4
 2523 000b 00       		.byte	0
 2524 000c 0000     		.2byte	0
 2525 000e 0000     		.2byte	0
 2526 0010 00000000 		.4byte	.LFB7
 2527 0014 14000000 		.4byte	.LFE7-.LFB7
 2528 0018 00000000 		.4byte	.LFB8
 2529 001c 4C000000 		.4byte	.LFE8-.LFB8
 2530 0020 00000000 		.4byte	.LFB9
 2531 0024 3E000000 		.4byte	.LFE9-.LFB9
 2532 0028 00000000 		.4byte	.LFB10
 2533 002c 44000000 		.4byte	.LFE10-.LFB10
 2534 0030 00000000 		.4byte	0
 2535 0034 00000000 		.4byte	0
 2536              		.section	.debug_ranges,"",%progbits
 2537              	.Ldebug_ranges0:
 2538 0000 00000000 		.4byte	.LFB7
 2539 0004 14000000 		.4byte	.LFE7
 2540 0008 00000000 		.4byte	.LFB8
 2541 000c 4C000000 		.4byte	.LFE8
 2542 0010 00000000 		.4byte	.LFB9
 2543 0014 3E000000 		.4byte	.LFE9
 2544 0018 00000000 		.4byte	.LFB10
 2545 001c 44000000 		.4byte	.LFE10
 2546 0020 00000000 		.4byte	0
 2547 0024 00000000 		.4byte	0
 2548              		.section	.debug_line,"",%progbits
 2549              	.Ldebug_line0:
 2550 0000 0C020000 		.section	.debug_str,"MS",%progbits,1
 2550      02008B01 
 2550      00000201 
 2550      FB0E0D00 
 2550      01010101 
 2551              	.LASF75:
 2552 0000 7466756E 		.ascii	"tfunc_t\000"
 2552      635F7400 
 2553              	.LASF38:
 2554 0008 705F6D73 		.ascii	"p_msg\000"
 2554      6700
 2555              	.LASF89:
ARM GAS  C:\Users\jenny\AppData\Local\Temp\cc0jcio7.s 			page 46


 2556 000e 2E2E2F2E 		.ascii	"../../os/kernel/src/chdynamic.c\000"
 2556      2E2F6F73 
 2556      2F6B6572 
 2556      6E656C2F 
 2556      7372632F 
 2557              	.LASF2:
 2558 002e 73697A65 		.ascii	"size_t\000"
 2558      5F7400
 2559              	.LASF70:
 2560 0035 7264796D 		.ascii	"rdymsg\000"
 2560      736700
 2561              	.LASF12:
 2562 003c 75696E74 		.ascii	"uint64_t\000"
 2562      36345F74 
 2562      00
 2563              	.LASF69:
 2564 0045 4D656D6F 		.ascii	"MemoryPool\000"
 2564      7279506F 
 2564      6F6C00
 2565              	.LASF54:
 2566 0050 6D656D67 		.ascii	"memgetfunc_t\000"
 2566      65746675 
 2566      6E635F74 
 2566      00
 2567              	.LASF13:
 2568 005d 6C6F6E67 		.ascii	"long long unsigned int\000"
 2568      206C6F6E 
 2568      6720756E 
 2568      7369676E 
 2568      65642069 
 2569              	.LASF58:
 2570 0074 685F6672 		.ascii	"h_free\000"
 2570      656500
 2571              	.LASF79:
 2572 007b 68656170 		.ascii	"heapp\000"
 2572      7000
 2573              	.LASF60:
 2574 0081 6E657874 		.ascii	"next\000"
 2574      00
 2575              	.LASF26:
 2576 0086 705F7072 		.ascii	"p_prio\000"
 2576      696F00
 2577              	.LASF11:
 2578 008d 6C6F6E67 		.ascii	"long long int\000"
 2578      206C6F6E 
 2578      6720696E 
 2578      7400
 2579              	.LASF1:
 2580 009b 7369676E 		.ascii	"signed char\000"
 2580      65642063 
 2580      68617200 
 2581              	.LASF59:
 2582 00a7 685F6D74 		.ascii	"h_mtx\000"
 2582      7800
 2583              	.LASF42:
 2584 00ad 705F6D70 		.ascii	"p_mpool\000"
 2584      6F6F6C00 
ARM GAS  C:\Users\jenny\AppData\Local\Temp\cc0jcio7.s 			page 47


 2585              	.LASF51:
 2586 00b5 6D5F7175 		.ascii	"m_queue\000"
 2586      65756500 
 2587              	.LASF83:
 2588 00bd 63684865 		.ascii	"chHeapFree\000"
 2588      61704672 
 2588      656500
 2589              	.LASF18:
 2590 00c8 74736C69 		.ascii	"tslices_t\000"
 2590      6365735F 
 2590      7400
 2591              	.LASF85:
 2592 00d2 63685468 		.ascii	"chThdCreateI\000"
 2592      64437265 
 2592      61746549 
 2592      00
 2593              	.LASF88:
 2594 00df 474E5520 		.ascii	"GNU C 4.7.4 20130913 (release) [ARM/embedded-4_7-br"
 2594      4320342E 
 2594      372E3420 
 2594      32303133 
 2594      30393133 
 2595 0112 616E6368 		.ascii	"anch revision 202601]\000"
 2595      20726576 
 2595      6973696F 
 2595      6E203230 
 2595      32363031 
 2596              	.LASF8:
 2597 0128 6C6F6E67 		.ascii	"long int\000"
 2597      20696E74 
 2597      00
 2598              	.LASF78:
 2599 0131 63685468 		.ascii	"chThdCreateFromHeap\000"
 2599      64437265 
 2599      61746546 
 2599      726F6D48 
 2599      65617000 
 2600              	.LASF16:
 2601 0145 74737461 		.ascii	"tstate_t\000"
 2601      74655F74 
 2601      00
 2602              	.LASF28:
 2603 014e 705F6E65 		.ascii	"p_newer\000"
 2603      77657200 
 2604              	.LASF81:
 2605 0156 63685468 		.ascii	"chThdCreateFromMemoryPool\000"
 2605      64437265 
 2605      61746546 
 2605      726F6D4D 
 2605      656D6F72 
 2606              	.LASF71:
 2607 0170 65786974 		.ascii	"exitcode\000"
 2607      636F6465 
 2607      00
 2608              	.LASF68:
 2609 0179 6D705F70 		.ascii	"mp_provider\000"
 2609      726F7669 
ARM GAS  C:\Users\jenny\AppData\Local\Temp\cc0jcio7.s 			page 48


 2609      64657200 
 2610              	.LASF45:
 2611 0185 72656761 		.ascii	"regarm_t\000"
 2611      726D5F74 
 2611      00
 2612              	.LASF62:
 2613 018e 616C6967 		.ascii	"align\000"
 2613      6E00
 2614              	.LASF0:
 2615 0194 756E7369 		.ascii	"unsigned int\000"
 2615      676E6564 
 2615      20696E74 
 2615      00
 2616              	.LASF10:
 2617 01a1 6C6F6E67 		.ascii	"long unsigned int\000"
 2617      20756E73 
 2617      69676E65 
 2617      6420696E 
 2617      7400
 2618              	.LASF48:
 2619 01b3 636F6E74 		.ascii	"context\000"
 2619      65787400 
 2620              	.LASF63:
 2621 01bb 73697A65 		.ascii	"size\000"
 2621      00
 2622              	.LASF6:
 2623 01c0 73686F72 		.ascii	"short unsigned int\000"
 2623      7420756E 
 2623      7369676E 
 2623      65642069 
 2623      6E7400
 2624              	.LASF20:
 2625 01d3 6D73675F 		.ascii	"msg_t\000"
 2625      7400
 2626              	.LASF15:
 2627 01d9 746D6F64 		.ascii	"tmode_t\000"
 2627      655F7400 
 2628              	.LASF44:
 2629 01e1 54687265 		.ascii	"ThreadsList\000"
 2629      6164734C 
 2629      69737400 
 2630              	.LASF21:
 2631 01ed 6576656E 		.ascii	"eventmask_t\000"
 2631      746D6173 
 2631      6B5F7400 
 2632              	.LASF50:
 2633 01f9 4D757465 		.ascii	"Mutex\000"
 2633      7800
 2634              	.LASF77:
 2635 01ff 63685468 		.ascii	"chThdAddRef\000"
 2635      64416464 
 2635      52656600 
 2636              	.LASF46:
 2637 020b 73746B61 		.ascii	"stkalign_t\000"
 2637      6C69676E 
 2637      5F7400
 2638              	.LASF49:
ARM GAS  C:\Users\jenny\AppData\Local\Temp\cc0jcio7.s 			page 49


 2639 0216 73697A65 		.ascii	"sizetype\000"
 2639      74797065 
 2639      00
 2640              	.LASF29:
 2641 021f 705F6F6C 		.ascii	"p_older\000"
 2641      64657200 
 2642              	.LASF43:
 2643 0227 54687265 		.ascii	"ThreadsQueue\000"
 2643      61647351 
 2643      75657565 
 2643      00
 2644              	.LASF67:
 2645 0234 6D705F6F 		.ascii	"mp_object_size\000"
 2645      626A6563 
 2645      745F7369 
 2645      7A6500
 2646              	.LASF80:
 2647 0243 7072696F 		.ascii	"prio\000"
 2647      00
 2648              	.LASF55:
 2649 0248 4D656D6F 		.ascii	"MemoryHeap\000"
 2649      72794865 
 2649      617000
 2650              	.LASF65:
 2651 0253 70685F6E 		.ascii	"ph_next\000"
 2651      65787400 
 2652              	.LASF17:
 2653 025b 74726566 		.ascii	"trefs_t\000"
 2653      735F7400 
 2654              	.LASF76:
 2655 0263 72656673 		.ascii	"refs\000"
 2655      00
 2656              	.LASF25:
 2657 0268 705F7072 		.ascii	"p_prev\000"
 2657      657600
 2658              	.LASF19:
 2659 026f 74707269 		.ascii	"tprio_t\000"
 2659      6F5F7400 
 2660              	.LASF14:
 2661 0277 5F426F6F 		.ascii	"_Bool\000"
 2661      6C00
 2662              	.LASF7:
 2663 027d 696E7433 		.ascii	"int32_t\000"
 2663      325F7400 
 2664              	.LASF4:
 2665 0285 756E7369 		.ascii	"unsigned char\000"
 2665      676E6564 
 2665      20636861 
 2665      7200
 2666              	.LASF57:
 2667 0293 685F7072 		.ascii	"h_provider\000"
 2667      6F766964 
 2667      657200
 2668              	.LASF40:
 2669 029e 705F6D74 		.ascii	"p_mtxlist\000"
 2669      786C6973 
 2669      7400
ARM GAS  C:\Users\jenny\AppData\Local\Temp\cc0jcio7.s 			page 50


 2670              	.LASF5:
 2671 02a8 73686F72 		.ascii	"short int\000"
 2671      7420696E 
 2671      7400
 2672              	.LASF31:
 2673 02b2 705F7374 		.ascii	"p_state\000"
 2673      61746500 
 2674              	.LASF34:
 2675 02ba 705F7072 		.ascii	"p_preempt\000"
 2675      65656D70 
 2675      7400
 2676              	.LASF91:
 2677 02c4 68656170 		.ascii	"heap_header\000"
 2677      5F686561 
 2677      64657200 
 2678              	.LASF73:
 2679 02d0 65776D61 		.ascii	"ewmask\000"
 2679      736B00
 2680              	.LASF24:
 2681 02d7 705F6E65 		.ascii	"p_next\000"
 2681      787400
 2682              	.LASF32:
 2683 02de 705F666C 		.ascii	"p_flags\000"
 2683      61677300 
 2684              	.LASF92:
 2685 02e6 63685468 		.ascii	"chThdRelease\000"
 2685      6452656C 
 2685      65617365 
 2685      00
 2686              	.LASF23:
 2687 02f3 54687265 		.ascii	"Thread\000"
 2687      616400
 2688              	.LASF84:
 2689 02fa 63684865 		.ascii	"chHeapAlloc\000"
 2689      6170416C 
 2689      6C6F6300 
 2690              	.LASF39:
 2691 0306 705F6570 		.ascii	"p_epending\000"
 2691      656E6469 
 2691      6E6700
 2692              	.LASF9:
 2693 0311 75696E74 		.ascii	"uint32_t\000"
 2693      33325F74 
 2693      00
 2694              	.LASF61:
 2695 031a 68656170 		.ascii	"heap\000"
 2695      00
 2696              	.LASF74:
 2697 031f 63686172 		.ascii	"char\000"
 2697      00
 2698              	.LASF53:
 2699 0324 6D5F6E65 		.ascii	"m_next\000"
 2699      787400
 2700              	.LASF22:
 2701 032b 73797374 		.ascii	"systime_t\000"
 2701      696D655F 
 2701      7400
ARM GAS  C:\Users\jenny\AppData\Local\Temp\cc0jcio7.s 			page 51


 2702              	.LASF41:
 2703 0335 705F7265 		.ascii	"p_realprio\000"
 2703      616C7072 
 2703      696F00
 2704              	.LASF66:
 2705 0340 6D705F6E 		.ascii	"mp_next\000"
 2705      65787400 
 2706              	.LASF35:
 2707 0348 705F7469 		.ascii	"p_time\000"
 2707      6D6500
 2708              	.LASF47:
 2709 034f 696E7463 		.ascii	"intctx\000"
 2709      747800
 2710              	.LASF37:
 2711 0356 705F6D73 		.ascii	"p_msgqueue\000"
 2711      67717565 
 2711      756500
 2712              	.LASF86:
 2713 0361 63685363 		.ascii	"chSchWakeupS\000"
 2713      6857616B 
 2713      65757053 
 2713      00
 2714              	.LASF64:
 2715 036e 706F6F6C 		.ascii	"pool_header\000"
 2715      5F686561 
 2715      64657200 
 2716              	.LASF33:
 2717 037a 705F7265 		.ascii	"p_refs\000"
 2717      667300
 2718              	.LASF3:
 2719 0381 75696E74 		.ascii	"uint8_t\000"
 2719      385F7400 
 2720              	.LASF87:
 2721 0389 6368506F 		.ascii	"chPoolAlloc\000"
 2721      6F6C416C 
 2721      6C6F6300 
 2722              	.LASF82:
 2723 0395 6368506F 		.ascii	"chPoolFree\000"
 2723      6F6C4672 
 2723      656500
 2724              	.LASF90:
 2725 03a0 443A5C6A 		.ascii	"D:\\jenny\\dev\\probe\\chibios\\chibios.workspace\\"
 2725      656E6E79 
 2725      5C646576 
 2725      5C70726F 
 2725      62655C63 
 2726 03cd 64656D6F 		.ascii	"demos\\ARMCM4-STM32F407-LWIP-FATFS-USB\000"
 2726      735C4152 
 2726      4D434D34 
 2726      2D53544D 
 2726      33324634 
 2727              	.LASF72:
 2728 03f3 77746F62 		.ascii	"wtobjp\000"
 2728      6A7000
 2729              	.LASF30:
 2730 03fa 705F6E61 		.ascii	"p_name\000"
 2730      6D6500
ARM GAS  C:\Users\jenny\AppData\Local\Temp\cc0jcio7.s 			page 52


 2731              	.LASF52:
 2732 0401 6D5F6F77 		.ascii	"m_owner\000"
 2732      6E657200 
 2733              	.LASF27:
 2734 0409 705F6374 		.ascii	"p_ctx\000"
 2734      7800
 2735              	.LASF36:
 2736 040f 705F7761 		.ascii	"p_waiting\000"
 2736      6974696E 
 2736      6700
 2737              	.LASF56:
 2738 0419 6D656D6F 		.ascii	"memory_heap\000"
 2738      72795F68 
 2738      65617000 
 2739              		.ident	"GCC: (GNU Tools for ARM Embedded Processors) 4.7.4 20130913 (release) [ARM/embedded-4_7-br
ARM GAS  C:\Users\jenny\AppData\Local\Temp\cc0jcio7.s 			page 53


DEFINED SYMBOLS
                            *ABS*:00000000 chdynamic.c
C:\Users\jenny\AppData\Local\Temp\cc0jcio7.s:20     .text.chThdAddRef:00000000 $t
C:\Users\jenny\AppData\Local\Temp\cc0jcio7.s:26     .text.chThdAddRef:00000000 chThdAddRef
C:\Users\jenny\AppData\Local\Temp\cc0jcio7.s:66     .text.chThdRelease:00000000 $t
C:\Users\jenny\AppData\Local\Temp\cc0jcio7.s:72     .text.chThdRelease:00000000 chThdRelease
C:\Users\jenny\AppData\Local\Temp\cc0jcio7.s:157    .text.chThdCreateFromHeap:00000000 $t
C:\Users\jenny\AppData\Local\Temp\cc0jcio7.s:163    .text.chThdCreateFromHeap:00000000 chThdCreateFromHeap
C:\Users\jenny\AppData\Local\Temp\cc0jcio7.s:240    .text.chThdCreateFromMemoryPool:00000000 $t
C:\Users\jenny\AppData\Local\Temp\cc0jcio7.s:246    .text.chThdCreateFromMemoryPool:00000000 chThdCreateFromMemoryPool
                     .debug_frame:00000010 $d

UNDEFINED SYMBOLS
chPoolFree
chHeapFree
chHeapAlloc
chThdCreateI
chSchWakeupS
chPoolAlloc
