ARM GAS  C:\Users\jenny\AppData\Local\Temp\ccPzuVgt.s 			page 1


   1              		.syntax unified
   2              		.cpu cortex-m4
   3              		.eabi_attribute 27, 3
   4              		.fpu fpv4-sp-d16
   5              		.eabi_attribute 20, 1
   6              		.eabi_attribute 21, 1
   7              		.eabi_attribute 23, 3
   8              		.eabi_attribute 24, 1
   9              		.eabi_attribute 25, 1
  10              		.eabi_attribute 26, 1
  11              		.eabi_attribute 30, 2
  12              		.eabi_attribute 34, 1
  13              		.eabi_attribute 18, 4
  14              		.thumb
  15              		.file	"chevents.c"
  16              		.text
  17              	.Ltext0:
  18              		.cfi_sections	.debug_frame
  19              		.section	.text.chEvtRegisterMask,"ax",%progbits
  20              		.align	2
  21              		.p2align 4,,15
  22              		.global	chEvtRegisterMask
  23              		.thumb
  24              		.thumb_func
  25              		.type	chEvtRegisterMask, %function
  26              	chEvtRegisterMask:
  27              	.LFB7:
  28              		.file 1 "../../os/kernel/src/chevents.c"
  29              		.loc 1 85 0
  30              		.cfi_startproc
  31              		@ args = 0, pretend = 0, frame = 0
  32              		@ frame_needed = 0, uses_anonymous_args = 0
  33              		@ link register save eliminated.
  34              	.LVL0:
  35 0000 30B4     		push	{r4, r5}
  36              	.LCFI0:
  37              		.cfi_def_cfa_offset 8
  38              		.cfi_offset 4, -8
  39              		.cfi_offset 5, -4
  40              	.LBB2:
  41              		.loc 1 89 0
  42 0002 2023     		movs	r3, #32
  43              	.LVL1:
  44              	@ 89 "../../os/kernel/src/chevents.c" 1
  45 0004 83F31188 		msr     BASEPRI, r3
  46              	@ 0 "" 2
  47              	.LVL2:
  48              		.thumb
  49              	.LBE2:
  50              		.loc 1 92 0
  51 0008 40F20003 		movw	r3, #:lower16:rlist
  52              	.LVL3:
  53 000c C0F20003 		movt	r3, #:upper16:rlist
  54              		.loc 1 90 0
  55 0010 0468     		ldr	r4, [r0, #0]
  56              		.loc 1 92 0
  57 0012 9D69     		ldr	r5, [r3, #24]
ARM GAS  C:\Users\jenny\AppData\Local\Temp\ccPzuVgt.s 			page 2


  58              		.loc 1 90 0
  59 0014 0C60     		str	r4, [r1, #0]
  60              		.loc 1 94 0
  61 0016 0024     		movs	r4, #0
  62              		.loc 1 91 0
  63 0018 0160     		str	r1, [r0, #0]
  64              	.LBB3:
  65              		.loc 1 95 0
  66 001a 2346     		mov	r3, r4
  67              	.LVL4:
  68              	.LBE3:
  69              		.loc 1 92 0
  70 001c 4D60     		str	r5, [r1, #4]
  71              		.loc 1 93 0
  72 001e 8A60     		str	r2, [r1, #8]
  73              		.loc 1 94 0
  74 0020 CC60     		str	r4, [r1, #12]
  75              	.LBB4:
  76              		.loc 1 95 0
  77              	@ 95 "../../os/kernel/src/chevents.c" 1
  78 0022 83F31188 		msr     BASEPRI, r3
  79              	@ 0 "" 2
  80              	.LVL5:
  81              		.thumb
  82              	.LBE4:
  83              		.loc 1 96 0
  84 0026 30BC     		pop	{r4, r5}
  85 0028 7047     		bx	lr
  86              		.cfi_endproc
  87              	.LFE7:
  88              		.size	chEvtRegisterMask, .-chEvtRegisterMask
  89 002a 00BFAFF3 		.section	.text.chEvtUnregister,"ax",%progbits
  89      0080
  90              		.align	2
  91              		.p2align 4,,15
  92              		.global	chEvtUnregister
  93              		.thumb
  94              		.thumb_func
  95              		.type	chEvtUnregister, %function
  96              	chEvtUnregister:
  97              	.LFB8:
  98              		.loc 1 111 0
  99              		.cfi_startproc
 100              		@ args = 0, pretend = 0, frame = 0
 101              		@ frame_needed = 0, uses_anonymous_args = 0
 102              		@ link register save eliminated.
 103              	.LVL6:
 104              	.LBB5:
 105              		.loc 1 117 0
 106 0000 2023     		movs	r3, #32
 107              	.LVL7:
 108              	@ 117 "../../os/kernel/src/chevents.c" 1
 109 0002 83F31188 		msr     BASEPRI, r3
 110              	@ 0 "" 2
 111              	.LVL8:
 112              		.thumb
 113              	.LBE5:
ARM GAS  C:\Users\jenny\AppData\Local\Temp\ccPzuVgt.s 			page 3


 114              		.loc 1 116 0
 115 0006 0246     		mov	r2, r0
 116              		.loc 1 118 0
 117 0008 00E0     		b	.L3
 118              	.LVL9:
 119              	.L6:
 120              		.loc 1 119 0
 121 000a 1A46     		mov	r2, r3
 122              	.LVL10:
 123              	.L3:
 124              		.loc 1 118 0 discriminator 1
 125 000c 1368     		ldr	r3, [r2, #0]
 126              	.LVL11:
 127 000e 8342     		cmp	r3, r0
 128 0010 03D0     		beq	.L4
 129              		.loc 1 119 0
 130 0012 9942     		cmp	r1, r3
 131 0014 F9D1     		bne	.L6
 132              		.loc 1 120 0
 133 0016 0868     		ldr	r0, [r1, #0]
 134              	.LVL12:
 135 0018 1060     		str	r0, [r2, #0]
 136              	.L4:
 137              	.LBB6:
 138              		.loc 1 125 0
 139 001a 0023     		movs	r3, #0
 140              	.LVL13:
 141              	@ 125 "../../os/kernel/src/chevents.c" 1
 142 001c 83F31188 		msr     BASEPRI, r3
 143              	@ 0 "" 2
 144              	.LVL14:
 145              		.thumb
 146 0020 7047     		bx	lr
 147              	.LBE6:
 148              		.cfi_endproc
 149              	.LFE8:
 150              		.size	chEvtUnregister, .-chEvtUnregister
 151 0022 00BFAFF3 		.section	.text.chEvtGetAndClearEvents,"ax",%progbits
 151      0080AFF3 
 151      0080AFF3 
 151      0080
 152              		.align	2
 153              		.p2align 4,,15
 154              		.global	chEvtGetAndClearEvents
 155              		.thumb
 156              		.thumb_func
 157              		.type	chEvtGetAndClearEvents, %function
 158              	chEvtGetAndClearEvents:
 159              	.LFB9:
 160              		.loc 1 136 0
 161              		.cfi_startproc
 162              		@ args = 0, pretend = 0, frame = 0
 163              		@ frame_needed = 0, uses_anonymous_args = 0
 164              		@ link register save eliminated.
 165              	.LVL15:
 166 0000 10B4     		push	{r4}
 167              	.LCFI1:
ARM GAS  C:\Users\jenny\AppData\Local\Temp\ccPzuVgt.s 			page 4


 168              		.cfi_def_cfa_offset 4
 169              		.cfi_offset 4, -4
 170              	.LBB7:
 171              		.loc 1 139 0
 172 0002 2023     		movs	r3, #32
 173              	.LVL16:
 174              	@ 139 "../../os/kernel/src/chevents.c" 1
 175 0004 83F31188 		msr     BASEPRI, r3
 176              	@ 0 "" 2
 177              	.LVL17:
 178              		.thumb
 179              	.LBE7:
 180              		.loc 1 141 0
 181 0008 40F20002 		movw	r2, #:lower16:rlist
 182 000c C0F20002 		movt	r2, #:upper16:rlist
 183              	.LBB8:
 184              		.loc 1 144 0
 185 0010 0023     		movs	r3, #0
 186              	.LVL18:
 187              	.LBE8:
 188              		.loc 1 141 0
 189 0012 9169     		ldr	r1, [r2, #24]
 190 0014 8A6B     		ldr	r2, [r1, #56]
 191              	.LVL19:
 192              		.loc 1 142 0
 193 0016 22EA0004 		bic	r4, r2, r0
 194 001a 8C63     		str	r4, [r1, #56]
 195              	.LBB9:
 196              		.loc 1 144 0
 197              	@ 144 "../../os/kernel/src/chevents.c" 1
 198 001c 83F31188 		msr     BASEPRI, r3
 199              	@ 0 "" 2
 200              	.LVL20:
 201              		.thumb
 202              	.LBE9:
 203              		.loc 1 146 0
 204 0020 1040     		ands	r0, r0, r2
 205              	.LVL21:
 206 0022 10BC     		pop	{r4}
 207 0024 7047     		bx	lr
 208              		.cfi_endproc
 209              	.LFE9:
 210              		.size	chEvtGetAndClearEvents, .-chEvtGetAndClearEvents
 211 0026 00BFAFF3 		.section	.text.chEvtAddEvents,"ax",%progbits
 211      0080AFF3 
 211      0080
 212              		.align	2
 213              		.p2align 4,,15
 214              		.global	chEvtAddEvents
 215              		.thumb
 216              		.thumb_func
 217              		.type	chEvtAddEvents, %function
 218              	chEvtAddEvents:
 219              	.LFB10:
 220              		.loc 1 157 0
 221              		.cfi_startproc
 222              		@ args = 0, pretend = 0, frame = 0
ARM GAS  C:\Users\jenny\AppData\Local\Temp\ccPzuVgt.s 			page 5


 223              		@ frame_needed = 0, uses_anonymous_args = 0
 224              		@ link register save eliminated.
 225              	.LVL22:
 226              	.LBB10:
 227              		.loc 1 159 0
 228 0000 2023     		movs	r3, #32
 229              	.LVL23:
 230              	@ 159 "../../os/kernel/src/chevents.c" 1
 231 0002 83F31188 		msr     BASEPRI, r3
 232              	@ 0 "" 2
 233              	.LVL24:
 234              		.thumb
 235              	.LBE10:
 236              		.loc 1 161 0
 237 0006 40F20002 		movw	r2, #:lower16:rlist
 238 000a C0F20002 		movt	r2, #:upper16:rlist
 239              	.LBB11:
 240              		.loc 1 163 0
 241 000e 0023     		movs	r3, #0
 242              	.LVL25:
 243              	.LBE11:
 244              		.loc 1 161 0
 245 0010 9269     		ldr	r2, [r2, #24]
 246 0012 916B     		ldr	r1, [r2, #56]
 247 0014 0843     		orrs	r0, r0, r1
 248              	.LVL26:
 249 0016 9063     		str	r0, [r2, #56]
 250              	.LVL27:
 251              	.LBB12:
 252              		.loc 1 163 0
 253              	@ 163 "../../os/kernel/src/chevents.c" 1
 254 0018 83F31188 		msr     BASEPRI, r3
 255              	@ 0 "" 2
 256              	.LVL28:
 257              		.thumb
 258              	.LBE12:
 259              		.loc 1 165 0
 260 001c 7047     		bx	lr
 261              		.cfi_endproc
 262              	.LFE10:
 263              		.size	chEvtAddEvents, .-chEvtAddEvents
 264 001e 00BF     		.section	.text.chEvtGetAndClearFlags,"ax",%progbits
 265              		.align	2
 266              		.p2align 4,,15
 267              		.global	chEvtGetAndClearFlags
 268              		.thumb
 269              		.thumb_func
 270              		.type	chEvtGetAndClearFlags, %function
 271              	chEvtGetAndClearFlags:
 272              	.LFB12:
 273              		.loc 1 209 0
 274              		.cfi_startproc
 275              		@ args = 0, pretend = 0, frame = 0
 276              		@ frame_needed = 0, uses_anonymous_args = 0
 277              		@ link register save eliminated.
 278              	.LVL29:
 279              		.loc 1 209 0
ARM GAS  C:\Users\jenny\AppData\Local\Temp\ccPzuVgt.s 			page 6


 280 0000 0246     		mov	r2, r0
 281              	.LBB13:
 282              		.loc 1 212 0
 283 0002 2023     		movs	r3, #32
 284              	.LVL30:
 285              	@ 212 "../../os/kernel/src/chevents.c" 1
 286 0004 83F31188 		msr     BASEPRI, r3
 287              	@ 0 "" 2
 288              	.LVL31:
 289              		.thumb
 290              	.LBE13:
 291              		.loc 1 215 0
 292 0008 0023     		movs	r3, #0
 293              	.LVL32:
 294              		.loc 1 214 0
 295 000a C068     		ldr	r0, [r0, #12]
 296              	.LVL33:
 297              		.loc 1 215 0
 298 000c D360     		str	r3, [r2, #12]
 299              	.LBB14:
 300              		.loc 1 217 0
 301              	@ 217 "../../os/kernel/src/chevents.c" 1
 302 000e 83F31188 		msr     BASEPRI, r3
 303              	@ 0 "" 2
 304              	.LVL34:
 305              		.thumb
 306              	.LBE14:
 307              		.loc 1 219 0
 308 0012 7047     		bx	lr
 309              		.cfi_endproc
 310              	.LFE12:
 311              		.size	chEvtGetAndClearFlags, .-chEvtGetAndClearFlags
 312 0014 AFF30080 		.section	.text.chEvtSignalI,"ax",%progbits
 312      AFF30080 
 312      AFF30080 
 313              		.align	2
 314              		.p2align 4,,15
 315              		.global	chEvtSignalI
 316              		.thumb
 317              		.thumb_func
 318              		.type	chEvtSignalI, %function
 319              	chEvtSignalI:
 320              	.LFB14:
 321              		.loc 1 251 0
 322              		.cfi_startproc
 323              		@ args = 0, pretend = 0, frame = 0
 324              		@ frame_needed = 0, uses_anonymous_args = 0
 325              	.LVL35:
 326 0000 08B5     		push	{r3, lr}
 327              	.LCFI2:
 328              		.cfi_def_cfa_offset 8
 329              		.cfi_offset 3, -8
 330              		.cfi_offset 14, -4
 331              		.loc 1 256 0
 332 0002 826B     		ldr	r2, [r0, #56]
 333              		.loc 1 258 0
 334 0004 037F     		ldrb	r3, [r0, #28]	@ zero_extendqisi2
ARM GAS  C:\Users\jenny\AppData\Local\Temp\ccPzuVgt.s 			page 7


 335              		.loc 1 256 0
 336 0006 1143     		orrs	r1, r1, r2
 337              	.LVL36:
 338              		.loc 1 258 0
 339 0008 082B     		cmp	r3, #8
 340              		.loc 1 256 0
 341 000a 8163     		str	r1, [r0, #56]
 342              		.loc 1 258 0
 343 000c 0BD0     		beq	.L15
 344              		.loc 1 259 0
 345 000e 092B     		cmp	r3, #9
 346 0010 00D0     		beq	.L16
 347              	.L11:
 348 0012 08BD     		pop	{r3, pc}
 349              	.L16:
 350              		.loc 1 261 0
 351 0014 426A     		ldr	r2, [r0, #36]
 352 0016 1140     		ands	r1, r1, r2
 353              		.loc 1 260 0
 354 0018 8A42     		cmp	r2, r1
 355 001a FAD1     		bne	.L11
 356              	.L13:
 357              	.LVL37:
 358              	.LBB17:
 359              	.LBB18:
 360              		.loc 1 262 0
 361 001c FFF7FEFF 		bl	chSchReadyI
 362              	.LVL38:
 363 0020 0021     		movs	r1, #0
 364 0022 4162     		str	r1, [r0, #36]
 365 0024 08BD     		pop	{r3, pc}
 366              	.LVL39:
 367              	.L15:
 368              	.LBE18:
 369              	.LBE17:
 370              		.loc 1 259 0 discriminator 1
 371 0026 436A     		ldr	r3, [r0, #36]
 372              		.loc 1 258 0 discriminator 1
 373 0028 1942     		tst	r1, r3
 374 002a F7D1     		bne	.L13
 375 002c 08BD     		pop	{r3, pc}
 376              		.cfi_endproc
 377              	.LFE14:
 378              		.size	chEvtSignalI, .-chEvtSignalI
 379 002e 00BF     		.section	.text.chEvtSignal,"ax",%progbits
 380              		.align	2
 381              		.p2align 4,,15
 382              		.global	chEvtSignal
 383              		.thumb
 384              		.thumb_func
 385              		.type	chEvtSignal, %function
 386              	chEvtSignal:
 387              	.LFB13:
 388              		.loc 1 229 0
 389              		.cfi_startproc
 390              		@ args = 0, pretend = 0, frame = 0
 391              		@ frame_needed = 0, uses_anonymous_args = 0
ARM GAS  C:\Users\jenny\AppData\Local\Temp\ccPzuVgt.s 			page 8


 392              	.LVL40:
 393 0000 08B5     		push	{r3, lr}
 394              	.LCFI3:
 395              		.cfi_def_cfa_offset 8
 396              		.cfi_offset 3, -8
 397              		.cfi_offset 14, -4
 398              	.LBB19:
 399              		.loc 1 233 0
 400 0002 2023     		movs	r3, #32
 401              	.LVL41:
 402              	@ 233 "../../os/kernel/src/chevents.c" 1
 403 0004 83F31188 		msr     BASEPRI, r3
 404              	@ 0 "" 2
 405              	.LVL42:
 406              		.thumb
 407              	.LBE19:
 408              		.loc 1 234 0
 409 0008 FFF7FEFF 		bl	chEvtSignalI
 410              	.LVL43:
 411              		.loc 1 235 0
 412 000c FFF7FEFF 		bl	chSchRescheduleS
 413              	.LVL44:
 414              	.LBB20:
 415              		.loc 1 236 0
 416 0010 0023     		movs	r3, #0
 417              	.LVL45:
 418              	@ 236 "../../os/kernel/src/chevents.c" 1
 419 0012 83F31188 		msr     BASEPRI, r3
 420              	@ 0 "" 2
 421              	.LVL46:
 422              		.thumb
 423 0016 08BD     		pop	{r3, pc}
 424              	.LBE20:
 425              		.cfi_endproc
 426              	.LFE13:
 427              		.size	chEvtSignal, .-chEvtSignal
 428 0018 AFF30080 		.section	.text.chEvtBroadcastFlagsI,"ax",%progbits
 428      AFF30080 
 429              		.align	2
 430              		.p2align 4,,15
 431              		.global	chEvtBroadcastFlagsI
 432              		.thumb
 433              		.thumb_func
 434              		.type	chEvtBroadcastFlagsI, %function
 435              	chEvtBroadcastFlagsI:
 436              	.LFB11:
 437              		.loc 1 184 0
 438              		.cfi_startproc
 439              		@ args = 0, pretend = 0, frame = 0
 440              		@ frame_needed = 0, uses_anonymous_args = 0
 441              	.LVL47:
 442 0000 70B5     		push	{r4, r5, r6, lr}
 443              	.LCFI4:
 444              		.cfi_def_cfa_offset 16
 445              		.cfi_offset 4, -16
 446              		.cfi_offset 5, -12
 447              		.cfi_offset 6, -8
ARM GAS  C:\Users\jenny\AppData\Local\Temp\ccPzuVgt.s 			page 9


 448              		.cfi_offset 14, -4
 449              		.loc 1 190 0
 450 0002 0468     		ldr	r4, [r0, #0]
 451              	.LVL48:
 452              		.loc 1 191 0
 453 0004 A042     		cmp	r0, r4
 454              		.loc 1 184 0
 455 0006 0546     		mov	r5, r0
 456 0008 0E46     		mov	r6, r1
 457              		.loc 1 191 0
 458 000a 08D0     		beq	.L18
 459              	.LVL49:
 460              	.L22:
 461              		.loc 1 193 0
 462 000c 201D     		adds	r0, r4, #4
 463 000e 0BC8     		ldmia	r0, {r0, r1, r3}
 464              		.loc 1 192 0
 465 0010 3343     		orrs	r3, r3, r6
 466 0012 E360     		str	r3, [r4, #12]
 467              		.loc 1 193 0
 468 0014 FFF7FEFF 		bl	chEvtSignalI
 469              	.LVL50:
 470              		.loc 1 194 0
 471 0018 2468     		ldr	r4, [r4, #0]
 472              	.LVL51:
 473              		.loc 1 191 0
 474 001a A542     		cmp	r5, r4
 475 001c F6D1     		bne	.L22
 476              	.L18:
 477 001e 70BD     		pop	{r4, r5, r6, pc}
 478              		.cfi_endproc
 479              	.LFE11:
 480              		.size	chEvtBroadcastFlagsI, .-chEvtBroadcastFlagsI
 481              		.section	.text.chEvtBroadcastFlags,"ax",%progbits
 482              		.align	2
 483              		.p2align 4,,15
 484              		.global	chEvtBroadcastFlags
 485              		.thumb
 486              		.thumb_func
 487              		.type	chEvtBroadcastFlags, %function
 488              	chEvtBroadcastFlags:
 489              	.LFB15:
 490              		.loc 1 278 0
 491              		.cfi_startproc
 492              		@ args = 0, pretend = 0, frame = 0
 493              		@ frame_needed = 0, uses_anonymous_args = 0
 494              	.LVL52:
 495 0000 08B5     		push	{r3, lr}
 496              	.LCFI5:
 497              		.cfi_def_cfa_offset 8
 498              		.cfi_offset 3, -8
 499              		.cfi_offset 14, -4
 500              	.LBB21:
 501              		.loc 1 280 0
 502 0002 2023     		movs	r3, #32
 503              	.LVL53:
 504              	@ 280 "../../os/kernel/src/chevents.c" 1
ARM GAS  C:\Users\jenny\AppData\Local\Temp\ccPzuVgt.s 			page 10


 505 0004 83F31188 		msr     BASEPRI, r3
 506              	@ 0 "" 2
 507              	.LVL54:
 508              		.thumb
 509              	.LBE21:
 510              		.loc 1 281 0
 511 0008 FFF7FEFF 		bl	chEvtBroadcastFlagsI
 512              	.LVL55:
 513              		.loc 1 282 0
 514 000c FFF7FEFF 		bl	chSchRescheduleS
 515              	.LVL56:
 516              	.LBB22:
 517              		.loc 1 283 0
 518 0010 0023     		movs	r3, #0
 519              	.LVL57:
 520              	@ 283 "../../os/kernel/src/chevents.c" 1
 521 0012 83F31188 		msr     BASEPRI, r3
 522              	@ 0 "" 2
 523              	.LVL58:
 524              		.thumb
 525 0016 08BD     		pop	{r3, pc}
 526              	.LBE22:
 527              		.cfi_endproc
 528              	.LFE15:
 529              		.size	chEvtBroadcastFlags, .-chEvtBroadcastFlags
 530 0018 AFF30080 		.section	.text.chEvtGetAndClearFlagsI,"ax",%progbits
 530      AFF30080 
 531              		.align	2
 532              		.p2align 4,,15
 533              		.global	chEvtGetAndClearFlagsI
 534              		.thumb
 535              		.thumb_func
 536              		.type	chEvtGetAndClearFlagsI, %function
 537              	chEvtGetAndClearFlagsI:
 538              	.LFB16:
 539              		.loc 1 297 0
 540              		.cfi_startproc
 541              		@ args = 0, pretend = 0, frame = 0
 542              		@ frame_needed = 0, uses_anonymous_args = 0
 543              		@ link register save eliminated.
 544              	.LVL59:
 545              		.loc 1 297 0
 546 0000 0346     		mov	r3, r0
 547              		.loc 1 301 0
 548 0002 0022     		movs	r2, #0
 549              		.loc 1 300 0
 550 0004 C068     		ldr	r0, [r0, #12]
 551              	.LVL60:
 552              		.loc 1 301 0
 553 0006 DA60     		str	r2, [r3, #12]
 554              		.loc 1 304 0
 555 0008 7047     		bx	lr
 556              		.cfi_endproc
 557              	.LFE16:
 558              		.size	chEvtGetAndClearFlagsI, .-chEvtGetAndClearFlagsI
 559 000a 00BFAFF3 		.section	.text.chEvtDispatch,"ax",%progbits
 559      0080
ARM GAS  C:\Users\jenny\AppData\Local\Temp\ccPzuVgt.s 			page 11


 560              		.align	2
 561              		.p2align 4,,15
 562              		.global	chEvtDispatch
 563              		.thumb
 564              		.thumb_func
 565              		.type	chEvtDispatch, %function
 566              	chEvtDispatch:
 567              	.LFB17:
 568              		.loc 1 315 0
 569              		.cfi_startproc
 570              		@ args = 0, pretend = 0, frame = 0
 571              		@ frame_needed = 0, uses_anonymous_args = 0
 572              	.LVL61:
 573 0000 F8B5     		push	{r3, r4, r5, r6, r7, lr}
 574              	.LCFI6:
 575              		.cfi_def_cfa_offset 24
 576              		.cfi_offset 3, -24
 577              		.cfi_offset 4, -20
 578              		.cfi_offset 5, -16
 579              		.cfi_offset 6, -12
 580              		.cfi_offset 7, -8
 581              		.cfi_offset 14, -4
 582              		.loc 1 321 0
 583 0002 0D46     		mov	r5, r1
 584              		.loc 1 315 0
 585 0004 0746     		mov	r7, r0
 586              		.loc 1 321 0
 587 0006 89B1     		cbz	r1, .L26
 588 0008 0024     		movs	r4, #0
 589              		.loc 1 322 0
 590 000a 0126     		movs	r6, #1
 591 000c 01E0     		b	.L27
 592              	.LVL62:
 593              	.L28:
 594              		.loc 1 329 0
 595 000e 0134     		adds	r4, r4, #1
 596              	.LVL63:
 597              		.loc 1 321 0
 598 0010 65B1     		cbz	r5, .L26
 599              	.LVL64:
 600              	.L27:
 601              		.loc 1 322 0
 602 0012 06FA04F3 		lsl	r3, r6, r4
 603 0016 2B42     		tst	r3, r5
 604 0018 F9D0     		beq	.L28
 605              		.loc 1 327 0
 606 001a 57F82420 		ldr	r2, [r7, r4, lsl #2]
 607 001e 2046     		mov	r0, r4
 608              		.loc 1 326 0
 609 0020 25EA0305 		bic	r5, r5, r3
 610              	.LVL65:
 611              		.loc 1 329 0
 612 0024 0134     		adds	r4, r4, #1
 613              		.loc 1 327 0
 614 0026 9047     		blx	r2
 615              	.LVL66:
 616              		.loc 1 321 0
ARM GAS  C:\Users\jenny\AppData\Local\Temp\ccPzuVgt.s 			page 12


 617 0028 002D     		cmp	r5, #0
 618 002a F2D1     		bne	.L27
 619              	.LVL67:
 620              	.L26:
 621 002c F8BD     		pop	{r3, r4, r5, r6, r7, pc}
 622              		.cfi_endproc
 623              	.LFE17:
 624              		.size	chEvtDispatch, .-chEvtDispatch
 625 002e 00BF     		.section	.text.chEvtWaitOne,"ax",%progbits
 626              		.align	2
 627              		.p2align 4,,15
 628              		.global	chEvtWaitOne
 629              		.thumb
 630              		.thumb_func
 631              		.type	chEvtWaitOne, %function
 632              	chEvtWaitOne:
 633              	.LFB18:
 634              		.loc 1 350 0
 635              		.cfi_startproc
 636              		@ args = 0, pretend = 0, frame = 0
 637              		@ frame_needed = 0, uses_anonymous_args = 0
 638              	.LVL68:
 639 0000 38B5     		push	{r3, r4, r5, lr}
 640              	.LCFI7:
 641              		.cfi_def_cfa_offset 16
 642              		.cfi_offset 3, -16
 643              		.cfi_offset 4, -12
 644              		.cfi_offset 5, -8
 645              		.cfi_offset 14, -4
 646              		.loc 1 351 0
 647 0002 0D4B     		ldr	r3, .L37
 648              		.loc 1 350 0
 649 0004 0546     		mov	r5, r0
 650              		.loc 1 351 0
 651 0006 9C69     		ldr	r4, [r3, #24]
 652              	.LVL69:
 653              	.LBB23:
 654              		.loc 1 354 0
 655 0008 2023     		movs	r3, #32
 656              	.LVL70:
 657              	@ 354 "../../os/kernel/src/chevents.c" 1
 658 000a 83F31188 		msr     BASEPRI, r3
 659              	@ 0 "" 2
 660              	.LVL71:
 661              		.thumb
 662              	.LBE23:
 663              		.loc 1 356 0
 664 000e A16B     		ldr	r1, [r4, #56]
 665              	.LVL72:
 666 0010 10EA0102 		ands	r2, r0, r1
 667              	.LVL73:
 668 0014 06D1     		bne	.L36
 669              		.loc 1 357 0
 670 0016 6062     		str	r0, [r4, #36]
 671              		.loc 1 358 0
 672 0018 0820     		movs	r0, #8
 673              	.LVL74:
ARM GAS  C:\Users\jenny\AppData\Local\Temp\ccPzuVgt.s 			page 13


 674 001a FFF7FEFF 		bl	chSchGoSleepS
 675              	.LVL75:
 676              		.loc 1 359 0
 677 001e A16B     		ldr	r1, [r4, #56]
 678 0020 05EA0102 		and	r2, r5, r1
 679              	.LVL76:
 680              	.L36:
 681              		.loc 1 361 0
 682 0024 5042     		negs	r0, r2
 683 0026 1040     		ands	r0, r0, r2
 684              	.LVL77:
 685              		.loc 1 362 0
 686 0028 21EA0001 		bic	r1, r1, r0
 687 002c A163     		str	r1, [r4, #56]
 688              	.LBB24:
 689              		.loc 1 364 0
 690 002e 0023     		movs	r3, #0
 691              	.LVL78:
 692              	@ 364 "../../os/kernel/src/chevents.c" 1
 693 0030 83F31188 		msr     BASEPRI, r3
 694              	@ 0 "" 2
 695              	.LVL79:
 696              		.thumb
 697              	.LBE24:
 698              		.loc 1 366 0
 699 0034 38BD     		pop	{r3, r4, r5, pc}
 700              	.L38:
 701 0036 00BF     		.align	2
 702              	.L37:
 703 0038 00000000 		.word	rlist
 704              		.cfi_endproc
 705              	.LFE18:
 706              		.size	chEvtWaitOne, .-chEvtWaitOne
 707 003c AFF30080 		.section	.text.chEvtWaitAny,"ax",%progbits
 708              		.align	2
 709              		.p2align 4,,15
 710              		.global	chEvtWaitAny
 711              		.thumb
 712              		.thumb_func
 713              		.type	chEvtWaitAny, %function
 714              	chEvtWaitAny:
 715              	.LFB19:
 716              		.loc 1 379 0
 717              		.cfi_startproc
 718              		@ args = 0, pretend = 0, frame = 0
 719              		@ frame_needed = 0, uses_anonymous_args = 0
 720              	.LVL80:
 721 0000 38B5     		push	{r3, r4, r5, lr}
 722              	.LCFI8:
 723              		.cfi_def_cfa_offset 16
 724              		.cfi_offset 3, -16
 725              		.cfi_offset 4, -12
 726              		.cfi_offset 5, -8
 727              		.cfi_offset 14, -4
 728              		.loc 1 380 0
 729 0002 0B4B     		ldr	r3, .L41
 730              		.loc 1 379 0
ARM GAS  C:\Users\jenny\AppData\Local\Temp\ccPzuVgt.s 			page 14


 731 0004 0546     		mov	r5, r0
 732              		.loc 1 380 0
 733 0006 9C69     		ldr	r4, [r3, #24]
 734              	.LVL81:
 735              	.LBB25:
 736              		.loc 1 383 0
 737 0008 2023     		movs	r3, #32
 738              	.LVL82:
 739              	@ 383 "../../os/kernel/src/chevents.c" 1
 740 000a 83F31188 		msr     BASEPRI, r3
 741              	@ 0 "" 2
 742              	.LVL83:
 743              		.thumb
 744              	.LBE25:
 745              		.loc 1 385 0
 746 000e A16B     		ldr	r1, [r4, #56]
 747              	.LVL84:
 748 0010 0840     		ands	r0, r0, r1
 749              	.LVL85:
 750 0012 06D1     		bne	.L40
 751              		.loc 1 387 0
 752 0014 0820     		movs	r0, #8
 753              	.LVL86:
 754              		.loc 1 386 0
 755 0016 6562     		str	r5, [r4, #36]
 756              		.loc 1 387 0
 757 0018 FFF7FEFF 		bl	chSchGoSleepS
 758              	.LVL87:
 759              		.loc 1 388 0
 760 001c A16B     		ldr	r1, [r4, #56]
 761 001e 05EA0100 		and	r0, r5, r1
 762              	.LVL88:
 763              	.L40:
 764              		.loc 1 390 0
 765 0022 21EA0001 		bic	r1, r1, r0
 766 0026 A163     		str	r1, [r4, #56]
 767              	.LBB26:
 768              		.loc 1 392 0
 769 0028 0023     		movs	r3, #0
 770              	.LVL89:
 771              	@ 392 "../../os/kernel/src/chevents.c" 1
 772 002a 83F31188 		msr     BASEPRI, r3
 773              	@ 0 "" 2
 774              	.LVL90:
 775              		.thumb
 776              	.LBE26:
 777              		.loc 1 394 0
 778 002e 38BD     		pop	{r3, r4, r5, pc}
 779              	.L42:
 780              		.align	2
 781              	.L41:
 782 0030 00000000 		.word	rlist
 783              		.cfi_endproc
 784              	.LFE19:
 785              		.size	chEvtWaitAny, .-chEvtWaitAny
 786 0034 AFF30080 		.section	.text.chEvtWaitAll,"ax",%progbits
 786      AFF30080 
ARM GAS  C:\Users\jenny\AppData\Local\Temp\ccPzuVgt.s 			page 15


 786      AFF30080 
 787              		.align	2
 788              		.p2align 4,,15
 789              		.global	chEvtWaitAll
 790              		.thumb
 791              		.thumb_func
 792              		.type	chEvtWaitAll, %function
 793              	chEvtWaitAll:
 794              	.LFB20:
 795              		.loc 1 407 0
 796              		.cfi_startproc
 797              		@ args = 0, pretend = 0, frame = 0
 798              		@ frame_needed = 0, uses_anonymous_args = 0
 799              	.LVL91:
 800 0000 38B5     		push	{r3, r4, r5, lr}
 801              	.LCFI9:
 802              		.cfi_def_cfa_offset 16
 803              		.cfi_offset 3, -16
 804              		.cfi_offset 4, -12
 805              		.cfi_offset 5, -8
 806              		.cfi_offset 14, -4
 807              		.loc 1 408 0
 808 0002 0C4B     		ldr	r3, .L45
 809              		.loc 1 407 0
 810 0004 0446     		mov	r4, r0
 811              		.loc 1 408 0
 812 0006 9D69     		ldr	r5, [r3, #24]
 813              	.LVL92:
 814              	.LBB27:
 815              		.loc 1 410 0
 816 0008 2023     		movs	r3, #32
 817              	.LVL93:
 818              	@ 410 "../../os/kernel/src/chevents.c" 1
 819 000a 83F31188 		msr     BASEPRI, r3
 820              	@ 0 "" 2
 821              	.LVL94:
 822              		.thumb
 823              	.LBE27:
 824              		.loc 1 412 0
 825 000e A86B     		ldr	r0, [r5, #56]
 826              	.LVL95:
 827 0010 04EA0002 		and	r2, r4, r0
 828 0014 A242     		cmp	r2, r4
 829 0016 04D0     		beq	.L44
 830              		.loc 1 414 0
 831 0018 0920     		movs	r0, #9
 832              		.loc 1 413 0
 833 001a 6C62     		str	r4, [r5, #36]
 834              		.loc 1 414 0
 835 001c FFF7FEFF 		bl	chSchGoSleepS
 836              	.LVL96:
 837 0020 A86B     		ldr	r0, [r5, #56]
 838              	.LVL97:
 839              	.L44:
 840              		.loc 1 416 0
 841 0022 20EA0400 		bic	r0, r0, r4
 842 0026 A863     		str	r0, [r5, #56]
ARM GAS  C:\Users\jenny\AppData\Local\Temp\ccPzuVgt.s 			page 16


 843              	.LBB28:
 844              		.loc 1 418 0
 845 0028 0023     		movs	r3, #0
 846              	.LVL98:
 847              	@ 418 "../../os/kernel/src/chevents.c" 1
 848 002a 83F31188 		msr     BASEPRI, r3
 849              	@ 0 "" 2
 850              	.LVL99:
 851              		.thumb
 852              	.LBE28:
 853              		.loc 1 420 0
 854 002e 2046     		mov	r0, r4
 855 0030 38BD     		pop	{r3, r4, r5, pc}
 856              	.L46:
 857 0032 00BF     		.align	2
 858              	.L45:
 859 0034 00000000 		.word	rlist
 860              		.cfi_endproc
 861              	.LFE20:
 862              		.size	chEvtWaitAll, .-chEvtWaitAll
 863 0038 AFF30080 		.section	.text.chEvtWaitOneTimeout,"ax",%progbits
 863      AFF30080 
 864              		.align	2
 865              		.p2align 4,,15
 866              		.global	chEvtWaitOneTimeout
 867              		.thumb
 868              		.thumb_func
 869              		.type	chEvtWaitOneTimeout, %function
 870              	chEvtWaitOneTimeout:
 871              	.LFB21:
 872              		.loc 1 446 0
 873              		.cfi_startproc
 874              		@ args = 0, pretend = 0, frame = 0
 875              		@ frame_needed = 0, uses_anonymous_args = 0
 876              	.LVL100:
 877              		.loc 1 447 0
 878 0000 114B     		ldr	r3, .L53
 879              		.loc 1 446 0
 880 0002 70B5     		push	{r4, r5, r6, lr}
 881              	.LCFI10:
 882              		.cfi_def_cfa_offset 16
 883              		.cfi_offset 4, -16
 884              		.cfi_offset 5, -12
 885              		.cfi_offset 6, -8
 886              		.cfi_offset 14, -4
 887              		.loc 1 447 0
 888 0004 9E69     		ldr	r6, [r3, #24]
 889              	.LVL101:
 890              		.loc 1 446 0
 891 0006 0546     		mov	r5, r0
 892              	.LBB29:
 893              		.loc 1 450 0
 894 0008 2023     		movs	r3, #32
 895              	.LVL102:
 896              	@ 450 "../../os/kernel/src/chevents.c" 1
 897 000a 83F31188 		msr     BASEPRI, r3
 898              	@ 0 "" 2
ARM GAS  C:\Users\jenny\AppData\Local\Temp\ccPzuVgt.s 			page 17


 899              	.LVL103:
 900              		.thumb
 901              	.LBE29:
 902              		.loc 1 452 0
 903 000e B06B     		ldr	r0, [r6, #56]
 904              	.LVL104:
 905 0010 15EA0004 		ands	r4, r5, r0
 906              	.LVL105:
 907 0014 0ED1     		bne	.L48
 908              		.loc 1 453 0
 909 0016 21B9     		cbnz	r1, .L49
 910              	.LVL106:
 911              	.L52:
 912              	.LBB30:
 913              		.loc 1 459 0
 914 0018 2346     		mov	r3, r4
 915              	.LVL107:
 916              	@ 459 "../../os/kernel/src/chevents.c" 1
 917 001a 83F31188 		msr     BASEPRI, r3
 918              	@ 0 "" 2
 919              	.LVL108:
 920              		.thumb
 921              	.LBE30:
 922              		.loc 1 469 0
 923 001e 2046     		mov	r0, r4
 924 0020 70BD     		pop	{r4, r5, r6, pc}
 925              	.LVL109:
 926              	.L49:
 927              		.loc 1 458 0
 928 0022 0820     		movs	r0, #8
 929              		.loc 1 457 0
 930 0024 7562     		str	r5, [r6, #36]
 931              		.loc 1 458 0
 932 0026 FFF7FEFF 		bl	chSchGoSleepTimeoutS
 933              	.LVL110:
 934 002a 0028     		cmp	r0, #0
 935 002c F4DB     		blt	.L52
 936              		.loc 1 462 0
 937 002e B06B     		ldr	r0, [r6, #56]
 938 0030 05EA0004 		and	r4, r5, r0
 939              	.LVL111:
 940              	.L48:
 941              		.loc 1 464 0
 942 0034 6142     		negs	r1, r4
 943 0036 0C40     		ands	r4, r4, r1
 944              	.LVL112:
 945              		.loc 1 465 0
 946 0038 20EA0400 		bic	r0, r0, r4
 947 003c B063     		str	r0, [r6, #56]
 948              	.LBB31:
 949              		.loc 1 467 0
 950 003e 0023     		movs	r3, #0
 951              	.LVL113:
 952              	@ 467 "../../os/kernel/src/chevents.c" 1
 953 0040 83F31188 		msr     BASEPRI, r3
 954              	@ 0 "" 2
 955              	.LVL114:
ARM GAS  C:\Users\jenny\AppData\Local\Temp\ccPzuVgt.s 			page 18


 956              		.thumb
 957              	.LBE31:
 958              		.loc 1 469 0
 959 0044 2046     		mov	r0, r4
 960 0046 70BD     		pop	{r4, r5, r6, pc}
 961              	.L54:
 962              		.align	2
 963              	.L53:
 964 0048 00000000 		.word	rlist
 965              		.cfi_endproc
 966              	.LFE21:
 967              		.size	chEvtWaitOneTimeout, .-chEvtWaitOneTimeout
 968 004c AFF30080 		.section	.text.chEvtWaitAnyTimeout,"ax",%progbits
 969              		.align	2
 970              		.p2align 4,,15
 971              		.global	chEvtWaitAnyTimeout
 972              		.thumb
 973              		.thumb_func
 974              		.type	chEvtWaitAnyTimeout, %function
 975              	chEvtWaitAnyTimeout:
 976              	.LFB22:
 977              		.loc 1 489 0
 978              		.cfi_startproc
 979              		@ args = 0, pretend = 0, frame = 0
 980              		@ frame_needed = 0, uses_anonymous_args = 0
 981              	.LVL115:
 982              		.loc 1 490 0
 983 0000 104B     		ldr	r3, .L61
 984              		.loc 1 489 0
 985 0002 70B5     		push	{r4, r5, r6, lr}
 986              	.LCFI11:
 987              		.cfi_def_cfa_offset 16
 988              		.cfi_offset 4, -16
 989              		.cfi_offset 5, -12
 990              		.cfi_offset 6, -8
 991              		.cfi_offset 14, -4
 992              		.loc 1 490 0
 993 0004 9E69     		ldr	r6, [r3, #24]
 994              	.LVL116:
 995              		.loc 1 489 0
 996 0006 0446     		mov	r4, r0
 997              	.LBB32:
 998              		.loc 1 493 0
 999 0008 2023     		movs	r3, #32
 1000              	.LVL117:
 1001              	@ 493 "../../os/kernel/src/chevents.c" 1
 1002 000a 83F31188 		msr     BASEPRI, r3
 1003              	@ 0 "" 2
 1004              	.LVL118:
 1005              		.thumb
 1006              	.LBE32:
 1007              		.loc 1 495 0
 1008 000e B26B     		ldr	r2, [r6, #56]
 1009              	.LVL119:
 1010 0010 14EA0205 		ands	r5, r4, r2
 1011              	.LVL120:
 1012 0014 0ED1     		bne	.L56
ARM GAS  C:\Users\jenny\AppData\Local\Temp\ccPzuVgt.s 			page 19


 1013              		.loc 1 496 0
 1014 0016 21B9     		cbnz	r1, .L57
 1015              	.LVL121:
 1016              	.L60:
 1017              	.LBB33:
 1018              		.loc 1 502 0
 1019 0018 2B46     		mov	r3, r5
 1020              	.LVL122:
 1021              	@ 502 "../../os/kernel/src/chevents.c" 1
 1022 001a 83F31188 		msr     BASEPRI, r3
 1023              	@ 0 "" 2
 1024              	.LVL123:
 1025              		.thumb
 1026              	.LBE33:
 1027              		.loc 1 511 0
 1028 001e 2846     		mov	r0, r5
 1029 0020 70BD     		pop	{r4, r5, r6, pc}
 1030              	.LVL124:
 1031              	.L57:
 1032              		.loc 1 501 0
 1033 0022 0820     		movs	r0, #8
 1034              	.LVL125:
 1035              		.loc 1 500 0
 1036 0024 7462     		str	r4, [r6, #36]
 1037              		.loc 1 501 0
 1038 0026 FFF7FEFF 		bl	chSchGoSleepTimeoutS
 1039              	.LVL126:
 1040 002a 0028     		cmp	r0, #0
 1041 002c F4DB     		blt	.L60
 1042              		.loc 1 505 0
 1043 002e B26B     		ldr	r2, [r6, #56]
 1044 0030 04EA0205 		and	r5, r4, r2
 1045              	.LVL127:
 1046              	.L56:
 1047              		.loc 1 507 0
 1048 0034 22EA0502 		bic	r2, r2, r5
 1049 0038 B263     		str	r2, [r6, #56]
 1050              	.LBB34:
 1051              		.loc 1 509 0
 1052 003a 0023     		movs	r3, #0
 1053              	.LVL128:
 1054              	@ 509 "../../os/kernel/src/chevents.c" 1
 1055 003c 83F31188 		msr     BASEPRI, r3
 1056              	@ 0 "" 2
 1057              	.LVL129:
 1058              		.thumb
 1059              	.LBE34:
 1060              		.loc 1 511 0
 1061 0040 2846     		mov	r0, r5
 1062 0042 70BD     		pop	{r4, r5, r6, pc}
 1063              	.L62:
 1064              		.align	2
 1065              	.L61:
 1066 0044 00000000 		.word	rlist
 1067              		.cfi_endproc
 1068              	.LFE22:
 1069              		.size	chEvtWaitAnyTimeout, .-chEvtWaitAnyTimeout
ARM GAS  C:\Users\jenny\AppData\Local\Temp\ccPzuVgt.s 			page 20


 1070 0048 AFF30080 		.section	.text.chEvtWaitAllTimeout,"ax",%progbits
 1070      AFF30080 
 1071              		.align	2
 1072              		.p2align 4,,15
 1073              		.global	chEvtWaitAllTimeout
 1074              		.thumb
 1075              		.thumb_func
 1076              		.type	chEvtWaitAllTimeout, %function
 1077              	chEvtWaitAllTimeout:
 1078              	.LFB23:
 1079              		.loc 1 530 0
 1080              		.cfi_startproc
 1081              		@ args = 0, pretend = 0, frame = 0
 1082              		@ frame_needed = 0, uses_anonymous_args = 0
 1083              	.LVL130:
 1084 0000 38B5     		push	{r3, r4, r5, lr}
 1085              	.LCFI12:
 1086              		.cfi_def_cfa_offset 16
 1087              		.cfi_offset 3, -16
 1088              		.cfi_offset 4, -12
 1089              		.cfi_offset 5, -8
 1090              		.cfi_offset 14, -4
 1091              		.loc 1 531 0
 1092 0002 134B     		ldr	r3, .L68
 1093              		.loc 1 530 0
 1094 0004 0446     		mov	r4, r0
 1095              		.loc 1 531 0
 1096 0006 9D69     		ldr	r5, [r3, #24]
 1097              	.LVL131:
 1098              	.LBB35:
 1099              		.loc 1 533 0
 1100 0008 2023     		movs	r3, #32
 1101              	.LVL132:
 1102              	@ 533 "../../os/kernel/src/chevents.c" 1
 1103 000a 83F31188 		msr     BASEPRI, r3
 1104              	@ 0 "" 2
 1105              	.LVL133:
 1106              		.thumb
 1107              	.LBE35:
 1108              		.loc 1 535 0
 1109 000e AA6B     		ldr	r2, [r5, #56]
 1110 0010 04EA0203 		and	r3, r4, r2
 1111              	.LVL134:
 1112 0014 A342     		cmp	r3, r4
 1113 0016 0DD0     		beq	.L64
 1114              		.loc 1 536 0
 1115 0018 29B9     		cbnz	r1, .L65
 1116              	.LBB36:
 1117              		.loc 1 537 0
 1118 001a 0B46     		mov	r3, r1
 1119              	.LVL135:
 1120              	@ 537 "../../os/kernel/src/chevents.c" 1
 1121 001c 83F31188 		msr     BASEPRI, r3
 1122              	@ 0 "" 2
 1123              	.LVL136:
 1124              		.thumb
 1125              	.LBE36:
ARM GAS  C:\Users\jenny\AppData\Local\Temp\ccPzuVgt.s 			page 21


 1126              		.loc 1 538 0
 1127 0020 0C46     		mov	r4, r1
 1128              		.loc 1 550 0
 1129 0022 2046     		mov	r0, r4
 1130              	.LVL137:
 1131 0024 38BD     		pop	{r3, r4, r5, pc}
 1132              	.LVL138:
 1133              	.L65:
 1134              		.loc 1 541 0
 1135 0026 0920     		movs	r0, #9
 1136              	.LVL139:
 1137              		.loc 1 540 0
 1138 0028 6C62     		str	r4, [r5, #36]
 1139              		.loc 1 541 0
 1140 002a FFF7FEFF 		bl	chSchGoSleepTimeoutS
 1141              	.LVL140:
 1142 002e 0028     		cmp	r0, #0
 1143 0030 08DB     		blt	.L67
 1144 0032 AA6B     		ldr	r2, [r5, #56]
 1145              	.L64:
 1146              		.loc 1 546 0
 1147 0034 22EA0402 		bic	r2, r2, r4
 1148 0038 AA63     		str	r2, [r5, #56]
 1149              	.LBB37:
 1150              		.loc 1 548 0
 1151 003a 0023     		movs	r3, #0
 1152              	.LVL141:
 1153              	@ 548 "../../os/kernel/src/chevents.c" 1
 1154 003c 83F31188 		msr     BASEPRI, r3
 1155              	@ 0 "" 2
 1156              	.LVL142:
 1157              		.thumb
 1158              	.L66:
 1159              	.LBE37:
 1160              		.loc 1 550 0
 1161 0040 2046     		mov	r0, r4
 1162 0042 38BD     		pop	{r3, r4, r5, pc}
 1163              	.LVL143:
 1164              	.L67:
 1165              	.LBB38:
 1166              		.loc 1 542 0
 1167 0044 0023     		movs	r3, #0
 1168              	@ 542 "../../os/kernel/src/chevents.c" 1
 1169 0046 83F31188 		msr     BASEPRI, r3
 1170              	@ 0 "" 2
 1171              	.LVL144:
 1172              		.thumb
 1173              	.LBE38:
 1174              		.loc 1 543 0
 1175 004a 1C46     		mov	r4, r3
 1176              	.LVL145:
 1177 004c F8E7     		b	.L66
 1178              	.L69:
 1179 004e 00BF     		.align	2
 1180              	.L68:
 1181 0050 00000000 		.word	rlist
 1182              		.cfi_endproc
ARM GAS  C:\Users\jenny\AppData\Local\Temp\ccPzuVgt.s 			page 22


 1183              	.LFE23:
 1184              		.size	chEvtWaitAllTimeout, .-chEvtWaitAllTimeout
 1185 0054 AFF30080 		.text
 1185      AFF30080 
 1185      AFF30080 
 1186              	.Letext0:
 1187              		.file 2 "c:\\fbin\\yagarto\\bin\\../lib/gcc/arm-none-eabi/4.7.4/../../../../arm-none-eabi/include/
 1188              		.file 3 "../../os/ports/GCC/ARMCMx/chtypes.h"
 1189              		.file 4 "../../os/kernel/include/chlists.h"
 1190              		.file 5 "../../os/kernel/include/chthreads.h"
 1191              		.file 6 "../../os/ports/GCC/ARMCMx/chcore_v7m.h"
 1192              		.file 7 "../../os/kernel/include/chschd.h"
 1193              		.file 8 "../../os/kernel/include/chmtx.h"
 1194              		.file 9 "../../os/kernel/include/chevents.h"