ARM GAS  C:\Users\jenny\AppData\Local\Temp\ccPzuVgt.s 			page 1


   1              		.syntax unified
   2              		.cpu cortex-m4
   3              		.eabi_attribute 27, 3
   4              		.fpu fpv4-sp-d16
   5              		.eabi_attribute 20, 1
   6              		.eabi_attribute 21, 1
   7              		.eabi_attribute 23, 3
   8              		.eabi_attribute 24, 1
   9              		.eabi_attribute 25, 1
  10              		.eabi_attribute 26, 1
  11              		.eabi_attribute 30, 2
  12              		.eabi_attribute 34, 1
  13              		.eabi_attribute 18, 4
  14              		.thumb
  15              		.file	"chevents.c"
  16              		.text
  17              	.Ltext0:
  18              		.cfi_sections	.debug_frame
  19              		.section	.text.chEvtRegisterMask,"ax",%progbits
  20              		.align	2
  21              		.p2align 4,,15
  22              		.global	chEvtRegisterMask
  23              		.thumb
  24              		.thumb_func
  25              		.type	chEvtRegisterMask, %function
  26              	chEvtRegisterMask:
  27              	.LFB7:
  28              		.file 1 "../../os/kernel/src/chevents.c"
  29              		.loc 1 85 0
  30              		.cfi_startproc
  31              		@ args = 0, pretend = 0, frame = 0
  32              		@ frame_needed = 0, uses_anonymous_args = 0
  33              		@ link register save eliminated.
  34              	.LVL0:
  35 0000 30B4     		push	{r4, r5}
  36              	.LCFI0:
  37              		.cfi_def_cfa_offset 8
  38              		.cfi_offset 4, -8
  39              		.cfi_offset 5, -4
  40              	.LBB2:
  41              		.loc 1 89 0
  42 0002 2023     		movs	r3, #32
  43              	.LVL1:
  44              	@ 89 "../../os/kernel/src/chevents.c" 1
  45 0004 83F31188 		msr     BASEPRI, r3
  46              	@ 0 "" 2
  47              	.LVL2:
  48              		.thumb
  49              	.LBE2:
  50              		.loc 1 92 0
  51 0008 40F20003 		movw	r3, #:lower16:rlist
  52              	.LVL3:
  53 000c C0F20003 		movt	r3, #:upper16:rlist
  54              		.loc 1 90 0
  55 0010 0468     		ldr	r4, [r0, #0]
  56              		.loc 1 92 0
  57 0012 9D69     		ldr	r5, [r3, #24]
ARM GAS  C:\Users\jenny\AppData\Local\Temp\ccPzuVgt.s 			page 2


  58              		.loc 1 90 0
  59 0014 0C60     		str	r4, [r1, #0]
  60              		.loc 1 94 0
  61 0016 0024     		movs	r4, #0
  62              		.loc 1 91 0
  63 0018 0160     		str	r1, [r0, #0]
  64              	.LBB3:
  65              		.loc 1 95 0
  66 001a 2346     		mov	r3, r4
  67              	.LVL4:
  68              	.LBE3:
  69              		.loc 1 92 0
  70 001c 4D60     		str	r5, [r1, #4]
  71              		.loc 1 93 0
  72 001e 8A60     		str	r2, [r1, #8]
  73              		.loc 1 94 0
  74 0020 CC60     		str	r4, [r1, #12]
  75              	.LBB4:
  76              		.loc 1 95 0
  77              	@ 95 "../../os/kernel/src/chevents.c" 1
  78 0022 83F31188 		msr     BASEPRI, r3
  79              	@ 0 "" 2
  80              	.LVL5:
  81              		.thumb
  82              	.LBE4:
  83              		.loc 1 96 0
  84 0026 30BC     		pop	{r4, r5}
  85 0028 7047     		bx	lr
  86              		.cfi_endproc
  87              	.LFE7:
  88              		.size	chEvtRegisterMask, .-chEvtRegisterMask
  89 002a 00BFAFF3 		.section	.text.chEvtUnregister,"ax",%progbits
  89      0080
  90              		.align	2
  91              		.p2align 4,,15
  92              		.global	chEvtUnregister
  93              		.thumb
  94              		.thumb_func
  95              		.type	chEvtUnregister, %function
  96              	chEvtUnregister:
  97              	.LFB8:
  98              		.loc 1 111 0
  99              		.cfi_startproc
 100              		@ args = 0, pretend = 0, frame = 0
 101              		@ frame_needed = 0, uses_anonymous_args = 0
 102              		@ link register save eliminated.
 103              	.LVL6:
 104              	.LBB5:
 105              		.loc 1 117 0
 106 0000 2023     		movs	r3, #32
 107              	.LVL7:
 108              	@ 117 "../../os/kernel/src/chevents.c" 1
 109 0002 83F31188 		msr     BASEPRI, r3
 110              	@ 0 "" 2
 111              	.LVL8:
 112              		.thumb
 113              	.LBE5:
ARM GAS  C:\Users\jenny\AppData\Local\Temp\ccPzuVgt.s 			page 3


 114              		.loc 1 116 0
 115 0006 0246     		mov	r2, r0
 116              		.loc 1 118 0
 117 0008 00E0     		b	.L3
 118              	.LVL9:
 119              	.L6:
 120              		.loc 1 119 0
 121 000a 1A46     		mov	r2, r3
 122              	.LVL10:
 123              	.L3:
 124              		.loc 1 118 0 discriminator 1
 125 000c 1368     		ldr	r3, [r2, #0]
 126              	.LVL11:
 127 000e 8342     		cmp	r3, r0
 128 0010 03D0     		beq	.L4
 129              		.loc 1 119 0
 130 0012 9942     		cmp	r1, r3
 131 0014 F9D1     		bne	.L6
 132              		.loc 1 120 0
 133 0016 0868     		ldr	r0, [r1, #0]
 134              	.LVL12:
 135 0018 1060     		str	r0, [r2, #0]
 136              	.L4:
 137              	.LBB6:
 138              		.loc 1 125 0
 139 001a 0023     		movs	r3, #0
 140              	.LVL13:
 141              	@ 125 "../../os/kernel/src/chevents.c" 1
 142 001c 83F31188 		msr     BASEPRI, r3
 143              	@ 0 "" 2
 144              	.LVL14:
 145              		.thumb
 146 0020 7047     		bx	lr
 147              	.LBE6:
 148              		.cfi_endproc
 149              	.LFE8:
 150              		.size	chEvtUnregister, .-chEvtUnregister
 151 0022 00BFAFF3 		.section	.text.chEvtGetAndClearEvents,"ax",%progbits
 151      0080AFF3 
 151      0080AFF3 
 151      0080
 152              		.align	2
 153              		.p2align 4,,15
 154              		.global	chEvtGetAndClearEvents
 155              		.thumb
 156              		.thumb_func
 157              		.type	chEvtGetAndClearEvents, %function
 158              	chEvtGetAndClearEvents:
 159              	.LFB9:
 160              		.loc 1 136 0
 161              		.cfi_startproc
 162              		@ args = 0, pretend = 0, frame = 0
 163              		@ frame_needed = 0, uses_anonymous_args = 0
 164              		@ link register save eliminated.
 165              	.LVL15:
 166 0000 10B4     		push	{r4}
 167              	.LCFI1:
ARM GAS  C:\Users\jenny\AppData\Local\Temp\ccPzuVgt.s 			page 4


 168              		.cfi_def_cfa_offset 4
 169              		.cfi_offset 4, -4
 170              	.LBB7:
 171              		.loc 1 139 0
 172 0002 2023     		movs	r3, #32
 173              	.LVL16:
 174              	@ 139 "../../os/kernel/src/chevents.c" 1
 175 0004 83F31188 		msr     BASEPRI, r3
 176              	@ 0 "" 2
 177              	.LVL17:
 178              		.thumb
 179              	.LBE7:
 180              		.loc 1 141 0
 181 0008 40F20002 		movw	r2, #:lower16:rlist
 182 000c C0F20002 		movt	r2, #:upper16:rlist
 183              	.LBB8:
 184              		.loc 1 144 0
 185 0010 0023     		movs	r3, #0
 186              	.LVL18:
 187              	.LBE8:
 188              		.loc 1 141 0
 189 0012 9169     		ldr	r1, [r2, #24]
 190 0014 8A6B     		ldr	r2, [r1, #56]
 191              	.LVL19:
 192              		.loc 1 142 0
 193 0016 22EA0004 		bic	r4, r2, r0
 194 001a 8C63     		str	r4, [r1, #56]
 195              	.LBB9:
 196              		.loc 1 144 0
 197              	@ 144 "../../os/kernel/src/chevents.c" 1
 198 001c 83F31188 		msr     BASEPRI, r3
 199              	@ 0 "" 2
 200              	.LVL20:
 201              		.thumb
 202              	.LBE9:
 203              		.loc 1 146 0
 204 0020 1040     		ands	r0, r0, r2
 205              	.LVL21:
 206 0022 10BC     		pop	{r4}
 207 0024 7047     		bx	lr
 208              		.cfi_endproc
 209              	.LFE9:
 210              		.size	chEvtGetAndClearEvents, .-chEvtGetAndClearEvents
 211 0026 00BFAFF3 		.section	.text.chEvtAddEvents,"ax",%progbits
 211      0080AFF3 
 211      0080
 212              		.align	2
 213              		.p2align 4,,15
 214              		.global	chEvtAddEvents
 215              		.thumb
 216              		.thumb_func
 217              		.type	chEvtAddEvents, %function
 218              	chEvtAddEvents:
 219              	.LFB10:
 220              		.loc 1 157 0
 221              		.cfi_startproc
 222              		@ args = 0, pretend = 0, frame = 0
ARM GAS  C:\Users\jenny\AppData\Local\Temp\ccPzuVgt.s 			page 5


 223              		@ frame_needed = 0, uses_anonymous_args = 0
 224              		@ link register save eliminated.
 225              	.LVL22:
 226              	.LBB10:
 227              		.loc 1 159 0
 228 0000 2023     		movs	r3, #32
 229              	.LVL23:
 230              	@ 159 "../../os/kernel/src/chevents.c" 1
 231 0002 83F31188 		msr     BASEPRI, r3
 232              	@ 0 "" 2
 233              	.LVL24:
 234              		.thumb
 235              	.LBE10:
 236              		.loc 1 161 0
 237 0006 40F20002 		movw	r2, #:lower16:rlist
 238 000a C0F20002 		movt	r2, #:upper16:rlist
 239              	.LBB11:
 240              		.loc 1 163 0
 241 000e 0023     		movs	r3, #0
 242              	.LVL25:
 243              	.LBE11:
 244              		.loc 1 161 0
 245 0010 9269     		ldr	r2, [r2, #24]
 246 0012 916B     		ldr	r1, [r2, #56]
 247 0014 0843     		orrs	r0, r0, r1
 248              	.LVL26:
 249 0016 9063     		str	r0, [r2, #56]
 250              	.LVL27:
 251              	.LBB12:
 252              		.loc 1 163 0
 253              	@ 163 "../../os/kernel/src/chevents.c" 1
 254 0018 83F31188 		msr     BASEPRI, r3
 255              	@ 0 "" 2
 256              	.LVL28:
 257              		.thumb
 258              	.LBE12:
 259              		.loc 1 165 0
 260 001c 7047     		bx	lr
 261              		.cfi_endproc
 262              	.LFE10:
 263              		.size	chEvtAddEvents, .-chEvtAddEvents
 264 001e 00BF     		.section	.text.chEvtGetAndClearFlags,"ax",%progbits
 265              		.align	2
 266              		.p2align 4,,15
 267              		.global	chEvtGetAndClearFlags
 268              		.thumb
 269              		.thumb_func
 270              		.type	chEvtGetAndClearFlags, %function
 271              	chEvtGetAndClearFlags:
 272              	.LFB12:
 273              		.loc 1 209 0
 274              		.cfi_startproc
 275              		@ args = 0, pretend = 0, frame = 0
 276              		@ frame_needed = 0, uses_anonymous_args = 0
 277              		@ link register save eliminated.
 278              	.LVL29:
 279              		.loc 1 209 0
ARM GAS  C:\Users\jenny\AppData\Local\Temp\ccPzuVgt.s 			page 6


 280 0000 0246     		mov	r2, r0
 281              	.LBB13:
 282              		.loc 1 212 0
 283 0002 2023     		movs	r3, #32
 284              	.LVL30:
 285              	@ 212 "../../os/kernel/src/chevents.c" 1
 286 0004 83F31188 		msr     BASEPRI, r3
 287              	@ 0 "" 2
 288              	.LVL31:
 289              		.thumb
 290              	.LBE13:
 291              		.loc 1 215 0
 292 0008 0023     		movs	r3, #0
 293              	.LVL32:
 294              		.loc 1 214 0
 295 000a C068     		ldr	r0, [r0, #12]
 296              	.LVL33:
 297              		.loc 1 215 0
 298 000c D360     		str	r3, [r2, #12]
 299              	.LBB14:
 300              		.loc 1 217 0
 301              	@ 217 "../../os/kernel/src/chevents.c" 1
 302 000e 83F31188 		msr     BASEPRI, r3
 303              	@ 0 "" 2
 304              	.LVL34:
 305              		.thumb
 306              	.LBE14:
 307              		.loc 1 219 0
 308 0012 7047     		bx	lr
 309              		.cfi_endproc
 310              	.LFE12:
 311              		.size	chEvtGetAndClearFlags, .-chEvtGetAndClearFlags
 312 0014 AFF30080 		.section	.text.chEvtSignalI,"ax",%progbits
 312      AFF30080 
 312      AFF30080 
 313              		.align	2
 314              		.p2align 4,,15
 315              		.global	chEvtSignalI
 316              		.thumb
 317              		.thumb_func
 318              		.type	chEvtSignalI, %function
 319              	chEvtSignalI:
 320              	.LFB14:
 321              		.loc 1 251 0
 322              		.cfi_startproc
 323              		@ args = 0, pretend = 0, frame = 0
 324              		@ frame_needed = 0, uses_anonymous_args = 0
 325              	.LVL35:
 326 0000 08B5     		push	{r3, lr}
 327              	.LCFI2:
 328              		.cfi_def_cfa_offset 8
 329              		.cfi_offset 3, -8
 330              		.cfi_offset 14, -4
 331              		.loc 1 256 0
 332 0002 826B     		ldr	r2, [r0, #56]
 333              		.loc 1 258 0
 334 0004 037F     		ldrb	r3, [r0, #28]	@ zero_extendqisi2
ARM GAS  C:\Users\jenny\AppData\Local\Temp\ccPzuVgt.s 			page 7


 335              		.loc 1 256 0
 336 0006 1143     		orrs	r1, r1, r2
 337              	.LVL36:
 338              		.loc 1 258 0
 339 0008 082B     		cmp	r3, #8
 340              		.loc 1 256 0
 341 000a 8163     		str	r1, [r0, #56]
 342              		.loc 1 258 0
 343 000c 0BD0     		beq	.L15
 344              		.loc 1 259 0
 345 000e 092B     		cmp	r3, #9
 346 0010 00D0     		beq	.L16
 347              	.L11:
 348 0012 08BD     		pop	{r3, pc}
 349              	.L16:
 350              		.loc 1 261 0
 351 0014 426A     		ldr	r2, [r0, #36]
 352 0016 1140     		ands	r1, r1, r2
 353              		.loc 1 260 0
 354 0018 8A42     		cmp	r2, r1
 355 001a FAD1     		bne	.L11
 356              	.L13:
 357              	.LVL37:
 358              	.LBB17:
 359              	.LBB18:
 360              		.loc 1 262 0
 361 001c FFF7FEFF 		bl	chSchReadyI
 362              	.LVL38:
 363 0020 0021     		movs	r1, #0
 364 0022 4162     		str	r1, [r0, #36]
 365 0024 08BD     		pop	{r3, pc}
 366              	.LVL39:
 367              	.L15:
 368              	.LBE18:
 369              	.LBE17:
 370              		.loc 1 259 0 discriminator 1
 371 0026 436A     		ldr	r3, [r0, #36]
 372              		.loc 1 258 0 discriminator 1
 373 0028 1942     		tst	r1, r3
 374 002a F7D1     		bne	.L13
 375 002c 08BD     		pop	{r3, pc}
 376              		.cfi_endproc
 377              	.LFE14:
 378              		.size	chEvtSignalI, .-chEvtSignalI
 379 002e 00BF     		.section	.text.chEvtSignal,"ax",%progbits
 380              		.align	2
 381              		.p2align 4,,15
 382              		.global	chEvtSignal
 383              		.thumb
 384              		.thumb_func
 385              		.type	chEvtSignal, %function
 386              	chEvtSignal:
 387              	.LFB13:
 388              		.loc 1 229 0
 389              		.cfi_startproc
 390              		@ args = 0, pretend = 0, frame = 0
 391              		@ frame_needed = 0, uses_anonymous_args = 0
ARM GAS  C:\Users\jenny\AppData\Local\Temp\ccPzuVgt.s 			page 8


 392              	.LVL40:
 393 0000 08B5     		push	{r3, lr}
 394              	.LCFI3:
 395              		.cfi_def_cfa_offset 8
 396              		.cfi_offset 3, -8
 397              		.cfi_offset 14, -4
 398              	.LBB19:
 399              		.loc 1 233 0
 400 0002 2023     		movs	r3, #32
 401              	.LVL41:
 402              	@ 233 "../../os/kernel/src/chevents.c" 1
 403 0004 83F31188 		msr     BASEPRI, r3
 404              	@ 0 "" 2
 405              	.LVL42:
 406              		.thumb
 407              	.LBE19:
 408              		.loc 1 234 0
 409 0008 FFF7FEFF 		bl	chEvtSignalI
 410              	.LVL43:
 411              		.loc 1 235 0
 412 000c FFF7FEFF 		bl	chSchRescheduleS
 413              	.LVL44:
 414              	.LBB20:
 415              		.loc 1 236 0
 416 0010 0023     		movs	r3, #0
 417              	.LVL45:
 418              	@ 236 "../../os/kernel/src/chevents.c" 1
 419 0012 83F31188 		msr     BASEPRI, r3
 420              	@ 0 "" 2
 421              	.LVL46:
 422              		.thumb
 423 0016 08BD     		pop	{r3, pc}
 424              	.LBE20:
 425              		.cfi_endproc
 426              	.LFE13:
 427              		.size	chEvtSignal, .-chEvtSignal
 428 0018 AFF30080 		.section	.text.chEvtBroadcastFlagsI,"ax",%progbits
 428      AFF30080 
 429              		.align	2
 430              		.p2align 4,,15
 431              		.global	chEvtBroadcastFlagsI
 432              		.thumb
 433              		.thumb_func
 434              		.type	chEvtBroadcastFlagsI, %function
 435              	chEvtBroadcastFlagsI:
 436              	.LFB11:
 437              		.loc 1 184 0
 438              		.cfi_startproc
 439              		@ args = 0, pretend = 0, frame = 0
 440              		@ frame_needed = 0, uses_anonymous_args = 0
 441              	.LVL47:
 442 0000 70B5     		push	{r4, r5, r6, lr}
 443              	.LCFI4:
 444              		.cfi_def_cfa_offset 16
 445              		.cfi_offset 4, -16
 446              		.cfi_offset 5, -12
 447              		.cfi_offset 6, -8
ARM GAS  C:\Users\jenny\AppData\Local\Temp\ccPzuVgt.s 			page 9


 448              		.cfi_offset 14, -4
 449              		.loc 1 190 0
 450 0002 0468     		ldr	r4, [r0, #0]
 451              	.LVL48:
 452              		.loc 1 191 0
 453 0004 A042     		cmp	r0, r4
 454              		.loc 1 184 0
 455 0006 0546     		mov	r5, r0
 456 0008 0E46     		mov	r6, r1
 457              		.loc 1 191 0
 458 000a 08D0     		beq	.L18
 459              	.LVL49:
 460              	.L22:
 461              		.loc 1 193 0
 462 000c 201D     		adds	r0, r4, #4
 463 000e 0BC8     		ldmia	r0, {r0, r1, r3}
 464              		.loc 1 192 0
 465 0010 3343     		orrs	r3, r3, r6
 466 0012 E360     		str	r3, [r4, #12]
 467              		.loc 1 193 0
 468 0014 FFF7FEFF 		bl	chEvtSignalI
 469              	.LVL50:
 470              		.loc 1 194 0
 471 0018 2468     		ldr	r4, [r4, #0]
 472              	.LVL51:
 473              		.loc 1 191 0
 474 001a A542     		cmp	r5, r4
 475 001c F6D1     		bne	.L22
 476              	.L18:
 477 001e 70BD     		pop	{r4, r5, r6, pc}
 478              		.cfi_endproc
 479              	.LFE11:
 480              		.size	chEvtBroadcastFlagsI, .-chEvtBroadcastFlagsI
 481              		.section	.text.chEvtBroadcastFlags,"ax",%progbits
 482              		.align	2
 483              		.p2align 4,,15
 484              		.global	chEvtBroadcastFlags
 485              		.thumb
 486              		.thumb_func
 487              		.type	chEvtBroadcastFlags, %function
 488              	chEvtBroadcastFlags:
 489              	.LFB15:
 490              		.loc 1 278 0
 491              		.cfi_startproc
 492              		@ args = 0, pretend = 0, frame = 0
 493              		@ frame_needed = 0, uses_anonymous_args = 0
 494              	.LVL52:
 495 0000 08B5     		push	{r3, lr}
 496              	.LCFI5:
 497              		.cfi_def_cfa_offset 8
 498              		.cfi_offset 3, -8
 499              		.cfi_offset 14, -4
 500              	.LBB21:
 501              		.loc 1 280 0
 502 0002 2023     		movs	r3, #32
 503              	.LVL53:
 504              	@ 280 "../../os/kernel/src/chevents.c" 1
ARM GAS  C:\Users\jenny\AppData\Local\Temp\ccPzuVgt.s 			page 10


 505 0004 83F31188 		msr     BASEPRI, r3
 506              	@ 0 "" 2
 507              	.LVL54:
 508              		.thumb
 509              	.LBE21:
 510              		.loc 1 281 0
 511 0008 FFF7FEFF 		bl	chEvtBroadcastFlagsI
 512              	.LVL55:
 513              		.loc 1 282 0
 514 000c FFF7FEFF 		bl	chSchRescheduleS
 515              	.LVL56:
 516              	.LBB22:
 517              		.loc 1 283 0
 518 0010 0023     		movs	r3, #0
 519              	.LVL57:
 520              	@ 283 "../../os/kernel/src/chevents.c" 1
 521 0012 83F31188 		msr     BASEPRI, r3
 522              	@ 0 "" 2
 523              	.LVL58:
 524              		.thumb
 525 0016 08BD     		pop	{r3, pc}
 526              	.LBE22:
 527              		.cfi_endproc
 528              	.LFE15:
 529              		.size	chEvtBroadcastFlags, .-chEvtBroadcastFlags
 530 0018 AFF30080 		.section	.text.chEvtGetAndClearFlagsI,"ax",%progbits
 530      AFF30080 
 531              		.align	2
 532              		.p2align 4,,15
 533              		.global	chEvtGetAndClearFlagsI
 534              		.thumb
 535              		.thumb_func
 536              		.type	chEvtGetAndClearFlagsI, %function
 537              	chEvtGetAndClearFlagsI:
 538              	.LFB16:
 539              		.loc 1 297 0
 540              		.cfi_startproc
 541              		@ args = 0, pretend = 0, frame = 0
 542              		@ frame_needed = 0, uses_anonymous_args = 0
 543              		@ link register save eliminated.
 544              	.LVL59:
 545              		.loc 1 297 0
 546 0000 0346     		mov	r3, r0
 547              		.loc 1 301 0
 548 0002 0022     		movs	r2, #0
 549              		.loc 1 300 0
 550 0004 C068     		ldr	r0, [r0, #12]
 551              	.LVL60:
 552              		.loc 1 301 0
 553 0006 DA60     		str	r2, [r3, #12]
 554              		.loc 1 304 0
 555 0008 7047     		bx	lr
 556              		.cfi_endproc
 557              	.LFE16:
 558              		.size	chEvtGetAndClearFlagsI, .-chEvtGetAndClearFlagsI
 559 000a 00BFAFF3 		.section	.text.chEvtDispatch,"ax",%progbits
 559      0080
ARM GAS  C:\Users\jenny\AppData\Local\Temp\ccPzuVgt.s 			page 11


 560              		.align	2
 561              		.p2align 4,,15
 562              		.global	chEvtDispatch
 563              		.thumb
 564              		.thumb_func
 565              		.type	chEvtDispatch, %function
 566              	chEvtDispatch:
 567              	.LFB17:
 568              		.loc 1 315 0
 569              		.cfi_startproc
 570              		@ args = 0, pretend = 0, frame = 0
 571              		@ frame_needed = 0, uses_anonymous_args = 0
 572              	.LVL61:
 573 0000 F8B5     		push	{r3, r4, r5, r6, r7, lr}
 574              	.LCFI6:
 575              		.cfi_def_cfa_offset 24
 576              		.cfi_offset 3, -24
 577              		.cfi_offset 4, -20
 578              		.cfi_offset 5, -16
 579              		.cfi_offset 6, -12
 580              		.cfi_offset 7, -8
 581              		.cfi_offset 14, -4
 582              		.loc 1 321 0
 583 0002 0D46     		mov	r5, r1
 584              		.loc 1 315 0
 585 0004 0746     		mov	r7, r0
 586              		.loc 1 321 0
 587 0006 89B1     		cbz	r1, .L26
 588 0008 0024     		movs	r4, #0
 589              		.loc 1 322 0
 590 000a 0126     		movs	r6, #1
 591 000c 01E0     		b	.L27
 592              	.LVL62:
 593              	.L28:
 594              		.loc 1 329 0
 595 000e 0134     		adds	r4, r4, #1
 596              	.LVL63:
 597              		.loc 1 321 0
 598 0010 65B1     		cbz	r5, .L26
 599              	.LVL64:
 600              	.L27:
 601              		.loc 1 322 0
 602 0012 06FA04F3 		lsl	r3, r6, r4
 603 0016 2B42     		tst	r3, r5
 604 0018 F9D0     		beq	.L28
 605              		.loc 1 327 0
 606 001a 57F82420 		ldr	r2, [r7, r4, lsl #2]
 607 001e 2046     		mov	r0, r4
 608              		.loc 1 326 0
 609 0020 25EA0305 		bic	r5, r5, r3
 610              	.LVL65:
 611              		.loc 1 329 0
 612 0024 0134     		adds	r4, r4, #1
 613              		.loc 1 327 0
 614 0026 9047     		blx	r2
 615              	.LVL66:
 616              		.loc 1 321 0
ARM GAS  C:\Users\jenny\AppData\Local\Temp\ccPzuVgt.s 			page 12


 617 0028 002D     		cmp	r5, #0
 618 002a F2D1     		bne	.L27
 619              	.LVL67:
 620              	.L26:
 621 002c F8BD     		pop	{r3, r4, r5, r6, r7, pc}
 622              		.cfi_endproc
 623              	.LFE17:
 624              		.size	chEvtDispatch, .-chEvtDispatch
 625 002e 00BF     		.section	.text.chEvtWaitOne,"ax",%progbits
 626              		.align	2
 627              		.p2align 4,,15
 628              		.global	chEvtWaitOne
 629              		.thumb
 630              		.thumb_func
 631              		.type	chEvtWaitOne, %function
 632              	chEvtWaitOne:
 633              	.LFB18:
 634              		.loc 1 350 0
 635              		.cfi_startproc
 636              		@ args = 0, pretend = 0, frame = 0
 637              		@ frame_needed = 0, uses_anonymous_args = 0
 638              	.LVL68:
 639 0000 38B5     		push	{r3, r4, r5, lr}
 640              	.LCFI7:
 641              		.cfi_def_cfa_offset 16
 642              		.cfi_offset 3, -16
 643              		.cfi_offset 4, -12
 644              		.cfi_offset 5, -8
 645              		.cfi_offset 14, -4
 646              		.loc 1 351 0
 647 0002 0D4B     		ldr	r3, .L37
 648              		.loc 1 350 0
 649 0004 0546     		mov	r5, r0
 650              		.loc 1 351 0
 651 0006 9C69     		ldr	r4, [r3, #24]
 652              	.LVL69:
 653              	.LBB23:
 654              		.loc 1 354 0
 655 0008 2023     		movs	r3, #32
 656              	.LVL70:
 657              	@ 354 "../../os/kernel/src/chevents.c" 1
 658 000a 83F31188 		msr     BASEPRI, r3
 659              	@ 0 "" 2
 660              	.LVL71:
 661              		.thumb
 662              	.LBE23:
 663              		.loc 1 356 0
 664 000e A16B     		ldr	r1, [r4, #56]
 665              	.LVL72:
 666 0010 10EA0102 		ands	r2, r0, r1
 667              	.LVL73:
 668 0014 06D1     		bne	.L36
 669              		.loc 1 357 0
 670 0016 6062     		str	r0, [r4, #36]
 671              		.loc 1 358 0
 672 0018 0820     		movs	r0, #8
 673              	.LVL74:
ARM GAS  C:\Users\jenny\AppData\Local\Temp\ccPzuVgt.s 			page 13


 674 001a FFF7FEFF 		bl	chSchGoSleepS
 675              	.LVL75:
 676              		.loc 1 359 0
 677 001e A16B     		ldr	r1, [r4, #56]
 678 0020 05EA0102 		and	r2, r5, r1
 679              	.LVL76:
 680              	.L36:
 681              		.loc 1 361 0
 682 0024 5042     		negs	r0, r2
 683 0026 1040     		ands	r0, r0, r2
 684              	.LVL77:
 685              		.loc 1 362 0
 686 0028 21EA0001 		bic	r1, r1, r0
 687 002c A163     		str	r1, [r4, #56]
 688              	.LBB24:
 689              		.loc 1 364 0
 690 002e 0023     		movs	r3, #0
 691              	.LVL78:
 692              	@ 364 "../../os/kernel/src/chevents.c" 1
 693 0030 83F31188 		msr     BASEPRI, r3
 694              	@ 0 "" 2
 695              	.LVL79:
 696              		.thumb
 697              	.LBE24:
 698              		.loc 1 366 0
 699 0034 38BD     		pop	{r3, r4, r5, pc}
 700              	.L38:
 701 0036 00BF     		.align	2
 702              	.L37:
 703 0038 00000000 		.word	rlist
 704              		.cfi_endproc
 705              	.LFE18:
 706              		.size	chEvtWaitOne, .-chEvtWaitOne
 707 003c AFF30080 		.section	.text.chEvtWaitAny,"ax",%progbits
 708              		.align	2
 709              		.p2align 4,,15
 710              		.global	chEvtWaitAny
 711              		.thumb
 712              		.thumb_func
 713              		.type	chEvtWaitAny, %function
 714              	chEvtWaitAny:
 715              	.LFB19:
 716              		.loc 1 379 0
 717              		.cfi_startproc
 718              		@ args = 0, pretend = 0, frame = 0
 719              		@ frame_needed = 0, uses_anonymous_args = 0
 720              	.LVL80:
 721 0000 38B5     		push	{r3, r4, r5, lr}
 722              	.LCFI8:
 723              		.cfi_def_cfa_offset 16
 724              		.cfi_offset 3, -16
 725              		.cfi_offset 4, -12
 726              		.cfi_offset 5, -8
 727              		.cfi_offset 14, -4
 728              		.loc 1 380 0
 729 0002 0B4B     		ldr	r3, .L41
 730              		.loc 1 379 0
ARM GAS  C:\Users\jenny\AppData\Local\Temp\ccPzuVgt.s 			page 14


 731 0004 0546     		mov	r5, r0
 732              		.loc 1 380 0
 733 0006 9C69     		ldr	r4, [r3, #24]
 734              	.LVL81:
 735              	.LBB25:
 736              		.loc 1 383 0
 737 0008 2023     		movs	r3, #32
 738              	.LVL82:
 739              	@ 383 "../../os/kernel/src/chevents.c" 1
 740 000a 83F31188 		msr     BASEPRI, r3
 741              	@ 0 "" 2
 742              	.LVL83:
 743              		.thumb
 744              	.LBE25:
 745              		.loc 1 385 0
 746 000e A16B     		ldr	r1, [r4, #56]
 747              	.LVL84:
 748 0010 0840     		ands	r0, r0, r1
 749              	.LVL85:
 750 0012 06D1     		bne	.L40
 751              		.loc 1 387 0
 752 0014 0820     		movs	r0, #8
 753              	.LVL86:
 754              		.loc 1 386 0
 755 0016 6562     		str	r5, [r4, #36]
 756              		.loc 1 387 0
 757 0018 FFF7FEFF 		bl	chSchGoSleepS
 758              	.LVL87:
 759              		.loc 1 388 0
 760 001c A16B     		ldr	r1, [r4, #56]
 761 001e 05EA0100 		and	r0, r5, r1
 762              	.LVL88:
 763              	.L40:
 764              		.loc 1 390 0
 765 0022 21EA0001 		bic	r1, r1, r0
 766 0026 A163     		str	r1, [r4, #56]
 767              	.LBB26:
 768              		.loc 1 392 0
 769 0028 0023     		movs	r3, #0
 770              	.LVL89:
 771              	@ 392 "../../os/kernel/src/chevents.c" 1
 772 002a 83F31188 		msr     BASEPRI, r3
 773              	@ 0 "" 2
 774              	.LVL90:
 775              		.thumb
 776              	.LBE26:
 777              		.loc 1 394 0
 778 002e 38BD     		pop	{r3, r4, r5, pc}
 779              	.L42:
 780              		.align	2
 781              	.L41:
 782 0030 00000000 		.word	rlist
 783              		.cfi_endproc
 784              	.LFE19:
 785              		.size	chEvtWaitAny, .-chEvtWaitAny
 786 0034 AFF30080 		.section	.text.chEvtWaitAll,"ax",%progbits
 786      AFF30080 
ARM GAS  C:\Users\jenny\AppData\Local\Temp\ccPzuVgt.s 			page 15


 786      AFF30080 
 787              		.align	2
 788              		.p2align 4,,15
 789              		.global	chEvtWaitAll
 790              		.thumb
 791              		.thumb_func
 792              		.type	chEvtWaitAll, %function
 793              	chEvtWaitAll:
 794              	.LFB20:
 795              		.loc 1 407 0
 796              		.cfi_startproc
 797              		@ args = 0, pretend = 0, frame = 0
 798              		@ frame_needed = 0, uses_anonymous_args = 0
 799              	.LVL91:
 800 0000 38B5     		push	{r3, r4, r5, lr}
 801              	.LCFI9:
 802              		.cfi_def_cfa_offset 16
 803              		.cfi_offset 3, -16
 804              		.cfi_offset 4, -12
 805              		.cfi_offset 5, -8
 806              		.cfi_offset 14, -4
 807              		.loc 1 408 0
 808 0002 0C4B     		ldr	r3, .L45
 809              		.loc 1 407 0
 810 0004 0446     		mov	r4, r0
 811              		.loc 1 408 0
 812 0006 9D69     		ldr	r5, [r3, #24]
 813              	.LVL92:
 814              	.LBB27:
 815              		.loc 1 410 0
 816 0008 2023     		movs	r3, #32
 817              	.LVL93:
 818              	@ 410 "../../os/kernel/src/chevents.c" 1
 819 000a 83F31188 		msr     BASEPRI, r3
 820              	@ 0 "" 2
 821              	.LVL94:
 822              		.thumb
 823              	.LBE27:
 824              		.loc 1 412 0
 825 000e A86B     		ldr	r0, [r5, #56]
 826              	.LVL95:
 827 0010 04EA0002 		and	r2, r4, r0
 828 0014 A242     		cmp	r2, r4
 829 0016 04D0     		beq	.L44
 830              		.loc 1 414 0
 831 0018 0920     		movs	r0, #9
 832              		.loc 1 413 0
 833 001a 6C62     		str	r4, [r5, #36]
 834              		.loc 1 414 0
 835 001c FFF7FEFF 		bl	chSchGoSleepS
 836              	.LVL96:
 837 0020 A86B     		ldr	r0, [r5, #56]
 838              	.LVL97:
 839              	.L44:
 840              		.loc 1 416 0
 841 0022 20EA0400 		bic	r0, r0, r4
 842 0026 A863     		str	r0, [r5, #56]
ARM GAS  C:\Users\jenny\AppData\Local\Temp\ccPzuVgt.s 			page 16


 843              	.LBB28:
 844              		.loc 1 418 0
 845 0028 0023     		movs	r3, #0
 846              	.LVL98:
 847              	@ 418 "../../os/kernel/src/chevents.c" 1
 848 002a 83F31188 		msr     BASEPRI, r3
 849              	@ 0 "" 2
 850              	.LVL99:
 851              		.thumb
 852              	.LBE28:
 853              		.loc 1 420 0
 854 002e 2046     		mov	r0, r4
 855 0030 38BD     		pop	{r3, r4, r5, pc}
 856              	.L46:
 857 0032 00BF     		.align	2
 858              	.L45:
 859 0034 00000000 		.word	rlist
 860              		.cfi_endproc
 861              	.LFE20:
 862              		.size	chEvtWaitAll, .-chEvtWaitAll
 863 0038 AFF30080 		.section	.text.chEvtWaitOneTimeout,"ax",%progbits
 863      AFF30080 
 864              		.align	2
 865              		.p2align 4,,15
 866              		.global	chEvtWaitOneTimeout
 867              		.thumb
 868              		.thumb_func
 869              		.type	chEvtWaitOneTimeout, %function
 870              	chEvtWaitOneTimeout:
 871              	.LFB21:
 872              		.loc 1 446 0
 873              		.cfi_startproc
 874              		@ args = 0, pretend = 0, frame = 0
 875              		@ frame_needed = 0, uses_anonymous_args = 0
 876              	.LVL100:
 877              		.loc 1 447 0
 878 0000 114B     		ldr	r3, .L53
 879              		.loc 1 446 0
 880 0002 70B5     		push	{r4, r5, r6, lr}
 881              	.LCFI10:
 882              		.cfi_def_cfa_offset 16
 883              		.cfi_offset 4, -16
 884              		.cfi_offset 5, -12
 885              		.cfi_offset 6, -8
 886              		.cfi_offset 14, -4
 887              		.loc 1 447 0
 888 0004 9E69     		ldr	r6, [r3, #24]
 889              	.LVL101:
 890              		.loc 1 446 0
 891 0006 0546     		mov	r5, r0
 892              	.LBB29:
 893              		.loc 1 450 0
 894 0008 2023     		movs	r3, #32
 895              	.LVL102:
 896              	@ 450 "../../os/kernel/src/chevents.c" 1
 897 000a 83F31188 		msr     BASEPRI, r3
 898              	@ 0 "" 2
ARM GAS  C:\Users\jenny\AppData\Local\Temp\ccPzuVgt.s 			page 17


 899              	.LVL103:
 900              		.thumb
 901              	.LBE29:
 902              		.loc 1 452 0
 903 000e B06B     		ldr	r0, [r6, #56]
 904              	.LVL104:
 905 0010 15EA0004 		ands	r4, r5, r0
 906              	.LVL105:
 907 0014 0ED1     		bne	.L48
 908              		.loc 1 453 0
 909 0016 21B9     		cbnz	r1, .L49
 910              	.LVL106:
 911              	.L52:
 912              	.LBB30:
 913              		.loc 1 459 0
 914 0018 2346     		mov	r3, r4
 915              	.LVL107:
 916              	@ 459 "../../os/kernel/src/chevents.c" 1
 917 001a 83F31188 		msr     BASEPRI, r3
 918              	@ 0 "" 2
 919              	.LVL108:
 920              		.thumb
 921              	.LBE30:
 922              		.loc 1 469 0
 923 001e 2046     		mov	r0, r4
 924 0020 70BD     		pop	{r4, r5, r6, pc}
 925              	.LVL109:
 926              	.L49:
 927              		.loc 1 458 0
 928 0022 0820     		movs	r0, #8
 929              		.loc 1 457 0
 930 0024 7562     		str	r5, [r6, #36]
 931              		.loc 1 458 0
 932 0026 FFF7FEFF 		bl	chSchGoSleepTimeoutS
 933              	.LVL110:
 934 002a 0028     		cmp	r0, #0
 935 002c F4DB     		blt	.L52
 936              		.loc 1 462 0
 937 002e B06B     		ldr	r0, [r6, #56]
 938 0030 05EA0004 		and	r4, r5, r0
 939              	.LVL111:
 940              	.L48:
 941              		.loc 1 464 0
 942 0034 6142     		negs	r1, r4
 943 0036 0C40     		ands	r4, r4, r1
 944              	.LVL112:
 945              		.loc 1 465 0
 946 0038 20EA0400 		bic	r0, r0, r4
 947 003c B063     		str	r0, [r6, #56]
 948              	.LBB31:
 949              		.loc 1 467 0
 950 003e 0023     		movs	r3, #0
 951              	.LVL113:
 952              	@ 467 "../../os/kernel/src/chevents.c" 1
 953 0040 83F31188 		msr     BASEPRI, r3
 954              	@ 0 "" 2
 955              	.LVL114:
ARM GAS  C:\Users\jenny\AppData\Local\Temp\ccPzuVgt.s 			page 18


 956              		.thumb
 957              	.LBE31:
 958              		.loc 1 469 0
 959 0044 2046     		mov	r0, r4
 960 0046 70BD     		pop	{r4, r5, r6, pc}
 961              	.L54:
 962              		.align	2
 963              	.L53:
 964 0048 00000000 		.word	rlist
 965              		.cfi_endproc
 966              	.LFE21:
 967              		.size	chEvtWaitOneTimeout, .-chEvtWaitOneTimeout
 968 004c AFF30080 		.section	.text.chEvtWaitAnyTimeout,"ax",%progbits
 969              		.align	2
 970              		.p2align 4,,15
 971              		.global	chEvtWaitAnyTimeout
 972              		.thumb
 973              		.thumb_func
 974              		.type	chEvtWaitAnyTimeout, %function
 975              	chEvtWaitAnyTimeout:
 976              	.LFB22:
 977              		.loc 1 489 0
 978              		.cfi_startproc
 979              		@ args = 0, pretend = 0, frame = 0
 980              		@ frame_needed = 0, uses_anonymous_args = 0
 981              	.LVL115:
 982              		.loc 1 490 0
 983 0000 104B     		ldr	r3, .L61
 984              		.loc 1 489 0
 985 0002 70B5     		push	{r4, r5, r6, lr}
 986              	.LCFI11:
 987              		.cfi_def_cfa_offset 16
 988              		.cfi_offset 4, -16
 989              		.cfi_offset 5, -12
 990              		.cfi_offset 6, -8
 991              		.cfi_offset 14, -4
 992              		.loc 1 490 0
 993 0004 9E69     		ldr	r6, [r3, #24]
 994              	.LVL116:
 995              		.loc 1 489 0
 996 0006 0446     		mov	r4, r0
 997              	.LBB32:
 998              		.loc 1 493 0
 999 0008 2023     		movs	r3, #32
 1000              	.LVL117:
 1001              	@ 493 "../../os/kernel/src/chevents.c" 1
 1002 000a 83F31188 		msr     BASEPRI, r3
 1003              	@ 0 "" 2
 1004              	.LVL118:
 1005              		.thumb
 1006              	.LBE32:
 1007              		.loc 1 495 0
 1008 000e B26B     		ldr	r2, [r6, #56]
 1009              	.LVL119:
 1010 0010 14EA0205 		ands	r5, r4, r2
 1011              	.LVL120:
 1012 0014 0ED1     		bne	.L56
ARM GAS  C:\Users\jenny\AppData\Local\Temp\ccPzuVgt.s 			page 19


 1013              		.loc 1 496 0
 1014 0016 21B9     		cbnz	r1, .L57
 1015              	.LVL121:
 1016              	.L60:
 1017              	.LBB33:
 1018              		.loc 1 502 0
 1019 0018 2B46     		mov	r3, r5
 1020              	.LVL122:
 1021              	@ 502 "../../os/kernel/src/chevents.c" 1
 1022 001a 83F31188 		msr     BASEPRI, r3
 1023              	@ 0 "" 2
 1024              	.LVL123:
 1025              		.thumb
 1026              	.LBE33:
 1027              		.loc 1 511 0
 1028 001e 2846     		mov	r0, r5
 1029 0020 70BD     		pop	{r4, r5, r6, pc}
 1030              	.LVL124:
 1031              	.L57:
 1032              		.loc 1 501 0
 1033 0022 0820     		movs	r0, #8
 1034              	.LVL125:
 1035              		.loc 1 500 0
 1036 0024 7462     		str	r4, [r6, #36]
 1037              		.loc 1 501 0
 1038 0026 FFF7FEFF 		bl	chSchGoSleepTimeoutS
 1039              	.LVL126:
 1040 002a 0028     		cmp	r0, #0
 1041 002c F4DB     		blt	.L60
 1042              		.loc 1 505 0
 1043 002e B26B     		ldr	r2, [r6, #56]
 1044 0030 04EA0205 		and	r5, r4, r2
 1045              	.LVL127:
 1046              	.L56:
 1047              		.loc 1 507 0
 1048 0034 22EA0502 		bic	r2, r2, r5
 1049 0038 B263     		str	r2, [r6, #56]
 1050              	.LBB34:
 1051              		.loc 1 509 0
 1052 003a 0023     		movs	r3, #0
 1053              	.LVL128:
 1054              	@ 509 "../../os/kernel/src/chevents.c" 1
 1055 003c 83F31188 		msr     BASEPRI, r3
 1056              	@ 0 "" 2
 1057              	.LVL129:
 1058              		.thumb
 1059              	.LBE34:
 1060              		.loc 1 511 0
 1061 0040 2846     		mov	r0, r5
 1062 0042 70BD     		pop	{r4, r5, r6, pc}
 1063              	.L62:
 1064              		.align	2
 1065              	.L61:
 1066 0044 00000000 		.word	rlist
 1067              		.cfi_endproc
 1068              	.LFE22:
 1069              		.size	chEvtWaitAnyTimeout, .-chEvtWaitAnyTimeout
ARM GAS  C:\Users\jenny\AppData\Local\Temp\ccPzuVgt.s 			page 20


 1070 0048 AFF30080 		.section	.text.chEvtWaitAllTimeout,"ax",%progbits
 1070      AFF30080 
 1071              		.align	2
 1072              		.p2align 4,,15
 1073              		.global	chEvtWaitAllTimeout
 1074              		.thumb
 1075              		.thumb_func
 1076              		.type	chEvtWaitAllTimeout, %function
 1077              	chEvtWaitAllTimeout:
 1078              	.LFB23:
 1079              		.loc 1 530 0
 1080              		.cfi_startproc
 1081              		@ args = 0, pretend = 0, frame = 0
 1082              		@ frame_needed = 0, uses_anonymous_args = 0
 1083              	.LVL130:
 1084 0000 38B5     		push	{r3, r4, r5, lr}
 1085              	.LCFI12:
 1086              		.cfi_def_cfa_offset 16
 1087              		.cfi_offset 3, -16
 1088              		.cfi_offset 4, -12
 1089              		.cfi_offset 5, -8
 1090              		.cfi_offset 14, -4
 1091              		.loc 1 531 0
 1092 0002 134B     		ldr	r3, .L68
 1093              		.loc 1 530 0
 1094 0004 0446     		mov	r4, r0
 1095              		.loc 1 531 0
 1096 0006 9D69     		ldr	r5, [r3, #24]
 1097              	.LVL131:
 1098              	.LBB35:
 1099              		.loc 1 533 0
 1100 0008 2023     		movs	r3, #32
 1101              	.LVL132:
 1102              	@ 533 "../../os/kernel/src/chevents.c" 1
 1103 000a 83F31188 		msr     BASEPRI, r3
 1104              	@ 0 "" 2
 1105              	.LVL133:
 1106              		.thumb
 1107              	.LBE35:
 1108              		.loc 1 535 0
 1109 000e AA6B     		ldr	r2, [r5, #56]
 1110 0010 04EA0203 		and	r3, r4, r2
 1111              	.LVL134:
 1112 0014 A342     		cmp	r3, r4
 1113 0016 0DD0     		beq	.L64
 1114              		.loc 1 536 0
 1115 0018 29B9     		cbnz	r1, .L65
 1116              	.LBB36:
 1117              		.loc 1 537 0
 1118 001a 0B46     		mov	r3, r1
 1119              	.LVL135:
 1120              	@ 537 "../../os/kernel/src/chevents.c" 1
 1121 001c 83F31188 		msr     BASEPRI, r3
 1122              	@ 0 "" 2
 1123              	.LVL136:
 1124              		.thumb
 1125              	.LBE36:
ARM GAS  C:\Users\jenny\AppData\Local\Temp\ccPzuVgt.s 			page 21


 1126              		.loc 1 538 0
 1127 0020 0C46     		mov	r4, r1
 1128              		.loc 1 550 0
 1129 0022 2046     		mov	r0, r4
 1130              	.LVL137:
 1131 0024 38BD     		pop	{r3, r4, r5, pc}
 1132              	.LVL138:
 1133              	.L65:
 1134              		.loc 1 541 0
 1135 0026 0920     		movs	r0, #9
 1136              	.LVL139:
 1137              		.loc 1 540 0
 1138 0028 6C62     		str	r4, [r5, #36]
 1139              		.loc 1 541 0
 1140 002a FFF7FEFF 		bl	chSchGoSleepTimeoutS
 1141              	.LVL140:
 1142 002e 0028     		cmp	r0, #0
 1143 0030 08DB     		blt	.L67
 1144 0032 AA6B     		ldr	r2, [r5, #56]
 1145              	.L64:
 1146              		.loc 1 546 0
 1147 0034 22EA0402 		bic	r2, r2, r4
 1148 0038 AA63     		str	r2, [r5, #56]
 1149              	.LBB37:
 1150              		.loc 1 548 0
 1151 003a 0023     		movs	r3, #0
 1152              	.LVL141:
 1153              	@ 548 "../../os/kernel/src/chevents.c" 1
 1154 003c 83F31188 		msr     BASEPRI, r3
 1155              	@ 0 "" 2
 1156              	.LVL142:
 1157              		.thumb
 1158              	.L66:
 1159              	.LBE37:
 1160              		.loc 1 550 0
 1161 0040 2046     		mov	r0, r4
 1162 0042 38BD     		pop	{r3, r4, r5, pc}
 1163              	.LVL143:
 1164              	.L67:
 1165              	.LBB38:
 1166              		.loc 1 542 0
 1167 0044 0023     		movs	r3, #0
 1168              	@ 542 "../../os/kernel/src/chevents.c" 1
 1169 0046 83F31188 		msr     BASEPRI, r3
 1170              	@ 0 "" 2
 1171              	.LVL144:
 1172              		.thumb
 1173              	.LBE38:
 1174              		.loc 1 543 0
 1175 004a 1C46     		mov	r4, r3
 1176              	.LVL145:
 1177 004c F8E7     		b	.L66
 1178              	.L69:
 1179 004e 00BF     		.align	2
 1180              	.L68:
 1181 0050 00000000 		.word	rlist
 1182              		.cfi_endproc
ARM GAS  C:\Users\jenny\AppData\Local\Temp\ccPzuVgt.s 			page 22


 1183              	.LFE23:
 1184              		.size	chEvtWaitAllTimeout, .-chEvtWaitAllTimeout
 1185 0054 AFF30080 		.text
 1185      AFF30080 
 1185      AFF30080 
 1186              	.Letext0:
 1187              		.file 2 "c:\\fbin\\yagarto\\bin\\../lib/gcc/arm-none-eabi/4.7.4/../../../../arm-none-eabi/include/
 1188              		.file 3 "../../os/ports/GCC/ARMCMx/chtypes.h"
 1189              		.file 4 "../../os/kernel/include/chlists.h"
 1190              		.file 5 "../../os/kernel/include/chthreads.h"
 1191              		.file 6 "../../os/ports/GCC/ARMCMx/chcore_v7m.h"
 1192              		.file 7 "../../os/kernel/include/chschd.h"
 1193              		.file 8 "../../os/kernel/include/chmtx.h"
 1194              		.file 9 "../../os/kernel/include/chevents.h"
 1195              		.section	.debug_info,"",%progbits
 1196              	.Ldebug_info0:
 1197 0000 220F0000 		.4byte	0xf22
 1198 0004 0200     		.2byte	0x2
 1199 0006 00000000 		.4byte	.Ldebug_abbrev0
 1200 000a 04       		.byte	0x4
 1201 000b 01       		.uleb128 0x1
 1202 000c A2000000 		.4byte	.LASF96
 1203 0010 01       		.byte	0x1
 1204 0011 5A040000 		.4byte	.LASF97
 1205 0015 0A010000 		.4byte	.LASF98
 1206 0019 48000000 		.4byte	.Ldebug_ranges0+0x48
 1207 001d 00000000 		.4byte	0
 1208 0021 00000000 		.4byte	0
 1209 0025 00000000 		.4byte	.Ldebug_line0
 1210 0029 02       		.uleb128 0x2
 1211 002a 04       		.byte	0x4
 1212 002b 05       		.byte	0x5
 1213 002c 696E7400 		.ascii	"int\000"
 1214 0030 03       		.uleb128 0x3
 1215 0031 04       		.byte	0x4
 1216 0032 07       		.byte	0x7
 1217 0033 E0010000 		.4byte	.LASF0
 1218 0037 03       		.uleb128 0x3
 1219 0038 01       		.byte	0x1
 1220 0039 06       		.byte	0x6
 1221 003a 68000000 		.4byte	.LASF1
 1222 003e 04       		.uleb128 0x4
 1223 003f 4C040000 		.4byte	.LASF5
 1224 0043 02       		.byte	0x2
 1225 0044 2A       		.byte	0x2a
 1226 0045 49000000 		.4byte	0x49
 1227 0049 03       		.uleb128 0x3
 1228 004a 01       		.byte	0x1
 1229 004b 08       		.byte	0x8
 1230 004c 28030000 		.4byte	.LASF2
 1231 0050 03       		.uleb128 0x3
 1232 0051 02       		.byte	0x2
 1233 0052 05       		.byte	0x5
 1234 0053 62030000 		.4byte	.LASF3
 1235 0057 03       		.uleb128 0x3
 1236 0058 02       		.byte	0x2
 1237 0059 07       		.byte	0x7
ARM GAS  C:\Users\jenny\AppData\Local\Temp\ccPzuVgt.s 			page 23


 1238 005a 1E020000 		.4byte	.LASF4
 1239 005e 04       		.uleb128 0x4
 1240 005f 20030000 		.4byte	.LASF6
 1241 0063 02       		.byte	0x2
 1242 0064 4F       		.byte	0x4f
 1243 0065 69000000 		.4byte	0x69
 1244 0069 03       		.uleb128 0x3
 1245 006a 04       		.byte	0x4
 1246 006b 05       		.byte	0x5
 1247 006c EB000000 		.4byte	.LASF7
 1248 0070 04       		.uleb128 0x4
 1249 0071 D2030000 		.4byte	.LASF8
 1250 0075 02       		.byte	0x2
 1251 0076 50       		.byte	0x50
 1252 0077 7B000000 		.4byte	0x7b
 1253 007b 03       		.uleb128 0x3
 1254 007c 04       		.byte	0x4
 1255 007d 07       		.byte	0x7
 1256 007e ED010000 		.4byte	.LASF9
 1257 0082 03       		.uleb128 0x3
 1258 0083 08       		.byte	0x8
 1259 0084 05       		.byte	0x5
 1260 0085 5A000000 		.4byte	.LASF10
 1261 0089 03       		.uleb128 0x3
 1262 008a 08       		.byte	0x8
 1263 008b 07       		.byte	0x7
 1264 008c 19000000 		.4byte	.LASF11
 1265 0090 03       		.uleb128 0x3
 1266 0091 01       		.byte	0x1
 1267 0092 02       		.byte	0x2
 1268 0093 1A030000 		.4byte	.LASF12
 1269 0097 04       		.uleb128 0x4
 1270 0098 61020000 		.4byte	.LASF13
 1271 009c 03       		.byte	0x3
 1272 009d 2C       		.byte	0x2c
 1273 009e 3E000000 		.4byte	0x3e
 1274 00a2 04       		.uleb128 0x4
 1275 00a3 F4000000 		.4byte	.LASF14
 1276 00a7 03       		.byte	0x3
 1277 00a8 2D       		.byte	0x2d
 1278 00a9 3E000000 		.4byte	0x3e
 1279 00ad 04       		.uleb128 0x4
 1280 00ae 03030000 		.4byte	.LASF15
 1281 00b2 03       		.byte	0x3
 1282 00b3 2E       		.byte	0x2e
 1283 00b4 3E000000 		.4byte	0x3e
 1284 00b8 04       		.uleb128 0x4
 1285 00b9 98000000 		.4byte	.LASF16
 1286 00bd 03       		.byte	0x3
 1287 00be 2F       		.byte	0x2f
 1288 00bf 3E000000 		.4byte	0x3e
 1289 00c3 04       		.uleb128 0x4
 1290 00c4 12030000 		.4byte	.LASF17
 1291 00c8 03       		.byte	0x3
 1292 00c9 30       		.byte	0x30
 1293 00ca 70000000 		.4byte	0x70
 1294 00ce 04       		.uleb128 0x4
ARM GAS  C:\Users\jenny\AppData\Local\Temp\ccPzuVgt.s 			page 24


 1295 00cf 43020000 		.4byte	.LASF18
 1296 00d3 03       		.byte	0x3
 1297 00d4 31       		.byte	0x31
 1298 00d5 5E000000 		.4byte	0x5e
 1299 00d9 04       		.uleb128 0x4
 1300 00da BE010000 		.4byte	.LASF19
 1301 00de 03       		.byte	0x3
 1302 00df 32       		.byte	0x32
 1303 00e0 5E000000 		.4byte	0x5e
 1304 00e4 04       		.uleb128 0x4
 1305 00e5 75020000 		.4byte	.LASF20
 1306 00e9 03       		.byte	0x3
 1307 00ea 33       		.byte	0x33
 1308 00eb 70000000 		.4byte	0x70
 1309 00ef 04       		.uleb128 0x4
 1310 00f0 29040000 		.4byte	.LASF21
 1311 00f4 03       		.byte	0x3
 1312 00f5 34       		.byte	0x34
 1313 00f6 70000000 		.4byte	0x70
 1314 00fa 04       		.uleb128 0x4
 1315 00fb FB030000 		.4byte	.LASF22
 1316 00ff 03       		.byte	0x3
 1317 0100 35       		.byte	0x35
 1318 0101 70000000 		.4byte	0x70
 1319 0105 04       		.uleb128 0x4
 1320 0106 B2030000 		.4byte	.LASF23
 1321 010a 04       		.byte	0x4
 1322 010b 2A       		.byte	0x2a
 1323 010c 10010000 		.4byte	0x110
 1324 0110 05       		.uleb128 0x5
 1325 0111 B2030000 		.4byte	.LASF23
 1326 0115 48       		.byte	0x48
 1327 0116 05       		.byte	0x5
 1328 0117 5E       		.byte	0x5e
 1329 0118 35020000 		.4byte	0x235
 1330 011c 06       		.uleb128 0x6
 1331 011d A3030000 		.4byte	.LASF24
 1332 0121 05       		.byte	0x5
 1333 0122 5F       		.byte	0x5f
 1334 0123 5A020000 		.4byte	0x25a
 1335 0127 02       		.byte	0x2
 1336 0128 23       		.byte	0x23
 1337 0129 00       		.uleb128 0
 1338 012a 06       		.uleb128 0x6
 1339 012b 0B030000 		.4byte	.LASF25
 1340 012f 05       		.byte	0x5
 1341 0130 61       		.byte	0x61
 1342 0131 5A020000 		.4byte	0x25a
 1343 0135 02       		.byte	0x2
 1344 0136 23       		.byte	0x23
 1345 0137 04       		.uleb128 0x4
 1346 0138 06       		.uleb128 0x6
 1347 0139 53000000 		.4byte	.LASF26
 1348 013d 05       		.byte	0x5
 1349 013e 63       		.byte	0x63
 1350 013f C3000000 		.4byte	0xc3
 1351 0143 02       		.byte	0x2
ARM GAS  C:\Users\jenny\AppData\Local\Temp\ccPzuVgt.s 			page 25


 1352 0144 23       		.byte	0x23
 1353 0145 08       		.uleb128 0x8
 1354 0146 06       		.uleb128 0x6
 1355 0147 CF040000 		.4byte	.LASF27
 1356 014b 05       		.byte	0x5
 1357 014c 64       		.byte	0x64
 1358 014d 18040000 		.4byte	0x418
 1359 0151 02       		.byte	0x2
 1360 0152 23       		.byte	0x23
 1361 0153 0C       		.uleb128 0xc
 1362 0154 06       		.uleb128 0x6
 1363 0155 72010000 		.4byte	.LASF28
 1364 0159 05       		.byte	0x5
 1365 015a 66       		.byte	0x66
 1366 015b 5A020000 		.4byte	0x25a
 1367 015f 02       		.byte	0x2
 1368 0160 23       		.byte	0x23
 1369 0161 10       		.uleb128 0x10
 1370 0162 06       		.uleb128 0x6
 1371 0163 B3020000 		.4byte	.LASF29
 1372 0167 05       		.byte	0x5
 1373 0168 67       		.byte	0x67
 1374 0169 5A020000 		.4byte	0x25a
 1375 016d 02       		.byte	0x2
 1376 016e 23       		.byte	0x23
 1377 016f 14       		.uleb128 0x14
 1378 0170 06       		.uleb128 0x6
 1379 0171 A2040000 		.4byte	.LASF30
 1380 0175 05       		.byte	0x5
 1381 0176 6E       		.byte	0x6e
 1382 0177 C5050000 		.4byte	0x5c5
 1383 017b 02       		.byte	0x2
 1384 017c 23       		.byte	0x23
 1385 017d 18       		.uleb128 0x18
 1386 017e 06       		.uleb128 0x6
 1387 017f 6C030000 		.4byte	.LASF31
 1388 0183 05       		.byte	0x5
 1389 0184 79       		.byte	0x79
 1390 0185 A2000000 		.4byte	0xa2
 1391 0189 02       		.byte	0x2
 1392 018a 23       		.byte	0x23
 1393 018b 1C       		.uleb128 0x1c
 1394 018c 06       		.uleb128 0x6
 1395 018d AA030000 		.4byte	.LASF32
 1396 0191 05       		.byte	0x5
 1397 0192 7D       		.byte	0x7d
 1398 0193 97000000 		.4byte	0x97
 1399 0197 02       		.byte	0x2
 1400 0198 23       		.byte	0x23
 1401 0199 1D       		.uleb128 0x1d
 1402 019a 06       		.uleb128 0x6
 1403 019b 35040000 		.4byte	.LASF33
 1404 019f 05       		.byte	0x5
 1405 01a0 82       		.byte	0x82
 1406 01a1 AD000000 		.4byte	0xad
 1407 01a5 02       		.byte	0x2
 1408 01a6 23       		.byte	0x23
ARM GAS  C:\Users\jenny\AppData\Local\Temp\ccPzuVgt.s 			page 26


 1409 01a7 1E       		.uleb128 0x1e
 1410 01a8 06       		.uleb128 0x6
 1411 01a9 74030000 		.4byte	.LASF34
 1412 01ad 05       		.byte	0x5
 1413 01ae 88       		.byte	0x88
 1414 01af B8000000 		.4byte	0xb8
 1415 01b3 02       		.byte	0x2
 1416 01b4 23       		.byte	0x23
 1417 01b5 1F       		.uleb128 0x1f
 1418 01b6 06       		.uleb128 0x6
 1419 01b7 10040000 		.4byte	.LASF35
 1420 01bb 05       		.byte	0x5
 1421 01bc 8F       		.byte	0x8f
 1422 01bd 42040000 		.4byte	0x442
 1423 01c1 02       		.byte	0x2
 1424 01c2 23       		.byte	0x23
 1425 01c3 20       		.uleb128 0x20
 1426 01c4 07       		.uleb128 0x7
 1427 01c5 705F7500 		.ascii	"p_u\000"
 1428 01c9 05       		.byte	0x5
 1429 01ca B4       		.byte	0xb4
 1430 01cb 90050000 		.4byte	0x590
 1431 01cf 02       		.byte	0x2
 1432 01d0 23       		.byte	0x23
 1433 01d1 24       		.uleb128 0x24
 1434 01d2 06       		.uleb128 0x6
 1435 01d3 D5040000 		.4byte	.LASF36
 1436 01d7 05       		.byte	0x5
 1437 01d8 B9       		.byte	0xb9
 1438 01d9 82020000 		.4byte	0x282
 1439 01dd 02       		.byte	0x2
 1440 01de 23       		.byte	0x23
 1441 01df 28       		.uleb128 0x28
 1442 01e0 06       		.uleb128 0x6
 1443 01e1 1E040000 		.4byte	.LASF37
 1444 01e5 05       		.byte	0x5
 1445 01e6 BF       		.byte	0xbf
 1446 01e7 60020000 		.4byte	0x260
 1447 01eb 02       		.byte	0x2
 1448 01ec 23       		.byte	0x23
 1449 01ed 2C       		.uleb128 0x2c
 1450 01ee 06       		.uleb128 0x6
 1451 01ef 00000000 		.4byte	.LASF38
 1452 01f3 05       		.byte	0x5
 1453 01f4 C3       		.byte	0xc3
 1454 01f5 CE000000 		.4byte	0xce
 1455 01f9 02       		.byte	0x2
 1456 01fa 23       		.byte	0x23
 1457 01fb 34       		.uleb128 0x34
 1458 01fc 06       		.uleb128 0x6
 1459 01fd C7030000 		.4byte	.LASF39
 1460 0201 05       		.byte	0x5
 1461 0202 C9       		.byte	0xc9
 1462 0203 E4000000 		.4byte	0xe4
 1463 0207 02       		.byte	0x2
 1464 0208 23       		.byte	0x23
 1465 0209 38       		.uleb128 0x38
ARM GAS  C:\Users\jenny\AppData\Local\Temp\ccPzuVgt.s 			page 27


 1466 020a 06       		.uleb128 0x6
 1467 020b 58030000 		.4byte	.LASF40
 1468 020f 05       		.byte	0x5
 1469 0210 D0       		.byte	0xd0
 1470 0211 D7050000 		.4byte	0x5d7
 1471 0215 02       		.byte	0x2
 1472 0216 23       		.byte	0x23
 1473 0217 3C       		.uleb128 0x3c
 1474 0218 06       		.uleb128 0x6
 1475 0219 05040000 		.4byte	.LASF41
 1476 021d 05       		.byte	0x5
 1477 021e D4       		.byte	0xd4
 1478 021f C3000000 		.4byte	0xc3
 1479 0223 02       		.byte	0x2
 1480 0224 23       		.byte	0x23
 1481 0225 40       		.uleb128 0x40
 1482 0226 06       		.uleb128 0x6
 1483 0227 88000000 		.4byte	.LASF42
 1484 022b 05       		.byte	0x5
 1485 022c DA       		.byte	0xda
 1486 022d 98020000 		.4byte	0x298
 1487 0231 02       		.byte	0x2
 1488 0232 23       		.byte	0x23
 1489 0233 44       		.uleb128 0x44
 1490 0234 00       		.byte	0
 1491 0235 08       		.uleb128 0x8
 1492 0236 08       		.byte	0x8
 1493 0237 04       		.byte	0x4
 1494 0238 61       		.byte	0x61
 1495 0239 5A020000 		.4byte	0x25a
 1496 023d 06       		.uleb128 0x6
 1497 023e A3030000 		.4byte	.LASF24
 1498 0242 04       		.byte	0x4
 1499 0243 62       		.byte	0x62
 1500 0244 5A020000 		.4byte	0x25a
 1501 0248 02       		.byte	0x2
 1502 0249 23       		.byte	0x23
 1503 024a 00       		.uleb128 0
 1504 024b 06       		.uleb128 0x6
 1505 024c 0B030000 		.4byte	.LASF25
 1506 0250 04       		.byte	0x4
 1507 0251 64       		.byte	0x64
 1508 0252 5A020000 		.4byte	0x25a
 1509 0256 02       		.byte	0x2
 1510 0257 23       		.byte	0x23
 1511 0258 04       		.uleb128 0x4
 1512 0259 00       		.byte	0
 1513 025a 09       		.uleb128 0x9
 1514 025b 04       		.byte	0x4
 1515 025c 05010000 		.4byte	0x105
 1516 0260 04       		.uleb128 0x4
 1517 0261 C1020000 		.4byte	.LASF43
 1518 0265 04       		.byte	0x4
 1519 0266 66       		.byte	0x66
 1520 0267 35020000 		.4byte	0x235
 1521 026b 08       		.uleb128 0x8
 1522 026c 04       		.byte	0x4
ARM GAS  C:\Users\jenny\AppData\Local\Temp\ccPzuVgt.s 			page 28


 1523 026d 04       		.byte	0x4
 1524 026e 6B       		.byte	0x6b
 1525 026f 82020000 		.4byte	0x282
 1526 0273 06       		.uleb128 0x6
 1527 0274 A3030000 		.4byte	.LASF24
 1528 0278 04       		.byte	0x4
 1529 0279 6D       		.byte	0x6d
 1530 027a 5A020000 		.4byte	0x25a
 1531 027e 02       		.byte	0x2
 1532 027f 23       		.byte	0x23
 1533 0280 00       		.uleb128 0
 1534 0281 00       		.byte	0
 1535 0282 04       		.uleb128 0x4
 1536 0283 69020000 		.4byte	.LASF44
 1537 0287 04       		.byte	0x4
 1538 0288 70       		.byte	0x70
 1539 0289 6B020000 		.4byte	0x26b
 1540 028d 04       		.uleb128 0x4
 1541 028e A1010000 		.4byte	.LASF45
 1542 0292 06       		.byte	0x6
 1543 0293 E5       		.byte	0xe5
 1544 0294 98020000 		.4byte	0x298
 1545 0298 0A       		.uleb128 0xa
 1546 0299 04       		.byte	0x4
 1547 029a 0B       		.uleb128 0xb
 1548 029b 17040000 		.4byte	.LASF46
 1549 029f 64       		.byte	0x64
 1550 02a0 06       		.byte	0x6
 1551 02a1 0C01     		.2byte	0x10c
 1552 02a3 18040000 		.4byte	0x418
 1553 02a7 0C       		.uleb128 0xc
 1554 02a8 73313600 		.ascii	"s16\000"
 1555 02ac 06       		.byte	0x6
 1556 02ad 0E01     		.2byte	0x10e
 1557 02af 8D020000 		.4byte	0x28d
 1558 02b3 02       		.byte	0x2
 1559 02b4 23       		.byte	0x23
 1560 02b5 00       		.uleb128 0
 1561 02b6 0C       		.uleb128 0xc
 1562 02b7 73313700 		.ascii	"s17\000"
 1563 02bb 06       		.byte	0x6
 1564 02bc 0F01     		.2byte	0x10f
 1565 02be 8D020000 		.4byte	0x28d
 1566 02c2 02       		.byte	0x2
 1567 02c3 23       		.byte	0x23
 1568 02c4 04       		.uleb128 0x4
 1569 02c5 0C       		.uleb128 0xc
 1570 02c6 73313800 		.ascii	"s18\000"
 1571 02ca 06       		.byte	0x6
 1572 02cb 1001     		.2byte	0x110
 1573 02cd 8D020000 		.4byte	0x28d
 1574 02d1 02       		.byte	0x2
 1575 02d2 23       		.byte	0x23
 1576 02d3 08       		.uleb128 0x8
 1577 02d4 0C       		.uleb128 0xc
 1578 02d5 73313900 		.ascii	"s19\000"
 1579 02d9 06       		.byte	0x6
ARM GAS  C:\Users\jenny\AppData\Local\Temp\ccPzuVgt.s 			page 29


 1580 02da 1101     		.2byte	0x111
 1581 02dc 8D020000 		.4byte	0x28d
 1582 02e0 02       		.byte	0x2
 1583 02e1 23       		.byte	0x23
 1584 02e2 0C       		.uleb128 0xc
 1585 02e3 0C       		.uleb128 0xc
 1586 02e4 73323000 		.ascii	"s20\000"
 1587 02e8 06       		.byte	0x6
 1588 02e9 1201     		.2byte	0x112
 1589 02eb 8D020000 		.4byte	0x28d
 1590 02ef 02       		.byte	0x2
 1591 02f0 23       		.byte	0x23
 1592 02f1 10       		.uleb128 0x10
 1593 02f2 0C       		.uleb128 0xc
 1594 02f3 73323100 		.ascii	"s21\000"
 1595 02f7 06       		.byte	0x6
 1596 02f8 1301     		.2byte	0x113
 1597 02fa 8D020000 		.4byte	0x28d
 1598 02fe 02       		.byte	0x2
 1599 02ff 23       		.byte	0x23
 1600 0300 14       		.uleb128 0x14
 1601 0301 0C       		.uleb128 0xc
 1602 0302 73323200 		.ascii	"s22\000"
 1603 0306 06       		.byte	0x6
 1604 0307 1401     		.2byte	0x114
 1605 0309 8D020000 		.4byte	0x28d
 1606 030d 02       		.byte	0x2
 1607 030e 23       		.byte	0x23
 1608 030f 18       		.uleb128 0x18
 1609 0310 0C       		.uleb128 0xc
 1610 0311 73323300 		.ascii	"s23\000"
 1611 0315 06       		.byte	0x6
 1612 0316 1501     		.2byte	0x115
 1613 0318 8D020000 		.4byte	0x28d
 1614 031c 02       		.byte	0x2
 1615 031d 23       		.byte	0x23
 1616 031e 1C       		.uleb128 0x1c
 1617 031f 0C       		.uleb128 0xc
 1618 0320 73323400 		.ascii	"s24\000"
 1619 0324 06       		.byte	0x6
 1620 0325 1601     		.2byte	0x116
 1621 0327 8D020000 		.4byte	0x28d
 1622 032b 02       		.byte	0x2
 1623 032c 23       		.byte	0x23
 1624 032d 20       		.uleb128 0x20
 1625 032e 0C       		.uleb128 0xc
 1626 032f 73323500 		.ascii	"s25\000"
 1627 0333 06       		.byte	0x6
 1628 0334 1701     		.2byte	0x117
 1629 0336 8D020000 		.4byte	0x28d
 1630 033a 02       		.byte	0x2
 1631 033b 23       		.byte	0x23
 1632 033c 24       		.uleb128 0x24
 1633 033d 0C       		.uleb128 0xc
 1634 033e 73323600 		.ascii	"s26\000"
 1635 0342 06       		.byte	0x6
 1636 0343 1801     		.2byte	0x118
ARM GAS  C:\Users\jenny\AppData\Local\Temp\ccPzuVgt.s 			page 30


 1637 0345 8D020000 		.4byte	0x28d
 1638 0349 02       		.byte	0x2
 1639 034a 23       		.byte	0x23
 1640 034b 28       		.uleb128 0x28
 1641 034c 0C       		.uleb128 0xc
 1642 034d 73323700 		.ascii	"s27\000"
 1643 0351 06       		.byte	0x6
 1644 0352 1901     		.2byte	0x119
 1645 0354 8D020000 		.4byte	0x28d
 1646 0358 02       		.byte	0x2
 1647 0359 23       		.byte	0x23
 1648 035a 2C       		.uleb128 0x2c
 1649 035b 0C       		.uleb128 0xc
 1650 035c 73323800 		.ascii	"s28\000"
 1651 0360 06       		.byte	0x6
 1652 0361 1A01     		.2byte	0x11a
 1653 0363 8D020000 		.4byte	0x28d
 1654 0367 02       		.byte	0x2
 1655 0368 23       		.byte	0x23
 1656 0369 30       		.uleb128 0x30
 1657 036a 0C       		.uleb128 0xc
 1658 036b 73323900 		.ascii	"s29\000"
 1659 036f 06       		.byte	0x6
 1660 0370 1B01     		.2byte	0x11b
 1661 0372 8D020000 		.4byte	0x28d
 1662 0376 02       		.byte	0x2
 1663 0377 23       		.byte	0x23
 1664 0378 34       		.uleb128 0x34
 1665 0379 0C       		.uleb128 0xc
 1666 037a 73333000 		.ascii	"s30\000"
 1667 037e 06       		.byte	0x6
 1668 037f 1C01     		.2byte	0x11c
 1669 0381 8D020000 		.4byte	0x28d
 1670 0385 02       		.byte	0x2
 1671 0386 23       		.byte	0x23
 1672 0387 38       		.uleb128 0x38
 1673 0388 0C       		.uleb128 0xc
 1674 0389 73333100 		.ascii	"s31\000"
 1675 038d 06       		.byte	0x6
 1676 038e 1D01     		.2byte	0x11d
 1677 0390 8D020000 		.4byte	0x28d
 1678 0394 02       		.byte	0x2
 1679 0395 23       		.byte	0x23
 1680 0396 3C       		.uleb128 0x3c
 1681 0397 0C       		.uleb128 0xc
 1682 0398 723400   		.ascii	"r4\000"
 1683 039b 06       		.byte	0x6
 1684 039c 1F01     		.2byte	0x11f
 1685 039e 8D020000 		.4byte	0x28d
 1686 03a2 02       		.byte	0x2
 1687 03a3 23       		.byte	0x23
 1688 03a4 40       		.uleb128 0x40
 1689 03a5 0C       		.uleb128 0xc
 1690 03a6 723500   		.ascii	"r5\000"
 1691 03a9 06       		.byte	0x6
 1692 03aa 2001     		.2byte	0x120
 1693 03ac 8D020000 		.4byte	0x28d
ARM GAS  C:\Users\jenny\AppData\Local\Temp\ccPzuVgt.s 			page 31


 1694 03b0 02       		.byte	0x2
 1695 03b1 23       		.byte	0x23
 1696 03b2 44       		.uleb128 0x44
 1697 03b3 0C       		.uleb128 0xc
 1698 03b4 723600   		.ascii	"r6\000"
 1699 03b7 06       		.byte	0x6
 1700 03b8 2101     		.2byte	0x121
 1701 03ba 8D020000 		.4byte	0x28d
 1702 03be 02       		.byte	0x2
 1703 03bf 23       		.byte	0x23
 1704 03c0 48       		.uleb128 0x48
 1705 03c1 0C       		.uleb128 0xc
 1706 03c2 723700   		.ascii	"r7\000"
 1707 03c5 06       		.byte	0x6
 1708 03c6 2201     		.2byte	0x122
 1709 03c8 8D020000 		.4byte	0x28d
 1710 03cc 02       		.byte	0x2
 1711 03cd 23       		.byte	0x23
 1712 03ce 4C       		.uleb128 0x4c
 1713 03cf 0C       		.uleb128 0xc
 1714 03d0 723800   		.ascii	"r8\000"
 1715 03d3 06       		.byte	0x6
 1716 03d4 2301     		.2byte	0x123
 1717 03d6 8D020000 		.4byte	0x28d
 1718 03da 02       		.byte	0x2
 1719 03db 23       		.byte	0x23
 1720 03dc 50       		.uleb128 0x50
 1721 03dd 0C       		.uleb128 0xc
 1722 03de 723900   		.ascii	"r9\000"
 1723 03e1 06       		.byte	0x6
 1724 03e2 2401     		.2byte	0x124
 1725 03e4 8D020000 		.4byte	0x28d
 1726 03e8 02       		.byte	0x2
 1727 03e9 23       		.byte	0x23
 1728 03ea 54       		.uleb128 0x54
 1729 03eb 0C       		.uleb128 0xc
 1730 03ec 72313000 		.ascii	"r10\000"
 1731 03f0 06       		.byte	0x6
 1732 03f1 2501     		.2byte	0x125
 1733 03f3 8D020000 		.4byte	0x28d
 1734 03f7 02       		.byte	0x2
 1735 03f8 23       		.byte	0x23
 1736 03f9 58       		.uleb128 0x58
 1737 03fa 0C       		.uleb128 0xc
 1738 03fb 72313100 		.ascii	"r11\000"
 1739 03ff 06       		.byte	0x6
 1740 0400 2601     		.2byte	0x126
 1741 0402 8D020000 		.4byte	0x28d
 1742 0406 02       		.byte	0x2
 1743 0407 23       		.byte	0x23
 1744 0408 5C       		.uleb128 0x5c
 1745 0409 0C       		.uleb128 0xc
 1746 040a 6C7200   		.ascii	"lr\000"
 1747 040d 06       		.byte	0x6
 1748 040e 2701     		.2byte	0x127
 1749 0410 8D020000 		.4byte	0x28d
 1750 0414 02       		.byte	0x2
ARM GAS  C:\Users\jenny\AppData\Local\Temp\ccPzuVgt.s 			page 32


 1751 0415 23       		.byte	0x23
 1752 0416 60       		.uleb128 0x60
 1753 0417 00       		.byte	0
 1754 0418 0B       		.uleb128 0xb
 1755 0419 16020000 		.4byte	.LASF47
 1756 041d 04       		.byte	0x4
 1757 041e 06       		.byte	0x6
 1758 041f 3101     		.2byte	0x131
 1759 0421 35040000 		.4byte	0x435
 1760 0425 0C       		.uleb128 0xc
 1761 0426 72313300 		.ascii	"r13\000"
 1762 042a 06       		.byte	0x6
 1763 042b 3201     		.2byte	0x132
 1764 042d 35040000 		.4byte	0x435
 1765 0431 02       		.byte	0x2
 1766 0432 23       		.byte	0x23
 1767 0433 00       		.uleb128 0
 1768 0434 00       		.byte	0
 1769 0435 09       		.uleb128 0x9
 1770 0436 04       		.byte	0x4
 1771 0437 9A020000 		.4byte	0x29a
 1772 043b 03       		.uleb128 0x3
 1773 043c 04       		.byte	0x4
 1774 043d 07       		.byte	0x7
 1775 043e 87020000 		.4byte	.LASF48
 1776 0442 0D       		.uleb128 0xd
 1777 0443 FA000000 		.4byte	0xfa
 1778 0447 08       		.uleb128 0x8
 1779 0448 1C       		.byte	0x1c
 1780 0449 07       		.byte	0x7
 1781 044a 5E       		.byte	0x5e
 1782 044b A4040000 		.4byte	0x4a4
 1783 044f 06       		.uleb128 0x6
 1784 0450 DB030000 		.4byte	.LASF49
 1785 0454 07       		.byte	0x7
 1786 0455 5F       		.byte	0x5f
 1787 0456 60020000 		.4byte	0x260
 1788 045a 02       		.byte	0x2
 1789 045b 23       		.byte	0x23
 1790 045c 00       		.uleb128 0
 1791 045d 06       		.uleb128 0x6
 1792 045e 7E030000 		.4byte	.LASF50
 1793 0462 07       		.byte	0x7
 1794 0463 60       		.byte	0x60
 1795 0464 C3000000 		.4byte	0xc3
 1796 0468 02       		.byte	0x2
 1797 0469 23       		.byte	0x23
 1798 046a 08       		.uleb128 0x8
 1799 046b 06       		.uleb128 0x6
 1800 046c BB020000 		.4byte	.LASF51
 1801 0470 07       		.byte	0x7
 1802 0471 62       		.byte	0x62
 1803 0472 18040000 		.4byte	0x418
 1804 0476 02       		.byte	0x2
 1805 0477 23       		.byte	0x23
 1806 0478 0C       		.uleb128 0xc
 1807 0479 06       		.uleb128 0x6
ARM GAS  C:\Users\jenny\AppData\Local\Temp\ccPzuVgt.s 			page 33


 1808 047a 94010000 		.4byte	.LASF52
 1809 047e 07       		.byte	0x7
 1810 047f 65       		.byte	0x65
 1811 0480 5A020000 		.4byte	0x25a
 1812 0484 02       		.byte	0x2
 1813 0485 23       		.byte	0x23
 1814 0486 10       		.uleb128 0x10
 1815 0487 06       		.uleb128 0x6
 1816 0488 EA020000 		.4byte	.LASF53
 1817 048c 07       		.byte	0x7
 1818 048d 66       		.byte	0x66
 1819 048e 5A020000 		.4byte	0x25a
 1820 0492 02       		.byte	0x2
 1821 0493 23       		.byte	0x23
 1822 0494 14       		.uleb128 0x14
 1823 0495 06       		.uleb128 0x6
 1824 0496 E0020000 		.4byte	.LASF54
 1825 049a 07       		.byte	0x7
 1826 049b 69       		.byte	0x69
 1827 049c 5A020000 		.4byte	0x25a
 1828 04a0 02       		.byte	0x2
 1829 04a1 23       		.byte	0x23
 1830 04a2 18       		.uleb128 0x18
 1831 04a3 00       		.byte	0
 1832 04a4 04       		.uleb128 0x4
 1833 04a5 3C040000 		.4byte	.LASF55
 1834 04a9 07       		.byte	0x7
 1835 04aa 6B       		.byte	0x6b
 1836 04ab 47040000 		.4byte	0x447
 1837 04af 05       		.uleb128 0x5
 1838 04b0 81020000 		.4byte	.LASF56
 1839 04b4 10       		.byte	0x10
 1840 04b5 08       		.byte	0x8
 1841 04b6 2C       		.byte	0x2c
 1842 04b7 E6040000 		.4byte	0x4e6
 1843 04bb 06       		.uleb128 0x6
 1844 04bc 90000000 		.4byte	.LASF57
 1845 04c0 08       		.byte	0x8
 1846 04c1 2D       		.byte	0x2d
 1847 04c2 60020000 		.4byte	0x260
 1848 04c6 02       		.byte	0x2
 1849 04c7 23       		.byte	0x23
 1850 04c8 00       		.uleb128 0
 1851 04c9 06       		.uleb128 0x6
 1852 04ca C7040000 		.4byte	.LASF58
 1853 04ce 08       		.byte	0x8
 1854 04cf 2F       		.byte	0x2f
 1855 04d0 5A020000 		.4byte	0x25a
 1856 04d4 02       		.byte	0x2
 1857 04d5 23       		.byte	0x23
 1858 04d6 08       		.uleb128 0x8
 1859 04d7 06       		.uleb128 0x6
 1860 04d8 F4030000 		.4byte	.LASF59
 1861 04dc 08       		.byte	0x8
 1862 04dd 31       		.byte	0x31
 1863 04de E6040000 		.4byte	0x4e6
 1864 04e2 02       		.byte	0x2
ARM GAS  C:\Users\jenny\AppData\Local\Temp\ccPzuVgt.s 			page 34


 1865 04e3 23       		.byte	0x23
 1866 04e4 0C       		.uleb128 0xc
 1867 04e5 00       		.byte	0
 1868 04e6 09       		.uleb128 0x9
 1869 04e7 04       		.byte	0x4
 1870 04e8 AF040000 		.4byte	0x4af
 1871 04ec 04       		.uleb128 0x4
 1872 04ed 81020000 		.4byte	.LASF56
 1873 04f1 08       		.byte	0x8
 1874 04f2 33       		.byte	0x33
 1875 04f3 AF040000 		.4byte	0x4af
 1876 04f7 04       		.uleb128 0x4
 1877 04f8 79040000 		.4byte	.LASF60
 1878 04fc 09       		.byte	0x9
 1879 04fd 2C       		.byte	0x2c
 1880 04fe 02050000 		.4byte	0x502
 1881 0502 05       		.uleb128 0x5
 1882 0503 79040000 		.4byte	.LASF60
 1883 0507 10       		.byte	0x10
 1884 0508 09       		.byte	0x9
 1885 0509 31       		.byte	0x31
 1886 050a 47050000 		.4byte	0x547
 1887 050e 06       		.uleb128 0x6
 1888 050f 49020000 		.4byte	.LASF61
 1889 0513 09       		.byte	0x9
 1890 0514 32       		.byte	0x32
 1891 0515 47050000 		.4byte	0x547
 1892 0519 02       		.byte	0x2
 1893 051a 23       		.byte	0x23
 1894 051b 00       		.uleb128 0
 1895 051c 06       		.uleb128 0x6
 1896 051d 43030000 		.4byte	.LASF62
 1897 0521 09       		.byte	0x9
 1898 0522 35       		.byte	0x35
 1899 0523 5A020000 		.4byte	0x25a
 1900 0527 02       		.byte	0x2
 1901 0528 23       		.byte	0x23
 1902 0529 04       		.uleb128 0x4
 1903 052a 06       		.uleb128 0x6
 1904 052b F2020000 		.4byte	.LASF63
 1905 052f 09       		.byte	0x9
 1906 0530 37       		.byte	0x37
 1907 0531 E4000000 		.4byte	0xe4
 1908 0535 02       		.byte	0x2
 1909 0536 23       		.byte	0x23
 1910 0537 08       		.uleb128 0x8
 1911 0538 06       		.uleb128 0x6
 1912 0539 4F030000 		.4byte	.LASF64
 1913 053d 09       		.byte	0x9
 1914 053e 3A       		.byte	0x3a
 1915 053f EF000000 		.4byte	0xef
 1916 0543 02       		.byte	0x2
 1917 0544 23       		.byte	0x23
 1918 0545 0C       		.uleb128 0xc
 1919 0546 00       		.byte	0
 1920 0547 09       		.uleb128 0x9
 1921 0548 04       		.byte	0x4
ARM GAS  C:\Users\jenny\AppData\Local\Temp\ccPzuVgt.s 			page 35


 1922 0549 F7040000 		.4byte	0x4f7
 1923 054d 05       		.uleb128 0x5
 1924 054e C8010000 		.4byte	.LASF65
 1925 0552 04       		.byte	0x4
 1926 0553 09       		.byte	0x9
 1927 0554 41       		.byte	0x41
 1928 0555 68050000 		.4byte	0x568
 1929 0559 06       		.uleb128 0x6
 1930 055a A9040000 		.4byte	.LASF66
 1931 055e 09       		.byte	0x9
 1932 055f 42       		.byte	0x42
 1933 0560 47050000 		.4byte	0x547
 1934 0564 02       		.byte	0x2
 1935 0565 23       		.byte	0x23
 1936 0566 00       		.uleb128 0
 1937 0567 00       		.byte	0
 1938 0568 04       		.uleb128 0x4
 1939 0569 C8010000 		.4byte	.LASF65
 1940 056d 09       		.byte	0x9
 1941 056e 45       		.byte	0x45
 1942 056f 4D050000 		.4byte	0x54d
 1943 0573 04       		.uleb128 0x4
 1944 0574 D4010000 		.4byte	.LASF67
 1945 0578 09       		.byte	0x9
 1946 0579 4A       		.byte	0x4a
 1947 057a 7E050000 		.4byte	0x57e
 1948 057e 09       		.uleb128 0x9
 1949 057f 04       		.byte	0x4
 1950 0580 84050000 		.4byte	0x584
 1951 0584 0E       		.uleb128 0xe
 1952 0585 01       		.byte	0x1
 1953 0586 90050000 		.4byte	0x590
 1954 058a 0F       		.uleb128 0xf
 1955 058b D9000000 		.4byte	0xd9
 1956 058f 00       		.byte	0
 1957 0590 10       		.uleb128 0x10
 1958 0591 04       		.byte	0x4
 1959 0592 05       		.byte	0x5
 1960 0593 96       		.byte	0x96
 1961 0594 C5050000 		.4byte	0x5c5
 1962 0598 11       		.uleb128 0x11
 1963 0599 06000000 		.4byte	.LASF68
 1964 059d 05       		.byte	0x5
 1965 059e 9D       		.byte	0x9d
 1966 059f CE000000 		.4byte	0xce
 1967 05a3 11       		.uleb128 0x11
 1968 05a4 7A010000 		.4byte	.LASF69
 1969 05a8 05       		.byte	0x5
 1970 05a9 A4       		.byte	0xa4
 1971 05aa CE000000 		.4byte	0xce
 1972 05ae 11       		.uleb128 0x11
 1973 05af 9B040000 		.4byte	.LASF70
 1974 05b3 05       		.byte	0x5
 1975 05b4 AB       		.byte	0xab
 1976 05b5 98020000 		.4byte	0x298
 1977 05b9 11       		.uleb128 0x11
 1978 05ba 9C030000 		.4byte	.LASF71
ARM GAS  C:\Users\jenny\AppData\Local\Temp\ccPzuVgt.s 			page 36


 1979 05be 05       		.byte	0x5
 1980 05bf B2       		.byte	0xb2
 1981 05c0 E4000000 		.4byte	0xe4
 1982 05c4 00       		.byte	0
 1983 05c5 09       		.uleb128 0x9
 1984 05c6 04       		.byte	0x4
 1985 05c7 CB050000 		.4byte	0x5cb
 1986 05cb 12       		.uleb128 0x12
 1987 05cc D0050000 		.4byte	0x5d0
 1988 05d0 03       		.uleb128 0x3
 1989 05d1 01       		.byte	0x1
 1990 05d2 08       		.byte	0x8
 1991 05d3 E3030000 		.4byte	.LASF72
 1992 05d7 09       		.uleb128 0x9
 1993 05d8 04       		.byte	0x4
 1994 05d9 EC040000 		.4byte	0x4ec
 1995 05dd 13       		.uleb128 0x13
 1996 05de 01       		.byte	0x1
 1997 05df DF040000 		.4byte	.LASF93
 1998 05e3 01       		.byte	0x1
 1999 05e4 FB       		.byte	0xfb
 2000 05e5 01       		.byte	0x1
 2001 05e6 01       		.byte	0x1
 2002 05e7 01060000 		.4byte	0x601
 2003 05eb 14       		.uleb128 0x14
 2004 05ec 747000   		.ascii	"tp\000"
 2005 05ef 01       		.byte	0x1
 2006 05f0 FB       		.byte	0xfb
 2007 05f1 5A020000 		.4byte	0x25a
 2008 05f5 15       		.uleb128 0x15
 2009 05f6 9C010000 		.4byte	.LASF73
 2010 05fa 01       		.byte	0x1
 2011 05fb FB       		.byte	0xfb
 2012 05fc E4000000 		.4byte	0xe4
 2013 0600 00       		.byte	0
 2014 0601 16       		.uleb128 0x16
 2015 0602 01       		.byte	0x1
 2016 0603 31020000 		.4byte	.LASF74
 2017 0607 01       		.byte	0x1
 2018 0608 55       		.byte	0x55
 2019 0609 01       		.byte	0x1
 2020 060a 00000000 		.4byte	.LFB7
 2021 060e 2A000000 		.4byte	.LFE7
 2022 0612 00000000 		.4byte	.LLST0
 2023 0616 01       		.byte	0x1
 2024 0617 75060000 		.4byte	0x675
 2025 061b 17       		.uleb128 0x17
 2026 061c 65737000 		.ascii	"esp\000"
 2027 0620 01       		.byte	0x1
 2028 0621 55       		.byte	0x55
 2029 0622 75060000 		.4byte	0x675
 2030 0626 01       		.byte	0x1
 2031 0627 50       		.byte	0x50
 2032 0628 17       		.uleb128 0x17
 2033 0629 656C7000 		.ascii	"elp\000"
 2034 062d 01       		.byte	0x1
 2035 062e 55       		.byte	0x55
ARM GAS  C:\Users\jenny\AppData\Local\Temp\ccPzuVgt.s 			page 37


 2036 062f 47050000 		.4byte	0x547
 2037 0633 01       		.byte	0x1
 2038 0634 51       		.byte	0x51
 2039 0635 18       		.uleb128 0x18
 2040 0636 9C010000 		.4byte	.LASF73
 2041 063a 01       		.byte	0x1
 2042 063b 55       		.byte	0x55
 2043 063c E4000000 		.4byte	0xe4
 2044 0640 01       		.byte	0x1
 2045 0641 52       		.byte	0x52
 2046 0642 19       		.uleb128 0x19
 2047 0643 02000000 		.4byte	.LBB2
 2048 0647 08000000 		.4byte	.LBE2
 2049 064b 5F060000 		.4byte	0x65f
 2050 064f 1A       		.uleb128 0x1a
 2051 0650 746D7000 		.ascii	"tmp\000"
 2052 0654 01       		.byte	0x1
 2053 0655 59       		.byte	0x59
 2054 0656 70000000 		.4byte	0x70
 2055 065a 20000000 		.4byte	.LLST1
 2056 065e 00       		.byte	0
 2057 065f 1B       		.uleb128 0x1b
 2058 0660 00000000 		.4byte	.Ldebug_ranges0+0
 2059 0664 1A       		.uleb128 0x1a
 2060 0665 746D7000 		.ascii	"tmp\000"
 2061 0669 01       		.byte	0x1
 2062 066a 5F       		.byte	0x5f
 2063 066b 70000000 		.4byte	0x70
 2064 066f 33000000 		.4byte	.LLST2
 2065 0673 00       		.byte	0
 2066 0674 00       		.byte	0
 2067 0675 09       		.uleb128 0x9
 2068 0676 04       		.byte	0x4
 2069 0677 68050000 		.4byte	0x568
 2070 067b 1C       		.uleb128 0x1c
 2071 067c 01       		.byte	0x1
 2072 067d 51020000 		.4byte	.LASF75
 2073 0681 01       		.byte	0x1
 2074 0682 6F       		.byte	0x6f
 2075 0683 01       		.byte	0x1
 2076 0684 00000000 		.4byte	.LFB8
 2077 0688 22000000 		.4byte	.LFE8
 2078 068c 02       		.byte	0x2
 2079 068d 7D       		.byte	0x7d
 2080 068e 00       		.sleb128 0
 2081 068f 01       		.byte	0x1
 2082 0690 F4060000 		.4byte	0x6f4
 2083 0694 1D       		.uleb128 0x1d
 2084 0695 65737000 		.ascii	"esp\000"
 2085 0699 01       		.byte	0x1
 2086 069a 6F       		.byte	0x6f
 2087 069b 75060000 		.4byte	0x675
 2088 069f 46000000 		.4byte	.LLST3
 2089 06a3 17       		.uleb128 0x17
 2090 06a4 656C7000 		.ascii	"elp\000"
 2091 06a8 01       		.byte	0x1
 2092 06a9 6F       		.byte	0x6f
ARM GAS  C:\Users\jenny\AppData\Local\Temp\ccPzuVgt.s 			page 38


 2093 06aa 47050000 		.4byte	0x547
 2094 06ae 01       		.byte	0x1
 2095 06af 51       		.byte	0x51
 2096 06b0 1A       		.uleb128 0x1a
 2097 06b1 7000     		.ascii	"p\000"
 2098 06b3 01       		.byte	0x1
 2099 06b4 70       		.byte	0x70
 2100 06b5 47050000 		.4byte	0x547
 2101 06b9 67000000 		.4byte	.LLST4
 2102 06bd 19       		.uleb128 0x19
 2103 06be 00000000 		.4byte	.LBB5
 2104 06c2 06000000 		.4byte	.LBE5
 2105 06c6 DA060000 		.4byte	0x6da
 2106 06ca 1A       		.uleb128 0x1a
 2107 06cb 746D7000 		.ascii	"tmp\000"
 2108 06cf 01       		.byte	0x1
 2109 06d0 75       		.byte	0x75
 2110 06d1 70000000 		.4byte	0x70
 2111 06d5 85000000 		.4byte	.LLST5
 2112 06d9 00       		.byte	0
 2113 06da 1E       		.uleb128 0x1e
 2114 06db 1A000000 		.4byte	.LBB6
 2115 06df 22000000 		.4byte	.LBE6
 2116 06e3 1A       		.uleb128 0x1a
 2117 06e4 746D7000 		.ascii	"tmp\000"
 2118 06e8 01       		.byte	0x1
 2119 06e9 7D       		.byte	0x7d
 2120 06ea 70000000 		.4byte	0x70
 2121 06ee A3000000 		.4byte	.LLST6
 2122 06f2 00       		.byte	0
 2123 06f3 00       		.byte	0
 2124 06f4 1F       		.uleb128 0x1f
 2125 06f5 01       		.byte	0x1
 2126 06f6 FF010000 		.4byte	.LASF76
 2127 06fa 01       		.byte	0x1
 2128 06fb 88       		.byte	0x88
 2129 06fc 01       		.byte	0x1
 2130 06fd E4000000 		.4byte	0xe4
 2131 0701 00000000 		.4byte	.LFB9
 2132 0705 26000000 		.4byte	.LFE9
 2133 0709 B6000000 		.4byte	.LLST7
 2134 070d 01       		.byte	0x1
 2135 070e 61070000 		.4byte	0x761
 2136 0712 20       		.uleb128 0x20
 2137 0713 9C010000 		.4byte	.LASF73
 2138 0717 01       		.byte	0x1
 2139 0718 88       		.byte	0x88
 2140 0719 E4000000 		.4byte	0xe4
 2141 071d D6000000 		.4byte	.LLST8
 2142 0721 1A       		.uleb128 0x1a
 2143 0722 6D00     		.ascii	"m\000"
 2144 0724 01       		.byte	0x1
 2145 0725 89       		.byte	0x89
 2146 0726 E4000000 		.4byte	0xe4
 2147 072a F7000000 		.4byte	.LLST9
 2148 072e 19       		.uleb128 0x19
 2149 072f 02000000 		.4byte	.LBB7
ARM GAS  C:\Users\jenny\AppData\Local\Temp\ccPzuVgt.s 			page 39


 2150 0733 08000000 		.4byte	.LBE7
 2151 0737 4B070000 		.4byte	0x74b
 2152 073b 1A       		.uleb128 0x1a
 2153 073c 746D7000 		.ascii	"tmp\000"
 2154 0740 01       		.byte	0x1
 2155 0741 8B       		.byte	0x8b
 2156 0742 70000000 		.4byte	0x70
 2157 0746 1A010000 		.4byte	.LLST10
 2158 074a 00       		.byte	0
 2159 074b 1B       		.uleb128 0x1b
 2160 074c 18000000 		.4byte	.Ldebug_ranges0+0x18
 2161 0750 1A       		.uleb128 0x1a
 2162 0751 746D7000 		.ascii	"tmp\000"
 2163 0755 01       		.byte	0x1
 2164 0756 90       		.byte	0x90
 2165 0757 70000000 		.4byte	0x70
 2166 075b 2D010000 		.4byte	.LLST11
 2167 075f 00       		.byte	0
 2168 0760 00       		.byte	0
 2169 0761 21       		.uleb128 0x21
 2170 0762 01       		.byte	0x1
 2171 0763 30000000 		.4byte	.LASF77
 2172 0767 01       		.byte	0x1
 2173 0768 9D       		.byte	0x9d
 2174 0769 01       		.byte	0x1
 2175 076a E4000000 		.4byte	0xe4
 2176 076e 00000000 		.4byte	.LFB10
 2177 0772 1E000000 		.4byte	.LFE10
 2178 0776 02       		.byte	0x2
 2179 0777 7D       		.byte	0x7d
 2180 0778 00       		.sleb128 0
 2181 0779 01       		.byte	0x1
 2182 077a C0070000 		.4byte	0x7c0
 2183 077e 20       		.uleb128 0x20
 2184 077f 9C010000 		.4byte	.LASF73
 2185 0783 01       		.byte	0x1
 2186 0784 9D       		.byte	0x9d
 2187 0785 E4000000 		.4byte	0xe4
 2188 0789 40010000 		.4byte	.LLST12
 2189 078d 19       		.uleb128 0x19
 2190 078e 00000000 		.4byte	.LBB10
 2191 0792 06000000 		.4byte	.LBE10
 2192 0796 AA070000 		.4byte	0x7aa
 2193 079a 1A       		.uleb128 0x1a
 2194 079b 746D7000 		.ascii	"tmp\000"
 2195 079f 01       		.byte	0x1
 2196 07a0 9F       		.byte	0x9f
 2197 07a1 70000000 		.4byte	0x70
 2198 07a5 6C010000 		.4byte	.LLST13
 2199 07a9 00       		.byte	0
 2200 07aa 1B       		.uleb128 0x1b
 2201 07ab 30000000 		.4byte	.Ldebug_ranges0+0x30
 2202 07af 1A       		.uleb128 0x1a
 2203 07b0 746D7000 		.ascii	"tmp\000"
 2204 07b4 01       		.byte	0x1
 2205 07b5 A3       		.byte	0xa3
 2206 07b6 70000000 		.4byte	0x70
ARM GAS  C:\Users\jenny\AppData\Local\Temp\ccPzuVgt.s 			page 40


 2207 07ba 7F010000 		.4byte	.LLST14
 2208 07be 00       		.byte	0
 2209 07bf 00       		.byte	0
 2210 07c0 21       		.uleb128 0x21
 2211 07c1 01       		.byte	0x1
 2212 07c2 B1040000 		.4byte	.LASF78
 2213 07c6 01       		.byte	0x1
 2214 07c7 D1       		.byte	0xd1
 2215 07c8 01       		.byte	0x1
 2216 07c9 EF000000 		.4byte	0xef
 2217 07cd 00000000 		.4byte	.LFB12
 2218 07d1 14000000 		.4byte	.LFE12
 2219 07d5 02       		.byte	0x2
 2220 07d6 7D       		.byte	0x7d
 2221 07d7 00       		.sleb128 0
 2222 07d8 01       		.byte	0x1
 2223 07d9 2E080000 		.4byte	0x82e
 2224 07dd 1D       		.uleb128 0x1d
 2225 07de 656C7000 		.ascii	"elp\000"
 2226 07e2 01       		.byte	0x1
 2227 07e3 D1       		.byte	0xd1
 2228 07e4 47050000 		.4byte	0x547
 2229 07e8 92010000 		.4byte	.LLST15
 2230 07ec 22       		.uleb128 0x22
 2231 07ed 54040000 		.4byte	.LASF79
 2232 07f1 01       		.byte	0x1
 2233 07f2 D2       		.byte	0xd2
 2234 07f3 EF000000 		.4byte	0xef
 2235 07f7 01       		.byte	0x1
 2236 07f8 50       		.byte	0x50
 2237 07f9 19       		.uleb128 0x19
 2238 07fa 02000000 		.4byte	.LBB13
 2239 07fe 08000000 		.4byte	.LBE13
 2240 0802 16080000 		.4byte	0x816
 2241 0806 1A       		.uleb128 0x1a
 2242 0807 746D7000 		.ascii	"tmp\000"
 2243 080b 01       		.byte	0x1
 2244 080c D4       		.byte	0xd4
 2245 080d 70000000 		.4byte	0x70
 2246 0811 B0010000 		.4byte	.LLST16
 2247 0815 00       		.byte	0
 2248 0816 1E       		.uleb128 0x1e
 2249 0817 0E000000 		.4byte	.LBB14
 2250 081b 12000000 		.4byte	.LBE14
 2251 081f 23       		.uleb128 0x23
 2252 0820 746D7000 		.ascii	"tmp\000"
 2253 0824 01       		.byte	0x1
 2254 0825 D9       		.byte	0xd9
 2255 0826 70000000 		.4byte	0x70
 2256 082a 01       		.byte	0x1
 2257 082b 53       		.byte	0x53
 2258 082c 00       		.byte	0
 2259 082d 00       		.byte	0
 2260 082e 24       		.uleb128 0x24
 2261 082f DD050000 		.4byte	0x5dd
 2262 0833 00000000 		.4byte	.LFB14
 2263 0837 2E000000 		.4byte	.LFE14
ARM GAS  C:\Users\jenny\AppData\Local\Temp\ccPzuVgt.s 			page 41


 2264 083b C3010000 		.4byte	.LLST17
 2265 083f 01       		.byte	0x1
 2266 0840 90080000 		.4byte	0x890
 2267 0844 25       		.uleb128 0x25
 2268 0845 EB050000 		.4byte	0x5eb
 2269 0849 E3010000 		.4byte	.LLST18
 2270 084d 25       		.uleb128 0x25
 2271 084e F5050000 		.4byte	0x5f5
 2272 0852 0F020000 		.4byte	.LLST19
 2273 0856 26       		.uleb128 0x26
 2274 0857 DD050000 		.4byte	0x5dd
 2275 085b 1C000000 		.4byte	.LBB17
 2276 085f 26000000 		.4byte	.LBE17
 2277 0863 01       		.byte	0x1
 2278 0864 FB       		.byte	0xfb
 2279 0865 25       		.uleb128 0x25
 2280 0866 EB050000 		.4byte	0x5eb
 2281 086a 30020000 		.4byte	.LLST20
 2282 086e 1E       		.uleb128 0x1e
 2283 086f 1C000000 		.4byte	.LBB18
 2284 0873 26000000 		.4byte	.LBE18
 2285 0877 27       		.uleb128 0x27
 2286 0878 F5050000 		.4byte	0x5f5
 2287 087c 28       		.uleb128 0x28
 2288 087d 20000000 		.4byte	.LVL38
 2289 0881 D60E0000 		.4byte	0xed6
 2290 0885 29       		.uleb128 0x29
 2291 0886 01       		.byte	0x1
 2292 0887 50       		.byte	0x50
 2293 0888 03       		.byte	0x3
 2294 0889 F3       		.byte	0xf3
 2295 088a 01       		.uleb128 0x1
 2296 088b 50       		.byte	0x50
 2297 088c 00       		.byte	0
 2298 088d 00       		.byte	0
 2299 088e 00       		.byte	0
 2300 088f 00       		.byte	0
 2301 0890 16       		.uleb128 0x16
 2302 0891 01       		.byte	0x1
 2303 0892 0D000000 		.4byte	.LASF80
 2304 0896 01       		.byte	0x1
 2305 0897 E5       		.byte	0xe5
 2306 0898 01       		.byte	0x1
 2307 0899 00000000 		.4byte	.LFB13
 2308 089d 18000000 		.4byte	.LFE13
 2309 08a1 51020000 		.4byte	.LLST21
 2310 08a5 01       		.byte	0x1
 2311 08a6 27090000 		.4byte	0x927
 2312 08aa 1D       		.uleb128 0x1d
 2313 08ab 747000   		.ascii	"tp\000"
 2314 08ae 01       		.byte	0x1
 2315 08af E5       		.byte	0xe5
 2316 08b0 5A020000 		.4byte	0x25a
 2317 08b4 71020000 		.4byte	.LLST22
 2318 08b8 20       		.uleb128 0x20
 2319 08b9 9C010000 		.4byte	.LASF73
 2320 08bd 01       		.byte	0x1
ARM GAS  C:\Users\jenny\AppData\Local\Temp\ccPzuVgt.s 			page 42


 2321 08be E5       		.byte	0xe5
 2322 08bf E4000000 		.4byte	0xe4
 2323 08c3 92020000 		.4byte	.LLST23
 2324 08c7 19       		.uleb128 0x19
 2325 08c8 02000000 		.4byte	.LBB19
 2326 08cc 08000000 		.4byte	.LBE19
 2327 08d0 E4080000 		.4byte	0x8e4
 2328 08d4 1A       		.uleb128 0x1a
 2329 08d5 746D7000 		.ascii	"tmp\000"
 2330 08d9 01       		.byte	0x1
 2331 08da E9       		.byte	0xe9
 2332 08db 70000000 		.4byte	0x70
 2333 08df B3020000 		.4byte	.LLST24
 2334 08e3 00       		.byte	0
 2335 08e4 19       		.uleb128 0x19
 2336 08e5 10000000 		.4byte	.LBB20
 2337 08e9 18000000 		.4byte	.LBE20
 2338 08ed 01090000 		.4byte	0x901
 2339 08f1 1A       		.uleb128 0x1a
 2340 08f2 746D7000 		.ascii	"tmp\000"
 2341 08f6 01       		.byte	0x1
 2342 08f7 EC       		.byte	0xec
 2343 08f8 70000000 		.4byte	0x70
 2344 08fc C6020000 		.4byte	.LLST25
 2345 0900 00       		.byte	0
 2346 0901 2A       		.uleb128 0x2a
 2347 0902 0C000000 		.4byte	.LVL43
 2348 0906 DD050000 		.4byte	0x5dd
 2349 090a 1D090000 		.4byte	0x91d
 2350 090e 29       		.uleb128 0x29
 2351 090f 01       		.byte	0x1
 2352 0910 51       		.byte	0x51
 2353 0911 03       		.byte	0x3
 2354 0912 F3       		.byte	0xf3
 2355 0913 01       		.uleb128 0x1
 2356 0914 51       		.byte	0x51
 2357 0915 29       		.uleb128 0x29
 2358 0916 01       		.byte	0x1
 2359 0917 50       		.byte	0x50
 2360 0918 03       		.byte	0x3
 2361 0919 F3       		.byte	0xf3
 2362 091a 01       		.uleb128 0x1
 2363 091b 50       		.byte	0x50
 2364 091c 00       		.byte	0
 2365 091d 2B       		.uleb128 0x2b
 2366 091e 10000000 		.4byte	.LVL44
 2367 0922 EE0E0000 		.4byte	0xeee
 2368 0926 00       		.byte	0
 2369 0927 16       		.uleb128 0x16
 2370 0928 01       		.byte	0x1
 2371 0929 5D010000 		.4byte	.LASF81
 2372 092d 01       		.byte	0x1
 2373 092e B8       		.byte	0xb8
 2374 092f 01       		.byte	0x1
 2375 0930 00000000 		.4byte	.LFB11
 2376 0934 20000000 		.4byte	.LFE11
 2377 0938 D9020000 		.4byte	.LLST26
ARM GAS  C:\Users\jenny\AppData\Local\Temp\ccPzuVgt.s 			page 43


 2378 093c 01       		.byte	0x1
 2379 093d 76090000 		.4byte	0x976
 2380 0941 1D       		.uleb128 0x1d
 2381 0942 65737000 		.ascii	"esp\000"
 2382 0946 01       		.byte	0x1
 2383 0947 B8       		.byte	0xb8
 2384 0948 75060000 		.4byte	0x675
 2385 094c F9020000 		.4byte	.LLST27
 2386 0950 20       		.uleb128 0x20
 2387 0951 54040000 		.4byte	.LASF79
 2388 0955 01       		.byte	0x1
 2389 0956 B8       		.byte	0xb8
 2390 0957 EF000000 		.4byte	0xef
 2391 095b 17030000 		.4byte	.LLST28
 2392 095f 23       		.uleb128 0x23
 2393 0960 656C7000 		.ascii	"elp\000"
 2394 0964 01       		.byte	0x1
 2395 0965 B9       		.byte	0xb9
 2396 0966 47050000 		.4byte	0x547
 2397 096a 01       		.byte	0x1
 2398 096b 54       		.byte	0x54
 2399 096c 2B       		.uleb128 0x2b
 2400 096d 18000000 		.4byte	.LVL50
 2401 0971 DD050000 		.4byte	0x5dd
 2402 0975 00       		.byte	0
 2403 0976 2C       		.uleb128 0x2c
 2404 0977 01       		.byte	0x1
 2405 0978 AA010000 		.4byte	.LASF82
 2406 097c 01       		.byte	0x1
 2407 097d 1601     		.2byte	0x116
 2408 097f 01       		.byte	0x1
 2409 0980 00000000 		.4byte	.LFB15
 2410 0984 18000000 		.4byte	.LFE15
 2411 0988 35030000 		.4byte	.LLST29
 2412 098c 01       		.byte	0x1
 2413 098d 130A0000 		.4byte	0xa13
 2414 0991 2D       		.uleb128 0x2d
 2415 0992 65737000 		.ascii	"esp\000"
 2416 0996 01       		.byte	0x1
 2417 0997 1601     		.2byte	0x116
 2418 0999 75060000 		.4byte	0x675
 2419 099d 55030000 		.4byte	.LLST30
 2420 09a1 2E       		.uleb128 0x2e
 2421 09a2 54040000 		.4byte	.LASF79
 2422 09a6 01       		.byte	0x1
 2423 09a7 1601     		.2byte	0x116
 2424 09a9 EF000000 		.4byte	0xef
 2425 09ad 76030000 		.4byte	.LLST31
 2426 09b1 19       		.uleb128 0x19
 2427 09b2 02000000 		.4byte	.LBB21
 2428 09b6 08000000 		.4byte	.LBE21
 2429 09ba CF090000 		.4byte	0x9cf
 2430 09be 2F       		.uleb128 0x2f
 2431 09bf 746D7000 		.ascii	"tmp\000"
 2432 09c3 01       		.byte	0x1
 2433 09c4 1801     		.2byte	0x118
 2434 09c6 70000000 		.4byte	0x70
ARM GAS  C:\Users\jenny\AppData\Local\Temp\ccPzuVgt.s 			page 44


 2435 09ca 97030000 		.4byte	.LLST32
 2436 09ce 00       		.byte	0
 2437 09cf 19       		.uleb128 0x19
 2438 09d0 10000000 		.4byte	.LBB22
 2439 09d4 18000000 		.4byte	.LBE22
 2440 09d8 ED090000 		.4byte	0x9ed
 2441 09dc 2F       		.uleb128 0x2f
 2442 09dd 746D7000 		.ascii	"tmp\000"
 2443 09e1 01       		.byte	0x1
 2444 09e2 1B01     		.2byte	0x11b
 2445 09e4 70000000 		.4byte	0x70
 2446 09e8 AA030000 		.4byte	.LLST33
 2447 09ec 00       		.byte	0
 2448 09ed 2A       		.uleb128 0x2a
 2449 09ee 0C000000 		.4byte	.LVL55
 2450 09f2 27090000 		.4byte	0x927
 2451 09f6 090A0000 		.4byte	0xa09
 2452 09fa 29       		.uleb128 0x29
 2453 09fb 01       		.byte	0x1
 2454 09fc 51       		.byte	0x51
 2455 09fd 03       		.byte	0x3
 2456 09fe F3       		.byte	0xf3
 2457 09ff 01       		.uleb128 0x1
 2458 0a00 51       		.byte	0x51
 2459 0a01 29       		.uleb128 0x29
 2460 0a02 01       		.byte	0x1
 2461 0a03 50       		.byte	0x50
 2462 0a04 03       		.byte	0x3
 2463 0a05 F3       		.byte	0xf3
 2464 0a06 01       		.uleb128 0x1
 2465 0a07 50       		.byte	0x50
 2466 0a08 00       		.byte	0
 2467 0a09 2B       		.uleb128 0x2b
 2468 0a0a 10000000 		.4byte	.LVL56
 2469 0a0e EE0E0000 		.4byte	0xeee
 2470 0a12 00       		.byte	0
 2471 0a13 30       		.uleb128 0x30
 2472 0a14 01       		.byte	0x1
 2473 0a15 85030000 		.4byte	.LASF83
 2474 0a19 01       		.byte	0x1
 2475 0a1a 2901     		.2byte	0x129
 2476 0a1c 01       		.byte	0x1
 2477 0a1d EF000000 		.4byte	0xef
 2478 0a21 00000000 		.4byte	.LFB16
 2479 0a25 0A000000 		.4byte	.LFE16
 2480 0a29 02       		.byte	0x2
 2481 0a2a 7D       		.byte	0x7d
 2482 0a2b 00       		.sleb128 0
 2483 0a2c 01       		.byte	0x1
 2484 0a2d 500A0000 		.4byte	0xa50
 2485 0a31 2D       		.uleb128 0x2d
 2486 0a32 656C7000 		.ascii	"elp\000"
 2487 0a36 01       		.byte	0x1
 2488 0a37 2901     		.2byte	0x129
 2489 0a39 47050000 		.4byte	0x547
 2490 0a3d BD030000 		.4byte	.LLST34
 2491 0a41 31       		.uleb128 0x31
ARM GAS  C:\Users\jenny\AppData\Local\Temp\ccPzuVgt.s 			page 45


 2492 0a42 54040000 		.4byte	.LASF79
 2493 0a46 01       		.byte	0x1
 2494 0a47 2A01     		.2byte	0x12a
 2495 0a49 EF000000 		.4byte	0xef
 2496 0a4d 01       		.byte	0x1
 2497 0a4e 50       		.byte	0x50
 2498 0a4f 00       		.byte	0
 2499 0a50 2C       		.uleb128 0x2c
 2500 0a51 01       		.byte	0x1
 2501 0a52 A5020000 		.4byte	.LASF84
 2502 0a56 01       		.byte	0x1
 2503 0a57 3B01     		.2byte	0x13b
 2504 0a59 01       		.byte	0x1
 2505 0a5a 00000000 		.4byte	.LFB17
 2506 0a5e 2E000000 		.4byte	.LFE17
 2507 0a62 DB030000 		.4byte	.LLST35
 2508 0a66 01       		.byte	0x1
 2509 0a67 A80A0000 		.4byte	0xaa8
 2510 0a6b 2E       		.uleb128 0x2e
 2511 0a6c FA020000 		.4byte	.LASF85
 2512 0a70 01       		.byte	0x1
 2513 0a71 3B01     		.2byte	0x13b
 2514 0a73 A80A0000 		.4byte	0xaa8
 2515 0a77 FB030000 		.4byte	.LLST36
 2516 0a7b 2E       		.uleb128 0x2e
 2517 0a7c 9C010000 		.4byte	.LASF73
 2518 0a80 01       		.byte	0x1
 2519 0a81 3B01     		.2byte	0x13b
 2520 0a83 E4000000 		.4byte	0xe4
 2521 0a87 19040000 		.4byte	.LLST37
 2522 0a8b 2F       		.uleb128 0x2f
 2523 0a8c 65696400 		.ascii	"eid\000"
 2524 0a90 01       		.byte	0x1
 2525 0a91 3C01     		.2byte	0x13c
 2526 0a93 D9000000 		.4byte	0xd9
 2527 0a97 37040000 		.4byte	.LLST38
 2528 0a9b 32       		.uleb128 0x32
 2529 0a9c 28000000 		.4byte	.LVL66
 2530 0aa0 29       		.uleb128 0x29
 2531 0aa1 01       		.byte	0x1
 2532 0aa2 50       		.byte	0x50
 2533 0aa3 02       		.byte	0x2
 2534 0aa4 74       		.byte	0x74
 2535 0aa5 7F       		.sleb128 -1
 2536 0aa6 00       		.byte	0
 2537 0aa7 00       		.byte	0
 2538 0aa8 09       		.uleb128 0x9
 2539 0aa9 04       		.byte	0x4
 2540 0aaa AE0A0000 		.4byte	0xaae
 2541 0aae 12       		.uleb128 0x12
 2542 0aaf 73050000 		.4byte	0x573
 2543 0ab3 33       		.uleb128 0x33
 2544 0ab4 01       		.byte	0x1
 2545 0ab5 36030000 		.4byte	.LASF86
 2546 0ab9 01       		.byte	0x1
 2547 0aba 5E01     		.2byte	0x15e
 2548 0abc 01       		.byte	0x1
ARM GAS  C:\Users\jenny\AppData\Local\Temp\ccPzuVgt.s 			page 46


 2549 0abd E4000000 		.4byte	0xe4
 2550 0ac1 00000000 		.4byte	.LFB18
 2551 0ac5 3C000000 		.4byte	.LFE18
 2552 0ac9 61040000 		.4byte	.LLST39
 2553 0acd 01       		.byte	0x1
 2554 0ace 4A0B0000 		.4byte	0xb4a
 2555 0ad2 2E       		.uleb128 0x2e
 2556 0ad3 9C010000 		.4byte	.LASF73
 2557 0ad7 01       		.byte	0x1
 2558 0ad8 5E01     		.2byte	0x15e
 2559 0ada E4000000 		.4byte	0xe4
 2560 0ade 81040000 		.4byte	.LLST40
 2561 0ae2 34       		.uleb128 0x34
 2562 0ae3 63747000 		.ascii	"ctp\000"
 2563 0ae7 01       		.byte	0x1
 2564 0ae8 5F01     		.2byte	0x15f
 2565 0aea 5A020000 		.4byte	0x25a
 2566 0aee 01       		.byte	0x1
 2567 0aef 54       		.byte	0x54
 2568 0af0 2F       		.uleb128 0x2f
 2569 0af1 6D00     		.ascii	"m\000"
 2570 0af3 01       		.byte	0x1
 2571 0af4 6001     		.2byte	0x160
 2572 0af6 E4000000 		.4byte	0xe4
 2573 0afa 9F040000 		.4byte	.LLST41
 2574 0afe 19       		.uleb128 0x19
 2575 0aff 08000000 		.4byte	.LBB23
 2576 0b03 0E000000 		.4byte	.LBE23
 2577 0b07 1C0B0000 		.4byte	0xb1c
 2578 0b0b 2F       		.uleb128 0x2f
 2579 0b0c 746D7000 		.ascii	"tmp\000"
 2580 0b10 01       		.byte	0x1
 2581 0b11 6201     		.2byte	0x162
 2582 0b13 70000000 		.4byte	0x70
 2583 0b17 D8040000 		.4byte	.LLST42
 2584 0b1b 00       		.byte	0
 2585 0b1c 19       		.uleb128 0x19
 2586 0b1d 2E000000 		.4byte	.LBB24
 2587 0b21 34000000 		.4byte	.LBE24
 2588 0b25 3A0B0000 		.4byte	0xb3a
 2589 0b29 2F       		.uleb128 0x2f
 2590 0b2a 746D7000 		.ascii	"tmp\000"
 2591 0b2e 01       		.byte	0x1
 2592 0b2f 6C01     		.2byte	0x16c
 2593 0b31 70000000 		.4byte	0x70
 2594 0b35 F6040000 		.4byte	.LLST43
 2595 0b39 00       		.byte	0
 2596 0b3a 28       		.uleb128 0x28
 2597 0b3b 1E000000 		.4byte	.LVL75
 2598 0b3f F80E0000 		.4byte	0xef8
 2599 0b43 29       		.uleb128 0x29
 2600 0b44 01       		.byte	0x1
 2601 0b45 50       		.byte	0x50
 2602 0b46 01       		.byte	0x1
 2603 0b47 38       		.byte	0x38
 2604 0b48 00       		.byte	0
 2605 0b49 00       		.byte	0
ARM GAS  C:\Users\jenny\AppData\Local\Temp\ccPzuVgt.s 			page 47


 2606 0b4a 33       		.uleb128 0x33
 2607 0b4b 01       		.byte	0x1
 2608 0b4c FD000000 		.4byte	.LASF87
 2609 0b50 01       		.byte	0x1
 2610 0b51 7B01     		.2byte	0x17b
 2611 0b53 01       		.byte	0x1
 2612 0b54 E4000000 		.4byte	0xe4
 2613 0b58 00000000 		.4byte	.LFB19
 2614 0b5c 34000000 		.4byte	.LFE19
 2615 0b60 09050000 		.4byte	.LLST44
 2616 0b64 01       		.byte	0x1
 2617 0b65 E10B0000 		.4byte	0xbe1
 2618 0b69 2E       		.uleb128 0x2e
 2619 0b6a 9C010000 		.4byte	.LASF73
 2620 0b6e 01       		.byte	0x1
 2621 0b6f 7B01     		.2byte	0x17b
 2622 0b71 E4000000 		.4byte	0xe4
 2623 0b75 29050000 		.4byte	.LLST45
 2624 0b79 34       		.uleb128 0x34
 2625 0b7a 63747000 		.ascii	"ctp\000"
 2626 0b7e 01       		.byte	0x1
 2627 0b7f 7C01     		.2byte	0x17c
 2628 0b81 5A020000 		.4byte	0x25a
 2629 0b85 01       		.byte	0x1
 2630 0b86 54       		.byte	0x54
 2631 0b87 2F       		.uleb128 0x2f
 2632 0b88 6D00     		.ascii	"m\000"
 2633 0b8a 01       		.byte	0x1
 2634 0b8b 7D01     		.2byte	0x17d
 2635 0b8d E4000000 		.4byte	0xe4
 2636 0b91 47050000 		.4byte	.LLST46
 2637 0b95 19       		.uleb128 0x19
 2638 0b96 08000000 		.4byte	.LBB25
 2639 0b9a 0E000000 		.4byte	.LBE25
 2640 0b9e B30B0000 		.4byte	0xbb3
 2641 0ba2 2F       		.uleb128 0x2f
 2642 0ba3 746D7000 		.ascii	"tmp\000"
 2643 0ba7 01       		.byte	0x1
 2644 0ba8 7F01     		.2byte	0x17f
 2645 0baa 70000000 		.4byte	0x70
 2646 0bae 85050000 		.4byte	.LLST47
 2647 0bb2 00       		.byte	0
 2648 0bb3 19       		.uleb128 0x19
 2649 0bb4 28000000 		.4byte	.LBB26
 2650 0bb8 2E000000 		.4byte	.LBE26
 2651 0bbc D10B0000 		.4byte	0xbd1
 2652 0bc0 2F       		.uleb128 0x2f
 2653 0bc1 746D7000 		.ascii	"tmp\000"
 2654 0bc5 01       		.byte	0x1
 2655 0bc6 8801     		.2byte	0x188
 2656 0bc8 70000000 		.4byte	0x70
 2657 0bcc A3050000 		.4byte	.LLST48
 2658 0bd0 00       		.byte	0
 2659 0bd1 28       		.uleb128 0x28
 2660 0bd2 1C000000 		.4byte	.LVL87
 2661 0bd6 F80E0000 		.4byte	0xef8
 2662 0bda 29       		.uleb128 0x29
ARM GAS  C:\Users\jenny\AppData\Local\Temp\ccPzuVgt.s 			page 48


 2663 0bdb 01       		.byte	0x1
 2664 0bdc 50       		.byte	0x50
 2665 0bdd 01       		.byte	0x1
 2666 0bde 38       		.byte	0x38
 2667 0bdf 00       		.byte	0
 2668 0be0 00       		.byte	0
 2669 0be1 33       		.uleb128 0x33
 2670 0be2 01       		.byte	0x1
 2671 0be3 D3020000 		.4byte	.LASF88
 2672 0be7 01       		.byte	0x1
 2673 0be8 9701     		.2byte	0x197
 2674 0bea 01       		.byte	0x1
 2675 0beb E4000000 		.4byte	0xe4
 2676 0bef 00000000 		.4byte	.LFB20
 2677 0bf3 38000000 		.4byte	.LFE20
 2678 0bf7 B6050000 		.4byte	.LLST49
 2679 0bfb 01       		.byte	0x1
 2680 0bfc 6A0C0000 		.4byte	0xc6a
 2681 0c00 2E       		.uleb128 0x2e
 2682 0c01 9C010000 		.4byte	.LASF73
 2683 0c05 01       		.byte	0x1
 2684 0c06 9701     		.2byte	0x197
 2685 0c08 E4000000 		.4byte	0xe4
 2686 0c0c D6050000 		.4byte	.LLST50
 2687 0c10 34       		.uleb128 0x34
 2688 0c11 63747000 		.ascii	"ctp\000"
 2689 0c15 01       		.byte	0x1
 2690 0c16 9801     		.2byte	0x198
 2691 0c18 5A020000 		.4byte	0x25a
 2692 0c1c 01       		.byte	0x1
 2693 0c1d 55       		.byte	0x55
 2694 0c1e 19       		.uleb128 0x19
 2695 0c1f 08000000 		.4byte	.LBB27
 2696 0c23 0E000000 		.4byte	.LBE27
 2697 0c27 3C0C0000 		.4byte	0xc3c
 2698 0c2b 2F       		.uleb128 0x2f
 2699 0c2c 746D7000 		.ascii	"tmp\000"
 2700 0c30 01       		.byte	0x1
 2701 0c31 9A01     		.2byte	0x19a
 2702 0c33 70000000 		.4byte	0x70
 2703 0c37 F4050000 		.4byte	.LLST51
 2704 0c3b 00       		.byte	0
 2705 0c3c 19       		.uleb128 0x19
 2706 0c3d 28000000 		.4byte	.LBB28
 2707 0c41 2E000000 		.4byte	.LBE28
 2708 0c45 5A0C0000 		.4byte	0xc5a
 2709 0c49 2F       		.uleb128 0x2f
 2710 0c4a 746D7000 		.ascii	"tmp\000"
 2711 0c4e 01       		.byte	0x1
 2712 0c4f A201     		.2byte	0x1a2
 2713 0c51 70000000 		.4byte	0x70
 2714 0c55 12060000 		.4byte	.LLST52
 2715 0c59 00       		.byte	0
 2716 0c5a 28       		.uleb128 0x28
 2717 0c5b 20000000 		.4byte	.LVL96
 2718 0c5f F80E0000 		.4byte	0xef8
 2719 0c63 29       		.uleb128 0x29
ARM GAS  C:\Users\jenny\AppData\Local\Temp\ccPzuVgt.s 			page 49


 2720 0c64 01       		.byte	0x1
 2721 0c65 50       		.byte	0x50
 2722 0c66 01       		.byte	0x1
 2723 0c67 39       		.byte	0x39
 2724 0c68 00       		.byte	0
 2725 0c69 00       		.byte	0
 2726 0c6a 33       		.uleb128 0x33
 2727 0c6b 01       		.byte	0x1
 2728 0c6c 87040000 		.4byte	.LASF89
 2729 0c70 01       		.byte	0x1
 2730 0c71 BE01     		.2byte	0x1be
 2731 0c73 01       		.byte	0x1
 2732 0c74 E4000000 		.4byte	0xe4
 2733 0c78 00000000 		.4byte	.LFB21
 2734 0c7c 4C000000 		.4byte	.LFE21
 2735 0c80 25060000 		.4byte	.LLST53
 2736 0c84 01       		.byte	0x1
 2737 0c85 2F0D0000 		.4byte	0xd2f
 2738 0c89 2E       		.uleb128 0x2e
 2739 0c8a 9C010000 		.4byte	.LASF73
 2740 0c8e 01       		.byte	0x1
 2741 0c8f BE01     		.2byte	0x1be
 2742 0c91 E4000000 		.4byte	0xe4
 2743 0c95 45060000 		.4byte	.LLST54
 2744 0c99 2E       		.uleb128 0x2e
 2745 0c9a CE020000 		.4byte	.LASF90
 2746 0c9e 01       		.byte	0x1
 2747 0c9f BE01     		.2byte	0x1be
 2748 0ca1 FA000000 		.4byte	0xfa
 2749 0ca5 63060000 		.4byte	.LLST55
 2750 0ca9 34       		.uleb128 0x34
 2751 0caa 63747000 		.ascii	"ctp\000"
 2752 0cae 01       		.byte	0x1
 2753 0caf BF01     		.2byte	0x1bf
 2754 0cb1 5A020000 		.4byte	0x25a
 2755 0cb5 01       		.byte	0x1
 2756 0cb6 56       		.byte	0x56
 2757 0cb7 2F       		.uleb128 0x2f
 2758 0cb8 6D00     		.ascii	"m\000"
 2759 0cba 01       		.byte	0x1
 2760 0cbb C001     		.2byte	0x1c0
 2761 0cbd E4000000 		.4byte	0xe4
 2762 0cc1 9D060000 		.4byte	.LLST56
 2763 0cc5 19       		.uleb128 0x19
 2764 0cc6 08000000 		.4byte	.LBB29
 2765 0cca 0E000000 		.4byte	.LBE29
 2766 0cce E30C0000 		.4byte	0xce3
 2767 0cd2 2F       		.uleb128 0x2f
 2768 0cd3 746D7000 		.ascii	"tmp\000"
 2769 0cd7 01       		.byte	0x1
 2770 0cd8 C201     		.2byte	0x1c2
 2771 0cda 70000000 		.4byte	0x70
 2772 0cde C0060000 		.4byte	.LLST57
 2773 0ce2 00       		.byte	0
 2774 0ce3 19       		.uleb128 0x19
 2775 0ce4 18000000 		.4byte	.LBB30
 2776 0ce8 1E000000 		.4byte	.LBE30
ARM GAS  C:\Users\jenny\AppData\Local\Temp\ccPzuVgt.s 			page 50


 2777 0cec 010D0000 		.4byte	0xd01
 2778 0cf0 2F       		.uleb128 0x2f
 2779 0cf1 746D7000 		.ascii	"tmp\000"
 2780 0cf5 01       		.byte	0x1
 2781 0cf6 CB01     		.2byte	0x1cb
 2782 0cf8 70000000 		.4byte	0x70
 2783 0cfc E9060000 		.4byte	.LLST58
 2784 0d00 00       		.byte	0
 2785 0d01 19       		.uleb128 0x19
 2786 0d02 3E000000 		.4byte	.LBB31
 2787 0d06 44000000 		.4byte	.LBE31
 2788 0d0a 1F0D0000 		.4byte	0xd1f
 2789 0d0e 2F       		.uleb128 0x2f
 2790 0d0f 746D7000 		.ascii	"tmp\000"
 2791 0d13 01       		.byte	0x1
 2792 0d14 D301     		.2byte	0x1d3
 2793 0d16 70000000 		.4byte	0x70
 2794 0d1a FC060000 		.4byte	.LLST59
 2795 0d1e 00       		.byte	0
 2796 0d1f 28       		.uleb128 0x28
 2797 0d20 2A000000 		.4byte	.LVL110
 2798 0d24 0C0F0000 		.4byte	0xf0c
 2799 0d28 29       		.uleb128 0x29
 2800 0d29 01       		.byte	0x1
 2801 0d2a 50       		.byte	0x50
 2802 0d2b 01       		.byte	0x1
 2803 0d2c 38       		.byte	0x38
 2804 0d2d 00       		.byte	0
 2805 0d2e 00       		.byte	0
 2806 0d2f 33       		.uleb128 0x33
 2807 0d30 01       		.byte	0x1
 2808 0d31 3F000000 		.4byte	.LASF91
 2809 0d35 01       		.byte	0x1
 2810 0d36 E901     		.2byte	0x1e9
 2811 0d38 01       		.byte	0x1
 2812 0d39 E4000000 		.4byte	0xe4
 2813 0d3d 00000000 		.4byte	.LFB22
 2814 0d41 48000000 		.4byte	.LFE22
 2815 0d45 0F070000 		.4byte	.LLST60
 2816 0d49 01       		.byte	0x1
 2817 0d4a F40D0000 		.4byte	0xdf4
 2818 0d4e 2E       		.uleb128 0x2e
 2819 0d4f 9C010000 		.4byte	.LASF73
 2820 0d53 01       		.byte	0x1
 2821 0d54 E901     		.2byte	0x1e9
 2822 0d56 E4000000 		.4byte	0xe4
 2823 0d5a 2F070000 		.4byte	.LLST61
 2824 0d5e 2E       		.uleb128 0x2e
 2825 0d5f CE020000 		.4byte	.LASF90
 2826 0d63 01       		.byte	0x1
 2827 0d64 E901     		.2byte	0x1e9
 2828 0d66 FA000000 		.4byte	0xfa
 2829 0d6a 63070000 		.4byte	.LLST62
 2830 0d6e 34       		.uleb128 0x34
 2831 0d6f 63747000 		.ascii	"ctp\000"
 2832 0d73 01       		.byte	0x1
 2833 0d74 EA01     		.2byte	0x1ea
ARM GAS  C:\Users\jenny\AppData\Local\Temp\ccPzuVgt.s 			page 51


 2834 0d76 5A020000 		.4byte	0x25a
 2835 0d7a 01       		.byte	0x1
 2836 0d7b 56       		.byte	0x56
 2837 0d7c 2F       		.uleb128 0x2f
 2838 0d7d 6D00     		.ascii	"m\000"
 2839 0d7f 01       		.byte	0x1
 2840 0d80 EB01     		.2byte	0x1eb
 2841 0d82 E4000000 		.4byte	0xe4
 2842 0d86 9D070000 		.4byte	.LLST63
 2843 0d8a 19       		.uleb128 0x19
 2844 0d8b 08000000 		.4byte	.LBB32
 2845 0d8f 0E000000 		.4byte	.LBE32
 2846 0d93 A80D0000 		.4byte	0xda8
 2847 0d97 2F       		.uleb128 0x2f
 2848 0d98 746D7000 		.ascii	"tmp\000"
 2849 0d9c 01       		.byte	0x1
 2850 0d9d ED01     		.2byte	0x1ed
 2851 0d9f 70000000 		.4byte	0x70
 2852 0da3 C0070000 		.4byte	.LLST64
 2853 0da7 00       		.byte	0
 2854 0da8 19       		.uleb128 0x19
 2855 0da9 18000000 		.4byte	.LBB33
 2856 0dad 1E000000 		.4byte	.LBE33
 2857 0db1 C60D0000 		.4byte	0xdc6
 2858 0db5 2F       		.uleb128 0x2f
 2859 0db6 746D7000 		.ascii	"tmp\000"
 2860 0dba 01       		.byte	0x1
 2861 0dbb F601     		.2byte	0x1f6
 2862 0dbd 70000000 		.4byte	0x70
 2863 0dc1 E9070000 		.4byte	.LLST65
 2864 0dc5 00       		.byte	0
 2865 0dc6 19       		.uleb128 0x19
 2866 0dc7 3A000000 		.4byte	.LBB34
 2867 0dcb 40000000 		.4byte	.LBE34
 2868 0dcf E40D0000 		.4byte	0xde4
 2869 0dd3 2F       		.uleb128 0x2f
 2870 0dd4 746D7000 		.ascii	"tmp\000"
 2871 0dd8 01       		.byte	0x1
 2872 0dd9 FD01     		.2byte	0x1fd
 2873 0ddb 70000000 		.4byte	0x70
 2874 0ddf FC070000 		.4byte	.LLST66
 2875 0de3 00       		.byte	0
 2876 0de4 28       		.uleb128 0x28
 2877 0de5 2A000000 		.4byte	.LVL126
 2878 0de9 0C0F0000 		.4byte	0xf0c
 2879 0ded 29       		.uleb128 0x29
 2880 0dee 01       		.byte	0x1
 2881 0def 50       		.byte	0x50
 2882 0df0 01       		.byte	0x1
 2883 0df1 38       		.byte	0x38
 2884 0df2 00       		.byte	0
 2885 0df3 00       		.byte	0
 2886 0df4 33       		.uleb128 0x33
 2887 0df5 01       		.byte	0x1
 2888 0df6 74000000 		.4byte	.LASF92
 2889 0dfa 01       		.byte	0x1
 2890 0dfb 1202     		.2byte	0x212
ARM GAS  C:\Users\jenny\AppData\Local\Temp\ccPzuVgt.s 			page 52


 2891 0dfd 01       		.byte	0x1
 2892 0dfe E4000000 		.4byte	0xe4
 2893 0e02 00000000 		.4byte	.LFB23
 2894 0e06 54000000 		.4byte	.LFE23
 2895 0e0a 0F080000 		.4byte	.LLST67
 2896 0e0e 01       		.byte	0x1
 2897 0e0f C90E0000 		.4byte	0xec9
 2898 0e13 2E       		.uleb128 0x2e
 2899 0e14 9C010000 		.4byte	.LASF73
 2900 0e18 01       		.byte	0x1
 2901 0e19 1202     		.2byte	0x212
 2902 0e1b E4000000 		.4byte	0xe4
 2903 0e1f 2F080000 		.4byte	.LLST68
 2904 0e23 2E       		.uleb128 0x2e
 2905 0e24 CE020000 		.4byte	.LASF90
 2906 0e28 01       		.byte	0x1
 2907 0e29 1202     		.2byte	0x212
 2908 0e2b FA000000 		.4byte	0xfa
 2909 0e2f 8D080000 		.4byte	.LLST69
 2910 0e33 34       		.uleb128 0x34
 2911 0e34 63747000 		.ascii	"ctp\000"
 2912 0e38 01       		.byte	0x1
 2913 0e39 1302     		.2byte	0x213
 2914 0e3b 5A020000 		.4byte	0x25a
 2915 0e3f 01       		.byte	0x1
 2916 0e40 55       		.byte	0x55
 2917 0e41 19       		.uleb128 0x19
 2918 0e42 08000000 		.4byte	.LBB35
 2919 0e46 0E000000 		.4byte	.LBE35
 2920 0e4a 5F0E0000 		.4byte	0xe5f
 2921 0e4e 2F       		.uleb128 0x2f
 2922 0e4f 746D7000 		.ascii	"tmp\000"
 2923 0e53 01       		.byte	0x1
 2924 0e54 1502     		.2byte	0x215
 2925 0e56 70000000 		.4byte	0x70
 2926 0e5a AE080000 		.4byte	.LLST70
 2927 0e5e 00       		.byte	0
 2928 0e5f 19       		.uleb128 0x19
 2929 0e60 1A000000 		.4byte	.LBB36
 2930 0e64 20000000 		.4byte	.LBE36
 2931 0e68 7D0E0000 		.4byte	0xe7d
 2932 0e6c 2F       		.uleb128 0x2f
 2933 0e6d 746D7000 		.ascii	"tmp\000"
 2934 0e71 01       		.byte	0x1
 2935 0e72 1902     		.2byte	0x219
 2936 0e74 70000000 		.4byte	0x70
 2937 0e78 C1080000 		.4byte	.LLST71
 2938 0e7c 00       		.byte	0
 2939 0e7d 19       		.uleb128 0x19
 2940 0e7e 3A000000 		.4byte	.LBB37
 2941 0e82 40000000 		.4byte	.LBE37
 2942 0e86 9B0E0000 		.4byte	0xe9b
 2943 0e8a 2F       		.uleb128 0x2f
 2944 0e8b 746D7000 		.ascii	"tmp\000"
 2945 0e8f 01       		.byte	0x1
 2946 0e90 2402     		.2byte	0x224
 2947 0e92 70000000 		.4byte	0x70
ARM GAS  C:\Users\jenny\AppData\Local\Temp\ccPzuVgt.s 			page 53


 2948 0e96 D4080000 		.4byte	.LLST72
 2949 0e9a 00       		.byte	0
 2950 0e9b 19       		.uleb128 0x19
 2951 0e9c 44000000 		.4byte	.LBB38
 2952 0ea0 4A000000 		.4byte	.LBE38
 2953 0ea4 B90E0000 		.4byte	0xeb9
 2954 0ea8 2F       		.uleb128 0x2f
 2955 0ea9 746D7000 		.ascii	"tmp\000"
 2956 0ead 01       		.byte	0x1
 2957 0eae 1E02     		.2byte	0x21e
 2958 0eb0 70000000 		.4byte	0x70
 2959 0eb4 E7080000 		.4byte	.LLST73
 2960 0eb8 00       		.byte	0
 2961 0eb9 28       		.uleb128 0x28
 2962 0eba 2E000000 		.4byte	.LVL140
 2963 0ebe 0C0F0000 		.4byte	0xf0c
 2964 0ec2 29       		.uleb128 0x29
 2965 0ec3 01       		.byte	0x1
 2966 0ec4 50       		.byte	0x50
 2967 0ec5 01       		.byte	0x1
 2968 0ec6 39       		.byte	0x39
 2969 0ec7 00       		.byte	0
 2970 0ec8 00       		.byte	0
 2971 0ec9 35       		.uleb128 0x35
 2972 0eca 46040000 		.4byte	.LASF99
 2973 0ece 07       		.byte	0x7
 2974 0ecf 6F       		.byte	0x6f
 2975 0ed0 A4040000 		.4byte	0x4a4
 2976 0ed4 01       		.byte	0x1
 2977 0ed5 01       		.byte	0x1
 2978 0ed6 36       		.uleb128 0x36
 2979 0ed7 01       		.byte	0x1
 2980 0ed8 E8030000 		.4byte	.LASF100
 2981 0edc 07       		.byte	0x7
 2982 0edd 90       		.byte	0x90
 2983 0ede 01       		.byte	0x1
 2984 0edf 5A020000 		.4byte	0x25a
 2985 0ee3 01       		.byte	0x1
 2986 0ee4 EE0E0000 		.4byte	0xeee
 2987 0ee8 0F       		.uleb128 0xf
 2988 0ee9 5A020000 		.4byte	0x25a
 2989 0eed 00       		.byte	0
 2990 0eee 37       		.uleb128 0x37
 2991 0eef 01       		.byte	0x1
 2992 0ef0 83010000 		.4byte	.LASF101
 2993 0ef4 07       		.byte	0x7
 2994 0ef5 9C       		.byte	0x9c
 2995 0ef6 01       		.byte	0x1
 2996 0ef7 01       		.byte	0x1
 2997 0ef8 38       		.uleb128 0x38
 2998 0ef9 01       		.byte	0x1
 2999 0efa B9030000 		.4byte	.LASF94
 3000 0efe 07       		.byte	0x7
 3001 0eff 93       		.byte	0x93
 3002 0f00 01       		.byte	0x1
 3003 0f01 01       		.byte	0x1
 3004 0f02 0C0F0000 		.4byte	0xf0c
ARM GAS  C:\Users\jenny\AppData\Local\Temp\ccPzuVgt.s 			page 54


 3005 0f06 0F       		.uleb128 0xf
 3006 0f07 A2000000 		.4byte	0xa2
 3007 0f0b 00       		.byte	0
 3008 0f0c 39       		.uleb128 0x39
 3009 0f0d 01       		.byte	0x1
 3010 0f0e 90020000 		.4byte	.LASF95
 3011 0f12 07       		.byte	0x7
 3012 0f13 96       		.byte	0x96
 3013 0f14 01       		.byte	0x1
 3014 0f15 CE000000 		.4byte	0xce
 3015 0f19 01       		.byte	0x1
 3016 0f1a 0F       		.uleb128 0xf
 3017 0f1b A2000000 		.4byte	0xa2
 3018 0f1f 0F       		.uleb128 0xf
 3019 0f20 FA000000 		.4byte	0xfa
 3020 0f24 00       		.byte	0
 3021 0f25 00       		.byte	0
 3022              		.section	.debug_abbrev,"",%progbits
 3023              	.Ldebug_abbrev0:
 3024 0000 01       		.uleb128 0x1
 3025 0001 11       		.uleb128 0x11
 3026 0002 01       		.byte	0x1
 3027 0003 25       		.uleb128 0x25
 3028 0004 0E       		.uleb128 0xe
 3029 0005 13       		.uleb128 0x13
 3030 0006 0B       		.uleb128 0xb
 3031 0007 03       		.uleb128 0x3
 3032 0008 0E       		.uleb128 0xe
 3033 0009 1B       		.uleb128 0x1b
 3034 000a 0E       		.uleb128 0xe
 3035 000b 55       		.uleb128 0x55
 3036 000c 06       		.uleb128 0x6
 3037 000d 11       		.uleb128 0x11
 3038 000e 01       		.uleb128 0x1
 3039 000f 52       		.uleb128 0x52
 3040 0010 01       		.uleb128 0x1
 3041 0011 10       		.uleb128 0x10
 3042 0012 06       		.uleb128 0x6
 3043 0013 00       		.byte	0
 3044 0014 00       		.byte	0
 3045 0015 02       		.uleb128 0x2
 3046 0016 24       		.uleb128 0x24
 3047 0017 00       		.byte	0
 3048 0018 0B       		.uleb128 0xb
 3049 0019 0B       		.uleb128 0xb
 3050 001a 3E       		.uleb128 0x3e
 3051 001b 0B       		.uleb128 0xb
 3052 001c 03       		.uleb128 0x3
 3053 001d 08       		.uleb128 0x8
 3054 001e 00       		.byte	0
 3055 001f 00       		.byte	0
 3056 0020 03       		.uleb128 0x3
 3057 0021 24       		.uleb128 0x24
 3058 0022 00       		.byte	0
 3059 0023 0B       		.uleb128 0xb
 3060 0024 0B       		.uleb128 0xb
 3061 0025 3E       		.uleb128 0x3e
ARM GAS  C:\Users\jenny\AppData\Local\Temp\ccPzuVgt.s 			page 55


 3062 0026 0B       		.uleb128 0xb
 3063 0027 03       		.uleb128 0x3
 3064 0028 0E       		.uleb128 0xe
 3065 0029 00       		.byte	0
 3066 002a 00       		.byte	0
 3067 002b 04       		.uleb128 0x4
 3068 002c 16       		.uleb128 0x16
 3069 002d 00       		.byte	0
 3070 002e 03       		.uleb128 0x3
 3071 002f 0E       		.uleb128 0xe
 3072 0030 3A       		.uleb128 0x3a
 3073 0031 0B       		.uleb128 0xb
 3074 0032 3B       		.uleb128 0x3b
 3075 0033 0B       		.uleb128 0xb
 3076 0034 49       		.uleb128 0x49
 3077 0035 13       		.uleb128 0x13
 3078 0036 00       		.byte	0
 3079 0037 00       		.byte	0
 3080 0038 05       		.uleb128 0x5
 3081 0039 13       		.uleb128 0x13
 3082 003a 01       		.byte	0x1
 3083 003b 03       		.uleb128 0x3
 3084 003c 0E       		.uleb128 0xe
 3085 003d 0B       		.uleb128 0xb
 3086 003e 0B       		.uleb128 0xb
 3087 003f 3A       		.uleb128 0x3a
 3088 0040 0B       		.uleb128 0xb
 3089 0041 3B       		.uleb128 0x3b
 3090 0042 0B       		.uleb128 0xb
 3091 0043 01       		.uleb128 0x1
 3092 0044 13       		.uleb128 0x13
 3093 0045 00       		.byte	0
 3094 0046 00       		.byte	0
 3095 0047 06       		.uleb128 0x6
 3096 0048 0D       		.uleb128 0xd
 3097 0049 00       		.byte	0
 3098 004a 03       		.uleb128 0x3
 3099 004b 0E       		.uleb128 0xe
 3100 004c 3A       		.uleb128 0x3a
 3101 004d 0B       		.uleb128 0xb
 3102 004e 3B       		.uleb128 0x3b
 3103 004f 0B       		.uleb128 0xb
 3104 0050 49       		.uleb128 0x49
 3105 0051 13       		.uleb128 0x13
 3106 0052 38       		.uleb128 0x38
 3107 0053 0A       		.uleb128 0xa
 3108 0054 00       		.byte	0
 3109 0055 00       		.byte	0
 3110 0056 07       		.uleb128 0x7
 3111 0057 0D       		.uleb128 0xd
 3112 0058 00       		.byte	0
 3113 0059 03       		.uleb128 0x3
 3114 005a 08       		.uleb128 0x8
 3115 005b 3A       		.uleb128 0x3a
 3116 005c 0B       		.uleb128 0xb
 3117 005d 3B       		.uleb128 0x3b
 3118 005e 0B       		.uleb128 0xb
ARM GAS  C:\Users\jenny\AppData\Local\Temp\ccPzuVgt.s 			page 56


 3119 005f 49       		.uleb128 0x49
 3120 0060 13       		.uleb128 0x13
 3121 0061 38       		.uleb128 0x38
 3122 0062 0A       		.uleb128 0xa
 3123 0063 00       		.byte	0
 3124 0064 00       		.byte	0
 3125 0065 08       		.uleb128 0x8
 3126 0066 13       		.uleb128 0x13
 3127 0067 01       		.byte	0x1
 3128 0068 0B       		.uleb128 0xb
 3129 0069 0B       		.uleb128 0xb
 3130 006a 3A       		.uleb128 0x3a
 3131 006b 0B       		.uleb128 0xb
 3132 006c 3B       		.uleb128 0x3b
 3133 006d 0B       		.uleb128 0xb
 3134 006e 01       		.uleb128 0x1
 3135 006f 13       		.uleb128 0x13
 3136 0070 00       		.byte	0
 3137 0071 00       		.byte	0
 3138 0072 09       		.uleb128 0x9
 3139 0073 0F       		.uleb128 0xf
 3140 0074 00       		.byte	0
 3141 0075 0B       		.uleb128 0xb
 3142 0076 0B       		.uleb128 0xb
 3143 0077 49       		.uleb128 0x49
 3144 0078 13       		.uleb128 0x13
 3145 0079 00       		.byte	0
 3146 007a 00       		.byte	0
 3147 007b 0A       		.uleb128 0xa
 3148 007c 0F       		.uleb128 0xf
 3149 007d 00       		.byte	0
 3150 007e 0B       		.uleb128 0xb
 3151 007f 0B       		.uleb128 0xb
 3152 0080 00       		.byte	0
 3153 0081 00       		.byte	0
 3154 0082 0B       		.uleb128 0xb
 3155 0083 13       		.uleb128 0x13
 3156 0084 01       		.byte	0x1
 3157 0085 03       		.uleb128 0x3
 3158 0086 0E       		.uleb128 0xe
 3159 0087 0B       		.uleb128 0xb
 3160 0088 0B       		.uleb128 0xb
 3161 0089 3A       		.uleb128 0x3a
 3162 008a 0B       		.uleb128 0xb
 3163 008b 3B       		.uleb128 0x3b
 3164 008c 05       		.uleb128 0x5
 3165 008d 01       		.uleb128 0x1
 3166 008e 13       		.uleb128 0x13
 3167 008f 00       		.byte	0
 3168 0090 00       		.byte	0
 3169 0091 0C       		.uleb128 0xc
 3170 0092 0D       		.uleb128 0xd
 3171 0093 00       		.byte	0
 3172 0094 03       		.uleb128 0x3
 3173 0095 08       		.uleb128 0x8
 3174 0096 3A       		.uleb128 0x3a
 3175 0097 0B       		.uleb128 0xb
ARM GAS  C:\Users\jenny\AppData\Local\Temp\ccPzuVgt.s 			page 57


 3176 0098 3B       		.uleb128 0x3b
 3177 0099 05       		.uleb128 0x5
 3178 009a 49       		.uleb128 0x49
 3179 009b 13       		.uleb128 0x13
 3180 009c 38       		.uleb128 0x38
 3181 009d 0A       		.uleb128 0xa
 3182 009e 00       		.byte	0
 3183 009f 00       		.byte	0
 3184 00a0 0D       		.uleb128 0xd
 3185 00a1 35       		.uleb128 0x35
 3186 00a2 00       		.byte	0
 3187 00a3 49       		.uleb128 0x49
 3188 00a4 13       		.uleb128 0x13
 3189 00a5 00       		.byte	0
 3190 00a6 00       		.byte	0
 3191 00a7 0E       		.uleb128 0xe
 3192 00a8 15       		.uleb128 0x15
 3193 00a9 01       		.byte	0x1
 3194 00aa 27       		.uleb128 0x27
 3195 00ab 0C       		.uleb128 0xc
 3196 00ac 01       		.uleb128 0x1
 3197 00ad 13       		.uleb128 0x13
 3198 00ae 00       		.byte	0
 3199 00af 00       		.byte	0
 3200 00b0 0F       		.uleb128 0xf
 3201 00b1 05       		.uleb128 0x5
 3202 00b2 00       		.byte	0
 3203 00b3 49       		.uleb128 0x49
 3204 00b4 13       		.uleb128 0x13
 3205 00b5 00       		.byte	0
 3206 00b6 00       		.byte	0
 3207 00b7 10       		.uleb128 0x10
 3208 00b8 17       		.uleb128 0x17
 3209 00b9 01       		.byte	0x1
 3210 00ba 0B       		.uleb128 0xb
 3211 00bb 0B       		.uleb128 0xb
 3212 00bc 3A       		.uleb128 0x3a
 3213 00bd 0B       		.uleb128 0xb
 3214 00be 3B       		.uleb128 0x3b
 3215 00bf 0B       		.uleb128 0xb
 3216 00c0 01       		.uleb128 0x1
 3217 00c1 13       		.uleb128 0x13
 3218 00c2 00       		.byte	0
 3219 00c3 00       		.byte	0
 3220 00c4 11       		.uleb128 0x11
 3221 00c5 0D       		.uleb128 0xd
 3222 00c6 00       		.byte	0
 3223 00c7 03       		.uleb128 0x3
 3224 00c8 0E       		.uleb128 0xe
 3225 00c9 3A       		.uleb128 0x3a
 3226 00ca 0B       		.uleb128 0xb
 3227 00cb 3B       		.uleb128 0x3b
 3228 00cc 0B       		.uleb128 0xb
 3229 00cd 49       		.uleb128 0x49
 3230 00ce 13       		.uleb128 0x13
 3231 00cf 00       		.byte	0
 3232 00d0 00       		.byte	0
ARM GAS  C:\Users\jenny\AppData\Local\Temp\ccPzuVgt.s 			page 58


 3233 00d1 12       		.uleb128 0x12
 3234 00d2 26       		.uleb128 0x26
 3235 00d3 00       		.byte	0
 3236 00d4 49       		.uleb128 0x49
 3237 00d5 13       		.uleb128 0x13
 3238 00d6 00       		.byte	0
 3239 00d7 00       		.byte	0
 3240 00d8 13       		.uleb128 0x13
 3241 00d9 2E       		.uleb128 0x2e
 3242 00da 01       		.byte	0x1
 3243 00db 3F       		.uleb128 0x3f
 3244 00dc 0C       		.uleb128 0xc
 3245 00dd 03       		.uleb128 0x3
 3246 00de 0E       		.uleb128 0xe
 3247 00df 3A       		.uleb128 0x3a
 3248 00e0 0B       		.uleb128 0xb
 3249 00e1 3B       		.uleb128 0x3b
 3250 00e2 0B       		.uleb128 0xb
 3251 00e3 27       		.uleb128 0x27
 3252 00e4 0C       		.uleb128 0xc
 3253 00e5 20       		.uleb128 0x20
 3254 00e6 0B       		.uleb128 0xb
 3255 00e7 01       		.uleb128 0x1
 3256 00e8 13       		.uleb128 0x13
 3257 00e9 00       		.byte	0
 3258 00ea 00       		.byte	0
 3259 00eb 14       		.uleb128 0x14
 3260 00ec 05       		.uleb128 0x5
 3261 00ed 00       		.byte	0
 3262 00ee 03       		.uleb128 0x3
 3263 00ef 08       		.uleb128 0x8
 3264 00f0 3A       		.uleb128 0x3a
 3265 00f1 0B       		.uleb128 0xb
 3266 00f2 3B       		.uleb128 0x3b
 3267 00f3 0B       		.uleb128 0xb
 3268 00f4 49       		.uleb128 0x49
 3269 00f5 13       		.uleb128 0x13
 3270 00f6 00       		.byte	0
 3271 00f7 00       		.byte	0
 3272 00f8 15       		.uleb128 0x15
 3273 00f9 05       		.uleb128 0x5
 3274 00fa 00       		.byte	0
 3275 00fb 03       		.uleb128 0x3
 3276 00fc 0E       		.uleb128 0xe
 3277 00fd 3A       		.uleb128 0x3a
 3278 00fe 0B       		.uleb128 0xb
 3279 00ff 3B       		.uleb128 0x3b
 3280 0100 0B       		.uleb128 0xb
 3281 0101 49       		.uleb128 0x49
 3282 0102 13       		.uleb128 0x13
 3283 0103 00       		.byte	0
 3284 0104 00       		.byte	0
 3285 0105 16       		.uleb128 0x16
 3286 0106 2E       		.uleb128 0x2e
 3287 0107 01       		.byte	0x1
 3288 0108 3F       		.uleb128 0x3f
 3289 0109 0C       		.uleb128 0xc
ARM GAS  C:\Users\jenny\AppData\Local\Temp\ccPzuVgt.s 			page 59


 3290 010a 03       		.uleb128 0x3
 3291 010b 0E       		.uleb128 0xe
 3292 010c 3A       		.uleb128 0x3a
 3293 010d 0B       		.uleb128 0xb
 3294 010e 3B       		.uleb128 0x3b
 3295 010f 0B       		.uleb128 0xb
 3296 0110 27       		.uleb128 0x27
 3297 0111 0C       		.uleb128 0xc
 3298 0112 11       		.uleb128 0x11
 3299 0113 01       		.uleb128 0x1
 3300 0114 12       		.uleb128 0x12
 3301 0115 01       		.uleb128 0x1
 3302 0116 40       		.uleb128 0x40
 3303 0117 06       		.uleb128 0x6
 3304 0118 9742     		.uleb128 0x2117
 3305 011a 0C       		.uleb128 0xc
 3306 011b 01       		.uleb128 0x1
 3307 011c 13       		.uleb128 0x13
 3308 011d 00       		.byte	0
 3309 011e 00       		.byte	0
 3310 011f 17       		.uleb128 0x17
 3311 0120 05       		.uleb128 0x5
 3312 0121 00       		.byte	0
 3313 0122 03       		.uleb128 0x3
 3314 0123 08       		.uleb128 0x8
 3315 0124 3A       		.uleb128 0x3a
 3316 0125 0B       		.uleb128 0xb
 3317 0126 3B       		.uleb128 0x3b
 3318 0127 0B       		.uleb128 0xb
 3319 0128 49       		.uleb128 0x49
 3320 0129 13       		.uleb128 0x13
 3321 012a 02       		.uleb128 0x2
 3322 012b 0A       		.uleb128 0xa
 3323 012c 00       		.byte	0
 3324 012d 00       		.byte	0
 3325 012e 18       		.uleb128 0x18
 3326 012f 05       		.uleb128 0x5
 3327 0130 00       		.byte	0
 3328 0131 03       		.uleb128 0x3
 3329 0132 0E       		.uleb128 0xe
 3330 0133 3A       		.uleb128 0x3a
 3331 0134 0B       		.uleb128 0xb
 3332 0135 3B       		.uleb128 0x3b
 3333 0136 0B       		.uleb128 0xb
 3334 0137 49       		.uleb128 0x49
 3335 0138 13       		.uleb128 0x13
 3336 0139 02       		.uleb128 0x2
 3337 013a 0A       		.uleb128 0xa
 3338 013b 00       		.byte	0
 3339 013c 00       		.byte	0
 3340 013d 19       		.uleb128 0x19
 3341 013e 0B       		.uleb128 0xb
 3342 013f 01       		.byte	0x1
 3343 0140 11       		.uleb128 0x11
 3344 0141 01       		.uleb128 0x1
 3345 0142 12       		.uleb128 0x12
 3346 0143 01       		.uleb128 0x1
ARM GAS  C:\Users\jenny\AppData\Local\Temp\ccPzuVgt.s 			page 60


 3347 0144 01       		.uleb128 0x1
 3348 0145 13       		.uleb128 0x13
 3349 0146 00       		.byte	0
 3350 0147 00       		.byte	0
 3351 0148 1A       		.uleb128 0x1a
 3352 0149 34       		.uleb128 0x34
 3353 014a 00       		.byte	0
 3354 014b 03       		.uleb128 0x3
 3355 014c 08       		.uleb128 0x8
 3356 014d 3A       		.uleb128 0x3a
 3357 014e 0B       		.uleb128 0xb
 3358 014f 3B       		.uleb128 0x3b
 3359 0150 0B       		.uleb128 0xb
 3360 0151 49       		.uleb128 0x49
 3361 0152 13       		.uleb128 0x13
 3362 0153 02       		.uleb128 0x2
 3363 0154 06       		.uleb128 0x6
 3364 0155 00       		.byte	0
 3365 0156 00       		.byte	0
 3366 0157 1B       		.uleb128 0x1b
 3367 0158 0B       		.uleb128 0xb
 3368 0159 01       		.byte	0x1
 3369 015a 55       		.uleb128 0x55
 3370 015b 06       		.uleb128 0x6
 3371 015c 00       		.byte	0
 3372 015d 00       		.byte	0
 3373 015e 1C       		.uleb128 0x1c
 3374 015f 2E       		.uleb128 0x2e
 3375 0160 01       		.byte	0x1
 3376 0161 3F       		.uleb128 0x3f
 3377 0162 0C       		.uleb128 0xc
 3378 0163 03       		.uleb128 0x3
 3379 0164 0E       		.uleb128 0xe
 3380 0165 3A       		.uleb128 0x3a
 3381 0166 0B       		.uleb128 0xb
 3382 0167 3B       		.uleb128 0x3b
 3383 0168 0B       		.uleb128 0xb
 3384 0169 27       		.uleb128 0x27
 3385 016a 0C       		.uleb128 0xc
 3386 016b 11       		.uleb128 0x11
 3387 016c 01       		.uleb128 0x1
 3388 016d 12       		.uleb128 0x12
 3389 016e 01       		.uleb128 0x1
 3390 016f 40       		.uleb128 0x40
 3391 0170 0A       		.uleb128 0xa
 3392 0171 9742     		.uleb128 0x2117
 3393 0173 0C       		.uleb128 0xc
 3394 0174 01       		.uleb128 0x1
 3395 0175 13       		.uleb128 0x13
 3396 0176 00       		.byte	0
 3397 0177 00       		.byte	0
 3398 0178 1D       		.uleb128 0x1d
 3399 0179 05       		.uleb128 0x5
 3400 017a 00       		.byte	0
 3401 017b 03       		.uleb128 0x3
 3402 017c 08       		.uleb128 0x8
 3403 017d 3A       		.uleb128 0x3a
ARM GAS  C:\Users\jenny\AppData\Local\Temp\ccPzuVgt.s 			page 61


 3404 017e 0B       		.uleb128 0xb
 3405 017f 3B       		.uleb128 0x3b
 3406 0180 0B       		.uleb128 0xb
 3407 0181 49       		.uleb128 0x49
 3408 0182 13       		.uleb128 0x13
 3409 0183 02       		.uleb128 0x2
 3410 0184 06       		.uleb128 0x6
 3411 0185 00       		.byte	0
 3412 0186 00       		.byte	0
 3413 0187 1E       		.uleb128 0x1e
 3414 0188 0B       		.uleb128 0xb
 3415 0189 01       		.byte	0x1
 3416 018a 11       		.uleb128 0x11
 3417 018b 01       		.uleb128 0x1
 3418 018c 12       		.uleb128 0x12
 3419 018d 01       		.uleb128 0x1
 3420 018e 00       		.byte	0
 3421 018f 00       		.byte	0
 3422 0190 1F       		.uleb128 0x1f
 3423 0191 2E       		.uleb128 0x2e
 3424 0192 01       		.byte	0x1
 3425 0193 3F       		.uleb128 0x3f
 3426 0194 0C       		.uleb128 0xc
 3427 0195 03       		.uleb128 0x3
 3428 0196 0E       		.uleb128 0xe
 3429 0197 3A       		.uleb128 0x3a
 3430 0198 0B       		.uleb128 0xb
 3431 0199 3B       		.uleb128 0x3b
 3432 019a 0B       		.uleb128 0xb
 3433 019b 27       		.uleb128 0x27
 3434 019c 0C       		.uleb128 0xc
 3435 019d 49       		.uleb128 0x49
 3436 019e 13       		.uleb128 0x13
 3437 019f 11       		.uleb128 0x11
 3438 01a0 01       		.uleb128 0x1
 3439 01a1 12       		.uleb128 0x12
 3440 01a2 01       		.uleb128 0x1
 3441 01a3 40       		.uleb128 0x40
 3442 01a4 06       		.uleb128 0x6
 3443 01a5 9742     		.uleb128 0x2117
 3444 01a7 0C       		.uleb128 0xc
 3445 01a8 01       		.uleb128 0x1
 3446 01a9 13       		.uleb128 0x13
 3447 01aa 00       		.byte	0
 3448 01ab 00       		.byte	0
 3449 01ac 20       		.uleb128 0x20
 3450 01ad 05       		.uleb128 0x5
 3451 01ae 00       		.byte	0
 3452 01af 03       		.uleb128 0x3
 3453 01b0 0E       		.uleb128 0xe
 3454 01b1 3A       		.uleb128 0x3a
 3455 01b2 0B       		.uleb128 0xb
 3456 01b3 3B       		.uleb128 0x3b
 3457 01b4 0B       		.uleb128 0xb
 3458 01b5 49       		.uleb128 0x49
 3459 01b6 13       		.uleb128 0x13
 3460 01b7 02       		.uleb128 0x2
ARM GAS  C:\Users\jenny\AppData\Local\Temp\ccPzuVgt.s 			page 62


 3461 01b8 06       		.uleb128 0x6
 3462 01b9 00       		.byte	0
 3463 01ba 00       		.byte	0
 3464 01bb 21       		.uleb128 0x21
 3465 01bc 2E       		.uleb128 0x2e
 3466 01bd 01       		.byte	0x1
 3467 01be 3F       		.uleb128 0x3f
 3468 01bf 0C       		.uleb128 0xc
 3469 01c0 03       		.uleb128 0x3
 3470 01c1 0E       		.uleb128 0xe
 3471 01c2 3A       		.uleb128 0x3a
 3472 01c3 0B       		.uleb128 0xb
 3473 01c4 3B       		.uleb128 0x3b
 3474 01c5 0B       		.uleb128 0xb
 3475 01c6 27       		.uleb128 0x27
 3476 01c7 0C       		.uleb128 0xc
 3477 01c8 49       		.uleb128 0x49
 3478 01c9 13       		.uleb128 0x13
 3479 01ca 11       		.uleb128 0x11
 3480 01cb 01       		.uleb128 0x1
 3481 01cc 12       		.uleb128 0x12
 3482 01cd 01       		.uleb128 0x1
 3483 01ce 40       		.uleb128 0x40
 3484 01cf 0A       		.uleb128 0xa
 3485 01d0 9742     		.uleb128 0x2117
 3486 01d2 0C       		.uleb128 0xc
 3487 01d3 01       		.uleb128 0x1
 3488 01d4 13       		.uleb128 0x13
 3489 01d5 00       		.byte	0
 3490 01d6 00       		.byte	0
 3491 01d7 22       		.uleb128 0x22
 3492 01d8 34       		.uleb128 0x34
 3493 01d9 00       		.byte	0
 3494 01da 03       		.uleb128 0x3
 3495 01db 0E       		.uleb128 0xe
 3496 01dc 3A       		.uleb128 0x3a
 3497 01dd 0B       		.uleb128 0xb
 3498 01de 3B       		.uleb128 0x3b
 3499 01df 0B       		.uleb128 0xb
 3500 01e0 49       		.uleb128 0x49
 3501 01e1 13       		.uleb128 0x13
 3502 01e2 02       		.uleb128 0x2
 3503 01e3 0A       		.uleb128 0xa
 3504 01e4 00       		.byte	0
 3505 01e5 00       		.byte	0
 3506 01e6 23       		.uleb128 0x23
 3507 01e7 34       		.uleb128 0x34
 3508 01e8 00       		.byte	0
 3509 01e9 03       		.uleb128 0x3
 3510 01ea 08       		.uleb128 0x8
 3511 01eb 3A       		.uleb128 0x3a
 3512 01ec 0B       		.uleb128 0xb
 3513 01ed 3B       		.uleb128 0x3b
 3514 01ee 0B       		.uleb128 0xb
 3515 01ef 49       		.uleb128 0x49
 3516 01f0 13       		.uleb128 0x13
 3517 01f1 02       		.uleb128 0x2
ARM GAS  C:\Users\jenny\AppData\Local\Temp\ccPzuVgt.s 			page 63


 3518 01f2 0A       		.uleb128 0xa
 3519 01f3 00       		.byte	0
 3520 01f4 00       		.byte	0
 3521 01f5 24       		.uleb128 0x24
 3522 01f6 2E       		.uleb128 0x2e
 3523 01f7 01       		.byte	0x1
 3524 01f8 31       		.uleb128 0x31
 3525 01f9 13       		.uleb128 0x13
 3526 01fa 11       		.uleb128 0x11
 3527 01fb 01       		.uleb128 0x1
 3528 01fc 12       		.uleb128 0x12
 3529 01fd 01       		.uleb128 0x1
 3530 01fe 40       		.uleb128 0x40
 3531 01ff 06       		.uleb128 0x6
 3532 0200 9742     		.uleb128 0x2117
 3533 0202 0C       		.uleb128 0xc
 3534 0203 01       		.uleb128 0x1
 3535 0204 13       		.uleb128 0x13
 3536 0205 00       		.byte	0
 3537 0206 00       		.byte	0
 3538 0207 25       		.uleb128 0x25
 3539 0208 05       		.uleb128 0x5
 3540 0209 00       		.byte	0
 3541 020a 31       		.uleb128 0x31
 3542 020b 13       		.uleb128 0x13
 3543 020c 02       		.uleb128 0x2
 3544 020d 06       		.uleb128 0x6
 3545 020e 00       		.byte	0
 3546 020f 00       		.byte	0
 3547 0210 26       		.uleb128 0x26
 3548 0211 1D       		.uleb128 0x1d
 3549 0212 01       		.byte	0x1
 3550 0213 31       		.uleb128 0x31
 3551 0214 13       		.uleb128 0x13
 3552 0215 11       		.uleb128 0x11
 3553 0216 01       		.uleb128 0x1
 3554 0217 12       		.uleb128 0x12
 3555 0218 01       		.uleb128 0x1
 3556 0219 58       		.uleb128 0x58
 3557 021a 0B       		.uleb128 0xb
 3558 021b 59       		.uleb128 0x59
 3559 021c 0B       		.uleb128 0xb
 3560 021d 00       		.byte	0
 3561 021e 00       		.byte	0
 3562 021f 27       		.uleb128 0x27
 3563 0220 05       		.uleb128 0x5
 3564 0221 00       		.byte	0
 3565 0222 31       		.uleb128 0x31
 3566 0223 13       		.uleb128 0x13
 3567 0224 00       		.byte	0
 3568 0225 00       		.byte	0
 3569 0226 28       		.uleb128 0x28
 3570 0227 898201   		.uleb128 0x4109
 3571 022a 01       		.byte	0x1
 3572 022b 11       		.uleb128 0x11
 3573 022c 01       		.uleb128 0x1
 3574 022d 31       		.uleb128 0x31
ARM GAS  C:\Users\jenny\AppData\Local\Temp\ccPzuVgt.s 			page 64


 3575 022e 13       		.uleb128 0x13
 3576 022f 00       		.byte	0
 3577 0230 00       		.byte	0
 3578 0231 29       		.uleb128 0x29
 3579 0232 8A8201   		.uleb128 0x410a
 3580 0235 00       		.byte	0
 3581 0236 02       		.uleb128 0x2
 3582 0237 0A       		.uleb128 0xa
 3583 0238 9142     		.uleb128 0x2111
 3584 023a 0A       		.uleb128 0xa
 3585 023b 00       		.byte	0
 3586 023c 00       		.byte	0
 3587 023d 2A       		.uleb128 0x2a
 3588 023e 898201   		.uleb128 0x4109
 3589 0241 01       		.byte	0x1
 3590 0242 11       		.uleb128 0x11
 3591 0243 01       		.uleb128 0x1
 3592 0244 31       		.uleb128 0x31
 3593 0245 13       		.uleb128 0x13
 3594 0246 01       		.uleb128 0x1
 3595 0247 13       		.uleb128 0x13
 3596 0248 00       		.byte	0
 3597 0249 00       		.byte	0
 3598 024a 2B       		.uleb128 0x2b
 3599 024b 898201   		.uleb128 0x4109
 3600 024e 00       		.byte	0
 3601 024f 11       		.uleb128 0x11
 3602 0250 01       		.uleb128 0x1
 3603 0251 31       		.uleb128 0x31
 3604 0252 13       		.uleb128 0x13
 3605 0253 00       		.byte	0
 3606 0254 00       		.byte	0
 3607 0255 2C       		.uleb128 0x2c
 3608 0256 2E       		.uleb128 0x2e
 3609 0257 01       		.byte	0x1
 3610 0258 3F       		.uleb128 0x3f
 3611 0259 0C       		.uleb128 0xc
 3612 025a 03       		.uleb128 0x3
 3613 025b 0E       		.uleb128 0xe
 3614 025c 3A       		.uleb128 0x3a
 3615 025d 0B       		.uleb128 0xb
 3616 025e 3B       		.uleb128 0x3b
 3617 025f 05       		.uleb128 0x5
 3618 0260 27       		.uleb128 0x27
 3619 0261 0C       		.uleb128 0xc
 3620 0262 11       		.uleb128 0x11
 3621 0263 01       		.uleb128 0x1
 3622 0264 12       		.uleb128 0x12
 3623 0265 01       		.uleb128 0x1
 3624 0266 40       		.uleb128 0x40
 3625 0267 06       		.uleb128 0x6
 3626 0268 9742     		.uleb128 0x2117
 3627 026a 0C       		.uleb128 0xc
 3628 026b 01       		.uleb128 0x1
 3629 026c 13       		.uleb128 0x13
 3630 026d 00       		.byte	0
 3631 026e 00       		.byte	0
ARM GAS  C:\Users\jenny\AppData\Local\Temp\ccPzuVgt.s 			page 65


 3632 026f 2D       		.uleb128 0x2d
 3633 0270 05       		.uleb128 0x5
 3634 0271 00       		.byte	0
 3635 0272 03       		.uleb128 0x3
 3636 0273 08       		.uleb128 0x8
 3637 0274 3A       		.uleb128 0x3a
 3638 0275 0B       		.uleb128 0xb
 3639 0276 3B       		.uleb128 0x3b
 3640 0277 05       		.uleb128 0x5
 3641 0278 49       		.uleb128 0x49
 3642 0279 13       		.uleb128 0x13
 3643 027a 02       		.uleb128 0x2
 3644 027b 06       		.uleb128 0x6
 3645 027c 00       		.byte	0
 3646 027d 00       		.byte	0
 3647 027e 2E       		.uleb128 0x2e
 3648 027f 05       		.uleb128 0x5
 3649 0280 00       		.byte	0
 3650 0281 03       		.uleb128 0x3
 3651 0282 0E       		.uleb128 0xe
 3652 0283 3A       		.uleb128 0x3a
 3653 0284 0B       		.uleb128 0xb
 3654 0285 3B       		.uleb128 0x3b
 3655 0286 05       		.uleb128 0x5
 3656 0287 49       		.uleb128 0x49
 3657 0288 13       		.uleb128 0x13
 3658 0289 02       		.uleb128 0x2
 3659 028a 06       		.uleb128 0x6
 3660 028b 00       		.byte	0
 3661 028c 00       		.byte	0
 3662 028d 2F       		.uleb128 0x2f
 3663 028e 34       		.uleb128 0x34
 3664 028f 00       		.byte	0
 3665 0290 03       		.uleb128 0x3
 3666 0291 08       		.uleb128 0x8
 3667 0292 3A       		.uleb128 0x3a
 3668 0293 0B       		.uleb128 0xb
 3669 0294 3B       		.uleb128 0x3b
 3670 0295 05       		.uleb128 0x5
 3671 0296 49       		.uleb128 0x49
 3672 0297 13       		.uleb128 0x13
 3673 0298 02       		.uleb128 0x2
 3674 0299 06       		.uleb128 0x6
 3675 029a 00       		.byte	0
 3676 029b 00       		.byte	0
 3677 029c 30       		.uleb128 0x30
 3678 029d 2E       		.uleb128 0x2e
 3679 029e 01       		.byte	0x1
 3680 029f 3F       		.uleb128 0x3f
 3681 02a0 0C       		.uleb128 0xc
 3682 02a1 03       		.uleb128 0x3
 3683 02a2 0E       		.uleb128 0xe
 3684 02a3 3A       		.uleb128 0x3a
 3685 02a4 0B       		.uleb128 0xb
 3686 02a5 3B       		.uleb128 0x3b
 3687 02a6 05       		.uleb128 0x5
 3688 02a7 27       		.uleb128 0x27
ARM GAS  C:\Users\jenny\AppData\Local\Temp\ccPzuVgt.s 			page 66


 3689 02a8 0C       		.uleb128 0xc
 3690 02a9 49       		.uleb128 0x49
 3691 02aa 13       		.uleb128 0x13
 3692 02ab 11       		.uleb128 0x11
 3693 02ac 01       		.uleb128 0x1
 3694 02ad 12       		.uleb128 0x12
 3695 02ae 01       		.uleb128 0x1
 3696 02af 40       		.uleb128 0x40
 3697 02b0 0A       		.uleb128 0xa
 3698 02b1 9742     		.uleb128 0x2117
 3699 02b3 0C       		.uleb128 0xc
 3700 02b4 01       		.uleb128 0x1
 3701 02b5 13       		.uleb128 0x13
 3702 02b6 00       		.byte	0
 3703 02b7 00       		.byte	0
 3704 02b8 31       		.uleb128 0x31
 3705 02b9 34       		.uleb128 0x34
 3706 02ba 00       		.byte	0
 3707 02bb 03       		.uleb128 0x3
 3708 02bc 0E       		.uleb128 0xe
 3709 02bd 3A       		.uleb128 0x3a
 3710 02be 0B       		.uleb128 0xb
 3711 02bf 3B       		.uleb128 0x3b
 3712 02c0 05       		.uleb128 0x5
 3713 02c1 49       		.uleb128 0x49
 3714 02c2 13       		.uleb128 0x13
 3715 02c3 02       		.uleb128 0x2
 3716 02c4 0A       		.uleb128 0xa
 3717 02c5 00       		.byte	0
 3718 02c6 00       		.byte	0
 3719 02c7 32       		.uleb128 0x32
 3720 02c8 898201   		.uleb128 0x4109
 3721 02cb 01       		.byte	0x1
 3722 02cc 11       		.uleb128 0x11
 3723 02cd 01       		.uleb128 0x1
 3724 02ce 00       		.byte	0
 3725 02cf 00       		.byte	0
 3726 02d0 33       		.uleb128 0x33
 3727 02d1 2E       		.uleb128 0x2e
 3728 02d2 01       		.byte	0x1
 3729 02d3 3F       		.uleb128 0x3f
 3730 02d4 0C       		.uleb128 0xc
 3731 02d5 03       		.uleb128 0x3
 3732 02d6 0E       		.uleb128 0xe
 3733 02d7 3A       		.uleb128 0x3a
 3734 02d8 0B       		.uleb128 0xb
 3735 02d9 3B       		.uleb128 0x3b
 3736 02da 05       		.uleb128 0x5
 3737 02db 27       		.uleb128 0x27
 3738 02dc 0C       		.uleb128 0xc
 3739 02dd 49       		.uleb128 0x49
 3740 02de 13       		.uleb128 0x13
 3741 02df 11       		.uleb128 0x11
 3742 02e0 01       		.uleb128 0x1
 3743 02e1 12       		.uleb128 0x12
 3744 02e2 01       		.uleb128 0x1
 3745 02e3 40       		.uleb128 0x40
ARM GAS  C:\Users\jenny\AppData\Local\Temp\ccPzuVgt.s 			page 67


 3746 02e4 06       		.uleb128 0x6
 3747 02e5 9742     		.uleb128 0x2117
 3748 02e7 0C       		.uleb128 0xc
 3749 02e8 01       		.uleb128 0x1
 3750 02e9 13       		.uleb128 0x13
 3751 02ea 00       		.byte	0
 3752 02eb 00       		.byte	0
 3753 02ec 34       		.uleb128 0x34
 3754 02ed 34       		.uleb128 0x34
 3755 02ee 00       		.byte	0
 3756 02ef 03       		.uleb128 0x3
 3757 02f0 08       		.uleb128 0x8
 3758 02f1 3A       		.uleb128 0x3a
 3759 02f2 0B       		.uleb128 0xb
 3760 02f3 3B       		.uleb128 0x3b
 3761 02f4 05       		.uleb128 0x5
 3762 02f5 49       		.uleb128 0x49
 3763 02f6 13       		.uleb128 0x13
 3764 02f7 02       		.uleb128 0x2
 3765 02f8 0A       		.uleb128 0xa
 3766 02f9 00       		.byte	0
 3767 02fa 00       		.byte	0
 3768 02fb 35       		.uleb128 0x35
 3769 02fc 34       		.uleb128 0x34
 3770 02fd 00       		.byte	0
 3771 02fe 03       		.uleb128 0x3
 3772 02ff 0E       		.uleb128 0xe
 3773 0300 3A       		.uleb128 0x3a
 3774 0301 0B       		.uleb128 0xb
 3775 0302 3B       		.uleb128 0x3b
 3776 0303 0B       		.uleb128 0xb
 3777 0304 49       		.uleb128 0x49
 3778 0305 13       		.uleb128 0x13
 3779 0306 3F       		.uleb128 0x3f
 3780 0307 0C       		.uleb128 0xc
 3781 0308 3C       		.uleb128 0x3c
 3782 0309 0C       		.uleb128 0xc
 3783 030a 00       		.byte	0
 3784 030b 00       		.byte	0
 3785 030c 36       		.uleb128 0x36
 3786 030d 2E       		.uleb128 0x2e
 3787 030e 01       		.byte	0x1
 3788 030f 3F       		.uleb128 0x3f
 3789 0310 0C       		.uleb128 0xc
 3790 0311 03       		.uleb128 0x3
 3791 0312 0E       		.uleb128 0xe
 3792 0313 3A       		.uleb128 0x3a
 3793 0314 0B       		.uleb128 0xb
 3794 0315 3B       		.uleb128 0x3b
 3795 0316 0B       		.uleb128 0xb
 3796 0317 27       		.uleb128 0x27
 3797 0318 0C       		.uleb128 0xc
 3798 0319 49       		.uleb128 0x49
 3799 031a 13       		.uleb128 0x13
 3800 031b 3C       		.uleb128 0x3c
 3801 031c 0C       		.uleb128 0xc
 3802 031d 01       		.uleb128 0x1
ARM GAS  C:\Users\jenny\AppData\Local\Temp\ccPzuVgt.s 			page 68


 3803 031e 13       		.uleb128 0x13
 3804 031f 00       		.byte	0
 3805 0320 00       		.byte	0
 3806 0321 37       		.uleb128 0x37
 3807 0322 2E       		.uleb128 0x2e
 3808 0323 00       		.byte	0
 3809 0324 3F       		.uleb128 0x3f
 3810 0325 0C       		.uleb128 0xc
 3811 0326 03       		.uleb128 0x3
 3812 0327 0E       		.uleb128 0xe
 3813 0328 3A       		.uleb128 0x3a
 3814 0329 0B       		.uleb128 0xb
 3815 032a 3B       		.uleb128 0x3b
 3816 032b 0B       		.uleb128 0xb
 3817 032c 27       		.uleb128 0x27
 3818 032d 0C       		.uleb128 0xc
 3819 032e 3C       		.uleb128 0x3c
 3820 032f 0C       		.uleb128 0xc
 3821 0330 00       		.byte	0
 3822 0331 00       		.byte	0
 3823 0332 38       		.uleb128 0x38
 3824 0333 2E       		.uleb128 0x2e
 3825 0334 01       		.byte	0x1
 3826 0335 3F       		.uleb128 0x3f
 3827 0336 0C       		.uleb128 0xc
 3828 0337 03       		.uleb128 0x3
 3829 0338 0E       		.uleb128 0xe
 3830 0339 3A       		.uleb128 0x3a
 3831 033a 0B       		.uleb128 0xb
 3832 033b 3B       		.uleb128 0x3b
 3833 033c 0B       		.uleb128 0xb
 3834 033d 27       		.uleb128 0x27
 3835 033e 0C       		.uleb128 0xc
 3836 033f 3C       		.uleb128 0x3c
 3837 0340 0C       		.uleb128 0xc
 3838 0341 01       		.uleb128 0x1
 3839 0342 13       		.uleb128 0x13
 3840 0343 00       		.byte	0
 3841 0344 00       		.byte	0
 3842 0345 39       		.uleb128 0x39
 3843 0346 2E       		.uleb128 0x2e
 3844 0347 01       		.byte	0x1
 3845 0348 3F       		.uleb128 0x3f
 3846 0349 0C       		.uleb128 0xc
 3847 034a 03       		.uleb128 0x3
 3848 034b 0E       		.uleb128 0xe
 3849 034c 3A       		.uleb128 0x3a
 3850 034d 0B       		.uleb128 0xb
 3851 034e 3B       		.uleb128 0x3b
 3852 034f 0B       		.uleb128 0xb
 3853 0350 27       		.uleb128 0x27
 3854 0351 0C       		.uleb128 0xc
 3855 0352 49       		.uleb128 0x49
 3856 0353 13       		.uleb128 0x13
 3857 0354 3C       		.uleb128 0x3c
 3858 0355 0C       		.uleb128 0xc
 3859 0356 00       		.byte	0
ARM GAS  C:\Users\jenny\AppData\Local\Temp\ccPzuVgt.s 			page 69


 3860 0357 00       		.byte	0
 3861 0358 00       		.byte	0
 3862              		.section	.debug_loc,"",%progbits
 3863              	.Ldebug_loc0:
 3864              	.LLST0:
 3865 0000 00000000 		.4byte	.LFB7
 3866 0004 02000000 		.4byte	.LCFI0
 3867 0008 0200     		.2byte	0x2
 3868 000a 7D       		.byte	0x7d
 3869 000b 00       		.sleb128 0
 3870 000c 02000000 		.4byte	.LCFI0
 3871 0010 2A000000 		.4byte	.LFE7
 3872 0014 0200     		.2byte	0x2
 3873 0016 7D       		.byte	0x7d
 3874 0017 08       		.sleb128 8
 3875 0018 00000000 		.4byte	0
 3876 001c 00000000 		.4byte	0
 3877              	.LLST1:
 3878 0020 08000000 		.4byte	.LVL2
 3879 0024 0C000000 		.4byte	.LVL3
 3880 0028 0100     		.2byte	0x1
 3881 002a 53       		.byte	0x53
 3882 002b 00000000 		.4byte	0
 3883 002f 00000000 		.4byte	0
 3884              	.LLST2:
 3885 0033 26000000 		.4byte	.LVL5
 3886 0037 2A000000 		.4byte	.LFE7
 3887 003b 0100     		.2byte	0x1
 3888 003d 53       		.byte	0x53
 3889 003e 00000000 		.4byte	0
 3890 0042 00000000 		.4byte	0
 3891              	.LLST3:
 3892 0046 00000000 		.4byte	.LVL6
 3893 004a 18000000 		.4byte	.LVL12
 3894 004e 0100     		.2byte	0x1
 3895 0050 50       		.byte	0x50
 3896 0051 18000000 		.4byte	.LVL12
 3897 0055 22000000 		.4byte	.LFE8
 3898 0059 0400     		.2byte	0x4
 3899 005b F3       		.byte	0xf3
 3900 005c 01       		.uleb128 0x1
 3901 005d 50       		.byte	0x50
 3902 005e 9F       		.byte	0x9f
 3903 005f 00000000 		.4byte	0
 3904 0063 00000000 		.4byte	0
 3905              	.LLST4:
 3906 0067 00000000 		.4byte	.LVL6
 3907 006b 0A000000 		.4byte	.LVL9
 3908 006f 0100     		.2byte	0x1
 3909 0071 50       		.byte	0x50
 3910 0072 0A000000 		.4byte	.LVL9
 3911 0076 22000000 		.4byte	.LFE8
 3912 007a 0100     		.2byte	0x1
 3913 007c 52       		.byte	0x52
 3914 007d 00000000 		.4byte	0
 3915 0081 00000000 		.4byte	0
 3916              	.LLST5:
ARM GAS  C:\Users\jenny\AppData\Local\Temp\ccPzuVgt.s 			page 70


 3917 0085 06000000 		.4byte	.LVL8
 3918 0089 0A000000 		.4byte	.LVL9
 3919 008d 0100     		.2byte	0x1
 3920 008f 53       		.byte	0x53
 3921 0090 0C000000 		.4byte	.LVL10
 3922 0094 0E000000 		.4byte	.LVL11
 3923 0098 0100     		.2byte	0x1
 3924 009a 53       		.byte	0x53
 3925 009b 00000000 		.4byte	0
 3926 009f 00000000 		.4byte	0
 3927              	.LLST6:
 3928 00a3 20000000 		.4byte	.LVL14
 3929 00a7 22000000 		.4byte	.LFE8
 3930 00ab 0100     		.2byte	0x1
 3931 00ad 53       		.byte	0x53
 3932 00ae 00000000 		.4byte	0
 3933 00b2 00000000 		.4byte	0
 3934              	.LLST7:
 3935 00b6 00000000 		.4byte	.LFB9
 3936 00ba 02000000 		.4byte	.LCFI1
 3937 00be 0200     		.2byte	0x2
 3938 00c0 7D       		.byte	0x7d
 3939 00c1 00       		.sleb128 0
 3940 00c2 02000000 		.4byte	.LCFI1
 3941 00c6 26000000 		.4byte	.LFE9
 3942 00ca 0200     		.2byte	0x2
 3943 00cc 7D       		.byte	0x7d
 3944 00cd 04       		.sleb128 4
 3945 00ce 00000000 		.4byte	0
 3946 00d2 00000000 		.4byte	0
 3947              	.LLST8:
 3948 00d6 00000000 		.4byte	.LVL15
 3949 00da 22000000 		.4byte	.LVL21
 3950 00de 0100     		.2byte	0x1
 3951 00e0 50       		.byte	0x50
 3952 00e1 22000000 		.4byte	.LVL21
 3953 00e5 26000000 		.4byte	.LFE9
 3954 00e9 0400     		.2byte	0x4
 3955 00eb F3       		.byte	0xf3
 3956 00ec 01       		.uleb128 0x1
 3957 00ed 50       		.byte	0x50
 3958 00ee 9F       		.byte	0x9f
 3959 00ef 00000000 		.4byte	0
 3960 00f3 00000000 		.4byte	0
 3961              	.LLST9:
 3962 00f7 16000000 		.4byte	.LVL19
 3963 00fb 22000000 		.4byte	.LVL21
 3964 00ff 0600     		.2byte	0x6
 3965 0101 70       		.byte	0x70
 3966 0102 00       		.sleb128 0
 3967 0103 72       		.byte	0x72
 3968 0104 00       		.sleb128 0
 3969 0105 1A       		.byte	0x1a
 3970 0106 9F       		.byte	0x9f
 3971 0107 22000000 		.4byte	.LVL21
 3972 010b 26000000 		.4byte	.LFE9
 3973 010f 0100     		.2byte	0x1
ARM GAS  C:\Users\jenny\AppData\Local\Temp\ccPzuVgt.s 			page 71


 3974 0111 50       		.byte	0x50
 3975 0112 00000000 		.4byte	0
 3976 0116 00000000 		.4byte	0
 3977              	.LLST10:
 3978 011a 08000000 		.4byte	.LVL17
 3979 011e 12000000 		.4byte	.LVL18
 3980 0122 0100     		.2byte	0x1
 3981 0124 53       		.byte	0x53
 3982 0125 00000000 		.4byte	0
 3983 0129 00000000 		.4byte	0
 3984              	.LLST11:
 3985 012d 20000000 		.4byte	.LVL20
 3986 0131 26000000 		.4byte	.LFE9
 3987 0135 0100     		.2byte	0x1
 3988 0137 53       		.byte	0x53
 3989 0138 00000000 		.4byte	0
 3990 013c 00000000 		.4byte	0
 3991              	.LLST12:
 3992 0140 00000000 		.4byte	.LVL22
 3993 0144 16000000 		.4byte	.LVL26
 3994 0148 0100     		.2byte	0x1
 3995 014a 50       		.byte	0x50
 3996 014b 16000000 		.4byte	.LVL26
 3997 014f 18000000 		.4byte	.LVL27
 3998 0153 0400     		.2byte	0x4
 3999 0155 F3       		.byte	0xf3
 4000 0156 01       		.uleb128 0x1
 4001 0157 50       		.byte	0x50
 4002 0158 9F       		.byte	0x9f
 4003 0159 18000000 		.4byte	.LVL27
 4004 015d 1E000000 		.4byte	.LFE10
 4005 0161 0100     		.2byte	0x1
 4006 0163 50       		.byte	0x50
 4007 0164 00000000 		.4byte	0
 4008 0168 00000000 		.4byte	0
 4009              	.LLST13:
 4010 016c 06000000 		.4byte	.LVL24
 4011 0170 10000000 		.4byte	.LVL25
 4012 0174 0100     		.2byte	0x1
 4013 0176 53       		.byte	0x53
 4014 0177 00000000 		.4byte	0
 4015 017b 00000000 		.4byte	0
 4016              	.LLST14:
 4017 017f 1C000000 		.4byte	.LVL28
 4018 0183 1E000000 		.4byte	.LFE10
 4019 0187 0100     		.2byte	0x1
 4020 0189 53       		.byte	0x53
 4021 018a 00000000 		.4byte	0
 4022 018e 00000000 		.4byte	0
 4023              	.LLST15:
 4024 0192 00000000 		.4byte	.LVL29
 4025 0196 0C000000 		.4byte	.LVL33
 4026 019a 0100     		.2byte	0x1
 4027 019c 50       		.byte	0x50
 4028 019d 0C000000 		.4byte	.LVL33
 4029 01a1 14000000 		.4byte	.LFE12
 4030 01a5 0100     		.2byte	0x1
ARM GAS  C:\Users\jenny\AppData\Local\Temp\ccPzuVgt.s 			page 72


 4031 01a7 52       		.byte	0x52
 4032 01a8 00000000 		.4byte	0
 4033 01ac 00000000 		.4byte	0
 4034              	.LLST16:
 4035 01b0 08000000 		.4byte	.LVL31
 4036 01b4 0A000000 		.4byte	.LVL32
 4037 01b8 0100     		.2byte	0x1
 4038 01ba 53       		.byte	0x53
 4039 01bb 00000000 		.4byte	0
 4040 01bf 00000000 		.4byte	0
 4041              	.LLST17:
 4042 01c3 00000000 		.4byte	.LFB14
 4043 01c7 02000000 		.4byte	.LCFI2
 4044 01cb 0200     		.2byte	0x2
 4045 01cd 7D       		.byte	0x7d
 4046 01ce 00       		.sleb128 0
 4047 01cf 02000000 		.4byte	.LCFI2
 4048 01d3 2E000000 		.4byte	.LFE14
 4049 01d7 0200     		.2byte	0x2
 4050 01d9 7D       		.byte	0x7d
 4051 01da 08       		.sleb128 8
 4052 01db 00000000 		.4byte	0
 4053 01df 00000000 		.4byte	0
 4054              	.LLST18:
 4055 01e3 00000000 		.4byte	.LVL35
 4056 01e7 1F000000 		.4byte	.LVL38-1
 4057 01eb 0100     		.2byte	0x1
 4058 01ed 50       		.byte	0x50
 4059 01ee 1F000000 		.4byte	.LVL38-1
 4060 01f2 26000000 		.4byte	.LVL39
 4061 01f6 0400     		.2byte	0x4
 4062 01f8 F3       		.byte	0xf3
 4063 01f9 01       		.uleb128 0x1
 4064 01fa 50       		.byte	0x50
 4065 01fb 9F       		.byte	0x9f
 4066 01fc 26000000 		.4byte	.LVL39
 4067 0200 2E000000 		.4byte	.LFE14
 4068 0204 0100     		.2byte	0x1
 4069 0206 50       		.byte	0x50
 4070 0207 00000000 		.4byte	0
 4071 020b 00000000 		.4byte	0
 4072              	.LLST19:
 4073 020f 00000000 		.4byte	.LVL35
 4074 0213 08000000 		.4byte	.LVL36
 4075 0217 0100     		.2byte	0x1
 4076 0219 51       		.byte	0x51
 4077 021a 08000000 		.4byte	.LVL36
 4078 021e 2E000000 		.4byte	.LFE14
 4079 0222 0400     		.2byte	0x4
 4080 0224 F3       		.byte	0xf3
 4081 0225 01       		.uleb128 0x1
 4082 0226 51       		.byte	0x51
 4083 0227 9F       		.byte	0x9f
 4084 0228 00000000 		.4byte	0
 4085 022c 00000000 		.4byte	0
 4086              	.LLST20:
 4087 0230 1C000000 		.4byte	.LVL37
ARM GAS  C:\Users\jenny\AppData\Local\Temp\ccPzuVgt.s 			page 73


 4088 0234 1F000000 		.4byte	.LVL38-1
 4089 0238 0100     		.2byte	0x1
 4090 023a 50       		.byte	0x50
 4091 023b 1F000000 		.4byte	.LVL38-1
 4092 023f 26000000 		.4byte	.LVL39
 4093 0243 0400     		.2byte	0x4
 4094 0245 F3       		.byte	0xf3
 4095 0246 01       		.uleb128 0x1
 4096 0247 50       		.byte	0x50
 4097 0248 9F       		.byte	0x9f
 4098 0249 00000000 		.4byte	0
 4099 024d 00000000 		.4byte	0
 4100              	.LLST21:
 4101 0251 00000000 		.4byte	.LFB13
 4102 0255 02000000 		.4byte	.LCFI3
 4103 0259 0200     		.2byte	0x2
 4104 025b 7D       		.byte	0x7d
 4105 025c 00       		.sleb128 0
 4106 025d 02000000 		.4byte	.LCFI3
 4107 0261 18000000 		.4byte	.LFE13
 4108 0265 0200     		.2byte	0x2
 4109 0267 7D       		.byte	0x7d
 4110 0268 08       		.sleb128 8
 4111 0269 00000000 		.4byte	0
 4112 026d 00000000 		.4byte	0
 4113              	.LLST22:
 4114 0271 00000000 		.4byte	.LVL40
 4115 0275 0B000000 		.4byte	.LVL43-1
 4116 0279 0100     		.2byte	0x1
 4117 027b 50       		.byte	0x50
 4118 027c 0B000000 		.4byte	.LVL43-1
 4119 0280 18000000 		.4byte	.LFE13
 4120 0284 0400     		.2byte	0x4
 4121 0286 F3       		.byte	0xf3
 4122 0287 01       		.uleb128 0x1
 4123 0288 50       		.byte	0x50
 4124 0289 9F       		.byte	0x9f
 4125 028a 00000000 		.4byte	0
 4126 028e 00000000 		.4byte	0
 4127              	.LLST23:
 4128 0292 00000000 		.4byte	.LVL40
 4129 0296 0B000000 		.4byte	.LVL43-1
 4130 029a 0100     		.2byte	0x1
 4131 029c 51       		.byte	0x51
 4132 029d 0B000000 		.4byte	.LVL43-1
 4133 02a1 18000000 		.4byte	.LFE13
 4134 02a5 0400     		.2byte	0x4
 4135 02a7 F3       		.byte	0xf3
 4136 02a8 01       		.uleb128 0x1
 4137 02a9 51       		.byte	0x51
 4138 02aa 9F       		.byte	0x9f
 4139 02ab 00000000 		.4byte	0
 4140 02af 00000000 		.4byte	0
 4141              	.LLST24:
 4142 02b3 08000000 		.4byte	.LVL42
 4143 02b7 0B000000 		.4byte	.LVL43-1
 4144 02bb 0100     		.2byte	0x1
ARM GAS  C:\Users\jenny\AppData\Local\Temp\ccPzuVgt.s 			page 74


 4145 02bd 53       		.byte	0x53
 4146 02be 00000000 		.4byte	0
 4147 02c2 00000000 		.4byte	0
 4148              	.LLST25:
 4149 02c6 16000000 		.4byte	.LVL46
 4150 02ca 18000000 		.4byte	.LFE13
 4151 02ce 0100     		.2byte	0x1
 4152 02d0 53       		.byte	0x53
 4153 02d1 00000000 		.4byte	0
 4154 02d5 00000000 		.4byte	0
 4155              	.LLST26:
 4156 02d9 00000000 		.4byte	.LFB11
 4157 02dd 02000000 		.4byte	.LCFI4
 4158 02e1 0200     		.2byte	0x2
 4159 02e3 7D       		.byte	0x7d
 4160 02e4 00       		.sleb128 0
 4161 02e5 02000000 		.4byte	.LCFI4
 4162 02e9 20000000 		.4byte	.LFE11
 4163 02ed 0200     		.2byte	0x2
 4164 02ef 7D       		.byte	0x7d
 4165 02f0 10       		.sleb128 16
 4166 02f1 00000000 		.4byte	0
 4167 02f5 00000000 		.4byte	0
 4168              	.LLST27:
 4169 02f9 00000000 		.4byte	.LVL47
 4170 02fd 0C000000 		.4byte	.LVL49
 4171 0301 0100     		.2byte	0x1
 4172 0303 50       		.byte	0x50
 4173 0304 0C000000 		.4byte	.LVL49
 4174 0308 20000000 		.4byte	.LFE11
 4175 030c 0100     		.2byte	0x1
 4176 030e 55       		.byte	0x55
 4177 030f 00000000 		.4byte	0
 4178 0313 00000000 		.4byte	0
 4179              	.LLST28:
 4180 0317 00000000 		.4byte	.LVL47
 4181 031b 0C000000 		.4byte	.LVL49
 4182 031f 0100     		.2byte	0x1
 4183 0321 51       		.byte	0x51
 4184 0322 0C000000 		.4byte	.LVL49
 4185 0326 20000000 		.4byte	.LFE11
 4186 032a 0100     		.2byte	0x1
 4187 032c 56       		.byte	0x56
 4188 032d 00000000 		.4byte	0
 4189 0331 00000000 		.4byte	0
 4190              	.LLST29:
 4191 0335 00000000 		.4byte	.LFB15
 4192 0339 02000000 		.4byte	.LCFI5
 4193 033d 0200     		.2byte	0x2
 4194 033f 7D       		.byte	0x7d
 4195 0340 00       		.sleb128 0
 4196 0341 02000000 		.4byte	.LCFI5
 4197 0345 18000000 		.4byte	.LFE15
 4198 0349 0200     		.2byte	0x2
 4199 034b 7D       		.byte	0x7d
 4200 034c 08       		.sleb128 8
 4201 034d 00000000 		.4byte	0
ARM GAS  C:\Users\jenny\AppData\Local\Temp\ccPzuVgt.s 			page 75


 4202 0351 00000000 		.4byte	0
 4203              	.LLST30:
 4204 0355 00000000 		.4byte	.LVL52
 4205 0359 0B000000 		.4byte	.LVL55-1
 4206 035d 0100     		.2byte	0x1
 4207 035f 50       		.byte	0x50
 4208 0360 0B000000 		.4byte	.LVL55-1
 4209 0364 18000000 		.4byte	.LFE15
 4210 0368 0400     		.2byte	0x4
 4211 036a F3       		.byte	0xf3
 4212 036b 01       		.uleb128 0x1
 4213 036c 50       		.byte	0x50
 4214 036d 9F       		.byte	0x9f
 4215 036e 00000000 		.4byte	0
 4216 0372 00000000 		.4byte	0
 4217              	.LLST31:
 4218 0376 00000000 		.4byte	.LVL52
 4219 037a 0B000000 		.4byte	.LVL55-1
 4220 037e 0100     		.2byte	0x1
 4221 0380 51       		.byte	0x51
 4222 0381 0B000000 		.4byte	.LVL55-1
 4223 0385 18000000 		.4byte	.LFE15
 4224 0389 0400     		.2byte	0x4
 4225 038b F3       		.byte	0xf3
 4226 038c 01       		.uleb128 0x1
 4227 038d 51       		.byte	0x51
 4228 038e 9F       		.byte	0x9f
 4229 038f 00000000 		.4byte	0
 4230 0393 00000000 		.4byte	0
 4231              	.LLST32:
 4232 0397 08000000 		.4byte	.LVL54
 4233 039b 0B000000 		.4byte	.LVL55-1
 4234 039f 0100     		.2byte	0x1
 4235 03a1 53       		.byte	0x53
 4236 03a2 00000000 		.4byte	0
 4237 03a6 00000000 		.4byte	0
 4238              	.LLST33:
 4239 03aa 16000000 		.4byte	.LVL58
 4240 03ae 18000000 		.4byte	.LFE15
 4241 03b2 0100     		.2byte	0x1
 4242 03b4 53       		.byte	0x53
 4243 03b5 00000000 		.4byte	0
 4244 03b9 00000000 		.4byte	0
 4245              	.LLST34:
 4246 03bd 00000000 		.4byte	.LVL59
 4247 03c1 06000000 		.4byte	.LVL60
 4248 03c5 0100     		.2byte	0x1
 4249 03c7 50       		.byte	0x50
 4250 03c8 06000000 		.4byte	.LVL60
 4251 03cc 0A000000 		.4byte	.LFE16
 4252 03d0 0100     		.2byte	0x1
 4253 03d2 53       		.byte	0x53
 4254 03d3 00000000 		.4byte	0
 4255 03d7 00000000 		.4byte	0
 4256              	.LLST35:
 4257 03db 00000000 		.4byte	.LFB17
 4258 03df 02000000 		.4byte	.LCFI6
ARM GAS  C:\Users\jenny\AppData\Local\Temp\ccPzuVgt.s 			page 76


 4259 03e3 0200     		.2byte	0x2
 4260 03e5 7D       		.byte	0x7d
 4261 03e6 00       		.sleb128 0
 4262 03e7 02000000 		.4byte	.LCFI6
 4263 03eb 2E000000 		.4byte	.LFE17
 4264 03ef 0200     		.2byte	0x2
 4265 03f1 7D       		.byte	0x7d
 4266 03f2 18       		.sleb128 24
 4267 03f3 00000000 		.4byte	0
 4268 03f7 00000000 		.4byte	0
 4269              	.LLST36:
 4270 03fb 00000000 		.4byte	.LVL61
 4271 03ff 0E000000 		.4byte	.LVL62
 4272 0403 0100     		.2byte	0x1
 4273 0405 50       		.byte	0x50
 4274 0406 0E000000 		.4byte	.LVL62
 4275 040a 2E000000 		.4byte	.LFE17
 4276 040e 0100     		.2byte	0x1
 4277 0410 57       		.byte	0x57
 4278 0411 00000000 		.4byte	0
 4279 0415 00000000 		.4byte	0
 4280              	.LLST37:
 4281 0419 00000000 		.4byte	.LVL61
 4282 041d 0E000000 		.4byte	.LVL62
 4283 0421 0100     		.2byte	0x1
 4284 0423 51       		.byte	0x51
 4285 0424 0E000000 		.4byte	.LVL62
 4286 0428 2E000000 		.4byte	.LFE17
 4287 042c 0100     		.2byte	0x1
 4288 042e 55       		.byte	0x55
 4289 042f 00000000 		.4byte	0
 4290 0433 00000000 		.4byte	0
 4291              	.LLST38:
 4292 0437 00000000 		.4byte	.LVL61
 4293 043b 0E000000 		.4byte	.LVL62
 4294 043f 0200     		.2byte	0x2
 4295 0441 30       		.byte	0x30
 4296 0442 9F       		.byte	0x9f
 4297 0443 10000000 		.4byte	.LVL63
 4298 0447 12000000 		.4byte	.LVL64
 4299 044b 0100     		.2byte	0x1
 4300 044d 54       		.byte	0x54
 4301 044e 28000000 		.4byte	.LVL66
 4302 0452 2C000000 		.4byte	.LVL67
 4303 0456 0100     		.2byte	0x1
 4304 0458 54       		.byte	0x54
 4305 0459 00000000 		.4byte	0
 4306 045d 00000000 		.4byte	0
 4307              	.LLST39:
 4308 0461 00000000 		.4byte	.LFB18
 4309 0465 02000000 		.4byte	.LCFI7
 4310 0469 0200     		.2byte	0x2
 4311 046b 7D       		.byte	0x7d
 4312 046c 00       		.sleb128 0
 4313 046d 02000000 		.4byte	.LCFI7
 4314 0471 3C000000 		.4byte	.LFE18
 4315 0475 0200     		.2byte	0x2
ARM GAS  C:\Users\jenny\AppData\Local\Temp\ccPzuVgt.s 			page 77


 4316 0477 7D       		.byte	0x7d
 4317 0478 10       		.sleb128 16
 4318 0479 00000000 		.4byte	0
 4319 047d 00000000 		.4byte	0
 4320              	.LLST40:
 4321 0481 00000000 		.4byte	.LVL68
 4322 0485 1A000000 		.4byte	.LVL74
 4323 0489 0100     		.2byte	0x1
 4324 048b 50       		.byte	0x50
 4325 048c 1A000000 		.4byte	.LVL74
 4326 0490 3C000000 		.4byte	.LFE18
 4327 0494 0100     		.2byte	0x1
 4328 0496 55       		.byte	0x55
 4329 0497 00000000 		.4byte	0
 4330 049b 00000000 		.4byte	0
 4331              	.LLST41:
 4332 049f 10000000 		.4byte	.LVL72
 4333 04a3 14000000 		.4byte	.LVL73
 4334 04a7 0600     		.2byte	0x6
 4335 04a9 70       		.byte	0x70
 4336 04aa 00       		.sleb128 0
 4337 04ab 71       		.byte	0x71
 4338 04ac 00       		.sleb128 0
 4339 04ad 1A       		.byte	0x1a
 4340 04ae 9F       		.byte	0x9f
 4341 04af 14000000 		.4byte	.LVL73
 4342 04b3 1D000000 		.4byte	.LVL75-1
 4343 04b7 0100     		.2byte	0x1
 4344 04b9 52       		.byte	0x52
 4345 04ba 24000000 		.4byte	.LVL76
 4346 04be 28000000 		.4byte	.LVL77
 4347 04c2 0100     		.2byte	0x1
 4348 04c4 52       		.byte	0x52
 4349 04c5 28000000 		.4byte	.LVL77
 4350 04c9 3C000000 		.4byte	.LFE18
 4351 04cd 0100     		.2byte	0x1
 4352 04cf 50       		.byte	0x50
 4353 04d0 00000000 		.4byte	0
 4354 04d4 00000000 		.4byte	0
 4355              	.LLST42:
 4356 04d8 0E000000 		.4byte	.LVL71
 4357 04dc 1D000000 		.4byte	.LVL75-1
 4358 04e0 0100     		.2byte	0x1
 4359 04e2 53       		.byte	0x53
 4360 04e3 24000000 		.4byte	.LVL76
 4361 04e7 30000000 		.4byte	.LVL78
 4362 04eb 0100     		.2byte	0x1
 4363 04ed 53       		.byte	0x53
 4364 04ee 00000000 		.4byte	0
 4365 04f2 00000000 		.4byte	0
 4366              	.LLST43:
 4367 04f6 34000000 		.4byte	.LVL79
 4368 04fa 3C000000 		.4byte	.LFE18
 4369 04fe 0100     		.2byte	0x1
 4370 0500 53       		.byte	0x53
 4371 0501 00000000 		.4byte	0
 4372 0505 00000000 		.4byte	0
ARM GAS  C:\Users\jenny\AppData\Local\Temp\ccPzuVgt.s 			page 78


 4373              	.LLST44:
 4374 0509 00000000 		.4byte	.LFB19
 4375 050d 02000000 		.4byte	.LCFI8
 4376 0511 0200     		.2byte	0x2
 4377 0513 7D       		.byte	0x7d
 4378 0514 00       		.sleb128 0
 4379 0515 02000000 		.4byte	.LCFI8
 4380 0519 34000000 		.4byte	.LFE19
 4381 051d 0200     		.2byte	0x2
 4382 051f 7D       		.byte	0x7d
 4383 0520 10       		.sleb128 16
 4384 0521 00000000 		.4byte	0
 4385 0525 00000000 		.4byte	0
 4386              	.LLST45:
 4387 0529 00000000 		.4byte	.LVL80
 4388 052d 12000000 		.4byte	.LVL85
 4389 0531 0100     		.2byte	0x1
 4390 0533 50       		.byte	0x50
 4391 0534 12000000 		.4byte	.LVL85
 4392 0538 34000000 		.4byte	.LFE19
 4393 053c 0100     		.2byte	0x1
 4394 053e 55       		.byte	0x55
 4395 053f 00000000 		.4byte	0
 4396 0543 00000000 		.4byte	0
 4397              	.LLST46:
 4398 0547 10000000 		.4byte	.LVL84
 4399 054b 12000000 		.4byte	.LVL85
 4400 054f 0600     		.2byte	0x6
 4401 0551 70       		.byte	0x70
 4402 0552 00       		.sleb128 0
 4403 0553 71       		.byte	0x71
 4404 0554 00       		.sleb128 0
 4405 0555 1A       		.byte	0x1a
 4406 0556 9F       		.byte	0x9f
 4407 0557 12000000 		.4byte	.LVL85
 4408 055b 16000000 		.4byte	.LVL86
 4409 055f 0100     		.2byte	0x1
 4410 0561 50       		.byte	0x50
 4411 0562 16000000 		.4byte	.LVL86
 4412 0566 1B000000 		.4byte	.LVL87-1
 4413 056a 0600     		.2byte	0x6
 4414 056c 75       		.byte	0x75
 4415 056d 00       		.sleb128 0
 4416 056e 71       		.byte	0x71
 4417 056f 00       		.sleb128 0
 4418 0570 1A       		.byte	0x1a
 4419 0571 9F       		.byte	0x9f
 4420 0572 22000000 		.4byte	.LVL88
 4421 0576 34000000 		.4byte	.LFE19
 4422 057a 0100     		.2byte	0x1
 4423 057c 50       		.byte	0x50
 4424 057d 00000000 		.4byte	0
 4425 0581 00000000 		.4byte	0
 4426              	.LLST47:
 4427 0585 0E000000 		.4byte	.LVL83
 4428 0589 1B000000 		.4byte	.LVL87-1
 4429 058d 0100     		.2byte	0x1
ARM GAS  C:\Users\jenny\AppData\Local\Temp\ccPzuVgt.s 			page 79


 4430 058f 53       		.byte	0x53
 4431 0590 22000000 		.4byte	.LVL88
 4432 0594 2A000000 		.4byte	.LVL89
 4433 0598 0100     		.2byte	0x1
 4434 059a 53       		.byte	0x53
 4435 059b 00000000 		.4byte	0
 4436 059f 00000000 		.4byte	0
 4437              	.LLST48:
 4438 05a3 2E000000 		.4byte	.LVL90
 4439 05a7 34000000 		.4byte	.LFE19
 4440 05ab 0100     		.2byte	0x1
 4441 05ad 53       		.byte	0x53
 4442 05ae 00000000 		.4byte	0
 4443 05b2 00000000 		.4byte	0
 4444              	.LLST49:
 4445 05b6 00000000 		.4byte	.LFB20
 4446 05ba 02000000 		.4byte	.LCFI9
 4447 05be 0200     		.2byte	0x2
 4448 05c0 7D       		.byte	0x7d
 4449 05c1 00       		.sleb128 0
 4450 05c2 02000000 		.4byte	.LCFI9
 4451 05c6 38000000 		.4byte	.LFE20
 4452 05ca 0200     		.2byte	0x2
 4453 05cc 7D       		.byte	0x7d
 4454 05cd 10       		.sleb128 16
 4455 05ce 00000000 		.4byte	0
 4456 05d2 00000000 		.4byte	0
 4457              	.LLST50:
 4458 05d6 00000000 		.4byte	.LVL91
 4459 05da 10000000 		.4byte	.LVL95
 4460 05de 0100     		.2byte	0x1
 4461 05e0 50       		.byte	0x50
 4462 05e1 10000000 		.4byte	.LVL95
 4463 05e5 38000000 		.4byte	.LFE20
 4464 05e9 0100     		.2byte	0x1
 4465 05eb 54       		.byte	0x54
 4466 05ec 00000000 		.4byte	0
 4467 05f0 00000000 		.4byte	0
 4468              	.LLST51:
 4469 05f4 0E000000 		.4byte	.LVL94
 4470 05f8 1F000000 		.4byte	.LVL96-1
 4471 05fc 0100     		.2byte	0x1
 4472 05fe 53       		.byte	0x53
 4473 05ff 22000000 		.4byte	.LVL97
 4474 0603 2A000000 		.4byte	.LVL98
 4475 0607 0100     		.2byte	0x1
 4476 0609 53       		.byte	0x53
 4477 060a 00000000 		.4byte	0
 4478 060e 00000000 		.4byte	0
 4479              	.LLST52:
 4480 0612 2E000000 		.4byte	.LVL99
 4481 0616 38000000 		.4byte	.LFE20
 4482 061a 0100     		.2byte	0x1
 4483 061c 53       		.byte	0x53
 4484 061d 00000000 		.4byte	0
 4485 0621 00000000 		.4byte	0
 4486              	.LLST53:
ARM GAS  C:\Users\jenny\AppData\Local\Temp\ccPzuVgt.s 			page 80


 4487 0625 00000000 		.4byte	.LFB21
 4488 0629 04000000 		.4byte	.LCFI10
 4489 062d 0200     		.2byte	0x2
 4490 062f 7D       		.byte	0x7d
 4491 0630 00       		.sleb128 0
 4492 0631 04000000 		.4byte	.LCFI10
 4493 0635 4C000000 		.4byte	.LFE21
 4494 0639 0200     		.2byte	0x2
 4495 063b 7D       		.byte	0x7d
 4496 063c 10       		.sleb128 16
 4497 063d 00000000 		.4byte	0
 4498 0641 00000000 		.4byte	0
 4499              	.LLST54:
 4500 0645 00000000 		.4byte	.LVL100
 4501 0649 10000000 		.4byte	.LVL104
 4502 064d 0100     		.2byte	0x1
 4503 064f 50       		.byte	0x50
 4504 0650 10000000 		.4byte	.LVL104
 4505 0654 4C000000 		.4byte	.LFE21
 4506 0658 0100     		.2byte	0x1
 4507 065a 55       		.byte	0x55
 4508 065b 00000000 		.4byte	0
 4509 065f 00000000 		.4byte	0
 4510              	.LLST55:
 4511 0663 00000000 		.4byte	.LVL100
 4512 0667 18000000 		.4byte	.LVL106
 4513 066b 0100     		.2byte	0x1
 4514 066d 51       		.byte	0x51
 4515 066e 18000000 		.4byte	.LVL106
 4516 0672 22000000 		.4byte	.LVL109
 4517 0676 0400     		.2byte	0x4
 4518 0678 F3       		.byte	0xf3
 4519 0679 01       		.uleb128 0x1
 4520 067a 51       		.byte	0x51
 4521 067b 9F       		.byte	0x9f
 4522 067c 22000000 		.4byte	.LVL109
 4523 0680 29000000 		.4byte	.LVL110-1
 4524 0684 0100     		.2byte	0x1
 4525 0686 51       		.byte	0x51
 4526 0687 29000000 		.4byte	.LVL110-1
 4527 068b 4C000000 		.4byte	.LFE21
 4528 068f 0400     		.2byte	0x4
 4529 0691 F3       		.byte	0xf3
 4530 0692 01       		.uleb128 0x1
 4531 0693 51       		.byte	0x51
 4532 0694 9F       		.byte	0x9f
 4533 0695 00000000 		.4byte	0
 4534 0699 00000000 		.4byte	0
 4535              	.LLST56:
 4536 069d 10000000 		.4byte	.LVL104
 4537 06a1 14000000 		.4byte	.LVL105
 4538 06a5 0600     		.2byte	0x6
 4539 06a7 75       		.byte	0x75
 4540 06a8 00       		.sleb128 0
 4541 06a9 70       		.byte	0x70
 4542 06aa 00       		.sleb128 0
 4543 06ab 1A       		.byte	0x1a
ARM GAS  C:\Users\jenny\AppData\Local\Temp\ccPzuVgt.s 			page 81


 4544 06ac 9F       		.byte	0x9f
 4545 06ad 14000000 		.4byte	.LVL105
 4546 06b1 4C000000 		.4byte	.LFE21
 4547 06b5 0100     		.2byte	0x1
 4548 06b7 54       		.byte	0x54
 4549 06b8 00000000 		.4byte	0
 4550 06bc 00000000 		.4byte	0
 4551              	.LLST57:
 4552 06c0 0E000000 		.4byte	.LVL103
 4553 06c4 1A000000 		.4byte	.LVL107
 4554 06c8 0100     		.2byte	0x1
 4555 06ca 53       		.byte	0x53
 4556 06cb 22000000 		.4byte	.LVL109
 4557 06cf 29000000 		.4byte	.LVL110-1
 4558 06d3 0100     		.2byte	0x1
 4559 06d5 53       		.byte	0x53
 4560 06d6 34000000 		.4byte	.LVL111
 4561 06da 40000000 		.4byte	.LVL113
 4562 06de 0100     		.2byte	0x1
 4563 06e0 53       		.byte	0x53
 4564 06e1 00000000 		.4byte	0
 4565 06e5 00000000 		.4byte	0
 4566              	.LLST58:
 4567 06e9 1E000000 		.4byte	.LVL108
 4568 06ed 22000000 		.4byte	.LVL109
 4569 06f1 0100     		.2byte	0x1
 4570 06f3 53       		.byte	0x53
 4571 06f4 00000000 		.4byte	0
 4572 06f8 00000000 		.4byte	0
 4573              	.LLST59:
 4574 06fc 44000000 		.4byte	.LVL114
 4575 0700 4C000000 		.4byte	.LFE21
 4576 0704 0100     		.2byte	0x1
 4577 0706 53       		.byte	0x53
 4578 0707 00000000 		.4byte	0
 4579 070b 00000000 		.4byte	0
 4580              	.LLST60:
 4581 070f 00000000 		.4byte	.LFB22
 4582 0713 04000000 		.4byte	.LCFI11
 4583 0717 0200     		.2byte	0x2
 4584 0719 7D       		.byte	0x7d
 4585 071a 00       		.sleb128 0
 4586 071b 04000000 		.4byte	.LCFI11
 4587 071f 48000000 		.4byte	.LFE22
 4588 0723 0200     		.2byte	0x2
 4589 0725 7D       		.byte	0x7d
 4590 0726 10       		.sleb128 16
 4591 0727 00000000 		.4byte	0
 4592 072b 00000000 		.4byte	0
 4593              	.LLST61:
 4594 072f 00000000 		.4byte	.LVL115
 4595 0733 18000000 		.4byte	.LVL121
 4596 0737 0100     		.2byte	0x1
 4597 0739 50       		.byte	0x50
 4598 073a 18000000 		.4byte	.LVL121
 4599 073e 22000000 		.4byte	.LVL124
 4600 0742 0100     		.2byte	0x1
ARM GAS  C:\Users\jenny\AppData\Local\Temp\ccPzuVgt.s 			page 82


 4601 0744 54       		.byte	0x54
 4602 0745 22000000 		.4byte	.LVL124
 4603 0749 24000000 		.4byte	.LVL125
 4604 074d 0100     		.2byte	0x1
 4605 074f 50       		.byte	0x50
 4606 0750 24000000 		.4byte	.LVL125
 4607 0754 48000000 		.4byte	.LFE22
 4608 0758 0100     		.2byte	0x1
 4609 075a 54       		.byte	0x54
 4610 075b 00000000 		.4byte	0
 4611 075f 00000000 		.4byte	0
 4612              	.LLST62:
 4613 0763 00000000 		.4byte	.LVL115
 4614 0767 18000000 		.4byte	.LVL121
 4615 076b 0100     		.2byte	0x1
 4616 076d 51       		.byte	0x51
 4617 076e 18000000 		.4byte	.LVL121
 4618 0772 22000000 		.4byte	.LVL124
 4619 0776 0400     		.2byte	0x4
 4620 0778 F3       		.byte	0xf3
 4621 0779 01       		.uleb128 0x1
 4622 077a 51       		.byte	0x51
 4623 077b 9F       		.byte	0x9f
 4624 077c 22000000 		.4byte	.LVL124
 4625 0780 29000000 		.4byte	.LVL126-1
 4626 0784 0100     		.2byte	0x1
 4627 0786 51       		.byte	0x51
 4628 0787 29000000 		.4byte	.LVL126-1
 4629 078b 48000000 		.4byte	.LFE22
 4630 078f 0400     		.2byte	0x4
 4631 0791 F3       		.byte	0xf3
 4632 0792 01       		.uleb128 0x1
 4633 0793 51       		.byte	0x51
 4634 0794 9F       		.byte	0x9f
 4635 0795 00000000 		.4byte	0
 4636 0799 00000000 		.4byte	0
 4637              	.LLST63:
 4638 079d 10000000 		.4byte	.LVL119
 4639 07a1 14000000 		.4byte	.LVL120
 4640 07a5 0600     		.2byte	0x6
 4641 07a7 70       		.byte	0x70
 4642 07a8 00       		.sleb128 0
 4643 07a9 72       		.byte	0x72
 4644 07aa 00       		.sleb128 0
 4645 07ab 1A       		.byte	0x1a
 4646 07ac 9F       		.byte	0x9f
 4647 07ad 14000000 		.4byte	.LVL120
 4648 07b1 48000000 		.4byte	.LFE22
 4649 07b5 0100     		.2byte	0x1
 4650 07b7 55       		.byte	0x55
 4651 07b8 00000000 		.4byte	0
 4652 07bc 00000000 		.4byte	0
 4653              	.LLST64:
 4654 07c0 0E000000 		.4byte	.LVL118
 4655 07c4 1A000000 		.4byte	.LVL122
 4656 07c8 0100     		.2byte	0x1
 4657 07ca 53       		.byte	0x53
ARM GAS  C:\Users\jenny\AppData\Local\Temp\ccPzuVgt.s 			page 83


 4658 07cb 22000000 		.4byte	.LVL124
 4659 07cf 29000000 		.4byte	.LVL126-1
 4660 07d3 0100     		.2byte	0x1
 4661 07d5 53       		.byte	0x53
 4662 07d6 34000000 		.4byte	.LVL127
 4663 07da 3C000000 		.4byte	.LVL128
 4664 07de 0100     		.2byte	0x1
 4665 07e0 53       		.byte	0x53
 4666 07e1 00000000 		.4byte	0
 4667 07e5 00000000 		.4byte	0
 4668              	.LLST65:
 4669 07e9 1E000000 		.4byte	.LVL123
 4670 07ed 22000000 		.4byte	.LVL124
 4671 07f1 0100     		.2byte	0x1
 4672 07f3 53       		.byte	0x53
 4673 07f4 00000000 		.4byte	0
 4674 07f8 00000000 		.4byte	0
 4675              	.LLST66:
 4676 07fc 40000000 		.4byte	.LVL129
 4677 0800 48000000 		.4byte	.LFE22
 4678 0804 0100     		.2byte	0x1
 4679 0806 53       		.byte	0x53
 4680 0807 00000000 		.4byte	0
 4681 080b 00000000 		.4byte	0
 4682              	.LLST67:
 4683 080f 00000000 		.4byte	.LFB23
 4684 0813 02000000 		.4byte	.LCFI12
 4685 0817 0200     		.2byte	0x2
 4686 0819 7D       		.byte	0x7d
 4687 081a 00       		.sleb128 0
 4688 081b 02000000 		.4byte	.LCFI12
 4689 081f 54000000 		.4byte	.LFE23
 4690 0823 0200     		.2byte	0x2
 4691 0825 7D       		.byte	0x7d
 4692 0826 10       		.sleb128 16
 4693 0827 00000000 		.4byte	0
 4694 082b 00000000 		.4byte	0
 4695              	.LLST68:
 4696 082f 00000000 		.4byte	.LVL130
 4697 0833 24000000 		.4byte	.LVL137
 4698 0837 0100     		.2byte	0x1
 4699 0839 50       		.byte	0x50
 4700 083a 24000000 		.4byte	.LVL137
 4701 083e 26000000 		.4byte	.LVL138
 4702 0842 0400     		.2byte	0x4
 4703 0844 F3       		.byte	0xf3
 4704 0845 01       		.uleb128 0x1
 4705 0846 50       		.byte	0x50
 4706 0847 9F       		.byte	0x9f
 4707 0848 26000000 		.4byte	.LVL138
 4708 084c 28000000 		.4byte	.LVL139
 4709 0850 0100     		.2byte	0x1
 4710 0852 50       		.byte	0x50
 4711 0853 28000000 		.4byte	.LVL139
 4712 0857 40000000 		.4byte	.LVL142
 4713 085b 0100     		.2byte	0x1
 4714 085d 54       		.byte	0x54
ARM GAS  C:\Users\jenny\AppData\Local\Temp\ccPzuVgt.s 			page 84


 4715 085e 40000000 		.4byte	.LVL142
 4716 0862 44000000 		.4byte	.LVL143
 4717 0866 0400     		.2byte	0x4
 4718 0868 F3       		.byte	0xf3
 4719 0869 01       		.uleb128 0x1
 4720 086a 50       		.byte	0x50
 4721 086b 9F       		.byte	0x9f
 4722 086c 44000000 		.4byte	.LVL143
 4723 0870 4C000000 		.4byte	.LVL145
 4724 0874 0100     		.2byte	0x1
 4725 0876 54       		.byte	0x54
 4726 0877 4C000000 		.4byte	.LVL145
 4727 087b 54000000 		.4byte	.LFE23
 4728 087f 0400     		.2byte	0x4
 4729 0881 F3       		.byte	0xf3
 4730 0882 01       		.uleb128 0x1
 4731 0883 50       		.byte	0x50
 4732 0884 9F       		.byte	0x9f
 4733 0885 00000000 		.4byte	0
 4734 0889 00000000 		.4byte	0
 4735              	.LLST69:
 4736 088d 00000000 		.4byte	.LVL130
 4737 0891 2D000000 		.4byte	.LVL140-1
 4738 0895 0100     		.2byte	0x1
 4739 0897 51       		.byte	0x51
 4740 0898 2D000000 		.4byte	.LVL140-1
 4741 089c 54000000 		.4byte	.LFE23
 4742 08a0 0400     		.2byte	0x4
 4743 08a2 F3       		.byte	0xf3
 4744 08a3 01       		.uleb128 0x1
 4745 08a4 51       		.byte	0x51
 4746 08a5 9F       		.byte	0x9f
 4747 08a6 00000000 		.4byte	0
 4748 08aa 00000000 		.4byte	0
 4749              	.LLST70:
 4750 08ae 0E000000 		.4byte	.LVL133
 4751 08b2 14000000 		.4byte	.LVL134
 4752 08b6 0100     		.2byte	0x1
 4753 08b8 53       		.byte	0x53
 4754 08b9 00000000 		.4byte	0
 4755 08bd 00000000 		.4byte	0
 4756              	.LLST71:
 4757 08c1 20000000 		.4byte	.LVL136
 4758 08c5 26000000 		.4byte	.LVL138
 4759 08c9 0100     		.2byte	0x1
 4760 08cb 53       		.byte	0x53
 4761 08cc 00000000 		.4byte	0
 4762 08d0 00000000 		.4byte	0
 4763              	.LLST72:
 4764 08d4 40000000 		.4byte	.LVL142
 4765 08d8 44000000 		.4byte	.LVL143
 4766 08dc 0100     		.2byte	0x1
 4767 08de 53       		.byte	0x53
 4768 08df 00000000 		.4byte	0
 4769 08e3 00000000 		.4byte	0
 4770              	.LLST73:
 4771 08e7 40000000 		.4byte	.LVL142
ARM GAS  C:\Users\jenny\AppData\Local\Temp\ccPzuVgt.s 			page 85


 4772 08eb 44000000 		.4byte	.LVL143
 4773 08ef 0100     		.2byte	0x1
 4774 08f1 53       		.byte	0x53
 4775 08f2 4A000000 		.4byte	.LVL144
 4776 08f6 54000000 		.4byte	.LFE23
 4777 08fa 0100     		.2byte	0x1
 4778 08fc 53       		.byte	0x53
 4779 08fd 00000000 		.4byte	0
 4780 0901 00000000 		.4byte	0
 4781              		.section	.debug_aranges,"",%progbits
 4782 0000 9C000000 		.4byte	0x9c
 4783 0004 0200     		.2byte	0x2
 4784 0006 00000000 		.4byte	.Ldebug_info0
 4785 000a 04       		.byte	0x4
 4786 000b 00       		.byte	0
 4787 000c 0000     		.2byte	0
 4788 000e 0000     		.2byte	0
 4789 0010 00000000 		.4byte	.LFB7
 4790 0014 2A000000 		.4byte	.LFE7-.LFB7
 4791 0018 00000000 		.4byte	.LFB8
 4792 001c 22000000 		.4byte	.LFE8-.LFB8
 4793 0020 00000000 		.4byte	.LFB9
 4794 0024 26000000 		.4byte	.LFE9-.LFB9
 4795 0028 00000000 		.4byte	.LFB10
 4796 002c 1E000000 		.4byte	.LFE10-.LFB10
 4797 0030 00000000 		.4byte	.LFB12
 4798 0034 14000000 		.4byte	.LFE12-.LFB12
 4799 0038 00000000 		.4byte	.LFB14
 4800 003c 2E000000 		.4byte	.LFE14-.LFB14
 4801 0040 00000000 		.4byte	.LFB13
 4802 0044 18000000 		.4byte	.LFE13-.LFB13
 4803 0048 00000000 		.4byte	.LFB11
 4804 004c 20000000 		.4byte	.LFE11-.LFB11
 4805 0050 00000000 		.4byte	.LFB15
 4806 0054 18000000 		.4byte	.LFE15-.LFB15
 4807 0058 00000000 		.4byte	.LFB16
 4808 005c 0A000000 		.4byte	.LFE16-.LFB16
 4809 0060 00000000 		.4byte	.LFB17
 4810 0064 2E000000 		.4byte	.LFE17-.LFB17
 4811 0068 00000000 		.4byte	.LFB18
 4812 006c 3C000000 		.4byte	.LFE18-.LFB18
 4813 0070 00000000 		.4byte	.LFB19
 4814 0074 34000000 		.4byte	.LFE19-.LFB19
 4815 0078 00000000 		.4byte	.LFB20
 4816 007c 38000000 		.4byte	.LFE20-.LFB20
 4817 0080 00000000 		.4byte	.LFB21
 4818 0084 4C000000 		.4byte	.LFE21-.LFB21
 4819 0088 00000000 		.4byte	.LFB22
 4820 008c 48000000 		.4byte	.LFE22-.LFB22
 4821 0090 00000000 		.4byte	.LFB23
 4822 0094 54000000 		.4byte	.LFE23-.LFB23
 4823 0098 00000000 		.4byte	0
 4824 009c 00000000 		.4byte	0
 4825              		.section	.debug_ranges,"",%progbits
 4826              	.Ldebug_ranges0:
 4827 0000 1A000000 		.4byte	.LBB3
 4828 0004 1C000000 		.4byte	.LBE3
ARM GAS  C:\Users\jenny\AppData\Local\Temp\ccPzuVgt.s 			page 86


 4829 0008 22000000 		.4byte	.LBB4
 4830 000c 26000000 		.4byte	.LBE4
 4831 0010 00000000 		.4byte	0
 4832 0014 00000000 		.4byte	0
 4833 0018 10000000 		.4byte	.LBB8
 4834 001c 12000000 		.4byte	.LBE8
 4835 0020 1C000000 		.4byte	.LBB9
 4836 0024 20000000 		.4byte	.LBE9
 4837 0028 00000000 		.4byte	0
 4838 002c 00000000 		.4byte	0
 4839 0030 0E000000 		.4byte	.LBB11
 4840 0034 10000000 		.4byte	.LBE11
 4841 0038 18000000 		.4byte	.LBB12
 4842 003c 1C000000 		.4byte	.LBE12
 4843 0040 00000000 		.4byte	0
 4844 0044 00000000 		.4byte	0
 4845 0048 00000000 		.4byte	.LFB7
 4846 004c 2A000000 		.4byte	.LFE7
 4847 0050 00000000 		.4byte	.LFB8
 4848 0054 22000000 		.4byte	.LFE8
 4849 0058 00000000 		.4byte	.LFB9
 4850 005c 26000000 		.4byte	.LFE9
 4851 0060 00000000 		.4byte	.LFB10
 4852 0064 1E000000 		.4byte	.LFE10
 4853 0068 00000000 		.4byte	.LFB12
 4854 006c 14000000 		.4byte	.LFE12
 4855 0070 00000000 		.4byte	.LFB14
 4856 0074 2E000000 		.4byte	.LFE14
 4857 0078 00000000 		.4byte	.LFB13
 4858 007c 18000000 		.4byte	.LFE13
 4859 0080 00000000 		.4byte	.LFB11
 4860 0084 20000000 		.4byte	.LFE11
 4861 0088 00000000 		.4byte	.LFB15
 4862 008c 18000000 		.4byte	.LFE15
 4863 0090 00000000 		.4byte	.LFB16
 4864 0094 0A000000 		.4byte	.LFE16
 4865 0098 00000000 		.4byte	.LFB17
 4866 009c 2E000000 		.4byte	.LFE17
 4867 00a0 00000000 		.4byte	.LFB18
 4868 00a4 3C000000 		.4byte	.LFE18
 4869 00a8 00000000 		.4byte	.LFB19
 4870 00ac 34000000 		.4byte	.LFE19
 4871 00b0 00000000 		.4byte	.LFB20
 4872 00b4 38000000 		.4byte	.LFE20
 4873 00b8 00000000 		.4byte	.LFB21
 4874 00bc 4C000000 		.4byte	.LFE21
 4875 00c0 00000000 		.4byte	.LFB22
 4876 00c4 48000000 		.4byte	.LFE22
 4877 00c8 00000000 		.4byte	.LFB23
 4878 00cc 54000000 		.4byte	.LFE23
 4879 00d0 00000000 		.4byte	0
 4880 00d4 00000000 		.4byte	0
 4881              		.section	.debug_line,"",%progbits
 4882              	.Ldebug_line0:
 4883 0000 0A030000 		.section	.debug_str,"MS",%progbits,1
 4883      02002601 
 4883      00000201 
ARM GAS  C:\Users\jenny\AppData\Local\Temp\ccPzuVgt.s 			page 87


 4883      FB0E0D00 
 4883      01010101 
 4884              	.LASF38:
 4885 0000 705F6D73 		.ascii	"p_msg\000"
 4885      6700
 4886              	.LASF68:
 4887 0006 7264796D 		.ascii	"rdymsg\000"
 4887      736700
 4888              	.LASF80:
 4889 000d 63684576 		.ascii	"chEvtSignal\000"
 4889      74536967 
 4889      6E616C00 
 4890              	.LASF11:
 4891 0019 6C6F6E67 		.ascii	"long long unsigned int\000"
 4891      206C6F6E 
 4891      6720756E 
 4891      7369676E 
 4891      65642069 
 4892              	.LASF77:
 4893 0030 63684576 		.ascii	"chEvtAddEvents\000"
 4893      74416464 
 4893      4576656E 
 4893      747300
 4894              	.LASF91:
 4895 003f 63684576 		.ascii	"chEvtWaitAnyTimeout\000"
 4895      74576169 
 4895      74416E79 
 4895      54696D65 
 4895      6F757400 
 4896              	.LASF26:
 4897 0053 705F7072 		.ascii	"p_prio\000"
 4897      696F00
 4898              	.LASF10:
 4899 005a 6C6F6E67 		.ascii	"long long int\000"
 4899      206C6F6E 
 4899      6720696E 
 4899      7400
 4900              	.LASF1:
 4901 0068 7369676E 		.ascii	"signed char\000"
 4901      65642063 
 4901      68617200 
 4902              	.LASF92:
 4903 0074 63684576 		.ascii	"chEvtWaitAllTimeout\000"
 4903      74576169 
 4903      74416C6C 
 4903      54696D65 
 4903      6F757400 
 4904              	.LASF42:
 4905 0088 705F6D70 		.ascii	"p_mpool\000"
 4905      6F6F6C00 
 4906              	.LASF57:
 4907 0090 6D5F7175 		.ascii	"m_queue\000"
 4907      65756500 
 4908              	.LASF16:
 4909 0098 74736C69 		.ascii	"tslices_t\000"
 4909      6365735F 
 4909      7400
ARM GAS  C:\Users\jenny\AppData\Local\Temp\ccPzuVgt.s 			page 88


 4910              	.LASF96:
 4911 00a2 474E5520 		.ascii	"GNU C 4.7.4 20130913 (release) [ARM/embedded-4_7-br"
 4911      4320342E 
 4911      372E3420 
 4911      32303133 
 4911      30393133 
 4912 00d5 616E6368 		.ascii	"anch revision 202601]\000"
 4912      20726576 
 4912      6973696F 
 4912      6E203230 
 4912      32363031 
 4913              	.LASF7:
 4914 00eb 6C6F6E67 		.ascii	"long int\000"
 4914      20696E74 
 4914      00
 4915              	.LASF14:
 4916 00f4 74737461 		.ascii	"tstate_t\000"
 4916      74655F74 
 4916      00
 4917              	.LASF87:
 4918 00fd 63684576 		.ascii	"chEvtWaitAny\000"
 4918      74576169 
 4918      74416E79 
 4918      00
 4919              	.LASF98:
 4920 010a 443A5C6A 		.ascii	"D:\\jenny\\dev\\probe\\chibios\\chibios.workspace\\"
 4920      656E6E79 
 4920      5C646576 
 4920      5C70726F 
 4920      62655C63 
 4921 0137 64656D6F 		.ascii	"demos\\ARMCM4-STM32F407-LWIP-FATFS-USB\000"
 4921      735C4152 
 4921      4D434D34 
 4921      2D53544D 
 4921      33324634 
 4922              	.LASF81:
 4923 015d 63684576 		.ascii	"chEvtBroadcastFlagsI\000"
 4923      7442726F 
 4923      61646361 
 4923      7374466C 
 4923      61677349 
 4924              	.LASF28:
 4925 0172 705F6E65 		.ascii	"p_newer\000"
 4925      77657200 
 4926              	.LASF69:
 4927 017a 65786974 		.ascii	"exitcode\000"
 4927      636F6465 
 4927      00
 4928              	.LASF101:
 4929 0183 63685363 		.ascii	"chSchRescheduleS\000"
 4929      68526573 
 4929      63686564 
 4929      756C6553 
 4929      00
 4930              	.LASF52:
 4931 0194 725F6E65 		.ascii	"r_newer\000"
 4931      77657200 
ARM GAS  C:\Users\jenny\AppData\Local\Temp\ccPzuVgt.s 			page 89


 4932              	.LASF73:
 4933 019c 6D61736B 		.ascii	"mask\000"
 4933      00
 4934              	.LASF45:
 4935 01a1 72656761 		.ascii	"regarm_t\000"
 4935      726D5F74 
 4935      00
 4936              	.LASF82:
 4937 01aa 63684576 		.ascii	"chEvtBroadcastFlags\000"
 4937      7442726F 
 4937      61646361 
 4937      7374466C 
 4937      61677300 
 4938              	.LASF19:
 4939 01be 6576656E 		.ascii	"eventid_t\000"
 4939      7469645F 
 4939      7400
 4940              	.LASF65:
 4941 01c8 4576656E 		.ascii	"EventSource\000"
 4941      74536F75 
 4941      72636500 
 4942              	.LASF67:
 4943 01d4 65766861 		.ascii	"evhandler_t\000"
 4943      6E646C65 
 4943      725F7400 
 4944              	.LASF0:
 4945 01e0 756E7369 		.ascii	"unsigned int\000"
 4945      676E6564 
 4945      20696E74 
 4945      00
 4946              	.LASF9:
 4947 01ed 6C6F6E67 		.ascii	"long unsigned int\000"
 4947      20756E73 
 4947      69676E65 
 4947      6420696E 
 4947      7400
 4948              	.LASF76:
 4949 01ff 63684576 		.ascii	"chEvtGetAndClearEvents\000"
 4949      74476574 
 4949      416E6443 
 4949      6C656172 
 4949      4576656E 
 4950              	.LASF47:
 4951 0216 636F6E74 		.ascii	"context\000"
 4951      65787400 
 4952              	.LASF4:
 4953 021e 73686F72 		.ascii	"short unsigned int\000"
 4953      7420756E 
 4953      7369676E 
 4953      65642069 
 4953      6E7400
 4954              	.LASF74:
 4955 0231 63684576 		.ascii	"chEvtRegisterMask\000"
 4955      74526567 
 4955      69737465 
 4955      724D6173 
 4955      6B00
ARM GAS  C:\Users\jenny\AppData\Local\Temp\ccPzuVgt.s 			page 90


 4956              	.LASF18:
 4957 0243 6D73675F 		.ascii	"msg_t\000"
 4957      7400
 4958              	.LASF61:
 4959 0249 656C5F6E 		.ascii	"el_next\000"
 4959      65787400 
 4960              	.LASF75:
 4961 0251 63684576 		.ascii	"chEvtUnregister\000"
 4961      74556E72 
 4961      65676973 
 4961      74657200 
 4962              	.LASF13:
 4963 0261 746D6F64 		.ascii	"tmode_t\000"
 4963      655F7400 
 4964              	.LASF44:
 4965 0269 54687265 		.ascii	"ThreadsList\000"
 4965      6164734C 
 4965      69737400 
 4966              	.LASF20:
 4967 0275 6576656E 		.ascii	"eventmask_t\000"
 4967      746D6173 
 4967      6B5F7400 
 4968              	.LASF56:
 4969 0281 4D757465 		.ascii	"Mutex\000"
 4969      7800
 4970              	.LASF48:
 4971 0287 73697A65 		.ascii	"sizetype\000"
 4971      74797065 
 4971      00
 4972              	.LASF95:
 4973 0290 63685363 		.ascii	"chSchGoSleepTimeoutS\000"
 4973      68476F53 
 4973      6C656570 
 4973      54696D65 
 4973      6F757453 
 4974              	.LASF84:
 4975 02a5 63684576 		.ascii	"chEvtDispatch\000"
 4975      74446973 
 4975      70617463 
 4975      6800
 4976              	.LASF29:
 4977 02b3 705F6F6C 		.ascii	"p_older\000"
 4977      64657200 
 4978              	.LASF51:
 4979 02bb 725F6374 		.ascii	"r_ctx\000"
 4979      7800
 4980              	.LASF43:
 4981 02c1 54687265 		.ascii	"ThreadsQueue\000"
 4981      61647351 
 4981      75657565 
 4981      00
 4982              	.LASF90:
 4983 02ce 74696D65 		.ascii	"time\000"
 4983      00
 4984              	.LASF88:
 4985 02d3 63684576 		.ascii	"chEvtWaitAll\000"
 4985      74576169 
ARM GAS  C:\Users\jenny\AppData\Local\Temp\ccPzuVgt.s 			page 91


 4985      74416C6C 
 4985      00
 4986              	.LASF54:
 4987 02e0 725F6375 		.ascii	"r_current\000"
 4987      7272656E 
 4987      7400
 4988              	.LASF53:
 4989 02ea 725F6F6C 		.ascii	"r_older\000"
 4989      64657200 
 4990              	.LASF63:
 4991 02f2 656C5F6D 		.ascii	"el_mask\000"
 4991      61736B00 
 4992              	.LASF85:
 4993 02fa 68616E64 		.ascii	"handlers\000"
 4993      6C657273 
 4993      00
 4994              	.LASF15:
 4995 0303 74726566 		.ascii	"trefs_t\000"
 4995      735F7400 
 4996              	.LASF25:
 4997 030b 705F7072 		.ascii	"p_prev\000"
 4997      657600
 4998              	.LASF17:
 4999 0312 74707269 		.ascii	"tprio_t\000"
 4999      6F5F7400 
 5000              	.LASF12:
 5001 031a 5F426F6F 		.ascii	"_Bool\000"
 5001      6C00
 5002              	.LASF6:
 5003 0320 696E7433 		.ascii	"int32_t\000"
 5003      325F7400 
 5004              	.LASF2:
 5005 0328 756E7369 		.ascii	"unsigned char\000"
 5005      676E6564 
 5005      20636861 
 5005      7200
 5006              	.LASF86:
 5007 0336 63684576 		.ascii	"chEvtWaitOne\000"
 5007      74576169 
 5007      744F6E65 
 5007      00
 5008              	.LASF62:
 5009 0343 656C5F6C 		.ascii	"el_listener\000"
 5009      69737465 
 5009      6E657200 
 5010              	.LASF64:
 5011 034f 656C5F66 		.ascii	"el_flags\000"
 5011      6C616773 
 5011      00
 5012              	.LASF40:
 5013 0358 705F6D74 		.ascii	"p_mtxlist\000"
 5013      786C6973 
 5013      7400
 5014              	.LASF3:
 5015 0362 73686F72 		.ascii	"short int\000"
 5015      7420696E 
 5015      7400
ARM GAS  C:\Users\jenny\AppData\Local\Temp\ccPzuVgt.s 			page 92


 5016              	.LASF31:
 5017 036c 705F7374 		.ascii	"p_state\000"
 5017      61746500 
 5018              	.LASF34:
 5019 0374 705F7072 		.ascii	"p_preempt\000"
 5019      65656D70 
 5019      7400
 5020              	.LASF50:
 5021 037e 725F7072 		.ascii	"r_prio\000"
 5021      696F00
 5022              	.LASF83:
 5023 0385 63684576 		.ascii	"chEvtGetAndClearFlagsI\000"
 5023      74476574 
 5023      416E6443 
 5023      6C656172 
 5023      466C6167 
 5024              	.LASF71:
 5025 039c 65776D61 		.ascii	"ewmask\000"
 5025      736B00
 5026              	.LASF24:
 5027 03a3 705F6E65 		.ascii	"p_next\000"
 5027      787400
 5028              	.LASF32:
 5029 03aa 705F666C 		.ascii	"p_flags\000"
 5029      61677300 
 5030              	.LASF23:
 5031 03b2 54687265 		.ascii	"Thread\000"
 5031      616400
 5032              	.LASF94:
 5033 03b9 63685363 		.ascii	"chSchGoSleepS\000"
 5033      68476F53 
 5033      6C656570 
 5033      5300
 5034              	.LASF39:
 5035 03c7 705F6570 		.ascii	"p_epending\000"
 5035      656E6469 
 5035      6E6700
 5036              	.LASF8:
 5037 03d2 75696E74 		.ascii	"uint32_t\000"
 5037      33325F74 
 5037      00
 5038              	.LASF49:
 5039 03db 725F7175 		.ascii	"r_queue\000"
 5039      65756500 
 5040              	.LASF72:
 5041 03e3 63686172 		.ascii	"char\000"
 5041      00
 5042              	.LASF100:
 5043 03e8 63685363 		.ascii	"chSchReadyI\000"
 5043      68526561 
 5043      64794900 
 5044              	.LASF59:
 5045 03f4 6D5F6E65 		.ascii	"m_next\000"
 5045      787400
 5046              	.LASF22:
 5047 03fb 73797374 		.ascii	"systime_t\000"
 5047      696D655F 
ARM GAS  C:\Users\jenny\AppData\Local\Temp\ccPzuVgt.s 			page 93


 5047      7400
 5048              	.LASF41:
 5049 0405 705F7265 		.ascii	"p_realprio\000"
 5049      616C7072 
 5049      696F00
 5050              	.LASF35:
 5051 0410 705F7469 		.ascii	"p_time\000"
 5051      6D6500
 5052              	.LASF46:
 5053 0417 696E7463 		.ascii	"intctx\000"
 5053      747800
 5054              	.LASF37:
 5055 041e 705F6D73 		.ascii	"p_msgqueue\000"
 5055      67717565 
 5055      756500
 5056              	.LASF21:
 5057 0429 666C6167 		.ascii	"flagsmask_t\000"
 5057      736D6173 
 5057      6B5F7400 
 5058              	.LASF33:
 5059 0435 705F7265 		.ascii	"p_refs\000"
 5059      667300
 5060              	.LASF55:
 5061 043c 52656164 		.ascii	"ReadyList\000"
 5061      794C6973 
 5061      7400
 5062              	.LASF99:
 5063 0446 726C6973 		.ascii	"rlist\000"
 5063      7400
 5064              	.LASF5:
 5065 044c 75696E74 		.ascii	"uint8_t\000"
 5065      385F7400 
 5066              	.LASF79:
 5067 0454 666C6167 		.ascii	"flags\000"
 5067      7300
 5068              	.LASF97:
 5069 045a 2E2E2F2E 		.ascii	"../../os/kernel/src/chevents.c\000"
 5069      2E2F6F73 
 5069      2F6B6572 
 5069      6E656C2F 
 5069      7372632F 
 5070              	.LASF60:
 5071 0479 4576656E 		.ascii	"EventListener\000"
 5071      744C6973 
 5071      74656E65 
 5071      7200
 5072              	.LASF89:
 5073 0487 63684576 		.ascii	"chEvtWaitOneTimeout\000"
 5073      74576169 
 5073      744F6E65 
 5073      54696D65 
 5073      6F757400 
 5074              	.LASF70:
 5075 049b 77746F62 		.ascii	"wtobjp\000"
 5075      6A7000
 5076              	.LASF30:
 5077 04a2 705F6E61 		.ascii	"p_name\000"
ARM GAS  C:\Users\jenny\AppData\Local\Temp\ccPzuVgt.s 			page 94


 5077      6D6500
 5078              	.LASF66:
 5079 04a9 65735F6E 		.ascii	"es_next\000"
 5079      65787400 
 5080              	.LASF78:
 5081 04b1 63684576 		.ascii	"chEvtGetAndClearFlags\000"
 5081      74476574 
 5081      416E6443 
 5081      6C656172 
 5081      466C6167 
 5082              	.LASF58:
 5083 04c7 6D5F6F77 		.ascii	"m_owner\000"
 5083      6E657200 
 5084              	.LASF27:
 5085 04cf 705F6374 		.ascii	"p_ctx\000"
 5085      7800
 5086              	.LASF36:
 5087 04d5 705F7761 		.ascii	"p_waiting\000"
 5087      6974696E 
 5087      6700
 5088              	.LASF93:
 5089 04df 63684576 		.ascii	"chEvtSignalI\000"
 5089      74536967 
 5089      6E616C49 
 5089      00
 5090              		.ident	"GCC: (GNU Tools for ARM Embedded Processors) 4.7.4 20130913 (release) [ARM/embedded-4_7-br
ARM GAS  C:\Users\jenny\AppData\Local\Temp\ccPzuVgt.s 			page 95


DEFINED SYMBOLS
                            *ABS*:00000000 chevents.c
C:\Users\jenny\AppData\Local\Temp\ccPzuVgt.s:20     .text.chEvtRegisterMask:00000000 $t
C:\Users\jenny\AppData\Local\Temp\ccPzuVgt.s:26     .text.chEvtRegisterMask:00000000 chEvtRegisterMask
C:\Users\jenny\AppData\Local\Temp\ccPzuVgt.s:90     .text.chEvtUnregister:00000000 $t
C:\Users\jenny\AppData\Local\Temp\ccPzuVgt.s:96     .text.chEvtUnregister:00000000 chEvtUnregister
C:\Users\jenny\AppData\Local\Temp\ccPzuVgt.s:152    .text.chEvtGetAndClearEvents:00000000 $t
C:\Users\jenny\AppData\Local\Temp\ccPzuVgt.s:158    .text.chEvtGetAndClearEvents:00000000 chEvtGetAndClearEvents
C:\Users\jenny\AppData\Local\Temp\ccPzuVgt.s:212    .text.chEvtAddEvents:00000000 $t
C:\Users\jenny\AppData\Local\Temp\ccPzuVgt.s:218    .text.chEvtAddEvents:00000000 chEvtAddEvents
C:\Users\jenny\AppData\Local\Temp\ccPzuVgt.s:265    .text.chEvtGetAndClearFlags:00000000 $t
C:\Users\jenny\AppData\Local\Temp\ccPzuVgt.s:271    .text.chEvtGetAndClearFlags:00000000 chEvtGetAndClearFlags
C:\Users\jenny\AppData\Local\Temp\ccPzuVgt.s:313    .text.chEvtSignalI:00000000 $t
C:\Users\jenny\AppData\Local\Temp\ccPzuVgt.s:319    .text.chEvtSignalI:00000000 chEvtSignalI
C:\Users\jenny\AppData\Local\Temp\ccPzuVgt.s:380    .text.chEvtSignal:00000000 $t
C:\Users\jenny\AppData\Local\Temp\ccPzuVgt.s:386    .text.chEvtSignal:00000000 chEvtSignal
C:\Users\jenny\AppData\Local\Temp\ccPzuVgt.s:429    .text.chEvtBroadcastFlagsI:00000000 $t
C:\Users\jenny\AppData\Local\Temp\ccPzuVgt.s:435    .text.chEvtBroadcastFlagsI:00000000 chEvtBroadcastFlagsI
C:\Users\jenny\AppData\Local\Temp\ccPzuVgt.s:482    .text.chEvtBroadcastFlags:00000000 $t
C:\Users\jenny\AppData\Local\Temp\ccPzuVgt.s:488    .text.chEvtBroadcastFlags:00000000 chEvtBroadcastFlags
C:\Users\jenny\AppData\Local\Temp\ccPzuVgt.s:531    .text.chEvtGetAndClearFlagsI:00000000 $t
C:\Users\jenny\AppData\Local\Temp\ccPzuVgt.s:537    .text.chEvtGetAndClearFlagsI:00000000 chEvtGetAndClearFlagsI
C:\Users\jenny\AppData\Local\Temp\ccPzuVgt.s:560    .text.chEvtDispatch:00000000 $t
C:\Users\jenny\AppData\Local\Temp\ccPzuVgt.s:566    .text.chEvtDispatch:00000000 chEvtDispatch
C:\Users\jenny\AppData\Local\Temp\ccPzuVgt.s:626    .text.chEvtWaitOne:00000000 $t
C:\Users\jenny\AppData\Local\Temp\ccPzuVgt.s:632    .text.chEvtWaitOne:00000000 chEvtWaitOne
C:\Users\jenny\AppData\Local\Temp\ccPzuVgt.s:703    .text.chEvtWaitOne:00000038 $d
C:\Users\jenny\AppData\Local\Temp\ccPzuVgt.s:708    .text.chEvtWaitAny:00000000 $t
C:\Users\jenny\AppData\Local\Temp\ccPzuVgt.s:714    .text.chEvtWaitAny:00000000 chEvtWaitAny
C:\Users\jenny\AppData\Local\Temp\ccPzuVgt.s:782    .text.chEvtWaitAny:00000030 $d
C:\Users\jenny\AppData\Local\Temp\ccPzuVgt.s:787    .text.chEvtWaitAll:00000000 $t
C:\Users\jenny\AppData\Local\Temp\ccPzuVgt.s:793    .text.chEvtWaitAll:00000000 chEvtWaitAll
C:\Users\jenny\AppData\Local\Temp\ccPzuVgt.s:859    .text.chEvtWaitAll:00000034 $d
C:\Users\jenny\AppData\Local\Temp\ccPzuVgt.s:864    .text.chEvtWaitOneTimeout:00000000 $t
C:\Users\jenny\AppData\Local\Temp\ccPzuVgt.s:870    .text.chEvtWaitOneTimeout:00000000 chEvtWaitOneTimeout
C:\Users\jenny\AppData\Local\Temp\ccPzuVgt.s:964    .text.chEvtWaitOneTimeout:00000048 $d
C:\Users\jenny\AppData\Local\Temp\ccPzuVgt.s:969    .text.chEvtWaitAnyTimeout:00000000 $t
C:\Users\jenny\AppData\Local\Temp\ccPzuVgt.s:975    .text.chEvtWaitAnyTimeout:00000000 chEvtWaitAnyTimeout
C:\Users\jenny\AppData\Local\Temp\ccPzuVgt.s:1066   .text.chEvtWaitAnyTimeout:00000044 $d
C:\Users\jenny\AppData\Local\Temp\ccPzuVgt.s:1071   .text.chEvtWaitAllTimeout:00000000 $t
C:\Users\jenny\AppData\Local\Temp\ccPzuVgt.s:1077   .text.chEvtWaitAllTimeout:00000000 chEvtWaitAllTimeout
C:\Users\jenny\AppData\Local\Temp\ccPzuVgt.s:1181   .text.chEvtWaitAllTimeout:00000050 $d
                     .debug_frame:00000010 $d
C:\Users\jenny\AppData\Local\Temp\ccPzuVgt.s:707    .text.chEvtWaitOne:0000003c $t
C:\Users\jenny\AppData\Local\Temp\ccPzuVgt.s:786    .text.chEvtWaitAny:00000034 $t
C:\Users\jenny\AppData\Local\Temp\ccPzuVgt.s:863    .text.chEvtWaitAll:00000038 $t
C:\Users\jenny\AppData\Local\Temp\ccPzuVgt.s:968    .text.chEvtWaitOneTimeout:0000004c $t
C:\Users\jenny\AppData\Local\Temp\ccPzuVgt.s:1070   .text.chEvtWaitAnyTimeout:00000048 $t
C:\Users\jenny\AppData\Local\Temp\ccPzuVgt.s:1185   .text.chEvtWaitAllTimeout:00000054 $t

UNDEFINED SYMBOLS
rlist
chSchReadyI
chSchRescheduleS
chSchGoSleepS
chSchGoSleepTimeoutS
