ARM GAS  C:\Users\jenny\AppData\Local\Temp\ccR8wREU.s 			page 1


   1              		.syntax unified
   2              		.cpu cortex-m4
   3              		.eabi_attribute 27, 3
   4              		.fpu fpv4-sp-d16
   5              		.eabi_attribute 20, 1
   6              		.eabi_attribute 21, 1
   7              		.eabi_attribute 23, 3
   8              		.eabi_attribute 24, 1
   9              		.eabi_attribute 25, 1
  10              		.eabi_attribute 26, 1
  11              		.eabi_attribute 30, 2
  12              		.eabi_attribute 34, 1
  13              		.eabi_attribute 18, 4
  14              		.thumb
  15              		.file	"chqueues.c"
  16              		.text
  17              	.Ltext0:
  18              		.cfi_sections	.debug_frame
  19              		.section	.text.qwait,"ax",%progbits
  20              		.align	2
  21              		.p2align 4,,15
  22              		.thumb
  23              		.thumb_func
  24              		.type	qwait, %function
  25              	qwait:
  26              	.LFB7:
  27              		.file 1 "../../os/kernel/src/chqueues.c"
  28              		.loc 1 70 0
  29              		.cfi_startproc
  30              		@ args = 0, pretend = 0, frame = 0
  31              		@ frame_needed = 0, uses_anonymous_args = 0
  32              		@ link register save eliminated.
  33              	.LVL0:
  34 0000 10B4     		push	{r4}
  35              	.LCFI0:
  36              		.cfi_def_cfa_offset 4
  37              		.cfi_offset 4, -4
  38              		.loc 1 70 0
  39 0002 0246     		mov	r2, r0
  40              		.loc 1 72 0
  41 0004 59B1     		cbz	r1, .L2
  42              		.loc 1 74 0
  43 0006 084B     		ldr	r3, .L4
  44 0008 9B69     		ldr	r3, [r3, #24]
  45 000a 5862     		str	r0, [r3, #36]
  46              	.LVL1:
  47              	.LBB12:
  48              	.LBB13:
  49              		.file 2 "../../os/kernel/include/chinline.h"
  50              		.loc 2 55 0
  51 000c 4468     		ldr	r4, [r0, #4]
  52              	.LBE13:
  53              	.LBE12:
  54              		.loc 1 76 0
  55 000e 0D20     		movs	r0, #13
  56              	.LVL2:
  57              	.LBB15:
ARM GAS  C:\Users\jenny\AppData\Local\Temp\ccR8wREU.s 			page 2


  58              	.LBB14:
  59              		.loc 2 55 0
  60 0010 83E81400 		stmia	r3, {r2, r4}
  61              		.loc 2 56 0
  62 0014 5360     		str	r3, [r2, #4]
  63 0016 2360     		str	r3, [r4, #0]
  64              	.LBE14:
  65              	.LBE15:
  66              		.loc 1 77 0
  67 0018 10BC     		pop	{r4}
  68              		.loc 1 76 0
  69 001a FFF7FEBF 		b	chSchGoSleepTimeoutS
  70              	.LVL3:
  71              	.L2:
  72              		.loc 1 77 0
  73 001e 4FF0FF30 		mov	r0, #-1
  74              	.LVL4:
  75 0022 10BC     		pop	{r4}
  76 0024 7047     		bx	lr
  77              	.L5:
  78 0026 00BF     		.align	2
  79              	.L4:
  80 0028 00000000 		.word	rlist
  81              		.cfi_endproc
  82              	.LFE7:
  83              		.size	qwait, .-qwait
  84 002c AFF30080 		.section	.text.chIQInit,"ax",%progbits
  85              		.align	2
  86              		.p2align 4,,15
  87              		.global	chIQInit
  88              		.thumb
  89              		.thumb_func
  90              		.type	chIQInit, %function
  91              	chIQInit:
  92              	.LFB8:
  93              		.loc 1 96 0
  94              		.cfi_startproc
  95              		@ args = 4, pretend = 0, frame = 0
  96              		@ frame_needed = 0, uses_anonymous_args = 0
  97              		@ link register save eliminated.
  98              	.LVL5:
  99 0000 10B4     		push	{r4}
 100              	.LCFI1:
 101              		.cfi_def_cfa_offset 4
 102              		.cfi_offset 4, -4
 103              		.loc 1 102 0
 104 0002 C361     		str	r3, [r0, #28]
 105              		.loc 1 103 0
 106 0004 019B     		ldr	r3, [sp, #4]
 107              	.LVL6:
 108              		.loc 1 98 0
 109 0006 4060     		str	r0, [r0, #4]
 110              		.loc 1 101 0
 111 0008 8A18     		adds	r2, r1, r2
 112              	.LVL7:
 113              		.loc 1 99 0
 114 000a 0024     		movs	r4, #0
ARM GAS  C:\Users\jenny\AppData\Local\Temp\ccR8wREU.s 			page 3


 115              		.loc 1 98 0
 116 000c 0060     		str	r0, [r0, #0]
 117              		.loc 1 99 0
 118 000e 8460     		str	r4, [r0, #8]
 119              		.loc 1 100 0
 120 0010 4161     		str	r1, [r0, #20]
 121 0012 8161     		str	r1, [r0, #24]
 122 0014 C160     		str	r1, [r0, #12]
 123              		.loc 1 101 0
 124 0016 0261     		str	r2, [r0, #16]
 125              		.loc 1 103 0
 126 0018 0362     		str	r3, [r0, #32]
 127              		.loc 1 104 0
 128 001a 10BC     		pop	{r4}
 129 001c 7047     		bx	lr
 130              		.cfi_endproc
 131              	.LFE8:
 132              		.size	chIQInit, .-chIQInit
 133 001e 00BF     		.section	.text.chIQResetI,"ax",%progbits
 134              		.align	2
 135              		.p2align 4,,15
 136              		.global	chIQResetI
 137              		.thumb
 138              		.thumb_func
 139              		.type	chIQResetI, %function
 140              	chIQResetI:
 141              	.LFB9:
 142              		.loc 1 117 0
 143              		.cfi_startproc
 144              		@ args = 0, pretend = 0, frame = 0
 145              		@ frame_needed = 0, uses_anonymous_args = 0
 146              	.LVL8:
 147 0000 38B5     		push	{r3, r4, r5, lr}
 148              	.LCFI2:
 149              		.cfi_def_cfa_offset 16
 150              		.cfi_offset 3, -16
 151              		.cfi_offset 4, -12
 152              		.cfi_offset 5, -8
 153              		.cfi_offset 14, -4
 154              		.loc 1 117 0
 155 0002 0446     		mov	r4, r0
 156              		.loc 1 121 0
 157 0004 C368     		ldr	r3, [r0, #12]
 158              		.loc 1 123 0
 159 0006 0068     		ldr	r0, [r0, #0]
 160              	.LVL9:
 161              		.loc 1 121 0
 162 0008 6361     		str	r3, [r4, #20]
 163              		.loc 1 122 0
 164 000a 0021     		movs	r1, #0
 165              		.loc 1 123 0
 166 000c A042     		cmp	r0, r4
 167              		.loc 1 121 0
 168 000e A361     		str	r3, [r4, #24]
 169              		.loc 1 122 0
 170 0010 A160     		str	r1, [r4, #8]
 171              		.loc 1 123 0
ARM GAS  C:\Users\jenny\AppData\Local\Temp\ccR8wREU.s 			page 4


 172 0012 0AD0     		beq	.L7
 173              		.loc 1 124 0
 174 0014 6FF00105 		mvn	r5, #1
 175              	.L11:
 176              	.LVL10:
 177              	.LBB16:
 178              	.LBB17:
 179              		.loc 2 62 0
 180 0018 0268     		ldr	r2, [r0, #0]
 181 001a 2260     		str	r2, [r4, #0]
 182 001c 5460     		str	r4, [r2, #4]
 183              	.LBE17:
 184              	.LBE16:
 185              		.loc 1 124 0
 186 001e FFF7FEFF 		bl	chSchReadyI
 187              	.LVL11:
 188 0022 4562     		str	r5, [r0, #36]
 189              		.loc 1 123 0
 190 0024 2068     		ldr	r0, [r4, #0]
 191 0026 A042     		cmp	r0, r4
 192 0028 F6D1     		bne	.L11
 193              	.LVL12:
 194              	.L7:
 195 002a 38BD     		pop	{r3, r4, r5, pc}
 196              		.cfi_endproc
 197              	.LFE9:
 198              		.size	chIQResetI, .-chIQResetI
 199 002c AFF30080 		.section	.text.chIQPutI,"ax",%progbits
 200              		.align	2
 201              		.p2align 4,,15
 202              		.global	chIQPutI
 203              		.thumb
 204              		.thumb_func
 205              		.type	chIQPutI, %function
 206              	chIQPutI:
 207              	.LFB10:
 208              		.loc 1 140 0
 209              		.cfi_startproc
 210              		@ args = 0, pretend = 0, frame = 0
 211              		@ frame_needed = 0, uses_anonymous_args = 0
 212              	.LVL13:
 213              		.loc 1 144 0
 214 0000 4269     		ldr	r2, [r0, #20]
 215              		.loc 1 140 0
 216 0002 08B5     		push	{r3, lr}
 217              	.LCFI3:
 218              		.cfi_def_cfa_offset 8
 219              		.cfi_offset 3, -8
 220              		.cfi_offset 14, -4
 221              		.loc 1 140 0
 222 0004 0346     		mov	r3, r0
 223              		.loc 1 144 0
 224 0006 8069     		ldr	r0, [r0, #24]
 225              	.LVL14:
 226 0008 8242     		cmp	r2, r0
 227 000a 9868     		ldr	r0, [r3, #8]
 228 000c 1AD0     		beq	.L22
ARM GAS  C:\Users\jenny\AppData\Local\Temp\ccR8wREU.s 			page 5


 229              	.L16:
 230              		.loc 1 147 0
 231 000e 0130     		adds	r0, r0, #1
 232 0010 9860     		str	r0, [r3, #8]
 233              		.loc 1 148 0
 234 0012 02F8011B 		strb	r1, [r2], #1
 235              		.loc 1 149 0
 236 0016 1969     		ldr	r1, [r3, #16]
 237              	.LVL15:
 238              		.loc 1 148 0
 239 0018 5A61     		str	r2, [r3, #20]
 240              		.loc 1 149 0
 241 001a 8A42     		cmp	r2, r1
 242 001c 0BD2     		bcs	.L17
 243              		.loc 1 152 0
 244 001e 1868     		ldr	r0, [r3, #0]
 245 0020 9842     		cmp	r0, r3
 246 0022 0DD0     		beq	.L20
 247              	.L23:
 248              	.LVL16:
 249              	.LBB18:
 250              	.LBB19:
 251              		.loc 2 62 0
 252 0024 0168     		ldr	r1, [r0, #0]
 253 0026 1960     		str	r1, [r3, #0]
 254 0028 4B60     		str	r3, [r1, #4]
 255              	.LBE19:
 256              	.LBE18:
 257              		.loc 1 153 0
 258 002a FFF7FEFF 		bl	chSchReadyI
 259              	.LVL17:
 260 002e 0023     		movs	r3, #0
 261 0030 4362     		str	r3, [r0, #36]
 262              		.loc 1 155 0
 263 0032 1846     		mov	r0, r3
 264 0034 08BD     		pop	{r3, pc}
 265              	.LVL18:
 266              	.L17:
 267              		.loc 1 152 0
 268 0036 1868     		ldr	r0, [r3, #0]
 269              		.loc 1 150 0
 270 0038 DA68     		ldr	r2, [r3, #12]
 271              		.loc 1 152 0
 272 003a 9842     		cmp	r0, r3
 273              		.loc 1 150 0
 274 003c 5A61     		str	r2, [r3, #20]
 275              		.loc 1 152 0
 276 003e F1D1     		bne	.L23
 277              	.L20:
 278              		.loc 1 155 0
 279 0040 0020     		movs	r0, #0
 280 0042 08BD     		pop	{r3, pc}
 281              	.LVL19:
 282              	.L22:
 283              		.loc 1 144 0 discriminator 1
 284 0044 0028     		cmp	r0, #0
 285 0046 E2D0     		beq	.L16
ARM GAS  C:\Users\jenny\AppData\Local\Temp\ccR8wREU.s 			page 6


 286              		.loc 1 145 0
 287 0048 6FF00300 		mvn	r0, #3
 288 004c 08BD     		pop	{r3, pc}
 289              		.cfi_endproc
 290              	.LFE10:
 291              		.size	chIQPutI, .-chIQPutI
 292 004e 00BF     		.section	.text.chIQGetTimeout,"ax",%progbits
 293              		.align	2
 294              		.p2align 4,,15
 295              		.global	chIQGetTimeout
 296              		.thumb
 297              		.thumb_func
 298              		.type	chIQGetTimeout, %function
 299              	chIQGetTimeout:
 300              	.LFB11:
 301              		.loc 1 178 0
 302              		.cfi_startproc
 303              		@ args = 0, pretend = 0, frame = 0
 304              		@ frame_needed = 0, uses_anonymous_args = 0
 305              	.LVL20:
 306 0000 70B5     		push	{r4, r5, r6, lr}
 307              	.LCFI4:
 308              		.cfi_def_cfa_offset 16
 309              		.cfi_offset 4, -16
 310              		.cfi_offset 5, -12
 311              		.cfi_offset 6, -8
 312              		.cfi_offset 14, -4
 313              	.LBB20:
 314              		.loc 1 181 0
 315 0002 2023     		movs	r3, #32
 316              	.LVL21:
 317              	.LBE20:
 318              		.loc 1 178 0
 319 0004 0446     		mov	r4, r0
 320 0006 0E46     		mov	r6, r1
 321              	.LBB21:
 322              		.loc 1 181 0
 323              	@ 181 "../../os/kernel/src/chqueues.c" 1
 324 0008 83F31188 		msr     BASEPRI, r3
 325              	@ 0 "" 2
 326              	.LVL22:
 327              		.thumb
 328              	.LBE21:
 329              		.loc 1 182 0
 330 000c C369     		ldr	r3, [r0, #28]
 331              	.LVL23:
 332 000e 03B1     		cbz	r3, .L32
 333              		.loc 1 183 0
 334 0010 9847     		blx	r3
 335              	.LVL24:
 336              	.L32:
 337              		.loc 1 185 0 discriminator 1
 338 0012 A568     		ldr	r5, [r4, #8]
 339              	.LBB22:
 340              		.loc 1 187 0 discriminator 1
 341 0014 2046     		mov	r0, r4
 342 0016 3146     		mov	r1, r6
ARM GAS  C:\Users\jenny\AppData\Local\Temp\ccR8wREU.s 			page 7


 343              	.LBE22:
 344              		.loc 1 185 0 discriminator 1
 345 0018 3DB9     		cbnz	r5, .L35
 346              	.LVL25:
 347              	.LBB24:
 348              		.loc 1 187 0
 349 001a FFF7FEFF 		bl	qwait
 350              	.LVL26:
 351 001e 0028     		cmp	r0, #0
 352 0020 F7DA     		bge	.L32
 353              	.LBB23:
 354              		.loc 1 188 0
 355 0022 2B46     		mov	r3, r5
 356              	.LVL27:
 357              	@ 188 "../../os/kernel/src/chqueues.c" 1
 358 0024 83F31188 		msr     BASEPRI, r3
 359              	@ 0 "" 2
 360              	.LVL28:
 361              		.thumb
 362              	.LBE23:
 363              		.loc 1 189 0
 364 0028 70BD     		pop	{r4, r5, r6, pc}
 365              	.LVL29:
 366              	.L35:
 367              	.LBE24:
 368              		.loc 1 194 0
 369 002a A169     		ldr	r1, [r4, #24]
 370              	.LVL30:
 371              		.loc 1 195 0
 372 002c 2269     		ldr	r2, [r4, #16]
 373              		.loc 1 193 0
 374 002e 013D     		subs	r5, r5, #1
 375 0030 A560     		str	r5, [r4, #8]
 376              		.loc 1 194 0
 377 0032 11F8010B 		ldrb	r0, [r1], #1	@ zero_extendqisi2
 378              	.LVL31:
 379              		.loc 1 195 0
 380 0036 9142     		cmp	r1, r2
 381              		.loc 1 194 0
 382 0038 A161     		str	r1, [r4, #24]
 383              		.loc 1 196 0
 384 003a 24BF     		itt	cs
 385 003c E168     		ldrcs	r1, [r4, #12]
 386 003e A161     		strcs	r1, [r4, #24]
 387              	.LBB25:
 388              		.loc 1 198 0
 389 0040 0023     		movs	r3, #0
 390              	.LVL32:
 391              	@ 198 "../../os/kernel/src/chqueues.c" 1
 392 0042 83F31188 		msr     BASEPRI, r3
 393              	@ 0 "" 2
 394              	.LVL33:
 395              		.thumb
 396              	.LBE25:
 397              		.loc 1 200 0
 398 0046 70BD     		pop	{r4, r5, r6, pc}
 399              		.cfi_endproc
ARM GAS  C:\Users\jenny\AppData\Local\Temp\ccR8wREU.s 			page 8


 400              	.LFE11:
 401              		.size	chIQGetTimeout, .-chIQGetTimeout
 402 0048 AFF30080 		.section	.text.chIQReadTimeout,"ax",%progbits
 402      AFF30080 
 403              		.align	2
 404              		.p2align 4,,15
 405              		.global	chIQReadTimeout
 406              		.thumb
 407              		.thumb_func
 408              		.type	chIQReadTimeout, %function
 409              	chIQReadTimeout:
 410              	.LFB12:
 411              		.loc 1 227 0
 412              		.cfi_startproc
 413              		@ args = 0, pretend = 0, frame = 0
 414              		@ frame_needed = 0, uses_anonymous_args = 0
 415              	.LVL34:
 416 0000 2DE9F047 		push	{r4, r5, r6, r7, r8, r9, sl, lr}
 417              	.LCFI5:
 418              		.cfi_def_cfa_offset 32
 419              		.cfi_offset 4, -32
 420              		.cfi_offset 5, -28
 421              		.cfi_offset 6, -24
 422              		.cfi_offset 7, -20
 423              		.cfi_offset 8, -16
 424              		.cfi_offset 9, -12
 425              		.cfi_offset 10, -8
 426              		.cfi_offset 14, -4
 427              		.loc 1 227 0
 428 0004 1E46     		mov	r6, r3
 429 0006 0446     		mov	r4, r0
 430              		.loc 1 228 0
 431 0008 C769     		ldr	r7, [r0, #28]
 432              	.LVL35:
 433              	.LBB26:
 434              		.loc 1 233 0
 435 000a 2023     		movs	r3, #32
 436              	.LVL36:
 437              	@ 233 "../../os/kernel/src/chqueues.c" 1
 438 000c 83F31188 		msr     BASEPRI, r3
 439              	@ 0 "" 2
 440              	.LVL37:
 441              		.thumb
 442              	.LBE26:
 443              		.loc 1 229 0
 444 0010 4FF00008 		mov	r8, #0
 445              	.LBB27:
 446              		.loc 1 226 0
 447 0014 01F10109 		add	r9, r1, #1
 448 0018 01EB020A 		add	sl, r1, r2
 449              	.LVL38:
 450              	.L42:
 451              	.LBE27:
 452              		.loc 1 235 0
 453 001c 0FB1     		cbz	r7, .L47
 454              		.loc 1 236 0
 455 001e 2046     		mov	r0, r4
ARM GAS  C:\Users\jenny\AppData\Local\Temp\ccR8wREU.s 			page 9


 456 0020 B847     		blx	r7
 457              	.LVL39:
 458              	.L47:
 459              		.loc 1 238 0 discriminator 1
 460 0022 A568     		ldr	r5, [r4, #8]
 461              		.loc 1 239 0 discriminator 1
 462 0024 2046     		mov	r0, r4
 463 0026 3146     		mov	r1, r6
 464              		.loc 1 238 0 discriminator 1
 465 0028 4DB9     		cbnz	r5, .L51
 466              	.LVL40:
 467              		.loc 1 239 0
 468 002a FFF7FEFF 		bl	qwait
 469              	.LVL41:
 470 002e 0028     		cmp	r0, #0
 471 0030 F7D0     		beq	.L47
 472              	.LBB28:
 473              		.loc 1 240 0
 474 0032 2B46     		mov	r3, r5
 475              	.LVL42:
 476              	@ 240 "../../os/kernel/src/chqueues.c" 1
 477 0034 83F31188 		msr     BASEPRI, r3
 478              	@ 0 "" 2
 479              	.LVL43:
 480              		.thumb
 481              	.L39:
 482              	.LBE28:
 483              		.loc 1 257 0
 484 0038 4046     		mov	r0, r8
 485 003a BDE8F087 		pop	{r4, r5, r6, r7, r8, r9, sl, pc}
 486              	.LVL44:
 487              	.L51:
 488              		.loc 1 246 0
 489 003e A369     		ldr	r3, [r4, #24]
 490              	.LVL45:
 491              		.loc 1 245 0
 492 0040 013D     		subs	r5, r5, #1
 493 0042 A560     		str	r5, [r4, #8]
 494              		.loc 1 246 0
 495 0044 13F8012B 		ldrb	r2, [r3], #1	@ zero_extendqisi2
 496 0048 09F8012C 		strb	r2, [r9, #-1]
 497              		.loc 1 247 0
 498 004c 2069     		ldr	r0, [r4, #16]
 499              	.LVL46:
 500              		.loc 1 246 0
 501 004e A361     		str	r3, [r4, #24]
 502              		.loc 1 247 0
 503 0050 8342     		cmp	r3, r0
 504              		.loc 1 248 0
 505 0052 24BF     		itt	cs
 506 0054 E368     		ldrcs	r3, [r4, #12]
 507 0056 A361     		strcs	r3, [r4, #24]
 508              	.LBB29:
 509              		.loc 1 250 0
 510 0058 0023     		movs	r3, #0
 511              	@ 250 "../../os/kernel/src/chqueues.c" 1
 512 005a 83F31188 		msr     BASEPRI, r3
ARM GAS  C:\Users\jenny\AppData\Local\Temp\ccR8wREU.s 			page 10


 513              	@ 0 "" 2
 514              	.LVL47:
 515              		.thumb
 516              	.LBE29:
 517              		.loc 1 252 0
 518 005e D145     		cmp	r9, sl
 519              		.loc 1 251 0
 520 0060 08F10108 		add	r8, r8, #1
 521              	.LVL48:
 522              		.loc 1 252 0
 523 0064 E8D0     		beq	.L39
 524              	.LBB30:
 525              		.loc 1 255 0
 526 0066 2023     		movs	r3, #32
 527              	.LVL49:
 528              	@ 255 "../../os/kernel/src/chqueues.c" 1
 529 0068 83F31188 		msr     BASEPRI, r3
 530              	@ 0 "" 2
 531              	.LVL50:
 532              		.thumb
 533 006c 09F10109 		add	r9, r9, #1
 534              	.LBE30:
 535              		.loc 1 256 0
 536 0070 D4E7     		b	.L42
 537              		.cfi_endproc
 538              	.LFE12:
 539              		.size	chIQReadTimeout, .-chIQReadTimeout
 540 0072 00BFAFF3 		.section	.text.chOQInit,"ax",%progbits
 540      0080AFF3 
 540      0080AFF3 
 540      0080
 541              		.align	2
 542              		.p2align 4,,15
 543              		.global	chOQInit
 544              		.thumb
 545              		.thumb_func
 546              		.type	chOQInit, %function
 547              	chOQInit:
 548              	.LFB13:
 549              		.loc 1 276 0
 550              		.cfi_startproc
 551              		@ args = 4, pretend = 0, frame = 0
 552              		@ frame_needed = 0, uses_anonymous_args = 0
 553              		@ link register save eliminated.
 554              	.LVL51:
 555 0000 10B4     		push	{r4}
 556              	.LCFI6:
 557              		.cfi_def_cfa_offset 4
 558              		.cfi_offset 4, -4
 559              		.loc 1 282 0
 560 0002 C361     		str	r3, [r0, #28]
 561              		.loc 1 283 0
 562 0004 019B     		ldr	r3, [sp, #4]
 563              	.LVL52:
 564              		.loc 1 278 0
 565 0006 4060     		str	r0, [r0, #4]
 566              		.loc 1 281 0
ARM GAS  C:\Users\jenny\AppData\Local\Temp\ccR8wREU.s 			page 11


 567 0008 8C18     		adds	r4, r1, r2
 568              		.loc 1 278 0
 569 000a 0060     		str	r0, [r0, #0]
 570              		.loc 1 279 0
 571 000c 8260     		str	r2, [r0, #8]
 572              		.loc 1 280 0
 573 000e 4161     		str	r1, [r0, #20]
 574 0010 8161     		str	r1, [r0, #24]
 575 0012 C160     		str	r1, [r0, #12]
 576              		.loc 1 281 0
 577 0014 0461     		str	r4, [r0, #16]
 578              		.loc 1 283 0
 579 0016 0362     		str	r3, [r0, #32]
 580              		.loc 1 284 0
 581 0018 10BC     		pop	{r4}
 582 001a 7047     		bx	lr
 583              		.cfi_endproc
 584              	.LFE13:
 585              		.size	chOQInit, .-chOQInit
 586 001c AFF30080 		.section	.text.chOQResetI,"ax",%progbits
 587              		.align	2
 588              		.p2align 4,,15
 589              		.global	chOQResetI
 590              		.thumb
 591              		.thumb_func
 592              		.type	chOQResetI, %function
 593              	chOQResetI:
 594              	.LFB14:
 595              		.loc 1 297 0
 596              		.cfi_startproc
 597              		@ args = 0, pretend = 0, frame = 0
 598              		@ frame_needed = 0, uses_anonymous_args = 0
 599              	.LVL53:
 600 0000 38B5     		push	{r3, r4, r5, lr}
 601              	.LCFI7:
 602              		.cfi_def_cfa_offset 16
 603              		.cfi_offset 3, -16
 604              		.cfi_offset 4, -12
 605              		.cfi_offset 5, -8
 606              		.cfi_offset 14, -4
 607              		.loc 1 302 0
 608 0002 0269     		ldr	r2, [r0, #16]
 609              		.loc 1 301 0
 610 0004 C368     		ldr	r3, [r0, #12]
 611              		.loc 1 297 0
 612 0006 0446     		mov	r4, r0
 613              		.loc 1 303 0
 614 0008 0068     		ldr	r0, [r0, #0]
 615              	.LVL54:
 616              		.loc 1 301 0
 617 000a 6361     		str	r3, [r4, #20]
 618              		.loc 1 302 0
 619 000c D11A     		subs	r1, r2, r3
 620              		.loc 1 303 0
 621 000e A042     		cmp	r0, r4
 622              		.loc 1 301 0
 623 0010 A361     		str	r3, [r4, #24]
ARM GAS  C:\Users\jenny\AppData\Local\Temp\ccR8wREU.s 			page 12


 624              		.loc 1 302 0
 625 0012 A160     		str	r1, [r4, #8]
 626              		.loc 1 303 0
 627 0014 0AD0     		beq	.L53
 628              		.loc 1 304 0
 629 0016 6FF00105 		mvn	r5, #1
 630              	.L57:
 631              	.LVL55:
 632              	.LBB31:
 633              	.LBB32:
 634              		.loc 2 62 0
 635 001a 0368     		ldr	r3, [r0, #0]
 636 001c 2360     		str	r3, [r4, #0]
 637 001e 5C60     		str	r4, [r3, #4]
 638              	.LBE32:
 639              	.LBE31:
 640              		.loc 1 304 0
 641 0020 FFF7FEFF 		bl	chSchReadyI
 642              	.LVL56:
 643 0024 4562     		str	r5, [r0, #36]
 644              		.loc 1 303 0
 645 0026 2068     		ldr	r0, [r4, #0]
 646 0028 A042     		cmp	r0, r4
 647 002a F6D1     		bne	.L57
 648              	.LVL57:
 649              	.L53:
 650 002c 38BD     		pop	{r3, r4, r5, pc}
 651              		.cfi_endproc
 652              	.LFE14:
 653              		.size	chOQResetI, .-chOQResetI
 654 002e 00BF     		.section	.text.chOQPutTimeout,"ax",%progbits
 655              		.align	2
 656              		.p2align 4,,15
 657              		.global	chOQPutTimeout
 658              		.thumb
 659              		.thumb_func
 660              		.type	chOQPutTimeout, %function
 661              	chOQPutTimeout:
 662              	.LFB15:
 663              		.loc 1 329 0
 664              		.cfi_startproc
 665              		@ args = 0, pretend = 0, frame = 0
 666              		@ frame_needed = 0, uses_anonymous_args = 0
 667              	.LVL58:
 668 0000 F8B5     		push	{r3, r4, r5, r6, r7, lr}
 669              	.LCFI8:
 670              		.cfi_def_cfa_offset 24
 671              		.cfi_offset 3, -24
 672              		.cfi_offset 4, -20
 673              		.cfi_offset 5, -16
 674              		.cfi_offset 6, -12
 675              		.cfi_offset 7, -8
 676              		.cfi_offset 14, -4
 677              		.loc 1 329 0
 678 0002 0446     		mov	r4, r0
 679 0004 0F46     		mov	r7, r1
 680 0006 1646     		mov	r6, r2
ARM GAS  C:\Users\jenny\AppData\Local\Temp\ccR8wREU.s 			page 13


 681              	.LBB33:
 682              		.loc 1 331 0
 683 0008 2023     		movs	r3, #32
 684              	.LVL59:
 685              	@ 331 "../../os/kernel/src/chqueues.c" 1
 686 000a 83F31188 		msr     BASEPRI, r3
 687              	@ 0 "" 2
 688              	.LVL60:
 689              		.thumb
 690              	.L60:
 691              	.LBE33:
 692              		.loc 1 332 0 discriminator 1
 693 000e A568     		ldr	r5, [r4, #8]
 694              	.LBB34:
 695              		.loc 1 335 0 discriminator 1
 696 0010 2046     		mov	r0, r4
 697 0012 3146     		mov	r1, r6
 698              	.LBE34:
 699              		.loc 1 332 0 discriminator 1
 700 0014 3DB9     		cbnz	r5, .L69
 701              	.LVL61:
 702              	.LBB36:
 703              		.loc 1 335 0
 704 0016 FFF7FEFF 		bl	qwait
 705              	.LVL62:
 706 001a 0028     		cmp	r0, #0
 707 001c F7DA     		bge	.L60
 708              	.LBB35:
 709              		.loc 1 336 0
 710 001e 2B46     		mov	r3, r5
 711              	.LVL63:
 712              	@ 336 "../../os/kernel/src/chqueues.c" 1
 713 0020 83F31188 		msr     BASEPRI, r3
 714              	@ 0 "" 2
 715              	.LVL64:
 716              		.thumb
 717              	.LBE35:
 718              		.loc 1 337 0
 719 0024 F8BD     		pop	{r3, r4, r5, r6, r7, pc}
 720              	.LVL65:
 721              	.L69:
 722              	.LBE36:
 723              		.loc 1 342 0
 724 0026 6369     		ldr	r3, [r4, #20]
 725              	.LVL66:
 726              		.loc 1 341 0
 727 0028 013D     		subs	r5, r5, #1
 728 002a A560     		str	r5, [r4, #8]
 729              		.loc 1 342 0
 730 002c 03F8017B 		strb	r7, [r3], #1
 731              		.loc 1 343 0
 732 0030 2269     		ldr	r2, [r4, #16]
 733              		.loc 1 342 0
 734 0032 6361     		str	r3, [r4, #20]
 735              		.loc 1 343 0
 736 0034 9342     		cmp	r3, r2
 737              		.loc 1 344 0
ARM GAS  C:\Users\jenny\AppData\Local\Temp\ccR8wREU.s 			page 14


 738 0036 28BF     		it	cs
 739 0038 E368     		ldrcs	r3, [r4, #12]
 740              		.loc 1 346 0
 741 003a E169     		ldr	r1, [r4, #28]
 742              	.LVL67:
 743              		.loc 1 344 0
 744 003c 28BF     		it	cs
 745 003e 6361     		strcs	r3, [r4, #20]
 746              		.loc 1 346 0
 747 0040 09B1     		cbz	r1, .L64
 748              		.loc 1 347 0
 749 0042 2046     		mov	r0, r4
 750              	.LVL68:
 751 0044 8847     		blx	r1
 752              	.LVL69:
 753              	.L64:
 754              	.LBB37:
 755              		.loc 1 349 0
 756 0046 0023     		movs	r3, #0
 757              	.LVL70:
 758              	@ 349 "../../os/kernel/src/chqueues.c" 1
 759 0048 83F31188 		msr     BASEPRI, r3
 760              	@ 0 "" 2
 761              	.LVL71:
 762              		.thumb
 763              	.LBE37:
 764              		.loc 1 350 0
 765 004c 1846     		mov	r0, r3
 766              		.loc 1 351 0
 767 004e F8BD     		pop	{r3, r4, r5, r6, r7, pc}
 768              		.cfi_endproc
 769              	.LFE15:
 770              		.size	chOQPutTimeout, .-chOQPutTimeout
 771              		.section	.text.chOQGetI,"ax",%progbits
 772              		.align	2
 773              		.p2align 4,,15
 774              		.global	chOQGetI
 775              		.thumb
 776              		.thumb_func
 777              		.type	chOQGetI, %function
 778              	chOQGetI:
 779              	.LFB16:
 780              		.loc 1 363 0
 781              		.cfi_startproc
 782              		@ args = 0, pretend = 0, frame = 0
 783              		@ frame_needed = 0, uses_anonymous_args = 0
 784              	.LVL72:
 785              		.loc 1 368 0
 786 0000 8269     		ldr	r2, [r0, #24]
 787 0002 4169     		ldr	r1, [r0, #20]
 788 0004 9142     		cmp	r1, r2
 789              		.loc 1 363 0
 790 0006 0346     		mov	r3, r0
 791 0008 10B5     		push	{r4, lr}
 792              	.LCFI9:
 793              		.cfi_def_cfa_offset 8
 794              		.cfi_offset 4, -8
ARM GAS  C:\Users\jenny\AppData\Local\Temp\ccR8wREU.s 			page 15


 795              		.cfi_offset 14, -4
 796              		.loc 1 368 0
 797 000a 8068     		ldr	r0, [r0, #8]
 798              	.LVL73:
 799 000c 16D0     		beq	.L79
 800              	.L73:
 801              		.loc 1 371 0
 802 000e 441C     		adds	r4, r0, #1
 803 0010 9C60     		str	r4, [r3, #8]
 804              		.loc 1 372 0
 805 0012 12F8014B 		ldrb	r4, [r2], #1	@ zero_extendqisi2
 806              	.LVL74:
 807              		.loc 1 373 0
 808 0016 1969     		ldr	r1, [r3, #16]
 809              		.loc 1 372 0
 810 0018 9A61     		str	r2, [r3, #24]
 811              		.loc 1 373 0
 812 001a 8A42     		cmp	r2, r1
 813 001c 0BD2     		bcs	.L75
 814              	.L76:
 815              		.loc 1 376 0
 816 001e 1868     		ldr	r0, [r3, #0]
 817 0020 9842     		cmp	r0, r3
 818 0022 06D0     		beq	.L74
 819              	.LVL75:
 820              	.LBB38:
 821              	.LBB39:
 822              		.loc 2 62 0
 823 0024 0168     		ldr	r1, [r0, #0]
 824 0026 1960     		str	r1, [r3, #0]
 825 0028 4B60     		str	r3, [r1, #4]
 826              	.LBE39:
 827              	.LBE38:
 828              		.loc 1 377 0
 829 002a FFF7FEFF 		bl	chSchReadyI
 830              	.LVL76:
 831 002e 0023     		movs	r3, #0
 832 0030 4362     		str	r3, [r0, #36]
 833              	.LVL77:
 834              	.L74:
 835              		.loc 1 379 0
 836 0032 2046     		mov	r0, r4
 837 0034 10BD     		pop	{r4, pc}
 838              	.LVL78:
 839              	.L75:
 840              		.loc 1 374 0
 841 0036 DA68     		ldr	r2, [r3, #12]
 842 0038 9A61     		str	r2, [r3, #24]
 843 003a F0E7     		b	.L76
 844              	.LVL79:
 845              	.L79:
 846              		.loc 1 368 0 discriminator 1
 847 003c 0028     		cmp	r0, #0
 848 003e E6D0     		beq	.L73
 849              		.loc 1 369 0
 850 0040 6FF00200 		mvn	r0, #2
 851 0044 10BD     		pop	{r4, pc}
ARM GAS  C:\Users\jenny\AppData\Local\Temp\ccR8wREU.s 			page 16


 852              		.cfi_endproc
 853              	.LFE16:
 854              		.size	chOQGetI, .-chOQGetI
 855 0046 00BFAFF3 		.section	.text.chOQWriteTimeout,"ax",%progbits
 855      0080AFF3 
 855      0080
 856              		.align	2
 857              		.p2align 4,,15
 858              		.global	chOQWriteTimeout
 859              		.thumb
 860              		.thumb_func
 861              		.type	chOQWriteTimeout, %function
 862              	chOQWriteTimeout:
 863              	.LFB17:
 864              		.loc 1 407 0
 865              		.cfi_startproc
 866              		@ args = 0, pretend = 0, frame = 0
 867              		@ frame_needed = 0, uses_anonymous_args = 0
 868              	.LVL80:
 869 0000 2DE9F047 		push	{r4, r5, r6, r7, r8, r9, sl, lr}
 870              	.LCFI10:
 871              		.cfi_def_cfa_offset 32
 872              		.cfi_offset 4, -32
 873              		.cfi_offset 5, -28
 874              		.cfi_offset 6, -24
 875              		.cfi_offset 7, -20
 876              		.cfi_offset 8, -16
 877              		.cfi_offset 9, -12
 878              		.cfi_offset 10, -8
 879              		.cfi_offset 14, -4
 880              		.loc 1 407 0
 881 0004 9A46     		mov	sl, r3
 882 0006 0446     		mov	r4, r0
 883 0008 8846     		mov	r8, r1
 884 000a 1646     		mov	r6, r2
 885              		.loc 1 408 0
 886 000c D0F81C90 		ldr	r9, [r0, #28]
 887              	.LVL81:
 888              	.LBB40:
 889              		.loc 1 413 0
 890 0010 2023     		movs	r3, #32
 891              	.LVL82:
 892              	@ 413 "../../os/kernel/src/chqueues.c" 1
 893 0012 83F31188 		msr     BASEPRI, r3
 894              	@ 0 "" 2
 895              	.LVL83:
 896              		.loc 1 409 0
 897              		.thumb
 898 0016 0027     		movs	r7, #0
 899              	.LVL84:
 900              	.L98:
 901              	.LBE40:
 902              		.loc 1 415 0 discriminator 1
 903 0018 A568     		ldr	r5, [r4, #8]
 904              		.loc 1 427 0 discriminator 1
 905 001a 2046     		mov	r0, r4
 906              		.loc 1 421 0 discriminator 1
ARM GAS  C:\Users\jenny\AppData\Local\Temp\ccR8wREU.s 			page 17


 907 001c 6B1E     		subs	r3, r5, #1
 908              	.LVL85:
 909              		.loc 1 415 0 discriminator 1
 910 001e EDB1     		cbz	r5, .L84
 911              	.LVL86:
 912              	.L99:
 913              		.loc 1 421 0
 914 0020 A360     		str	r3, [r4, #8]
 915              		.loc 1 422 0
 916 0022 6569     		ldr	r5, [r4, #20]
 917 0024 18F8011B 		ldrb	r1, [r8], #1	@ zero_extendqisi2
 918              	.LVL87:
 919 0028 05F8011B 		strb	r1, [r5], #1
 920              		.loc 1 423 0
 921 002c 2269     		ldr	r2, [r4, #16]
 922              		.loc 1 422 0
 923 002e 6561     		str	r5, [r4, #20]
 924              	.LVL88:
 925              		.loc 1 423 0
 926 0030 9542     		cmp	r5, r2
 927              		.loc 1 424 0
 928 0032 24BF     		itt	cs
 929 0034 E268     		ldrcs	r2, [r4, #12]
 930 0036 6261     		strcs	r2, [r4, #20]
 931              		.loc 1 426 0
 932 0038 B9F1000F 		cmp	r9, #0
 933 003c 00D0     		beq	.L86
 934              		.loc 1 427 0
 935 003e C847     		blx	r9
 936              	.LVL89:
 937              	.L86:
 938              	.LBB41:
 939              		.loc 1 429 0
 940 0040 0023     		movs	r3, #0
 941              	.LVL90:
 942              	@ 429 "../../os/kernel/src/chqueues.c" 1
 943 0042 83F31188 		msr     BASEPRI, r3
 944              	@ 0 "" 2
 945              	.LVL91:
 946              		.thumb
 947              	.LBE41:
 948              		.loc 1 430 0
 949 0046 0137     		adds	r7, r7, #1
 950              	.LVL92:
 951              		.loc 1 431 0
 952 0048 013E     		subs	r6, r6, #1
 953              	.LVL93:
 954 004a 10D0     		beq	.L83
 955              	.LBB42:
 956              		.loc 1 433 0
 957 004c 2023     		movs	r3, #32
 958              	.LVL94:
 959              	@ 433 "../../os/kernel/src/chqueues.c" 1
 960 004e 83F31188 		msr     BASEPRI, r3
 961              	@ 0 "" 2
 962              	.LVL95:
 963              		.thumb
ARM GAS  C:\Users\jenny\AppData\Local\Temp\ccR8wREU.s 			page 18


 964              	.LBE42:
 965              		.loc 1 415 0
 966 0052 A568     		ldr	r5, [r4, #8]
 967              		.loc 1 427 0
 968 0054 2046     		mov	r0, r4
 969              		.loc 1 421 0
 970 0056 6B1E     		subs	r3, r5, #1
 971              	.LVL96:
 972              		.loc 1 415 0
 973 0058 002D     		cmp	r5, #0
 974 005a E1D1     		bne	.L99
 975              	.LVL97:
 976              	.L84:
 977              		.loc 1 416 0
 978 005c 2046     		mov	r0, r4
 979              	.LVL98:
 980 005e 5146     		mov	r1, sl
 981 0060 FFF7FEFF 		bl	qwait
 982              	.LVL99:
 983 0064 0028     		cmp	r0, #0
 984 0066 D7D0     		beq	.L98
 985              	.LBB43:
 986              		.loc 1 417 0
 987 0068 2B46     		mov	r3, r5
 988              	.LVL100:
 989              	@ 417 "../../os/kernel/src/chqueues.c" 1
 990 006a 83F31188 		msr     BASEPRI, r3
 991              	@ 0 "" 2
 992              	.LVL101:
 993              		.thumb
 994              	.L83:
 995              	.LBE43:
 996              		.loc 1 435 0
 997 006e 3846     		mov	r0, r7
 998 0070 BDE8F087 		pop	{r4, r5, r6, r7, r8, r9, sl, pc}
 999              		.cfi_endproc
 1000              	.LFE17:
 1001              		.size	chOQWriteTimeout, .-chOQWriteTimeout
 1002 0074 AFF30080 		.text
 1002      AFF30080 
 1002      AFF30080 
 1003              	.Letext0:
 1004              		.file 3 "c:\\fbin\\yagarto\\bin\\../lib/gcc/arm-none-eabi/4.7.4/include/stddef.h"
 1005              		.file 4 "c:\\fbin\\yagarto\\bin\\../lib/gcc/arm-none-eabi/4.7.4/../../../../arm-none-eabi/include/
 1006              		.file 5 "../../os/ports/GCC/ARMCMx/chtypes.h"
 1007              		.file 6 "../../os/kernel/include/chlists.h"
 1008              		.file 7 "../../os/kernel/include/chthreads.h"
 1009              		.file 8 "../../os/ports/GCC/ARMCMx/chcore_v7m.h"
 1010              		.file 9 "../../os/kernel/include/chschd.h"
 1011              		.file 10 "../../os/kernel/include/chmtx.h"
 1012              		.file 11 "../../os/kernel/include/chqueues.h"