ARM GAS  C:\Users\jenny\AppData\Local\Temp\ccR8wREU.s 			page 1


   1              		.syntax unified
   2              		.cpu cortex-m4
   3              		.eabi_attribute 27, 3
   4              		.fpu fpv4-sp-d16
   5              		.eabi_attribute 20, 1
   6              		.eabi_attribute 21, 1
   7              		.eabi_attribute 23, 3
   8              		.eabi_attribute 24, 1
   9              		.eabi_attribute 25, 1
  10              		.eabi_attribute 26, 1
  11              		.eabi_attribute 30, 2
  12              		.eabi_attribute 34, 1
  13              		.eabi_attribute 18, 4
  14              		.thumb
  15              		.file	"chqueues.c"
  16              		.text
  17              	.Ltext0:
  18              		.cfi_sections	.debug_frame
  19              		.section	.text.qwait,"ax",%progbits
  20              		.align	2
  21              		.p2align 4,,15
  22              		.thumb
  23              		.thumb_func
  24              		.type	qwait, %function
  25              	qwait:
  26              	.LFB7:
  27              		.file 1 "../../os/kernel/src/chqueues.c"
  28              		.loc 1 70 0
  29              		.cfi_startproc
  30              		@ args = 0, pretend = 0, frame = 0
  31              		@ frame_needed = 0, uses_anonymous_args = 0
  32              		@ link register save eliminated.
  33              	.LVL0:
  34 0000 10B4     		push	{r4}
  35              	.LCFI0:
  36              		.cfi_def_cfa_offset 4
  37              		.cfi_offset 4, -4
  38              		.loc 1 70 0
  39 0002 0246     		mov	r2, r0
  40              		.loc 1 72 0
  41 0004 59B1     		cbz	r1, .L2
  42              		.loc 1 74 0
  43 0006 084B     		ldr	r3, .L4
  44 0008 9B69     		ldr	r3, [r3, #24]
  45 000a 5862     		str	r0, [r3, #36]
  46              	.LVL1:
  47              	.LBB12:
  48              	.LBB13:
  49              		.file 2 "../../os/kernel/include/chinline.h"
  50              		.loc 2 55 0
  51 000c 4468     		ldr	r4, [r0, #4]
  52              	.LBE13:
  53              	.LBE12:
  54              		.loc 1 76 0
  55 000e 0D20     		movs	r0, #13
  56              	.LVL2:
  57              	.LBB15:
ARM GAS  C:\Users\jenny\AppData\Local\Temp\ccR8wREU.s 			page 2


  58              	.LBB14:
  59              		.loc 2 55 0
  60 0010 83E81400 		stmia	r3, {r2, r4}
  61              		.loc 2 56 0
  62 0014 5360     		str	r3, [r2, #4]
  63 0016 2360     		str	r3, [r4, #0]
  64              	.LBE14:
  65              	.LBE15:
  66              		.loc 1 77 0
  67 0018 10BC     		pop	{r4}
  68              		.loc 1 76 0
  69 001a FFF7FEBF 		b	chSchGoSleepTimeoutS
  70              	.LVL3:
  71              	.L2:
  72              		.loc 1 77 0
  73 001e 4FF0FF30 		mov	r0, #-1
  74              	.LVL4:
  75 0022 10BC     		pop	{r4}
  76 0024 7047     		bx	lr
  77              	.L5:
  78 0026 00BF     		.align	2
  79              	.L4:
  80 0028 00000000 		.word	rlist
  81              		.cfi_endproc
  82              	.LFE7:
  83              		.size	qwait, .-qwait
  84 002c AFF30080 		.section	.text.chIQInit,"ax",%progbits
  85              		.align	2
  86              		.p2align 4,,15
  87              		.global	chIQInit
  88              		.thumb
  89              		.thumb_func
  90              		.type	chIQInit, %function
  91              	chIQInit:
  92              	.LFB8:
  93              		.loc 1 96 0
  94              		.cfi_startproc
  95              		@ args = 4, pretend = 0, frame = 0
  96              		@ frame_needed = 0, uses_anonymous_args = 0
  97              		@ link register save eliminated.
  98              	.LVL5:
  99 0000 10B4     		push	{r4}
 100              	.LCFI1:
 101              		.cfi_def_cfa_offset 4
 102              		.cfi_offset 4, -4
 103              		.loc 1 102 0
 104 0002 C361     		str	r3, [r0, #28]
 105              		.loc 1 103 0
 106 0004 019B     		ldr	r3, [sp, #4]
 107              	.LVL6:
 108              		.loc 1 98 0
 109 0006 4060     		str	r0, [r0, #4]
 110              		.loc 1 101 0
 111 0008 8A18     		adds	r2, r1, r2
 112              	.LVL7:
 113              		.loc 1 99 0
 114 000a 0024     		movs	r4, #0
ARM GAS  C:\Users\jenny\AppData\Local\Temp\ccR8wREU.s 			page 3


 115              		.loc 1 98 0
 116 000c 0060     		str	r0, [r0, #0]
 117              		.loc 1 99 0
 118 000e 8460     		str	r4, [r0, #8]
 119              		.loc 1 100 0
 120 0010 4161     		str	r1, [r0, #20]
 121 0012 8161     		str	r1, [r0, #24]
 122 0014 C160     		str	r1, [r0, #12]
 123              		.loc 1 101 0
 124 0016 0261     		str	r2, [r0, #16]
 125              		.loc 1 103 0
 126 0018 0362     		str	r3, [r0, #32]
 127              		.loc 1 104 0
 128 001a 10BC     		pop	{r4}
 129 001c 7047     		bx	lr
 130              		.cfi_endproc
 131              	.LFE8:
 132              		.size	chIQInit, .-chIQInit
 133 001e 00BF     		.section	.text.chIQResetI,"ax",%progbits
 134              		.align	2
 135              		.p2align 4,,15
 136              		.global	chIQResetI
 137              		.thumb
 138              		.thumb_func
 139              		.type	chIQResetI, %function
 140              	chIQResetI:
 141              	.LFB9:
 142              		.loc 1 117 0
 143              		.cfi_startproc
 144              		@ args = 0, pretend = 0, frame = 0
 145              		@ frame_needed = 0, uses_anonymous_args = 0
 146              	.LVL8:
 147 0000 38B5     		push	{r3, r4, r5, lr}
 148              	.LCFI2:
 149              		.cfi_def_cfa_offset 16
 150              		.cfi_offset 3, -16
 151              		.cfi_offset 4, -12
 152              		.cfi_offset 5, -8
 153              		.cfi_offset 14, -4
 154              		.loc 1 117 0
 155 0002 0446     		mov	r4, r0
 156              		.loc 1 121 0
 157 0004 C368     		ldr	r3, [r0, #12]
 158              		.loc 1 123 0
 159 0006 0068     		ldr	r0, [r0, #0]
 160              	.LVL9:
 161              		.loc 1 121 0
 162 0008 6361     		str	r3, [r4, #20]
 163              		.loc 1 122 0
 164 000a 0021     		movs	r1, #0
 165              		.loc 1 123 0
 166 000c A042     		cmp	r0, r4
 167              		.loc 1 121 0
 168 000e A361     		str	r3, [r4, #24]
 169              		.loc 1 122 0
 170 0010 A160     		str	r1, [r4, #8]
 171              		.loc 1 123 0
ARM GAS  C:\Users\jenny\AppData\Local\Temp\ccR8wREU.s 			page 4


 172 0012 0AD0     		beq	.L7
 173              		.loc 1 124 0
 174 0014 6FF00105 		mvn	r5, #1
 175              	.L11:
 176              	.LVL10:
 177              	.LBB16:
 178              	.LBB17:
 179              		.loc 2 62 0
 180 0018 0268     		ldr	r2, [r0, #0]
 181 001a 2260     		str	r2, [r4, #0]
 182 001c 5460     		str	r4, [r2, #4]
 183              	.LBE17:
 184              	.LBE16:
 185              		.loc 1 124 0
 186 001e FFF7FEFF 		bl	chSchReadyI
 187              	.LVL11:
 188 0022 4562     		str	r5, [r0, #36]
 189              		.loc 1 123 0
 190 0024 2068     		ldr	r0, [r4, #0]
 191 0026 A042     		cmp	r0, r4
 192 0028 F6D1     		bne	.L11
 193              	.LVL12:
 194              	.L7:
 195 002a 38BD     		pop	{r3, r4, r5, pc}
 196              		.cfi_endproc
 197              	.LFE9:
 198              		.size	chIQResetI, .-chIQResetI
 199 002c AFF30080 		.section	.text.chIQPutI,"ax",%progbits
 200              		.align	2
 201              		.p2align 4,,15
 202              		.global	chIQPutI
 203              		.thumb
 204              		.thumb_func
 205              		.type	chIQPutI, %function
 206              	chIQPutI:
 207              	.LFB10:
 208              		.loc 1 140 0
 209              		.cfi_startproc
 210              		@ args = 0, pretend = 0, frame = 0
 211              		@ frame_needed = 0, uses_anonymous_args = 0
 212              	.LVL13:
 213              		.loc 1 144 0
 214 0000 4269     		ldr	r2, [r0, #20]
 215              		.loc 1 140 0
 216 0002 08B5     		push	{r3, lr}
 217              	.LCFI3:
 218              		.cfi_def_cfa_offset 8
 219              		.cfi_offset 3, -8
 220              		.cfi_offset 14, -4
 221              		.loc 1 140 0
 222 0004 0346     		mov	r3, r0
 223              		.loc 1 144 0
 224 0006 8069     		ldr	r0, [r0, #24]
 225              	.LVL14:
 226 0008 8242     		cmp	r2, r0
 227 000a 9868     		ldr	r0, [r3, #8]
 228 000c 1AD0     		beq	.L22
ARM GAS  C:\Users\jenny\AppData\Local\Temp\ccR8wREU.s 			page 5


 229              	.L16:
 230              		.loc 1 147 0
 231 000e 0130     		adds	r0, r0, #1
 232 0010 9860     		str	r0, [r3, #8]
 233              		.loc 1 148 0
 234 0012 02F8011B 		strb	r1, [r2], #1
 235              		.loc 1 149 0
 236 0016 1969     		ldr	r1, [r3, #16]
 237              	.LVL15:
 238              		.loc 1 148 0
 239 0018 5A61     		str	r2, [r3, #20]
 240              		.loc 1 149 0
 241 001a 8A42     		cmp	r2, r1
 242 001c 0BD2     		bcs	.L17
 243              		.loc 1 152 0
 244 001e 1868     		ldr	r0, [r3, #0]
 245 0020 9842     		cmp	r0, r3
 246 0022 0DD0     		beq	.L20
 247              	.L23:
 248              	.LVL16:
 249              	.LBB18:
 250              	.LBB19:
 251              		.loc 2 62 0
 252 0024 0168     		ldr	r1, [r0, #0]
 253 0026 1960     		str	r1, [r3, #0]
 254 0028 4B60     		str	r3, [r1, #4]
 255              	.LBE19:
 256              	.LBE18:
 257              		.loc 1 153 0
 258 002a FFF7FEFF 		bl	chSchReadyI
 259              	.LVL17:
 260 002e 0023     		movs	r3, #0
 261 0030 4362     		str	r3, [r0, #36]
 262              		.loc 1 155 0
 263 0032 1846     		mov	r0, r3
 264 0034 08BD     		pop	{r3, pc}
 265              	.LVL18:
 266              	.L17:
 267              		.loc 1 152 0
 268 0036 1868     		ldr	r0, [r3, #0]
 269              		.loc 1 150 0
 270 0038 DA68     		ldr	r2, [r3, #12]
 271              		.loc 1 152 0
 272 003a 9842     		cmp	r0, r3
 273              		.loc 1 150 0
 274 003c 5A61     		str	r2, [r3, #20]
 275              		.loc 1 152 0
 276 003e F1D1     		bne	.L23
 277              	.L20:
 278              		.loc 1 155 0
 279 0040 0020     		movs	r0, #0
 280 0042 08BD     		pop	{r3, pc}
 281              	.LVL19:
 282              	.L22:
 283              		.loc 1 144 0 discriminator 1
 284 0044 0028     		cmp	r0, #0
 285 0046 E2D0     		beq	.L16
ARM GAS  C:\Users\jenny\AppData\Local\Temp\ccR8wREU.s 			page 6


 286              		.loc 1 145 0
 287 0048 6FF00300 		mvn	r0, #3
 288 004c 08BD     		pop	{r3, pc}
 289              		.cfi_endproc
 290              	.LFE10:
 291              		.size	chIQPutI, .-chIQPutI
 292 004e 00BF     		.section	.text.chIQGetTimeout,"ax",%progbits
 293              		.align	2
 294              		.p2align 4,,15
 295              		.global	chIQGetTimeout
 296              		.thumb
 297              		.thumb_func
 298              		.type	chIQGetTimeout, %function
 299              	chIQGetTimeout:
 300              	.LFB11:
 301              		.loc 1 178 0
 302              		.cfi_startproc
 303              		@ args = 0, pretend = 0, frame = 0
 304              		@ frame_needed = 0, uses_anonymous_args = 0
 305              	.LVL20:
 306 0000 70B5     		push	{r4, r5, r6, lr}
 307              	.LCFI4:
 308              		.cfi_def_cfa_offset 16
 309              		.cfi_offset 4, -16
 310              		.cfi_offset 5, -12
 311              		.cfi_offset 6, -8
 312              		.cfi_offset 14, -4
 313              	.LBB20:
 314              		.loc 1 181 0
 315 0002 2023     		movs	r3, #32
 316              	.LVL21:
 317              	.LBE20:
 318              		.loc 1 178 0
 319 0004 0446     		mov	r4, r0
 320 0006 0E46     		mov	r6, r1
 321              	.LBB21:
 322              		.loc 1 181 0
 323              	@ 181 "../../os/kernel/src/chqueues.c" 1
 324 0008 83F31188 		msr     BASEPRI, r3
 325              	@ 0 "" 2
 326              	.LVL22:
 327              		.thumb
 328              	.LBE21:
 329              		.loc 1 182 0
 330 000c C369     		ldr	r3, [r0, #28]
 331              	.LVL23:
 332 000e 03B1     		cbz	r3, .L32
 333              		.loc 1 183 0
 334 0010 9847     		blx	r3
 335              	.LVL24:
 336              	.L32:
 337              		.loc 1 185 0 discriminator 1
 338 0012 A568     		ldr	r5, [r4, #8]
 339              	.LBB22:
 340              		.loc 1 187 0 discriminator 1
 341 0014 2046     		mov	r0, r4
 342 0016 3146     		mov	r1, r6
ARM GAS  C:\Users\jenny\AppData\Local\Temp\ccR8wREU.s 			page 7


 343              	.LBE22:
 344              		.loc 1 185 0 discriminator 1
 345 0018 3DB9     		cbnz	r5, .L35
 346              	.LVL25:
 347              	.LBB24:
 348              		.loc 1 187 0
 349 001a FFF7FEFF 		bl	qwait
 350              	.LVL26:
 351 001e 0028     		cmp	r0, #0
 352 0020 F7DA     		bge	.L32
 353              	.LBB23:
 354              		.loc 1 188 0
 355 0022 2B46     		mov	r3, r5
 356              	.LVL27:
 357              	@ 188 "../../os/kernel/src/chqueues.c" 1
 358 0024 83F31188 		msr     BASEPRI, r3
 359              	@ 0 "" 2
 360              	.LVL28:
 361              		.thumb
 362              	.LBE23:
 363              		.loc 1 189 0
 364 0028 70BD     		pop	{r4, r5, r6, pc}
 365              	.LVL29:
 366              	.L35:
 367              	.LBE24:
 368              		.loc 1 194 0
 369 002a A169     		ldr	r1, [r4, #24]
 370              	.LVL30:
 371              		.loc 1 195 0
 372 002c 2269     		ldr	r2, [r4, #16]
 373              		.loc 1 193 0
 374 002e 013D     		subs	r5, r5, #1
 375 0030 A560     		str	r5, [r4, #8]
 376              		.loc 1 194 0
 377 0032 11F8010B 		ldrb	r0, [r1], #1	@ zero_extendqisi2
 378              	.LVL31:
 379              		.loc 1 195 0
 380 0036 9142     		cmp	r1, r2
 381              		.loc 1 194 0
 382 0038 A161     		str	r1, [r4, #24]
 383              		.loc 1 196 0
 384 003a 24BF     		itt	cs
 385 003c E168     		ldrcs	r1, [r4, #12]
 386 003e A161     		strcs	r1, [r4, #24]
 387              	.LBB25:
 388              		.loc 1 198 0
 389 0040 0023     		movs	r3, #0
 390              	.LVL32:
 391              	@ 198 "../../os/kernel/src/chqueues.c" 1
 392 0042 83F31188 		msr     BASEPRI, r3
 393              	@ 0 "" 2
 394              	.LVL33:
 395              		.thumb
 396              	.LBE25:
 397              		.loc 1 200 0
 398 0046 70BD     		pop	{r4, r5, r6, pc}
 399              		.cfi_endproc
ARM GAS  C:\Users\jenny\AppData\Local\Temp\ccR8wREU.s 			page 8


 400              	.LFE11:
 401              		.size	chIQGetTimeout, .-chIQGetTimeout
 402 0048 AFF30080 		.section	.text.chIQReadTimeout,"ax",%progbits
 402      AFF30080 
 403              		.align	2
 404              		.p2align 4,,15
 405              		.global	chIQReadTimeout
 406              		.thumb
 407              		.thumb_func
 408              		.type	chIQReadTimeout, %function
 409              	chIQReadTimeout:
 410              	.LFB12:
 411              		.loc 1 227 0
 412              		.cfi_startproc
 413              		@ args = 0, pretend = 0, frame = 0
 414              		@ frame_needed = 0, uses_anonymous_args = 0
 415              	.LVL34:
 416 0000 2DE9F047 		push	{r4, r5, r6, r7, r8, r9, sl, lr}
 417              	.LCFI5:
 418              		.cfi_def_cfa_offset 32
 419              		.cfi_offset 4, -32
 420              		.cfi_offset 5, -28
 421              		.cfi_offset 6, -24
 422              		.cfi_offset 7, -20
 423              		.cfi_offset 8, -16
 424              		.cfi_offset 9, -12
 425              		.cfi_offset 10, -8
 426              		.cfi_offset 14, -4
 427              		.loc 1 227 0
 428 0004 1E46     		mov	r6, r3
 429 0006 0446     		mov	r4, r0
 430              		.loc 1 228 0
 431 0008 C769     		ldr	r7, [r0, #28]
 432              	.LVL35:
 433              	.LBB26:
 434              		.loc 1 233 0
 435 000a 2023     		movs	r3, #32
 436              	.LVL36:
 437              	@ 233 "../../os/kernel/src/chqueues.c" 1
 438 000c 83F31188 		msr     BASEPRI, r3
 439              	@ 0 "" 2
 440              	.LVL37:
 441              		.thumb
 442              	.LBE26:
 443              		.loc 1 229 0
 444 0010 4FF00008 		mov	r8, #0
 445              	.LBB27:
 446              		.loc 1 226 0
 447 0014 01F10109 		add	r9, r1, #1
 448 0018 01EB020A 		add	sl, r1, r2
 449              	.LVL38:
 450              	.L42:
 451              	.LBE27:
 452              		.loc 1 235 0
 453 001c 0FB1     		cbz	r7, .L47
 454              		.loc 1 236 0
 455 001e 2046     		mov	r0, r4
ARM GAS  C:\Users\jenny\AppData\Local\Temp\ccR8wREU.s 			page 9


 456 0020 B847     		blx	r7
 457              	.LVL39:
 458              	.L47:
 459              		.loc 1 238 0 discriminator 1
 460 0022 A568     		ldr	r5, [r4, #8]
 461              		.loc 1 239 0 discriminator 1
 462 0024 2046     		mov	r0, r4
 463 0026 3146     		mov	r1, r6
 464              		.loc 1 238 0 discriminator 1
 465 0028 4DB9     		cbnz	r5, .L51
 466              	.LVL40:
 467              		.loc 1 239 0
 468 002a FFF7FEFF 		bl	qwait
 469              	.LVL41:
 470 002e 0028     		cmp	r0, #0
 471 0030 F7D0     		beq	.L47
 472              	.LBB28:
 473              		.loc 1 240 0
 474 0032 2B46     		mov	r3, r5
 475              	.LVL42:
 476              	@ 240 "../../os/kernel/src/chqueues.c" 1
 477 0034 83F31188 		msr     BASEPRI, r3
 478              	@ 0 "" 2
 479              	.LVL43:
 480              		.thumb
 481              	.L39:
 482              	.LBE28:
 483              		.loc 1 257 0
 484 0038 4046     		mov	r0, r8
 485 003a BDE8F087 		pop	{r4, r5, r6, r7, r8, r9, sl, pc}
 486              	.LVL44:
 487              	.L51:
 488              		.loc 1 246 0
 489 003e A369     		ldr	r3, [r4, #24]
 490              	.LVL45:
 491              		.loc 1 245 0
 492 0040 013D     		subs	r5, r5, #1
 493 0042 A560     		str	r5, [r4, #8]
 494              		.loc 1 246 0
 495 0044 13F8012B 		ldrb	r2, [r3], #1	@ zero_extendqisi2
 496 0048 09F8012C 		strb	r2, [r9, #-1]
 497              		.loc 1 247 0
 498 004c 2069     		ldr	r0, [r4, #16]
 499              	.LVL46:
 500              		.loc 1 246 0
 501 004e A361     		str	r3, [r4, #24]
 502              		.loc 1 247 0
 503 0050 8342     		cmp	r3, r0
 504              		.loc 1 248 0
 505 0052 24BF     		itt	cs
 506 0054 E368     		ldrcs	r3, [r4, #12]
 507 0056 A361     		strcs	r3, [r4, #24]
 508              	.LBB29:
 509              		.loc 1 250 0
 510 0058 0023     		movs	r3, #0
 511              	@ 250 "../../os/kernel/src/chqueues.c" 1
 512 005a 83F31188 		msr     BASEPRI, r3
ARM GAS  C:\Users\jenny\AppData\Local\Temp\ccR8wREU.s 			page 10


 513              	@ 0 "" 2
 514              	.LVL47:
 515              		.thumb
 516              	.LBE29:
 517              		.loc 1 252 0
 518 005e D145     		cmp	r9, sl
 519              		.loc 1 251 0
 520 0060 08F10108 		add	r8, r8, #1
 521              	.LVL48:
 522              		.loc 1 252 0
 523 0064 E8D0     		beq	.L39
 524              	.LBB30:
 525              		.loc 1 255 0
 526 0066 2023     		movs	r3, #32
 527              	.LVL49:
 528              	@ 255 "../../os/kernel/src/chqueues.c" 1
 529 0068 83F31188 		msr     BASEPRI, r3
 530              	@ 0 "" 2
 531              	.LVL50:
 532              		.thumb
 533 006c 09F10109 		add	r9, r9, #1
 534              	.LBE30:
 535              		.loc 1 256 0
 536 0070 D4E7     		b	.L42
 537              		.cfi_endproc
 538              	.LFE12:
 539              		.size	chIQReadTimeout, .-chIQReadTimeout
 540 0072 00BFAFF3 		.section	.text.chOQInit,"ax",%progbits
 540      0080AFF3 
 540      0080AFF3 
 540      0080
 541              		.align	2
 542              		.p2align 4,,15
 543              		.global	chOQInit
 544              		.thumb
 545              		.thumb_func
 546              		.type	chOQInit, %function
 547              	chOQInit:
 548              	.LFB13:
 549              		.loc 1 276 0
 550              		.cfi_startproc
 551              		@ args = 4, pretend = 0, frame = 0
 552              		@ frame_needed = 0, uses_anonymous_args = 0
 553              		@ link register save eliminated.
 554              	.LVL51:
 555 0000 10B4     		push	{r4}
 556              	.LCFI6:
 557              		.cfi_def_cfa_offset 4
 558              		.cfi_offset 4, -4
 559              		.loc 1 282 0
 560 0002 C361     		str	r3, [r0, #28]
 561              		.loc 1 283 0
 562 0004 019B     		ldr	r3, [sp, #4]
 563              	.LVL52:
 564              		.loc 1 278 0
 565 0006 4060     		str	r0, [r0, #4]
 566              		.loc 1 281 0
ARM GAS  C:\Users\jenny\AppData\Local\Temp\ccR8wREU.s 			page 11


 567 0008 8C18     		adds	r4, r1, r2
 568              		.loc 1 278 0
 569 000a 0060     		str	r0, [r0, #0]
 570              		.loc 1 279 0
 571 000c 8260     		str	r2, [r0, #8]
 572              		.loc 1 280 0
 573 000e 4161     		str	r1, [r0, #20]
 574 0010 8161     		str	r1, [r0, #24]
 575 0012 C160     		str	r1, [r0, #12]
 576              		.loc 1 281 0
 577 0014 0461     		str	r4, [r0, #16]
 578              		.loc 1 283 0
 579 0016 0362     		str	r3, [r0, #32]
 580              		.loc 1 284 0
 581 0018 10BC     		pop	{r4}
 582 001a 7047     		bx	lr
 583              		.cfi_endproc
 584              	.LFE13:
 585              		.size	chOQInit, .-chOQInit
 586 001c AFF30080 		.section	.text.chOQResetI,"ax",%progbits
 587              		.align	2
 588              		.p2align 4,,15
 589              		.global	chOQResetI
 590              		.thumb
 591              		.thumb_func
 592              		.type	chOQResetI, %function
 593              	chOQResetI:
 594              	.LFB14:
 595              		.loc 1 297 0
 596              		.cfi_startproc
 597              		@ args = 0, pretend = 0, frame = 0
 598              		@ frame_needed = 0, uses_anonymous_args = 0
 599              	.LVL53:
 600 0000 38B5     		push	{r3, r4, r5, lr}
 601              	.LCFI7:
 602              		.cfi_def_cfa_offset 16
 603              		.cfi_offset 3, -16
 604              		.cfi_offset 4, -12
 605              		.cfi_offset 5, -8
 606              		.cfi_offset 14, -4
 607              		.loc 1 302 0
 608 0002 0269     		ldr	r2, [r0, #16]
 609              		.loc 1 301 0
 610 0004 C368     		ldr	r3, [r0, #12]
 611              		.loc 1 297 0
 612 0006 0446     		mov	r4, r0
 613              		.loc 1 303 0
 614 0008 0068     		ldr	r0, [r0, #0]
 615              	.LVL54:
 616              		.loc 1 301 0
 617 000a 6361     		str	r3, [r4, #20]
 618              		.loc 1 302 0
 619 000c D11A     		subs	r1, r2, r3
 620              		.loc 1 303 0
 621 000e A042     		cmp	r0, r4
 622              		.loc 1 301 0
 623 0010 A361     		str	r3, [r4, #24]
ARM GAS  C:\Users\jenny\AppData\Local\Temp\ccR8wREU.s 			page 12


 624              		.loc 1 302 0
 625 0012 A160     		str	r1, [r4, #8]
 626              		.loc 1 303 0
 627 0014 0AD0     		beq	.L53
 628              		.loc 1 304 0
 629 0016 6FF00105 		mvn	r5, #1
 630              	.L57:
 631              	.LVL55:
 632              	.LBB31:
 633              	.LBB32:
 634              		.loc 2 62 0
 635 001a 0368     		ldr	r3, [r0, #0]
 636 001c 2360     		str	r3, [r4, #0]
 637 001e 5C60     		str	r4, [r3, #4]
 638              	.LBE32:
 639              	.LBE31:
 640              		.loc 1 304 0
 641 0020 FFF7FEFF 		bl	chSchReadyI
 642              	.LVL56:
 643 0024 4562     		str	r5, [r0, #36]
 644              		.loc 1 303 0
 645 0026 2068     		ldr	r0, [r4, #0]
 646 0028 A042     		cmp	r0, r4
 647 002a F6D1     		bne	.L57
 648              	.LVL57:
 649              	.L53:
 650 002c 38BD     		pop	{r3, r4, r5, pc}
 651              		.cfi_endproc
 652              	.LFE14:
 653              		.size	chOQResetI, .-chOQResetI
 654 002e 00BF     		.section	.text.chOQPutTimeout,"ax",%progbits
 655              		.align	2
 656              		.p2align 4,,15
 657              		.global	chOQPutTimeout
 658              		.thumb
 659              		.thumb_func
 660              		.type	chOQPutTimeout, %function
 661              	chOQPutTimeout:
 662              	.LFB15:
 663              		.loc 1 329 0
 664              		.cfi_startproc
 665              		@ args = 0, pretend = 0, frame = 0
 666              		@ frame_needed = 0, uses_anonymous_args = 0
 667              	.LVL58:
 668 0000 F8B5     		push	{r3, r4, r5, r6, r7, lr}
 669              	.LCFI8:
 670              		.cfi_def_cfa_offset 24
 671              		.cfi_offset 3, -24
 672              		.cfi_offset 4, -20
 673              		.cfi_offset 5, -16
 674              		.cfi_offset 6, -12
 675              		.cfi_offset 7, -8
 676              		.cfi_offset 14, -4
 677              		.loc 1 329 0
 678 0002 0446     		mov	r4, r0
 679 0004 0F46     		mov	r7, r1
 680 0006 1646     		mov	r6, r2
ARM GAS  C:\Users\jenny\AppData\Local\Temp\ccR8wREU.s 			page 13


 681              	.LBB33:
 682              		.loc 1 331 0
 683 0008 2023     		movs	r3, #32
 684              	.LVL59:
 685              	@ 331 "../../os/kernel/src/chqueues.c" 1
 686 000a 83F31188 		msr     BASEPRI, r3
 687              	@ 0 "" 2
 688              	.LVL60:
 689              		.thumb
 690              	.L60:
 691              	.LBE33:
 692              		.loc 1 332 0 discriminator 1
 693 000e A568     		ldr	r5, [r4, #8]
 694              	.LBB34:
 695              		.loc 1 335 0 discriminator 1
 696 0010 2046     		mov	r0, r4
 697 0012 3146     		mov	r1, r6
 698              	.LBE34:
 699              		.loc 1 332 0 discriminator 1
 700 0014 3DB9     		cbnz	r5, .L69
 701              	.LVL61:
 702              	.LBB36:
 703              		.loc 1 335 0
 704 0016 FFF7FEFF 		bl	qwait
 705              	.LVL62:
 706 001a 0028     		cmp	r0, #0
 707 001c F7DA     		bge	.L60
 708              	.LBB35:
 709              		.loc 1 336 0
 710 001e 2B46     		mov	r3, r5
 711              	.LVL63:
 712              	@ 336 "../../os/kernel/src/chqueues.c" 1
 713 0020 83F31188 		msr     BASEPRI, r3
 714              	@ 0 "" 2
 715              	.LVL64:
 716              		.thumb
 717              	.LBE35:
 718              		.loc 1 337 0
 719 0024 F8BD     		pop	{r3, r4, r5, r6, r7, pc}
 720              	.LVL65:
 721              	.L69:
 722              	.LBE36:
 723              		.loc 1 342 0
 724 0026 6369     		ldr	r3, [r4, #20]
 725              	.LVL66:
 726              		.loc 1 341 0
 727 0028 013D     		subs	r5, r5, #1
 728 002a A560     		str	r5, [r4, #8]
 729              		.loc 1 342 0
 730 002c 03F8017B 		strb	r7, [r3], #1
 731              		.loc 1 343 0
 732 0030 2269     		ldr	r2, [r4, #16]
 733              		.loc 1 342 0
 734 0032 6361     		str	r3, [r4, #20]
 735              		.loc 1 343 0
 736 0034 9342     		cmp	r3, r2
 737              		.loc 1 344 0
ARM GAS  C:\Users\jenny\AppData\Local\Temp\ccR8wREU.s 			page 14


 738 0036 28BF     		it	cs
 739 0038 E368     		ldrcs	r3, [r4, #12]
 740              		.loc 1 346 0
 741 003a E169     		ldr	r1, [r4, #28]
 742              	.LVL67:
 743              		.loc 1 344 0
 744 003c 28BF     		it	cs
 745 003e 6361     		strcs	r3, [r4, #20]
 746              		.loc 1 346 0
 747 0040 09B1     		cbz	r1, .L64
 748              		.loc 1 347 0
 749 0042 2046     		mov	r0, r4
 750              	.LVL68:
 751 0044 8847     		blx	r1
 752              	.LVL69:
 753              	.L64:
 754              	.LBB37:
 755              		.loc 1 349 0
 756 0046 0023     		movs	r3, #0
 757              	.LVL70:
 758              	@ 349 "../../os/kernel/src/chqueues.c" 1
 759 0048 83F31188 		msr     BASEPRI, r3
 760              	@ 0 "" 2
 761              	.LVL71:
 762              		.thumb
 763              	.LBE37:
 764              		.loc 1 350 0
 765 004c 1846     		mov	r0, r3
 766              		.loc 1 351 0
 767 004e F8BD     		pop	{r3, r4, r5, r6, r7, pc}
 768              		.cfi_endproc
 769              	.LFE15:
 770              		.size	chOQPutTimeout, .-chOQPutTimeout
 771              		.section	.text.chOQGetI,"ax",%progbits
 772              		.align	2
 773              		.p2align 4,,15
 774              		.global	chOQGetI
 775              		.thumb
 776              		.thumb_func
 777              		.type	chOQGetI, %function
 778              	chOQGetI:
 779              	.LFB16:
 780              		.loc 1 363 0
 781              		.cfi_startproc
 782              		@ args = 0, pretend = 0, frame = 0
 783              		@ frame_needed = 0, uses_anonymous_args = 0
 784              	.LVL72:
 785              		.loc 1 368 0
 786 0000 8269     		ldr	r2, [r0, #24]
 787 0002 4169     		ldr	r1, [r0, #20]
 788 0004 9142     		cmp	r1, r2
 789              		.loc 1 363 0
 790 0006 0346     		mov	r3, r0
 791 0008 10B5     		push	{r4, lr}
 792              	.LCFI9:
 793              		.cfi_def_cfa_offset 8
 794              		.cfi_offset 4, -8
ARM GAS  C:\Users\jenny\AppData\Local\Temp\ccR8wREU.s 			page 15


 795              		.cfi_offset 14, -4
 796              		.loc 1 368 0
 797 000a 8068     		ldr	r0, [r0, #8]
 798              	.LVL73:
 799 000c 16D0     		beq	.L79
 800              	.L73:
 801              		.loc 1 371 0
 802 000e 441C     		adds	r4, r0, #1
 803 0010 9C60     		str	r4, [r3, #8]
 804              		.loc 1 372 0
 805 0012 12F8014B 		ldrb	r4, [r2], #1	@ zero_extendqisi2
 806              	.LVL74:
 807              		.loc 1 373 0
 808 0016 1969     		ldr	r1, [r3, #16]
 809              		.loc 1 372 0
 810 0018 9A61     		str	r2, [r3, #24]
 811              		.loc 1 373 0
 812 001a 8A42     		cmp	r2, r1
 813 001c 0BD2     		bcs	.L75
 814              	.L76:
 815              		.loc 1 376 0
 816 001e 1868     		ldr	r0, [r3, #0]
 817 0020 9842     		cmp	r0, r3
 818 0022 06D0     		beq	.L74
 819              	.LVL75:
 820              	.LBB38:
 821              	.LBB39:
 822              		.loc 2 62 0
 823 0024 0168     		ldr	r1, [r0, #0]
 824 0026 1960     		str	r1, [r3, #0]
 825 0028 4B60     		str	r3, [r1, #4]
 826              	.LBE39:
 827              	.LBE38:
 828              		.loc 1 377 0
 829 002a FFF7FEFF 		bl	chSchReadyI
 830              	.LVL76:
 831 002e 0023     		movs	r3, #0
 832 0030 4362     		str	r3, [r0, #36]
 833              	.LVL77:
 834              	.L74:
 835              		.loc 1 379 0
 836 0032 2046     		mov	r0, r4
 837 0034 10BD     		pop	{r4, pc}
 838              	.LVL78:
 839              	.L75:
 840              		.loc 1 374 0
 841 0036 DA68     		ldr	r2, [r3, #12]
 842 0038 9A61     		str	r2, [r3, #24]
 843 003a F0E7     		b	.L76
 844              	.LVL79:
 845              	.L79:
 846              		.loc 1 368 0 discriminator 1
 847 003c 0028     		cmp	r0, #0
 848 003e E6D0     		beq	.L73
 849              		.loc 1 369 0
 850 0040 6FF00200 		mvn	r0, #2
 851 0044 10BD     		pop	{r4, pc}
ARM GAS  C:\Users\jenny\AppData\Local\Temp\ccR8wREU.s 			page 16


 852              		.cfi_endproc
 853              	.LFE16:
 854              		.size	chOQGetI, .-chOQGetI
 855 0046 00BFAFF3 		.section	.text.chOQWriteTimeout,"ax",%progbits
 855      0080AFF3 
 855      0080
 856              		.align	2
 857              		.p2align 4,,15
 858              		.global	chOQWriteTimeout
 859              		.thumb
 860              		.thumb_func
 861              		.type	chOQWriteTimeout, %function
 862              	chOQWriteTimeout:
 863              	.LFB17:
 864              		.loc 1 407 0
 865              		.cfi_startproc
 866              		@ args = 0, pretend = 0, frame = 0
 867              		@ frame_needed = 0, uses_anonymous_args = 0
 868              	.LVL80:
 869 0000 2DE9F047 		push	{r4, r5, r6, r7, r8, r9, sl, lr}
 870              	.LCFI10:
 871              		.cfi_def_cfa_offset 32
 872              		.cfi_offset 4, -32
 873              		.cfi_offset 5, -28
 874              		.cfi_offset 6, -24
 875              		.cfi_offset 7, -20
 876              		.cfi_offset 8, -16
 877              		.cfi_offset 9, -12
 878              		.cfi_offset 10, -8
 879              		.cfi_offset 14, -4
 880              		.loc 1 407 0
 881 0004 9A46     		mov	sl, r3
 882 0006 0446     		mov	r4, r0
 883 0008 8846     		mov	r8, r1
 884 000a 1646     		mov	r6, r2
 885              		.loc 1 408 0
 886 000c D0F81C90 		ldr	r9, [r0, #28]
 887              	.LVL81:
 888              	.LBB40:
 889              		.loc 1 413 0
 890 0010 2023     		movs	r3, #32
 891              	.LVL82:
 892              	@ 413 "../../os/kernel/src/chqueues.c" 1
 893 0012 83F31188 		msr     BASEPRI, r3
 894              	@ 0 "" 2
 895              	.LVL83:
 896              		.loc 1 409 0
 897              		.thumb
 898 0016 0027     		movs	r7, #0
 899              	.LVL84:
 900              	.L98:
 901              	.LBE40:
 902              		.loc 1 415 0 discriminator 1
 903 0018 A568     		ldr	r5, [r4, #8]
 904              		.loc 1 427 0 discriminator 1
 905 001a 2046     		mov	r0, r4
 906              		.loc 1 421 0 discriminator 1
ARM GAS  C:\Users\jenny\AppData\Local\Temp\ccR8wREU.s 			page 17


 907 001c 6B1E     		subs	r3, r5, #1
 908              	.LVL85:
 909              		.loc 1 415 0 discriminator 1
 910 001e EDB1     		cbz	r5, .L84
 911              	.LVL86:
 912              	.L99:
 913              		.loc 1 421 0
 914 0020 A360     		str	r3, [r4, #8]
 915              		.loc 1 422 0
 916 0022 6569     		ldr	r5, [r4, #20]
 917 0024 18F8011B 		ldrb	r1, [r8], #1	@ zero_extendqisi2
 918              	.LVL87:
 919 0028 05F8011B 		strb	r1, [r5], #1
 920              		.loc 1 423 0
 921 002c 2269     		ldr	r2, [r4, #16]
 922              		.loc 1 422 0
 923 002e 6561     		str	r5, [r4, #20]
 924              	.LVL88:
 925              		.loc 1 423 0
 926 0030 9542     		cmp	r5, r2
 927              		.loc 1 424 0
 928 0032 24BF     		itt	cs
 929 0034 E268     		ldrcs	r2, [r4, #12]
 930 0036 6261     		strcs	r2, [r4, #20]
 931              		.loc 1 426 0
 932 0038 B9F1000F 		cmp	r9, #0
 933 003c 00D0     		beq	.L86
 934              		.loc 1 427 0
 935 003e C847     		blx	r9
 936              	.LVL89:
 937              	.L86:
 938              	.LBB41:
 939              		.loc 1 429 0
 940 0040 0023     		movs	r3, #0
 941              	.LVL90:
 942              	@ 429 "../../os/kernel/src/chqueues.c" 1
 943 0042 83F31188 		msr     BASEPRI, r3
 944              	@ 0 "" 2
 945              	.LVL91:
 946              		.thumb
 947              	.LBE41:
 948              		.loc 1 430 0
 949 0046 0137     		adds	r7, r7, #1
 950              	.LVL92:
 951              		.loc 1 431 0
 952 0048 013E     		subs	r6, r6, #1
 953              	.LVL93:
 954 004a 10D0     		beq	.L83
 955              	.LBB42:
 956              		.loc 1 433 0
 957 004c 2023     		movs	r3, #32
 958              	.LVL94:
 959              	@ 433 "../../os/kernel/src/chqueues.c" 1
 960 004e 83F31188 		msr     BASEPRI, r3
 961              	@ 0 "" 2
 962              	.LVL95:
 963              		.thumb
ARM GAS  C:\Users\jenny\AppData\Local\Temp\ccR8wREU.s 			page 18


 964              	.LBE42:
 965              		.loc 1 415 0
 966 0052 A568     		ldr	r5, [r4, #8]
 967              		.loc 1 427 0
 968 0054 2046     		mov	r0, r4
 969              		.loc 1 421 0
 970 0056 6B1E     		subs	r3, r5, #1
 971              	.LVL96:
 972              		.loc 1 415 0
 973 0058 002D     		cmp	r5, #0
 974 005a E1D1     		bne	.L99
 975              	.LVL97:
 976              	.L84:
 977              		.loc 1 416 0
 978 005c 2046     		mov	r0, r4
 979              	.LVL98:
 980 005e 5146     		mov	r1, sl
 981 0060 FFF7FEFF 		bl	qwait
 982              	.LVL99:
 983 0064 0028     		cmp	r0, #0
 984 0066 D7D0     		beq	.L98
 985              	.LBB43:
 986              		.loc 1 417 0
 987 0068 2B46     		mov	r3, r5
 988              	.LVL100:
 989              	@ 417 "../../os/kernel/src/chqueues.c" 1
 990 006a 83F31188 		msr     BASEPRI, r3
 991              	@ 0 "" 2
 992              	.LVL101:
 993              		.thumb
 994              	.L83:
 995              	.LBE43:
 996              		.loc 1 435 0
 997 006e 3846     		mov	r0, r7
 998 0070 BDE8F087 		pop	{r4, r5, r6, r7, r8, r9, sl, pc}
 999              		.cfi_endproc
 1000              	.LFE17:
 1001              		.size	chOQWriteTimeout, .-chOQWriteTimeout
 1002 0074 AFF30080 		.text
 1002      AFF30080 
 1002      AFF30080 
 1003              	.Letext0:
 1004              		.file 3 "c:\\fbin\\yagarto\\bin\\../lib/gcc/arm-none-eabi/4.7.4/include/stddef.h"
 1005              		.file 4 "c:\\fbin\\yagarto\\bin\\../lib/gcc/arm-none-eabi/4.7.4/../../../../arm-none-eabi/include/
 1006              		.file 5 "../../os/ports/GCC/ARMCMx/chtypes.h"
 1007              		.file 6 "../../os/kernel/include/chlists.h"
 1008              		.file 7 "../../os/kernel/include/chthreads.h"
 1009              		.file 8 "../../os/ports/GCC/ARMCMx/chcore_v7m.h"
 1010              		.file 9 "../../os/kernel/include/chschd.h"
 1011              		.file 10 "../../os/kernel/include/chmtx.h"
 1012              		.file 11 "../../os/kernel/include/chqueues.h"
 1013              		.section	.debug_info,"",%progbits
 1014              	.Ldebug_info0:
 1015 0000 690D0000 		.4byte	0xd69
 1016 0004 0200     		.2byte	0x2
 1017 0006 00000000 		.4byte	.Ldebug_abbrev0
 1018 000a 04       		.byte	0x4
ARM GAS  C:\Users\jenny\AppData\Local\Temp\ccR8wREU.s 			page 19


 1019 000b 01       		.uleb128 0x1
 1020 000c CE000000 		.4byte	.LASF92
 1021 0010 01       		.byte	0x1
 1022 0011 C1010000 		.4byte	.LASF93
 1023 0015 AF030000 		.4byte	.LASF94
 1024 0019 78000000 		.4byte	.Ldebug_ranges0+0x78
 1025 001d 00000000 		.4byte	0
 1026 0021 00000000 		.4byte	0
 1027 0025 00000000 		.4byte	.Ldebug_line0
 1028 0029 02       		.uleb128 0x2
 1029 002a 04       		.byte	0x4
 1030 002b 05       		.byte	0x5
 1031 002c 696E7400 		.ascii	"int\000"
 1032 0030 03       		.uleb128 0x3
 1033 0031 21000000 		.4byte	.LASF2
 1034 0035 03       		.byte	0x3
 1035 0036 D5       		.byte	0xd5
 1036 0037 3B000000 		.4byte	0x3b
 1037 003b 04       		.uleb128 0x4
 1038 003c 04       		.byte	0x4
 1039 003d 07       		.byte	0x7
 1040 003e 71010000 		.4byte	.LASF0
 1041 0042 04       		.uleb128 0x4
 1042 0043 01       		.byte	0x1
 1043 0044 06       		.byte	0x6
 1044 0045 9B000000 		.4byte	.LASF1
 1045 0049 03       		.uleb128 0x3
 1046 004a A7030000 		.4byte	.LASF3
 1047 004e 04       		.byte	0x4
 1048 004f 2A       		.byte	0x2a
 1049 0050 54000000 		.4byte	0x54
 1050 0054 04       		.uleb128 0x4
 1051 0055 01       		.byte	0x1
 1052 0056 08       		.byte	0x8
 1053 0057 A3020000 		.4byte	.LASF4
 1054 005b 04       		.uleb128 0x4
 1055 005c 02       		.byte	0x2
 1056 005d 05       		.byte	0x5
 1057 005e BB020000 		.4byte	.LASF5
 1058 0062 04       		.uleb128 0x4
 1059 0063 02       		.byte	0x2
 1060 0064 07       		.byte	0x7
 1061 0065 A8010000 		.4byte	.LASF6
 1062 0069 03       		.uleb128 0x3
 1063 006a 9B020000 		.4byte	.LASF7
 1064 006e 04       		.byte	0x4
 1065 006f 4F       		.byte	0x4f
 1066 0070 74000000 		.4byte	0x74
 1067 0074 04       		.uleb128 0x4
 1068 0075 04       		.byte	0x4
 1069 0076 05       		.byte	0x5
 1070 0077 17010000 		.4byte	.LASF8
 1071 007b 03       		.uleb128 0x3
 1072 007c 0E030000 		.4byte	.LASF9
 1073 0080 04       		.byte	0x4
 1074 0081 50       		.byte	0x50
 1075 0082 86000000 		.4byte	0x86
ARM GAS  C:\Users\jenny\AppData\Local\Temp\ccR8wREU.s 			page 20


 1076 0086 04       		.uleb128 0x4
 1077 0087 04       		.byte	0x4
 1078 0088 07       		.byte	0x7
 1079 0089 89010000 		.4byte	.LASF10
 1080 008d 04       		.uleb128 0x4
 1081 008e 08       		.byte	0x8
 1082 008f 05       		.byte	0x5
 1083 0090 8D000000 		.4byte	.LASF11
 1084 0094 04       		.uleb128 0x4
 1085 0095 08       		.byte	0x8
 1086 0096 07       		.byte	0x7
 1087 0097 54000000 		.4byte	.LASF12
 1088 009b 03       		.uleb128 0x3
 1089 009c AF000000 		.4byte	.LASF13
 1090 00a0 05       		.byte	0x5
 1091 00a1 2B       		.byte	0x2b
 1092 00a2 A6000000 		.4byte	0xa6
 1093 00a6 04       		.uleb128 0x4
 1094 00a7 01       		.byte	0x1
 1095 00a8 02       		.byte	0x2
 1096 00a9 95020000 		.4byte	.LASF14
 1097 00ad 03       		.uleb128 0x3
 1098 00ae EC020000 		.4byte	.LASF15
 1099 00b2 05       		.byte	0x5
 1100 00b3 2C       		.byte	0x2c
 1101 00b4 49000000 		.4byte	0x49
 1102 00b8 03       		.uleb128 0x3
 1103 00b9 20010000 		.4byte	.LASF16
 1104 00bd 05       		.byte	0x5
 1105 00be 2D       		.byte	0x2d
 1106 00bf 49000000 		.4byte	0x49
 1107 00c3 03       		.uleb128 0x3
 1108 00c4 6C020000 		.4byte	.LASF17
 1109 00c8 05       		.byte	0x5
 1110 00c9 2E       		.byte	0x2e
 1111 00ca 49000000 		.4byte	0x49
 1112 00ce 03       		.uleb128 0x3
 1113 00cf BE000000 		.4byte	.LASF18
 1114 00d3 05       		.byte	0x5
 1115 00d4 2F       		.byte	0x2f
 1116 00d5 49000000 		.4byte	0x49
 1117 00d9 03       		.uleb128 0x3
 1118 00da 85020000 		.4byte	.LASF19
 1119 00de 05       		.byte	0x5
 1120 00df 30       		.byte	0x30
 1121 00e0 7B000000 		.4byte	0x7b
 1122 00e4 03       		.uleb128 0x3
 1123 00e5 BB010000 		.4byte	.LASF20
 1124 00e9 05       		.byte	0x5
 1125 00ea 31       		.byte	0x31
 1126 00eb 69000000 		.4byte	0x69
 1127 00ef 03       		.uleb128 0x3
 1128 00f0 EC010000 		.4byte	.LASF21
 1129 00f4 05       		.byte	0x5
 1130 00f5 33       		.byte	0x33
 1131 00f6 7B000000 		.4byte	0x7b
 1132 00fa 03       		.uleb128 0x3
ARM GAS  C:\Users\jenny\AppData\Local\Temp\ccR8wREU.s 			page 21


 1133 00fb 43030000 		.4byte	.LASF22
 1134 00ff 05       		.byte	0x5
 1135 0100 35       		.byte	0x35
 1136 0101 7B000000 		.4byte	0x7b
 1137 0105 03       		.uleb128 0x3
 1138 0106 FC020000 		.4byte	.LASF23
 1139 010a 06       		.byte	0x6
 1140 010b 2A       		.byte	0x2a
 1141 010c 10010000 		.4byte	0x110
 1142 0110 05       		.uleb128 0x5
 1143 0111 FC020000 		.4byte	.LASF23
 1144 0115 48       		.byte	0x48
 1145 0116 07       		.byte	0x7
 1146 0117 5E       		.byte	0x5e
 1147 0118 35020000 		.4byte	0x235
 1148 011c 06       		.uleb128 0x6
 1149 011d E5020000 		.4byte	.LASF24
 1150 0121 07       		.byte	0x7
 1151 0122 5F       		.byte	0x5f
 1152 0123 5A020000 		.4byte	0x25a
 1153 0127 02       		.byte	0x2
 1154 0128 23       		.byte	0x23
 1155 0129 00       		.uleb128 0
 1156 012a 06       		.uleb128 0x6
 1157 012b 7E020000 		.4byte	.LASF25
 1158 012f 07       		.byte	0x7
 1159 0130 61       		.byte	0x61
 1160 0131 5A020000 		.4byte	0x25a
 1161 0135 02       		.byte	0x2
 1162 0136 23       		.byte	0x23
 1163 0137 04       		.uleb128 0x4
 1164 0138 06       		.uleb128 0x6
 1165 0139 7C000000 		.4byte	.LASF26
 1166 013d 07       		.byte	0x7
 1167 013e 63       		.byte	0x63
 1168 013f D9000000 		.4byte	0xd9
 1169 0143 02       		.byte	0x2
 1170 0144 23       		.byte	0x23
 1171 0145 08       		.uleb128 0x8
 1172 0146 06       		.uleb128 0x6
 1173 0147 34040000 		.4byte	.LASF27
 1174 014b 07       		.byte	0x7
 1175 014c 64       		.byte	0x64
 1176 014d 18040000 		.4byte	0x418
 1177 0151 02       		.byte	0x2
 1178 0152 23       		.byte	0x23
 1179 0153 0C       		.uleb128 0xc
 1180 0154 06       		.uleb128 0x6
 1181 0155 32010000 		.4byte	.LASF28
 1182 0159 07       		.byte	0x7
 1183 015a 66       		.byte	0x66
 1184 015b 5A020000 		.4byte	0x25a
 1185 015f 02       		.byte	0x2
 1186 0160 23       		.byte	0x23
 1187 0161 10       		.uleb128 0x10
 1188 0162 06       		.uleb128 0x6
 1189 0163 32020000 		.4byte	.LASF29
ARM GAS  C:\Users\jenny\AppData\Local\Temp\ccR8wREU.s 			page 22


 1190 0167 07       		.byte	0x7
 1191 0168 67       		.byte	0x67
 1192 0169 5A020000 		.4byte	0x25a
 1193 016d 02       		.byte	0x2
 1194 016e 23       		.byte	0x23
 1195 016f 14       		.uleb128 0x14
 1196 0170 06       		.uleb128 0x6
 1197 0171 09040000 		.4byte	.LASF30
 1198 0175 07       		.byte	0x7
 1199 0176 6E       		.byte	0x6e
 1200 0177 2C050000 		.4byte	0x52c
 1201 017b 02       		.byte	0x2
 1202 017c 23       		.byte	0x23
 1203 017d 18       		.uleb128 0x18
 1204 017e 06       		.uleb128 0x6
 1205 017f C5020000 		.4byte	.LASF31
 1206 0183 07       		.byte	0x7
 1207 0184 79       		.byte	0x79
 1208 0185 B8000000 		.4byte	0xb8
 1209 0189 02       		.byte	0x2
 1210 018a 23       		.byte	0x23
 1211 018b 1C       		.uleb128 0x1c
 1212 018c 06       		.uleb128 0x6
 1213 018d F4020000 		.4byte	.LASF32
 1214 0191 07       		.byte	0x7
 1215 0192 7D       		.byte	0x7d
 1216 0193 AD000000 		.4byte	0xad
 1217 0197 02       		.byte	0x2
 1218 0198 23       		.byte	0x23
 1219 0199 1D       		.uleb128 0x1d
 1220 019a 06       		.uleb128 0x6
 1221 019b 87030000 		.4byte	.LASF33
 1222 019f 07       		.byte	0x7
 1223 01a0 82       		.byte	0x82
 1224 01a1 C3000000 		.4byte	0xc3
 1225 01a5 02       		.byte	0x2
 1226 01a6 23       		.byte	0x23
 1227 01a7 1E       		.uleb128 0x1e
 1228 01a8 06       		.uleb128 0x6
 1229 01a9 CD020000 		.4byte	.LASF34
 1230 01ad 07       		.byte	0x7
 1231 01ae 88       		.byte	0x88
 1232 01af CE000000 		.4byte	0xce
 1233 01b3 02       		.byte	0x2
 1234 01b4 23       		.byte	0x23
 1235 01b5 1F       		.uleb128 0x1f
 1236 01b6 06       		.uleb128 0x6
 1237 01b7 68030000 		.4byte	.LASF35
 1238 01bb 07       		.byte	0x7
 1239 01bc 8F       		.byte	0x8f
 1240 01bd 42040000 		.4byte	0x442
 1241 01c1 02       		.byte	0x2
 1242 01c2 23       		.byte	0x23
 1243 01c3 20       		.uleb128 0x20
 1244 01c4 07       		.uleb128 0x7
 1245 01c5 705F7500 		.ascii	"p_u\000"
 1246 01c9 07       		.byte	0x7
ARM GAS  C:\Users\jenny\AppData\Local\Temp\ccR8wREU.s 			page 23


 1247 01ca B4       		.byte	0xb4
 1248 01cb F7040000 		.4byte	0x4f7
 1249 01cf 02       		.byte	0x2
 1250 01d0 23       		.byte	0x23
 1251 01d1 24       		.uleb128 0x24
 1252 01d2 06       		.uleb128 0x6
 1253 01d3 3A040000 		.4byte	.LASF36
 1254 01d7 07       		.byte	0x7
 1255 01d8 B9       		.byte	0xb9
 1256 01d9 82020000 		.4byte	0x282
 1257 01dd 02       		.byte	0x2
 1258 01de 23       		.byte	0x23
 1259 01df 28       		.uleb128 0x28
 1260 01e0 06       		.uleb128 0x6
 1261 01e1 76030000 		.4byte	.LASF37
 1262 01e5 07       		.byte	0x7
 1263 01e6 BF       		.byte	0xbf
 1264 01e7 60020000 		.4byte	0x260
 1265 01eb 02       		.byte	0x2
 1266 01ec 23       		.byte	0x23
 1267 01ed 2C       		.uleb128 0x2c
 1268 01ee 06       		.uleb128 0x6
 1269 01ef 09000000 		.4byte	.LASF38
 1270 01f3 07       		.byte	0x7
 1271 01f4 C3       		.byte	0xc3
 1272 01f5 E4000000 		.4byte	0xe4
 1273 01f9 02       		.byte	0x2
 1274 01fa 23       		.byte	0x23
 1275 01fb 34       		.uleb128 0x34
 1276 01fc 06       		.uleb128 0x6
 1277 01fd 03030000 		.4byte	.LASF39
 1278 0201 07       		.byte	0x7
 1279 0202 C9       		.byte	0xc9
 1280 0203 EF000000 		.4byte	0xef
 1281 0207 02       		.byte	0x2
 1282 0208 23       		.byte	0x23
 1283 0209 38       		.uleb128 0x38
 1284 020a 06       		.uleb128 0x6
 1285 020b B1020000 		.4byte	.LASF40
 1286 020f 07       		.byte	0x7
 1287 0210 D0       		.byte	0xd0
 1288 0211 3E050000 		.4byte	0x53e
 1289 0215 02       		.byte	0x2
 1290 0216 23       		.byte	0x23
 1291 0217 3C       		.uleb128 0x3c
 1292 0218 06       		.uleb128 0x6
 1293 0219 4D030000 		.4byte	.LASF41
 1294 021d 07       		.byte	0x7
 1295 021e D4       		.byte	0xd4
 1296 021f D9000000 		.4byte	0xd9
 1297 0223 02       		.byte	0x2
 1298 0224 23       		.byte	0x23
 1299 0225 40       		.uleb128 0x40
 1300 0226 06       		.uleb128 0x6
 1301 0227 A7000000 		.4byte	.LASF42
 1302 022b 07       		.byte	0x7
 1303 022c DA       		.byte	0xda
ARM GAS  C:\Users\jenny\AppData\Local\Temp\ccR8wREU.s 			page 24


 1304 022d 98020000 		.4byte	0x298
 1305 0231 02       		.byte	0x2
 1306 0232 23       		.byte	0x23
 1307 0233 44       		.uleb128 0x44
 1308 0234 00       		.byte	0
 1309 0235 08       		.uleb128 0x8
 1310 0236 08       		.byte	0x8
 1311 0237 06       		.byte	0x6
 1312 0238 61       		.byte	0x61
 1313 0239 5A020000 		.4byte	0x25a
 1314 023d 06       		.uleb128 0x6
 1315 023e E5020000 		.4byte	.LASF24
 1316 0242 06       		.byte	0x6
 1317 0243 62       		.byte	0x62
 1318 0244 5A020000 		.4byte	0x25a
 1319 0248 02       		.byte	0x2
 1320 0249 23       		.byte	0x23
 1321 024a 00       		.uleb128 0
 1322 024b 06       		.uleb128 0x6
 1323 024c 7E020000 		.4byte	.LASF25
 1324 0250 06       		.byte	0x6
 1325 0251 64       		.byte	0x64
 1326 0252 5A020000 		.4byte	0x25a
 1327 0256 02       		.byte	0x2
 1328 0257 23       		.byte	0x23
 1329 0258 04       		.uleb128 0x4
 1330 0259 00       		.byte	0
 1331 025a 09       		.uleb128 0x9
 1332 025b 04       		.byte	0x4
 1333 025c 05010000 		.4byte	0x105
 1334 0260 03       		.uleb128 0x3
 1335 0261 48020000 		.4byte	.LASF43
 1336 0265 06       		.byte	0x6
 1337 0266 66       		.byte	0x66
 1338 0267 35020000 		.4byte	0x235
 1339 026b 08       		.uleb128 0x8
 1340 026c 04       		.byte	0x4
 1341 026d 06       		.byte	0x6
 1342 026e 6B       		.byte	0x6b
 1343 026f 82020000 		.4byte	0x282
 1344 0273 06       		.uleb128 0x6
 1345 0274 E5020000 		.4byte	.LASF24
 1346 0278 06       		.byte	0x6
 1347 0279 6D       		.byte	0x6d
 1348 027a 5A020000 		.4byte	0x25a
 1349 027e 02       		.byte	0x2
 1350 027f 23       		.byte	0x23
 1351 0280 00       		.uleb128 0
 1352 0281 00       		.byte	0
 1353 0282 03       		.uleb128 0x3
 1354 0283 E0010000 		.4byte	.LASF44
 1355 0287 06       		.byte	0x6
 1356 0288 70       		.byte	0x70
 1357 0289 6B020000 		.4byte	0x26b
 1358 028d 03       		.uleb128 0x3
 1359 028e 4B010000 		.4byte	.LASF45
 1360 0292 08       		.byte	0x8
ARM GAS  C:\Users\jenny\AppData\Local\Temp\ccR8wREU.s 			page 25


 1361 0293 E5       		.byte	0xe5
 1362 0294 98020000 		.4byte	0x298
 1363 0298 0A       		.uleb128 0xa
 1364 0299 04       		.byte	0x4
 1365 029a 0B       		.uleb128 0xb
 1366 029b 6F030000 		.4byte	.LASF46
 1367 029f 64       		.byte	0x64
 1368 02a0 08       		.byte	0x8
 1369 02a1 0C01     		.2byte	0x10c
 1370 02a3 18040000 		.4byte	0x418
 1371 02a7 0C       		.uleb128 0xc
 1372 02a8 73313600 		.ascii	"s16\000"
 1373 02ac 08       		.byte	0x8
 1374 02ad 0E01     		.2byte	0x10e
 1375 02af 8D020000 		.4byte	0x28d
 1376 02b3 02       		.byte	0x2
 1377 02b4 23       		.byte	0x23
 1378 02b5 00       		.uleb128 0
 1379 02b6 0C       		.uleb128 0xc
 1380 02b7 73313700 		.ascii	"s17\000"
 1381 02bb 08       		.byte	0x8
 1382 02bc 0F01     		.2byte	0x10f
 1383 02be 8D020000 		.4byte	0x28d
 1384 02c2 02       		.byte	0x2
 1385 02c3 23       		.byte	0x23
 1386 02c4 04       		.uleb128 0x4
 1387 02c5 0C       		.uleb128 0xc
 1388 02c6 73313800 		.ascii	"s18\000"
 1389 02ca 08       		.byte	0x8
 1390 02cb 1001     		.2byte	0x110
 1391 02cd 8D020000 		.4byte	0x28d
 1392 02d1 02       		.byte	0x2
 1393 02d2 23       		.byte	0x23
 1394 02d3 08       		.uleb128 0x8
 1395 02d4 0C       		.uleb128 0xc
 1396 02d5 73313900 		.ascii	"s19\000"
 1397 02d9 08       		.byte	0x8
 1398 02da 1101     		.2byte	0x111
 1399 02dc 8D020000 		.4byte	0x28d
 1400 02e0 02       		.byte	0x2
 1401 02e1 23       		.byte	0x23
 1402 02e2 0C       		.uleb128 0xc
 1403 02e3 0C       		.uleb128 0xc
 1404 02e4 73323000 		.ascii	"s20\000"
 1405 02e8 08       		.byte	0x8
 1406 02e9 1201     		.2byte	0x112
 1407 02eb 8D020000 		.4byte	0x28d
 1408 02ef 02       		.byte	0x2
 1409 02f0 23       		.byte	0x23
 1410 02f1 10       		.uleb128 0x10
 1411 02f2 0C       		.uleb128 0xc
 1412 02f3 73323100 		.ascii	"s21\000"
 1413 02f7 08       		.byte	0x8
 1414 02f8 1301     		.2byte	0x113
 1415 02fa 8D020000 		.4byte	0x28d
 1416 02fe 02       		.byte	0x2
 1417 02ff 23       		.byte	0x23
ARM GAS  C:\Users\jenny\AppData\Local\Temp\ccR8wREU.s 			page 26


 1418 0300 14       		.uleb128 0x14
 1419 0301 0C       		.uleb128 0xc
 1420 0302 73323200 		.ascii	"s22\000"
 1421 0306 08       		.byte	0x8
 1422 0307 1401     		.2byte	0x114
 1423 0309 8D020000 		.4byte	0x28d
 1424 030d 02       		.byte	0x2
 1425 030e 23       		.byte	0x23
 1426 030f 18       		.uleb128 0x18
 1427 0310 0C       		.uleb128 0xc
 1428 0311 73323300 		.ascii	"s23\000"
 1429 0315 08       		.byte	0x8
 1430 0316 1501     		.2byte	0x115
 1431 0318 8D020000 		.4byte	0x28d
 1432 031c 02       		.byte	0x2
 1433 031d 23       		.byte	0x23
 1434 031e 1C       		.uleb128 0x1c
 1435 031f 0C       		.uleb128 0xc
 1436 0320 73323400 		.ascii	"s24\000"
 1437 0324 08       		.byte	0x8
 1438 0325 1601     		.2byte	0x116
 1439 0327 8D020000 		.4byte	0x28d
 1440 032b 02       		.byte	0x2
 1441 032c 23       		.byte	0x23
 1442 032d 20       		.uleb128 0x20
 1443 032e 0C       		.uleb128 0xc
 1444 032f 73323500 		.ascii	"s25\000"
 1445 0333 08       		.byte	0x8
 1446 0334 1701     		.2byte	0x117
 1447 0336 8D020000 		.4byte	0x28d
 1448 033a 02       		.byte	0x2
 1449 033b 23       		.byte	0x23
 1450 033c 24       		.uleb128 0x24
 1451 033d 0C       		.uleb128 0xc
 1452 033e 73323600 		.ascii	"s26\000"
 1453 0342 08       		.byte	0x8
 1454 0343 1801     		.2byte	0x118
 1455 0345 8D020000 		.4byte	0x28d
 1456 0349 02       		.byte	0x2
 1457 034a 23       		.byte	0x23
 1458 034b 28       		.uleb128 0x28
 1459 034c 0C       		.uleb128 0xc
 1460 034d 73323700 		.ascii	"s27\000"
 1461 0351 08       		.byte	0x8
 1462 0352 1901     		.2byte	0x119
 1463 0354 8D020000 		.4byte	0x28d
 1464 0358 02       		.byte	0x2
 1465 0359 23       		.byte	0x23
 1466 035a 2C       		.uleb128 0x2c
 1467 035b 0C       		.uleb128 0xc
 1468 035c 73323800 		.ascii	"s28\000"
 1469 0360 08       		.byte	0x8
 1470 0361 1A01     		.2byte	0x11a
 1471 0363 8D020000 		.4byte	0x28d
 1472 0367 02       		.byte	0x2
 1473 0368 23       		.byte	0x23
 1474 0369 30       		.uleb128 0x30
ARM GAS  C:\Users\jenny\AppData\Local\Temp\ccR8wREU.s 			page 27


 1475 036a 0C       		.uleb128 0xc
 1476 036b 73323900 		.ascii	"s29\000"
 1477 036f 08       		.byte	0x8
 1478 0370 1B01     		.2byte	0x11b
 1479 0372 8D020000 		.4byte	0x28d
 1480 0376 02       		.byte	0x2
 1481 0377 23       		.byte	0x23
 1482 0378 34       		.uleb128 0x34
 1483 0379 0C       		.uleb128 0xc
 1484 037a 73333000 		.ascii	"s30\000"
 1485 037e 08       		.byte	0x8
 1486 037f 1C01     		.2byte	0x11c
 1487 0381 8D020000 		.4byte	0x28d
 1488 0385 02       		.byte	0x2
 1489 0386 23       		.byte	0x23
 1490 0387 38       		.uleb128 0x38
 1491 0388 0C       		.uleb128 0xc
 1492 0389 73333100 		.ascii	"s31\000"
 1493 038d 08       		.byte	0x8
 1494 038e 1D01     		.2byte	0x11d
 1495 0390 8D020000 		.4byte	0x28d
 1496 0394 02       		.byte	0x2
 1497 0395 23       		.byte	0x23
 1498 0396 3C       		.uleb128 0x3c
 1499 0397 0C       		.uleb128 0xc
 1500 0398 723400   		.ascii	"r4\000"
 1501 039b 08       		.byte	0x8
 1502 039c 1F01     		.2byte	0x11f
 1503 039e 8D020000 		.4byte	0x28d
 1504 03a2 02       		.byte	0x2
 1505 03a3 23       		.byte	0x23
 1506 03a4 40       		.uleb128 0x40
 1507 03a5 0C       		.uleb128 0xc
 1508 03a6 723500   		.ascii	"r5\000"
 1509 03a9 08       		.byte	0x8
 1510 03aa 2001     		.2byte	0x120
 1511 03ac 8D020000 		.4byte	0x28d
 1512 03b0 02       		.byte	0x2
 1513 03b1 23       		.byte	0x23
 1514 03b2 44       		.uleb128 0x44
 1515 03b3 0C       		.uleb128 0xc
 1516 03b4 723600   		.ascii	"r6\000"
 1517 03b7 08       		.byte	0x8
 1518 03b8 2101     		.2byte	0x121
 1519 03ba 8D020000 		.4byte	0x28d
 1520 03be 02       		.byte	0x2
 1521 03bf 23       		.byte	0x23
 1522 03c0 48       		.uleb128 0x48
 1523 03c1 0C       		.uleb128 0xc
 1524 03c2 723700   		.ascii	"r7\000"
 1525 03c5 08       		.byte	0x8
 1526 03c6 2201     		.2byte	0x122
 1527 03c8 8D020000 		.4byte	0x28d
 1528 03cc 02       		.byte	0x2
 1529 03cd 23       		.byte	0x23
 1530 03ce 4C       		.uleb128 0x4c
 1531 03cf 0C       		.uleb128 0xc
ARM GAS  C:\Users\jenny\AppData\Local\Temp\ccR8wREU.s 			page 28


 1532 03d0 723800   		.ascii	"r8\000"
 1533 03d3 08       		.byte	0x8
 1534 03d4 2301     		.2byte	0x123
 1535 03d6 8D020000 		.4byte	0x28d
 1536 03da 02       		.byte	0x2
 1537 03db 23       		.byte	0x23
 1538 03dc 50       		.uleb128 0x50
 1539 03dd 0C       		.uleb128 0xc
 1540 03de 723900   		.ascii	"r9\000"
 1541 03e1 08       		.byte	0x8
 1542 03e2 2401     		.2byte	0x124
 1543 03e4 8D020000 		.4byte	0x28d
 1544 03e8 02       		.byte	0x2
 1545 03e9 23       		.byte	0x23
 1546 03ea 54       		.uleb128 0x54
 1547 03eb 0C       		.uleb128 0xc
 1548 03ec 72313000 		.ascii	"r10\000"
 1549 03f0 08       		.byte	0x8
 1550 03f1 2501     		.2byte	0x125
 1551 03f3 8D020000 		.4byte	0x28d
 1552 03f7 02       		.byte	0x2
 1553 03f8 23       		.byte	0x23
 1554 03f9 58       		.uleb128 0x58
 1555 03fa 0C       		.uleb128 0xc
 1556 03fb 72313100 		.ascii	"r11\000"
 1557 03ff 08       		.byte	0x8
 1558 0400 2601     		.2byte	0x126
 1559 0402 8D020000 		.4byte	0x28d
 1560 0406 02       		.byte	0x2
 1561 0407 23       		.byte	0x23
 1562 0408 5C       		.uleb128 0x5c
 1563 0409 0C       		.uleb128 0xc
 1564 040a 6C7200   		.ascii	"lr\000"
 1565 040d 08       		.byte	0x8
 1566 040e 2701     		.2byte	0x127
 1567 0410 8D020000 		.4byte	0x28d
 1568 0414 02       		.byte	0x2
 1569 0415 23       		.byte	0x23
 1570 0416 60       		.uleb128 0x60
 1571 0417 00       		.byte	0
 1572 0418 0B       		.uleb128 0xb
 1573 0419 9B010000 		.4byte	.LASF47
 1574 041d 04       		.byte	0x4
 1575 041e 08       		.byte	0x8
 1576 041f 3101     		.2byte	0x131
 1577 0421 35040000 		.4byte	0x435
 1578 0425 0C       		.uleb128 0xc
 1579 0426 72313300 		.ascii	"r13\000"
 1580 042a 08       		.byte	0x8
 1581 042b 3201     		.2byte	0x132
 1582 042d 35040000 		.4byte	0x435
 1583 0431 02       		.byte	0x2
 1584 0432 23       		.byte	0x23
 1585 0433 00       		.uleb128 0
 1586 0434 00       		.byte	0
 1587 0435 09       		.uleb128 0x9
 1588 0436 04       		.byte	0x4
ARM GAS  C:\Users\jenny\AppData\Local\Temp\ccR8wREU.s 			page 29


 1589 0437 9A020000 		.4byte	0x29a
 1590 043b 04       		.uleb128 0x4
 1591 043c 04       		.byte	0x4
 1592 043d 07       		.byte	0x7
 1593 043e 1F020000 		.4byte	.LASF48
 1594 0442 0D       		.uleb128 0xd
 1595 0443 FA000000 		.4byte	0xfa
 1596 0447 08       		.uleb128 0x8
 1597 0448 1C       		.byte	0x1c
 1598 0449 09       		.byte	0x9
 1599 044a 5E       		.byte	0x5e
 1600 044b A4040000 		.4byte	0x4a4
 1601 044f 06       		.uleb128 0x6
 1602 0450 17030000 		.4byte	.LASF49
 1603 0454 09       		.byte	0x9
 1604 0455 5F       		.byte	0x5f
 1605 0456 60020000 		.4byte	0x260
 1606 045a 02       		.byte	0x2
 1607 045b 23       		.byte	0x23
 1608 045c 00       		.uleb128 0
 1609 045d 06       		.uleb128 0x6
 1610 045e D7020000 		.4byte	.LASF50
 1611 0462 09       		.byte	0x9
 1612 0463 60       		.byte	0x60
 1613 0464 D9000000 		.4byte	0xd9
 1614 0468 02       		.byte	0x2
 1615 0469 23       		.byte	0x23
 1616 046a 08       		.uleb128 0x8
 1617 046b 06       		.uleb128 0x6
 1618 046c 42020000 		.4byte	.LASF51
 1619 0470 09       		.byte	0x9
 1620 0471 62       		.byte	0x62
 1621 0472 18040000 		.4byte	0x418
 1622 0476 02       		.byte	0x2
 1623 0477 23       		.byte	0x23
 1624 0478 0C       		.uleb128 0xc
 1625 0479 06       		.uleb128 0x6
 1626 047a 43010000 		.4byte	.LASF52
 1627 047e 09       		.byte	0x9
 1628 047f 65       		.byte	0x65
 1629 0480 5A020000 		.4byte	0x25a
 1630 0484 02       		.byte	0x2
 1631 0485 23       		.byte	0x23
 1632 0486 10       		.uleb128 0x10
 1633 0487 06       		.uleb128 0x6
 1634 0488 64020000 		.4byte	.LASF53
 1635 048c 09       		.byte	0x9
 1636 048d 66       		.byte	0x66
 1637 048e 5A020000 		.4byte	0x25a
 1638 0492 02       		.byte	0x2
 1639 0493 23       		.byte	0x23
 1640 0494 14       		.uleb128 0x14
 1641 0495 06       		.uleb128 0x6
 1642 0496 5A020000 		.4byte	.LASF54
 1643 049a 09       		.byte	0x9
 1644 049b 69       		.byte	0x69
 1645 049c 5A020000 		.4byte	0x25a
ARM GAS  C:\Users\jenny\AppData\Local\Temp\ccR8wREU.s 			page 30


 1646 04a0 02       		.byte	0x2
 1647 04a1 23       		.byte	0x23
 1648 04a2 18       		.uleb128 0x18
 1649 04a3 00       		.byte	0
 1650 04a4 03       		.uleb128 0x3
 1651 04a5 8E030000 		.4byte	.LASF55
 1652 04a9 09       		.byte	0x9
 1653 04aa 6B       		.byte	0x6b
 1654 04ab 47040000 		.4byte	0x447
 1655 04af 05       		.uleb128 0x5
 1656 04b0 03020000 		.4byte	.LASF56
 1657 04b4 10       		.byte	0x10
 1658 04b5 0A       		.byte	0xa
 1659 04b6 2C       		.byte	0x2c
 1660 04b7 E6040000 		.4byte	0x4e6
 1661 04bb 06       		.uleb128 0x6
 1662 04bc B6000000 		.4byte	.LASF57
 1663 04c0 0A       		.byte	0xa
 1664 04c1 2D       		.byte	0x2d
 1665 04c2 60020000 		.4byte	0x260
 1666 04c6 02       		.byte	0x2
 1667 04c7 23       		.byte	0x23
 1668 04c8 00       		.uleb128 0
 1669 04c9 06       		.uleb128 0x6
 1670 04ca 2C040000 		.4byte	.LASF58
 1671 04ce 0A       		.byte	0xa
 1672 04cf 2F       		.byte	0x2f
 1673 04d0 5A020000 		.4byte	0x25a
 1674 04d4 02       		.byte	0x2
 1675 04d5 23       		.byte	0x23
 1676 04d6 08       		.uleb128 0x8
 1677 04d7 06       		.uleb128 0x6
 1678 04d8 3C030000 		.4byte	.LASF59
 1679 04dc 0A       		.byte	0xa
 1680 04dd 31       		.byte	0x31
 1681 04de E6040000 		.4byte	0x4e6
 1682 04e2 02       		.byte	0x2
 1683 04e3 23       		.byte	0x23
 1684 04e4 0C       		.uleb128 0xc
 1685 04e5 00       		.byte	0
 1686 04e6 09       		.uleb128 0x9
 1687 04e7 04       		.byte	0x4
 1688 04e8 AF040000 		.4byte	0x4af
 1689 04ec 03       		.uleb128 0x3
 1690 04ed 03020000 		.4byte	.LASF56
 1691 04f1 0A       		.byte	0xa
 1692 04f2 33       		.byte	0x33
 1693 04f3 AF040000 		.4byte	0x4af
 1694 04f7 0E       		.uleb128 0xe
 1695 04f8 04       		.byte	0x4
 1696 04f9 07       		.byte	0x7
 1697 04fa 96       		.byte	0x96
 1698 04fb 2C050000 		.4byte	0x52c
 1699 04ff 0F       		.uleb128 0xf
 1700 0500 28000000 		.4byte	.LASF60
 1701 0504 07       		.byte	0x7
 1702 0505 9D       		.byte	0x9d
ARM GAS  C:\Users\jenny\AppData\Local\Temp\ccR8wREU.s 			page 31


 1703 0506 E4000000 		.4byte	0xe4
 1704 050a 0F       		.uleb128 0xf
 1705 050b 3A010000 		.4byte	.LASF61
 1706 050f 07       		.byte	0x7
 1707 0510 A4       		.byte	0xa4
 1708 0511 E4000000 		.4byte	0xe4
 1709 0515 0F       		.uleb128 0xf
 1710 0516 02040000 		.4byte	.LASF62
 1711 051a 07       		.byte	0x7
 1712 051b AB       		.byte	0xab
 1713 051c 98020000 		.4byte	0x298
 1714 0520 0F       		.uleb128 0xf
 1715 0521 DE020000 		.4byte	.LASF63
 1716 0525 07       		.byte	0x7
 1717 0526 B2       		.byte	0xb2
 1718 0527 EF000000 		.4byte	0xef
 1719 052b 00       		.byte	0
 1720 052c 09       		.uleb128 0x9
 1721 052d 04       		.byte	0x4
 1722 052e 32050000 		.4byte	0x532
 1723 0532 10       		.uleb128 0x10
 1724 0533 37050000 		.4byte	0x537
 1725 0537 04       		.uleb128 0x4
 1726 0538 01       		.byte	0x1
 1727 0539 08       		.byte	0x8
 1728 053a 1F030000 		.4byte	.LASF64
 1729 053e 09       		.uleb128 0x9
 1730 053f 04       		.byte	0x4
 1731 0540 EC040000 		.4byte	0x4ec
 1732 0544 03       		.uleb128 0x3
 1733 0545 09020000 		.4byte	.LASF65
 1734 0549 0B       		.byte	0xb
 1735 054a 37       		.byte	0x37
 1736 054b 4F050000 		.4byte	0x54f
 1737 054f 05       		.uleb128 0x5
 1738 0550 09020000 		.4byte	.LASF65
 1739 0554 24       		.byte	0x24
 1740 0555 0B       		.byte	0xb
 1741 0556 45       		.byte	0x45
 1742 0557 CC050000 		.4byte	0x5cc
 1743 055b 06       		.uleb128 0x6
 1744 055c 83000000 		.4byte	.LASF66
 1745 0560 0B       		.byte	0xb
 1746 0561 46       		.byte	0x46
 1747 0562 60020000 		.4byte	0x260
 1748 0566 02       		.byte	0x2
 1749 0567 23       		.byte	0x23
 1750 0568 00       		.uleb128 0
 1751 0569 06       		.uleb128 0x6
 1752 056a 28020000 		.4byte	.LASF67
 1753 056e 0B       		.byte	0xb
 1754 056f 47       		.byte	0x47
 1755 0570 30000000 		.4byte	0x30
 1756 0574 02       		.byte	0x2
 1757 0575 23       		.byte	0x23
 1758 0576 08       		.uleb128 0x8
 1759 0577 06       		.uleb128 0x6
ARM GAS  C:\Users\jenny\AppData\Local\Temp\ccR8wREU.s 			page 32


 1760 0578 16020000 		.4byte	.LASF68
 1761 057c 0B       		.byte	0xb
 1762 057d 48       		.byte	0x48
 1763 057e EF050000 		.4byte	0x5ef
 1764 0582 02       		.byte	0x2
 1765 0583 23       		.byte	0x23
 1766 0584 0C       		.uleb128 0xc
 1767 0585 06       		.uleb128 0x6
 1768 0586 81030000 		.4byte	.LASF69
 1769 058a 0B       		.byte	0xb
 1770 058b 49       		.byte	0x49
 1771 058c EF050000 		.4byte	0x5ef
 1772 0590 02       		.byte	0x2
 1773 0591 23       		.byte	0x23
 1774 0592 10       		.uleb128 0x10
 1775 0593 06       		.uleb128 0x6
 1776 0594 3A020000 		.4byte	.LASF70
 1777 0598 0B       		.byte	0xb
 1778 0599 4B       		.byte	0x4b
 1779 059a EF050000 		.4byte	0x5ef
 1780 059e 02       		.byte	0x2
 1781 059f 23       		.byte	0x23
 1782 05a0 14       		.uleb128 0x14
 1783 05a1 06       		.uleb128 0x6
 1784 05a2 8D020000 		.4byte	.LASF71
 1785 05a6 0B       		.byte	0xb
 1786 05a7 4C       		.byte	0x4c
 1787 05a8 EF050000 		.4byte	0x5ef
 1788 05ac 02       		.byte	0x2
 1789 05ad 23       		.byte	0x23
 1790 05ae 18       		.uleb128 0x18
 1791 05af 06       		.uleb128 0x6
 1792 05b0 98030000 		.4byte	.LASF72
 1793 05b4 0B       		.byte	0xb
 1794 05b5 4D       		.byte	0x4d
 1795 05b6 CC050000 		.4byte	0x5cc
 1796 05ba 02       		.byte	0x2
 1797 05bb 23       		.byte	0x23
 1798 05bc 1C       		.uleb128 0x1c
 1799 05bd 06       		.uleb128 0x6
 1800 05be 25040000 		.4byte	.LASF73
 1801 05c2 0B       		.byte	0xb
 1802 05c3 4E       		.byte	0x4e
 1803 05c4 98020000 		.4byte	0x298
 1804 05c8 02       		.byte	0x2
 1805 05c9 23       		.byte	0x23
 1806 05ca 20       		.uleb128 0x20
 1807 05cb 00       		.byte	0
 1808 05cc 03       		.uleb128 0x3
 1809 05cd 74020000 		.4byte	.LASF74
 1810 05d1 0B       		.byte	0xb
 1811 05d2 3A       		.byte	0x3a
 1812 05d3 D7050000 		.4byte	0x5d7
 1813 05d7 09       		.uleb128 0x9
 1814 05d8 04       		.byte	0x4
 1815 05d9 DD050000 		.4byte	0x5dd
 1816 05dd 11       		.uleb128 0x11
ARM GAS  C:\Users\jenny\AppData\Local\Temp\ccR8wREU.s 			page 33


 1817 05de 01       		.byte	0x1
 1818 05df E9050000 		.4byte	0x5e9
 1819 05e3 12       		.uleb128 0x12
 1820 05e4 E9050000 		.4byte	0x5e9
 1821 05e8 00       		.byte	0
 1822 05e9 09       		.uleb128 0x9
 1823 05ea 04       		.byte	0x4
 1824 05eb 44050000 		.4byte	0x544
 1825 05ef 09       		.uleb128 0x9
 1826 05f0 04       		.byte	0x4
 1827 05f1 49000000 		.4byte	0x49
 1828 05f5 03       		.uleb128 0x3
 1829 05f6 F8010000 		.4byte	.LASF75
 1830 05fa 0B       		.byte	0xb
 1831 05fb 82       		.byte	0x82
 1832 05fc 44050000 		.4byte	0x544
 1833 0600 03       		.uleb128 0x3
 1834 0601 38000000 		.4byte	.LASF76
 1835 0605 0B       		.byte	0xb
 1836 0606 F5       		.byte	0xf5
 1837 0607 44050000 		.4byte	0x544
 1838 060b 09       		.uleb128 0x9
 1839 060c 04       		.byte	0x4
 1840 060d 11060000 		.4byte	0x611
 1841 0611 10       		.uleb128 0x10
 1842 0612 49000000 		.4byte	0x49
 1843 0616 13       		.uleb128 0x13
 1844 0617 0F000000 		.4byte	.LASF95
 1845 061b 02       		.byte	0x2
 1846 061c 34       		.byte	0x34
 1847 061d 01       		.byte	0x1
 1848 061e 03       		.byte	0x3
 1849 061f 39060000 		.4byte	0x639
 1850 0623 14       		.uleb128 0x14
 1851 0624 747000   		.ascii	"tp\000"
 1852 0627 02       		.byte	0x2
 1853 0628 34       		.byte	0x34
 1854 0629 5A020000 		.4byte	0x25a
 1855 062d 14       		.uleb128 0x14
 1856 062e 74717000 		.ascii	"tqp\000"
 1857 0632 02       		.byte	0x2
 1858 0633 34       		.byte	0x34
 1859 0634 39060000 		.4byte	0x639
 1860 0638 00       		.byte	0
 1861 0639 09       		.uleb128 0x9
 1862 063a 04       		.byte	0x4
 1863 063b 60020000 		.4byte	0x260
 1864 063f 15       		.uleb128 0x15
 1865 0640 24030000 		.4byte	.LASF96
 1866 0644 02       		.byte	0x2
 1867 0645 3B       		.byte	0x3b
 1868 0646 01       		.byte	0x1
 1869 0647 5A020000 		.4byte	0x25a
 1870 064b 03       		.byte	0x3
 1871 064c 66060000 		.4byte	0x666
 1872 0650 14       		.uleb128 0x14
 1873 0651 74717000 		.ascii	"tqp\000"
ARM GAS  C:\Users\jenny\AppData\Local\Temp\ccR8wREU.s 			page 34


 1874 0655 02       		.byte	0x2
 1875 0656 3B       		.byte	0x3b
 1876 0657 39060000 		.4byte	0x639
 1877 065b 16       		.uleb128 0x16
 1878 065c 747000   		.ascii	"tp\000"
 1879 065f 02       		.byte	0x2
 1880 0660 3C       		.byte	0x3c
 1881 0661 5A020000 		.4byte	0x25a
 1882 0665 00       		.byte	0
 1883 0666 17       		.uleb128 0x17
 1884 0667 C8000000 		.4byte	.LASF97
 1885 066b 01       		.byte	0x1
 1886 066c 46       		.byte	0x46
 1887 066d 01       		.byte	0x1
 1888 066e E4000000 		.4byte	0xe4
 1889 0672 00000000 		.4byte	.LFB7
 1890 0676 2C000000 		.4byte	.LFE7
 1891 067a 00000000 		.4byte	.LLST0
 1892 067e 01       		.byte	0x1
 1893 067f DE060000 		.4byte	0x6de
 1894 0683 18       		.uleb128 0x18
 1895 0684 717000   		.ascii	"qp\000"
 1896 0687 01       		.byte	0x1
 1897 0688 46       		.byte	0x46
 1898 0689 E9050000 		.4byte	0x5e9
 1899 068d 20000000 		.4byte	.LLST1
 1900 0691 19       		.uleb128 0x19
 1901 0692 55020000 		.4byte	.LASF77
 1902 0696 01       		.byte	0x1
 1903 0697 46       		.byte	0x46
 1904 0698 FA000000 		.4byte	0xfa
 1905 069c 62000000 		.4byte	.LLST2
 1906 06a0 1A       		.uleb128 0x1a
 1907 06a1 16060000 		.4byte	0x616
 1908 06a5 0C000000 		.4byte	.LBB12
 1909 06a9 00000000 		.4byte	.Ldebug_ranges0+0
 1910 06ad 01       		.byte	0x1
 1911 06ae 4B       		.byte	0x4b
 1912 06af C6060000 		.4byte	0x6c6
 1913 06b3 1B       		.uleb128 0x1b
 1914 06b4 2D060000 		.4byte	0x62d
 1915 06b8 8E000000 		.4byte	.LLST3
 1916 06bc 1B       		.uleb128 0x1b
 1917 06bd 23060000 		.4byte	0x623
 1918 06c1 BA000000 		.4byte	.LLST4
 1919 06c5 00       		.byte	0
 1920 06c6 1C       		.uleb128 0x1c
 1921 06c7 1E000000 		.4byte	.LVL3
 1922 06cb 01       		.byte	0x1
 1923 06cc 3B0D0000 		.4byte	0xd3b
 1924 06d0 1D       		.uleb128 0x1d
 1925 06d1 01       		.byte	0x1
 1926 06d2 51       		.byte	0x51
 1927 06d3 03       		.byte	0x3
 1928 06d4 F3       		.byte	0xf3
 1929 06d5 01       		.uleb128 0x1
 1930 06d6 51       		.byte	0x51
ARM GAS  C:\Users\jenny\AppData\Local\Temp\ccR8wREU.s 			page 35


 1931 06d7 1D       		.uleb128 0x1d
 1932 06d8 01       		.byte	0x1
 1933 06d9 50       		.byte	0x50
 1934 06da 01       		.byte	0x1
 1935 06db 3D       		.byte	0x3d
 1936 06dc 00       		.byte	0
 1937 06dd 00       		.byte	0
 1938 06de 1E       		.uleb128 0x1e
 1939 06df 01       		.byte	0x1
 1940 06e0 2F000000 		.4byte	.LASF81
 1941 06e4 01       		.byte	0x1
 1942 06e5 5F       		.byte	0x5f
 1943 06e6 01       		.byte	0x1
 1944 06e7 00000000 		.4byte	.LFB8
 1945 06eb 1E000000 		.4byte	.LFE8
 1946 06ef CD000000 		.4byte	.LLST5
 1947 06f3 01       		.byte	0x1
 1948 06f4 3E070000 		.4byte	0x73e
 1949 06f8 1F       		.uleb128 0x1f
 1950 06f9 69717000 		.ascii	"iqp\000"
 1951 06fd 01       		.byte	0x1
 1952 06fe 5F       		.byte	0x5f
 1953 06ff 3E070000 		.4byte	0x73e
 1954 0703 01       		.byte	0x1
 1955 0704 50       		.byte	0x50
 1956 0705 1F       		.uleb128 0x1f
 1957 0706 627000   		.ascii	"bp\000"
 1958 0709 01       		.byte	0x1
 1959 070a 5F       		.byte	0x5f
 1960 070b EF050000 		.4byte	0x5ef
 1961 070f 01       		.byte	0x1
 1962 0710 51       		.byte	0x51
 1963 0711 19       		.uleb128 0x19
 1964 0712 A3010000 		.4byte	.LASF78
 1965 0716 01       		.byte	0x1
 1966 0717 5F       		.byte	0x5f
 1967 0718 30000000 		.4byte	0x30
 1968 071c ED000000 		.4byte	.LLST6
 1969 0720 19       		.uleb128 0x19
 1970 0721 58030000 		.4byte	.LASF79
 1971 0725 01       		.byte	0x1
 1972 0726 5F       		.byte	0x5f
 1973 0727 CC050000 		.4byte	0x5cc
 1974 072b 0E010000 		.4byte	.LLST7
 1975 072f 20       		.uleb128 0x20
 1976 0730 54010000 		.4byte	.LASF80
 1977 0734 01       		.byte	0x1
 1978 0735 60       		.byte	0x60
 1979 0736 98020000 		.4byte	0x298
 1980 073a 02       		.byte	0x2
 1981 073b 91       		.byte	0x91
 1982 073c 00       		.sleb128 0
 1983 073d 00       		.byte	0
 1984 073e 09       		.uleb128 0x9
 1985 073f 04       		.byte	0x4
 1986 0740 F5050000 		.4byte	0x5f5
 1987 0744 1E       		.uleb128 0x1e
ARM GAS  C:\Users\jenny\AppData\Local\Temp\ccR8wREU.s 			page 36


 1988 0745 01       		.byte	0x1
 1989 0746 7E010000 		.4byte	.LASF82
 1990 074a 01       		.byte	0x1
 1991 074b 75       		.byte	0x75
 1992 074c 01       		.byte	0x1
 1993 074d 00000000 		.4byte	.LFB9
 1994 0751 2C000000 		.4byte	.LFE9
 1995 0755 2D010000 		.4byte	.LLST8
 1996 0759 01       		.byte	0x1
 1997 075a A7070000 		.4byte	0x7a7
 1998 075e 18       		.uleb128 0x18
 1999 075f 69717000 		.ascii	"iqp\000"
 2000 0763 01       		.byte	0x1
 2001 0764 75       		.byte	0x75
 2002 0765 3E070000 		.4byte	0x73e
 2003 0769 4D010000 		.4byte	.LLST9
 2004 076d 21       		.uleb128 0x21
 2005 076e 3F060000 		.4byte	0x63f
 2006 0772 18000000 		.4byte	.LBB16
 2007 0776 1E000000 		.4byte	.LBE16
 2008 077a 01       		.byte	0x1
 2009 077b 7C       		.byte	0x7c
 2010 077c 9D070000 		.4byte	0x79d
 2011 0780 1B       		.uleb128 0x1b
 2012 0781 50060000 		.4byte	0x650
 2013 0785 6B010000 		.4byte	.LLST10
 2014 0789 22       		.uleb128 0x22
 2015 078a 18000000 		.4byte	.LBB17
 2016 078e 1E000000 		.4byte	.LBE17
 2017 0792 23       		.uleb128 0x23
 2018 0793 5B060000 		.4byte	0x65b
 2019 0797 7E010000 		.4byte	.LLST11
 2020 079b 00       		.byte	0
 2021 079c 00       		.byte	0
 2022 079d 24       		.uleb128 0x24
 2023 079e 22000000 		.4byte	.LVL11
 2024 07a2 580D0000 		.4byte	0xd58
 2025 07a6 00       		.byte	0
 2026 07a7 25       		.uleb128 0x25
 2027 07a8 01       		.byte	0x1
 2028 07a9 68010000 		.4byte	.LASF83
 2029 07ad 01       		.byte	0x1
 2030 07ae 8C       		.byte	0x8c
 2031 07af 01       		.byte	0x1
 2032 07b0 E4000000 		.4byte	0xe4
 2033 07b4 00000000 		.4byte	.LFB10
 2034 07b8 4E000000 		.4byte	.LFE10
 2035 07bc 91010000 		.4byte	.LLST12
 2036 07c0 01       		.byte	0x1
 2037 07c1 1B080000 		.4byte	0x81b
 2038 07c5 18       		.uleb128 0x18
 2039 07c6 69717000 		.ascii	"iqp\000"
 2040 07ca 01       		.byte	0x1
 2041 07cb 8C       		.byte	0x8c
 2042 07cc 3E070000 		.4byte	0x73e
 2043 07d0 B1010000 		.4byte	.LLST13
 2044 07d4 18       		.uleb128 0x18
ARM GAS  C:\Users\jenny\AppData\Local\Temp\ccR8wREU.s 			page 37


 2045 07d5 6200     		.ascii	"b\000"
 2046 07d7 01       		.byte	0x1
 2047 07d8 8C       		.byte	0x8c
 2048 07d9 49000000 		.4byte	0x49
 2049 07dd E8010000 		.4byte	.LLST14
 2050 07e1 21       		.uleb128 0x21
 2051 07e2 3F060000 		.4byte	0x63f
 2052 07e6 24000000 		.4byte	.LBB18
 2053 07ea 2A000000 		.4byte	.LBE18
 2054 07ee 01       		.byte	0x1
 2055 07ef 99       		.byte	0x99
 2056 07f0 11080000 		.4byte	0x811
 2057 07f4 1B       		.uleb128 0x1b
 2058 07f5 50060000 		.4byte	0x650
 2059 07f9 2E020000 		.4byte	.LLST15
 2060 07fd 22       		.uleb128 0x22
 2061 07fe 24000000 		.4byte	.LBB19
 2062 0802 2A000000 		.4byte	.LBE19
 2063 0806 23       		.uleb128 0x23
 2064 0807 5B060000 		.4byte	0x65b
 2065 080b 4F020000 		.4byte	.LLST16
 2066 080f 00       		.byte	0
 2067 0810 00       		.byte	0
 2068 0811 24       		.uleb128 0x24
 2069 0812 2E000000 		.4byte	.LVL17
 2070 0816 580D0000 		.4byte	0xd58
 2071 081a 00       		.byte	0
 2072 081b 25       		.uleb128 0x25
 2073 081c 01       		.byte	0x1
 2074 081d 44040000 		.4byte	.LASF84
 2075 0821 01       		.byte	0x1
 2076 0822 B2       		.byte	0xb2
 2077 0823 01       		.byte	0x1
 2078 0824 E4000000 		.4byte	0xe4
 2079 0828 00000000 		.4byte	.LFB11
 2080 082c 48000000 		.4byte	.LFE11
 2081 0830 62020000 		.4byte	.LLST17
 2082 0834 01       		.byte	0x1
 2083 0835 F3080000 		.4byte	0x8f3
 2084 0839 18       		.uleb128 0x18
 2085 083a 69717000 		.ascii	"iqp\000"
 2086 083e 01       		.byte	0x1
 2087 083f B2       		.byte	0xb2
 2088 0840 3E070000 		.4byte	0x73e
 2089 0844 82020000 		.4byte	.LLST18
 2090 0848 19       		.uleb128 0x19
 2091 0849 55020000 		.4byte	.LASF77
 2092 084d 01       		.byte	0x1
 2093 084e B2       		.byte	0xb2
 2094 084f FA000000 		.4byte	0xfa
 2095 0853 CC020000 		.4byte	.LLST19
 2096 0857 26       		.uleb128 0x26
 2097 0858 6200     		.ascii	"b\000"
 2098 085a 01       		.byte	0x1
 2099 085b B3       		.byte	0xb3
 2100 085c 49000000 		.4byte	0x49
 2101 0860 03       		.byte	0x3
ARM GAS  C:\Users\jenny\AppData\Local\Temp\ccR8wREU.s 			page 38


 2102 0861 74       		.byte	0x74
 2103 0862 18       		.sleb128 24
 2104 0863 06       		.byte	0x6
 2105 0864 27       		.uleb128 0x27
 2106 0865 18000000 		.4byte	.Ldebug_ranges0+0x18
 2107 0869 7D080000 		.4byte	0x87d
 2108 086d 28       		.uleb128 0x28
 2109 086e 746D7000 		.ascii	"tmp\000"
 2110 0872 01       		.byte	0x1
 2111 0873 B5       		.byte	0xb5
 2112 0874 7B000000 		.4byte	0x7b
 2113 0878 16030000 		.4byte	.LLST20
 2114 087c 00       		.byte	0
 2115 087d 27       		.uleb128 0x27
 2116 087e 30000000 		.4byte	.Ldebug_ranges0+0x30
 2117 0882 C9080000 		.4byte	0x8c9
 2118 0886 28       		.uleb128 0x28
 2119 0887 6D736700 		.ascii	"msg\000"
 2120 088b 01       		.byte	0x1
 2121 088c BA       		.byte	0xba
 2122 088d E4000000 		.4byte	0xe4
 2123 0891 29030000 		.4byte	.LLST21
 2124 0895 29       		.uleb128 0x29
 2125 0896 22000000 		.4byte	.LBB23
 2126 089a 28000000 		.4byte	.LBE23
 2127 089e B2080000 		.4byte	0x8b2
 2128 08a2 28       		.uleb128 0x28
 2129 08a3 746D7000 		.ascii	"tmp\000"
 2130 08a7 01       		.byte	0x1
 2131 08a8 BC       		.byte	0xbc
 2132 08a9 7B000000 		.4byte	0x7b
 2133 08ad 3C030000 		.4byte	.LLST22
 2134 08b1 00       		.byte	0
 2135 08b2 2A       		.uleb128 0x2a
 2136 08b3 1E000000 		.4byte	.LVL26
 2137 08b7 66060000 		.4byte	0x666
 2138 08bb 1D       		.uleb128 0x1d
 2139 08bc 01       		.byte	0x1
 2140 08bd 51       		.byte	0x51
 2141 08be 02       		.byte	0x2
 2142 08bf 76       		.byte	0x76
 2143 08c0 00       		.sleb128 0
 2144 08c1 1D       		.uleb128 0x1d
 2145 08c2 01       		.byte	0x1
 2146 08c3 50       		.byte	0x50
 2147 08c4 02       		.byte	0x2
 2148 08c5 74       		.byte	0x74
 2149 08c6 00       		.sleb128 0
 2150 08c7 00       		.byte	0
 2151 08c8 00       		.byte	0
 2152 08c9 29       		.uleb128 0x29
 2153 08ca 40000000 		.4byte	.LBB25
 2154 08ce 46000000 		.4byte	.LBE25
 2155 08d2 E6080000 		.4byte	0x8e6
 2156 08d6 28       		.uleb128 0x28
 2157 08d7 746D7000 		.ascii	"tmp\000"
 2158 08db 01       		.byte	0x1
ARM GAS  C:\Users\jenny\AppData\Local\Temp\ccR8wREU.s 			page 39


 2159 08dc C6       		.byte	0xc6
 2160 08dd 7B000000 		.4byte	0x7b
 2161 08e1 4F030000 		.4byte	.LLST23
 2162 08e5 00       		.byte	0
 2163 08e6 2B       		.uleb128 0x2b
 2164 08e7 12000000 		.4byte	.LVL24
 2165 08eb 1D       		.uleb128 0x1d
 2166 08ec 01       		.byte	0x1
 2167 08ed 50       		.byte	0x50
 2168 08ee 02       		.byte	0x2
 2169 08ef 74       		.byte	0x74
 2170 08f0 00       		.sleb128 0
 2171 08f1 00       		.byte	0
 2172 08f2 00       		.byte	0
 2173 08f3 25       		.uleb128 0x25
 2174 08f4 01       		.byte	0x1
 2175 08f5 44000000 		.4byte	.LASF85
 2176 08f9 01       		.byte	0x1
 2177 08fa E2       		.byte	0xe2
 2178 08fb 01       		.byte	0x1
 2179 08fc 30000000 		.4byte	0x30
 2180 0900 00000000 		.4byte	.LFB12
 2181 0904 72000000 		.4byte	.LFE12
 2182 0908 62030000 		.4byte	.LLST24
 2183 090c 01       		.byte	0x1
 2184 090d FB090000 		.4byte	0x9fb
 2185 0911 18       		.uleb128 0x18
 2186 0912 69717000 		.ascii	"iqp\000"
 2187 0916 01       		.byte	0x1
 2188 0917 E2       		.byte	0xe2
 2189 0918 3E070000 		.4byte	0x73e
 2190 091c 82030000 		.4byte	.LLST25
 2191 0920 18       		.uleb128 0x18
 2192 0921 627000   		.ascii	"bp\000"
 2193 0924 01       		.byte	0x1
 2194 0925 E2       		.byte	0xe2
 2195 0926 EF050000 		.4byte	0x5ef
 2196 092a CC030000 		.4byte	.LLST26
 2197 092e 18       		.uleb128 0x18
 2198 092f 6E00     		.ascii	"n\000"
 2199 0931 01       		.byte	0x1
 2200 0932 E3       		.byte	0xe3
 2201 0933 30000000 		.4byte	0x30
 2202 0937 DF030000 		.4byte	.LLST27
 2203 093b 19       		.uleb128 0x19
 2204 093c 55020000 		.4byte	.LASF77
 2205 0940 01       		.byte	0x1
 2206 0941 E3       		.byte	0xe3
 2207 0942 FA000000 		.4byte	0xfa
 2208 0946 F2030000 		.4byte	.LLST28
 2209 094a 26       		.uleb128 0x26
 2210 094b 6E667900 		.ascii	"nfy\000"
 2211 094f 01       		.byte	0x1
 2212 0950 E4       		.byte	0xe4
 2213 0951 CC050000 		.4byte	0x5cc
 2214 0955 01       		.byte	0x1
 2215 0956 57       		.byte	0x57
ARM GAS  C:\Users\jenny\AppData\Local\Temp\ccR8wREU.s 			page 40


 2216 0957 28       		.uleb128 0x28
 2217 0958 7200     		.ascii	"r\000"
 2218 095a 01       		.byte	0x1
 2219 095b E5       		.byte	0xe5
 2220 095c 30000000 		.4byte	0x30
 2221 0960 31040000 		.4byte	.LLST29
 2222 0964 27       		.uleb128 0x27
 2223 0965 48000000 		.4byte	.Ldebug_ranges0+0x48
 2224 0969 7D090000 		.4byte	0x97d
 2225 096d 28       		.uleb128 0x28
 2226 096e 746D7000 		.ascii	"tmp\000"
 2227 0972 01       		.byte	0x1
 2228 0973 E9       		.byte	0xe9
 2229 0974 7B000000 		.4byte	0x7b
 2230 0978 50040000 		.4byte	.LLST30
 2231 097c 00       		.byte	0
 2232 097d 29       		.uleb128 0x29
 2233 097e 32000000 		.4byte	.LBB28
 2234 0982 38000000 		.4byte	.LBE28
 2235 0986 9A090000 		.4byte	0x99a
 2236 098a 28       		.uleb128 0x28
 2237 098b 746D7000 		.ascii	"tmp\000"
 2238 098f 01       		.byte	0x1
 2239 0990 F0       		.byte	0xf0
 2240 0991 7B000000 		.4byte	0x7b
 2241 0995 79040000 		.4byte	.LLST31
 2242 0999 00       		.byte	0
 2243 099a 29       		.uleb128 0x29
 2244 099b 58000000 		.4byte	.LBB29
 2245 099f 5E000000 		.4byte	.LBE29
 2246 09a3 B7090000 		.4byte	0x9b7
 2247 09a7 28       		.uleb128 0x28
 2248 09a8 746D7000 		.ascii	"tmp\000"
 2249 09ac 01       		.byte	0x1
 2250 09ad FA       		.byte	0xfa
 2251 09ae 7B000000 		.4byte	0x7b
 2252 09b2 8C040000 		.4byte	.LLST32
 2253 09b6 00       		.byte	0
 2254 09b7 29       		.uleb128 0x29
 2255 09b8 66000000 		.4byte	.LBB30
 2256 09bc 70000000 		.4byte	.LBE30
 2257 09c0 D4090000 		.4byte	0x9d4
 2258 09c4 28       		.uleb128 0x28
 2259 09c5 746D7000 		.ascii	"tmp\000"
 2260 09c9 01       		.byte	0x1
 2261 09ca FF       		.byte	0xff
 2262 09cb 7B000000 		.4byte	0x7b
 2263 09cf AA040000 		.4byte	.LLST33
 2264 09d3 00       		.byte	0
 2265 09d4 2C       		.uleb128 0x2c
 2266 09d5 22000000 		.4byte	.LVL39
 2267 09d9 E4090000 		.4byte	0x9e4
 2268 09dd 1D       		.uleb128 0x1d
 2269 09de 01       		.byte	0x1
 2270 09df 50       		.byte	0x50
 2271 09e0 02       		.byte	0x2
 2272 09e1 74       		.byte	0x74
ARM GAS  C:\Users\jenny\AppData\Local\Temp\ccR8wREU.s 			page 41


 2273 09e2 00       		.sleb128 0
 2274 09e3 00       		.byte	0
 2275 09e4 2A       		.uleb128 0x2a
 2276 09e5 2E000000 		.4byte	.LVL41
 2277 09e9 66060000 		.4byte	0x666
 2278 09ed 1D       		.uleb128 0x1d
 2279 09ee 01       		.byte	0x1
 2280 09ef 51       		.byte	0x51
 2281 09f0 02       		.byte	0x2
 2282 09f1 76       		.byte	0x76
 2283 09f2 00       		.sleb128 0
 2284 09f3 1D       		.uleb128 0x1d
 2285 09f4 01       		.byte	0x1
 2286 09f5 50       		.byte	0x50
 2287 09f6 02       		.byte	0x2
 2288 09f7 74       		.byte	0x74
 2289 09f8 00       		.sleb128 0
 2290 09f9 00       		.byte	0
 2291 09fa 00       		.byte	0
 2292 09fb 2D       		.uleb128 0x2d
 2293 09fc 01       		.byte	0x1
 2294 09fd 00000000 		.4byte	.LASF86
 2295 0a01 01       		.byte	0x1
 2296 0a02 1301     		.2byte	0x113
 2297 0a04 01       		.byte	0x1
 2298 0a05 00000000 		.4byte	.LFB13
 2299 0a09 1C000000 		.4byte	.LFE13
 2300 0a0d DE040000 		.4byte	.LLST34
 2301 0a11 01       		.byte	0x1
 2302 0a12 5F0A0000 		.4byte	0xa5f
 2303 0a16 2E       		.uleb128 0x2e
 2304 0a17 6F717000 		.ascii	"oqp\000"
 2305 0a1b 01       		.byte	0x1
 2306 0a1c 1301     		.2byte	0x113
 2307 0a1e 5F0A0000 		.4byte	0xa5f
 2308 0a22 01       		.byte	0x1
 2309 0a23 50       		.byte	0x50
 2310 0a24 2E       		.uleb128 0x2e
 2311 0a25 627000   		.ascii	"bp\000"
 2312 0a28 01       		.byte	0x1
 2313 0a29 1301     		.2byte	0x113
 2314 0a2b EF050000 		.4byte	0x5ef
 2315 0a2f 01       		.byte	0x1
 2316 0a30 51       		.byte	0x51
 2317 0a31 2F       		.uleb128 0x2f
 2318 0a32 A3010000 		.4byte	.LASF78
 2319 0a36 01       		.byte	0x1
 2320 0a37 1301     		.2byte	0x113
 2321 0a39 30000000 		.4byte	0x30
 2322 0a3d 01       		.byte	0x1
 2323 0a3e 52       		.byte	0x52
 2324 0a3f 30       		.uleb128 0x30
 2325 0a40 1C000000 		.4byte	.LASF87
 2326 0a44 01       		.byte	0x1
 2327 0a45 1301     		.2byte	0x113
 2328 0a47 CC050000 		.4byte	0x5cc
 2329 0a4b FE040000 		.4byte	.LLST35
ARM GAS  C:\Users\jenny\AppData\Local\Temp\ccR8wREU.s 			page 42


 2330 0a4f 2F       		.uleb128 0x2f
 2331 0a50 54010000 		.4byte	.LASF80
 2332 0a54 01       		.byte	0x1
 2333 0a55 1401     		.2byte	0x114
 2334 0a57 98020000 		.4byte	0x298
 2335 0a5b 02       		.byte	0x2
 2336 0a5c 91       		.byte	0x91
 2337 0a5d 00       		.sleb128 0
 2338 0a5e 00       		.byte	0
 2339 0a5f 09       		.uleb128 0x9
 2340 0a60 04       		.byte	0x4
 2341 0a61 00060000 		.4byte	0x600
 2342 0a65 2D       		.uleb128 0x2d
 2343 0a66 01       		.byte	0x1
 2344 0a67 5D030000 		.4byte	.LASF88
 2345 0a6b 01       		.byte	0x1
 2346 0a6c 2901     		.2byte	0x129
 2347 0a6e 01       		.byte	0x1
 2348 0a6f 00000000 		.4byte	.LFB14
 2349 0a73 2E000000 		.4byte	.LFE14
 2350 0a77 1D050000 		.4byte	.LLST36
 2351 0a7b 01       		.byte	0x1
 2352 0a7c CB0A0000 		.4byte	0xacb
 2353 0a80 31       		.uleb128 0x31
 2354 0a81 6F717000 		.ascii	"oqp\000"
 2355 0a85 01       		.byte	0x1
 2356 0a86 2901     		.2byte	0x129
 2357 0a88 5F0A0000 		.4byte	0xa5f
 2358 0a8c 3D050000 		.4byte	.LLST37
 2359 0a90 32       		.uleb128 0x32
 2360 0a91 3F060000 		.4byte	0x63f
 2361 0a95 1A000000 		.4byte	.LBB31
 2362 0a99 20000000 		.4byte	.LBE31
 2363 0a9d 01       		.byte	0x1
 2364 0a9e 3001     		.2byte	0x130
 2365 0aa0 C10A0000 		.4byte	0xac1
 2366 0aa4 1B       		.uleb128 0x1b
 2367 0aa5 50060000 		.4byte	0x650
 2368 0aa9 5B050000 		.4byte	.LLST38
 2369 0aad 22       		.uleb128 0x22
 2370 0aae 1A000000 		.4byte	.LBB32
 2371 0ab2 20000000 		.4byte	.LBE32
 2372 0ab6 23       		.uleb128 0x23
 2373 0ab7 5B060000 		.4byte	0x65b
 2374 0abb 6E050000 		.4byte	.LLST39
 2375 0abf 00       		.byte	0
 2376 0ac0 00       		.byte	0
 2377 0ac1 24       		.uleb128 0x24
 2378 0ac2 24000000 		.4byte	.LVL56
 2379 0ac6 580D0000 		.4byte	0xd58
 2380 0aca 00       		.byte	0
 2381 0acb 33       		.uleb128 0x33
 2382 0acc 01       		.byte	0x1
 2383 0acd 59010000 		.4byte	.LASF89
 2384 0ad1 01       		.byte	0x1
 2385 0ad2 4901     		.2byte	0x149
 2386 0ad4 01       		.byte	0x1
ARM GAS  C:\Users\jenny\AppData\Local\Temp\ccR8wREU.s 			page 43


 2387 0ad5 E4000000 		.4byte	0xe4
 2388 0ad9 00000000 		.4byte	.LFB15
 2389 0add 50000000 		.4byte	.LFE15
 2390 0ae1 81050000 		.4byte	.LLST40
 2391 0ae5 01       		.byte	0x1
 2392 0ae6 AF0B0000 		.4byte	0xbaf
 2393 0aea 31       		.uleb128 0x31
 2394 0aeb 6F717000 		.ascii	"oqp\000"
 2395 0aef 01       		.byte	0x1
 2396 0af0 4901     		.2byte	0x149
 2397 0af2 5F0A0000 		.4byte	0xa5f
 2398 0af6 A1050000 		.4byte	.LLST41
 2399 0afa 31       		.uleb128 0x31
 2400 0afb 6200     		.ascii	"b\000"
 2401 0afd 01       		.byte	0x1
 2402 0afe 4901     		.2byte	0x149
 2403 0b00 49000000 		.4byte	0x49
 2404 0b04 EB050000 		.4byte	.LLST42
 2405 0b08 30       		.uleb128 0x30
 2406 0b09 55020000 		.4byte	.LASF77
 2407 0b0d 01       		.byte	0x1
 2408 0b0e 4901     		.2byte	0x149
 2409 0b10 FA000000 		.4byte	0xfa
 2410 0b14 0C060000 		.4byte	.LLST43
 2411 0b18 29       		.uleb128 0x29
 2412 0b19 08000000 		.4byte	.LBB33
 2413 0b1d 0E000000 		.4byte	.LBE33
 2414 0b21 360B0000 		.4byte	0xb36
 2415 0b25 34       		.uleb128 0x34
 2416 0b26 746D7000 		.ascii	"tmp\000"
 2417 0b2a 01       		.byte	0x1
 2418 0b2b 4B01     		.2byte	0x14b
 2419 0b2d 7B000000 		.4byte	0x7b
 2420 0b31 56060000 		.4byte	.LLST44
 2421 0b35 00       		.byte	0
 2422 0b36 27       		.uleb128 0x27
 2423 0b37 60000000 		.4byte	.Ldebug_ranges0+0x60
 2424 0b3b 840B0000 		.4byte	0xb84
 2425 0b3f 34       		.uleb128 0x34
 2426 0b40 6D736700 		.ascii	"msg\000"
 2427 0b44 01       		.byte	0x1
 2428 0b45 4D01     		.2byte	0x14d
 2429 0b47 E4000000 		.4byte	0xe4
 2430 0b4b 74060000 		.4byte	.LLST45
 2431 0b4f 29       		.uleb128 0x29
 2432 0b50 1E000000 		.4byte	.LBB35
 2433 0b54 24000000 		.4byte	.LBE35
 2434 0b58 6D0B0000 		.4byte	0xb6d
 2435 0b5c 34       		.uleb128 0x34
 2436 0b5d 746D7000 		.ascii	"tmp\000"
 2437 0b61 01       		.byte	0x1
 2438 0b62 5001     		.2byte	0x150
 2439 0b64 7B000000 		.4byte	0x7b
 2440 0b68 87060000 		.4byte	.LLST46
 2441 0b6c 00       		.byte	0
 2442 0b6d 2A       		.uleb128 0x2a
 2443 0b6e 1A000000 		.4byte	.LVL62
ARM GAS  C:\Users\jenny\AppData\Local\Temp\ccR8wREU.s 			page 44


 2444 0b72 66060000 		.4byte	0x666
 2445 0b76 1D       		.uleb128 0x1d
 2446 0b77 01       		.byte	0x1
 2447 0b78 51       		.byte	0x51
 2448 0b79 02       		.byte	0x2
 2449 0b7a 76       		.byte	0x76
 2450 0b7b 00       		.sleb128 0
 2451 0b7c 1D       		.uleb128 0x1d
 2452 0b7d 01       		.byte	0x1
 2453 0b7e 50       		.byte	0x50
 2454 0b7f 02       		.byte	0x2
 2455 0b80 74       		.byte	0x74
 2456 0b81 00       		.sleb128 0
 2457 0b82 00       		.byte	0
 2458 0b83 00       		.byte	0
 2459 0b84 29       		.uleb128 0x29
 2460 0b85 46000000 		.4byte	.LBB37
 2461 0b89 4C000000 		.4byte	.LBE37
 2462 0b8d A20B0000 		.4byte	0xba2
 2463 0b91 34       		.uleb128 0x34
 2464 0b92 746D7000 		.ascii	"tmp\000"
 2465 0b96 01       		.byte	0x1
 2466 0b97 5D01     		.2byte	0x15d
 2467 0b99 7B000000 		.4byte	0x7b
 2468 0b9d 9A060000 		.4byte	.LLST47
 2469 0ba1 00       		.byte	0
 2470 0ba2 2B       		.uleb128 0x2b
 2471 0ba3 46000000 		.4byte	.LVL69
 2472 0ba7 1D       		.uleb128 0x1d
 2473 0ba8 01       		.byte	0x1
 2474 0ba9 50       		.byte	0x50
 2475 0baa 02       		.byte	0x2
 2476 0bab 74       		.byte	0x74
 2477 0bac 00       		.sleb128 0
 2478 0bad 00       		.byte	0
 2479 0bae 00       		.byte	0
 2480 0baf 33       		.uleb128 0x33
 2481 0bb0 01       		.byte	0x1
 2482 0bb1 29010000 		.4byte	.LASF90
 2483 0bb5 01       		.byte	0x1
 2484 0bb6 6B01     		.2byte	0x16b
 2485 0bb8 01       		.byte	0x1
 2486 0bb9 E4000000 		.4byte	0xe4
 2487 0bbd 00000000 		.4byte	.LFB16
 2488 0bc1 46000000 		.4byte	.LFE16
 2489 0bc5 AD060000 		.4byte	.LLST48
 2490 0bc9 01       		.byte	0x1
 2491 0bca 270C0000 		.4byte	0xc27
 2492 0bce 31       		.uleb128 0x31
 2493 0bcf 6F717000 		.ascii	"oqp\000"
 2494 0bd3 01       		.byte	0x1
 2495 0bd4 6B01     		.2byte	0x16b
 2496 0bd6 5F0A0000 		.4byte	0xa5f
 2497 0bda CD060000 		.4byte	.LLST49
 2498 0bde 34       		.uleb128 0x34
 2499 0bdf 6200     		.ascii	"b\000"
 2500 0be1 01       		.byte	0x1
ARM GAS  C:\Users\jenny\AppData\Local\Temp\ccR8wREU.s 			page 45


 2501 0be2 6C01     		.2byte	0x16c
 2502 0be4 49000000 		.4byte	0x49
 2503 0be8 04070000 		.4byte	.LLST50
 2504 0bec 32       		.uleb128 0x32
 2505 0bed 3F060000 		.4byte	0x63f
 2506 0bf1 24000000 		.4byte	.LBB38
 2507 0bf5 2A000000 		.4byte	.LBE38
 2508 0bf9 01       		.byte	0x1
 2509 0bfa 7901     		.2byte	0x179
 2510 0bfc 1D0C0000 		.4byte	0xc1d
 2511 0c00 1B       		.uleb128 0x1b
 2512 0c01 50060000 		.4byte	0x650
 2513 0c05 31070000 		.4byte	.LLST51
 2514 0c09 22       		.uleb128 0x22
 2515 0c0a 24000000 		.4byte	.LBB39
 2516 0c0e 2A000000 		.4byte	.LBE39
 2517 0c12 23       		.uleb128 0x23
 2518 0c13 5B060000 		.4byte	0x65b
 2519 0c17 52070000 		.4byte	.LLST52
 2520 0c1b 00       		.byte	0
 2521 0c1c 00       		.byte	0
 2522 0c1d 24       		.uleb128 0x24
 2523 0c1e 2E000000 		.4byte	.LVL76
 2524 0c22 580D0000 		.4byte	0xd58
 2525 0c26 00       		.byte	0
 2526 0c27 35       		.uleb128 0x35
 2527 0c28 01       		.byte	0x1
 2528 0c29 6B000000 		.4byte	.LASF91
 2529 0c2d 01       		.byte	0x1
 2530 0c2e 9601     		.2byte	0x196
 2531 0c30 01       		.byte	0x1
 2532 0c31 30000000 		.4byte	0x30
 2533 0c35 00000000 		.4byte	.LFB17
 2534 0c39 74000000 		.4byte	.LFE17
 2535 0c3d 65070000 		.4byte	.LLST53
 2536 0c41 01       		.byte	0x1
 2537 0c42 2E0D0000 		.4byte	0xd2e
 2538 0c46 31       		.uleb128 0x31
 2539 0c47 6F717000 		.ascii	"oqp\000"
 2540 0c4b 01       		.byte	0x1
 2541 0c4c 9601     		.2byte	0x196
 2542 0c4e 5F0A0000 		.4byte	0xa5f
 2543 0c52 85070000 		.4byte	.LLST54
 2544 0c56 31       		.uleb128 0x31
 2545 0c57 627000   		.ascii	"bp\000"
 2546 0c5a 01       		.byte	0x1
 2547 0c5b 9601     		.2byte	0x196
 2548 0c5d 0B060000 		.4byte	0x60b
 2549 0c61 CF070000 		.4byte	.LLST55
 2550 0c65 31       		.uleb128 0x31
 2551 0c66 6E00     		.ascii	"n\000"
 2552 0c68 01       		.byte	0x1
 2553 0c69 9701     		.2byte	0x197
 2554 0c6b 30000000 		.4byte	0x30
 2555 0c6f 05080000 		.4byte	.LLST56
 2556 0c73 30       		.uleb128 0x30
 2557 0c74 55020000 		.4byte	.LASF77
ARM GAS  C:\Users\jenny\AppData\Local\Temp\ccR8wREU.s 			page 46


 2558 0c78 01       		.byte	0x1
 2559 0c79 9701     		.2byte	0x197
 2560 0c7b FA000000 		.4byte	0xfa
 2561 0c7f 3B080000 		.4byte	.LLST57
 2562 0c83 36       		.uleb128 0x36
 2563 0c84 6E667900 		.ascii	"nfy\000"
 2564 0c88 01       		.byte	0x1
 2565 0c89 9801     		.2byte	0x198
 2566 0c8b CC050000 		.4byte	0x5cc
 2567 0c8f 01       		.byte	0x1
 2568 0c90 59       		.byte	0x59
 2569 0c91 34       		.uleb128 0x34
 2570 0c92 7700     		.ascii	"w\000"
 2571 0c94 01       		.byte	0x1
 2572 0c95 9901     		.2byte	0x199
 2573 0c97 30000000 		.4byte	0x30
 2574 0c9b 59080000 		.4byte	.LLST58
 2575 0c9f 29       		.uleb128 0x29
 2576 0ca0 10000000 		.4byte	.LBB40
 2577 0ca4 18000000 		.4byte	.LBE40
 2578 0ca8 BD0C0000 		.4byte	0xcbd
 2579 0cac 34       		.uleb128 0x34
 2580 0cad 746D7000 		.ascii	"tmp\000"
 2581 0cb1 01       		.byte	0x1
 2582 0cb2 9D01     		.2byte	0x19d
 2583 0cb4 7B000000 		.4byte	0x7b
 2584 0cb8 78080000 		.4byte	.LLST59
 2585 0cbc 00       		.byte	0
 2586 0cbd 29       		.uleb128 0x29
 2587 0cbe 40000000 		.4byte	.LBB41
 2588 0cc2 46000000 		.4byte	.LBE41
 2589 0cc6 DB0C0000 		.4byte	0xcdb
 2590 0cca 34       		.uleb128 0x34
 2591 0ccb 746D7000 		.ascii	"tmp\000"
 2592 0ccf 01       		.byte	0x1
 2593 0cd0 AD01     		.2byte	0x1ad
 2594 0cd2 7B000000 		.4byte	0x7b
 2595 0cd6 8B080000 		.4byte	.LLST60
 2596 0cda 00       		.byte	0
 2597 0cdb 29       		.uleb128 0x29
 2598 0cdc 4C000000 		.4byte	.LBB42
 2599 0ce0 52000000 		.4byte	.LBE42
 2600 0ce4 F90C0000 		.4byte	0xcf9
 2601 0ce8 34       		.uleb128 0x34
 2602 0ce9 746D7000 		.ascii	"tmp\000"
 2603 0ced 01       		.byte	0x1
 2604 0cee B101     		.2byte	0x1b1
 2605 0cf0 7B000000 		.4byte	0x7b
 2606 0cf4 A9080000 		.4byte	.LLST61
 2607 0cf8 00       		.byte	0
 2608 0cf9 29       		.uleb128 0x29
 2609 0cfa 68000000 		.4byte	.LBB43
 2610 0cfe 6E000000 		.4byte	.LBE43
 2611 0d02 170D0000 		.4byte	0xd17
 2612 0d06 34       		.uleb128 0x34
 2613 0d07 746D7000 		.ascii	"tmp\000"
 2614 0d0b 01       		.byte	0x1
ARM GAS  C:\Users\jenny\AppData\Local\Temp\ccR8wREU.s 			page 47


 2615 0d0c A101     		.2byte	0x1a1
 2616 0d0e 7B000000 		.4byte	0x7b
 2617 0d12 BC080000 		.4byte	.LLST62
 2618 0d16 00       		.byte	0
 2619 0d17 2A       		.uleb128 0x2a
 2620 0d18 64000000 		.4byte	.LVL99
 2621 0d1c 66060000 		.4byte	0x666
 2622 0d20 1D       		.uleb128 0x1d
 2623 0d21 01       		.byte	0x1
 2624 0d22 51       		.byte	0x51
 2625 0d23 02       		.byte	0x2
 2626 0d24 7A       		.byte	0x7a
 2627 0d25 00       		.sleb128 0
 2628 0d26 1D       		.uleb128 0x1d
 2629 0d27 01       		.byte	0x1
 2630 0d28 50       		.byte	0x50
 2631 0d29 02       		.byte	0x2
 2632 0d2a 74       		.byte	0x74
 2633 0d2b 00       		.sleb128 0
 2634 0d2c 00       		.byte	0
 2635 0d2d 00       		.byte	0
 2636 0d2e 37       		.uleb128 0x37
 2637 0d2f A1030000 		.4byte	.LASF98
 2638 0d33 09       		.byte	0x9
 2639 0d34 6F       		.byte	0x6f
 2640 0d35 A4040000 		.4byte	0x4a4
 2641 0d39 01       		.byte	0x1
 2642 0d3a 01       		.byte	0x1
 2643 0d3b 38       		.uleb128 0x38
 2644 0d3c 01       		.byte	0x1
 2645 0d3d 10040000 		.4byte	.LASF99
 2646 0d41 09       		.byte	0x9
 2647 0d42 96       		.byte	0x96
 2648 0d43 01       		.byte	0x1
 2649 0d44 E4000000 		.4byte	0xe4
 2650 0d48 01       		.byte	0x1
 2651 0d49 580D0000 		.4byte	0xd58
 2652 0d4d 12       		.uleb128 0x12
 2653 0d4e B8000000 		.4byte	0xb8
 2654 0d52 12       		.uleb128 0x12
 2655 0d53 FA000000 		.4byte	0xfa
 2656 0d57 00       		.byte	0
 2657 0d58 39       		.uleb128 0x39
 2658 0d59 01       		.byte	0x1
 2659 0d5a 30030000 		.4byte	.LASF100
 2660 0d5e 09       		.byte	0x9
 2661 0d5f 90       		.byte	0x90
 2662 0d60 01       		.byte	0x1
 2663 0d61 5A020000 		.4byte	0x25a
 2664 0d65 01       		.byte	0x1
 2665 0d66 12       		.uleb128 0x12
 2666 0d67 5A020000 		.4byte	0x25a
 2667 0d6b 00       		.byte	0
 2668 0d6c 00       		.byte	0
 2669              		.section	.debug_abbrev,"",%progbits
 2670              	.Ldebug_abbrev0:
 2671 0000 01       		.uleb128 0x1
ARM GAS  C:\Users\jenny\AppData\Local\Temp\ccR8wREU.s 			page 48


 2672 0001 11       		.uleb128 0x11
 2673 0002 01       		.byte	0x1
 2674 0003 25       		.uleb128 0x25
 2675 0004 0E       		.uleb128 0xe
 2676 0005 13       		.uleb128 0x13
 2677 0006 0B       		.uleb128 0xb
 2678 0007 03       		.uleb128 0x3
 2679 0008 0E       		.uleb128 0xe
 2680 0009 1B       		.uleb128 0x1b
 2681 000a 0E       		.uleb128 0xe
 2682 000b 55       		.uleb128 0x55
 2683 000c 06       		.uleb128 0x6
 2684 000d 11       		.uleb128 0x11
 2685 000e 01       		.uleb128 0x1
 2686 000f 52       		.uleb128 0x52
 2687 0010 01       		.uleb128 0x1
 2688 0011 10       		.uleb128 0x10
 2689 0012 06       		.uleb128 0x6
 2690 0013 00       		.byte	0
 2691 0014 00       		.byte	0
 2692 0015 02       		.uleb128 0x2
 2693 0016 24       		.uleb128 0x24
 2694 0017 00       		.byte	0
 2695 0018 0B       		.uleb128 0xb
 2696 0019 0B       		.uleb128 0xb
 2697 001a 3E       		.uleb128 0x3e
 2698 001b 0B       		.uleb128 0xb
 2699 001c 03       		.uleb128 0x3
 2700 001d 08       		.uleb128 0x8
 2701 001e 00       		.byte	0
 2702 001f 00       		.byte	0
 2703 0020 03       		.uleb128 0x3
 2704 0021 16       		.uleb128 0x16
 2705 0022 00       		.byte	0
 2706 0023 03       		.uleb128 0x3
 2707 0024 0E       		.uleb128 0xe
 2708 0025 3A       		.uleb128 0x3a
 2709 0026 0B       		.uleb128 0xb
 2710 0027 3B       		.uleb128 0x3b
 2711 0028 0B       		.uleb128 0xb
 2712 0029 49       		.uleb128 0x49
 2713 002a 13       		.uleb128 0x13
 2714 002b 00       		.byte	0
 2715 002c 00       		.byte	0
 2716 002d 04       		.uleb128 0x4
 2717 002e 24       		.uleb128 0x24
 2718 002f 00       		.byte	0
 2719 0030 0B       		.uleb128 0xb
 2720 0031 0B       		.uleb128 0xb
 2721 0032 3E       		.uleb128 0x3e
 2722 0033 0B       		.uleb128 0xb
 2723 0034 03       		.uleb128 0x3
 2724 0035 0E       		.uleb128 0xe
 2725 0036 00       		.byte	0
 2726 0037 00       		.byte	0
 2727 0038 05       		.uleb128 0x5
 2728 0039 13       		.uleb128 0x13
ARM GAS  C:\Users\jenny\AppData\Local\Temp\ccR8wREU.s 			page 49


 2729 003a 01       		.byte	0x1
 2730 003b 03       		.uleb128 0x3
 2731 003c 0E       		.uleb128 0xe
 2732 003d 0B       		.uleb128 0xb
 2733 003e 0B       		.uleb128 0xb
 2734 003f 3A       		.uleb128 0x3a
 2735 0040 0B       		.uleb128 0xb
 2736 0041 3B       		.uleb128 0x3b
 2737 0042 0B       		.uleb128 0xb
 2738 0043 01       		.uleb128 0x1
 2739 0044 13       		.uleb128 0x13
 2740 0045 00       		.byte	0
 2741 0046 00       		.byte	0
 2742 0047 06       		.uleb128 0x6
 2743 0048 0D       		.uleb128 0xd
 2744 0049 00       		.byte	0
 2745 004a 03       		.uleb128 0x3
 2746 004b 0E       		.uleb128 0xe
 2747 004c 3A       		.uleb128 0x3a
 2748 004d 0B       		.uleb128 0xb
 2749 004e 3B       		.uleb128 0x3b
 2750 004f 0B       		.uleb128 0xb
 2751 0050 49       		.uleb128 0x49
 2752 0051 13       		.uleb128 0x13
 2753 0052 38       		.uleb128 0x38
 2754 0053 0A       		.uleb128 0xa
 2755 0054 00       		.byte	0
 2756 0055 00       		.byte	0
 2757 0056 07       		.uleb128 0x7
 2758 0057 0D       		.uleb128 0xd
 2759 0058 00       		.byte	0
 2760 0059 03       		.uleb128 0x3
 2761 005a 08       		.uleb128 0x8
 2762 005b 3A       		.uleb128 0x3a
 2763 005c 0B       		.uleb128 0xb
 2764 005d 3B       		.uleb128 0x3b
 2765 005e 0B       		.uleb128 0xb
 2766 005f 49       		.uleb128 0x49
 2767 0060 13       		.uleb128 0x13
 2768 0061 38       		.uleb128 0x38
 2769 0062 0A       		.uleb128 0xa
 2770 0063 00       		.byte	0
 2771 0064 00       		.byte	0
 2772 0065 08       		.uleb128 0x8
 2773 0066 13       		.uleb128 0x13
 2774 0067 01       		.byte	0x1
 2775 0068 0B       		.uleb128 0xb
 2776 0069 0B       		.uleb128 0xb
 2777 006a 3A       		.uleb128 0x3a
 2778 006b 0B       		.uleb128 0xb
 2779 006c 3B       		.uleb128 0x3b
 2780 006d 0B       		.uleb128 0xb
 2781 006e 01       		.uleb128 0x1
 2782 006f 13       		.uleb128 0x13
 2783 0070 00       		.byte	0
 2784 0071 00       		.byte	0
 2785 0072 09       		.uleb128 0x9
ARM GAS  C:\Users\jenny\AppData\Local\Temp\ccR8wREU.s 			page 50


 2786 0073 0F       		.uleb128 0xf
 2787 0074 00       		.byte	0
 2788 0075 0B       		.uleb128 0xb
 2789 0076 0B       		.uleb128 0xb
 2790 0077 49       		.uleb128 0x49
 2791 0078 13       		.uleb128 0x13
 2792 0079 00       		.byte	0
 2793 007a 00       		.byte	0
 2794 007b 0A       		.uleb128 0xa
 2795 007c 0F       		.uleb128 0xf
 2796 007d 00       		.byte	0
 2797 007e 0B       		.uleb128 0xb
 2798 007f 0B       		.uleb128 0xb
 2799 0080 00       		.byte	0
 2800 0081 00       		.byte	0
 2801 0082 0B       		.uleb128 0xb
 2802 0083 13       		.uleb128 0x13
 2803 0084 01       		.byte	0x1
 2804 0085 03       		.uleb128 0x3
 2805 0086 0E       		.uleb128 0xe
 2806 0087 0B       		.uleb128 0xb
 2807 0088 0B       		.uleb128 0xb
 2808 0089 3A       		.uleb128 0x3a
 2809 008a 0B       		.uleb128 0xb
 2810 008b 3B       		.uleb128 0x3b
 2811 008c 05       		.uleb128 0x5
 2812 008d 01       		.uleb128 0x1
 2813 008e 13       		.uleb128 0x13
 2814 008f 00       		.byte	0
 2815 0090 00       		.byte	0
 2816 0091 0C       		.uleb128 0xc
 2817 0092 0D       		.uleb128 0xd
 2818 0093 00       		.byte	0
 2819 0094 03       		.uleb128 0x3
 2820 0095 08       		.uleb128 0x8
 2821 0096 3A       		.uleb128 0x3a
 2822 0097 0B       		.uleb128 0xb
 2823 0098 3B       		.uleb128 0x3b
 2824 0099 05       		.uleb128 0x5
 2825 009a 49       		.uleb128 0x49
 2826 009b 13       		.uleb128 0x13
 2827 009c 38       		.uleb128 0x38
 2828 009d 0A       		.uleb128 0xa
 2829 009e 00       		.byte	0
 2830 009f 00       		.byte	0
 2831 00a0 0D       		.uleb128 0xd
 2832 00a1 35       		.uleb128 0x35
 2833 00a2 00       		.byte	0
 2834 00a3 49       		.uleb128 0x49
 2835 00a4 13       		.uleb128 0x13
 2836 00a5 00       		.byte	0
 2837 00a6 00       		.byte	0
 2838 00a7 0E       		.uleb128 0xe
 2839 00a8 17       		.uleb128 0x17
 2840 00a9 01       		.byte	0x1
 2841 00aa 0B       		.uleb128 0xb
 2842 00ab 0B       		.uleb128 0xb
ARM GAS  C:\Users\jenny\AppData\Local\Temp\ccR8wREU.s 			page 51


 2843 00ac 3A       		.uleb128 0x3a
 2844 00ad 0B       		.uleb128 0xb
 2845 00ae 3B       		.uleb128 0x3b
 2846 00af 0B       		.uleb128 0xb
 2847 00b0 01       		.uleb128 0x1
 2848 00b1 13       		.uleb128 0x13
 2849 00b2 00       		.byte	0
 2850 00b3 00       		.byte	0
 2851 00b4 0F       		.uleb128 0xf
 2852 00b5 0D       		.uleb128 0xd
 2853 00b6 00       		.byte	0
 2854 00b7 03       		.uleb128 0x3
 2855 00b8 0E       		.uleb128 0xe
 2856 00b9 3A       		.uleb128 0x3a
 2857 00ba 0B       		.uleb128 0xb
 2858 00bb 3B       		.uleb128 0x3b
 2859 00bc 0B       		.uleb128 0xb
 2860 00bd 49       		.uleb128 0x49
 2861 00be 13       		.uleb128 0x13
 2862 00bf 00       		.byte	0
 2863 00c0 00       		.byte	0
 2864 00c1 10       		.uleb128 0x10
 2865 00c2 26       		.uleb128 0x26
 2866 00c3 00       		.byte	0
 2867 00c4 49       		.uleb128 0x49
 2868 00c5 13       		.uleb128 0x13
 2869 00c6 00       		.byte	0
 2870 00c7 00       		.byte	0
 2871 00c8 11       		.uleb128 0x11
 2872 00c9 15       		.uleb128 0x15
 2873 00ca 01       		.byte	0x1
 2874 00cb 27       		.uleb128 0x27
 2875 00cc 0C       		.uleb128 0xc
 2876 00cd 01       		.uleb128 0x1
 2877 00ce 13       		.uleb128 0x13
 2878 00cf 00       		.byte	0
 2879 00d0 00       		.byte	0
 2880 00d1 12       		.uleb128 0x12
 2881 00d2 05       		.uleb128 0x5
 2882 00d3 00       		.byte	0
 2883 00d4 49       		.uleb128 0x49
 2884 00d5 13       		.uleb128 0x13
 2885 00d6 00       		.byte	0
 2886 00d7 00       		.byte	0
 2887 00d8 13       		.uleb128 0x13
 2888 00d9 2E       		.uleb128 0x2e
 2889 00da 01       		.byte	0x1
 2890 00db 03       		.uleb128 0x3
 2891 00dc 0E       		.uleb128 0xe
 2892 00dd 3A       		.uleb128 0x3a
 2893 00de 0B       		.uleb128 0xb
 2894 00df 3B       		.uleb128 0x3b
 2895 00e0 0B       		.uleb128 0xb
 2896 00e1 27       		.uleb128 0x27
 2897 00e2 0C       		.uleb128 0xc
 2898 00e3 20       		.uleb128 0x20
 2899 00e4 0B       		.uleb128 0xb
ARM GAS  C:\Users\jenny\AppData\Local\Temp\ccR8wREU.s 			page 52


 2900 00e5 01       		.uleb128 0x1
 2901 00e6 13       		.uleb128 0x13
 2902 00e7 00       		.byte	0
 2903 00e8 00       		.byte	0
 2904 00e9 14       		.uleb128 0x14
 2905 00ea 05       		.uleb128 0x5
 2906 00eb 00       		.byte	0
 2907 00ec 03       		.uleb128 0x3
 2908 00ed 08       		.uleb128 0x8
 2909 00ee 3A       		.uleb128 0x3a
 2910 00ef 0B       		.uleb128 0xb
 2911 00f0 3B       		.uleb128 0x3b
 2912 00f1 0B       		.uleb128 0xb
 2913 00f2 49       		.uleb128 0x49
 2914 00f3 13       		.uleb128 0x13
 2915 00f4 00       		.byte	0
 2916 00f5 00       		.byte	0
 2917 00f6 15       		.uleb128 0x15
 2918 00f7 2E       		.uleb128 0x2e
 2919 00f8 01       		.byte	0x1
 2920 00f9 03       		.uleb128 0x3
 2921 00fa 0E       		.uleb128 0xe
 2922 00fb 3A       		.uleb128 0x3a
 2923 00fc 0B       		.uleb128 0xb
 2924 00fd 3B       		.uleb128 0x3b
 2925 00fe 0B       		.uleb128 0xb
 2926 00ff 27       		.uleb128 0x27
 2927 0100 0C       		.uleb128 0xc
 2928 0101 49       		.uleb128 0x49
 2929 0102 13       		.uleb128 0x13
 2930 0103 20       		.uleb128 0x20
 2931 0104 0B       		.uleb128 0xb
 2932 0105 01       		.uleb128 0x1
 2933 0106 13       		.uleb128 0x13
 2934 0107 00       		.byte	0
 2935 0108 00       		.byte	0
 2936 0109 16       		.uleb128 0x16
 2937 010a 34       		.uleb128 0x34
 2938 010b 00       		.byte	0
 2939 010c 03       		.uleb128 0x3
 2940 010d 08       		.uleb128 0x8
 2941 010e 3A       		.uleb128 0x3a
 2942 010f 0B       		.uleb128 0xb
 2943 0110 3B       		.uleb128 0x3b
 2944 0111 0B       		.uleb128 0xb
 2945 0112 49       		.uleb128 0x49
 2946 0113 13       		.uleb128 0x13
 2947 0114 00       		.byte	0
 2948 0115 00       		.byte	0
 2949 0116 17       		.uleb128 0x17
 2950 0117 2E       		.uleb128 0x2e
 2951 0118 01       		.byte	0x1
 2952 0119 03       		.uleb128 0x3
 2953 011a 0E       		.uleb128 0xe
 2954 011b 3A       		.uleb128 0x3a
 2955 011c 0B       		.uleb128 0xb
 2956 011d 3B       		.uleb128 0x3b
ARM GAS  C:\Users\jenny\AppData\Local\Temp\ccR8wREU.s 			page 53


 2957 011e 0B       		.uleb128 0xb
 2958 011f 27       		.uleb128 0x27
 2959 0120 0C       		.uleb128 0xc
 2960 0121 49       		.uleb128 0x49
 2961 0122 13       		.uleb128 0x13
 2962 0123 11       		.uleb128 0x11
 2963 0124 01       		.uleb128 0x1
 2964 0125 12       		.uleb128 0x12
 2965 0126 01       		.uleb128 0x1
 2966 0127 40       		.uleb128 0x40
 2967 0128 06       		.uleb128 0x6
 2968 0129 9742     		.uleb128 0x2117
 2969 012b 0C       		.uleb128 0xc
 2970 012c 01       		.uleb128 0x1
 2971 012d 13       		.uleb128 0x13
 2972 012e 00       		.byte	0
 2973 012f 00       		.byte	0
 2974 0130 18       		.uleb128 0x18
 2975 0131 05       		.uleb128 0x5
 2976 0132 00       		.byte	0
 2977 0133 03       		.uleb128 0x3
 2978 0134 08       		.uleb128 0x8
 2979 0135 3A       		.uleb128 0x3a
 2980 0136 0B       		.uleb128 0xb
 2981 0137 3B       		.uleb128 0x3b
 2982 0138 0B       		.uleb128 0xb
 2983 0139 49       		.uleb128 0x49
 2984 013a 13       		.uleb128 0x13
 2985 013b 02       		.uleb128 0x2
 2986 013c 06       		.uleb128 0x6
 2987 013d 00       		.byte	0
 2988 013e 00       		.byte	0
 2989 013f 19       		.uleb128 0x19
 2990 0140 05       		.uleb128 0x5
 2991 0141 00       		.byte	0
 2992 0142 03       		.uleb128 0x3
 2993 0143 0E       		.uleb128 0xe
 2994 0144 3A       		.uleb128 0x3a
 2995 0145 0B       		.uleb128 0xb
 2996 0146 3B       		.uleb128 0x3b
 2997 0147 0B       		.uleb128 0xb
 2998 0148 49       		.uleb128 0x49
 2999 0149 13       		.uleb128 0x13
 3000 014a 02       		.uleb128 0x2
 3001 014b 06       		.uleb128 0x6
 3002 014c 00       		.byte	0
 3003 014d 00       		.byte	0
 3004 014e 1A       		.uleb128 0x1a
 3005 014f 1D       		.uleb128 0x1d
 3006 0150 01       		.byte	0x1
 3007 0151 31       		.uleb128 0x31
 3008 0152 13       		.uleb128 0x13
 3009 0153 52       		.uleb128 0x52
 3010 0154 01       		.uleb128 0x1
 3011 0155 55       		.uleb128 0x55
 3012 0156 06       		.uleb128 0x6
 3013 0157 58       		.uleb128 0x58
ARM GAS  C:\Users\jenny\AppData\Local\Temp\ccR8wREU.s 			page 54


 3014 0158 0B       		.uleb128 0xb
 3015 0159 59       		.uleb128 0x59
 3016 015a 0B       		.uleb128 0xb
 3017 015b 01       		.uleb128 0x1
 3018 015c 13       		.uleb128 0x13
 3019 015d 00       		.byte	0
 3020 015e 00       		.byte	0
 3021 015f 1B       		.uleb128 0x1b
 3022 0160 05       		.uleb128 0x5
 3023 0161 00       		.byte	0
 3024 0162 31       		.uleb128 0x31
 3025 0163 13       		.uleb128 0x13
 3026 0164 02       		.uleb128 0x2
 3027 0165 06       		.uleb128 0x6
 3028 0166 00       		.byte	0
 3029 0167 00       		.byte	0
 3030 0168 1C       		.uleb128 0x1c
 3031 0169 898201   		.uleb128 0x4109
 3032 016c 01       		.byte	0x1
 3033 016d 11       		.uleb128 0x11
 3034 016e 01       		.uleb128 0x1
 3035 016f 9542     		.uleb128 0x2115
 3036 0171 0C       		.uleb128 0xc
 3037 0172 31       		.uleb128 0x31
 3038 0173 13       		.uleb128 0x13
 3039 0174 00       		.byte	0
 3040 0175 00       		.byte	0
 3041 0176 1D       		.uleb128 0x1d
 3042 0177 8A8201   		.uleb128 0x410a
 3043 017a 00       		.byte	0
 3044 017b 02       		.uleb128 0x2
 3045 017c 0A       		.uleb128 0xa
 3046 017d 9142     		.uleb128 0x2111
 3047 017f 0A       		.uleb128 0xa
 3048 0180 00       		.byte	0
 3049 0181 00       		.byte	0
 3050 0182 1E       		.uleb128 0x1e
 3051 0183 2E       		.uleb128 0x2e
 3052 0184 01       		.byte	0x1
 3053 0185 3F       		.uleb128 0x3f
 3054 0186 0C       		.uleb128 0xc
 3055 0187 03       		.uleb128 0x3
 3056 0188 0E       		.uleb128 0xe
 3057 0189 3A       		.uleb128 0x3a
 3058 018a 0B       		.uleb128 0xb
 3059 018b 3B       		.uleb128 0x3b
 3060 018c 0B       		.uleb128 0xb
 3061 018d 27       		.uleb128 0x27
 3062 018e 0C       		.uleb128 0xc
 3063 018f 11       		.uleb128 0x11
 3064 0190 01       		.uleb128 0x1
 3065 0191 12       		.uleb128 0x12
 3066 0192 01       		.uleb128 0x1
 3067 0193 40       		.uleb128 0x40
 3068 0194 06       		.uleb128 0x6
 3069 0195 9742     		.uleb128 0x2117
 3070 0197 0C       		.uleb128 0xc
ARM GAS  C:\Users\jenny\AppData\Local\Temp\ccR8wREU.s 			page 55


 3071 0198 01       		.uleb128 0x1
 3072 0199 13       		.uleb128 0x13
 3073 019a 00       		.byte	0
 3074 019b 00       		.byte	0
 3075 019c 1F       		.uleb128 0x1f
 3076 019d 05       		.uleb128 0x5
 3077 019e 00       		.byte	0
 3078 019f 03       		.uleb128 0x3
 3079 01a0 08       		.uleb128 0x8
 3080 01a1 3A       		.uleb128 0x3a
 3081 01a2 0B       		.uleb128 0xb
 3082 01a3 3B       		.uleb128 0x3b
 3083 01a4 0B       		.uleb128 0xb
 3084 01a5 49       		.uleb128 0x49
 3085 01a6 13       		.uleb128 0x13
 3086 01a7 02       		.uleb128 0x2
 3087 01a8 0A       		.uleb128 0xa
 3088 01a9 00       		.byte	0
 3089 01aa 00       		.byte	0
 3090 01ab 20       		.uleb128 0x20
 3091 01ac 05       		.uleb128 0x5
 3092 01ad 00       		.byte	0
 3093 01ae 03       		.uleb128 0x3
 3094 01af 0E       		.uleb128 0xe
 3095 01b0 3A       		.uleb128 0x3a
 3096 01b1 0B       		.uleb128 0xb
 3097 01b2 3B       		.uleb128 0x3b
 3098 01b3 0B       		.uleb128 0xb
 3099 01b4 49       		.uleb128 0x49
 3100 01b5 13       		.uleb128 0x13
 3101 01b6 02       		.uleb128 0x2
 3102 01b7 0A       		.uleb128 0xa
 3103 01b8 00       		.byte	0
 3104 01b9 00       		.byte	0
 3105 01ba 21       		.uleb128 0x21
 3106 01bb 1D       		.uleb128 0x1d
 3107 01bc 01       		.byte	0x1
 3108 01bd 31       		.uleb128 0x31
 3109 01be 13       		.uleb128 0x13
 3110 01bf 11       		.uleb128 0x11
 3111 01c0 01       		.uleb128 0x1
 3112 01c1 12       		.uleb128 0x12
 3113 01c2 01       		.uleb128 0x1
 3114 01c3 58       		.uleb128 0x58
 3115 01c4 0B       		.uleb128 0xb
 3116 01c5 59       		.uleb128 0x59
 3117 01c6 0B       		.uleb128 0xb
 3118 01c7 01       		.uleb128 0x1
 3119 01c8 13       		.uleb128 0x13
 3120 01c9 00       		.byte	0
 3121 01ca 00       		.byte	0
 3122 01cb 22       		.uleb128 0x22
 3123 01cc 0B       		.uleb128 0xb
 3124 01cd 01       		.byte	0x1
 3125 01ce 11       		.uleb128 0x11
 3126 01cf 01       		.uleb128 0x1
 3127 01d0 12       		.uleb128 0x12
ARM GAS  C:\Users\jenny\AppData\Local\Temp\ccR8wREU.s 			page 56


 3128 01d1 01       		.uleb128 0x1
 3129 01d2 00       		.byte	0
 3130 01d3 00       		.byte	0
 3131 01d4 23       		.uleb128 0x23
 3132 01d5 34       		.uleb128 0x34
 3133 01d6 00       		.byte	0
 3134 01d7 31       		.uleb128 0x31
 3135 01d8 13       		.uleb128 0x13
 3136 01d9 02       		.uleb128 0x2
 3137 01da 06       		.uleb128 0x6
 3138 01db 00       		.byte	0
 3139 01dc 00       		.byte	0
 3140 01dd 24       		.uleb128 0x24
 3141 01de 898201   		.uleb128 0x4109
 3142 01e1 00       		.byte	0
 3143 01e2 11       		.uleb128 0x11
 3144 01e3 01       		.uleb128 0x1
 3145 01e4 31       		.uleb128 0x31
 3146 01e5 13       		.uleb128 0x13
 3147 01e6 00       		.byte	0
 3148 01e7 00       		.byte	0
 3149 01e8 25       		.uleb128 0x25
 3150 01e9 2E       		.uleb128 0x2e
 3151 01ea 01       		.byte	0x1
 3152 01eb 3F       		.uleb128 0x3f
 3153 01ec 0C       		.uleb128 0xc
 3154 01ed 03       		.uleb128 0x3
 3155 01ee 0E       		.uleb128 0xe
 3156 01ef 3A       		.uleb128 0x3a
 3157 01f0 0B       		.uleb128 0xb
 3158 01f1 3B       		.uleb128 0x3b
 3159 01f2 0B       		.uleb128 0xb
 3160 01f3 27       		.uleb128 0x27
 3161 01f4 0C       		.uleb128 0xc
 3162 01f5 49       		.uleb128 0x49
 3163 01f6 13       		.uleb128 0x13
 3164 01f7 11       		.uleb128 0x11
 3165 01f8 01       		.uleb128 0x1
 3166 01f9 12       		.uleb128 0x12
 3167 01fa 01       		.uleb128 0x1
 3168 01fb 40       		.uleb128 0x40
 3169 01fc 06       		.uleb128 0x6
 3170 01fd 9742     		.uleb128 0x2117
 3171 01ff 0C       		.uleb128 0xc
 3172 0200 01       		.uleb128 0x1
 3173 0201 13       		.uleb128 0x13
 3174 0202 00       		.byte	0
 3175 0203 00       		.byte	0
 3176 0204 26       		.uleb128 0x26
 3177 0205 34       		.uleb128 0x34
 3178 0206 00       		.byte	0
 3179 0207 03       		.uleb128 0x3
 3180 0208 08       		.uleb128 0x8
 3181 0209 3A       		.uleb128 0x3a
 3182 020a 0B       		.uleb128 0xb
 3183 020b 3B       		.uleb128 0x3b
 3184 020c 0B       		.uleb128 0xb
ARM GAS  C:\Users\jenny\AppData\Local\Temp\ccR8wREU.s 			page 57


 3185 020d 49       		.uleb128 0x49
 3186 020e 13       		.uleb128 0x13
 3187 020f 02       		.uleb128 0x2
 3188 0210 0A       		.uleb128 0xa
 3189 0211 00       		.byte	0
 3190 0212 00       		.byte	0
 3191 0213 27       		.uleb128 0x27
 3192 0214 0B       		.uleb128 0xb
 3193 0215 01       		.byte	0x1
 3194 0216 55       		.uleb128 0x55
 3195 0217 06       		.uleb128 0x6
 3196 0218 01       		.uleb128 0x1
 3197 0219 13       		.uleb128 0x13
 3198 021a 00       		.byte	0
 3199 021b 00       		.byte	0
 3200 021c 28       		.uleb128 0x28
 3201 021d 34       		.uleb128 0x34
 3202 021e 00       		.byte	0
 3203 021f 03       		.uleb128 0x3
 3204 0220 08       		.uleb128 0x8
 3205 0221 3A       		.uleb128 0x3a
 3206 0222 0B       		.uleb128 0xb
 3207 0223 3B       		.uleb128 0x3b
 3208 0224 0B       		.uleb128 0xb
 3209 0225 49       		.uleb128 0x49
 3210 0226 13       		.uleb128 0x13
 3211 0227 02       		.uleb128 0x2
 3212 0228 06       		.uleb128 0x6
 3213 0229 00       		.byte	0
 3214 022a 00       		.byte	0
 3215 022b 29       		.uleb128 0x29
 3216 022c 0B       		.uleb128 0xb
 3217 022d 01       		.byte	0x1
 3218 022e 11       		.uleb128 0x11
 3219 022f 01       		.uleb128 0x1
 3220 0230 12       		.uleb128 0x12
 3221 0231 01       		.uleb128 0x1
 3222 0232 01       		.uleb128 0x1
 3223 0233 13       		.uleb128 0x13
 3224 0234 00       		.byte	0
 3225 0235 00       		.byte	0
 3226 0236 2A       		.uleb128 0x2a
 3227 0237 898201   		.uleb128 0x4109
 3228 023a 01       		.byte	0x1
 3229 023b 11       		.uleb128 0x11
 3230 023c 01       		.uleb128 0x1
 3231 023d 31       		.uleb128 0x31
 3232 023e 13       		.uleb128 0x13
 3233 023f 00       		.byte	0
 3234 0240 00       		.byte	0
 3235 0241 2B       		.uleb128 0x2b
 3236 0242 898201   		.uleb128 0x4109
 3237 0245 01       		.byte	0x1
 3238 0246 11       		.uleb128 0x11
 3239 0247 01       		.uleb128 0x1
 3240 0248 00       		.byte	0
 3241 0249 00       		.byte	0
ARM GAS  C:\Users\jenny\AppData\Local\Temp\ccR8wREU.s 			page 58


 3242 024a 2C       		.uleb128 0x2c
 3243 024b 898201   		.uleb128 0x4109
 3244 024e 01       		.byte	0x1
 3245 024f 11       		.uleb128 0x11
 3246 0250 01       		.uleb128 0x1
 3247 0251 01       		.uleb128 0x1
 3248 0252 13       		.uleb128 0x13
 3249 0253 00       		.byte	0
 3250 0254 00       		.byte	0
 3251 0255 2D       		.uleb128 0x2d
 3252 0256 2E       		.uleb128 0x2e
 3253 0257 01       		.byte	0x1
 3254 0258 3F       		.uleb128 0x3f
 3255 0259 0C       		.uleb128 0xc
 3256 025a 03       		.uleb128 0x3
 3257 025b 0E       		.uleb128 0xe
 3258 025c 3A       		.uleb128 0x3a
 3259 025d 0B       		.uleb128 0xb
 3260 025e 3B       		.uleb128 0x3b
 3261 025f 05       		.uleb128 0x5
 3262 0260 27       		.uleb128 0x27
 3263 0261 0C       		.uleb128 0xc
 3264 0262 11       		.uleb128 0x11
 3265 0263 01       		.uleb128 0x1
 3266 0264 12       		.uleb128 0x12
 3267 0265 01       		.uleb128 0x1
 3268 0266 40       		.uleb128 0x40
 3269 0267 06       		.uleb128 0x6
 3270 0268 9742     		.uleb128 0x2117
 3271 026a 0C       		.uleb128 0xc
 3272 026b 01       		.uleb128 0x1
 3273 026c 13       		.uleb128 0x13
 3274 026d 00       		.byte	0
 3275 026e 00       		.byte	0
 3276 026f 2E       		.uleb128 0x2e
 3277 0270 05       		.uleb128 0x5
 3278 0271 00       		.byte	0
 3279 0272 03       		.uleb128 0x3
 3280 0273 08       		.uleb128 0x8
 3281 0274 3A       		.uleb128 0x3a
 3282 0275 0B       		.uleb128 0xb
 3283 0276 3B       		.uleb128 0x3b
 3284 0277 05       		.uleb128 0x5
 3285 0278 49       		.uleb128 0x49
 3286 0279 13       		.uleb128 0x13
 3287 027a 02       		.uleb128 0x2
 3288 027b 0A       		.uleb128 0xa
 3289 027c 00       		.byte	0
 3290 027d 00       		.byte	0
 3291 027e 2F       		.uleb128 0x2f
 3292 027f 05       		.uleb128 0x5
 3293 0280 00       		.byte	0
 3294 0281 03       		.uleb128 0x3
 3295 0282 0E       		.uleb128 0xe
 3296 0283 3A       		.uleb128 0x3a
 3297 0284 0B       		.uleb128 0xb
 3298 0285 3B       		.uleb128 0x3b
ARM GAS  C:\Users\jenny\AppData\Local\Temp\ccR8wREU.s 			page 59


 3299 0286 05       		.uleb128 0x5
 3300 0287 49       		.uleb128 0x49
 3301 0288 13       		.uleb128 0x13
 3302 0289 02       		.uleb128 0x2
 3303 028a 0A       		.uleb128 0xa
 3304 028b 00       		.byte	0
 3305 028c 00       		.byte	0
 3306 028d 30       		.uleb128 0x30
 3307 028e 05       		.uleb128 0x5
 3308 028f 00       		.byte	0
 3309 0290 03       		.uleb128 0x3
 3310 0291 0E       		.uleb128 0xe
 3311 0292 3A       		.uleb128 0x3a
 3312 0293 0B       		.uleb128 0xb
 3313 0294 3B       		.uleb128 0x3b
 3314 0295 05       		.uleb128 0x5
 3315 0296 49       		.uleb128 0x49
 3316 0297 13       		.uleb128 0x13
 3317 0298 02       		.uleb128 0x2
 3318 0299 06       		.uleb128 0x6
 3319 029a 00       		.byte	0
 3320 029b 00       		.byte	0
 3321 029c 31       		.uleb128 0x31
 3322 029d 05       		.uleb128 0x5
 3323 029e 00       		.byte	0
 3324 029f 03       		.uleb128 0x3
 3325 02a0 08       		.uleb128 0x8
 3326 02a1 3A       		.uleb128 0x3a
 3327 02a2 0B       		.uleb128 0xb
 3328 02a3 3B       		.uleb128 0x3b
 3329 02a4 05       		.uleb128 0x5
 3330 02a5 49       		.uleb128 0x49
 3331 02a6 13       		.uleb128 0x13
 3332 02a7 02       		.uleb128 0x2
 3333 02a8 06       		.uleb128 0x6
 3334 02a9 00       		.byte	0
 3335 02aa 00       		.byte	0
 3336 02ab 32       		.uleb128 0x32
 3337 02ac 1D       		.uleb128 0x1d
 3338 02ad 01       		.byte	0x1
 3339 02ae 31       		.uleb128 0x31
 3340 02af 13       		.uleb128 0x13
 3341 02b0 11       		.uleb128 0x11
 3342 02b1 01       		.uleb128 0x1
 3343 02b2 12       		.uleb128 0x12
 3344 02b3 01       		.uleb128 0x1
 3345 02b4 58       		.uleb128 0x58
 3346 02b5 0B       		.uleb128 0xb
 3347 02b6 59       		.uleb128 0x59
 3348 02b7 05       		.uleb128 0x5
 3349 02b8 01       		.uleb128 0x1
 3350 02b9 13       		.uleb128 0x13
 3351 02ba 00       		.byte	0
 3352 02bb 00       		.byte	0
 3353 02bc 33       		.uleb128 0x33
 3354 02bd 2E       		.uleb128 0x2e
 3355 02be 01       		.byte	0x1
ARM GAS  C:\Users\jenny\AppData\Local\Temp\ccR8wREU.s 			page 60


 3356 02bf 3F       		.uleb128 0x3f
 3357 02c0 0C       		.uleb128 0xc
 3358 02c1 03       		.uleb128 0x3
 3359 02c2 0E       		.uleb128 0xe
 3360 02c3 3A       		.uleb128 0x3a
 3361 02c4 0B       		.uleb128 0xb
 3362 02c5 3B       		.uleb128 0x3b
 3363 02c6 05       		.uleb128 0x5
 3364 02c7 27       		.uleb128 0x27
 3365 02c8 0C       		.uleb128 0xc
 3366 02c9 49       		.uleb128 0x49
 3367 02ca 13       		.uleb128 0x13
 3368 02cb 11       		.uleb128 0x11
 3369 02cc 01       		.uleb128 0x1
 3370 02cd 12       		.uleb128 0x12
 3371 02ce 01       		.uleb128 0x1
 3372 02cf 40       		.uleb128 0x40
 3373 02d0 06       		.uleb128 0x6
 3374 02d1 9742     		.uleb128 0x2117
 3375 02d3 0C       		.uleb128 0xc
 3376 02d4 01       		.uleb128 0x1
 3377 02d5 13       		.uleb128 0x13
 3378 02d6 00       		.byte	0
 3379 02d7 00       		.byte	0
 3380 02d8 34       		.uleb128 0x34
 3381 02d9 34       		.uleb128 0x34
 3382 02da 00       		.byte	0
 3383 02db 03       		.uleb128 0x3
 3384 02dc 08       		.uleb128 0x8
 3385 02dd 3A       		.uleb128 0x3a
 3386 02de 0B       		.uleb128 0xb
 3387 02df 3B       		.uleb128 0x3b
 3388 02e0 05       		.uleb128 0x5
 3389 02e1 49       		.uleb128 0x49
 3390 02e2 13       		.uleb128 0x13
 3391 02e3 02       		.uleb128 0x2
 3392 02e4 06       		.uleb128 0x6
 3393 02e5 00       		.byte	0
 3394 02e6 00       		.byte	0
 3395 02e7 35       		.uleb128 0x35
 3396 02e8 2E       		.uleb128 0x2e
 3397 02e9 01       		.byte	0x1
 3398 02ea 3F       		.uleb128 0x3f
 3399 02eb 0C       		.uleb128 0xc
 3400 02ec 03       		.uleb128 0x3
 3401 02ed 0E       		.uleb128 0xe
 3402 02ee 3A       		.uleb128 0x3a
 3403 02ef 0B       		.uleb128 0xb
 3404 02f0 3B       		.uleb128 0x3b
 3405 02f1 05       		.uleb128 0x5
 3406 02f2 27       		.uleb128 0x27
 3407 02f3 0C       		.uleb128 0xc
 3408 02f4 49       		.uleb128 0x49
 3409 02f5 13       		.uleb128 0x13
 3410 02f6 11       		.uleb128 0x11
 3411 02f7 01       		.uleb128 0x1
 3412 02f8 12       		.uleb128 0x12
ARM GAS  C:\Users\jenny\AppData\Local\Temp\ccR8wREU.s 			page 61


 3413 02f9 01       		.uleb128 0x1
 3414 02fa 40       		.uleb128 0x40
 3415 02fb 06       		.uleb128 0x6
 3416 02fc 9642     		.uleb128 0x2116
 3417 02fe 0C       		.uleb128 0xc
 3418 02ff 01       		.uleb128 0x1
 3419 0300 13       		.uleb128 0x13
 3420 0301 00       		.byte	0
 3421 0302 00       		.byte	0
 3422 0303 36       		.uleb128 0x36
 3423 0304 34       		.uleb128 0x34
 3424 0305 00       		.byte	0
 3425 0306 03       		.uleb128 0x3
 3426 0307 08       		.uleb128 0x8
 3427 0308 3A       		.uleb128 0x3a
 3428 0309 0B       		.uleb128 0xb
 3429 030a 3B       		.uleb128 0x3b
 3430 030b 05       		.uleb128 0x5
 3431 030c 49       		.uleb128 0x49
 3432 030d 13       		.uleb128 0x13
 3433 030e 02       		.uleb128 0x2
 3434 030f 0A       		.uleb128 0xa
 3435 0310 00       		.byte	0
 3436 0311 00       		.byte	0
 3437 0312 37       		.uleb128 0x37
 3438 0313 34       		.uleb128 0x34
 3439 0314 00       		.byte	0
 3440 0315 03       		.uleb128 0x3
 3441 0316 0E       		.uleb128 0xe
 3442 0317 3A       		.uleb128 0x3a
 3443 0318 0B       		.uleb128 0xb
 3444 0319 3B       		.uleb128 0x3b
 3445 031a 0B       		.uleb128 0xb
 3446 031b 49       		.uleb128 0x49
 3447 031c 13       		.uleb128 0x13
 3448 031d 3F       		.uleb128 0x3f
 3449 031e 0C       		.uleb128 0xc
 3450 031f 3C       		.uleb128 0x3c
 3451 0320 0C       		.uleb128 0xc
 3452 0321 00       		.byte	0
 3453 0322 00       		.byte	0
 3454 0323 38       		.uleb128 0x38
 3455 0324 2E       		.uleb128 0x2e
 3456 0325 01       		.byte	0x1
 3457 0326 3F       		.uleb128 0x3f
 3458 0327 0C       		.uleb128 0xc
 3459 0328 03       		.uleb128 0x3
 3460 0329 0E       		.uleb128 0xe
 3461 032a 3A       		.uleb128 0x3a
 3462 032b 0B       		.uleb128 0xb
 3463 032c 3B       		.uleb128 0x3b
 3464 032d 0B       		.uleb128 0xb
 3465 032e 27       		.uleb128 0x27
 3466 032f 0C       		.uleb128 0xc
 3467 0330 49       		.uleb128 0x49
 3468 0331 13       		.uleb128 0x13
 3469 0332 3C       		.uleb128 0x3c
ARM GAS  C:\Users\jenny\AppData\Local\Temp\ccR8wREU.s 			page 62


 3470 0333 0C       		.uleb128 0xc
 3471 0334 01       		.uleb128 0x1
 3472 0335 13       		.uleb128 0x13
 3473 0336 00       		.byte	0
 3474 0337 00       		.byte	0
 3475 0338 39       		.uleb128 0x39
 3476 0339 2E       		.uleb128 0x2e
 3477 033a 01       		.byte	0x1
 3478 033b 3F       		.uleb128 0x3f
 3479 033c 0C       		.uleb128 0xc
 3480 033d 03       		.uleb128 0x3
 3481 033e 0E       		.uleb128 0xe
 3482 033f 3A       		.uleb128 0x3a
 3483 0340 0B       		.uleb128 0xb
 3484 0341 3B       		.uleb128 0x3b
 3485 0342 0B       		.uleb128 0xb
 3486 0343 27       		.uleb128 0x27
 3487 0344 0C       		.uleb128 0xc
 3488 0345 49       		.uleb128 0x49
 3489 0346 13       		.uleb128 0x13
 3490 0347 3C       		.uleb128 0x3c
 3491 0348 0C       		.uleb128 0xc
 3492 0349 00       		.byte	0
 3493 034a 00       		.byte	0
 3494 034b 00       		.byte	0
 3495              		.section	.debug_loc,"",%progbits
 3496              	.Ldebug_loc0:
 3497              	.LLST0:
 3498 0000 00000000 		.4byte	.LFB7
 3499 0004 02000000 		.4byte	.LCFI0
 3500 0008 0200     		.2byte	0x2
 3501 000a 7D       		.byte	0x7d
 3502 000b 00       		.sleb128 0
 3503 000c 02000000 		.4byte	.LCFI0
 3504 0010 2C000000 		.4byte	.LFE7
 3505 0014 0200     		.2byte	0x2
 3506 0016 7D       		.byte	0x7d
 3507 0017 04       		.sleb128 4
 3508 0018 00000000 		.4byte	0
 3509 001c 00000000 		.4byte	0
 3510              	.LLST1:
 3511 0020 00000000 		.4byte	.LVL0
 3512 0024 10000000 		.4byte	.LVL2
 3513 0028 0100     		.2byte	0x1
 3514 002a 50       		.byte	0x50
 3515 002b 10000000 		.4byte	.LVL2
 3516 002f 1D000000 		.4byte	.LVL3-1
 3517 0033 0100     		.2byte	0x1
 3518 0035 52       		.byte	0x52
 3519 0036 1D000000 		.4byte	.LVL3-1
 3520 003a 1E000000 		.4byte	.LVL3
 3521 003e 0400     		.2byte	0x4
 3522 0040 F3       		.byte	0xf3
 3523 0041 01       		.uleb128 0x1
 3524 0042 50       		.byte	0x50
 3525 0043 9F       		.byte	0x9f
 3526 0044 1E000000 		.4byte	.LVL3
ARM GAS  C:\Users\jenny\AppData\Local\Temp\ccR8wREU.s 			page 63


 3527 0048 22000000 		.4byte	.LVL4
 3528 004c 0100     		.2byte	0x1
 3529 004e 50       		.byte	0x50
 3530 004f 22000000 		.4byte	.LVL4
 3531 0053 2C000000 		.4byte	.LFE7
 3532 0057 0100     		.2byte	0x1
 3533 0059 52       		.byte	0x52
 3534 005a 00000000 		.4byte	0
 3535 005e 00000000 		.4byte	0
 3536              	.LLST2:
 3537 0062 00000000 		.4byte	.LVL0
 3538 0066 1D000000 		.4byte	.LVL3-1
 3539 006a 0100     		.2byte	0x1
 3540 006c 51       		.byte	0x51
 3541 006d 1D000000 		.4byte	.LVL3-1
 3542 0071 1E000000 		.4byte	.LVL3
 3543 0075 0400     		.2byte	0x4
 3544 0077 F3       		.byte	0xf3
 3545 0078 01       		.uleb128 0x1
 3546 0079 51       		.byte	0x51
 3547 007a 9F       		.byte	0x9f
 3548 007b 1E000000 		.4byte	.LVL3
 3549 007f 2C000000 		.4byte	.LFE7
 3550 0083 0100     		.2byte	0x1
 3551 0085 51       		.byte	0x51
 3552 0086 00000000 		.4byte	0
 3553 008a 00000000 		.4byte	0
 3554              	.LLST3:
 3555 008e 0C000000 		.4byte	.LVL1
 3556 0092 10000000 		.4byte	.LVL2
 3557 0096 0100     		.2byte	0x1
 3558 0098 50       		.byte	0x50
 3559 0099 10000000 		.4byte	.LVL2
 3560 009d 1D000000 		.4byte	.LVL3-1
 3561 00a1 0100     		.2byte	0x1
 3562 00a3 52       		.byte	0x52
 3563 00a4 1D000000 		.4byte	.LVL3-1
 3564 00a8 1E000000 		.4byte	.LVL3
 3565 00ac 0400     		.2byte	0x4
 3566 00ae F3       		.byte	0xf3
 3567 00af 01       		.uleb128 0x1
 3568 00b0 50       		.byte	0x50
 3569 00b1 9F       		.byte	0x9f
 3570 00b2 00000000 		.4byte	0
 3571 00b6 00000000 		.4byte	0
 3572              	.LLST4:
 3573 00ba 0C000000 		.4byte	.LVL1
 3574 00be 1D000000 		.4byte	.LVL3-1
 3575 00c2 0100     		.2byte	0x1
 3576 00c4 53       		.byte	0x53
 3577 00c5 00000000 		.4byte	0
 3578 00c9 00000000 		.4byte	0
 3579              	.LLST5:
 3580 00cd 00000000 		.4byte	.LFB8
 3581 00d1 02000000 		.4byte	.LCFI1
 3582 00d5 0200     		.2byte	0x2
 3583 00d7 7D       		.byte	0x7d
ARM GAS  C:\Users\jenny\AppData\Local\Temp\ccR8wREU.s 			page 64


 3584 00d8 00       		.sleb128 0
 3585 00d9 02000000 		.4byte	.LCFI1
 3586 00dd 1E000000 		.4byte	.LFE8
 3587 00e1 0200     		.2byte	0x2
 3588 00e3 7D       		.byte	0x7d
 3589 00e4 04       		.sleb128 4
 3590 00e5 00000000 		.4byte	0
 3591 00e9 00000000 		.4byte	0
 3592              	.LLST6:
 3593 00ed 00000000 		.4byte	.LVL5
 3594 00f1 0A000000 		.4byte	.LVL7
 3595 00f5 0100     		.2byte	0x1
 3596 00f7 52       		.byte	0x52
 3597 00f8 0A000000 		.4byte	.LVL7
 3598 00fc 1E000000 		.4byte	.LFE8
 3599 0100 0400     		.2byte	0x4
 3600 0102 F3       		.byte	0xf3
 3601 0103 01       		.uleb128 0x1
 3602 0104 52       		.byte	0x52
 3603 0105 9F       		.byte	0x9f
 3604 0106 00000000 		.4byte	0
 3605 010a 00000000 		.4byte	0
 3606              	.LLST7:
 3607 010e 00000000 		.4byte	.LVL5
 3608 0112 06000000 		.4byte	.LVL6
 3609 0116 0100     		.2byte	0x1
 3610 0118 53       		.byte	0x53
 3611 0119 06000000 		.4byte	.LVL6
 3612 011d 1E000000 		.4byte	.LFE8
 3613 0121 0200     		.2byte	0x2
 3614 0123 70       		.byte	0x70
 3615 0124 1C       		.sleb128 28
 3616 0125 00000000 		.4byte	0
 3617 0129 00000000 		.4byte	0
 3618              	.LLST8:
 3619 012d 00000000 		.4byte	.LFB9
 3620 0131 02000000 		.4byte	.LCFI2
 3621 0135 0200     		.2byte	0x2
 3622 0137 7D       		.byte	0x7d
 3623 0138 00       		.sleb128 0
 3624 0139 02000000 		.4byte	.LCFI2
 3625 013d 2C000000 		.4byte	.LFE9
 3626 0141 0200     		.2byte	0x2
 3627 0143 7D       		.byte	0x7d
 3628 0144 10       		.sleb128 16
 3629 0145 00000000 		.4byte	0
 3630 0149 00000000 		.4byte	0
 3631              	.LLST9:
 3632 014d 00000000 		.4byte	.LVL8
 3633 0151 08000000 		.4byte	.LVL9
 3634 0155 0100     		.2byte	0x1
 3635 0157 50       		.byte	0x50
 3636 0158 08000000 		.4byte	.LVL9
 3637 015c 2C000000 		.4byte	.LFE9
 3638 0160 0100     		.2byte	0x1
 3639 0162 54       		.byte	0x54
 3640 0163 00000000 		.4byte	0
ARM GAS  C:\Users\jenny\AppData\Local\Temp\ccR8wREU.s 			page 65


 3641 0167 00000000 		.4byte	0
 3642              	.LLST10:
 3643 016b 18000000 		.4byte	.LVL10
 3644 016f 2A000000 		.4byte	.LVL12
 3645 0173 0100     		.2byte	0x1
 3646 0175 54       		.byte	0x54
 3647 0176 00000000 		.4byte	0
 3648 017a 00000000 		.4byte	0
 3649              	.LLST11:
 3650 017e 18000000 		.4byte	.LVL10
 3651 0182 21000000 		.4byte	.LVL11-1
 3652 0186 0100     		.2byte	0x1
 3653 0188 50       		.byte	0x50
 3654 0189 00000000 		.4byte	0
 3655 018d 00000000 		.4byte	0
 3656              	.LLST12:
 3657 0191 00000000 		.4byte	.LFB10
 3658 0195 04000000 		.4byte	.LCFI3
 3659 0199 0200     		.2byte	0x2
 3660 019b 7D       		.byte	0x7d
 3661 019c 00       		.sleb128 0
 3662 019d 04000000 		.4byte	.LCFI3
 3663 01a1 4E000000 		.4byte	.LFE10
 3664 01a5 0200     		.2byte	0x2
 3665 01a7 7D       		.byte	0x7d
 3666 01a8 08       		.sleb128 8
 3667 01a9 00000000 		.4byte	0
 3668 01ad 00000000 		.4byte	0
 3669              	.LLST13:
 3670 01b1 00000000 		.4byte	.LVL13
 3671 01b5 08000000 		.4byte	.LVL14
 3672 01b9 0100     		.2byte	0x1
 3673 01bb 50       		.byte	0x50
 3674 01bc 08000000 		.4byte	.LVL14
 3675 01c0 2D000000 		.4byte	.LVL17-1
 3676 01c4 0100     		.2byte	0x1
 3677 01c6 53       		.byte	0x53
 3678 01c7 2D000000 		.4byte	.LVL17-1
 3679 01cb 36000000 		.4byte	.LVL18
 3680 01cf 0400     		.2byte	0x4
 3681 01d1 F3       		.byte	0xf3
 3682 01d2 01       		.uleb128 0x1
 3683 01d3 50       		.byte	0x50
 3684 01d4 9F       		.byte	0x9f
 3685 01d5 36000000 		.4byte	.LVL18
 3686 01d9 4E000000 		.4byte	.LFE10
 3687 01dd 0100     		.2byte	0x1
 3688 01df 53       		.byte	0x53
 3689 01e0 00000000 		.4byte	0
 3690 01e4 00000000 		.4byte	0
 3691              	.LLST14:
 3692 01e8 00000000 		.4byte	.LVL13
 3693 01ec 18000000 		.4byte	.LVL15
 3694 01f0 0100     		.2byte	0x1
 3695 01f2 51       		.byte	0x51
 3696 01f3 18000000 		.4byte	.LVL15
 3697 01f7 2D000000 		.4byte	.LVL17-1
ARM GAS  C:\Users\jenny\AppData\Local\Temp\ccR8wREU.s 			page 66


 3698 01fb 0300     		.2byte	0x3
 3699 01fd 73       		.byte	0x73
 3700 01fe 14       		.sleb128 20
 3701 01ff 06       		.byte	0x6
 3702 0200 2D000000 		.4byte	.LVL17-1
 3703 0204 36000000 		.4byte	.LVL18
 3704 0208 0400     		.2byte	0x4
 3705 020a F3       		.byte	0xf3
 3706 020b 01       		.uleb128 0x1
 3707 020c 51       		.byte	0x51
 3708 020d 9F       		.byte	0x9f
 3709 020e 36000000 		.4byte	.LVL18
 3710 0212 44000000 		.4byte	.LVL19
 3711 0216 0300     		.2byte	0x3
 3712 0218 73       		.byte	0x73
 3713 0219 14       		.sleb128 20
 3714 021a 06       		.byte	0x6
 3715 021b 44000000 		.4byte	.LVL19
 3716 021f 4E000000 		.4byte	.LFE10
 3717 0223 0100     		.2byte	0x1
 3718 0225 51       		.byte	0x51
 3719 0226 00000000 		.4byte	0
 3720 022a 00000000 		.4byte	0
 3721              	.LLST15:
 3722 022e 24000000 		.4byte	.LVL16
 3723 0232 2D000000 		.4byte	.LVL17-1
 3724 0236 0100     		.2byte	0x1
 3725 0238 53       		.byte	0x53
 3726 0239 2D000000 		.4byte	.LVL17-1
 3727 023d 36000000 		.4byte	.LVL18
 3728 0241 0400     		.2byte	0x4
 3729 0243 F3       		.byte	0xf3
 3730 0244 01       		.uleb128 0x1
 3731 0245 50       		.byte	0x50
 3732 0246 9F       		.byte	0x9f
 3733 0247 00000000 		.4byte	0
 3734 024b 00000000 		.4byte	0
 3735              	.LLST16:
 3736 024f 24000000 		.4byte	.LVL16
 3737 0253 2D000000 		.4byte	.LVL17-1
 3738 0257 0100     		.2byte	0x1
 3739 0259 50       		.byte	0x50
 3740 025a 00000000 		.4byte	0
 3741 025e 00000000 		.4byte	0
 3742              	.LLST17:
 3743 0262 00000000 		.4byte	.LFB11
 3744 0266 02000000 		.4byte	.LCFI4
 3745 026a 0200     		.2byte	0x2
 3746 026c 7D       		.byte	0x7d
 3747 026d 00       		.sleb128 0
 3748 026e 02000000 		.4byte	.LCFI4
 3749 0272 48000000 		.4byte	.LFE11
 3750 0276 0200     		.2byte	0x2
 3751 0278 7D       		.byte	0x7d
 3752 0279 10       		.sleb128 16
 3753 027a 00000000 		.4byte	0
 3754 027e 00000000 		.4byte	0
ARM GAS  C:\Users\jenny\AppData\Local\Temp\ccR8wREU.s 			page 67


 3755              	.LLST18:
 3756 0282 00000000 		.4byte	.LVL20
 3757 0286 11000000 		.4byte	.LVL24-1
 3758 028a 0100     		.2byte	0x1
 3759 028c 50       		.byte	0x50
 3760 028d 11000000 		.4byte	.LVL24-1
 3761 0291 1A000000 		.4byte	.LVL25
 3762 0295 0100     		.2byte	0x1
 3763 0297 54       		.byte	0x54
 3764 0298 1A000000 		.4byte	.LVL25
 3765 029c 1D000000 		.4byte	.LVL26-1
 3766 02a0 0100     		.2byte	0x1
 3767 02a2 50       		.byte	0x50
 3768 02a3 1D000000 		.4byte	.LVL26-1
 3769 02a7 2A000000 		.4byte	.LVL29
 3770 02ab 0100     		.2byte	0x1
 3771 02ad 54       		.byte	0x54
 3772 02ae 2A000000 		.4byte	.LVL29
 3773 02b2 36000000 		.4byte	.LVL31
 3774 02b6 0100     		.2byte	0x1
 3775 02b8 50       		.byte	0x50
 3776 02b9 36000000 		.4byte	.LVL31
 3777 02bd 48000000 		.4byte	.LFE11
 3778 02c1 0100     		.2byte	0x1
 3779 02c3 54       		.byte	0x54
 3780 02c4 00000000 		.4byte	0
 3781 02c8 00000000 		.4byte	0
 3782              	.LLST19:
 3783 02cc 00000000 		.4byte	.LVL20
 3784 02d0 11000000 		.4byte	.LVL24-1
 3785 02d4 0100     		.2byte	0x1
 3786 02d6 51       		.byte	0x51
 3787 02d7 11000000 		.4byte	.LVL24-1
 3788 02db 1A000000 		.4byte	.LVL25
 3789 02df 0100     		.2byte	0x1
 3790 02e1 56       		.byte	0x56
 3791 02e2 1A000000 		.4byte	.LVL25
 3792 02e6 1D000000 		.4byte	.LVL26-1
 3793 02ea 0100     		.2byte	0x1
 3794 02ec 51       		.byte	0x51
 3795 02ed 1D000000 		.4byte	.LVL26-1
 3796 02f1 2A000000 		.4byte	.LVL29
 3797 02f5 0100     		.2byte	0x1
 3798 02f7 56       		.byte	0x56
 3799 02f8 2A000000 		.4byte	.LVL29
 3800 02fc 2C000000 		.4byte	.LVL30
 3801 0300 0100     		.2byte	0x1
 3802 0302 51       		.byte	0x51
 3803 0303 2C000000 		.4byte	.LVL30
 3804 0307 48000000 		.4byte	.LFE11
 3805 030b 0100     		.2byte	0x1
 3806 030d 56       		.byte	0x56
 3807 030e 00000000 		.4byte	0
 3808 0312 00000000 		.4byte	0
 3809              	.LLST20:
 3810 0316 0C000000 		.4byte	.LVL22
 3811 031a 0E000000 		.4byte	.LVL23
ARM GAS  C:\Users\jenny\AppData\Local\Temp\ccR8wREU.s 			page 68


 3812 031e 0100     		.2byte	0x1
 3813 0320 53       		.byte	0x53
 3814 0321 00000000 		.4byte	0
 3815 0325 00000000 		.4byte	0
 3816              	.LLST21:
 3817 0329 1E000000 		.4byte	.LVL26
 3818 032d 2A000000 		.4byte	.LVL29
 3819 0331 0100     		.2byte	0x1
 3820 0333 50       		.byte	0x50
 3821 0334 00000000 		.4byte	0
 3822 0338 00000000 		.4byte	0
 3823              	.LLST22:
 3824 033c 28000000 		.4byte	.LVL28
 3825 0340 2A000000 		.4byte	.LVL29
 3826 0344 0100     		.2byte	0x1
 3827 0346 53       		.byte	0x53
 3828 0347 00000000 		.4byte	0
 3829 034b 00000000 		.4byte	0
 3830              	.LLST23:
 3831 034f 46000000 		.4byte	.LVL33
 3832 0353 48000000 		.4byte	.LFE11
 3833 0357 0100     		.2byte	0x1
 3834 0359 53       		.byte	0x53
 3835 035a 00000000 		.4byte	0
 3836 035e 00000000 		.4byte	0
 3837              	.LLST24:
 3838 0362 00000000 		.4byte	.LFB12
 3839 0366 04000000 		.4byte	.LCFI5
 3840 036a 0200     		.2byte	0x2
 3841 036c 7D       		.byte	0x7d
 3842 036d 00       		.sleb128 0
 3843 036e 04000000 		.4byte	.LCFI5
 3844 0372 72000000 		.4byte	.LFE12
 3845 0376 0200     		.2byte	0x2
 3846 0378 7D       		.byte	0x7d
 3847 0379 20       		.sleb128 32
 3848 037a 00000000 		.4byte	0
 3849 037e 00000000 		.4byte	0
 3850              	.LLST25:
 3851 0382 00000000 		.4byte	.LVL34
 3852 0386 1C000000 		.4byte	.LVL38
 3853 038a 0100     		.2byte	0x1
 3854 038c 50       		.byte	0x50
 3855 038d 1C000000 		.4byte	.LVL38
 3856 0391 2A000000 		.4byte	.LVL40
 3857 0395 0100     		.2byte	0x1
 3858 0397 54       		.byte	0x54
 3859 0398 2A000000 		.4byte	.LVL40
 3860 039c 2D000000 		.4byte	.LVL41-1
 3861 03a0 0100     		.2byte	0x1
 3862 03a2 50       		.byte	0x50
 3863 03a3 2D000000 		.4byte	.LVL41-1
 3864 03a7 3E000000 		.4byte	.LVL44
 3865 03ab 0100     		.2byte	0x1
 3866 03ad 54       		.byte	0x54
 3867 03ae 3E000000 		.4byte	.LVL44
 3868 03b2 4E000000 		.4byte	.LVL46
ARM GAS  C:\Users\jenny\AppData\Local\Temp\ccR8wREU.s 			page 69


 3869 03b6 0100     		.2byte	0x1
 3870 03b8 50       		.byte	0x50
 3871 03b9 4E000000 		.4byte	.LVL46
 3872 03bd 72000000 		.4byte	.LFE12
 3873 03c1 0100     		.2byte	0x1
 3874 03c3 54       		.byte	0x54
 3875 03c4 00000000 		.4byte	0
 3876 03c8 00000000 		.4byte	0
 3877              	.LLST26:
 3878 03cc 00000000 		.4byte	.LVL34
 3879 03d0 1C000000 		.4byte	.LVL38
 3880 03d4 0100     		.2byte	0x1
 3881 03d6 51       		.byte	0x51
 3882 03d7 00000000 		.4byte	0
 3883 03db 00000000 		.4byte	0
 3884              	.LLST27:
 3885 03df 00000000 		.4byte	.LVL34
 3886 03e3 1C000000 		.4byte	.LVL38
 3887 03e7 0100     		.2byte	0x1
 3888 03e9 52       		.byte	0x52
 3889 03ea 00000000 		.4byte	0
 3890 03ee 00000000 		.4byte	0
 3891              	.LLST28:
 3892 03f2 00000000 		.4byte	.LVL34
 3893 03f6 0C000000 		.4byte	.LVL36
 3894 03fa 0100     		.2byte	0x1
 3895 03fc 53       		.byte	0x53
 3896 03fd 0C000000 		.4byte	.LVL36
 3897 0401 2A000000 		.4byte	.LVL40
 3898 0405 0100     		.2byte	0x1
 3899 0407 56       		.byte	0x56
 3900 0408 2A000000 		.4byte	.LVL40
 3901 040c 2D000000 		.4byte	.LVL41-1
 3902 0410 0100     		.2byte	0x1
 3903 0412 51       		.byte	0x51
 3904 0413 2D000000 		.4byte	.LVL41-1
 3905 0417 3E000000 		.4byte	.LVL44
 3906 041b 0100     		.2byte	0x1
 3907 041d 56       		.byte	0x56
 3908 041e 3E000000 		.4byte	.LVL44
 3909 0422 72000000 		.4byte	.LFE12
 3910 0426 0100     		.2byte	0x1
 3911 0428 51       		.byte	0x51
 3912 0429 00000000 		.4byte	0
 3913 042d 00000000 		.4byte	0
 3914              	.LLST29:
 3915 0431 0A000000 		.4byte	.LVL35
 3916 0435 1C000000 		.4byte	.LVL38
 3917 0439 0200     		.2byte	0x2
 3918 043b 30       		.byte	0x30
 3919 043c 9F       		.byte	0x9f
 3920 043d 1C000000 		.4byte	.LVL38
 3921 0441 72000000 		.4byte	.LFE12
 3922 0445 0100     		.2byte	0x1
 3923 0447 58       		.byte	0x58
 3924 0448 00000000 		.4byte	0
 3925 044c 00000000 		.4byte	0
ARM GAS  C:\Users\jenny\AppData\Local\Temp\ccR8wREU.s 			page 70


 3926              	.LLST30:
 3927 0450 10000000 		.4byte	.LVL37
 3928 0454 21000000 		.4byte	.LVL39-1
 3929 0458 0100     		.2byte	0x1
 3930 045a 53       		.byte	0x53
 3931 045b 22000000 		.4byte	.LVL39
 3932 045f 2D000000 		.4byte	.LVL41-1
 3933 0463 0100     		.2byte	0x1
 3934 0465 53       		.byte	0x53
 3935 0466 3E000000 		.4byte	.LVL44
 3936 046a 40000000 		.4byte	.LVL45
 3937 046e 0100     		.2byte	0x1
 3938 0470 53       		.byte	0x53
 3939 0471 00000000 		.4byte	0
 3940 0475 00000000 		.4byte	0
 3941              	.LLST31:
 3942 0479 38000000 		.4byte	.LVL43
 3943 047d 3E000000 		.4byte	.LVL44
 3944 0481 0100     		.2byte	0x1
 3945 0483 53       		.byte	0x53
 3946 0484 00000000 		.4byte	0
 3947 0488 00000000 		.4byte	0
 3948              	.LLST32:
 3949 048c 38000000 		.4byte	.LVL43
 3950 0490 3E000000 		.4byte	.LVL44
 3951 0494 0100     		.2byte	0x1
 3952 0496 53       		.byte	0x53
 3953 0497 5E000000 		.4byte	.LVL47
 3954 049b 68000000 		.4byte	.LVL49
 3955 049f 0100     		.2byte	0x1
 3956 04a1 53       		.byte	0x53
 3957 04a2 00000000 		.4byte	0
 3958 04a6 00000000 		.4byte	0
 3959              	.LLST33:
 3960 04aa 1C000000 		.4byte	.LVL38
 3961 04ae 21000000 		.4byte	.LVL39-1
 3962 04b2 0100     		.2byte	0x1
 3963 04b4 53       		.byte	0x53
 3964 04b5 22000000 		.4byte	.LVL39
 3965 04b9 2D000000 		.4byte	.LVL41-1
 3966 04bd 0100     		.2byte	0x1
 3967 04bf 53       		.byte	0x53
 3968 04c0 3E000000 		.4byte	.LVL44
 3969 04c4 40000000 		.4byte	.LVL45
 3970 04c8 0100     		.2byte	0x1
 3971 04ca 53       		.byte	0x53
 3972 04cb 6C000000 		.4byte	.LVL50
 3973 04cf 72000000 		.4byte	.LFE12
 3974 04d3 0100     		.2byte	0x1
 3975 04d5 53       		.byte	0x53
 3976 04d6 00000000 		.4byte	0
 3977 04da 00000000 		.4byte	0
 3978              	.LLST34:
 3979 04de 00000000 		.4byte	.LFB13
 3980 04e2 02000000 		.4byte	.LCFI6
 3981 04e6 0200     		.2byte	0x2
 3982 04e8 7D       		.byte	0x7d
ARM GAS  C:\Users\jenny\AppData\Local\Temp\ccR8wREU.s 			page 71


 3983 04e9 00       		.sleb128 0
 3984 04ea 02000000 		.4byte	.LCFI6
 3985 04ee 1C000000 		.4byte	.LFE13
 3986 04f2 0200     		.2byte	0x2
 3987 04f4 7D       		.byte	0x7d
 3988 04f5 04       		.sleb128 4
 3989 04f6 00000000 		.4byte	0
 3990 04fa 00000000 		.4byte	0
 3991              	.LLST35:
 3992 04fe 00000000 		.4byte	.LVL51
 3993 0502 06000000 		.4byte	.LVL52
 3994 0506 0100     		.2byte	0x1
 3995 0508 53       		.byte	0x53
 3996 0509 06000000 		.4byte	.LVL52
 3997 050d 1C000000 		.4byte	.LFE13
 3998 0511 0200     		.2byte	0x2
 3999 0513 70       		.byte	0x70
 4000 0514 1C       		.sleb128 28
 4001 0515 00000000 		.4byte	0
 4002 0519 00000000 		.4byte	0
 4003              	.LLST36:
 4004 051d 00000000 		.4byte	.LFB14
 4005 0521 02000000 		.4byte	.LCFI7
 4006 0525 0200     		.2byte	0x2
 4007 0527 7D       		.byte	0x7d
 4008 0528 00       		.sleb128 0
 4009 0529 02000000 		.4byte	.LCFI7
 4010 052d 2E000000 		.4byte	.LFE14
 4011 0531 0200     		.2byte	0x2
 4012 0533 7D       		.byte	0x7d
 4013 0534 10       		.sleb128 16
 4014 0535 00000000 		.4byte	0
 4015 0539 00000000 		.4byte	0
 4016              	.LLST37:
 4017 053d 00000000 		.4byte	.LVL53
 4018 0541 0A000000 		.4byte	.LVL54
 4019 0545 0100     		.2byte	0x1
 4020 0547 50       		.byte	0x50
 4021 0548 0A000000 		.4byte	.LVL54
 4022 054c 2E000000 		.4byte	.LFE14
 4023 0550 0100     		.2byte	0x1
 4024 0552 54       		.byte	0x54
 4025 0553 00000000 		.4byte	0
 4026 0557 00000000 		.4byte	0
 4027              	.LLST38:
 4028 055b 1A000000 		.4byte	.LVL55
 4029 055f 2C000000 		.4byte	.LVL57
 4030 0563 0100     		.2byte	0x1
 4031 0565 54       		.byte	0x54
 4032 0566 00000000 		.4byte	0
 4033 056a 00000000 		.4byte	0
 4034              	.LLST39:
 4035 056e 1A000000 		.4byte	.LVL55
 4036 0572 23000000 		.4byte	.LVL56-1
 4037 0576 0100     		.2byte	0x1
 4038 0578 50       		.byte	0x50
 4039 0579 00000000 		.4byte	0
ARM GAS  C:\Users\jenny\AppData\Local\Temp\ccR8wREU.s 			page 72


 4040 057d 00000000 		.4byte	0
 4041              	.LLST40:
 4042 0581 00000000 		.4byte	.LFB15
 4043 0585 02000000 		.4byte	.LCFI8
 4044 0589 0200     		.2byte	0x2
 4045 058b 7D       		.byte	0x7d
 4046 058c 00       		.sleb128 0
 4047 058d 02000000 		.4byte	.LCFI8
 4048 0591 50000000 		.4byte	.LFE15
 4049 0595 0200     		.2byte	0x2
 4050 0597 7D       		.byte	0x7d
 4051 0598 18       		.sleb128 24
 4052 0599 00000000 		.4byte	0
 4053 059d 00000000 		.4byte	0
 4054              	.LLST41:
 4055 05a1 00000000 		.4byte	.LVL58
 4056 05a5 0E000000 		.4byte	.LVL60
 4057 05a9 0100     		.2byte	0x1
 4058 05ab 50       		.byte	0x50
 4059 05ac 0E000000 		.4byte	.LVL60
 4060 05b0 16000000 		.4byte	.LVL61
 4061 05b4 0100     		.2byte	0x1
 4062 05b6 54       		.byte	0x54
 4063 05b7 16000000 		.4byte	.LVL61
 4064 05bb 19000000 		.4byte	.LVL62-1
 4065 05bf 0100     		.2byte	0x1
 4066 05c1 50       		.byte	0x50
 4067 05c2 19000000 		.4byte	.LVL62-1
 4068 05c6 26000000 		.4byte	.LVL65
 4069 05ca 0100     		.2byte	0x1
 4070 05cc 54       		.byte	0x54
 4071 05cd 26000000 		.4byte	.LVL65
 4072 05d1 44000000 		.4byte	.LVL68
 4073 05d5 0100     		.2byte	0x1
 4074 05d7 50       		.byte	0x50
 4075 05d8 44000000 		.4byte	.LVL68
 4076 05dc 50000000 		.4byte	.LFE15
 4077 05e0 0100     		.2byte	0x1
 4078 05e2 54       		.byte	0x54
 4079 05e3 00000000 		.4byte	0
 4080 05e7 00000000 		.4byte	0
 4081              	.LLST42:
 4082 05eb 00000000 		.4byte	.LVL58
 4083 05ef 0E000000 		.4byte	.LVL60
 4084 05f3 0100     		.2byte	0x1
 4085 05f5 51       		.byte	0x51
 4086 05f6 0E000000 		.4byte	.LVL60
 4087 05fa 50000000 		.4byte	.LFE15
 4088 05fe 0400     		.2byte	0x4
 4089 0600 F3       		.byte	0xf3
 4090 0601 01       		.uleb128 0x1
 4091 0602 51       		.byte	0x51
 4092 0603 9F       		.byte	0x9f
 4093 0604 00000000 		.4byte	0
 4094 0608 00000000 		.4byte	0
 4095              	.LLST43:
 4096 060c 00000000 		.4byte	.LVL58
ARM GAS  C:\Users\jenny\AppData\Local\Temp\ccR8wREU.s 			page 73


 4097 0610 0E000000 		.4byte	.LVL60
 4098 0614 0100     		.2byte	0x1
 4099 0616 52       		.byte	0x52
 4100 0617 0E000000 		.4byte	.LVL60
 4101 061b 16000000 		.4byte	.LVL61
 4102 061f 0100     		.2byte	0x1
 4103 0621 56       		.byte	0x56
 4104 0622 16000000 		.4byte	.LVL61
 4105 0626 19000000 		.4byte	.LVL62-1
 4106 062a 0100     		.2byte	0x1
 4107 062c 51       		.byte	0x51
 4108 062d 19000000 		.4byte	.LVL62-1
 4109 0631 26000000 		.4byte	.LVL65
 4110 0635 0100     		.2byte	0x1
 4111 0637 56       		.byte	0x56
 4112 0638 26000000 		.4byte	.LVL65
 4113 063c 3C000000 		.4byte	.LVL67
 4114 0640 0100     		.2byte	0x1
 4115 0642 51       		.byte	0x51
 4116 0643 3C000000 		.4byte	.LVL67
 4117 0647 50000000 		.4byte	.LFE15
 4118 064b 0100     		.2byte	0x1
 4119 064d 56       		.byte	0x56
 4120 064e 00000000 		.4byte	0
 4121 0652 00000000 		.4byte	0
 4122              	.LLST44:
 4123 0656 0E000000 		.4byte	.LVL60
 4124 065a 19000000 		.4byte	.LVL62-1
 4125 065e 0100     		.2byte	0x1
 4126 0660 53       		.byte	0x53
 4127 0661 26000000 		.4byte	.LVL65
 4128 0665 28000000 		.4byte	.LVL66
 4129 0669 0100     		.2byte	0x1
 4130 066b 53       		.byte	0x53
 4131 066c 00000000 		.4byte	0
 4132 0670 00000000 		.4byte	0
 4133              	.LLST45:
 4134 0674 1A000000 		.4byte	.LVL62
 4135 0678 26000000 		.4byte	.LVL65
 4136 067c 0100     		.2byte	0x1
 4137 067e 50       		.byte	0x50
 4138 067f 00000000 		.4byte	0
 4139 0683 00000000 		.4byte	0
 4140              	.LLST46:
 4141 0687 24000000 		.4byte	.LVL64
 4142 068b 26000000 		.4byte	.LVL65
 4143 068f 0100     		.2byte	0x1
 4144 0691 53       		.byte	0x53
 4145 0692 00000000 		.4byte	0
 4146 0696 00000000 		.4byte	0
 4147              	.LLST47:
 4148 069a 4C000000 		.4byte	.LVL71
 4149 069e 50000000 		.4byte	.LFE15
 4150 06a2 0100     		.2byte	0x1
 4151 06a4 53       		.byte	0x53
 4152 06a5 00000000 		.4byte	0
 4153 06a9 00000000 		.4byte	0
ARM GAS  C:\Users\jenny\AppData\Local\Temp\ccR8wREU.s 			page 74


 4154              	.LLST48:
 4155 06ad 00000000 		.4byte	.LFB16
 4156 06b1 0A000000 		.4byte	.LCFI9
 4157 06b5 0200     		.2byte	0x2
 4158 06b7 7D       		.byte	0x7d
 4159 06b8 00       		.sleb128 0
 4160 06b9 0A000000 		.4byte	.LCFI9
 4161 06bd 46000000 		.4byte	.LFE16
 4162 06c1 0200     		.2byte	0x2
 4163 06c3 7D       		.byte	0x7d
 4164 06c4 08       		.sleb128 8
 4165 06c5 00000000 		.4byte	0
 4166 06c9 00000000 		.4byte	0
 4167              	.LLST49:
 4168 06cd 00000000 		.4byte	.LVL72
 4169 06d1 0C000000 		.4byte	.LVL73
 4170 06d5 0100     		.2byte	0x1
 4171 06d7 50       		.byte	0x50
 4172 06d8 0C000000 		.4byte	.LVL73
 4173 06dc 2D000000 		.4byte	.LVL76-1
 4174 06e0 0100     		.2byte	0x1
 4175 06e2 53       		.byte	0x53
 4176 06e3 2D000000 		.4byte	.LVL76-1
 4177 06e7 36000000 		.4byte	.LVL78
 4178 06eb 0400     		.2byte	0x4
 4179 06ed F3       		.byte	0xf3
 4180 06ee 01       		.uleb128 0x1
 4181 06ef 50       		.byte	0x50
 4182 06f0 9F       		.byte	0x9f
 4183 06f1 36000000 		.4byte	.LVL78
 4184 06f5 46000000 		.4byte	.LFE16
 4185 06f9 0100     		.2byte	0x1
 4186 06fb 53       		.byte	0x53
 4187 06fc 00000000 		.4byte	0
 4188 0700 00000000 		.4byte	0
 4189              	.LLST50:
 4190 0704 16000000 		.4byte	.LVL74
 4191 0708 2D000000 		.4byte	.LVL76-1
 4192 070c 0300     		.2byte	0x3
 4193 070e 73       		.byte	0x73
 4194 070f 18       		.sleb128 24
 4195 0710 06       		.byte	0x6
 4196 0711 2D000000 		.4byte	.LVL76-1
 4197 0715 36000000 		.4byte	.LVL78
 4198 0719 0100     		.2byte	0x1
 4199 071b 54       		.byte	0x54
 4200 071c 36000000 		.4byte	.LVL78
 4201 0720 3C000000 		.4byte	.LVL79
 4202 0724 0300     		.2byte	0x3
 4203 0726 73       		.byte	0x73
 4204 0727 18       		.sleb128 24
 4205 0728 06       		.byte	0x6
 4206 0729 00000000 		.4byte	0
 4207 072d 00000000 		.4byte	0
 4208              	.LLST51:
 4209 0731 24000000 		.4byte	.LVL75
 4210 0735 2D000000 		.4byte	.LVL76-1
ARM GAS  C:\Users\jenny\AppData\Local\Temp\ccR8wREU.s 			page 75


 4211 0739 0100     		.2byte	0x1
 4212 073b 53       		.byte	0x53
 4213 073c 2D000000 		.4byte	.LVL76-1
 4214 0740 32000000 		.4byte	.LVL77
 4215 0744 0400     		.2byte	0x4
 4216 0746 F3       		.byte	0xf3
 4217 0747 01       		.uleb128 0x1
 4218 0748 50       		.byte	0x50
 4219 0749 9F       		.byte	0x9f
 4220 074a 00000000 		.4byte	0
 4221 074e 00000000 		.4byte	0
 4222              	.LLST52:
 4223 0752 24000000 		.4byte	.LVL75
 4224 0756 2D000000 		.4byte	.LVL76-1
 4225 075a 0100     		.2byte	0x1
 4226 075c 50       		.byte	0x50
 4227 075d 00000000 		.4byte	0
 4228 0761 00000000 		.4byte	0
 4229              	.LLST53:
 4230 0765 00000000 		.4byte	.LFB17
 4231 0769 04000000 		.4byte	.LCFI10
 4232 076d 0200     		.2byte	0x2
 4233 076f 7D       		.byte	0x7d
 4234 0770 00       		.sleb128 0
 4235 0771 04000000 		.4byte	.LCFI10
 4236 0775 74000000 		.4byte	.LFE17
 4237 0779 0200     		.2byte	0x2
 4238 077b 7D       		.byte	0x7d
 4239 077c 20       		.sleb128 32
 4240 077d 00000000 		.4byte	0
 4241 0781 00000000 		.4byte	0
 4242              	.LLST54:
 4243 0785 00000000 		.4byte	.LVL80
 4244 0789 18000000 		.4byte	.LVL84
 4245 078d 0100     		.2byte	0x1
 4246 078f 50       		.byte	0x50
 4247 0790 18000000 		.4byte	.LVL84
 4248 0794 20000000 		.4byte	.LVL86
 4249 0798 0100     		.2byte	0x1
 4250 079a 54       		.byte	0x54
 4251 079b 20000000 		.4byte	.LVL86
 4252 079f 3F000000 		.4byte	.LVL89-1
 4253 07a3 0100     		.2byte	0x1
 4254 07a5 50       		.byte	0x50
 4255 07a6 3F000000 		.4byte	.LVL89-1
 4256 07aa 5C000000 		.4byte	.LVL97
 4257 07ae 0100     		.2byte	0x1
 4258 07b0 54       		.byte	0x54
 4259 07b1 5C000000 		.4byte	.LVL97
 4260 07b5 5E000000 		.4byte	.LVL98
 4261 07b9 0100     		.2byte	0x1
 4262 07bb 50       		.byte	0x50
 4263 07bc 5E000000 		.4byte	.LVL98
 4264 07c0 74000000 		.4byte	.LFE17
 4265 07c4 0100     		.2byte	0x1
 4266 07c6 54       		.byte	0x54
 4267 07c7 00000000 		.4byte	0
ARM GAS  C:\Users\jenny\AppData\Local\Temp\ccR8wREU.s 			page 76


 4268 07cb 00000000 		.4byte	0
 4269              	.LLST55:
 4270 07cf 00000000 		.4byte	.LVL80
 4271 07d3 18000000 		.4byte	.LVL84
 4272 07d7 0100     		.2byte	0x1
 4273 07d9 51       		.byte	0x51
 4274 07da 18000000 		.4byte	.LVL84
 4275 07de 28000000 		.4byte	.LVL87
 4276 07e2 0100     		.2byte	0x1
 4277 07e4 58       		.byte	0x58
 4278 07e5 28000000 		.4byte	.LVL87
 4279 07e9 30000000 		.4byte	.LVL88
 4280 07ed 0300     		.2byte	0x3
 4281 07ef 78       		.byte	0x78
 4282 07f0 7F       		.sleb128 -1
 4283 07f1 9F       		.byte	0x9f
 4284 07f2 30000000 		.4byte	.LVL88
 4285 07f6 74000000 		.4byte	.LFE17
 4286 07fa 0100     		.2byte	0x1
 4287 07fc 58       		.byte	0x58
 4288 07fd 00000000 		.4byte	0
 4289 0801 00000000 		.4byte	0
 4290              	.LLST56:
 4291 0805 00000000 		.4byte	.LVL80
 4292 0809 18000000 		.4byte	.LVL84
 4293 080d 0100     		.2byte	0x1
 4294 080f 52       		.byte	0x52
 4295 0810 18000000 		.4byte	.LVL84
 4296 0814 48000000 		.4byte	.LVL92
 4297 0818 0100     		.2byte	0x1
 4298 081a 56       		.byte	0x56
 4299 081b 48000000 		.4byte	.LVL92
 4300 081f 4A000000 		.4byte	.LVL93
 4301 0823 0300     		.2byte	0x3
 4302 0825 76       		.byte	0x76
 4303 0826 7F       		.sleb128 -1
 4304 0827 9F       		.byte	0x9f
 4305 0828 4A000000 		.4byte	.LVL93
 4306 082c 74000000 		.4byte	.LFE17
 4307 0830 0100     		.2byte	0x1
 4308 0832 56       		.byte	0x56
 4309 0833 00000000 		.4byte	0
 4310 0837 00000000 		.4byte	0
 4311              	.LLST57:
 4312 083b 00000000 		.4byte	.LVL80
 4313 083f 12000000 		.4byte	.LVL82
 4314 0843 0100     		.2byte	0x1
 4315 0845 53       		.byte	0x53
 4316 0846 12000000 		.4byte	.LVL82
 4317 084a 74000000 		.4byte	.LFE17
 4318 084e 0100     		.2byte	0x1
 4319 0850 5A       		.byte	0x5a
 4320 0851 00000000 		.4byte	0
 4321 0855 00000000 		.4byte	0
 4322              	.LLST58:
 4323 0859 10000000 		.4byte	.LVL81
 4324 085d 18000000 		.4byte	.LVL84
ARM GAS  C:\Users\jenny\AppData\Local\Temp\ccR8wREU.s 			page 77


 4325 0861 0200     		.2byte	0x2
 4326 0863 30       		.byte	0x30
 4327 0864 9F       		.byte	0x9f
 4328 0865 18000000 		.4byte	.LVL84
 4329 0869 74000000 		.4byte	.LFE17
 4330 086d 0100     		.2byte	0x1
 4331 086f 57       		.byte	0x57
 4332 0870 00000000 		.4byte	0
 4333 0874 00000000 		.4byte	0
 4334              	.LLST59:
 4335 0878 16000000 		.4byte	.LVL83
 4336 087c 1E000000 		.4byte	.LVL85
 4337 0880 0100     		.2byte	0x1
 4338 0882 53       		.byte	0x53
 4339 0883 00000000 		.4byte	0
 4340 0887 00000000 		.4byte	0
 4341              	.LLST60:
 4342 088b 46000000 		.4byte	.LVL91
 4343 088f 4E000000 		.4byte	.LVL94
 4344 0893 0100     		.2byte	0x1
 4345 0895 53       		.byte	0x53
 4346 0896 6E000000 		.4byte	.LVL101
 4347 089a 74000000 		.4byte	.LFE17
 4348 089e 0100     		.2byte	0x1
 4349 08a0 53       		.byte	0x53
 4350 08a1 00000000 		.4byte	0
 4351 08a5 00000000 		.4byte	0
 4352              	.LLST61:
 4353 08a9 52000000 		.4byte	.LVL95
 4354 08ad 58000000 		.4byte	.LVL96
 4355 08b1 0100     		.2byte	0x1
 4356 08b3 53       		.byte	0x53
 4357 08b4 00000000 		.4byte	0
 4358 08b8 00000000 		.4byte	0
 4359              	.LLST62:
 4360 08bc 6E000000 		.4byte	.LVL101
 4361 08c0 74000000 		.4byte	.LFE17
 4362 08c4 0100     		.2byte	0x1
 4363 08c6 53       		.byte	0x53
 4364 08c7 00000000 		.4byte	0
 4365 08cb 00000000 		.4byte	0
 4366              		.section	.debug_aranges,"",%progbits
 4367 0000 6C000000 		.4byte	0x6c
 4368 0004 0200     		.2byte	0x2
 4369 0006 00000000 		.4byte	.Ldebug_info0
 4370 000a 04       		.byte	0x4
 4371 000b 00       		.byte	0
 4372 000c 0000     		.2byte	0
 4373 000e 0000     		.2byte	0
 4374 0010 00000000 		.4byte	.LFB7
 4375 0014 2C000000 		.4byte	.LFE7-.LFB7
 4376 0018 00000000 		.4byte	.LFB8
 4377 001c 1E000000 		.4byte	.LFE8-.LFB8
 4378 0020 00000000 		.4byte	.LFB9
 4379 0024 2C000000 		.4byte	.LFE9-.LFB9
 4380 0028 00000000 		.4byte	.LFB10
 4381 002c 4E000000 		.4byte	.LFE10-.LFB10
ARM GAS  C:\Users\jenny\AppData\Local\Temp\ccR8wREU.s 			page 78


 4382 0030 00000000 		.4byte	.LFB11
 4383 0034 48000000 		.4byte	.LFE11-.LFB11
 4384 0038 00000000 		.4byte	.LFB12
 4385 003c 72000000 		.4byte	.LFE12-.LFB12
 4386 0040 00000000 		.4byte	.LFB13
 4387 0044 1C000000 		.4byte	.LFE13-.LFB13
 4388 0048 00000000 		.4byte	.LFB14
 4389 004c 2E000000 		.4byte	.LFE14-.LFB14
 4390 0050 00000000 		.4byte	.LFB15
 4391 0054 50000000 		.4byte	.LFE15-.LFB15
 4392 0058 00000000 		.4byte	.LFB16
 4393 005c 46000000 		.4byte	.LFE16-.LFB16
 4394 0060 00000000 		.4byte	.LFB17
 4395 0064 74000000 		.4byte	.LFE17-.LFB17
 4396 0068 00000000 		.4byte	0
 4397 006c 00000000 		.4byte	0
 4398              		.section	.debug_ranges,"",%progbits
 4399              	.Ldebug_ranges0:
 4400 0000 0C000000 		.4byte	.LBB12
 4401 0004 0E000000 		.4byte	.LBE12
 4402 0008 10000000 		.4byte	.LBB15
 4403 000c 18000000 		.4byte	.LBE15
 4404 0010 00000000 		.4byte	0
 4405 0014 00000000 		.4byte	0
 4406 0018 02000000 		.4byte	.LBB20
 4407 001c 04000000 		.4byte	.LBE20
 4408 0020 08000000 		.4byte	.LBB21
 4409 0024 0C000000 		.4byte	.LBE21
 4410 0028 00000000 		.4byte	0
 4411 002c 00000000 		.4byte	0
 4412 0030 14000000 		.4byte	.LBB22
 4413 0034 18000000 		.4byte	.LBE22
 4414 0038 1A000000 		.4byte	.LBB24
 4415 003c 2A000000 		.4byte	.LBE24
 4416 0040 00000000 		.4byte	0
 4417 0044 00000000 		.4byte	0
 4418 0048 0A000000 		.4byte	.LBB26
 4419 004c 10000000 		.4byte	.LBE26
 4420 0050 14000000 		.4byte	.LBB27
 4421 0054 1C000000 		.4byte	.LBE27
 4422 0058 00000000 		.4byte	0
 4423 005c 00000000 		.4byte	0
 4424 0060 10000000 		.4byte	.LBB34
 4425 0064 14000000 		.4byte	.LBE34
 4426 0068 16000000 		.4byte	.LBB36
 4427 006c 26000000 		.4byte	.LBE36
 4428 0070 00000000 		.4byte	0
 4429 0074 00000000 		.4byte	0
 4430 0078 00000000 		.4byte	.LFB7
 4431 007c 2C000000 		.4byte	.LFE7
 4432 0080 00000000 		.4byte	.LFB8
 4433 0084 1E000000 		.4byte	.LFE8
 4434 0088 00000000 		.4byte	.LFB9
 4435 008c 2C000000 		.4byte	.LFE9
 4436 0090 00000000 		.4byte	.LFB10
 4437 0094 4E000000 		.4byte	.LFE10
 4438 0098 00000000 		.4byte	.LFB11
ARM GAS  C:\Users\jenny\AppData\Local\Temp\ccR8wREU.s 			page 79


 4439 009c 48000000 		.4byte	.LFE11
 4440 00a0 00000000 		.4byte	.LFB12
 4441 00a4 72000000 		.4byte	.LFE12
 4442 00a8 00000000 		.4byte	.LFB13
 4443 00ac 1C000000 		.4byte	.LFE13
 4444 00b0 00000000 		.4byte	.LFB14
 4445 00b4 2E000000 		.4byte	.LFE14
 4446 00b8 00000000 		.4byte	.LFB15
 4447 00bc 50000000 		.4byte	.LFE15
 4448 00c0 00000000 		.4byte	.LFB16
 4449 00c4 46000000 		.4byte	.LFE16
 4450 00c8 00000000 		.4byte	.LFB17
 4451 00cc 74000000 		.4byte	.LFE17
 4452 00d0 00000000 		.4byte	0
 4453 00d4 00000000 		.4byte	0
 4454              		.section	.debug_line,"",%progbits
 4455              	.Ldebug_line0:
 4456 0000 7A030000 		.section	.debug_str,"MS",%progbits,1
 4456      02007B01 
 4456      00000201 
 4456      FB0E0D00 
 4456      01010101 
 4457              	.LASF86:
 4458 0000 63684F51 		.ascii	"chOQInit\000"
 4458      496E6974 
 4458      00
 4459              	.LASF38:
 4460 0009 705F6D73 		.ascii	"p_msg\000"
 4460      6700
 4461              	.LASF95:
 4462 000f 71756575 		.ascii	"queue_insert\000"
 4462      655F696E 
 4462      73657274 
 4462      00
 4463              	.LASF87:
 4464 001c 6F6E6679 		.ascii	"onfy\000"
 4464      00
 4465              	.LASF2:
 4466 0021 73697A65 		.ascii	"size_t\000"
 4466      5F7400
 4467              	.LASF60:
 4468 0028 7264796D 		.ascii	"rdymsg\000"
 4468      736700
 4469              	.LASF81:
 4470 002f 63684951 		.ascii	"chIQInit\000"
 4470      496E6974 
 4470      00
 4471              	.LASF76:
 4472 0038 4F757470 		.ascii	"OutputQueue\000"
 4472      75745175 
 4472      65756500 
 4473              	.LASF85:
 4474 0044 63684951 		.ascii	"chIQReadTimeout\000"
 4474      52656164 
 4474      54696D65 
 4474      6F757400 
 4475              	.LASF12:
ARM GAS  C:\Users\jenny\AppData\Local\Temp\ccR8wREU.s 			page 80


 4476 0054 6C6F6E67 		.ascii	"long long unsigned int\000"
 4476      206C6F6E 
 4476      6720756E 
 4476      7369676E 
 4476      65642069 
 4477              	.LASF91:
 4478 006b 63684F51 		.ascii	"chOQWriteTimeout\000"
 4478      57726974 
 4478      6554696D 
 4478      656F7574 
 4478      00
 4479              	.LASF26:
 4480 007c 705F7072 		.ascii	"p_prio\000"
 4480      696F00
 4481              	.LASF66:
 4482 0083 715F7761 		.ascii	"q_waiting\000"
 4482      6974696E 
 4482      6700
 4483              	.LASF11:
 4484 008d 6C6F6E67 		.ascii	"long long int\000"
 4484      206C6F6E 
 4484      6720696E 
 4484      7400
 4485              	.LASF1:
 4486 009b 7369676E 		.ascii	"signed char\000"
 4486      65642063 
 4486      68617200 
 4487              	.LASF42:
 4488 00a7 705F6D70 		.ascii	"p_mpool\000"
 4488      6F6F6C00 
 4489              	.LASF13:
 4490 00af 626F6F6C 		.ascii	"bool_t\000"
 4490      5F7400
 4491              	.LASF57:
 4492 00b6 6D5F7175 		.ascii	"m_queue\000"
 4492      65756500 
 4493              	.LASF18:
 4494 00be 74736C69 		.ascii	"tslices_t\000"
 4494      6365735F 
 4494      7400
 4495              	.LASF97:
 4496 00c8 71776169 		.ascii	"qwait\000"
 4496      7400
 4497              	.LASF92:
 4498 00ce 474E5520 		.ascii	"GNU C 4.7.4 20130913 (release) [ARM/embedded-4_7-br"
 4498      4320342E 
 4498      372E3420 
 4498      32303133 
 4498      30393133 
 4499 0101 616E6368 		.ascii	"anch revision 202601]\000"
 4499      20726576 
 4499      6973696F 
 4499      6E203230 
 4499      32363031 
 4500              	.LASF8:
 4501 0117 6C6F6E67 		.ascii	"long int\000"
 4501      20696E74 
ARM GAS  C:\Users\jenny\AppData\Local\Temp\ccR8wREU.s 			page 81


 4501      00
 4502              	.LASF16:
 4503 0120 74737461 		.ascii	"tstate_t\000"
 4503      74655F74 
 4503      00
 4504              	.LASF90:
 4505 0129 63684F51 		.ascii	"chOQGetI\000"
 4505      47657449 
 4505      00
 4506              	.LASF28:
 4507 0132 705F6E65 		.ascii	"p_newer\000"
 4507      77657200 
 4508              	.LASF61:
 4509 013a 65786974 		.ascii	"exitcode\000"
 4509      636F6465 
 4509      00
 4510              	.LASF52:
 4511 0143 725F6E65 		.ascii	"r_newer\000"
 4511      77657200 
 4512              	.LASF45:
 4513 014b 72656761 		.ascii	"regarm_t\000"
 4513      726D5F74 
 4513      00
 4514              	.LASF80:
 4515 0154 6C696E6B 		.ascii	"link\000"
 4515      00
 4516              	.LASF89:
 4517 0159 63684F51 		.ascii	"chOQPutTimeout\000"
 4517      50757454 
 4517      696D656F 
 4517      757400
 4518              	.LASF83:
 4519 0168 63684951 		.ascii	"chIQPutI\000"
 4519      50757449 
 4519      00
 4520              	.LASF0:
 4521 0171 756E7369 		.ascii	"unsigned int\000"
 4521      676E6564 
 4521      20696E74 
 4521      00
 4522              	.LASF82:
 4523 017e 63684951 		.ascii	"chIQResetI\000"
 4523      52657365 
 4523      744900
 4524              	.LASF10:
 4525 0189 6C6F6E67 		.ascii	"long unsigned int\000"
 4525      20756E73 
 4525      69676E65 
 4525      6420696E 
 4525      7400
 4526              	.LASF47:
 4527 019b 636F6E74 		.ascii	"context\000"
 4527      65787400 
 4528              	.LASF78:
 4529 01a3 73697A65 		.ascii	"size\000"
 4529      00
 4530              	.LASF6:
ARM GAS  C:\Users\jenny\AppData\Local\Temp\ccR8wREU.s 			page 82


 4531 01a8 73686F72 		.ascii	"short unsigned int\000"
 4531      7420756E 
 4531      7369676E 
 4531      65642069 
 4531      6E7400
 4532              	.LASF20:
 4533 01bb 6D73675F 		.ascii	"msg_t\000"
 4533      7400
 4534              	.LASF93:
 4535 01c1 2E2E2F2E 		.ascii	"../../os/kernel/src/chqueues.c\000"
 4535      2E2F6F73 
 4535      2F6B6572 
 4535      6E656C2F 
 4535      7372632F 
 4536              	.LASF44:
 4537 01e0 54687265 		.ascii	"ThreadsList\000"
 4537      6164734C 
 4537      69737400 
 4538              	.LASF21:
 4539 01ec 6576656E 		.ascii	"eventmask_t\000"
 4539      746D6173 
 4539      6B5F7400 
 4540              	.LASF75:
 4541 01f8 496E7075 		.ascii	"InputQueue\000"
 4541      74517565 
 4541      756500
 4542              	.LASF56:
 4543 0203 4D757465 		.ascii	"Mutex\000"
 4543      7800
 4544              	.LASF65:
 4545 0209 47656E65 		.ascii	"GenericQueue\000"
 4545      72696351 
 4545      75657565 
 4545      00
 4546              	.LASF68:
 4547 0216 715F6275 		.ascii	"q_buffer\000"
 4547      66666572 
 4547      00
 4548              	.LASF48:
 4549 021f 73697A65 		.ascii	"sizetype\000"
 4549      74797065 
 4549      00
 4550              	.LASF67:
 4551 0228 715F636F 		.ascii	"q_counter\000"
 4551      756E7465 
 4551      7200
 4552              	.LASF29:
 4553 0232 705F6F6C 		.ascii	"p_older\000"
 4553      64657200 
 4554              	.LASF70:
 4555 023a 715F7772 		.ascii	"q_wrptr\000"
 4555      70747200 
 4556              	.LASF51:
 4557 0242 725F6374 		.ascii	"r_ctx\000"
 4557      7800
 4558              	.LASF43:
 4559 0248 54687265 		.ascii	"ThreadsQueue\000"
ARM GAS  C:\Users\jenny\AppData\Local\Temp\ccR8wREU.s 			page 83


 4559      61647351 
 4559      75657565 
 4559      00
 4560              	.LASF77:
 4561 0255 74696D65 		.ascii	"time\000"
 4561      00
 4562              	.LASF54:
 4563 025a 725F6375 		.ascii	"r_current\000"
 4563      7272656E 
 4563      7400
 4564              	.LASF53:
 4565 0264 725F6F6C 		.ascii	"r_older\000"
 4565      64657200 
 4566              	.LASF17:
 4567 026c 74726566 		.ascii	"trefs_t\000"
 4567      735F7400 
 4568              	.LASF74:
 4569 0274 716E6F74 		.ascii	"qnotify_t\000"
 4569      6966795F 
 4569      7400
 4570              	.LASF25:
 4571 027e 705F7072 		.ascii	"p_prev\000"
 4571      657600
 4572              	.LASF19:
 4573 0285 74707269 		.ascii	"tprio_t\000"
 4573      6F5F7400 
 4574              	.LASF71:
 4575 028d 715F7264 		.ascii	"q_rdptr\000"
 4575      70747200 
 4576              	.LASF14:
 4577 0295 5F426F6F 		.ascii	"_Bool\000"
 4577      6C00
 4578              	.LASF7:
 4579 029b 696E7433 		.ascii	"int32_t\000"
 4579      325F7400 
 4580              	.LASF4:
 4581 02a3 756E7369 		.ascii	"unsigned char\000"
 4581      676E6564 
 4581      20636861 
 4581      7200
 4582              	.LASF40:
 4583 02b1 705F6D74 		.ascii	"p_mtxlist\000"
 4583      786C6973 
 4583      7400
 4584              	.LASF5:
 4585 02bb 73686F72 		.ascii	"short int\000"
 4585      7420696E 
 4585      7400
 4586              	.LASF31:
 4587 02c5 705F7374 		.ascii	"p_state\000"
 4587      61746500 
 4588              	.LASF34:
 4589 02cd 705F7072 		.ascii	"p_preempt\000"
 4589      65656D70 
 4589      7400
 4590              	.LASF50:
 4591 02d7 725F7072 		.ascii	"r_prio\000"
ARM GAS  C:\Users\jenny\AppData\Local\Temp\ccR8wREU.s 			page 84


 4591      696F00
 4592              	.LASF63:
 4593 02de 65776D61 		.ascii	"ewmask\000"
 4593      736B00
 4594              	.LASF24:
 4595 02e5 705F6E65 		.ascii	"p_next\000"
 4595      787400
 4596              	.LASF15:
 4597 02ec 746D6F64 		.ascii	"tmode_t\000"
 4597      655F7400 
 4598              	.LASF32:
 4599 02f4 705F666C 		.ascii	"p_flags\000"
 4599      61677300 
 4600              	.LASF23:
 4601 02fc 54687265 		.ascii	"Thread\000"
 4601      616400
 4602              	.LASF39:
 4603 0303 705F6570 		.ascii	"p_epending\000"
 4603      656E6469 
 4603      6E6700
 4604              	.LASF9:
 4605 030e 75696E74 		.ascii	"uint32_t\000"
 4605      33325F74 
 4605      00
 4606              	.LASF49:
 4607 0317 725F7175 		.ascii	"r_queue\000"
 4607      65756500 
 4608              	.LASF64:
 4609 031f 63686172 		.ascii	"char\000"
 4609      00
 4610              	.LASF96:
 4611 0324 6669666F 		.ascii	"fifo_remove\000"
 4611      5F72656D 
 4611      6F766500 
 4612              	.LASF100:
 4613 0330 63685363 		.ascii	"chSchReadyI\000"
 4613      68526561 
 4613      64794900 
 4614              	.LASF59:
 4615 033c 6D5F6E65 		.ascii	"m_next\000"
 4615      787400
 4616              	.LASF22:
 4617 0343 73797374 		.ascii	"systime_t\000"
 4617      696D655F 
 4617      7400
 4618              	.LASF41:
 4619 034d 705F7265 		.ascii	"p_realprio\000"
 4619      616C7072 
 4619      696F00
 4620              	.LASF79:
 4621 0358 696E6679 		.ascii	"infy\000"
 4621      00
 4622              	.LASF88:
 4623 035d 63684F51 		.ascii	"chOQResetI\000"
 4623      52657365 
 4623      744900
 4624              	.LASF35:
ARM GAS  C:\Users\jenny\AppData\Local\Temp\ccR8wREU.s 			page 85


 4625 0368 705F7469 		.ascii	"p_time\000"
 4625      6D6500
 4626              	.LASF46:
 4627 036f 696E7463 		.ascii	"intctx\000"
 4627      747800
 4628              	.LASF37:
 4629 0376 705F6D73 		.ascii	"p_msgqueue\000"
 4629      67717565 
 4629      756500
 4630              	.LASF69:
 4631 0381 715F746F 		.ascii	"q_top\000"
 4631      7000
 4632              	.LASF33:
 4633 0387 705F7265 		.ascii	"p_refs\000"
 4633      667300
 4634              	.LASF55:
 4635 038e 52656164 		.ascii	"ReadyList\000"
 4635      794C6973 
 4635      7400
 4636              	.LASF72:
 4637 0398 715F6E6F 		.ascii	"q_notify\000"
 4637      74696679 
 4637      00
 4638              	.LASF98:
 4639 03a1 726C6973 		.ascii	"rlist\000"
 4639      7400
 4640              	.LASF3:
 4641 03a7 75696E74 		.ascii	"uint8_t\000"
 4641      385F7400 
 4642              	.LASF94:
 4643 03af 443A5C6A 		.ascii	"D:\\jenny\\dev\\probe\\chibios\\chibios.workspace\\"
 4643      656E6E79 
 4643      5C646576 
 4643      5C70726F 
 4643      62655C63 
 4644 03dc 64656D6F 		.ascii	"demos\\ARMCM4-STM32F407-LWIP-FATFS-USB\000"
 4644      735C4152 
 4644      4D434D34 
 4644      2D53544D 
 4644      33324634 
 4645              	.LASF62:
 4646 0402 77746F62 		.ascii	"wtobjp\000"
 4646      6A7000
 4647              	.LASF30:
 4648 0409 705F6E61 		.ascii	"p_name\000"
 4648      6D6500
 4649              	.LASF99:
 4650 0410 63685363 		.ascii	"chSchGoSleepTimeoutS\000"
 4650      68476F53 
 4650      6C656570 
 4650      54696D65 
 4650      6F757453 
 4651              	.LASF73:
 4652 0425 715F6C69 		.ascii	"q_link\000"
 4652      6E6B00
 4653              	.LASF58:
 4654 042c 6D5F6F77 		.ascii	"m_owner\000"
ARM GAS  C:\Users\jenny\AppData\Local\Temp\ccR8wREU.s 			page 86


 4654      6E657200 
 4655              	.LASF27:
 4656 0434 705F6374 		.ascii	"p_ctx\000"
 4656      7800
 4657              	.LASF36:
 4658 043a 705F7761 		.ascii	"p_waiting\000"
 4658      6974696E 
 4658      6700
 4659              	.LASF84:
 4660 0444 63684951 		.ascii	"chIQGetTimeout\000"
 4660      47657454 
 4660      696D656F 
 4660      757400
 4661              		.ident	"GCC: (GNU Tools for ARM Embedded Processors) 4.7.4 20130913 (release) [ARM/embedded-4_7-br
ARM GAS  C:\Users\jenny\AppData\Local\Temp\ccR8wREU.s 			page 87


DEFINED SYMBOLS
                            *ABS*:00000000 chqueues.c
C:\Users\jenny\AppData\Local\Temp\ccR8wREU.s:20     .text.qwait:00000000 $t
C:\Users\jenny\AppData\Local\Temp\ccR8wREU.s:25     .text.qwait:00000000 qwait
C:\Users\jenny\AppData\Local\Temp\ccR8wREU.s:80     .text.qwait:00000028 $d
C:\Users\jenny\AppData\Local\Temp\ccR8wREU.s:85     .text.chIQInit:00000000 $t
C:\Users\jenny\AppData\Local\Temp\ccR8wREU.s:91     .text.chIQInit:00000000 chIQInit
C:\Users\jenny\AppData\Local\Temp\ccR8wREU.s:134    .text.chIQResetI:00000000 $t
C:\Users\jenny\AppData\Local\Temp\ccR8wREU.s:140    .text.chIQResetI:00000000 chIQResetI
C:\Users\jenny\AppData\Local\Temp\ccR8wREU.s:200    .text.chIQPutI:00000000 $t
C:\Users\jenny\AppData\Local\Temp\ccR8wREU.s:206    .text.chIQPutI:00000000 chIQPutI
C:\Users\jenny\AppData\Local\Temp\ccR8wREU.s:293    .text.chIQGetTimeout:00000000 $t
C:\Users\jenny\AppData\Local\Temp\ccR8wREU.s:299    .text.chIQGetTimeout:00000000 chIQGetTimeout
C:\Users\jenny\AppData\Local\Temp\ccR8wREU.s:403    .text.chIQReadTimeout:00000000 $t
C:\Users\jenny\AppData\Local\Temp\ccR8wREU.s:409    .text.chIQReadTimeout:00000000 chIQReadTimeout
C:\Users\jenny\AppData\Local\Temp\ccR8wREU.s:541    .text.chOQInit:00000000 $t
C:\Users\jenny\AppData\Local\Temp\ccR8wREU.s:547    .text.chOQInit:00000000 chOQInit
C:\Users\jenny\AppData\Local\Temp\ccR8wREU.s:587    .text.chOQResetI:00000000 $t
C:\Users\jenny\AppData\Local\Temp\ccR8wREU.s:593    .text.chOQResetI:00000000 chOQResetI
C:\Users\jenny\AppData\Local\Temp\ccR8wREU.s:655    .text.chOQPutTimeout:00000000 $t
C:\Users\jenny\AppData\Local\Temp\ccR8wREU.s:661    .text.chOQPutTimeout:00000000 chOQPutTimeout
C:\Users\jenny\AppData\Local\Temp\ccR8wREU.s:772    .text.chOQGetI:00000000 $t
C:\Users\jenny\AppData\Local\Temp\ccR8wREU.s:778    .text.chOQGetI:00000000 chOQGetI
C:\Users\jenny\AppData\Local\Temp\ccR8wREU.s:856    .text.chOQWriteTimeout:00000000 $t
C:\Users\jenny\AppData\Local\Temp\ccR8wREU.s:862    .text.chOQWriteTimeout:00000000 chOQWriteTimeout
                     .debug_frame:00000010 $d
C:\Users\jenny\AppData\Local\Temp\ccR8wREU.s:84     .text.qwait:0000002c $t

UNDEFINED SYMBOLS
chSchGoSleepTimeoutS
rlist
chSchReadyI
