ARM GAS  C:\Users\jenny\AppData\Local\Temp\ccbhbpyh.s 			page 1


   1              		.syntax unified
   2              		.cpu cortex-m4
   3              		.eabi_attribute 27, 3
   4              		.fpu fpv4-sp-d16
   5              		.eabi_attribute 20, 1
   6              		.eabi_attribute 21, 1
   7              		.eabi_attribute 23, 3
   8              		.eabi_attribute 24, 1
   9              		.eabi_attribute 25, 1
  10              		.eabi_attribute 26, 1
  11              		.eabi_attribute 30, 2
  12              		.eabi_attribute 34, 1
  13              		.eabi_attribute 18, 4
  14              		.thumb
  15              		.file	"chsem.c"
  16              		.text
  17              	.Ltext0:
  18              		.cfi_sections	.debug_frame
  19              		.section	.text.chSemInit,"ax",%progbits
  20              		.align	2
  21              		.p2align 4,,15
  22              		.global	chSemInit
  23              		.thumb
  24              		.thumb_func
  25              		.type	chSemInit, %function
  26              	chSemInit:
  27              	.LFB7:
  28              		.file 1 "../../os/kernel/src/chsem.c"
  29              		.loc 1 86 0
  30              		.cfi_startproc
  31              		@ args = 0, pretend = 0, frame = 0
  32              		@ frame_needed = 0, uses_anonymous_args = 0
  33              		@ link register save eliminated.
  34              	.LVL0:
  35              		.loc 1 90 0
  36 0000 4060     		str	r0, [r0, #4]
  37 0002 0060     		str	r0, [r0, #0]
  38              		.loc 1 91 0
  39 0004 8160     		str	r1, [r0, #8]
  40 0006 7047     		bx	lr
  41              		.cfi_endproc
  42              	.LFE7:
  43              		.size	chSemInit, .-chSemInit
  44 0008 AFF30080 		.section	.text.chSemResetI,"ax",%progbits
  44      AFF30080 
  45              		.align	2
  46              		.p2align 4,,15
  47              		.global	chSemResetI
  48              		.thumb
  49              		.thumb_func
  50              		.type	chSemResetI, %function
  51              	chSemResetI:
  52              	.LFB9:
  53              		.loc 1 136 0
  54              		.cfi_startproc
  55              		@ args = 0, pretend = 0, frame = 0
  56              		@ frame_needed = 0, uses_anonymous_args = 0
ARM GAS  C:\Users\jenny\AppData\Local\Temp\ccbhbpyh.s 			page 2


  57              	.LVL1:
  58 0000 F8B5     		push	{r3, r4, r5, r6, r7, lr}
  59              	.LCFI0:
  60              		.cfi_def_cfa_offset 24
  61              		.cfi_offset 3, -24
  62              		.cfi_offset 4, -20
  63              		.cfi_offset 5, -16
  64              		.cfi_offset 6, -12
  65              		.cfi_offset 7, -8
  66              		.cfi_offset 14, -4
  67              		.loc 1 141 0
  68 0002 8768     		ldr	r7, [r0, #8]
  69              	.LVL2:
  70              		.loc 1 147 0
  71 0004 8160     		str	r1, [r0, #8]
  72              		.loc 1 148 0
  73 0006 0137     		adds	r7, r7, #1
  74              	.LVL3:
  75 0008 002F     		cmp	r7, #0
  76              		.loc 1 136 0
  77 000a 0446     		mov	r4, r0
  78              		.loc 1 148 0
  79 000c 29DC     		bgt	.L2
  80              	.LBB24:
  81              	.LBB25:
  82              		.file 2 "../../os/kernel/include/chinline.h"
  83              		.loc 2 67 0
  84 000e 4068     		ldr	r0, [r0, #4]
  85              	.LVL4:
  86              		.loc 2 69 0
  87 0010 4368     		ldr	r3, [r0, #4]
  88 0012 6360     		str	r3, [r4, #4]
  89 0014 1C60     		str	r4, [r3, #0]
  90              	.LBE25:
  91              	.LBE24:
  92              		.loc 1 149 0
  93 0016 FFF7FEFF 		bl	chSchReadyI
  94              	.LVL5:
  95 001a 6FF00106 		mvn	r6, #1
  96 001e 07F00101 		and	r1, r7, #1
  97              	.LVL6:
  98 0022 4662     		str	r6, [r0, #36]
  99              		.loc 1 148 0
 100 0024 7D1C     		adds	r5, r7, #1
 101 0026 EFB1     		cbz	r7, .L15
 102 0028 49B1     		cbz	r1, .L6
 103              	.LBB29:
 104              	.LBB26:
 105              		.loc 2 67 0
 106 002a 6068     		ldr	r0, [r4, #4]
 107              		.loc 2 69 0
 108 002c 4268     		ldr	r2, [r0, #4]
 109 002e 6260     		str	r2, [r4, #4]
 110 0030 1460     		str	r4, [r2, #0]
 111              	.LBE26:
 112              	.LBE29:
 113              		.loc 1 149 0
ARM GAS  C:\Users\jenny\AppData\Local\Temp\ccbhbpyh.s 			page 3


 114 0032 FFF7FEFF 		bl	chSchReadyI
 115              	.LVL7:
 116              		.loc 1 148 0
 117 0036 0135     		adds	r5, r5, #1
 118 0038 012D     		cmp	r5, #1
 119              		.loc 1 149 0
 120 003a 4662     		str	r6, [r0, #36]
 121              	.LVL8:
 122              		.loc 1 148 0
 123 003c 13D0     		beq	.L16
 124              	.L6:
 125              	.LBB30:
 126              	.LBB27:
 127              		.loc 2 67 0
 128 003e 6068     		ldr	r0, [r4, #4]
 129              		.loc 2 69 0
 130 0040 4368     		ldr	r3, [r0, #4]
 131 0042 6360     		str	r3, [r4, #4]
 132 0044 1C60     		str	r4, [r3, #0]
 133              	.LBE27:
 134              	.LBE30:
 135              		.loc 1 149 0
 136 0046 FFF7FEFF 		bl	chSchReadyI
 137              	.LVL9:
 138 004a 4662     		str	r6, [r0, #36]
 139              	.LBB31:
 140              	.LBB28:
 141              		.loc 2 67 0
 142 004c 6068     		ldr	r0, [r4, #4]
 143              		.loc 2 69 0
 144 004e 4168     		ldr	r1, [r0, #4]
 145 0050 6160     		str	r1, [r4, #4]
 146 0052 0C60     		str	r4, [r1, #0]
 147              	.LBE28:
 148              	.LBE31:
 149              		.loc 1 149 0
 150 0054 FFF7FEFF 		bl	chSchReadyI
 151              	.LVL10:
 152              		.loc 1 148 0
 153 0058 6A1C     		adds	r2, r5, #1
 154              		.loc 1 149 0
 155 005a 4662     		str	r6, [r0, #36]
 156              		.loc 1 148 0
 157 005c 0235     		adds	r5, r5, #2
 158 005e 002A     		cmp	r2, #0
 159 0060 EDD1     		bne	.L6
 160              	.LVL11:
 161              	.L2:
 162 0062 F8BD     		pop	{r3, r4, r5, r6, r7, pc}
 163              	.LVL12:
 164              	.L15:
 165 0064 F8BD     		pop	{r3, r4, r5, r6, r7, pc}
 166              	.LVL13:
 167              	.L16:
 168 0066 F8BD     		pop	{r3, r4, r5, r6, r7, pc}
 169              		.cfi_endproc
 170              	.LFE9:
ARM GAS  C:\Users\jenny\AppData\Local\Temp\ccbhbpyh.s 			page 4


 171              		.size	chSemResetI, .-chSemResetI
 172 0068 AFF30080 		.section	.text.chSemReset,"ax",%progbits
 172      AFF30080 
 173              		.align	2
 174              		.p2align 4,,15
 175              		.global	chSemReset
 176              		.thumb
 177              		.thumb_func
 178              		.type	chSemReset, %function
 179              	chSemReset:
 180              	.LFB8:
 181              		.loc 1 109 0
 182              		.cfi_startproc
 183              		@ args = 0, pretend = 0, frame = 0
 184              		@ frame_needed = 0, uses_anonymous_args = 0
 185              	.LVL14:
 186 0000 08B5     		push	{r3, lr}
 187              	.LCFI1:
 188              		.cfi_def_cfa_offset 8
 189              		.cfi_offset 3, -8
 190              		.cfi_offset 14, -4
 191              	.LBB32:
 192              		.loc 1 111 0
 193 0002 2023     		movs	r3, #32
 194              	.LVL15:
 195              	@ 111 "../../os/kernel/src/chsem.c" 1
 196 0004 83F31188 		msr     BASEPRI, r3
 197              	@ 0 "" 2
 198              	.LVL16:
 199              		.thumb
 200              	.LBE32:
 201              		.loc 1 112 0
 202 0008 FFF7FEFF 		bl	chSemResetI
 203              	.LVL17:
 204              		.loc 1 113 0
 205 000c FFF7FEFF 		bl	chSchRescheduleS
 206              	.LVL18:
 207              	.LBB33:
 208              		.loc 1 114 0
 209 0010 0023     		movs	r3, #0
 210              	.LVL19:
 211              	@ 114 "../../os/kernel/src/chsem.c" 1
 212 0012 83F31188 		msr     BASEPRI, r3
 213              	@ 0 "" 2
 214              	.LVL20:
 215              		.thumb
 216 0016 08BD     		pop	{r3, pc}
 217              	.LBE33:
 218              		.cfi_endproc
 219              	.LFE8:
 220              		.size	chSemReset, .-chSemReset
 221 0018 AFF30080 		.section	.text.chSemWaitS,"ax",%progbits
 221      AFF30080 
 222              		.align	2
 223              		.p2align 4,,15
 224              		.global	chSemWaitS
 225              		.thumb
ARM GAS  C:\Users\jenny\AppData\Local\Temp\ccbhbpyh.s 			page 5


 226              		.thumb_func
 227              		.type	chSemWaitS, %function
 228              	chSemWaitS:
 229              	.LFB11:
 230              		.loc 1 185 0
 231              		.cfi_startproc
 232              		@ args = 0, pretend = 0, frame = 0
 233              		@ frame_needed = 0, uses_anonymous_args = 0
 234              	.LVL21:
 235              		.loc 1 194 0
 236 0000 8268     		ldr	r2, [r0, #8]
 237              		.loc 1 185 0
 238 0002 0346     		mov	r3, r0
 239              		.loc 1 194 0
 240 0004 501E     		subs	r0, r2, #1
 241              	.LVL22:
 242 0006 0028     		cmp	r0, #0
 243              		.loc 1 185 0
 244 0008 10B5     		push	{r4, lr}
 245              	.LCFI2:
 246              		.cfi_def_cfa_offset 8
 247              		.cfi_offset 4, -8
 248              		.cfi_offset 14, -4
 249              		.loc 1 194 0
 250 000a 9860     		str	r0, [r3, #8]
 251 000c 01DB     		blt	.L21
 252              		.loc 1 200 0
 253 000e 0020     		movs	r0, #0
 254              		.loc 1 201 0
 255 0010 10BD     		pop	{r4, pc}
 256              	.L21:
 257              		.loc 1 195 0
 258 0012 074C     		ldr	r4, .L22
 259 0014 A269     		ldr	r2, [r4, #24]
 260 0016 5362     		str	r3, [r2, #36]
 261              	.LVL23:
 262              	.LBB34:
 263              	.LBB35:
 264              		.loc 2 55 0
 265 0018 5968     		ldr	r1, [r3, #4]
 266              		.loc 2 54 0
 267 001a 1360     		str	r3, [r2, #0]
 268              		.loc 2 55 0
 269 001c 5160     		str	r1, [r2, #4]
 270              	.LBE35:
 271              	.LBE34:
 272              		.loc 1 197 0
 273 001e 0320     		movs	r0, #3
 274              	.LBB37:
 275              	.LBB36:
 276              		.loc 2 56 0
 277 0020 5A60     		str	r2, [r3, #4]
 278 0022 0A60     		str	r2, [r1, #0]
 279              	.LBE36:
 280              	.LBE37:
 281              		.loc 1 197 0
 282 0024 FFF7FEFF 		bl	chSchGoSleepS
ARM GAS  C:\Users\jenny\AppData\Local\Temp\ccbhbpyh.s 			page 6


 283              	.LVL24:
 284              		.loc 1 198 0
 285 0028 A369     		ldr	r3, [r4, #24]
 286 002a 586A     		ldr	r0, [r3, #36]
 287 002c 10BD     		pop	{r4, pc}
 288              	.L23:
 289 002e 00BF     		.align	2
 290              	.L22:
 291 0030 00000000 		.word	rlist
 292              		.cfi_endproc
 293              	.LFE11:
 294              		.size	chSemWaitS, .-chSemWaitS
 295 0034 AFF30080 		.section	.text.chSemWait,"ax",%progbits
 295      AFF30080 
 295      AFF30080 
 296              		.align	2
 297              		.p2align 4,,15
 298              		.global	chSemWait
 299              		.thumb
 300              		.thumb_func
 301              		.type	chSemWait, %function
 302              	chSemWait:
 303              	.LFB10:
 304              		.loc 1 164 0
 305              		.cfi_startproc
 306              		@ args = 0, pretend = 0, frame = 0
 307              		@ frame_needed = 0, uses_anonymous_args = 0
 308              	.LVL25:
 309 0000 08B5     		push	{r3, lr}
 310              	.LCFI3:
 311              		.cfi_def_cfa_offset 8
 312              		.cfi_offset 3, -8
 313              		.cfi_offset 14, -4
 314              	.LBB38:
 315              		.loc 1 167 0
 316 0002 2023     		movs	r3, #32
 317              	.LVL26:
 318              	@ 167 "../../os/kernel/src/chsem.c" 1
 319 0004 83F31188 		msr     BASEPRI, r3
 320              	@ 0 "" 2
 321              	.LVL27:
 322              		.thumb
 323              	.LBE38:
 324              		.loc 1 168 0
 325 0008 FFF7FEFF 		bl	chSemWaitS
 326              	.LVL28:
 327              	.LBB39:
 328              		.loc 1 169 0
 329 000c 0023     		movs	r3, #0
 330              	.LVL29:
 331              	@ 169 "../../os/kernel/src/chsem.c" 1
 332 000e 83F31188 		msr     BASEPRI, r3
 333              	@ 0 "" 2
 334              	.LVL30:
 335              		.thumb
 336              	.LBE39:
 337              		.loc 1 171 0
ARM GAS  C:\Users\jenny\AppData\Local\Temp\ccbhbpyh.s 			page 7


 338 0012 08BD     		pop	{r3, pc}
 339              		.cfi_endproc
 340              	.LFE10:
 341              		.size	chSemWait, .-chSemWait
 342 0014 AFF30080 		.section	.text.chSemWaitTimeoutS,"ax",%progbits
 342      AFF30080 
 342      AFF30080 
 343              		.align	2
 344              		.p2align 4,,15
 345              		.global	chSemWaitTimeoutS
 346              		.thumb
 347              		.thumb_func
 348              		.type	chSemWaitTimeoutS, %function
 349              	chSemWaitTimeoutS:
 350              	.LFB13:
 351              		.loc 1 250 0
 352              		.cfi_startproc
 353              		@ args = 0, pretend = 0, frame = 0
 354              		@ frame_needed = 0, uses_anonymous_args = 0
 355              		@ link register save eliminated.
 356              	.LVL31:
 357 0000 0346     		mov	r3, r0
 358              		.loc 1 254 0
 359 0002 8068     		ldr	r0, [r0, #8]
 360              	.LVL32:
 361              		.loc 1 259 0
 362 0004 421E     		subs	r2, r0, #1
 363 0006 002A     		cmp	r2, #0
 364              		.loc 1 250 0
 365 0008 10B4     		push	{r4}
 366              	.LCFI4:
 367              		.cfi_def_cfa_offset 4
 368              		.cfi_offset 4, -4
 369              		.loc 1 250 0
 370 000a 0C46     		mov	r4, r1
 371              		.loc 1 259 0
 372 000c 9A60     		str	r2, [r3, #8]
 373 000e 02DB     		blt	.L29
 374              		.loc 1 268 0
 375 0010 0020     		movs	r0, #0
 376              	.L26:
 377              		.loc 1 269 0
 378 0012 10BC     		pop	{r4}
 379 0014 7047     		bx	lr
 380              	.L29:
 381              		.loc 1 260 0
 382 0016 59B1     		cbz	r1, .L30
 383              		.loc 1 264 0
 384 0018 074C     		ldr	r4, .L31
 385 001a A269     		ldr	r2, [r4, #24]
 386 001c 5362     		str	r3, [r2, #36]
 387              	.LVL33:
 388              	.LBB40:
 389              	.LBB41:
 390              		.loc 2 55 0
 391 001e 5C68     		ldr	r4, [r3, #4]
 392              	.LBE41:
ARM GAS  C:\Users\jenny\AppData\Local\Temp\ccbhbpyh.s 			page 8


 393              	.LBE40:
 394              		.loc 1 266 0
 395 0020 0320     		movs	r0, #3
 396              	.LBB43:
 397              	.LBB42:
 398              		.loc 2 55 0
 399 0022 82E81800 		stmia	r2, {r3, r4}
 400              		.loc 2 56 0
 401 0026 5A60     		str	r2, [r3, #4]
 402 0028 2260     		str	r2, [r4, #0]
 403              	.LBE42:
 404              	.LBE43:
 405              		.loc 1 269 0
 406 002a 10BC     		pop	{r4}
 407              		.loc 1 266 0
 408 002c FFF7FEBF 		b	chSchGoSleepTimeoutS
 409              	.LVL34:
 410              	.L30:
 411              		.loc 1 261 0
 412 0030 9860     		str	r0, [r3, #8]
 413              		.loc 1 262 0
 414 0032 4FF0FF30 		mov	r0, #-1
 415 0036 ECE7     		b	.L26
 416              	.L32:
 417              		.align	2
 418              	.L31:
 419 0038 00000000 		.word	rlist
 420              		.cfi_endproc
 421              	.LFE13:
 422              		.size	chSemWaitTimeoutS, .-chSemWaitTimeoutS
 423 003c AFF30080 		.section	.text.chSemWaitTimeout,"ax",%progbits
 424              		.align	2
 425              		.p2align 4,,15
 426              		.global	chSemWaitTimeout
 427              		.thumb
 428              		.thumb_func
 429              		.type	chSemWaitTimeout, %function
 430              	chSemWaitTimeout:
 431              	.LFB12:
 432              		.loc 1 222 0
 433              		.cfi_startproc
 434              		@ args = 0, pretend = 0, frame = 0
 435              		@ frame_needed = 0, uses_anonymous_args = 0
 436              	.LVL35:
 437 0000 08B5     		push	{r3, lr}
 438              	.LCFI5:
 439              		.cfi_def_cfa_offset 8
 440              		.cfi_offset 3, -8
 441              		.cfi_offset 14, -4
 442              	.LBB44:
 443              		.loc 1 225 0
 444 0002 2023     		movs	r3, #32
 445              	.LVL36:
 446              	@ 225 "../../os/kernel/src/chsem.c" 1
 447 0004 83F31188 		msr     BASEPRI, r3
 448              	@ 0 "" 2
 449              	.LVL37:
ARM GAS  C:\Users\jenny\AppData\Local\Temp\ccbhbpyh.s 			page 9


 450              		.thumb
 451              	.LBE44:
 452              		.loc 1 226 0
 453 0008 FFF7FEFF 		bl	chSemWaitTimeoutS
 454              	.LVL38:
 455              	.LBB45:
 456              		.loc 1 227 0
 457 000c 0023     		movs	r3, #0
 458              	.LVL39:
 459              	@ 227 "../../os/kernel/src/chsem.c" 1
 460 000e 83F31188 		msr     BASEPRI, r3
 461              	@ 0 "" 2
 462              	.LVL40:
 463              		.thumb
 464              	.LBE45:
 465              		.loc 1 229 0
 466 0012 08BD     		pop	{r3, pc}
 467              		.cfi_endproc
 468              	.LFE12:
 469              		.size	chSemWaitTimeout, .-chSemWaitTimeout
 470 0014 AFF30080 		.section	.text.chSemSignal,"ax",%progbits
 470      AFF30080 
 470      AFF30080 
 471              		.align	2
 472              		.p2align 4,,15
 473              		.global	chSemSignal
 474              		.thumb
 475              		.thumb_func
 476              		.type	chSemSignal, %function
 477              	chSemSignal:
 478              	.LFB14:
 479              		.loc 1 278 0
 480              		.cfi_startproc
 481              		@ args = 0, pretend = 0, frame = 0
 482              		@ frame_needed = 0, uses_anonymous_args = 0
 483              	.LVL41:
 484 0000 08B5     		push	{r3, lr}
 485              	.LCFI6:
 486              		.cfi_def_cfa_offset 8
 487              		.cfi_offset 3, -8
 488              		.cfi_offset 14, -4
 489              		.loc 1 278 0
 490 0002 0246     		mov	r2, r0
 491              	.LBB46:
 492              		.loc 1 286 0
 493 0004 2023     		movs	r3, #32
 494              	.LVL42:
 495              	@ 286 "../../os/kernel/src/chsem.c" 1
 496 0006 83F31188 		msr     BASEPRI, r3
 497              	@ 0 "" 2
 498              	.LVL43:
 499              		.thumb
 500              	.LBE46:
 501              		.loc 1 287 0
 502 000a 8368     		ldr	r3, [r0, #8]
 503              	.LVL44:
 504 000c 581C     		adds	r0, r3, #1
ARM GAS  C:\Users\jenny\AppData\Local\Temp\ccbhbpyh.s 			page 10


 505              	.LVL45:
 506 000e 0028     		cmp	r0, #0
 507 0010 9060     		str	r0, [r2, #8]
 508 0012 03DD     		ble	.L36
 509              	.LVL46:
 510              	.L35:
 511              	.LBB47:
 512              		.loc 1 289 0
 513 0014 0023     		movs	r3, #0
 514              	.LVL47:
 515              	@ 289 "../../os/kernel/src/chsem.c" 1
 516 0016 83F31188 		msr     BASEPRI, r3
 517              	@ 0 "" 2
 518              	.LVL48:
 519              		.thumb
 520 001a 08BD     		pop	{r3, pc}
 521              	.LVL49:
 522              	.L36:
 523              	.LBE47:
 524              	.LBB48:
 525              	.LBB49:
 526              		.loc 2 60 0
 527 001c 1068     		ldr	r0, [r2, #0]
 528              	.LVL50:
 529              		.loc 2 62 0
 530 001e 0368     		ldr	r3, [r0, #0]
 531              	.LBE49:
 532              	.LBE48:
 533              		.loc 1 288 0
 534 0020 0021     		movs	r1, #0
 535              	.LBB51:
 536              	.LBB50:
 537              		.loc 2 62 0
 538 0022 1360     		str	r3, [r2, #0]
 539 0024 5A60     		str	r2, [r3, #4]
 540              	.LBE50:
 541              	.LBE51:
 542              		.loc 1 288 0
 543 0026 FFF7FEFF 		bl	chSchWakeupS
 544              	.LVL51:
 545 002a F3E7     		b	.L35
 546              		.cfi_endproc
 547              	.LFE14:
 548              		.size	chSemSignal, .-chSemSignal
 549 002c AFF30080 		.section	.text.chSemSignalI,"ax",%progbits
 550              		.align	2
 551              		.p2align 4,,15
 552              		.global	chSemSignalI
 553              		.thumb
 554              		.thumb_func
 555              		.type	chSemSignalI, %function
 556              	chSemSignalI:
 557              	.LFB15:
 558              		.loc 1 303 0
 559              		.cfi_startproc
 560              		@ args = 0, pretend = 0, frame = 0
 561              		@ frame_needed = 0, uses_anonymous_args = 0
ARM GAS  C:\Users\jenny\AppData\Local\Temp\ccbhbpyh.s 			page 11


 562              		@ link register save eliminated.
 563              	.LVL52:
 564              		.loc 1 312 0
 565 0000 8268     		ldr	r2, [r0, #8]
 566              		.loc 1 303 0
 567 0002 0346     		mov	r3, r0
 568              		.loc 1 312 0
 569 0004 501C     		adds	r0, r2, #1
 570              	.LVL53:
 571 0006 0028     		cmp	r0, #0
 572 0008 9860     		str	r0, [r3, #8]
 573 000a 00DD     		ble	.L39
 574 000c 7047     		bx	lr
 575              	.L39:
 576              	.LVL54:
 577              	.LBB52:
 578              	.LBB53:
 579              	.LBB54:
 580              		.loc 2 60 0
 581 000e 1A68     		ldr	r2, [r3, #0]
 582              	.LVL55:
 583              		.loc 2 62 0
 584 0010 1168     		ldr	r1, [r2, #0]
 585              	.LBE54:
 586              	.LBE53:
 587              		.loc 1 317 0
 588 0012 1046     		mov	r0, r2
 589              	.LBB56:
 590              	.LBB55:
 591              		.loc 2 62 0
 592 0014 1960     		str	r1, [r3, #0]
 593 0016 4B60     		str	r3, [r1, #4]
 594              	.LBE55:
 595              	.LBE56:
 596              		.loc 1 316 0
 597 0018 0023     		movs	r3, #0
 598              	.LVL56:
 599 001a 5362     		str	r3, [r2, #36]
 600              	.LBE52:
 601              		.loc 1 319 0
 602              	.LBB57:
 603              		.loc 1 317 0
 604 001c FFF7FEBF 		b	chSchReadyI
 605              	.LVL57:
 606              	.LBE57:
 607              		.cfi_endproc
 608              	.LFE15:
 609              		.size	chSemSignalI, .-chSemSignalI
 610              		.section	.text.chSemAddCounterI,"ax",%progbits
 611              		.align	2
 612              		.p2align 4,,15
 613              		.global	chSemAddCounterI
 614              		.thumb
 615              		.thumb_func
 616              		.type	chSemAddCounterI, %function
 617              	chSemAddCounterI:
 618              	.LFB16:
ARM GAS  C:\Users\jenny\AppData\Local\Temp\ccbhbpyh.s 			page 12


 619              		.loc 1 334 0
 620              		.cfi_startproc
 621              		@ args = 0, pretend = 0, frame = 0
 622              		@ frame_needed = 0, uses_anonymous_args = 0
 623              	.LVL58:
 624 0000 F8B5     		push	{r3, r4, r5, r6, r7, lr}
 625              	.LCFI7:
 626              		.cfi_def_cfa_offset 24
 627              		.cfi_offset 3, -24
 628              		.cfi_offset 4, -20
 629              		.cfi_offset 5, -16
 630              		.cfi_offset 6, -12
 631              		.cfi_offset 7, -8
 632              		.cfi_offset 14, -4
 633              		.loc 1 343 0
 634 0002 0D1E     		subs	r5, r1, #0
 635              		.loc 1 334 0
 636 0004 0446     		mov	r4, r0
 637              		.loc 1 343 0
 638 0006 37DD     		ble	.L40
 639              		.loc 1 344 0
 640 0008 8368     		ldr	r3, [r0, #8]
 641              		.loc 1 345 0
 642 000a 0026     		movs	r6, #0
 643              		.loc 1 344 0
 644 000c 581C     		adds	r0, r3, #1
 645              	.LVL59:
 646 000e 6A1E     		subs	r2, r5, #1
 647 0010 B042     		cmp	r0, r6
 648 0012 A060     		str	r0, [r4, #8]
 649 0014 02F00107 		and	r7, r2, #1
 650 0018 2FDD     		ble	.L58
 651              	.LVL60:
 652              	.L47:
 653              		.loc 1 343 0
 654 001a 013D     		subs	r5, r5, #1
 655              	.LVL61:
 656 001c 2CD0     		beq	.L40
 657 001e 77B1     		cbz	r7, .L45
 658              		.loc 1 344 0
 659 0020 A368     		ldr	r3, [r4, #8]
 660 0022 5A1C     		adds	r2, r3, #1
 661 0024 002A     		cmp	r2, #0
 662 0026 A260     		str	r2, [r4, #8]
 663 0028 2FDD     		ble	.L59
 664              	.L49:
 665              	.LVL62:
 666              		.loc 1 343 0
 667 002a 013D     		subs	r5, r5, #1
 668 002c 07D1     		bne	.L45
 669 002e 34E0     		b	.L63
 670              	.L42:
 671              		.loc 1 344 0
 672 0030 A168     		ldr	r1, [r4, #8]
 673 0032 481C     		adds	r0, r1, #1
 674 0034 0028     		cmp	r0, #0
 675 0036 A060     		str	r0, [r4, #8]
ARM GAS  C:\Users\jenny\AppData\Local\Temp\ccbhbpyh.s 			page 13


 676 0038 14DD     		ble	.L61
 677              	.L52:
 678              		.loc 1 343 0
 679 003a 013D     		subs	r5, r5, #1
 680 003c 1BD0     		beq	.L62
 681              	.L45:
 682              		.loc 1 344 0
 683 003e A068     		ldr	r0, [r4, #8]
 684 0040 431C     		adds	r3, r0, #1
 685 0042 002B     		cmp	r3, #0
 686 0044 A360     		str	r3, [r4, #8]
 687              		.loc 1 346 0
 688 0046 05F1FF35 		add	r5, r5, #-1
 689              		.loc 1 344 0
 690 004a F1DC     		bgt	.L42
 691              	.LVL63:
 692              	.LBB58:
 693              	.LBB59:
 694              		.loc 2 60 0
 695 004c 2068     		ldr	r0, [r4, #0]
 696              	.LVL64:
 697              		.loc 2 62 0
 698 004e 0268     		ldr	r2, [r0, #0]
 699 0050 2260     		str	r2, [r4, #0]
 700 0052 5460     		str	r4, [r2, #4]
 701              	.LBE59:
 702              	.LBE58:
 703              		.loc 1 345 0
 704 0054 FFF7FEFF 		bl	chSchReadyI
 705              	.LVL65:
 706 0058 4662     		str	r6, [r0, #36]
 707              		.loc 1 344 0
 708 005a A168     		ldr	r1, [r4, #8]
 709 005c 481C     		adds	r0, r1, #1
 710 005e 0028     		cmp	r0, #0
 711 0060 A060     		str	r0, [r4, #8]
 712 0062 EADC     		bgt	.L52
 713              	.LVL66:
 714              	.L61:
 715              	.LBB63:
 716              	.LBB60:
 717              		.loc 2 60 0
 718 0064 2068     		ldr	r0, [r4, #0]
 719              		.loc 2 62 0
 720 0066 0368     		ldr	r3, [r0, #0]
 721 0068 2360     		str	r3, [r4, #0]
 722 006a 5C60     		str	r4, [r3, #4]
 723              	.LBE60:
 724              	.LBE63:
 725              		.loc 1 345 0
 726 006c FFF7FEFF 		bl	chSchReadyI
 727              	.LVL67:
 728              		.loc 1 343 0
 729 0070 013D     		subs	r5, r5, #1
 730              		.loc 1 345 0
 731 0072 4662     		str	r6, [r0, #36]
 732              		.loc 1 343 0
ARM GAS  C:\Users\jenny\AppData\Local\Temp\ccbhbpyh.s 			page 14


 733 0074 E3D1     		bne	.L45
 734              	.LVL68:
 735              	.L62:
 736 0076 F8BD     		pop	{r3, r4, r5, r6, r7, pc}
 737              	.L40:
 738 0078 F8BD     		pop	{r3, r4, r5, r6, r7, pc}
 739              	.LVL69:
 740              	.L58:
 741              	.LBB64:
 742              	.LBB61:
 743              		.loc 2 60 0
 744 007a 2068     		ldr	r0, [r4, #0]
 745              		.loc 2 62 0
 746 007c 0168     		ldr	r1, [r0, #0]
 747              	.LVL70:
 748 007e 2160     		str	r1, [r4, #0]
 749 0080 4C60     		str	r4, [r1, #4]
 750              	.LBE61:
 751              	.LBE64:
 752              		.loc 1 345 0
 753 0082 FFF7FEFF 		bl	chSchReadyI
 754              	.LVL71:
 755 0086 4662     		str	r6, [r0, #36]
 756 0088 C7E7     		b	.L47
 757              	.LVL72:
 758              	.L59:
 759              	.LBB65:
 760              	.LBB62:
 761              		.loc 2 60 0
 762 008a 2068     		ldr	r0, [r4, #0]
 763              		.loc 2 62 0
 764 008c 0168     		ldr	r1, [r0, #0]
 765 008e 2160     		str	r1, [r4, #0]
 766 0090 4C60     		str	r4, [r1, #4]
 767              	.LBE62:
 768              	.LBE65:
 769              		.loc 1 345 0
 770 0092 FFF7FEFF 		bl	chSchReadyI
 771              	.LVL73:
 772 0096 4662     		str	r6, [r0, #36]
 773 0098 C7E7     		b	.L49
 774              	.LVL74:
 775              	.L63:
 776 009a F8BD     		pop	{r3, r4, r5, r6, r7, pc}
 777              		.cfi_endproc
 778              	.LFE16:
 779              		.size	chSemAddCounterI, .-chSemAddCounterI
 780 009c AFF30080 		.section	.text.chSemSignalWait,"ax",%progbits
 781              		.align	2
 782              		.p2align 4,,15
 783              		.global	chSemSignalWait
 784              		.thumb
 785              		.thumb_func
 786              		.type	chSemSignalWait, %function
 787              	chSemSignalWait:
 788              	.LFB17:
 789              		.loc 1 366 0
ARM GAS  C:\Users\jenny\AppData\Local\Temp\ccbhbpyh.s 			page 15


 790              		.cfi_startproc
 791              		@ args = 0, pretend = 0, frame = 8
 792              		@ frame_needed = 0, uses_anonymous_args = 0
 793              	.LVL75:
 794 0000 10B5     		push	{r4, lr}
 795              	.LCFI8:
 796              		.cfi_def_cfa_offset 8
 797              		.cfi_offset 4, -8
 798              		.cfi_offset 14, -4
 799 0002 0246     		mov	r2, r0
 800 0004 82B0     		sub	sp, sp, #8
 801              	.LCFI9:
 802              		.cfi_def_cfa_offset 16
 803              	.LBB66:
 804              		.loc 1 379 0
 805 0006 2023     		movs	r3, #32
 806              	.LVL76:
 807              	@ 379 "../../os/kernel/src/chsem.c" 1
 808 0008 83F31188 		msr     BASEPRI, r3
 809              	@ 0 "" 2
 810              	.LVL77:
 811              		.thumb
 812              	.LBE66:
 813              		.loc 1 380 0
 814 000c 8368     		ldr	r3, [r0, #8]
 815              	.LVL78:
 816 000e 581C     		adds	r0, r3, #1
 817              	.LVL79:
 818 0010 0028     		cmp	r0, #0
 819 0012 9060     		str	r0, [r2, #8]
 820 0014 19DD     		ble	.L68
 821              	.LVL80:
 822              	.L65:
 823              		.loc 1 382 0
 824 0016 8A68     		ldr	r2, [r1, #8]
 825 0018 501E     		subs	r0, r2, #1
 826 001a 0028     		cmp	r0, #0
 827 001c 8860     		str	r0, [r1, #8]
 828 001e 07DB     		blt	.L69
 829              		.loc 1 390 0
 830 0020 FFF7FEFF 		bl	chSchRescheduleS
 831              	.LVL81:
 832              		.loc 1 391 0
 833 0024 0020     		movs	r0, #0
 834              	.LVL82:
 835              	.L67:
 836              	.LBB67:
 837              		.loc 1 393 0
 838 0026 0023     		movs	r3, #0
 839              	.LVL83:
 840              	@ 393 "../../os/kernel/src/chsem.c" 1
 841 0028 83F31188 		msr     BASEPRI, r3
 842              	@ 0 "" 2
 843              	.LVL84:
 844              		.thumb
 845              	.LBE67:
 846              		.loc 1 395 0
ARM GAS  C:\Users\jenny\AppData\Local\Temp\ccbhbpyh.s 			page 16


 847 002c 02B0     		add	sp, sp, #8
 848 002e 10BD     		pop	{r4, pc}
 849              	.LVL85:
 850              	.L69:
 851              	.LBB68:
 852              		.loc 1 383 0
 853 0030 0B4C     		ldr	r4, .L70
 854              	.LBB69:
 855              	.LBB70:
 856              		.loc 2 55 0
 857 0032 4B68     		ldr	r3, [r1, #4]
 858              	.LBE70:
 859              	.LBE69:
 860              		.loc 1 383 0
 861 0034 A469     		ldr	r4, [r4, #24]
 862              	.LVL86:
 863              		.loc 1 386 0
 864 0036 0320     		movs	r0, #3
 865              	.LBB72:
 866              	.LBB71:
 867              		.loc 2 55 0
 868 0038 84E80A00 		stmia	r4, {r1, r3}
 869              		.loc 2 56 0
 870 003c 4C60     		str	r4, [r1, #4]
 871 003e 1C60     		str	r4, [r3, #0]
 872              	.LBE71:
 873              	.LBE72:
 874              		.loc 1 385 0
 875 0040 6162     		str	r1, [r4, #36]
 876              		.loc 1 386 0
 877 0042 FFF7FEFF 		bl	chSchGoSleepS
 878              	.LVL87:
 879              		.loc 1 387 0
 880 0046 606A     		ldr	r0, [r4, #36]
 881              	.LVL88:
 882 0048 EDE7     		b	.L67
 883              	.LVL89:
 884              	.L68:
 885              	.LBE68:
 886              	.LBB73:
 887              	.LBB74:
 888              		.loc 2 60 0
 889 004a 1068     		ldr	r0, [r2, #0]
 890              	.LVL90:
 891              		.loc 2 62 0
 892 004c 0368     		ldr	r3, [r0, #0]
 893 004e 1360     		str	r3, [r2, #0]
 894 0050 5A60     		str	r2, [r3, #4]
 895              	.LBE74:
 896              	.LBE73:
 897              		.loc 1 381 0
 898 0052 0191     		str	r1, [sp, #4]
 899 0054 FFF7FEFF 		bl	chSchReadyI
 900              	.LVL91:
 901 0058 0021     		movs	r1, #0
 902 005a 4162     		str	r1, [r0, #36]
 903 005c 0199     		ldr	r1, [sp, #4]
ARM GAS  C:\Users\jenny\AppData\Local\Temp\ccbhbpyh.s 			page 17


 904 005e DAE7     		b	.L65
 905              	.L71:
 906              		.align	2
 907              	.L70:
 908 0060 00000000 		.word	rlist
 909              		.cfi_endproc
 910              	.LFE17:
 911              		.size	chSemSignalWait, .-chSemSignalWait
 912 0064 AFF30080 		.text
 912      AFF30080 
 912      AFF30080 
 913              	.Letext0:
 914              		.file 3 "c:\\fbin\\yagarto\\bin\\../lib/gcc/arm-none-eabi/4.7.4/../../../../arm-none-eabi/include/
 915              		.file 4 "../../os/ports/GCC/ARMCMx/chtypes.h"
 916              		.file 5 "../../os/kernel/include/chlists.h"
 917              		.file 6 "../../os/kernel/include/chthreads.h"
 918              		.file 7 "../../os/ports/GCC/ARMCMx/chcore_v7m.h"
 919              		.file 8 "../../os/kernel/include/chschd.h"
 920              		.file 9 "../../os/kernel/include/chsem.h"
 921              		.file 10 "../../os/kernel/include/chmtx.h"
 922              		.section	.debug_info,"",%progbits
 923              	.Ldebug_info0:
 924 0000 6C0C0000 		.4byte	0xc6c
 925 0004 0200     		.2byte	0x2
 926 0006 00000000 		.4byte	.Ldebug_abbrev0
 927 000a 04       		.byte	0x4
 928 000b 01       		.uleb128 0x1
 929 000c B6000000 		.4byte	.LASF83
 930 0010 01       		.byte	0x1
 931 0011 9A000000 		.4byte	.LASF84
 932 0015 8F030000 		.4byte	.LASF85
 933 0019 60010000 		.4byte	.Ldebug_ranges0+0x160
 934 001d 00000000 		.4byte	0
 935 0021 00000000 		.4byte	0
 936 0025 00000000 		.4byte	.Ldebug_line0
 937 0029 02       		.uleb128 0x2
 938 002a 04       		.byte	0x4
 939 002b 05       		.byte	0x5
 940 002c 696E7400 		.ascii	"int\000"
 941 0030 03       		.uleb128 0x3
 942 0031 04       		.byte	0x4
 943 0032 07       		.byte	0x7
 944 0033 52010000 		.4byte	.LASF0
 945 0037 03       		.uleb128 0x3
 946 0038 01       		.byte	0x1
 947 0039 06       		.byte	0x6
 948 003a 64000000 		.4byte	.LASF1
 949 003e 04       		.uleb128 0x4
 950 003f 87030000 		.4byte	.LASF5
 951 0043 03       		.byte	0x3
 952 0044 2A       		.byte	0x2a
 953 0045 49000000 		.4byte	0x49
 954 0049 03       		.uleb128 0x3
 955 004a 01       		.byte	0x1
 956 004b 08       		.byte	0x8
 957 004c 46020000 		.4byte	.LASF2
 958 0050 03       		.uleb128 0x3
ARM GAS  C:\Users\jenny\AppData\Local\Temp\ccbhbpyh.s 			page 18


 959 0051 02       		.byte	0x2
 960 0052 05       		.byte	0x5
 961 0053 5E020000 		.4byte	.LASF3
 962 0057 03       		.uleb128 0x3
 963 0058 02       		.byte	0x2
 964 0059 07       		.byte	0x7
 965 005a 9C010000 		.4byte	.LASF4
 966 005e 04       		.uleb128 0x4
 967 005f 3E020000 		.4byte	.LASF6
 968 0063 03       		.byte	0x3
 969 0064 4F       		.byte	0x4f
 970 0065 69000000 		.4byte	0x69
 971 0069 03       		.uleb128 0x3
 972 006a 04       		.byte	0x4
 973 006b 05       		.byte	0x5
 974 006c FF000000 		.4byte	.LASF7
 975 0070 04       		.uleb128 0x4
 976 0071 C2020000 		.4byte	.LASF8
 977 0075 03       		.byte	0x3
 978 0076 50       		.byte	0x50
 979 0077 7B000000 		.4byte	0x7b
 980 007b 03       		.uleb128 0x3
 981 007c 04       		.byte	0x4
 982 007d 07       		.byte	0x7
 983 007e 70010000 		.4byte	.LASF9
 984 0082 03       		.uleb128 0x3
 985 0083 08       		.byte	0x8
 986 0084 05       		.byte	0x5
 987 0085 56000000 		.4byte	.LASF10
 988 0089 03       		.uleb128 0x3
 989 008a 08       		.byte	0x8
 990 008b 07       		.byte	0x7
 991 008c 27000000 		.4byte	.LASF11
 992 0090 03       		.uleb128 0x3
 993 0091 01       		.byte	0x1
 994 0092 02       		.byte	0x2
 995 0093 38020000 		.4byte	.LASF12
 996 0097 04       		.uleb128 0x4
 997 0098 C0010000 		.4byte	.LASF13
 998 009c 04       		.byte	0x4
 999 009d 2C       		.byte	0x2c
 1000 009e 3E000000 		.4byte	0x3e
 1001 00a2 04       		.uleb128 0x4
 1002 00a3 08010000 		.4byte	.LASF14
 1003 00a7 04       		.byte	0x4
 1004 00a8 2D       		.byte	0x2d
 1005 00a9 3E000000 		.4byte	0x3e
 1006 00ad 04       		.uleb128 0x4
 1007 00ae 21020000 		.4byte	.LASF15
 1008 00b2 04       		.byte	0x4
 1009 00b3 2E       		.byte	0x2e
 1010 00b4 3E000000 		.4byte	0x3e
 1011 00b8 04       		.uleb128 0x4
 1012 00b9 90000000 		.4byte	.LASF16
 1013 00bd 04       		.byte	0x4
 1014 00be 2F       		.byte	0x2f
 1015 00bf 3E000000 		.4byte	0x3e
ARM GAS  C:\Users\jenny\AppData\Local\Temp\ccbhbpyh.s 			page 19


 1016 00c3 04       		.uleb128 0x4
 1017 00c4 30020000 		.4byte	.LASF17
 1018 00c8 04       		.byte	0x4
 1019 00c9 30       		.byte	0x30
 1020 00ca 70000000 		.4byte	0x70
 1021 00ce 04       		.uleb128 0x4
 1022 00cf BA010000 		.4byte	.LASF18
 1023 00d3 04       		.byte	0x4
 1024 00d4 31       		.byte	0x31
 1025 00d5 5E000000 		.4byte	0x5e
 1026 00d9 04       		.uleb128 0x4
 1027 00da D4010000 		.4byte	.LASF19
 1028 00de 04       		.byte	0x4
 1029 00df 33       		.byte	0x33
 1030 00e0 70000000 		.4byte	0x70
 1031 00e4 04       		.uleb128 0x4
 1032 00e5 09030000 		.4byte	.LASF20
 1033 00e9 04       		.byte	0x4
 1034 00ea 35       		.byte	0x35
 1035 00eb 70000000 		.4byte	0x70
 1036 00ef 04       		.uleb128 0x4
 1037 00f0 4C010000 		.4byte	.LASF21
 1038 00f4 04       		.byte	0x4
 1039 00f5 36       		.byte	0x36
 1040 00f6 5E000000 		.4byte	0x5e
 1041 00fa 04       		.uleb128 0x4
 1042 00fb A2020000 		.4byte	.LASF22
 1043 00ff 05       		.byte	0x5
 1044 0100 2A       		.byte	0x2a
 1045 0101 05010000 		.4byte	0x105
 1046 0105 05       		.uleb128 0x5
 1047 0106 A2020000 		.4byte	.LASF22
 1048 010a 48       		.byte	0x48
 1049 010b 06       		.byte	0x6
 1050 010c 5E       		.byte	0x5e
 1051 010d 2A020000 		.4byte	0x22a
 1052 0111 06       		.uleb128 0x6
 1053 0112 88020000 		.4byte	.LASF23
 1054 0116 06       		.byte	0x6
 1055 0117 5F       		.byte	0x5f
 1056 0118 4F020000 		.4byte	0x24f
 1057 011c 02       		.byte	0x2
 1058 011d 23       		.byte	0x23
 1059 011e 00       		.uleb128 0
 1060 011f 06       		.uleb128 0x6
 1061 0120 29020000 		.4byte	.LASF24
 1062 0124 06       		.byte	0x6
 1063 0125 61       		.byte	0x61
 1064 0126 4F020000 		.4byte	0x24f
 1065 012a 02       		.byte	0x2
 1066 012b 23       		.byte	0x23
 1067 012c 04       		.uleb128 0x4
 1068 012d 06       		.uleb128 0x6
 1069 012e 4F000000 		.4byte	.LASF25
 1070 0132 06       		.byte	0x6
 1071 0133 63       		.byte	0x63
 1072 0134 C3000000 		.4byte	0xc3
ARM GAS  C:\Users\jenny\AppData\Local\Temp\ccbhbpyh.s 			page 20


 1073 0138 02       		.byte	0x2
 1074 0139 23       		.byte	0x23
 1075 013a 08       		.uleb128 0x8
 1076 013b 06       		.uleb128 0x6
 1077 013c 0D040000 		.4byte	.LASF26
 1078 0140 06       		.byte	0x6
 1079 0141 64       		.byte	0x64
 1080 0142 0D040000 		.4byte	0x40d
 1081 0146 02       		.byte	0x2
 1082 0147 23       		.byte	0x23
 1083 0148 0C       		.uleb128 0xc
 1084 0149 06       		.uleb128 0x6
 1085 014a 11010000 		.4byte	.LASF27
 1086 014e 06       		.byte	0x6
 1087 014f 66       		.byte	0x66
 1088 0150 4F020000 		.4byte	0x24f
 1089 0154 02       		.byte	0x2
 1090 0155 23       		.byte	0x23
 1091 0156 10       		.uleb128 0x10
 1092 0157 06       		.uleb128 0x6
 1093 0158 EF010000 		.4byte	.LASF28
 1094 015c 06       		.byte	0x6
 1095 015d 67       		.byte	0x67
 1096 015e 4F020000 		.4byte	0x24f
 1097 0162 02       		.byte	0x2
 1098 0163 23       		.byte	0x23
 1099 0164 14       		.uleb128 0x14
 1100 0165 06       		.uleb128 0x6
 1101 0166 E9030000 		.4byte	.LASF29
 1102 016a 06       		.byte	0x6
 1103 016b 6E       		.byte	0x6e
 1104 016c 55050000 		.4byte	0x555
 1105 0170 02       		.byte	0x2
 1106 0171 23       		.byte	0x23
 1107 0172 18       		.uleb128 0x18
 1108 0173 06       		.uleb128 0x6
 1109 0174 68020000 		.4byte	.LASF30
 1110 0178 06       		.byte	0x6
 1111 0179 79       		.byte	0x79
 1112 017a A2000000 		.4byte	0xa2
 1113 017e 02       		.byte	0x2
 1114 017f 23       		.byte	0x23
 1115 0180 1C       		.uleb128 0x1c
 1116 0181 06       		.uleb128 0x6
 1117 0182 8F020000 		.4byte	.LASF31
 1118 0186 06       		.byte	0x6
 1119 0187 7D       		.byte	0x7d
 1120 0188 97000000 		.4byte	0x97
 1121 018c 02       		.byte	0x2
 1122 018d 23       		.byte	0x23
 1123 018e 1D       		.uleb128 0x1d
 1124 018f 06       		.uleb128 0x6
 1125 0190 64030000 		.4byte	.LASF32
 1126 0194 06       		.byte	0x6
 1127 0195 82       		.byte	0x82
 1128 0196 AD000000 		.4byte	0xad
 1129 019a 02       		.byte	0x2
ARM GAS  C:\Users\jenny\AppData\Local\Temp\ccbhbpyh.s 			page 21


 1130 019b 23       		.byte	0x23
 1131 019c 1E       		.uleb128 0x1e
 1132 019d 06       		.uleb128 0x6
 1133 019e 70020000 		.4byte	.LASF33
 1134 01a2 06       		.byte	0x6
 1135 01a3 88       		.byte	0x88
 1136 01a4 B8000000 		.4byte	0xb8
 1137 01a8 02       		.byte	0x2
 1138 01a9 23       		.byte	0x23
 1139 01aa 1F       		.uleb128 0x1f
 1140 01ab 06       		.uleb128 0x6
 1141 01ac 28030000 		.4byte	.LASF34
 1142 01b0 06       		.byte	0x6
 1143 01b1 8F       		.byte	0x8f
 1144 01b2 37040000 		.4byte	0x437
 1145 01b6 02       		.byte	0x2
 1146 01b7 23       		.byte	0x23
 1147 01b8 20       		.uleb128 0x20
 1148 01b9 07       		.uleb128 0x7
 1149 01ba 705F7500 		.ascii	"p_u\000"
 1150 01be 06       		.byte	0x6
 1151 01bf B4       		.byte	0xb4
 1152 01c0 20050000 		.4byte	0x520
 1153 01c4 02       		.byte	0x2
 1154 01c5 23       		.byte	0x23
 1155 01c6 24       		.uleb128 0x24
 1156 01c7 06       		.uleb128 0x6
 1157 01c8 13040000 		.4byte	.LASF35
 1158 01cc 06       		.byte	0x6
 1159 01cd B9       		.byte	0xb9
 1160 01ce 77020000 		.4byte	0x277
 1161 01d2 02       		.byte	0x2
 1162 01d3 23       		.byte	0x23
 1163 01d4 28       		.uleb128 0x28
 1164 01d5 06       		.uleb128 0x6
 1165 01d6 42030000 		.4byte	.LASF36
 1166 01da 06       		.byte	0x6
 1167 01db BF       		.byte	0xbf
 1168 01dc 55020000 		.4byte	0x255
 1169 01e0 02       		.byte	0x2
 1170 01e1 23       		.byte	0x23
 1171 01e2 2C       		.uleb128 0x2c
 1172 01e3 06       		.uleb128 0x6
 1173 01e4 00000000 		.4byte	.LASF37
 1174 01e8 06       		.byte	0x6
 1175 01e9 C3       		.byte	0xc3
 1176 01ea CE000000 		.4byte	0xce
 1177 01ee 02       		.byte	0x2
 1178 01ef 23       		.byte	0x23
 1179 01f0 34       		.uleb128 0x34
 1180 01f1 06       		.uleb128 0x6
 1181 01f2 B7020000 		.4byte	.LASF38
 1182 01f6 06       		.byte	0x6
 1183 01f7 C9       		.byte	0xc9
 1184 01f8 D9000000 		.4byte	0xd9
 1185 01fc 02       		.byte	0x2
 1186 01fd 23       		.byte	0x23
ARM GAS  C:\Users\jenny\AppData\Local\Temp\ccbhbpyh.s 			page 22


 1187 01fe 38       		.uleb128 0x38
 1188 01ff 06       		.uleb128 0x6
 1189 0200 54020000 		.4byte	.LASF39
 1190 0204 06       		.byte	0x6
 1191 0205 D0       		.byte	0xd0
 1192 0206 67050000 		.4byte	0x567
 1193 020a 02       		.byte	0x2
 1194 020b 23       		.byte	0x23
 1195 020c 3C       		.uleb128 0x3c
 1196 020d 06       		.uleb128 0x6
 1197 020e 13030000 		.4byte	.LASF40
 1198 0212 06       		.byte	0x6
 1199 0213 D4       		.byte	0xd4
 1200 0214 C3000000 		.4byte	0xc3
 1201 0218 02       		.byte	0x2
 1202 0219 23       		.byte	0x23
 1203 021a 40       		.uleb128 0x40
 1204 021b 06       		.uleb128 0x6
 1205 021c 80000000 		.4byte	.LASF41
 1206 0220 06       		.byte	0x6
 1207 0221 DA       		.byte	0xda
 1208 0222 8D020000 		.4byte	0x28d
 1209 0226 02       		.byte	0x2
 1210 0227 23       		.byte	0x23
 1211 0228 44       		.uleb128 0x44
 1212 0229 00       		.byte	0
 1213 022a 08       		.uleb128 0x8
 1214 022b 08       		.byte	0x8
 1215 022c 05       		.byte	0x5
 1216 022d 61       		.byte	0x61
 1217 022e 4F020000 		.4byte	0x24f
 1218 0232 06       		.uleb128 0x6
 1219 0233 88020000 		.4byte	.LASF23
 1220 0237 05       		.byte	0x5
 1221 0238 62       		.byte	0x62
 1222 0239 4F020000 		.4byte	0x24f
 1223 023d 02       		.byte	0x2
 1224 023e 23       		.byte	0x23
 1225 023f 00       		.uleb128 0
 1226 0240 06       		.uleb128 0x6
 1227 0241 29020000 		.4byte	.LASF24
 1228 0245 05       		.byte	0x5
 1229 0246 64       		.byte	0x64
 1230 0247 4F020000 		.4byte	0x24f
 1231 024b 02       		.byte	0x2
 1232 024c 23       		.byte	0x23
 1233 024d 04       		.uleb128 0x4
 1234 024e 00       		.byte	0
 1235 024f 09       		.uleb128 0x9
 1236 0250 04       		.byte	0x4
 1237 0251 FA000000 		.4byte	0xfa
 1238 0255 04       		.uleb128 0x4
 1239 0256 FD010000 		.4byte	.LASF42
 1240 025a 05       		.byte	0x5
 1241 025b 66       		.byte	0x66
 1242 025c 2A020000 		.4byte	0x22a
 1243 0260 08       		.uleb128 0x8
ARM GAS  C:\Users\jenny\AppData\Local\Temp\ccbhbpyh.s 			page 23


 1244 0261 04       		.byte	0x4
 1245 0262 05       		.byte	0x5
 1246 0263 6B       		.byte	0x6b
 1247 0264 77020000 		.4byte	0x277
 1248 0268 06       		.uleb128 0x6
 1249 0269 88020000 		.4byte	.LASF23
 1250 026d 05       		.byte	0x5
 1251 026e 6D       		.byte	0x6d
 1252 026f 4F020000 		.4byte	0x24f
 1253 0273 02       		.byte	0x2
 1254 0274 23       		.byte	0x23
 1255 0275 00       		.uleb128 0
 1256 0276 00       		.byte	0
 1257 0277 04       		.uleb128 0x4
 1258 0278 C8010000 		.4byte	.LASF43
 1259 027c 05       		.byte	0x5
 1260 027d 70       		.byte	0x70
 1261 027e 60020000 		.4byte	0x260
 1262 0282 04       		.uleb128 0x4
 1263 0283 43010000 		.4byte	.LASF44
 1264 0287 07       		.byte	0x7
 1265 0288 E5       		.byte	0xe5
 1266 0289 8D020000 		.4byte	0x28d
 1267 028d 0A       		.uleb128 0xa
 1268 028e 04       		.byte	0x4
 1269 028f 0B       		.uleb128 0xb
 1270 0290 3B030000 		.4byte	.LASF45
 1271 0294 64       		.byte	0x64
 1272 0295 07       		.byte	0x7
 1273 0296 0C01     		.2byte	0x10c
 1274 0298 0D040000 		.4byte	0x40d
 1275 029c 0C       		.uleb128 0xc
 1276 029d 73313600 		.ascii	"s16\000"
 1277 02a1 07       		.byte	0x7
 1278 02a2 0E01     		.2byte	0x10e
 1279 02a4 82020000 		.4byte	0x282
 1280 02a8 02       		.byte	0x2
 1281 02a9 23       		.byte	0x23
 1282 02aa 00       		.uleb128 0
 1283 02ab 0C       		.uleb128 0xc
 1284 02ac 73313700 		.ascii	"s17\000"
 1285 02b0 07       		.byte	0x7
 1286 02b1 0F01     		.2byte	0x10f
 1287 02b3 82020000 		.4byte	0x282
 1288 02b7 02       		.byte	0x2
 1289 02b8 23       		.byte	0x23
 1290 02b9 04       		.uleb128 0x4
 1291 02ba 0C       		.uleb128 0xc
 1292 02bb 73313800 		.ascii	"s18\000"
 1293 02bf 07       		.byte	0x7
 1294 02c0 1001     		.2byte	0x110
 1295 02c2 82020000 		.4byte	0x282
 1296 02c6 02       		.byte	0x2
 1297 02c7 23       		.byte	0x23
 1298 02c8 08       		.uleb128 0x8
 1299 02c9 0C       		.uleb128 0xc
 1300 02ca 73313900 		.ascii	"s19\000"
ARM GAS  C:\Users\jenny\AppData\Local\Temp\ccbhbpyh.s 			page 24


 1301 02ce 07       		.byte	0x7
 1302 02cf 1101     		.2byte	0x111
 1303 02d1 82020000 		.4byte	0x282
 1304 02d5 02       		.byte	0x2
 1305 02d6 23       		.byte	0x23
 1306 02d7 0C       		.uleb128 0xc
 1307 02d8 0C       		.uleb128 0xc
 1308 02d9 73323000 		.ascii	"s20\000"
 1309 02dd 07       		.byte	0x7
 1310 02de 1201     		.2byte	0x112
 1311 02e0 82020000 		.4byte	0x282
 1312 02e4 02       		.byte	0x2
 1313 02e5 23       		.byte	0x23
 1314 02e6 10       		.uleb128 0x10
 1315 02e7 0C       		.uleb128 0xc
 1316 02e8 73323100 		.ascii	"s21\000"
 1317 02ec 07       		.byte	0x7
 1318 02ed 1301     		.2byte	0x113
 1319 02ef 82020000 		.4byte	0x282
 1320 02f3 02       		.byte	0x2
 1321 02f4 23       		.byte	0x23
 1322 02f5 14       		.uleb128 0x14
 1323 02f6 0C       		.uleb128 0xc
 1324 02f7 73323200 		.ascii	"s22\000"
 1325 02fb 07       		.byte	0x7
 1326 02fc 1401     		.2byte	0x114
 1327 02fe 82020000 		.4byte	0x282
 1328 0302 02       		.byte	0x2
 1329 0303 23       		.byte	0x23
 1330 0304 18       		.uleb128 0x18
 1331 0305 0C       		.uleb128 0xc
 1332 0306 73323300 		.ascii	"s23\000"
 1333 030a 07       		.byte	0x7
 1334 030b 1501     		.2byte	0x115
 1335 030d 82020000 		.4byte	0x282
 1336 0311 02       		.byte	0x2
 1337 0312 23       		.byte	0x23
 1338 0313 1C       		.uleb128 0x1c
 1339 0314 0C       		.uleb128 0xc
 1340 0315 73323400 		.ascii	"s24\000"
 1341 0319 07       		.byte	0x7
 1342 031a 1601     		.2byte	0x116
 1343 031c 82020000 		.4byte	0x282
 1344 0320 02       		.byte	0x2
 1345 0321 23       		.byte	0x23
 1346 0322 20       		.uleb128 0x20
 1347 0323 0C       		.uleb128 0xc
 1348 0324 73323500 		.ascii	"s25\000"
 1349 0328 07       		.byte	0x7
 1350 0329 1701     		.2byte	0x117
 1351 032b 82020000 		.4byte	0x282
 1352 032f 02       		.byte	0x2
 1353 0330 23       		.byte	0x23
 1354 0331 24       		.uleb128 0x24
 1355 0332 0C       		.uleb128 0xc
 1356 0333 73323600 		.ascii	"s26\000"
 1357 0337 07       		.byte	0x7
ARM GAS  C:\Users\jenny\AppData\Local\Temp\ccbhbpyh.s 			page 25


 1358 0338 1801     		.2byte	0x118
 1359 033a 82020000 		.4byte	0x282
 1360 033e 02       		.byte	0x2
 1361 033f 23       		.byte	0x23
 1362 0340 28       		.uleb128 0x28
 1363 0341 0C       		.uleb128 0xc
 1364 0342 73323700 		.ascii	"s27\000"
 1365 0346 07       		.byte	0x7
 1366 0347 1901     		.2byte	0x119
 1367 0349 82020000 		.4byte	0x282
 1368 034d 02       		.byte	0x2
 1369 034e 23       		.byte	0x23
 1370 034f 2C       		.uleb128 0x2c
 1371 0350 0C       		.uleb128 0xc
 1372 0351 73323800 		.ascii	"s28\000"
 1373 0355 07       		.byte	0x7
 1374 0356 1A01     		.2byte	0x11a
 1375 0358 82020000 		.4byte	0x282
 1376 035c 02       		.byte	0x2
 1377 035d 23       		.byte	0x23
 1378 035e 30       		.uleb128 0x30
 1379 035f 0C       		.uleb128 0xc
 1380 0360 73323900 		.ascii	"s29\000"
 1381 0364 07       		.byte	0x7
 1382 0365 1B01     		.2byte	0x11b
 1383 0367 82020000 		.4byte	0x282
 1384 036b 02       		.byte	0x2
 1385 036c 23       		.byte	0x23
 1386 036d 34       		.uleb128 0x34
 1387 036e 0C       		.uleb128 0xc
 1388 036f 73333000 		.ascii	"s30\000"
 1389 0373 07       		.byte	0x7
 1390 0374 1C01     		.2byte	0x11c
 1391 0376 82020000 		.4byte	0x282
 1392 037a 02       		.byte	0x2
 1393 037b 23       		.byte	0x23
 1394 037c 38       		.uleb128 0x38
 1395 037d 0C       		.uleb128 0xc
 1396 037e 73333100 		.ascii	"s31\000"
 1397 0382 07       		.byte	0x7
 1398 0383 1D01     		.2byte	0x11d
 1399 0385 82020000 		.4byte	0x282
 1400 0389 02       		.byte	0x2
 1401 038a 23       		.byte	0x23
 1402 038b 3C       		.uleb128 0x3c
 1403 038c 0C       		.uleb128 0xc
 1404 038d 723400   		.ascii	"r4\000"
 1405 0390 07       		.byte	0x7
 1406 0391 1F01     		.2byte	0x11f
 1407 0393 82020000 		.4byte	0x282
 1408 0397 02       		.byte	0x2
 1409 0398 23       		.byte	0x23
 1410 0399 40       		.uleb128 0x40
 1411 039a 0C       		.uleb128 0xc
 1412 039b 723500   		.ascii	"r5\000"
 1413 039e 07       		.byte	0x7
 1414 039f 2001     		.2byte	0x120
ARM GAS  C:\Users\jenny\AppData\Local\Temp\ccbhbpyh.s 			page 26


 1415 03a1 82020000 		.4byte	0x282
 1416 03a5 02       		.byte	0x2
 1417 03a6 23       		.byte	0x23
 1418 03a7 44       		.uleb128 0x44
 1419 03a8 0C       		.uleb128 0xc
 1420 03a9 723600   		.ascii	"r6\000"
 1421 03ac 07       		.byte	0x7
 1422 03ad 2101     		.2byte	0x121
 1423 03af 82020000 		.4byte	0x282
 1424 03b3 02       		.byte	0x2
 1425 03b4 23       		.byte	0x23
 1426 03b5 48       		.uleb128 0x48
 1427 03b6 0C       		.uleb128 0xc
 1428 03b7 723700   		.ascii	"r7\000"
 1429 03ba 07       		.byte	0x7
 1430 03bb 2201     		.2byte	0x122
 1431 03bd 82020000 		.4byte	0x282
 1432 03c1 02       		.byte	0x2
 1433 03c2 23       		.byte	0x23
 1434 03c3 4C       		.uleb128 0x4c
 1435 03c4 0C       		.uleb128 0xc
 1436 03c5 723800   		.ascii	"r8\000"
 1437 03c8 07       		.byte	0x7
 1438 03c9 2301     		.2byte	0x123
 1439 03cb 82020000 		.4byte	0x282
 1440 03cf 02       		.byte	0x2
 1441 03d0 23       		.byte	0x23
 1442 03d1 50       		.uleb128 0x50
 1443 03d2 0C       		.uleb128 0xc
 1444 03d3 723900   		.ascii	"r9\000"
 1445 03d6 07       		.byte	0x7
 1446 03d7 2401     		.2byte	0x124
 1447 03d9 82020000 		.4byte	0x282
 1448 03dd 02       		.byte	0x2
 1449 03de 23       		.byte	0x23
 1450 03df 54       		.uleb128 0x54
 1451 03e0 0C       		.uleb128 0xc
 1452 03e1 72313000 		.ascii	"r10\000"
 1453 03e5 07       		.byte	0x7
 1454 03e6 2501     		.2byte	0x125
 1455 03e8 82020000 		.4byte	0x282
 1456 03ec 02       		.byte	0x2
 1457 03ed 23       		.byte	0x23
 1458 03ee 58       		.uleb128 0x58
 1459 03ef 0C       		.uleb128 0xc
 1460 03f0 72313100 		.ascii	"r11\000"
 1461 03f4 07       		.byte	0x7
 1462 03f5 2601     		.2byte	0x126
 1463 03f7 82020000 		.4byte	0x282
 1464 03fb 02       		.byte	0x2
 1465 03fc 23       		.byte	0x23
 1466 03fd 5C       		.uleb128 0x5c
 1467 03fe 0C       		.uleb128 0xc
 1468 03ff 6C7200   		.ascii	"lr\000"
 1469 0402 07       		.byte	0x7
 1470 0403 2701     		.2byte	0x127
 1471 0405 82020000 		.4byte	0x282
ARM GAS  C:\Users\jenny\AppData\Local\Temp\ccbhbpyh.s 			page 27


 1472 0409 02       		.byte	0x2
 1473 040a 23       		.byte	0x23
 1474 040b 60       		.uleb128 0x60
 1475 040c 00       		.byte	0
 1476 040d 0B       		.uleb128 0xb
 1477 040e 94010000 		.4byte	.LASF46
 1478 0412 04       		.byte	0x4
 1479 0413 07       		.byte	0x7
 1480 0414 3101     		.2byte	0x131
 1481 0416 2A040000 		.4byte	0x42a
 1482 041a 0C       		.uleb128 0xc
 1483 041b 72313300 		.ascii	"r13\000"
 1484 041f 07       		.byte	0x7
 1485 0420 3201     		.2byte	0x132
 1486 0422 2A040000 		.4byte	0x42a
 1487 0426 02       		.byte	0x2
 1488 0427 23       		.byte	0x23
 1489 0428 00       		.uleb128 0
 1490 0429 00       		.byte	0
 1491 042a 09       		.uleb128 0x9
 1492 042b 04       		.byte	0x4
 1493 042c 8F020000 		.4byte	0x28f
 1494 0430 03       		.uleb128 0x3
 1495 0431 04       		.byte	0x4
 1496 0432 07       		.byte	0x7
 1497 0433 E6010000 		.4byte	.LASF47
 1498 0437 0D       		.uleb128 0xd
 1499 0438 E4000000 		.4byte	0xe4
 1500 043c 08       		.uleb128 0x8
 1501 043d 1C       		.byte	0x1c
 1502 043e 08       		.byte	0x8
 1503 043f 5E       		.byte	0x5e
 1504 0440 99040000 		.4byte	0x499
 1505 0444 06       		.uleb128 0x6
 1506 0445 CB020000 		.4byte	.LASF48
 1507 0449 08       		.byte	0x8
 1508 044a 5F       		.byte	0x5f
 1509 044b 55020000 		.4byte	0x255
 1510 044f 02       		.byte	0x2
 1511 0450 23       		.byte	0x23
 1512 0451 00       		.uleb128 0
 1513 0452 06       		.uleb128 0x6
 1514 0453 7A020000 		.4byte	.LASF49
 1515 0457 08       		.byte	0x8
 1516 0458 60       		.byte	0x60
 1517 0459 C3000000 		.4byte	0xc3
 1518 045d 02       		.byte	0x2
 1519 045e 23       		.byte	0x23
 1520 045f 08       		.uleb128 0x8
 1521 0460 06       		.uleb128 0x6
 1522 0461 F7010000 		.4byte	.LASF50
 1523 0465 08       		.byte	0x8
 1524 0466 62       		.byte	0x62
 1525 0467 0D040000 		.4byte	0x40d
 1526 046b 02       		.byte	0x2
 1527 046c 23       		.byte	0x23
 1528 046d 0C       		.uleb128 0xc
ARM GAS  C:\Users\jenny\AppData\Local\Temp\ccbhbpyh.s 			page 28


 1529 046e 06       		.uleb128 0x6
 1530 046f 3B010000 		.4byte	.LASF51
 1531 0473 08       		.byte	0x8
 1532 0474 65       		.byte	0x65
 1533 0475 4F020000 		.4byte	0x24f
 1534 0479 02       		.byte	0x2
 1535 047a 23       		.byte	0x23
 1536 047b 10       		.uleb128 0x10
 1537 047c 06       		.uleb128 0x6
 1538 047d 19020000 		.4byte	.LASF52
 1539 0481 08       		.byte	0x8
 1540 0482 66       		.byte	0x66
 1541 0483 4F020000 		.4byte	0x24f
 1542 0487 02       		.byte	0x2
 1543 0488 23       		.byte	0x23
 1544 0489 14       		.uleb128 0x14
 1545 048a 06       		.uleb128 0x6
 1546 048b 0F020000 		.4byte	.LASF53
 1547 048f 08       		.byte	0x8
 1548 0490 69       		.byte	0x69
 1549 0491 4F020000 		.4byte	0x24f
 1550 0495 02       		.byte	0x2
 1551 0496 23       		.byte	0x23
 1552 0497 18       		.uleb128 0x18
 1553 0498 00       		.byte	0
 1554 0499 04       		.uleb128 0x4
 1555 049a 6B030000 		.4byte	.LASF54
 1556 049e 08       		.byte	0x8
 1557 049f 6B       		.byte	0x6b
 1558 04a0 3C040000 		.4byte	0x43c
 1559 04a4 05       		.uleb128 0x5
 1560 04a5 5A030000 		.4byte	.LASF55
 1561 04a9 0C       		.byte	0xc
 1562 04aa 09       		.byte	0x9
 1563 04ab 2C       		.byte	0x2c
 1564 04ac CD040000 		.4byte	0x4cd
 1565 04b0 06       		.uleb128 0x6
 1566 04b1 19010000 		.4byte	.LASF56
 1567 04b5 09       		.byte	0x9
 1568 04b6 2D       		.byte	0x2d
 1569 04b7 55020000 		.4byte	0x255
 1570 04bb 02       		.byte	0x2
 1571 04bc 23       		.byte	0x23
 1572 04bd 00       		.uleb128 0
 1573 04be 06       		.uleb128 0x6
 1574 04bf 8E010000 		.4byte	.LASF57
 1575 04c3 09       		.byte	0x9
 1576 04c4 2F       		.byte	0x2f
 1577 04c5 EF000000 		.4byte	0xef
 1578 04c9 02       		.byte	0x2
 1579 04ca 23       		.byte	0x23
 1580 04cb 08       		.uleb128 0x8
 1581 04cc 00       		.byte	0
 1582 04cd 04       		.uleb128 0x4
 1583 04ce 5A030000 		.4byte	.LASF55
 1584 04d2 09       		.byte	0x9
 1585 04d3 30       		.byte	0x30
ARM GAS  C:\Users\jenny\AppData\Local\Temp\ccbhbpyh.s 			page 29


 1586 04d4 A4040000 		.4byte	0x4a4
 1587 04d8 05       		.uleb128 0x5
 1588 04d9 E0010000 		.4byte	.LASF58
 1589 04dd 10       		.byte	0x10
 1590 04de 0A       		.byte	0xa
 1591 04df 2C       		.byte	0x2c
 1592 04e0 0F050000 		.4byte	0x50f
 1593 04e4 06       		.uleb128 0x6
 1594 04e5 88000000 		.4byte	.LASF59
 1595 04e9 0A       		.byte	0xa
 1596 04ea 2D       		.byte	0x2d
 1597 04eb 55020000 		.4byte	0x255
 1598 04ef 02       		.byte	0x2
 1599 04f0 23       		.byte	0x23
 1600 04f1 00       		.uleb128 0
 1601 04f2 06       		.uleb128 0x6
 1602 04f3 05040000 		.4byte	.LASF60
 1603 04f7 0A       		.byte	0xa
 1604 04f8 2F       		.byte	0x2f
 1605 04f9 4F020000 		.4byte	0x24f
 1606 04fd 02       		.byte	0x2
 1607 04fe 23       		.byte	0x23
 1608 04ff 08       		.uleb128 0x8
 1609 0500 06       		.uleb128 0x6
 1610 0501 02030000 		.4byte	.LASF61
 1611 0505 0A       		.byte	0xa
 1612 0506 31       		.byte	0x31
 1613 0507 0F050000 		.4byte	0x50f
 1614 050b 02       		.byte	0x2
 1615 050c 23       		.byte	0x23
 1616 050d 0C       		.uleb128 0xc
 1617 050e 00       		.byte	0
 1618 050f 09       		.uleb128 0x9
 1619 0510 04       		.byte	0x4
 1620 0511 D8040000 		.4byte	0x4d8
 1621 0515 04       		.uleb128 0x4
 1622 0516 E0010000 		.4byte	.LASF58
 1623 051a 0A       		.byte	0xa
 1624 051b 33       		.byte	0x33
 1625 051c D8040000 		.4byte	0x4d8
 1626 0520 0E       		.uleb128 0xe
 1627 0521 04       		.byte	0x4
 1628 0522 06       		.byte	0x6
 1629 0523 96       		.byte	0x96
 1630 0524 55050000 		.4byte	0x555
 1631 0528 0F       		.uleb128 0xf
 1632 0529 20000000 		.4byte	.LASF62
 1633 052d 06       		.byte	0x6
 1634 052e 9D       		.byte	0x9d
 1635 052f CE000000 		.4byte	0xce
 1636 0533 0F       		.uleb128 0xf
 1637 0534 21010000 		.4byte	.LASF63
 1638 0538 06       		.byte	0x6
 1639 0539 A4       		.byte	0xa4
 1640 053a CE000000 		.4byte	0xce
 1641 053e 0F       		.uleb128 0xf
 1642 053f E2030000 		.4byte	.LASF64
ARM GAS  C:\Users\jenny\AppData\Local\Temp\ccbhbpyh.s 			page 30


 1643 0543 06       		.byte	0x6
 1644 0544 AB       		.byte	0xab
 1645 0545 8D020000 		.4byte	0x28d
 1646 0549 0F       		.uleb128 0xf
 1647 054a 81020000 		.4byte	.LASF65
 1648 054e 06       		.byte	0x6
 1649 054f B2       		.byte	0xb2
 1650 0550 D9000000 		.4byte	0xd9
 1651 0554 00       		.byte	0
 1652 0555 09       		.uleb128 0x9
 1653 0556 04       		.byte	0x4
 1654 0557 5B050000 		.4byte	0x55b
 1655 055b 10       		.uleb128 0x10
 1656 055c 60050000 		.4byte	0x560
 1657 0560 03       		.uleb128 0x3
 1658 0561 01       		.byte	0x1
 1659 0562 08       		.byte	0x8
 1660 0563 D3020000 		.4byte	.LASF66
 1661 0567 09       		.uleb128 0x9
 1662 0568 04       		.byte	0x4
 1663 0569 15050000 		.4byte	0x515
 1664 056d 11       		.uleb128 0x11
 1665 056e 2F030000 		.4byte	.LASF67
 1666 0572 02       		.byte	0x2
 1667 0573 42       		.byte	0x42
 1668 0574 01       		.byte	0x1
 1669 0575 4F020000 		.4byte	0x24f
 1670 0579 03       		.byte	0x3
 1671 057a 94050000 		.4byte	0x594
 1672 057e 12       		.uleb128 0x12
 1673 057f 74717000 		.ascii	"tqp\000"
 1674 0583 02       		.byte	0x2
 1675 0584 42       		.byte	0x42
 1676 0585 94050000 		.4byte	0x594
 1677 0589 13       		.uleb128 0x13
 1678 058a 747000   		.ascii	"tp\000"
 1679 058d 02       		.byte	0x2
 1680 058e 43       		.byte	0x43
 1681 058f 4F020000 		.4byte	0x24f
 1682 0593 00       		.byte	0
 1683 0594 09       		.uleb128 0x9
 1684 0595 04       		.byte	0x4
 1685 0596 55020000 		.4byte	0x255
 1686 059a 14       		.uleb128 0x14
 1687 059b 06000000 		.4byte	.LASF86
 1688 059f 02       		.byte	0x2
 1689 05a0 34       		.byte	0x34
 1690 05a1 01       		.byte	0x1
 1691 05a2 03       		.byte	0x3
 1692 05a3 BD050000 		.4byte	0x5bd
 1693 05a7 12       		.uleb128 0x12
 1694 05a8 747000   		.ascii	"tp\000"
 1695 05ab 02       		.byte	0x2
 1696 05ac 34       		.byte	0x34
 1697 05ad 4F020000 		.4byte	0x24f
 1698 05b1 12       		.uleb128 0x12
 1699 05b2 74717000 		.ascii	"tqp\000"
ARM GAS  C:\Users\jenny\AppData\Local\Temp\ccbhbpyh.s 			page 31


 1700 05b6 02       		.byte	0x2
 1701 05b7 34       		.byte	0x34
 1702 05b8 94050000 		.4byte	0x594
 1703 05bc 00       		.byte	0
 1704 05bd 11       		.uleb128 0x11
 1705 05be D8020000 		.4byte	.LASF68
 1706 05c2 02       		.byte	0x2
 1707 05c3 3B       		.byte	0x3b
 1708 05c4 01       		.byte	0x1
 1709 05c5 4F020000 		.4byte	0x24f
 1710 05c9 03       		.byte	0x3
 1711 05ca E4050000 		.4byte	0x5e4
 1712 05ce 12       		.uleb128 0x12
 1713 05cf 74717000 		.ascii	"tqp\000"
 1714 05d3 02       		.byte	0x2
 1715 05d4 3B       		.byte	0x3b
 1716 05d5 94050000 		.4byte	0x594
 1717 05d9 13       		.uleb128 0x13
 1718 05da 747000   		.ascii	"tp\000"
 1719 05dd 02       		.byte	0x2
 1720 05de 3C       		.byte	0x3c
 1721 05df 4F020000 		.4byte	0x24f
 1722 05e3 00       		.byte	0
 1723 05e4 15       		.uleb128 0x15
 1724 05e5 01       		.byte	0x1
 1725 05e6 1D040000 		.4byte	.LASF69
 1726 05ea 01       		.byte	0x1
 1727 05eb 56       		.byte	0x56
 1728 05ec 01       		.byte	0x1
 1729 05ed 00000000 		.4byte	.LFB7
 1730 05f1 08000000 		.4byte	.LFE7
 1731 05f5 02       		.byte	0x2
 1732 05f6 7D       		.byte	0x7d
 1733 05f7 00       		.sleb128 0
 1734 05f8 01       		.byte	0x1
 1735 05f9 15060000 		.4byte	0x615
 1736 05fd 16       		.uleb128 0x16
 1737 05fe 737000   		.ascii	"sp\000"
 1738 0601 01       		.byte	0x1
 1739 0602 56       		.byte	0x56
 1740 0603 15060000 		.4byte	0x615
 1741 0607 01       		.byte	0x1
 1742 0608 50       		.byte	0x50
 1743 0609 16       		.uleb128 0x16
 1744 060a 6E00     		.ascii	"n\000"
 1745 060c 01       		.byte	0x1
 1746 060d 56       		.byte	0x56
 1747 060e EF000000 		.4byte	0xef
 1748 0612 01       		.byte	0x1
 1749 0613 51       		.byte	0x51
 1750 0614 00       		.byte	0
 1751 0615 09       		.uleb128 0x9
 1752 0616 04       		.byte	0x4
 1753 0617 CD040000 		.4byte	0x4cd
 1754 061b 17       		.uleb128 0x17
 1755 061c 01       		.byte	0x1
 1756 061d 75030000 		.4byte	.LASF70
ARM GAS  C:\Users\jenny\AppData\Local\Temp\ccbhbpyh.s 			page 32


 1757 0621 01       		.byte	0x1
 1758 0622 88       		.byte	0x88
 1759 0623 01       		.byte	0x1
 1760 0624 00000000 		.4byte	.LFB9
 1761 0628 68000000 		.4byte	.LFE9
 1762 062c 00000000 		.4byte	.LLST0
 1763 0630 01       		.byte	0x1
 1764 0631 AC060000 		.4byte	0x6ac
 1765 0635 18       		.uleb128 0x18
 1766 0636 737000   		.ascii	"sp\000"
 1767 0639 01       		.byte	0x1
 1768 063a 88       		.byte	0x88
 1769 063b 15060000 		.4byte	0x615
 1770 063f 20000000 		.4byte	.LLST1
 1771 0643 18       		.uleb128 0x18
 1772 0644 6E00     		.ascii	"n\000"
 1773 0646 01       		.byte	0x1
 1774 0647 88       		.byte	0x88
 1775 0648 EF000000 		.4byte	0xef
 1776 064c 3E000000 		.4byte	.LLST2
 1777 0650 19       		.uleb128 0x19
 1778 0651 636E7400 		.ascii	"cnt\000"
 1779 0655 01       		.byte	0x1
 1780 0656 89       		.byte	0x89
 1781 0657 EF000000 		.4byte	0xef
 1782 065b 5F000000 		.4byte	.LLST3
 1783 065f 1A       		.uleb128 0x1a
 1784 0660 6D050000 		.4byte	0x56d
 1785 0664 0E000000 		.4byte	.LBB24
 1786 0668 00000000 		.4byte	.Ldebug_ranges0+0
 1787 066c 01       		.byte	0x1
 1788 066d 95       		.byte	0x95
 1789 066e 87060000 		.4byte	0x687
 1790 0672 1B       		.uleb128 0x1b
 1791 0673 7E050000 		.4byte	0x57e
 1792 0677 7D000000 		.4byte	.LLST4
 1793 067b 1C       		.uleb128 0x1c
 1794 067c 28000000 		.4byte	.Ldebug_ranges0+0x28
 1795 0680 1D       		.uleb128 0x1d
 1796 0681 89050000 		.4byte	0x589
 1797 0685 00       		.byte	0
 1798 0686 00       		.byte	0
 1799 0687 1E       		.uleb128 0x1e
 1800 0688 1A000000 		.4byte	.LVL5
 1801 068c 070C0000 		.4byte	0xc07
 1802 0690 1E       		.uleb128 0x1e
 1803 0691 36000000 		.4byte	.LVL7
 1804 0695 070C0000 		.4byte	0xc07
 1805 0699 1E       		.uleb128 0x1e
 1806 069a 4A000000 		.4byte	.LVL9
 1807 069e 070C0000 		.4byte	0xc07
 1808 06a2 1E       		.uleb128 0x1e
 1809 06a3 58000000 		.4byte	.LVL10
 1810 06a7 070C0000 		.4byte	0xc07
 1811 06ab 00       		.byte	0
 1812 06ac 17       		.uleb128 0x17
 1813 06ad 01       		.byte	0x1
ARM GAS  C:\Users\jenny\AppData\Local\Temp\ccbhbpyh.s 			page 33


 1814 06ae AF010000 		.4byte	.LASF71
 1815 06b2 01       		.byte	0x1
 1816 06b3 6D       		.byte	0x6d
 1817 06b4 01       		.byte	0x1
 1818 06b5 00000000 		.4byte	.LFB8
 1819 06b9 18000000 		.4byte	.LFE8
 1820 06bd 9B000000 		.4byte	.LLST5
 1821 06c1 01       		.byte	0x1
 1822 06c2 41070000 		.4byte	0x741
 1823 06c6 18       		.uleb128 0x18
 1824 06c7 737000   		.ascii	"sp\000"
 1825 06ca 01       		.byte	0x1
 1826 06cb 6D       		.byte	0x6d
 1827 06cc 15060000 		.4byte	0x615
 1828 06d0 BB000000 		.4byte	.LLST6
 1829 06d4 18       		.uleb128 0x18
 1830 06d5 6E00     		.ascii	"n\000"
 1831 06d7 01       		.byte	0x1
 1832 06d8 6D       		.byte	0x6d
 1833 06d9 EF000000 		.4byte	0xef
 1834 06dd DC000000 		.4byte	.LLST7
 1835 06e1 1F       		.uleb128 0x1f
 1836 06e2 02000000 		.4byte	.LBB32
 1837 06e6 08000000 		.4byte	.LBE32
 1838 06ea FE060000 		.4byte	0x6fe
 1839 06ee 19       		.uleb128 0x19
 1840 06ef 746D7000 		.ascii	"tmp\000"
 1841 06f3 01       		.byte	0x1
 1842 06f4 6F       		.byte	0x6f
 1843 06f5 70000000 		.4byte	0x70
 1844 06f9 FD000000 		.4byte	.LLST8
 1845 06fd 00       		.byte	0
 1846 06fe 1F       		.uleb128 0x1f
 1847 06ff 10000000 		.4byte	.LBB33
 1848 0703 18000000 		.4byte	.LBE33
 1849 0707 1B070000 		.4byte	0x71b
 1850 070b 19       		.uleb128 0x19
 1851 070c 746D7000 		.ascii	"tmp\000"
 1852 0710 01       		.byte	0x1
 1853 0711 72       		.byte	0x72
 1854 0712 70000000 		.4byte	0x70
 1855 0716 10010000 		.4byte	.LLST9
 1856 071a 00       		.byte	0
 1857 071b 20       		.uleb128 0x20
 1858 071c 0C000000 		.4byte	.LVL17
 1859 0720 1B060000 		.4byte	0x61b
 1860 0724 37070000 		.4byte	0x737
 1861 0728 21       		.uleb128 0x21
 1862 0729 01       		.byte	0x1
 1863 072a 51       		.byte	0x51
 1864 072b 03       		.byte	0x3
 1865 072c F3       		.byte	0xf3
 1866 072d 01       		.uleb128 0x1
 1867 072e 51       		.byte	0x51
 1868 072f 21       		.uleb128 0x21
 1869 0730 01       		.byte	0x1
 1870 0731 50       		.byte	0x50
ARM GAS  C:\Users\jenny\AppData\Local\Temp\ccbhbpyh.s 			page 34


 1871 0732 03       		.byte	0x3
 1872 0733 F3       		.byte	0xf3
 1873 0734 01       		.uleb128 0x1
 1874 0735 50       		.byte	0x50
 1875 0736 00       		.byte	0
 1876 0737 1E       		.uleb128 0x1e
 1877 0738 10000000 		.4byte	.LVL18
 1878 073c 1F0C0000 		.4byte	0xc1f
 1879 0740 00       		.byte	0
 1880 0741 22       		.uleb128 0x22
 1881 0742 01       		.byte	0x1
 1882 0743 97020000 		.4byte	.LASF72
 1883 0747 01       		.byte	0x1
 1884 0748 B9       		.byte	0xb9
 1885 0749 01       		.byte	0x1
 1886 074a CE000000 		.4byte	0xce
 1887 074e 00000000 		.4byte	.LFB11
 1888 0752 34000000 		.4byte	.LFE11
 1889 0756 23010000 		.4byte	.LLST10
 1890 075a 01       		.byte	0x1
 1891 075b A3070000 		.4byte	0x7a3
 1892 075f 18       		.uleb128 0x18
 1893 0760 737000   		.ascii	"sp\000"
 1894 0763 01       		.byte	0x1
 1895 0764 B9       		.byte	0xb9
 1896 0765 15060000 		.4byte	0x615
 1897 0769 43010000 		.4byte	.LLST11
 1898 076d 1A       		.uleb128 0x1a
 1899 076e 9A050000 		.4byte	0x59a
 1900 0772 18000000 		.4byte	.LBB34
 1901 0776 50000000 		.4byte	.Ldebug_ranges0+0x50
 1902 077a 01       		.byte	0x1
 1903 077b C4       		.byte	0xc4
 1904 077c 93070000 		.4byte	0x793
 1905 0780 1B       		.uleb128 0x1b
 1906 0781 B1050000 		.4byte	0x5b1
 1907 0785 6F010000 		.4byte	.LLST12
 1908 0789 1B       		.uleb128 0x1b
 1909 078a A7050000 		.4byte	0x5a7
 1910 078e 91010000 		.4byte	.LLST13
 1911 0792 00       		.byte	0
 1912 0793 23       		.uleb128 0x23
 1913 0794 28000000 		.4byte	.LVL24
 1914 0798 290C0000 		.4byte	0xc29
 1915 079c 21       		.uleb128 0x21
 1916 079d 01       		.byte	0x1
 1917 079e 50       		.byte	0x50
 1918 079f 01       		.byte	0x1
 1919 07a0 33       		.byte	0x33
 1920 07a1 00       		.byte	0
 1921 07a2 00       		.byte	0
 1922 07a3 22       		.uleb128 0x22
 1923 07a4 01       		.byte	0x1
 1924 07a5 1E030000 		.4byte	.LASF73
 1925 07a9 01       		.byte	0x1
 1926 07aa A4       		.byte	0xa4
 1927 07ab 01       		.byte	0x1
ARM GAS  C:\Users\jenny\AppData\Local\Temp\ccbhbpyh.s 			page 35


 1928 07ac CE000000 		.4byte	0xce
 1929 07b0 00000000 		.4byte	.LFB10
 1930 07b4 14000000 		.4byte	.LFE10
 1931 07b8 A4010000 		.4byte	.LLST14
 1932 07bc 01       		.byte	0x1
 1933 07bd 28080000 		.4byte	0x828
 1934 07c1 18       		.uleb128 0x18
 1935 07c2 737000   		.ascii	"sp\000"
 1936 07c5 01       		.byte	0x1
 1937 07c6 A4       		.byte	0xa4
 1938 07c7 15060000 		.4byte	0x615
 1939 07cb C4010000 		.4byte	.LLST15
 1940 07cf 24       		.uleb128 0x24
 1941 07d0 6D736700 		.ascii	"msg\000"
 1942 07d4 01       		.byte	0x1
 1943 07d5 A5       		.byte	0xa5
 1944 07d6 CE000000 		.4byte	0xce
 1945 07da 01       		.byte	0x1
 1946 07db 50       		.byte	0x50
 1947 07dc 1F       		.uleb128 0x1f
 1948 07dd 02000000 		.4byte	.LBB38
 1949 07e1 08000000 		.4byte	.LBE38
 1950 07e5 F9070000 		.4byte	0x7f9
 1951 07e9 19       		.uleb128 0x19
 1952 07ea 746D7000 		.ascii	"tmp\000"
 1953 07ee 01       		.byte	0x1
 1954 07ef A7       		.byte	0xa7
 1955 07f0 70000000 		.4byte	0x70
 1956 07f4 E5010000 		.4byte	.LLST16
 1957 07f8 00       		.byte	0
 1958 07f9 1F       		.uleb128 0x1f
 1959 07fa 0C000000 		.4byte	.LBB39
 1960 07fe 12000000 		.4byte	.LBE39
 1961 0802 16080000 		.4byte	0x816
 1962 0806 19       		.uleb128 0x19
 1963 0807 746D7000 		.ascii	"tmp\000"
 1964 080b 01       		.byte	0x1
 1965 080c A9       		.byte	0xa9
 1966 080d 70000000 		.4byte	0x70
 1967 0811 F8010000 		.4byte	.LLST17
 1968 0815 00       		.byte	0
 1969 0816 23       		.uleb128 0x23
 1970 0817 0C000000 		.4byte	.LVL28
 1971 081b 41070000 		.4byte	0x741
 1972 081f 21       		.uleb128 0x21
 1973 0820 01       		.byte	0x1
 1974 0821 50       		.byte	0x50
 1975 0822 03       		.byte	0x3
 1976 0823 F3       		.byte	0xf3
 1977 0824 01       		.uleb128 0x1
 1978 0825 50       		.byte	0x50
 1979 0826 00       		.byte	0
 1980 0827 00       		.byte	0
 1981 0828 22       		.uleb128 0x22
 1982 0829 01       		.byte	0x1
 1983 082a E4020000 		.4byte	.LASF74
 1984 082e 01       		.byte	0x1
ARM GAS  C:\Users\jenny\AppData\Local\Temp\ccbhbpyh.s 			page 36


 1985 082f FA       		.byte	0xfa
 1986 0830 01       		.byte	0x1
 1987 0831 CE000000 		.4byte	0xce
 1988 0835 00000000 		.4byte	.LFB13
 1989 0839 3C000000 		.4byte	.LFE13
 1990 083d 0B020000 		.4byte	.LLST18
 1991 0841 01       		.byte	0x1
 1992 0842 9B080000 		.4byte	0x89b
 1993 0846 18       		.uleb128 0x18
 1994 0847 737000   		.ascii	"sp\000"
 1995 084a 01       		.byte	0x1
 1996 084b FA       		.byte	0xfa
 1997 084c 15060000 		.4byte	0x615
 1998 0850 2B020000 		.4byte	.LLST19
 1999 0854 25       		.uleb128 0x25
 2000 0855 0A020000 		.4byte	.LASF75
 2001 0859 01       		.byte	0x1
 2002 085a FA       		.byte	0xfa
 2003 085b E4000000 		.4byte	0xe4
 2004 085f 62020000 		.4byte	.LLST20
 2005 0863 26       		.uleb128 0x26
 2006 0864 9A050000 		.4byte	0x59a
 2007 0868 1E000000 		.4byte	.LBB40
 2008 086c 68000000 		.4byte	.Ldebug_ranges0+0x68
 2009 0870 01       		.byte	0x1
 2010 0871 0901     		.2byte	0x109
 2011 0873 8A080000 		.4byte	0x88a
 2012 0877 1B       		.uleb128 0x1b
 2013 0878 B1050000 		.4byte	0x5b1
 2014 087c 8E020000 		.4byte	.LLST21
 2015 0880 1B       		.uleb128 0x1b
 2016 0881 A7050000 		.4byte	0x5a7
 2017 0885 B0020000 		.4byte	.LLST22
 2018 0889 00       		.byte	0
 2019 088a 27       		.uleb128 0x27
 2020 088b 30000000 		.4byte	.LVL34
 2021 088f 01       		.byte	0x1
 2022 0890 3D0C0000 		.4byte	0xc3d
 2023 0894 21       		.uleb128 0x21
 2024 0895 01       		.byte	0x1
 2025 0896 50       		.byte	0x50
 2026 0897 01       		.byte	0x1
 2027 0898 33       		.byte	0x33
 2028 0899 00       		.byte	0
 2029 089a 00       		.byte	0
 2030 089b 22       		.uleb128 0x22
 2031 089c 01       		.byte	0x1
 2032 089d 5F010000 		.4byte	.LASF76
 2033 08a1 01       		.byte	0x1
 2034 08a2 DE       		.byte	0xde
 2035 08a3 01       		.byte	0x1
 2036 08a4 CE000000 		.4byte	0xce
 2037 08a8 00000000 		.4byte	.LFB12
 2038 08ac 14000000 		.4byte	.LFE12
 2039 08b0 C3020000 		.4byte	.LLST23
 2040 08b4 01       		.byte	0x1
 2041 08b5 36090000 		.4byte	0x936
ARM GAS  C:\Users\jenny\AppData\Local\Temp\ccbhbpyh.s 			page 37


 2042 08b9 18       		.uleb128 0x18
 2043 08ba 737000   		.ascii	"sp\000"
 2044 08bd 01       		.byte	0x1
 2045 08be DE       		.byte	0xde
 2046 08bf 15060000 		.4byte	0x615
 2047 08c3 E3020000 		.4byte	.LLST24
 2048 08c7 25       		.uleb128 0x25
 2049 08c8 0A020000 		.4byte	.LASF75
 2050 08cc 01       		.byte	0x1
 2051 08cd DE       		.byte	0xde
 2052 08ce E4000000 		.4byte	0xe4
 2053 08d2 04030000 		.4byte	.LLST25
 2054 08d6 24       		.uleb128 0x24
 2055 08d7 6D736700 		.ascii	"msg\000"
 2056 08db 01       		.byte	0x1
 2057 08dc DF       		.byte	0xdf
 2058 08dd CE000000 		.4byte	0xce
 2059 08e1 01       		.byte	0x1
 2060 08e2 50       		.byte	0x50
 2061 08e3 1F       		.uleb128 0x1f
 2062 08e4 02000000 		.4byte	.LBB44
 2063 08e8 08000000 		.4byte	.LBE44
 2064 08ec 00090000 		.4byte	0x900
 2065 08f0 19       		.uleb128 0x19
 2066 08f1 746D7000 		.ascii	"tmp\000"
 2067 08f5 01       		.byte	0x1
 2068 08f6 E1       		.byte	0xe1
 2069 08f7 70000000 		.4byte	0x70
 2070 08fb 25030000 		.4byte	.LLST26
 2071 08ff 00       		.byte	0
 2072 0900 1F       		.uleb128 0x1f
 2073 0901 0C000000 		.4byte	.LBB45
 2074 0905 12000000 		.4byte	.LBE45
 2075 0909 1D090000 		.4byte	0x91d
 2076 090d 19       		.uleb128 0x19
 2077 090e 746D7000 		.ascii	"tmp\000"
 2078 0912 01       		.byte	0x1
 2079 0913 E3       		.byte	0xe3
 2080 0914 70000000 		.4byte	0x70
 2081 0918 38030000 		.4byte	.LLST27
 2082 091c 00       		.byte	0
 2083 091d 23       		.uleb128 0x23
 2084 091e 0C000000 		.4byte	.LVL38
 2085 0922 28080000 		.4byte	0x828
 2086 0926 21       		.uleb128 0x21
 2087 0927 01       		.byte	0x1
 2088 0928 51       		.byte	0x51
 2089 0929 03       		.byte	0x3
 2090 092a F3       		.byte	0xf3
 2091 092b 01       		.uleb128 0x1
 2092 092c 51       		.byte	0x51
 2093 092d 21       		.uleb128 0x21
 2094 092e 01       		.byte	0x1
 2095 092f 50       		.byte	0x50
 2096 0930 03       		.byte	0x3
 2097 0931 F3       		.byte	0xf3
 2098 0932 01       		.uleb128 0x1
ARM GAS  C:\Users\jenny\AppData\Local\Temp\ccbhbpyh.s 			page 38


 2099 0933 50       		.byte	0x50
 2100 0934 00       		.byte	0
 2101 0935 00       		.byte	0
 2102 0936 28       		.uleb128 0x28
 2103 0937 01       		.byte	0x1
 2104 0938 82010000 		.4byte	.LASF77
 2105 093c 01       		.byte	0x1
 2106 093d 1601     		.2byte	0x116
 2107 093f 01       		.byte	0x1
 2108 0940 00000000 		.4byte	.LFB14
 2109 0944 2C000000 		.4byte	.LFE14
 2110 0948 4B030000 		.4byte	.LLST28
 2111 094c 01       		.byte	0x1
 2112 094d D9090000 		.4byte	0x9d9
 2113 0951 29       		.uleb128 0x29
 2114 0952 737000   		.ascii	"sp\000"
 2115 0955 01       		.byte	0x1
 2116 0956 1601     		.2byte	0x116
 2117 0958 15060000 		.4byte	0x615
 2118 095c 6B030000 		.4byte	.LLST29
 2119 0960 1F       		.uleb128 0x1f
 2120 0961 04000000 		.4byte	.LBB46
 2121 0965 0A000000 		.4byte	.LBE46
 2122 0969 7E090000 		.4byte	0x97e
 2123 096d 2A       		.uleb128 0x2a
 2124 096e 746D7000 		.ascii	"tmp\000"
 2125 0972 01       		.byte	0x1
 2126 0973 1E01     		.2byte	0x11e
 2127 0975 70000000 		.4byte	0x70
 2128 0979 B0030000 		.4byte	.LLST30
 2129 097d 00       		.byte	0
 2130 097e 1F       		.uleb128 0x1f
 2131 097f 14000000 		.4byte	.LBB47
 2132 0983 1C000000 		.4byte	.LBE47
 2133 0987 9C090000 		.4byte	0x99c
 2134 098b 2A       		.uleb128 0x2a
 2135 098c 746D7000 		.ascii	"tmp\000"
 2136 0990 01       		.byte	0x1
 2137 0991 2101     		.2byte	0x121
 2138 0993 70000000 		.4byte	0x70
 2139 0997 C3030000 		.4byte	.LLST31
 2140 099b 00       		.byte	0
 2141 099c 26       		.uleb128 0x26
 2142 099d BD050000 		.4byte	0x5bd
 2143 09a1 1C000000 		.4byte	.LBB48
 2144 09a5 80000000 		.4byte	.Ldebug_ranges0+0x80
 2145 09a9 01       		.byte	0x1
 2146 09aa 2001     		.2byte	0x120
 2147 09ac C9090000 		.4byte	0x9c9
 2148 09b0 1B       		.uleb128 0x1b
 2149 09b1 CE050000 		.4byte	0x5ce
 2150 09b5 D6030000 		.4byte	.LLST32
 2151 09b9 1C       		.uleb128 0x1c
 2152 09ba 98000000 		.4byte	.Ldebug_ranges0+0x98
 2153 09be 2B       		.uleb128 0x2b
 2154 09bf D9050000 		.4byte	0x5d9
 2155 09c3 F7030000 		.4byte	.LLST33
ARM GAS  C:\Users\jenny\AppData\Local\Temp\ccbhbpyh.s 			page 39


 2156 09c7 00       		.byte	0
 2157 09c8 00       		.byte	0
 2158 09c9 23       		.uleb128 0x23
 2159 09ca 2A000000 		.4byte	.LVL51
 2160 09ce 5A0C0000 		.4byte	0xc5a
 2161 09d2 21       		.uleb128 0x21
 2162 09d3 01       		.byte	0x1
 2163 09d4 51       		.byte	0x51
 2164 09d5 01       		.byte	0x1
 2165 09d6 30       		.byte	0x30
 2166 09d7 00       		.byte	0
 2167 09d8 00       		.byte	0
 2168 09d9 2C       		.uleb128 0x2c
 2169 09da 01       		.byte	0x1
 2170 09db 13000000 		.4byte	.LASF78
 2171 09df 01       		.byte	0x1
 2172 09e0 2F01     		.2byte	0x12f
 2173 09e2 01       		.byte	0x1
 2174 09e3 00000000 		.4byte	.LFB15
 2175 09e7 20000000 		.4byte	.LFE15
 2176 09eb 02       		.byte	0x2
 2177 09ec 7D       		.byte	0x7d
 2178 09ed 00       		.sleb128 0
 2179 09ee 01       		.byte	0x1
 2180 09ef 4D0A0000 		.4byte	0xa4d
 2181 09f3 29       		.uleb128 0x29
 2182 09f4 737000   		.ascii	"sp\000"
 2183 09f7 01       		.byte	0x1
 2184 09f8 2F01     		.2byte	0x12f
 2185 09fa 15060000 		.4byte	0x615
 2186 09fe 0A040000 		.4byte	.LLST34
 2187 0a02 1C       		.uleb128 0x1c
 2188 0a03 B0000000 		.4byte	.Ldebug_ranges0+0xb0
 2189 0a07 2D       		.uleb128 0x2d
 2190 0a08 747000   		.ascii	"tp\000"
 2191 0a0b 01       		.byte	0x1
 2192 0a0c 3B01     		.2byte	0x13b
 2193 0a0e 4F020000 		.4byte	0x24f
 2194 0a12 01       		.byte	0x1
 2195 0a13 52       		.byte	0x52
 2196 0a14 26       		.uleb128 0x26
 2197 0a15 BD050000 		.4byte	0x5bd
 2198 0a19 0E000000 		.4byte	.LBB53
 2199 0a1d C8000000 		.4byte	.Ldebug_ranges0+0xc8
 2200 0a21 01       		.byte	0x1
 2201 0a22 3B01     		.2byte	0x13b
 2202 0a24 410A0000 		.4byte	0xa41
 2203 0a28 1B       		.uleb128 0x1b
 2204 0a29 CE050000 		.4byte	0x5ce
 2205 0a2d 42040000 		.4byte	.LLST35
 2206 0a31 1C       		.uleb128 0x1c
 2207 0a32 E0000000 		.4byte	.Ldebug_ranges0+0xe0
 2208 0a36 2B       		.uleb128 0x2b
 2209 0a37 D9050000 		.4byte	0x5d9
 2210 0a3b 6F040000 		.4byte	.LLST36
 2211 0a3f 00       		.byte	0
 2212 0a40 00       		.byte	0
ARM GAS  C:\Users\jenny\AppData\Local\Temp\ccbhbpyh.s 			page 40


 2213 0a41 2E       		.uleb128 0x2e
 2214 0a42 20000000 		.4byte	.LVL57
 2215 0a46 01       		.byte	0x1
 2216 0a47 070C0000 		.4byte	0xc07
 2217 0a4b 00       		.byte	0
 2218 0a4c 00       		.byte	0
 2219 0a4d 28       		.uleb128 0x28
 2220 0a4e 01       		.byte	0x1
 2221 0a4f 3E000000 		.4byte	.LASF79
 2222 0a53 01       		.byte	0x1
 2223 0a54 4E01     		.2byte	0x14e
 2224 0a56 01       		.byte	0x1
 2225 0a57 00000000 		.4byte	.LFB16
 2226 0a5b 9C000000 		.4byte	.LFE16
 2227 0a5f 82040000 		.4byte	.LLST37
 2228 0a63 01       		.byte	0x1
 2229 0a64 D70A0000 		.4byte	0xad7
 2230 0a68 29       		.uleb128 0x29
 2231 0a69 737000   		.ascii	"sp\000"
 2232 0a6c 01       		.byte	0x1
 2233 0a6d 4E01     		.2byte	0x14e
 2234 0a6f 15060000 		.4byte	0x615
 2235 0a73 A2040000 		.4byte	.LLST38
 2236 0a77 29       		.uleb128 0x29
 2237 0a78 6E00     		.ascii	"n\000"
 2238 0a7a 01       		.byte	0x1
 2239 0a7b 4E01     		.2byte	0x14e
 2240 0a7d EF000000 		.4byte	0xef
 2241 0a81 C0040000 		.4byte	.LLST39
 2242 0a85 26       		.uleb128 0x26
 2243 0a86 BD050000 		.4byte	0x5bd
 2244 0a8a 4C000000 		.4byte	.LBB58
 2245 0a8e F8000000 		.4byte	.Ldebug_ranges0+0xf8
 2246 0a92 01       		.byte	0x1
 2247 0a93 5901     		.2byte	0x159
 2248 0a95 B20A0000 		.4byte	0xab2
 2249 0a99 1B       		.uleb128 0x1b
 2250 0a9a CE050000 		.4byte	0x5ce
 2251 0a9e 10050000 		.4byte	.LLST40
 2252 0aa2 1C       		.uleb128 0x1c
 2253 0aa3 20010000 		.4byte	.Ldebug_ranges0+0x120
 2254 0aa7 2B       		.uleb128 0x2b
 2255 0aa8 D9050000 		.4byte	0x5d9
 2256 0aac 2E050000 		.4byte	.LLST41
 2257 0ab0 00       		.byte	0
 2258 0ab1 00       		.byte	0
 2259 0ab2 1E       		.uleb128 0x1e
 2260 0ab3 58000000 		.4byte	.LVL65
 2261 0ab7 070C0000 		.4byte	0xc07
 2262 0abb 1E       		.uleb128 0x1e
 2263 0abc 70000000 		.4byte	.LVL67
 2264 0ac0 070C0000 		.4byte	0xc07
 2265 0ac4 1E       		.uleb128 0x1e
 2266 0ac5 86000000 		.4byte	.LVL71
 2267 0ac9 070C0000 		.4byte	0xc07
 2268 0acd 1E       		.uleb128 0x1e
 2269 0ace 96000000 		.4byte	.LVL73
ARM GAS  C:\Users\jenny\AppData\Local\Temp\ccbhbpyh.s 			page 41


 2270 0ad2 070C0000 		.4byte	0xc07
 2271 0ad6 00       		.byte	0
 2272 0ad7 2F       		.uleb128 0x2f
 2273 0ad8 01       		.byte	0x1
 2274 0ad9 70000000 		.4byte	.LASF80
 2275 0add 01       		.byte	0x1
 2276 0ade 6E01     		.2byte	0x16e
 2277 0ae0 01       		.byte	0x1
 2278 0ae1 CE000000 		.4byte	0xce
 2279 0ae5 00000000 		.4byte	.LFB17
 2280 0ae9 64000000 		.4byte	.LFE17
 2281 0aed 41050000 		.4byte	.LLST42
 2282 0af1 01       		.byte	0x1
 2283 0af2 FA0B0000 		.4byte	0xbfa
 2284 0af6 29       		.uleb128 0x29
 2285 0af7 73707300 		.ascii	"sps\000"
 2286 0afb 01       		.byte	0x1
 2287 0afc 6E01     		.2byte	0x16e
 2288 0afe 15060000 		.4byte	0x615
 2289 0b02 6D050000 		.4byte	.LLST43
 2290 0b06 29       		.uleb128 0x29
 2291 0b07 73707700 		.ascii	"spw\000"
 2292 0b0b 01       		.byte	0x1
 2293 0b0c 6E01     		.2byte	0x16e
 2294 0b0e 15060000 		.4byte	0x615
 2295 0b12 B2050000 		.4byte	.LLST44
 2296 0b16 2A       		.uleb128 0x2a
 2297 0b17 6D736700 		.ascii	"msg\000"
 2298 0b1b 01       		.byte	0x1
 2299 0b1c 6F01     		.2byte	0x16f
 2300 0b1e CE000000 		.4byte	0xce
 2301 0b22 EC050000 		.4byte	.LLST45
 2302 0b26 1F       		.uleb128 0x1f
 2303 0b27 06000000 		.4byte	.LBB66
 2304 0b2b 0C000000 		.4byte	.LBE66
 2305 0b2f 440B0000 		.4byte	0xb44
 2306 0b33 2A       		.uleb128 0x2a
 2307 0b34 746D7000 		.ascii	"tmp\000"
 2308 0b38 01       		.byte	0x1
 2309 0b39 7B01     		.2byte	0x17b
 2310 0b3b 70000000 		.4byte	0x70
 2311 0b3f 16060000 		.4byte	.LLST46
 2312 0b43 00       		.byte	0
 2313 0b44 1F       		.uleb128 0x1f
 2314 0b45 26000000 		.4byte	.LBB67
 2315 0b49 2C000000 		.4byte	.LBE67
 2316 0b4d 620B0000 		.4byte	0xb62
 2317 0b51 2A       		.uleb128 0x2a
 2318 0b52 746D7000 		.ascii	"tmp\000"
 2319 0b56 01       		.byte	0x1
 2320 0b57 8901     		.2byte	0x189
 2321 0b59 70000000 		.4byte	0x70
 2322 0b5d 29060000 		.4byte	.LLST47
 2323 0b61 00       		.byte	0
 2324 0b62 1F       		.uleb128 0x1f
 2325 0b63 30000000 		.4byte	.LBB68
 2326 0b67 4A000000 		.4byte	.LBE68
ARM GAS  C:\Users\jenny\AppData\Local\Temp\ccbhbpyh.s 			page 42


 2327 0b6b B60B0000 		.4byte	0xbb6
 2328 0b6f 2A       		.uleb128 0x2a
 2329 0b70 63747000 		.ascii	"ctp\000"
 2330 0b74 01       		.byte	0x1
 2331 0b75 7F01     		.2byte	0x17f
 2332 0b77 4F020000 		.4byte	0x24f
 2333 0b7b 3C060000 		.4byte	.LLST48
 2334 0b7f 26       		.uleb128 0x26
 2335 0b80 9A050000 		.4byte	0x59a
 2336 0b84 32000000 		.4byte	.LBB69
 2337 0b88 48010000 		.4byte	.Ldebug_ranges0+0x148
 2338 0b8c 01       		.byte	0x1
 2339 0b8d 8001     		.2byte	0x180
 2340 0b8f A60B0000 		.4byte	0xba6
 2341 0b93 1B       		.uleb128 0x1b
 2342 0b94 B1050000 		.4byte	0x5b1
 2343 0b98 4F060000 		.4byte	.LLST49
 2344 0b9c 1B       		.uleb128 0x1b
 2345 0b9d A7050000 		.4byte	0x5a7
 2346 0ba1 3C060000 		.4byte	.LLST48
 2347 0ba5 00       		.byte	0
 2348 0ba6 23       		.uleb128 0x23
 2349 0ba7 46000000 		.4byte	.LVL87
 2350 0bab 290C0000 		.4byte	0xc29
 2351 0baf 21       		.uleb128 0x21
 2352 0bb0 01       		.byte	0x1
 2353 0bb1 50       		.byte	0x50
 2354 0bb2 01       		.byte	0x1
 2355 0bb3 33       		.byte	0x33
 2356 0bb4 00       		.byte	0
 2357 0bb5 00       		.byte	0
 2358 0bb6 30       		.uleb128 0x30
 2359 0bb7 BD050000 		.4byte	0x5bd
 2360 0bbb 4A000000 		.4byte	.LBB73
 2361 0bbf 52000000 		.4byte	.LBE73
 2362 0bc3 01       		.byte	0x1
 2363 0bc4 7D01     		.2byte	0x17d
 2364 0bc6 E70B0000 		.4byte	0xbe7
 2365 0bca 1B       		.uleb128 0x1b
 2366 0bcb CE050000 		.4byte	0x5ce
 2367 0bcf 62060000 		.4byte	.LLST51
 2368 0bd3 31       		.uleb128 0x31
 2369 0bd4 4A000000 		.4byte	.LBB74
 2370 0bd8 52000000 		.4byte	.LBE74
 2371 0bdc 2B       		.uleb128 0x2b
 2372 0bdd D9050000 		.4byte	0x5d9
 2373 0be1 83060000 		.4byte	.LLST52
 2374 0be5 00       		.byte	0
 2375 0be6 00       		.byte	0
 2376 0be7 1E       		.uleb128 0x1e
 2377 0be8 24000000 		.4byte	.LVL81
 2378 0bec 1F0C0000 		.4byte	0xc1f
 2379 0bf0 1E       		.uleb128 0x1e
 2380 0bf1 58000000 		.4byte	.LVL91
 2381 0bf5 070C0000 		.4byte	0xc07
 2382 0bf9 00       		.byte	0
 2383 0bfa 32       		.uleb128 0x32
ARM GAS  C:\Users\jenny\AppData\Local\Temp\ccbhbpyh.s 			page 43


 2384 0bfb 81030000 		.4byte	.LASF87
 2385 0bff 08       		.byte	0x8
 2386 0c00 6F       		.byte	0x6f
 2387 0c01 99040000 		.4byte	0x499
 2388 0c05 01       		.byte	0x1
 2389 0c06 01       		.byte	0x1
 2390 0c07 33       		.uleb128 0x33
 2391 0c08 01       		.byte	0x1
 2392 0c09 F6020000 		.4byte	.LASF81
 2393 0c0d 08       		.byte	0x8
 2394 0c0e 90       		.byte	0x90
 2395 0c0f 01       		.byte	0x1
 2396 0c10 4F020000 		.4byte	0x24f
 2397 0c14 01       		.byte	0x1
 2398 0c15 1F0C0000 		.4byte	0xc1f
 2399 0c19 34       		.uleb128 0x34
 2400 0c1a 4F020000 		.4byte	0x24f
 2401 0c1e 00       		.byte	0
 2402 0c1f 35       		.uleb128 0x35
 2403 0c20 01       		.byte	0x1
 2404 0c21 2A010000 		.4byte	.LASF88
 2405 0c25 08       		.byte	0x8
 2406 0c26 9C       		.byte	0x9c
 2407 0c27 01       		.byte	0x1
 2408 0c28 01       		.byte	0x1
 2409 0c29 36       		.uleb128 0x36
 2410 0c2a 01       		.byte	0x1
 2411 0c2b A9020000 		.4byte	.LASF89
 2412 0c2f 08       		.byte	0x8
 2413 0c30 93       		.byte	0x93
 2414 0c31 01       		.byte	0x1
 2415 0c32 01       		.byte	0x1
 2416 0c33 3D0C0000 		.4byte	0xc3d
 2417 0c37 34       		.uleb128 0x34
 2418 0c38 A2000000 		.4byte	0xa2
 2419 0c3c 00       		.byte	0
 2420 0c3d 33       		.uleb128 0x33
 2421 0c3e 01       		.byte	0x1
 2422 0c3f F0030000 		.4byte	.LASF82
 2423 0c43 08       		.byte	0x8
 2424 0c44 96       		.byte	0x96
 2425 0c45 01       		.byte	0x1
 2426 0c46 CE000000 		.4byte	0xce
 2427 0c4a 01       		.byte	0x1
 2428 0c4b 5A0C0000 		.4byte	0xc5a
 2429 0c4f 34       		.uleb128 0x34
 2430 0c50 A2000000 		.4byte	0xa2
 2431 0c54 34       		.uleb128 0x34
 2432 0c55 E4000000 		.4byte	0xe4
 2433 0c59 00       		.byte	0
 2434 0c5a 37       		.uleb128 0x37
 2435 0c5b 01       		.byte	0x1
 2436 0c5c 4D030000 		.4byte	.LASF90
 2437 0c60 08       		.byte	0x8
 2438 0c61 99       		.byte	0x99
 2439 0c62 01       		.byte	0x1
 2440 0c63 01       		.byte	0x1
ARM GAS  C:\Users\jenny\AppData\Local\Temp\ccbhbpyh.s 			page 44


 2441 0c64 34       		.uleb128 0x34
 2442 0c65 4F020000 		.4byte	0x24f
 2443 0c69 34       		.uleb128 0x34
 2444 0c6a CE000000 		.4byte	0xce
 2445 0c6e 00       		.byte	0
 2446 0c6f 00       		.byte	0
 2447              		.section	.debug_abbrev,"",%progbits
 2448              	.Ldebug_abbrev0:
 2449 0000 01       		.uleb128 0x1
 2450 0001 11       		.uleb128 0x11
 2451 0002 01       		.byte	0x1
 2452 0003 25       		.uleb128 0x25
 2453 0004 0E       		.uleb128 0xe
 2454 0005 13       		.uleb128 0x13
 2455 0006 0B       		.uleb128 0xb
 2456 0007 03       		.uleb128 0x3
 2457 0008 0E       		.uleb128 0xe
 2458 0009 1B       		.uleb128 0x1b
 2459 000a 0E       		.uleb128 0xe
 2460 000b 55       		.uleb128 0x55
 2461 000c 06       		.uleb128 0x6
 2462 000d 11       		.uleb128 0x11
 2463 000e 01       		.uleb128 0x1
 2464 000f 52       		.uleb128 0x52
 2465 0010 01       		.uleb128 0x1
 2466 0011 10       		.uleb128 0x10
 2467 0012 06       		.uleb128 0x6
 2468 0013 00       		.byte	0
 2469 0014 00       		.byte	0
 2470 0015 02       		.uleb128 0x2
 2471 0016 24       		.uleb128 0x24
 2472 0017 00       		.byte	0
 2473 0018 0B       		.uleb128 0xb
 2474 0019 0B       		.uleb128 0xb
 2475 001a 3E       		.uleb128 0x3e
 2476 001b 0B       		.uleb128 0xb
 2477 001c 03       		.uleb128 0x3
 2478 001d 08       		.uleb128 0x8
 2479 001e 00       		.byte	0
 2480 001f 00       		.byte	0
 2481 0020 03       		.uleb128 0x3
 2482 0021 24       		.uleb128 0x24
 2483 0022 00       		.byte	0
 2484 0023 0B       		.uleb128 0xb
 2485 0024 0B       		.uleb128 0xb
 2486 0025 3E       		.uleb128 0x3e
 2487 0026 0B       		.uleb128 0xb
 2488 0027 03       		.uleb128 0x3
 2489 0028 0E       		.uleb128 0xe
 2490 0029 00       		.byte	0
 2491 002a 00       		.byte	0
 2492 002b 04       		.uleb128 0x4
 2493 002c 16       		.uleb128 0x16
 2494 002d 00       		.byte	0
 2495 002e 03       		.uleb128 0x3
 2496 002f 0E       		.uleb128 0xe
 2497 0030 3A       		.uleb128 0x3a
ARM GAS  C:\Users\jenny\AppData\Local\Temp\ccbhbpyh.s 			page 45


 2498 0031 0B       		.uleb128 0xb
 2499 0032 3B       		.uleb128 0x3b
 2500 0033 0B       		.uleb128 0xb
 2501 0034 49       		.uleb128 0x49
 2502 0035 13       		.uleb128 0x13
 2503 0036 00       		.byte	0
 2504 0037 00       		.byte	0
 2505 0038 05       		.uleb128 0x5
 2506 0039 13       		.uleb128 0x13
 2507 003a 01       		.byte	0x1
 2508 003b 03       		.uleb128 0x3
 2509 003c 0E       		.uleb128 0xe
 2510 003d 0B       		.uleb128 0xb
 2511 003e 0B       		.uleb128 0xb
 2512 003f 3A       		.uleb128 0x3a
 2513 0040 0B       		.uleb128 0xb
 2514 0041 3B       		.uleb128 0x3b
 2515 0042 0B       		.uleb128 0xb
 2516 0043 01       		.uleb128 0x1
 2517 0044 13       		.uleb128 0x13
 2518 0045 00       		.byte	0
 2519 0046 00       		.byte	0
 2520 0047 06       		.uleb128 0x6
 2521 0048 0D       		.uleb128 0xd
 2522 0049 00       		.byte	0
 2523 004a 03       		.uleb128 0x3
 2524 004b 0E       		.uleb128 0xe
 2525 004c 3A       		.uleb128 0x3a
 2526 004d 0B       		.uleb128 0xb
 2527 004e 3B       		.uleb128 0x3b
 2528 004f 0B       		.uleb128 0xb
 2529 0050 49       		.uleb128 0x49
 2530 0051 13       		.uleb128 0x13
 2531 0052 38       		.uleb128 0x38
 2532 0053 0A       		.uleb128 0xa
 2533 0054 00       		.byte	0
 2534 0055 00       		.byte	0
 2535 0056 07       		.uleb128 0x7
 2536 0057 0D       		.uleb128 0xd
 2537 0058 00       		.byte	0
 2538 0059 03       		.uleb128 0x3
 2539 005a 08       		.uleb128 0x8
 2540 005b 3A       		.uleb128 0x3a
 2541 005c 0B       		.uleb128 0xb
 2542 005d 3B       		.uleb128 0x3b
 2543 005e 0B       		.uleb128 0xb
 2544 005f 49       		.uleb128 0x49
 2545 0060 13       		.uleb128 0x13
 2546 0061 38       		.uleb128 0x38
 2547 0062 0A       		.uleb128 0xa
 2548 0063 00       		.byte	0
 2549 0064 00       		.byte	0
 2550 0065 08       		.uleb128 0x8
 2551 0066 13       		.uleb128 0x13
 2552 0067 01       		.byte	0x1
 2553 0068 0B       		.uleb128 0xb
 2554 0069 0B       		.uleb128 0xb
ARM GAS  C:\Users\jenny\AppData\Local\Temp\ccbhbpyh.s 			page 46


 2555 006a 3A       		.uleb128 0x3a
 2556 006b 0B       		.uleb128 0xb
 2557 006c 3B       		.uleb128 0x3b
 2558 006d 0B       		.uleb128 0xb
 2559 006e 01       		.uleb128 0x1
 2560 006f 13       		.uleb128 0x13
 2561 0070 00       		.byte	0
 2562 0071 00       		.byte	0
 2563 0072 09       		.uleb128 0x9
 2564 0073 0F       		.uleb128 0xf
 2565 0074 00       		.byte	0
 2566 0075 0B       		.uleb128 0xb
 2567 0076 0B       		.uleb128 0xb
 2568 0077 49       		.uleb128 0x49
 2569 0078 13       		.uleb128 0x13
 2570 0079 00       		.byte	0
 2571 007a 00       		.byte	0
 2572 007b 0A       		.uleb128 0xa
 2573 007c 0F       		.uleb128 0xf
 2574 007d 00       		.byte	0
 2575 007e 0B       		.uleb128 0xb
 2576 007f 0B       		.uleb128 0xb
 2577 0080 00       		.byte	0
 2578 0081 00       		.byte	0
 2579 0082 0B       		.uleb128 0xb
 2580 0083 13       		.uleb128 0x13
 2581 0084 01       		.byte	0x1
 2582 0085 03       		.uleb128 0x3
 2583 0086 0E       		.uleb128 0xe
 2584 0087 0B       		.uleb128 0xb
 2585 0088 0B       		.uleb128 0xb
 2586 0089 3A       		.uleb128 0x3a
 2587 008a 0B       		.uleb128 0xb
 2588 008b 3B       		.uleb128 0x3b
 2589 008c 05       		.uleb128 0x5
 2590 008d 01       		.uleb128 0x1
 2591 008e 13       		.uleb128 0x13
 2592 008f 00       		.byte	0
 2593 0090 00       		.byte	0
 2594 0091 0C       		.uleb128 0xc
 2595 0092 0D       		.uleb128 0xd
 2596 0093 00       		.byte	0
 2597 0094 03       		.uleb128 0x3
 2598 0095 08       		.uleb128 0x8
 2599 0096 3A       		.uleb128 0x3a
 2600 0097 0B       		.uleb128 0xb
 2601 0098 3B       		.uleb128 0x3b
 2602 0099 05       		.uleb128 0x5
 2603 009a 49       		.uleb128 0x49
 2604 009b 13       		.uleb128 0x13
 2605 009c 38       		.uleb128 0x38
 2606 009d 0A       		.uleb128 0xa
 2607 009e 00       		.byte	0
 2608 009f 00       		.byte	0
 2609 00a0 0D       		.uleb128 0xd
 2610 00a1 35       		.uleb128 0x35
 2611 00a2 00       		.byte	0
ARM GAS  C:\Users\jenny\AppData\Local\Temp\ccbhbpyh.s 			page 47


 2612 00a3 49       		.uleb128 0x49
 2613 00a4 13       		.uleb128 0x13
 2614 00a5 00       		.byte	0
 2615 00a6 00       		.byte	0
 2616 00a7 0E       		.uleb128 0xe
 2617 00a8 17       		.uleb128 0x17
 2618 00a9 01       		.byte	0x1
 2619 00aa 0B       		.uleb128 0xb
 2620 00ab 0B       		.uleb128 0xb
 2621 00ac 3A       		.uleb128 0x3a
 2622 00ad 0B       		.uleb128 0xb
 2623 00ae 3B       		.uleb128 0x3b
 2624 00af 0B       		.uleb128 0xb
 2625 00b0 01       		.uleb128 0x1
 2626 00b1 13       		.uleb128 0x13
 2627 00b2 00       		.byte	0
 2628 00b3 00       		.byte	0
 2629 00b4 0F       		.uleb128 0xf
 2630 00b5 0D       		.uleb128 0xd
 2631 00b6 00       		.byte	0
 2632 00b7 03       		.uleb128 0x3
 2633 00b8 0E       		.uleb128 0xe
 2634 00b9 3A       		.uleb128 0x3a
 2635 00ba 0B       		.uleb128 0xb
 2636 00bb 3B       		.uleb128 0x3b
 2637 00bc 0B       		.uleb128 0xb
 2638 00bd 49       		.uleb128 0x49
 2639 00be 13       		.uleb128 0x13
 2640 00bf 00       		.byte	0
 2641 00c0 00       		.byte	0
 2642 00c1 10       		.uleb128 0x10
 2643 00c2 26       		.uleb128 0x26
 2644 00c3 00       		.byte	0
 2645 00c4 49       		.uleb128 0x49
 2646 00c5 13       		.uleb128 0x13
 2647 00c6 00       		.byte	0
 2648 00c7 00       		.byte	0
 2649 00c8 11       		.uleb128 0x11
 2650 00c9 2E       		.uleb128 0x2e
 2651 00ca 01       		.byte	0x1
 2652 00cb 03       		.uleb128 0x3
 2653 00cc 0E       		.uleb128 0xe
 2654 00cd 3A       		.uleb128 0x3a
 2655 00ce 0B       		.uleb128 0xb
 2656 00cf 3B       		.uleb128 0x3b
 2657 00d0 0B       		.uleb128 0xb
 2658 00d1 27       		.uleb128 0x27
 2659 00d2 0C       		.uleb128 0xc
 2660 00d3 49       		.uleb128 0x49
 2661 00d4 13       		.uleb128 0x13
 2662 00d5 20       		.uleb128 0x20
 2663 00d6 0B       		.uleb128 0xb
 2664 00d7 01       		.uleb128 0x1
 2665 00d8 13       		.uleb128 0x13
 2666 00d9 00       		.byte	0
 2667 00da 00       		.byte	0
 2668 00db 12       		.uleb128 0x12
ARM GAS  C:\Users\jenny\AppData\Local\Temp\ccbhbpyh.s 			page 48


 2669 00dc 05       		.uleb128 0x5
 2670 00dd 00       		.byte	0
 2671 00de 03       		.uleb128 0x3
 2672 00df 08       		.uleb128 0x8
 2673 00e0 3A       		.uleb128 0x3a
 2674 00e1 0B       		.uleb128 0xb
 2675 00e2 3B       		.uleb128 0x3b
 2676 00e3 0B       		.uleb128 0xb
 2677 00e4 49       		.uleb128 0x49
 2678 00e5 13       		.uleb128 0x13
 2679 00e6 00       		.byte	0
 2680 00e7 00       		.byte	0
 2681 00e8 13       		.uleb128 0x13
 2682 00e9 34       		.uleb128 0x34
 2683 00ea 00       		.byte	0
 2684 00eb 03       		.uleb128 0x3
 2685 00ec 08       		.uleb128 0x8
 2686 00ed 3A       		.uleb128 0x3a
 2687 00ee 0B       		.uleb128 0xb
 2688 00ef 3B       		.uleb128 0x3b
 2689 00f0 0B       		.uleb128 0xb
 2690 00f1 49       		.uleb128 0x49
 2691 00f2 13       		.uleb128 0x13
 2692 00f3 00       		.byte	0
 2693 00f4 00       		.byte	0
 2694 00f5 14       		.uleb128 0x14
 2695 00f6 2E       		.uleb128 0x2e
 2696 00f7 01       		.byte	0x1
 2697 00f8 03       		.uleb128 0x3
 2698 00f9 0E       		.uleb128 0xe
 2699 00fa 3A       		.uleb128 0x3a
 2700 00fb 0B       		.uleb128 0xb
 2701 00fc 3B       		.uleb128 0x3b
 2702 00fd 0B       		.uleb128 0xb
 2703 00fe 27       		.uleb128 0x27
 2704 00ff 0C       		.uleb128 0xc
 2705 0100 20       		.uleb128 0x20
 2706 0101 0B       		.uleb128 0xb
 2707 0102 01       		.uleb128 0x1
 2708 0103 13       		.uleb128 0x13
 2709 0104 00       		.byte	0
 2710 0105 00       		.byte	0
 2711 0106 15       		.uleb128 0x15
 2712 0107 2E       		.uleb128 0x2e
 2713 0108 01       		.byte	0x1
 2714 0109 3F       		.uleb128 0x3f
 2715 010a 0C       		.uleb128 0xc
 2716 010b 03       		.uleb128 0x3
 2717 010c 0E       		.uleb128 0xe
 2718 010d 3A       		.uleb128 0x3a
 2719 010e 0B       		.uleb128 0xb
 2720 010f 3B       		.uleb128 0x3b
 2721 0110 0B       		.uleb128 0xb
 2722 0111 27       		.uleb128 0x27
 2723 0112 0C       		.uleb128 0xc
 2724 0113 11       		.uleb128 0x11
 2725 0114 01       		.uleb128 0x1
ARM GAS  C:\Users\jenny\AppData\Local\Temp\ccbhbpyh.s 			page 49


 2726 0115 12       		.uleb128 0x12
 2727 0116 01       		.uleb128 0x1
 2728 0117 40       		.uleb128 0x40
 2729 0118 0A       		.uleb128 0xa
 2730 0119 9742     		.uleb128 0x2117
 2731 011b 0C       		.uleb128 0xc
 2732 011c 01       		.uleb128 0x1
 2733 011d 13       		.uleb128 0x13
 2734 011e 00       		.byte	0
 2735 011f 00       		.byte	0
 2736 0120 16       		.uleb128 0x16
 2737 0121 05       		.uleb128 0x5
 2738 0122 00       		.byte	0
 2739 0123 03       		.uleb128 0x3
 2740 0124 08       		.uleb128 0x8
 2741 0125 3A       		.uleb128 0x3a
 2742 0126 0B       		.uleb128 0xb
 2743 0127 3B       		.uleb128 0x3b
 2744 0128 0B       		.uleb128 0xb
 2745 0129 49       		.uleb128 0x49
 2746 012a 13       		.uleb128 0x13
 2747 012b 02       		.uleb128 0x2
 2748 012c 0A       		.uleb128 0xa
 2749 012d 00       		.byte	0
 2750 012e 00       		.byte	0
 2751 012f 17       		.uleb128 0x17
 2752 0130 2E       		.uleb128 0x2e
 2753 0131 01       		.byte	0x1
 2754 0132 3F       		.uleb128 0x3f
 2755 0133 0C       		.uleb128 0xc
 2756 0134 03       		.uleb128 0x3
 2757 0135 0E       		.uleb128 0xe
 2758 0136 3A       		.uleb128 0x3a
 2759 0137 0B       		.uleb128 0xb
 2760 0138 3B       		.uleb128 0x3b
 2761 0139 0B       		.uleb128 0xb
 2762 013a 27       		.uleb128 0x27
 2763 013b 0C       		.uleb128 0xc
 2764 013c 11       		.uleb128 0x11
 2765 013d 01       		.uleb128 0x1
 2766 013e 12       		.uleb128 0x12
 2767 013f 01       		.uleb128 0x1
 2768 0140 40       		.uleb128 0x40
 2769 0141 06       		.uleb128 0x6
 2770 0142 9742     		.uleb128 0x2117
 2771 0144 0C       		.uleb128 0xc
 2772 0145 01       		.uleb128 0x1
 2773 0146 13       		.uleb128 0x13
 2774 0147 00       		.byte	0
 2775 0148 00       		.byte	0
 2776 0149 18       		.uleb128 0x18
 2777 014a 05       		.uleb128 0x5
 2778 014b 00       		.byte	0
 2779 014c 03       		.uleb128 0x3
 2780 014d 08       		.uleb128 0x8
 2781 014e 3A       		.uleb128 0x3a
 2782 014f 0B       		.uleb128 0xb
ARM GAS  C:\Users\jenny\AppData\Local\Temp\ccbhbpyh.s 			page 50


 2783 0150 3B       		.uleb128 0x3b
 2784 0151 0B       		.uleb128 0xb
 2785 0152 49       		.uleb128 0x49
 2786 0153 13       		.uleb128 0x13
 2787 0154 02       		.uleb128 0x2
 2788 0155 06       		.uleb128 0x6
 2789 0156 00       		.byte	0
 2790 0157 00       		.byte	0
 2791 0158 19       		.uleb128 0x19
 2792 0159 34       		.uleb128 0x34
 2793 015a 00       		.byte	0
 2794 015b 03       		.uleb128 0x3
 2795 015c 08       		.uleb128 0x8
 2796 015d 3A       		.uleb128 0x3a
 2797 015e 0B       		.uleb128 0xb
 2798 015f 3B       		.uleb128 0x3b
 2799 0160 0B       		.uleb128 0xb
 2800 0161 49       		.uleb128 0x49
 2801 0162 13       		.uleb128 0x13
 2802 0163 02       		.uleb128 0x2
 2803 0164 06       		.uleb128 0x6
 2804 0165 00       		.byte	0
 2805 0166 00       		.byte	0
 2806 0167 1A       		.uleb128 0x1a
 2807 0168 1D       		.uleb128 0x1d
 2808 0169 01       		.byte	0x1
 2809 016a 31       		.uleb128 0x31
 2810 016b 13       		.uleb128 0x13
 2811 016c 52       		.uleb128 0x52
 2812 016d 01       		.uleb128 0x1
 2813 016e 55       		.uleb128 0x55
 2814 016f 06       		.uleb128 0x6
 2815 0170 58       		.uleb128 0x58
 2816 0171 0B       		.uleb128 0xb
 2817 0172 59       		.uleb128 0x59
 2818 0173 0B       		.uleb128 0xb
 2819 0174 01       		.uleb128 0x1
 2820 0175 13       		.uleb128 0x13
 2821 0176 00       		.byte	0
 2822 0177 00       		.byte	0
 2823 0178 1B       		.uleb128 0x1b
 2824 0179 05       		.uleb128 0x5
 2825 017a 00       		.byte	0
 2826 017b 31       		.uleb128 0x31
 2827 017c 13       		.uleb128 0x13
 2828 017d 02       		.uleb128 0x2
 2829 017e 06       		.uleb128 0x6
 2830 017f 00       		.byte	0
 2831 0180 00       		.byte	0
 2832 0181 1C       		.uleb128 0x1c
 2833 0182 0B       		.uleb128 0xb
 2834 0183 01       		.byte	0x1
 2835 0184 55       		.uleb128 0x55
 2836 0185 06       		.uleb128 0x6
 2837 0186 00       		.byte	0
 2838 0187 00       		.byte	0
 2839 0188 1D       		.uleb128 0x1d
ARM GAS  C:\Users\jenny\AppData\Local\Temp\ccbhbpyh.s 			page 51


 2840 0189 34       		.uleb128 0x34
 2841 018a 00       		.byte	0
 2842 018b 31       		.uleb128 0x31
 2843 018c 13       		.uleb128 0x13
 2844 018d 00       		.byte	0
 2845 018e 00       		.byte	0
 2846 018f 1E       		.uleb128 0x1e
 2847 0190 898201   		.uleb128 0x4109
 2848 0193 00       		.byte	0
 2849 0194 11       		.uleb128 0x11
 2850 0195 01       		.uleb128 0x1
 2851 0196 31       		.uleb128 0x31
 2852 0197 13       		.uleb128 0x13
 2853 0198 00       		.byte	0
 2854 0199 00       		.byte	0
 2855 019a 1F       		.uleb128 0x1f
 2856 019b 0B       		.uleb128 0xb
 2857 019c 01       		.byte	0x1
 2858 019d 11       		.uleb128 0x11
 2859 019e 01       		.uleb128 0x1
 2860 019f 12       		.uleb128 0x12
 2861 01a0 01       		.uleb128 0x1
 2862 01a1 01       		.uleb128 0x1
 2863 01a2 13       		.uleb128 0x13
 2864 01a3 00       		.byte	0
 2865 01a4 00       		.byte	0
 2866 01a5 20       		.uleb128 0x20
 2867 01a6 898201   		.uleb128 0x4109
 2868 01a9 01       		.byte	0x1
 2869 01aa 11       		.uleb128 0x11
 2870 01ab 01       		.uleb128 0x1
 2871 01ac 31       		.uleb128 0x31
 2872 01ad 13       		.uleb128 0x13
 2873 01ae 01       		.uleb128 0x1
 2874 01af 13       		.uleb128 0x13
 2875 01b0 00       		.byte	0
 2876 01b1 00       		.byte	0
 2877 01b2 21       		.uleb128 0x21
 2878 01b3 8A8201   		.uleb128 0x410a
 2879 01b6 00       		.byte	0
 2880 01b7 02       		.uleb128 0x2
 2881 01b8 0A       		.uleb128 0xa
 2882 01b9 9142     		.uleb128 0x2111
 2883 01bb 0A       		.uleb128 0xa
 2884 01bc 00       		.byte	0
 2885 01bd 00       		.byte	0
 2886 01be 22       		.uleb128 0x22
 2887 01bf 2E       		.uleb128 0x2e
 2888 01c0 01       		.byte	0x1
 2889 01c1 3F       		.uleb128 0x3f
 2890 01c2 0C       		.uleb128 0xc
 2891 01c3 03       		.uleb128 0x3
 2892 01c4 0E       		.uleb128 0xe
 2893 01c5 3A       		.uleb128 0x3a
 2894 01c6 0B       		.uleb128 0xb
 2895 01c7 3B       		.uleb128 0x3b
 2896 01c8 0B       		.uleb128 0xb
ARM GAS  C:\Users\jenny\AppData\Local\Temp\ccbhbpyh.s 			page 52


 2897 01c9 27       		.uleb128 0x27
 2898 01ca 0C       		.uleb128 0xc
 2899 01cb 49       		.uleb128 0x49
 2900 01cc 13       		.uleb128 0x13
 2901 01cd 11       		.uleb128 0x11
 2902 01ce 01       		.uleb128 0x1
 2903 01cf 12       		.uleb128 0x12
 2904 01d0 01       		.uleb128 0x1
 2905 01d1 40       		.uleb128 0x40
 2906 01d2 06       		.uleb128 0x6
 2907 01d3 9742     		.uleb128 0x2117
 2908 01d5 0C       		.uleb128 0xc
 2909 01d6 01       		.uleb128 0x1
 2910 01d7 13       		.uleb128 0x13
 2911 01d8 00       		.byte	0
 2912 01d9 00       		.byte	0
 2913 01da 23       		.uleb128 0x23
 2914 01db 898201   		.uleb128 0x4109
 2915 01de 01       		.byte	0x1
 2916 01df 11       		.uleb128 0x11
 2917 01e0 01       		.uleb128 0x1
 2918 01e1 31       		.uleb128 0x31
 2919 01e2 13       		.uleb128 0x13
 2920 01e3 00       		.byte	0
 2921 01e4 00       		.byte	0
 2922 01e5 24       		.uleb128 0x24
 2923 01e6 34       		.uleb128 0x34
 2924 01e7 00       		.byte	0
 2925 01e8 03       		.uleb128 0x3
 2926 01e9 08       		.uleb128 0x8
 2927 01ea 3A       		.uleb128 0x3a
 2928 01eb 0B       		.uleb128 0xb
 2929 01ec 3B       		.uleb128 0x3b
 2930 01ed 0B       		.uleb128 0xb
 2931 01ee 49       		.uleb128 0x49
 2932 01ef 13       		.uleb128 0x13
 2933 01f0 02       		.uleb128 0x2
 2934 01f1 0A       		.uleb128 0xa
 2935 01f2 00       		.byte	0
 2936 01f3 00       		.byte	0
 2937 01f4 25       		.uleb128 0x25
 2938 01f5 05       		.uleb128 0x5
 2939 01f6 00       		.byte	0
 2940 01f7 03       		.uleb128 0x3
 2941 01f8 0E       		.uleb128 0xe
 2942 01f9 3A       		.uleb128 0x3a
 2943 01fa 0B       		.uleb128 0xb
 2944 01fb 3B       		.uleb128 0x3b
 2945 01fc 0B       		.uleb128 0xb
 2946 01fd 49       		.uleb128 0x49
 2947 01fe 13       		.uleb128 0x13
 2948 01ff 02       		.uleb128 0x2
 2949 0200 06       		.uleb128 0x6
 2950 0201 00       		.byte	0
 2951 0202 00       		.byte	0
 2952 0203 26       		.uleb128 0x26
 2953 0204 1D       		.uleb128 0x1d
ARM GAS  C:\Users\jenny\AppData\Local\Temp\ccbhbpyh.s 			page 53


 2954 0205 01       		.byte	0x1
 2955 0206 31       		.uleb128 0x31
 2956 0207 13       		.uleb128 0x13
 2957 0208 52       		.uleb128 0x52
 2958 0209 01       		.uleb128 0x1
 2959 020a 55       		.uleb128 0x55
 2960 020b 06       		.uleb128 0x6
 2961 020c 58       		.uleb128 0x58
 2962 020d 0B       		.uleb128 0xb
 2963 020e 59       		.uleb128 0x59
 2964 020f 05       		.uleb128 0x5
 2965 0210 01       		.uleb128 0x1
 2966 0211 13       		.uleb128 0x13
 2967 0212 00       		.byte	0
 2968 0213 00       		.byte	0
 2969 0214 27       		.uleb128 0x27
 2970 0215 898201   		.uleb128 0x4109
 2971 0218 01       		.byte	0x1
 2972 0219 11       		.uleb128 0x11
 2973 021a 01       		.uleb128 0x1
 2974 021b 9542     		.uleb128 0x2115
 2975 021d 0C       		.uleb128 0xc
 2976 021e 31       		.uleb128 0x31
 2977 021f 13       		.uleb128 0x13
 2978 0220 00       		.byte	0
 2979 0221 00       		.byte	0
 2980 0222 28       		.uleb128 0x28
 2981 0223 2E       		.uleb128 0x2e
 2982 0224 01       		.byte	0x1
 2983 0225 3F       		.uleb128 0x3f
 2984 0226 0C       		.uleb128 0xc
 2985 0227 03       		.uleb128 0x3
 2986 0228 0E       		.uleb128 0xe
 2987 0229 3A       		.uleb128 0x3a
 2988 022a 0B       		.uleb128 0xb
 2989 022b 3B       		.uleb128 0x3b
 2990 022c 05       		.uleb128 0x5
 2991 022d 27       		.uleb128 0x27
 2992 022e 0C       		.uleb128 0xc
 2993 022f 11       		.uleb128 0x11
 2994 0230 01       		.uleb128 0x1
 2995 0231 12       		.uleb128 0x12
 2996 0232 01       		.uleb128 0x1
 2997 0233 40       		.uleb128 0x40
 2998 0234 06       		.uleb128 0x6
 2999 0235 9742     		.uleb128 0x2117
 3000 0237 0C       		.uleb128 0xc
 3001 0238 01       		.uleb128 0x1
 3002 0239 13       		.uleb128 0x13
 3003 023a 00       		.byte	0
 3004 023b 00       		.byte	0
 3005 023c 29       		.uleb128 0x29
 3006 023d 05       		.uleb128 0x5
 3007 023e 00       		.byte	0
 3008 023f 03       		.uleb128 0x3
 3009 0240 08       		.uleb128 0x8
 3010 0241 3A       		.uleb128 0x3a
ARM GAS  C:\Users\jenny\AppData\Local\Temp\ccbhbpyh.s 			page 54


 3011 0242 0B       		.uleb128 0xb
 3012 0243 3B       		.uleb128 0x3b
 3013 0244 05       		.uleb128 0x5
 3014 0245 49       		.uleb128 0x49
 3015 0246 13       		.uleb128 0x13
 3016 0247 02       		.uleb128 0x2
 3017 0248 06       		.uleb128 0x6
 3018 0249 00       		.byte	0
 3019 024a 00       		.byte	0
 3020 024b 2A       		.uleb128 0x2a
 3021 024c 34       		.uleb128 0x34
 3022 024d 00       		.byte	0
 3023 024e 03       		.uleb128 0x3
 3024 024f 08       		.uleb128 0x8
 3025 0250 3A       		.uleb128 0x3a
 3026 0251 0B       		.uleb128 0xb
 3027 0252 3B       		.uleb128 0x3b
 3028 0253 05       		.uleb128 0x5
 3029 0254 49       		.uleb128 0x49
 3030 0255 13       		.uleb128 0x13
 3031 0256 02       		.uleb128 0x2
 3032 0257 06       		.uleb128 0x6
 3033 0258 00       		.byte	0
 3034 0259 00       		.byte	0
 3035 025a 2B       		.uleb128 0x2b
 3036 025b 34       		.uleb128 0x34
 3037 025c 00       		.byte	0
 3038 025d 31       		.uleb128 0x31
 3039 025e 13       		.uleb128 0x13
 3040 025f 02       		.uleb128 0x2
 3041 0260 06       		.uleb128 0x6
 3042 0261 00       		.byte	0
 3043 0262 00       		.byte	0
 3044 0263 2C       		.uleb128 0x2c
 3045 0264 2E       		.uleb128 0x2e
 3046 0265 01       		.byte	0x1
 3047 0266 3F       		.uleb128 0x3f
 3048 0267 0C       		.uleb128 0xc
 3049 0268 03       		.uleb128 0x3
 3050 0269 0E       		.uleb128 0xe
 3051 026a 3A       		.uleb128 0x3a
 3052 026b 0B       		.uleb128 0xb
 3053 026c 3B       		.uleb128 0x3b
 3054 026d 05       		.uleb128 0x5
 3055 026e 27       		.uleb128 0x27
 3056 026f 0C       		.uleb128 0xc
 3057 0270 11       		.uleb128 0x11
 3058 0271 01       		.uleb128 0x1
 3059 0272 12       		.uleb128 0x12
 3060 0273 01       		.uleb128 0x1
 3061 0274 40       		.uleb128 0x40
 3062 0275 0A       		.uleb128 0xa
 3063 0276 9742     		.uleb128 0x2117
 3064 0278 0C       		.uleb128 0xc
 3065 0279 01       		.uleb128 0x1
 3066 027a 13       		.uleb128 0x13
 3067 027b 00       		.byte	0
ARM GAS  C:\Users\jenny\AppData\Local\Temp\ccbhbpyh.s 			page 55


 3068 027c 00       		.byte	0
 3069 027d 2D       		.uleb128 0x2d
 3070 027e 34       		.uleb128 0x34
 3071 027f 00       		.byte	0
 3072 0280 03       		.uleb128 0x3
 3073 0281 08       		.uleb128 0x8
 3074 0282 3A       		.uleb128 0x3a
 3075 0283 0B       		.uleb128 0xb
 3076 0284 3B       		.uleb128 0x3b
 3077 0285 05       		.uleb128 0x5
 3078 0286 49       		.uleb128 0x49
 3079 0287 13       		.uleb128 0x13
 3080 0288 02       		.uleb128 0x2
 3081 0289 0A       		.uleb128 0xa
 3082 028a 00       		.byte	0
 3083 028b 00       		.byte	0
 3084 028c 2E       		.uleb128 0x2e
 3085 028d 898201   		.uleb128 0x4109
 3086 0290 00       		.byte	0
 3087 0291 11       		.uleb128 0x11
 3088 0292 01       		.uleb128 0x1
 3089 0293 9542     		.uleb128 0x2115
 3090 0295 0C       		.uleb128 0xc
 3091 0296 31       		.uleb128 0x31
 3092 0297 13       		.uleb128 0x13
 3093 0298 00       		.byte	0
 3094 0299 00       		.byte	0
 3095 029a 2F       		.uleb128 0x2f
 3096 029b 2E       		.uleb128 0x2e
 3097 029c 01       		.byte	0x1
 3098 029d 3F       		.uleb128 0x3f
 3099 029e 0C       		.uleb128 0xc
 3100 029f 03       		.uleb128 0x3
 3101 02a0 0E       		.uleb128 0xe
 3102 02a1 3A       		.uleb128 0x3a
 3103 02a2 0B       		.uleb128 0xb
 3104 02a3 3B       		.uleb128 0x3b
 3105 02a4 05       		.uleb128 0x5
 3106 02a5 27       		.uleb128 0x27
 3107 02a6 0C       		.uleb128 0xc
 3108 02a7 49       		.uleb128 0x49
 3109 02a8 13       		.uleb128 0x13
 3110 02a9 11       		.uleb128 0x11
 3111 02aa 01       		.uleb128 0x1
 3112 02ab 12       		.uleb128 0x12
 3113 02ac 01       		.uleb128 0x1
 3114 02ad 40       		.uleb128 0x40
 3115 02ae 06       		.uleb128 0x6
 3116 02af 9742     		.uleb128 0x2117
 3117 02b1 0C       		.uleb128 0xc
 3118 02b2 01       		.uleb128 0x1
 3119 02b3 13       		.uleb128 0x13
 3120 02b4 00       		.byte	0
 3121 02b5 00       		.byte	0
 3122 02b6 30       		.uleb128 0x30
 3123 02b7 1D       		.uleb128 0x1d
 3124 02b8 01       		.byte	0x1
ARM GAS  C:\Users\jenny\AppData\Local\Temp\ccbhbpyh.s 			page 56


 3125 02b9 31       		.uleb128 0x31
 3126 02ba 13       		.uleb128 0x13
 3127 02bb 11       		.uleb128 0x11
 3128 02bc 01       		.uleb128 0x1
 3129 02bd 12       		.uleb128 0x12
 3130 02be 01       		.uleb128 0x1
 3131 02bf 58       		.uleb128 0x58
 3132 02c0 0B       		.uleb128 0xb
 3133 02c1 59       		.uleb128 0x59
 3134 02c2 05       		.uleb128 0x5
 3135 02c3 01       		.uleb128 0x1
 3136 02c4 13       		.uleb128 0x13
 3137 02c5 00       		.byte	0
 3138 02c6 00       		.byte	0
 3139 02c7 31       		.uleb128 0x31
 3140 02c8 0B       		.uleb128 0xb
 3141 02c9 01       		.byte	0x1
 3142 02ca 11       		.uleb128 0x11
 3143 02cb 01       		.uleb128 0x1
 3144 02cc 12       		.uleb128 0x12
 3145 02cd 01       		.uleb128 0x1
 3146 02ce 00       		.byte	0
 3147 02cf 00       		.byte	0
 3148 02d0 32       		.uleb128 0x32
 3149 02d1 34       		.uleb128 0x34
 3150 02d2 00       		.byte	0
 3151 02d3 03       		.uleb128 0x3
 3152 02d4 0E       		.uleb128 0xe
 3153 02d5 3A       		.uleb128 0x3a
 3154 02d6 0B       		.uleb128 0xb
 3155 02d7 3B       		.uleb128 0x3b
 3156 02d8 0B       		.uleb128 0xb
 3157 02d9 49       		.uleb128 0x49
 3158 02da 13       		.uleb128 0x13
 3159 02db 3F       		.uleb128 0x3f
 3160 02dc 0C       		.uleb128 0xc
 3161 02dd 3C       		.uleb128 0x3c
 3162 02de 0C       		.uleb128 0xc
 3163 02df 00       		.byte	0
 3164 02e0 00       		.byte	0
 3165 02e1 33       		.uleb128 0x33
 3166 02e2 2E       		.uleb128 0x2e
 3167 02e3 01       		.byte	0x1
 3168 02e4 3F       		.uleb128 0x3f
 3169 02e5 0C       		.uleb128 0xc
 3170 02e6 03       		.uleb128 0x3
 3171 02e7 0E       		.uleb128 0xe
 3172 02e8 3A       		.uleb128 0x3a
 3173 02e9 0B       		.uleb128 0xb
 3174 02ea 3B       		.uleb128 0x3b
 3175 02eb 0B       		.uleb128 0xb
 3176 02ec 27       		.uleb128 0x27
 3177 02ed 0C       		.uleb128 0xc
 3178 02ee 49       		.uleb128 0x49
 3179 02ef 13       		.uleb128 0x13
 3180 02f0 3C       		.uleb128 0x3c
 3181 02f1 0C       		.uleb128 0xc
ARM GAS  C:\Users\jenny\AppData\Local\Temp\ccbhbpyh.s 			page 57


 3182 02f2 01       		.uleb128 0x1
 3183 02f3 13       		.uleb128 0x13
 3184 02f4 00       		.byte	0
 3185 02f5 00       		.byte	0
 3186 02f6 34       		.uleb128 0x34
 3187 02f7 05       		.uleb128 0x5
 3188 02f8 00       		.byte	0
 3189 02f9 49       		.uleb128 0x49
 3190 02fa 13       		.uleb128 0x13
 3191 02fb 00       		.byte	0
 3192 02fc 00       		.byte	0
 3193 02fd 35       		.uleb128 0x35
 3194 02fe 2E       		.uleb128 0x2e
 3195 02ff 00       		.byte	0
 3196 0300 3F       		.uleb128 0x3f
 3197 0301 0C       		.uleb128 0xc
 3198 0302 03       		.uleb128 0x3
 3199 0303 0E       		.uleb128 0xe
 3200 0304 3A       		.uleb128 0x3a
 3201 0305 0B       		.uleb128 0xb
 3202 0306 3B       		.uleb128 0x3b
 3203 0307 0B       		.uleb128 0xb
 3204 0308 27       		.uleb128 0x27
 3205 0309 0C       		.uleb128 0xc
 3206 030a 3C       		.uleb128 0x3c
 3207 030b 0C       		.uleb128 0xc
 3208 030c 00       		.byte	0
 3209 030d 00       		.byte	0
 3210 030e 36       		.uleb128 0x36
 3211 030f 2E       		.uleb128 0x2e
 3212 0310 01       		.byte	0x1
 3213 0311 3F       		.uleb128 0x3f
 3214 0312 0C       		.uleb128 0xc
 3215 0313 03       		.uleb128 0x3
 3216 0314 0E       		.uleb128 0xe
 3217 0315 3A       		.uleb128 0x3a
 3218 0316 0B       		.uleb128 0xb
 3219 0317 3B       		.uleb128 0x3b
 3220 0318 0B       		.uleb128 0xb
 3221 0319 27       		.uleb128 0x27
 3222 031a 0C       		.uleb128 0xc
 3223 031b 3C       		.uleb128 0x3c
 3224 031c 0C       		.uleb128 0xc
 3225 031d 01       		.uleb128 0x1
 3226 031e 13       		.uleb128 0x13
 3227 031f 00       		.byte	0
 3228 0320 00       		.byte	0
 3229 0321 37       		.uleb128 0x37
 3230 0322 2E       		.uleb128 0x2e
 3231 0323 01       		.byte	0x1
 3232 0324 3F       		.uleb128 0x3f
 3233 0325 0C       		.uleb128 0xc
 3234 0326 03       		.uleb128 0x3
 3235 0327 0E       		.uleb128 0xe
 3236 0328 3A       		.uleb128 0x3a
 3237 0329 0B       		.uleb128 0xb
 3238 032a 3B       		.uleb128 0x3b
ARM GAS  C:\Users\jenny\AppData\Local\Temp\ccbhbpyh.s 			page 58


 3239 032b 0B       		.uleb128 0xb
 3240 032c 27       		.uleb128 0x27
 3241 032d 0C       		.uleb128 0xc
 3242 032e 3C       		.uleb128 0x3c
 3243 032f 0C       		.uleb128 0xc
 3244 0330 00       		.byte	0
 3245 0331 00       		.byte	0
 3246 0332 00       		.byte	0
 3247              		.section	.debug_loc,"",%progbits
 3248              	.Ldebug_loc0:
 3249              	.LLST0:
 3250 0000 00000000 		.4byte	.LFB9
 3251 0004 02000000 		.4byte	.LCFI0
 3252 0008 0200     		.2byte	0x2
 3253 000a 7D       		.byte	0x7d
 3254 000b 00       		.sleb128 0
 3255 000c 02000000 		.4byte	.LCFI0
 3256 0010 68000000 		.4byte	.LFE9
 3257 0014 0200     		.2byte	0x2
 3258 0016 7D       		.byte	0x7d
 3259 0017 18       		.sleb128 24
 3260 0018 00000000 		.4byte	0
 3261 001c 00000000 		.4byte	0
 3262              	.LLST1:
 3263 0020 00000000 		.4byte	.LVL1
 3264 0024 10000000 		.4byte	.LVL4
 3265 0028 0100     		.2byte	0x1
 3266 002a 50       		.byte	0x50
 3267 002b 10000000 		.4byte	.LVL4
 3268 002f 68000000 		.4byte	.LFE9
 3269 0033 0100     		.2byte	0x1
 3270 0035 54       		.byte	0x54
 3271 0036 00000000 		.4byte	0
 3272 003a 00000000 		.4byte	0
 3273              	.LLST2:
 3274 003e 00000000 		.4byte	.LVL1
 3275 0042 19000000 		.4byte	.LVL5-1
 3276 0046 0100     		.2byte	0x1
 3277 0048 51       		.byte	0x51
 3278 0049 19000000 		.4byte	.LVL5-1
 3279 004d 68000000 		.4byte	.LFE9
 3280 0051 0400     		.2byte	0x4
 3281 0053 F3       		.byte	0xf3
 3282 0054 01       		.uleb128 0x1
 3283 0055 51       		.byte	0x51
 3284 0056 9F       		.byte	0x9f
 3285 0057 00000000 		.4byte	0
 3286 005b 00000000 		.4byte	0
 3287              	.LLST3:
 3288 005f 04000000 		.4byte	.LVL2
 3289 0063 3C000000 		.4byte	.LVL8
 3290 0067 0100     		.2byte	0x1
 3291 0069 57       		.byte	0x57
 3292 006a 64000000 		.4byte	.LVL12
 3293 006e 66000000 		.4byte	.LVL13
 3294 0072 0100     		.2byte	0x1
 3295 0074 57       		.byte	0x57
ARM GAS  C:\Users\jenny\AppData\Local\Temp\ccbhbpyh.s 			page 59


 3296 0075 00000000 		.4byte	0
 3297 0079 00000000 		.4byte	0
 3298              	.LLST4:
 3299 007d 22000000 		.4byte	.LVL6
 3300 0081 62000000 		.4byte	.LVL11
 3301 0085 0100     		.2byte	0x1
 3302 0087 54       		.byte	0x54
 3303 0088 64000000 		.4byte	.LVL12
 3304 008c 68000000 		.4byte	.LFE9
 3305 0090 0100     		.2byte	0x1
 3306 0092 54       		.byte	0x54
 3307 0093 00000000 		.4byte	0
 3308 0097 00000000 		.4byte	0
 3309              	.LLST5:
 3310 009b 00000000 		.4byte	.LFB8
 3311 009f 02000000 		.4byte	.LCFI1
 3312 00a3 0200     		.2byte	0x2
 3313 00a5 7D       		.byte	0x7d
 3314 00a6 00       		.sleb128 0
 3315 00a7 02000000 		.4byte	.LCFI1
 3316 00ab 18000000 		.4byte	.LFE8
 3317 00af 0200     		.2byte	0x2
 3318 00b1 7D       		.byte	0x7d
 3319 00b2 08       		.sleb128 8
 3320 00b3 00000000 		.4byte	0
 3321 00b7 00000000 		.4byte	0
 3322              	.LLST6:
 3323 00bb 00000000 		.4byte	.LVL14
 3324 00bf 0B000000 		.4byte	.LVL17-1
 3325 00c3 0100     		.2byte	0x1
 3326 00c5 50       		.byte	0x50
 3327 00c6 0B000000 		.4byte	.LVL17-1
 3328 00ca 18000000 		.4byte	.LFE8
 3329 00ce 0400     		.2byte	0x4
 3330 00d0 F3       		.byte	0xf3
 3331 00d1 01       		.uleb128 0x1
 3332 00d2 50       		.byte	0x50
 3333 00d3 9F       		.byte	0x9f
 3334 00d4 00000000 		.4byte	0
 3335 00d8 00000000 		.4byte	0
 3336              	.LLST7:
 3337 00dc 00000000 		.4byte	.LVL14
 3338 00e0 0B000000 		.4byte	.LVL17-1
 3339 00e4 0100     		.2byte	0x1
 3340 00e6 51       		.byte	0x51
 3341 00e7 0B000000 		.4byte	.LVL17-1
 3342 00eb 18000000 		.4byte	.LFE8
 3343 00ef 0400     		.2byte	0x4
 3344 00f1 F3       		.byte	0xf3
 3345 00f2 01       		.uleb128 0x1
 3346 00f3 51       		.byte	0x51
 3347 00f4 9F       		.byte	0x9f
 3348 00f5 00000000 		.4byte	0
 3349 00f9 00000000 		.4byte	0
 3350              	.LLST8:
 3351 00fd 08000000 		.4byte	.LVL16
 3352 0101 0B000000 		.4byte	.LVL17-1
ARM GAS  C:\Users\jenny\AppData\Local\Temp\ccbhbpyh.s 			page 60


 3353 0105 0100     		.2byte	0x1
 3354 0107 53       		.byte	0x53
 3355 0108 00000000 		.4byte	0
 3356 010c 00000000 		.4byte	0
 3357              	.LLST9:
 3358 0110 16000000 		.4byte	.LVL20
 3359 0114 18000000 		.4byte	.LFE8
 3360 0118 0100     		.2byte	0x1
 3361 011a 53       		.byte	0x53
 3362 011b 00000000 		.4byte	0
 3363 011f 00000000 		.4byte	0
 3364              	.LLST10:
 3365 0123 00000000 		.4byte	.LFB11
 3366 0127 0A000000 		.4byte	.LCFI2
 3367 012b 0200     		.2byte	0x2
 3368 012d 7D       		.byte	0x7d
 3369 012e 00       		.sleb128 0
 3370 012f 0A000000 		.4byte	.LCFI2
 3371 0133 34000000 		.4byte	.LFE11
 3372 0137 0200     		.2byte	0x2
 3373 0139 7D       		.byte	0x7d
 3374 013a 08       		.sleb128 8
 3375 013b 00000000 		.4byte	0
 3376 013f 00000000 		.4byte	0
 3377              	.LLST11:
 3378 0143 00000000 		.4byte	.LVL21
 3379 0147 06000000 		.4byte	.LVL22
 3380 014b 0100     		.2byte	0x1
 3381 014d 50       		.byte	0x50
 3382 014e 06000000 		.4byte	.LVL22
 3383 0152 27000000 		.4byte	.LVL24-1
 3384 0156 0100     		.2byte	0x1
 3385 0158 53       		.byte	0x53
 3386 0159 27000000 		.4byte	.LVL24-1
 3387 015d 34000000 		.4byte	.LFE11
 3388 0161 0400     		.2byte	0x4
 3389 0163 F3       		.byte	0xf3
 3390 0164 01       		.uleb128 0x1
 3391 0165 50       		.byte	0x50
 3392 0166 9F       		.byte	0x9f
 3393 0167 00000000 		.4byte	0
 3394 016b 00000000 		.4byte	0
 3395              	.LLST12:
 3396 016f 18000000 		.4byte	.LVL23
 3397 0173 27000000 		.4byte	.LVL24-1
 3398 0177 0200     		.2byte	0x2
 3399 0179 72       		.byte	0x72
 3400 017a 24       		.sleb128 36
 3401 017b 27000000 		.4byte	.LVL24-1
 3402 017f 34000000 		.4byte	.LFE11
 3403 0183 0400     		.2byte	0x4
 3404 0185 F3       		.byte	0xf3
 3405 0186 01       		.uleb128 0x1
 3406 0187 50       		.byte	0x50
 3407 0188 9F       		.byte	0x9f
 3408 0189 00000000 		.4byte	0
 3409 018d 00000000 		.4byte	0
ARM GAS  C:\Users\jenny\AppData\Local\Temp\ccbhbpyh.s 			page 61


 3410              	.LLST13:
 3411 0191 18000000 		.4byte	.LVL23
 3412 0195 27000000 		.4byte	.LVL24-1
 3413 0199 0100     		.2byte	0x1
 3414 019b 52       		.byte	0x52
 3415 019c 00000000 		.4byte	0
 3416 01a0 00000000 		.4byte	0
 3417              	.LLST14:
 3418 01a4 00000000 		.4byte	.LFB10
 3419 01a8 02000000 		.4byte	.LCFI3
 3420 01ac 0200     		.2byte	0x2
 3421 01ae 7D       		.byte	0x7d
 3422 01af 00       		.sleb128 0
 3423 01b0 02000000 		.4byte	.LCFI3
 3424 01b4 14000000 		.4byte	.LFE10
 3425 01b8 0200     		.2byte	0x2
 3426 01ba 7D       		.byte	0x7d
 3427 01bb 08       		.sleb128 8
 3428 01bc 00000000 		.4byte	0
 3429 01c0 00000000 		.4byte	0
 3430              	.LLST15:
 3431 01c4 00000000 		.4byte	.LVL25
 3432 01c8 0B000000 		.4byte	.LVL28-1
 3433 01cc 0100     		.2byte	0x1
 3434 01ce 50       		.byte	0x50
 3435 01cf 0B000000 		.4byte	.LVL28-1
 3436 01d3 14000000 		.4byte	.LFE10
 3437 01d7 0400     		.2byte	0x4
 3438 01d9 F3       		.byte	0xf3
 3439 01da 01       		.uleb128 0x1
 3440 01db 50       		.byte	0x50
 3441 01dc 9F       		.byte	0x9f
 3442 01dd 00000000 		.4byte	0
 3443 01e1 00000000 		.4byte	0
 3444              	.LLST16:
 3445 01e5 08000000 		.4byte	.LVL27
 3446 01e9 0B000000 		.4byte	.LVL28-1
 3447 01ed 0100     		.2byte	0x1
 3448 01ef 53       		.byte	0x53
 3449 01f0 00000000 		.4byte	0
 3450 01f4 00000000 		.4byte	0
 3451              	.LLST17:
 3452 01f8 12000000 		.4byte	.LVL30
 3453 01fc 14000000 		.4byte	.LFE10
 3454 0200 0100     		.2byte	0x1
 3455 0202 53       		.byte	0x53
 3456 0203 00000000 		.4byte	0
 3457 0207 00000000 		.4byte	0
 3458              	.LLST18:
 3459 020b 00000000 		.4byte	.LFB13
 3460 020f 0A000000 		.4byte	.LCFI4
 3461 0213 0200     		.2byte	0x2
 3462 0215 7D       		.byte	0x7d
 3463 0216 00       		.sleb128 0
 3464 0217 0A000000 		.4byte	.LCFI4
 3465 021b 3C000000 		.4byte	.LFE13
 3466 021f 0200     		.2byte	0x2
ARM GAS  C:\Users\jenny\AppData\Local\Temp\ccbhbpyh.s 			page 62


 3467 0221 7D       		.byte	0x7d
 3468 0222 04       		.sleb128 4
 3469 0223 00000000 		.4byte	0
 3470 0227 00000000 		.4byte	0
 3471              	.LLST19:
 3472 022b 00000000 		.4byte	.LVL31
 3473 022f 04000000 		.4byte	.LVL32
 3474 0233 0100     		.2byte	0x1
 3475 0235 50       		.byte	0x50
 3476 0236 04000000 		.4byte	.LVL32
 3477 023a 2F000000 		.4byte	.LVL34-1
 3478 023e 0100     		.2byte	0x1
 3479 0240 53       		.byte	0x53
 3480 0241 2F000000 		.4byte	.LVL34-1
 3481 0245 30000000 		.4byte	.LVL34
 3482 0249 0400     		.2byte	0x4
 3483 024b F3       		.byte	0xf3
 3484 024c 01       		.uleb128 0x1
 3485 024d 50       		.byte	0x50
 3486 024e 9F       		.byte	0x9f
 3487 024f 30000000 		.4byte	.LVL34
 3488 0253 3C000000 		.4byte	.LFE13
 3489 0257 0100     		.2byte	0x1
 3490 0259 53       		.byte	0x53
 3491 025a 00000000 		.4byte	0
 3492 025e 00000000 		.4byte	0
 3493              	.LLST20:
 3494 0262 00000000 		.4byte	.LVL31
 3495 0266 2F000000 		.4byte	.LVL34-1
 3496 026a 0100     		.2byte	0x1
 3497 026c 51       		.byte	0x51
 3498 026d 2F000000 		.4byte	.LVL34-1
 3499 0271 30000000 		.4byte	.LVL34
 3500 0275 0400     		.2byte	0x4
 3501 0277 F3       		.byte	0xf3
 3502 0278 01       		.uleb128 0x1
 3503 0279 51       		.byte	0x51
 3504 027a 9F       		.byte	0x9f
 3505 027b 30000000 		.4byte	.LVL34
 3506 027f 3C000000 		.4byte	.LFE13
 3507 0283 0100     		.2byte	0x1
 3508 0285 51       		.byte	0x51
 3509 0286 00000000 		.4byte	0
 3510 028a 00000000 		.4byte	0
 3511              	.LLST21:
 3512 028e 1E000000 		.4byte	.LVL33
 3513 0292 2F000000 		.4byte	.LVL34-1
 3514 0296 0200     		.2byte	0x2
 3515 0298 72       		.byte	0x72
 3516 0299 24       		.sleb128 36
 3517 029a 2F000000 		.4byte	.LVL34-1
 3518 029e 30000000 		.4byte	.LVL34
 3519 02a2 0400     		.2byte	0x4
 3520 02a4 F3       		.byte	0xf3
 3521 02a5 01       		.uleb128 0x1
 3522 02a6 50       		.byte	0x50
 3523 02a7 9F       		.byte	0x9f
ARM GAS  C:\Users\jenny\AppData\Local\Temp\ccbhbpyh.s 			page 63


 3524 02a8 00000000 		.4byte	0
 3525 02ac 00000000 		.4byte	0
 3526              	.LLST22:
 3527 02b0 1E000000 		.4byte	.LVL33
 3528 02b4 2F000000 		.4byte	.LVL34-1
 3529 02b8 0100     		.2byte	0x1
 3530 02ba 52       		.byte	0x52
 3531 02bb 00000000 		.4byte	0
 3532 02bf 00000000 		.4byte	0
 3533              	.LLST23:
 3534 02c3 00000000 		.4byte	.LFB12
 3535 02c7 02000000 		.4byte	.LCFI5
 3536 02cb 0200     		.2byte	0x2
 3537 02cd 7D       		.byte	0x7d
 3538 02ce 00       		.sleb128 0
 3539 02cf 02000000 		.4byte	.LCFI5
 3540 02d3 14000000 		.4byte	.LFE12
 3541 02d7 0200     		.2byte	0x2
 3542 02d9 7D       		.byte	0x7d
 3543 02da 08       		.sleb128 8
 3544 02db 00000000 		.4byte	0
 3545 02df 00000000 		.4byte	0
 3546              	.LLST24:
 3547 02e3 00000000 		.4byte	.LVL35
 3548 02e7 0B000000 		.4byte	.LVL38-1
 3549 02eb 0100     		.2byte	0x1
 3550 02ed 50       		.byte	0x50
 3551 02ee 0B000000 		.4byte	.LVL38-1
 3552 02f2 14000000 		.4byte	.LFE12
 3553 02f6 0400     		.2byte	0x4
 3554 02f8 F3       		.byte	0xf3
 3555 02f9 01       		.uleb128 0x1
 3556 02fa 50       		.byte	0x50
 3557 02fb 9F       		.byte	0x9f
 3558 02fc 00000000 		.4byte	0
 3559 0300 00000000 		.4byte	0
 3560              	.LLST25:
 3561 0304 00000000 		.4byte	.LVL35
 3562 0308 0B000000 		.4byte	.LVL38-1
 3563 030c 0100     		.2byte	0x1
 3564 030e 51       		.byte	0x51
 3565 030f 0B000000 		.4byte	.LVL38-1
 3566 0313 14000000 		.4byte	.LFE12
 3567 0317 0400     		.2byte	0x4
 3568 0319 F3       		.byte	0xf3
 3569 031a 01       		.uleb128 0x1
 3570 031b 51       		.byte	0x51
 3571 031c 9F       		.byte	0x9f
 3572 031d 00000000 		.4byte	0
 3573 0321 00000000 		.4byte	0
 3574              	.LLST26:
 3575 0325 08000000 		.4byte	.LVL37
 3576 0329 0B000000 		.4byte	.LVL38-1
 3577 032d 0100     		.2byte	0x1
 3578 032f 53       		.byte	0x53
 3579 0330 00000000 		.4byte	0
 3580 0334 00000000 		.4byte	0
ARM GAS  C:\Users\jenny\AppData\Local\Temp\ccbhbpyh.s 			page 64


 3581              	.LLST27:
 3582 0338 12000000 		.4byte	.LVL40
 3583 033c 14000000 		.4byte	.LFE12
 3584 0340 0100     		.2byte	0x1
 3585 0342 53       		.byte	0x53
 3586 0343 00000000 		.4byte	0
 3587 0347 00000000 		.4byte	0
 3588              	.LLST28:
 3589 034b 00000000 		.4byte	.LFB14
 3590 034f 02000000 		.4byte	.LCFI6
 3591 0353 0200     		.2byte	0x2
 3592 0355 7D       		.byte	0x7d
 3593 0356 00       		.sleb128 0
 3594 0357 02000000 		.4byte	.LCFI6
 3595 035b 2C000000 		.4byte	.LFE14
 3596 035f 0200     		.2byte	0x2
 3597 0361 7D       		.byte	0x7d
 3598 0362 08       		.sleb128 8
 3599 0363 00000000 		.4byte	0
 3600 0367 00000000 		.4byte	0
 3601              	.LLST29:
 3602 036b 00000000 		.4byte	.LVL41
 3603 036f 0E000000 		.4byte	.LVL45
 3604 0373 0100     		.2byte	0x1
 3605 0375 50       		.byte	0x50
 3606 0376 0E000000 		.4byte	.LVL45
 3607 037a 14000000 		.4byte	.LVL46
 3608 037e 0100     		.2byte	0x1
 3609 0380 52       		.byte	0x52
 3610 0381 14000000 		.4byte	.LVL46
 3611 0385 1C000000 		.4byte	.LVL49
 3612 0389 0400     		.2byte	0x4
 3613 038b F3       		.byte	0xf3
 3614 038c 01       		.uleb128 0x1
 3615 038d 50       		.byte	0x50
 3616 038e 9F       		.byte	0x9f
 3617 038f 1C000000 		.4byte	.LVL49
 3618 0393 29000000 		.4byte	.LVL51-1
 3619 0397 0100     		.2byte	0x1
 3620 0399 52       		.byte	0x52
 3621 039a 29000000 		.4byte	.LVL51-1
 3622 039e 2C000000 		.4byte	.LFE14
 3623 03a2 0400     		.2byte	0x4
 3624 03a4 F3       		.byte	0xf3
 3625 03a5 01       		.uleb128 0x1
 3626 03a6 50       		.byte	0x50
 3627 03a7 9F       		.byte	0x9f
 3628 03a8 00000000 		.4byte	0
 3629 03ac 00000000 		.4byte	0
 3630              	.LLST30:
 3631 03b0 0A000000 		.4byte	.LVL43
 3632 03b4 0C000000 		.4byte	.LVL44
 3633 03b8 0100     		.2byte	0x1
 3634 03ba 53       		.byte	0x53
 3635 03bb 00000000 		.4byte	0
 3636 03bf 00000000 		.4byte	0
 3637              	.LLST31:
ARM GAS  C:\Users\jenny\AppData\Local\Temp\ccbhbpyh.s 			page 65


 3638 03c3 1A000000 		.4byte	.LVL48
 3639 03c7 1C000000 		.4byte	.LVL49
 3640 03cb 0100     		.2byte	0x1
 3641 03cd 53       		.byte	0x53
 3642 03ce 00000000 		.4byte	0
 3643 03d2 00000000 		.4byte	0
 3644              	.LLST32:
 3645 03d6 1C000000 		.4byte	.LVL49
 3646 03da 29000000 		.4byte	.LVL51-1
 3647 03de 0100     		.2byte	0x1
 3648 03e0 52       		.byte	0x52
 3649 03e1 29000000 		.4byte	.LVL51-1
 3650 03e5 2C000000 		.4byte	.LFE14
 3651 03e9 0400     		.2byte	0x4
 3652 03eb F3       		.byte	0xf3
 3653 03ec 01       		.uleb128 0x1
 3654 03ed 50       		.byte	0x50
 3655 03ee 9F       		.byte	0x9f
 3656 03ef 00000000 		.4byte	0
 3657 03f3 00000000 		.4byte	0
 3658              	.LLST33:
 3659 03f7 1E000000 		.4byte	.LVL50
 3660 03fb 29000000 		.4byte	.LVL51-1
 3661 03ff 0100     		.2byte	0x1
 3662 0401 50       		.byte	0x50
 3663 0402 00000000 		.4byte	0
 3664 0406 00000000 		.4byte	0
 3665              	.LLST34:
 3666 040a 00000000 		.4byte	.LVL52
 3667 040e 06000000 		.4byte	.LVL53
 3668 0412 0100     		.2byte	0x1
 3669 0414 50       		.byte	0x50
 3670 0415 06000000 		.4byte	.LVL53
 3671 0419 1A000000 		.4byte	.LVL56
 3672 041d 0100     		.2byte	0x1
 3673 041f 53       		.byte	0x53
 3674 0420 1A000000 		.4byte	.LVL56
 3675 0424 1F000000 		.4byte	.LVL57-1
 3676 0428 0200     		.2byte	0x2
 3677 042a 71       		.byte	0x71
 3678 042b 04       		.sleb128 4
 3679 042c 1F000000 		.4byte	.LVL57-1
 3680 0430 20000000 		.4byte	.LFE15
 3681 0434 0400     		.2byte	0x4
 3682 0436 F3       		.byte	0xf3
 3683 0437 01       		.uleb128 0x1
 3684 0438 50       		.byte	0x50
 3685 0439 9F       		.byte	0x9f
 3686 043a 00000000 		.4byte	0
 3687 043e 00000000 		.4byte	0
 3688              	.LLST35:
 3689 0442 0E000000 		.4byte	.LVL54
 3690 0446 1A000000 		.4byte	.LVL56
 3691 044a 0100     		.2byte	0x1
 3692 044c 53       		.byte	0x53
 3693 044d 1A000000 		.4byte	.LVL56
 3694 0451 1F000000 		.4byte	.LVL57-1
ARM GAS  C:\Users\jenny\AppData\Local\Temp\ccbhbpyh.s 			page 66


 3695 0455 0200     		.2byte	0x2
 3696 0457 71       		.byte	0x71
 3697 0458 04       		.sleb128 4
 3698 0459 1F000000 		.4byte	.LVL57-1
 3699 045d 20000000 		.4byte	.LFE15
 3700 0461 0400     		.2byte	0x4
 3701 0463 F3       		.byte	0xf3
 3702 0464 01       		.uleb128 0x1
 3703 0465 50       		.byte	0x50
 3704 0466 9F       		.byte	0x9f
 3705 0467 00000000 		.4byte	0
 3706 046b 00000000 		.4byte	0
 3707              	.LLST36:
 3708 046f 10000000 		.4byte	.LVL55
 3709 0473 1F000000 		.4byte	.LVL57-1
 3710 0477 0100     		.2byte	0x1
 3711 0479 52       		.byte	0x52
 3712 047a 00000000 		.4byte	0
 3713 047e 00000000 		.4byte	0
 3714              	.LLST37:
 3715 0482 00000000 		.4byte	.LFB16
 3716 0486 02000000 		.4byte	.LCFI7
 3717 048a 0200     		.2byte	0x2
 3718 048c 7D       		.byte	0x7d
 3719 048d 00       		.sleb128 0
 3720 048e 02000000 		.4byte	.LCFI7
 3721 0492 9C000000 		.4byte	.LFE16
 3722 0496 0200     		.2byte	0x2
 3723 0498 7D       		.byte	0x7d
 3724 0499 18       		.sleb128 24
 3725 049a 00000000 		.4byte	0
 3726 049e 00000000 		.4byte	0
 3727              	.LLST38:
 3728 04a2 00000000 		.4byte	.LVL58
 3729 04a6 0E000000 		.4byte	.LVL59
 3730 04aa 0100     		.2byte	0x1
 3731 04ac 50       		.byte	0x50
 3732 04ad 0E000000 		.4byte	.LVL59
 3733 04b1 9C000000 		.4byte	.LFE16
 3734 04b5 0100     		.2byte	0x1
 3735 04b7 54       		.byte	0x54
 3736 04b8 00000000 		.4byte	0
 3737 04bc 00000000 		.4byte	0
 3738              	.LLST39:
 3739 04c0 00000000 		.4byte	.LVL58
 3740 04c4 1A000000 		.4byte	.LVL60
 3741 04c8 0100     		.2byte	0x1
 3742 04ca 51       		.byte	0x51
 3743 04cb 1A000000 		.4byte	.LVL60
 3744 04cf 1C000000 		.4byte	.LVL61
 3745 04d3 0100     		.2byte	0x1
 3746 04d5 55       		.byte	0x55
 3747 04d6 1C000000 		.4byte	.LVL61
 3748 04da 2A000000 		.4byte	.LVL62
 3749 04de 0400     		.2byte	0x4
 3750 04e0 F3       		.byte	0xf3
 3751 04e1 01       		.uleb128 0x1
ARM GAS  C:\Users\jenny\AppData\Local\Temp\ccbhbpyh.s 			page 67


 3752 04e2 51       		.byte	0x51
 3753 04e3 9F       		.byte	0x9f
 3754 04e4 7A000000 		.4byte	.LVL69
 3755 04e8 7E000000 		.4byte	.LVL70
 3756 04ec 0100     		.2byte	0x1
 3757 04ee 51       		.byte	0x51
 3758 04ef 7E000000 		.4byte	.LVL70
 3759 04f3 8A000000 		.4byte	.LVL72
 3760 04f7 0100     		.2byte	0x1
 3761 04f9 55       		.byte	0x55
 3762 04fa 8A000000 		.4byte	.LVL72
 3763 04fe 9A000000 		.4byte	.LVL74
 3764 0502 0400     		.2byte	0x4
 3765 0504 F3       		.byte	0xf3
 3766 0505 01       		.uleb128 0x1
 3767 0506 51       		.byte	0x51
 3768 0507 9F       		.byte	0x9f
 3769 0508 00000000 		.4byte	0
 3770 050c 00000000 		.4byte	0
 3771              	.LLST40:
 3772 0510 4C000000 		.4byte	.LVL63
 3773 0514 76000000 		.4byte	.LVL68
 3774 0518 0100     		.2byte	0x1
 3775 051a 54       		.byte	0x54
 3776 051b 7A000000 		.4byte	.LVL69
 3777 051f 9A000000 		.4byte	.LVL74
 3778 0523 0100     		.2byte	0x1
 3779 0525 54       		.byte	0x54
 3780 0526 00000000 		.4byte	0
 3781 052a 00000000 		.4byte	0
 3782              	.LLST41:
 3783 052e 4E000000 		.4byte	.LVL64
 3784 0532 57000000 		.4byte	.LVL65-1
 3785 0536 0100     		.2byte	0x1
 3786 0538 50       		.byte	0x50
 3787 0539 00000000 		.4byte	0
 3788 053d 00000000 		.4byte	0
 3789              	.LLST42:
 3790 0541 00000000 		.4byte	.LFB17
 3791 0545 02000000 		.4byte	.LCFI8
 3792 0549 0200     		.2byte	0x2
 3793 054b 7D       		.byte	0x7d
 3794 054c 00       		.sleb128 0
 3795 054d 02000000 		.4byte	.LCFI8
 3796 0551 06000000 		.4byte	.LCFI9
 3797 0555 0200     		.2byte	0x2
 3798 0557 7D       		.byte	0x7d
 3799 0558 08       		.sleb128 8
 3800 0559 06000000 		.4byte	.LCFI9
 3801 055d 64000000 		.4byte	.LFE17
 3802 0561 0200     		.2byte	0x2
 3803 0563 7D       		.byte	0x7d
 3804 0564 10       		.sleb128 16
 3805 0565 00000000 		.4byte	0
 3806 0569 00000000 		.4byte	0
 3807              	.LLST43:
 3808 056d 00000000 		.4byte	.LVL75
ARM GAS  C:\Users\jenny\AppData\Local\Temp\ccbhbpyh.s 			page 68


 3809 0571 10000000 		.4byte	.LVL79
 3810 0575 0100     		.2byte	0x1
 3811 0577 50       		.byte	0x50
 3812 0578 10000000 		.4byte	.LVL79
 3813 057c 16000000 		.4byte	.LVL80
 3814 0580 0100     		.2byte	0x1
 3815 0582 52       		.byte	0x52
 3816 0583 16000000 		.4byte	.LVL80
 3817 0587 4A000000 		.4byte	.LVL89
 3818 058b 0400     		.2byte	0x4
 3819 058d F3       		.byte	0xf3
 3820 058e 01       		.uleb128 0x1
 3821 058f 50       		.byte	0x50
 3822 0590 9F       		.byte	0x9f
 3823 0591 4A000000 		.4byte	.LVL89
 3824 0595 57000000 		.4byte	.LVL91-1
 3825 0599 0100     		.2byte	0x1
 3826 059b 52       		.byte	0x52
 3827 059c 57000000 		.4byte	.LVL91-1
 3828 05a0 64000000 		.4byte	.LFE17
 3829 05a4 0400     		.2byte	0x4
 3830 05a6 F3       		.byte	0xf3
 3831 05a7 01       		.uleb128 0x1
 3832 05a8 50       		.byte	0x50
 3833 05a9 9F       		.byte	0x9f
 3834 05aa 00000000 		.4byte	0
 3835 05ae 00000000 		.4byte	0
 3836              	.LLST44:
 3837 05b2 00000000 		.4byte	.LVL75
 3838 05b6 16000000 		.4byte	.LVL80
 3839 05ba 0100     		.2byte	0x1
 3840 05bc 51       		.byte	0x51
 3841 05bd 16000000 		.4byte	.LVL80
 3842 05c1 4A000000 		.4byte	.LVL89
 3843 05c5 0400     		.2byte	0x4
 3844 05c7 F3       		.byte	0xf3
 3845 05c8 01       		.uleb128 0x1
 3846 05c9 51       		.byte	0x51
 3847 05ca 9F       		.byte	0x9f
 3848 05cb 4A000000 		.4byte	.LVL89
 3849 05cf 57000000 		.4byte	.LVL91-1
 3850 05d3 0100     		.2byte	0x1
 3851 05d5 51       		.byte	0x51
 3852 05d6 57000000 		.4byte	.LVL91-1
 3853 05da 64000000 		.4byte	.LFE17
 3854 05de 0400     		.2byte	0x4
 3855 05e0 F3       		.byte	0xf3
 3856 05e1 01       		.uleb128 0x1
 3857 05e2 51       		.byte	0x51
 3858 05e3 9F       		.byte	0x9f
 3859 05e4 00000000 		.4byte	0
 3860 05e8 00000000 		.4byte	0
 3861              	.LLST45:
 3862 05ec 24000000 		.4byte	.LVL81
 3863 05f0 26000000 		.4byte	.LVL82
 3864 05f4 0200     		.2byte	0x2
 3865 05f6 30       		.byte	0x30
ARM GAS  C:\Users\jenny\AppData\Local\Temp\ccbhbpyh.s 			page 69


 3866 05f7 9F       		.byte	0x9f
 3867 05f8 26000000 		.4byte	.LVL82
 3868 05fc 30000000 		.4byte	.LVL85
 3869 0600 0100     		.2byte	0x1
 3870 0602 50       		.byte	0x50
 3871 0603 48000000 		.4byte	.LVL88
 3872 0607 4A000000 		.4byte	.LVL89
 3873 060b 0100     		.2byte	0x1
 3874 060d 50       		.byte	0x50
 3875 060e 00000000 		.4byte	0
 3876 0612 00000000 		.4byte	0
 3877              	.LLST46:
 3878 0616 0C000000 		.4byte	.LVL77
 3879 061a 0E000000 		.4byte	.LVL78
 3880 061e 0100     		.2byte	0x1
 3881 0620 53       		.byte	0x53
 3882 0621 00000000 		.4byte	0
 3883 0625 00000000 		.4byte	0
 3884              	.LLST47:
 3885 0629 2C000000 		.4byte	.LVL84
 3886 062d 30000000 		.4byte	.LVL85
 3887 0631 0100     		.2byte	0x1
 3888 0633 53       		.byte	0x53
 3889 0634 00000000 		.4byte	0
 3890 0638 00000000 		.4byte	0
 3891              	.LLST48:
 3892 063c 36000000 		.4byte	.LVL86
 3893 0640 4A000000 		.4byte	.LVL89
 3894 0644 0100     		.2byte	0x1
 3895 0646 54       		.byte	0x54
 3896 0647 00000000 		.4byte	0
 3897 064b 00000000 		.4byte	0
 3898              	.LLST49:
 3899 064f 36000000 		.4byte	.LVL86
 3900 0653 45000000 		.4byte	.LVL87-1
 3901 0657 0100     		.2byte	0x1
 3902 0659 51       		.byte	0x51
 3903 065a 00000000 		.4byte	0
 3904 065e 00000000 		.4byte	0
 3905              	.LLST51:
 3906 0662 4A000000 		.4byte	.LVL89
 3907 0666 57000000 		.4byte	.LVL91-1
 3908 066a 0100     		.2byte	0x1
 3909 066c 52       		.byte	0x52
 3910 066d 57000000 		.4byte	.LVL91-1
 3911 0671 64000000 		.4byte	.LFE17
 3912 0675 0400     		.2byte	0x4
 3913 0677 F3       		.byte	0xf3
 3914 0678 01       		.uleb128 0x1
 3915 0679 50       		.byte	0x50
 3916 067a 9F       		.byte	0x9f
 3917 067b 00000000 		.4byte	0
 3918 067f 00000000 		.4byte	0
 3919              	.LLST52:
 3920 0683 4C000000 		.4byte	.LVL90
 3921 0687 57000000 		.4byte	.LVL91-1
 3922 068b 0100     		.2byte	0x1
ARM GAS  C:\Users\jenny\AppData\Local\Temp\ccbhbpyh.s 			page 70


 3923 068d 50       		.byte	0x50
 3924 068e 00000000 		.4byte	0
 3925 0692 00000000 		.4byte	0
 3926              		.section	.debug_aranges,"",%progbits
 3927 0000 6C000000 		.4byte	0x6c
 3928 0004 0200     		.2byte	0x2
 3929 0006 00000000 		.4byte	.Ldebug_info0
 3930 000a 04       		.byte	0x4
 3931 000b 00       		.byte	0
 3932 000c 0000     		.2byte	0
 3933 000e 0000     		.2byte	0
 3934 0010 00000000 		.4byte	.LFB7
 3935 0014 08000000 		.4byte	.LFE7-.LFB7
 3936 0018 00000000 		.4byte	.LFB9
 3937 001c 68000000 		.4byte	.LFE9-.LFB9
 3938 0020 00000000 		.4byte	.LFB8
 3939 0024 18000000 		.4byte	.LFE8-.LFB8
 3940 0028 00000000 		.4byte	.LFB11
 3941 002c 34000000 		.4byte	.LFE11-.LFB11
 3942 0030 00000000 		.4byte	.LFB10
 3943 0034 14000000 		.4byte	.LFE10-.LFB10
 3944 0038 00000000 		.4byte	.LFB13
 3945 003c 3C000000 		.4byte	.LFE13-.LFB13
 3946 0040 00000000 		.4byte	.LFB12
 3947 0044 14000000 		.4byte	.LFE12-.LFB12
 3948 0048 00000000 		.4byte	.LFB14
 3949 004c 2C000000 		.4byte	.LFE14-.LFB14
 3950 0050 00000000 		.4byte	.LFB15
 3951 0054 20000000 		.4byte	.LFE15-.LFB15
 3952 0058 00000000 		.4byte	.LFB16
 3953 005c 9C000000 		.4byte	.LFE16-.LFB16
 3954 0060 00000000 		.4byte	.LFB17
 3955 0064 64000000 		.4byte	.LFE17-.LFB17
 3956 0068 00000000 		.4byte	0
 3957 006c 00000000 		.4byte	0
 3958              		.section	.debug_ranges,"",%progbits
 3959              	.Ldebug_ranges0:
 3960 0000 0E000000 		.4byte	.LBB24
 3961 0004 16000000 		.4byte	.LBE24
 3962 0008 2A000000 		.4byte	.LBB29
 3963 000c 32000000 		.4byte	.LBE29
 3964 0010 3E000000 		.4byte	.LBB30
 3965 0014 46000000 		.4byte	.LBE30
 3966 0018 4C000000 		.4byte	.LBB31
 3967 001c 54000000 		.4byte	.LBE31
 3968 0020 00000000 		.4byte	0
 3969 0024 00000000 		.4byte	0
 3970 0028 0E000000 		.4byte	.LBB25
 3971 002c 16000000 		.4byte	.LBE25
 3972 0030 2A000000 		.4byte	.LBB26
 3973 0034 32000000 		.4byte	.LBE26
 3974 0038 3E000000 		.4byte	.LBB27
 3975 003c 46000000 		.4byte	.LBE27
 3976 0040 4C000000 		.4byte	.LBB28
 3977 0044 54000000 		.4byte	.LBE28
 3978 0048 00000000 		.4byte	0
 3979 004c 00000000 		.4byte	0
ARM GAS  C:\Users\jenny\AppData\Local\Temp\ccbhbpyh.s 			page 71


 3980 0050 18000000 		.4byte	.LBB34
 3981 0054 1E000000 		.4byte	.LBE34
 3982 0058 20000000 		.4byte	.LBB37
 3983 005c 24000000 		.4byte	.LBE37
 3984 0060 00000000 		.4byte	0
 3985 0064 00000000 		.4byte	0
 3986 0068 1E000000 		.4byte	.LBB40
 3987 006c 20000000 		.4byte	.LBE40
 3988 0070 22000000 		.4byte	.LBB43
 3989 0074 2A000000 		.4byte	.LBE43
 3990 0078 00000000 		.4byte	0
 3991 007c 00000000 		.4byte	0
 3992 0080 1C000000 		.4byte	.LBB48
 3993 0084 20000000 		.4byte	.LBE48
 3994 0088 22000000 		.4byte	.LBB51
 3995 008c 26000000 		.4byte	.LBE51
 3996 0090 00000000 		.4byte	0
 3997 0094 00000000 		.4byte	0
 3998 0098 1C000000 		.4byte	.LBB49
 3999 009c 20000000 		.4byte	.LBE49
 4000 00a0 22000000 		.4byte	.LBB50
 4001 00a4 26000000 		.4byte	.LBE50
 4002 00a8 00000000 		.4byte	0
 4003 00ac 00000000 		.4byte	0
 4004 00b0 0E000000 		.4byte	.LBB52
 4005 00b4 1C000000 		.4byte	.LBE52
 4006 00b8 1C000000 		.4byte	.LBB57
 4007 00bc 20000000 		.4byte	.LBE57
 4008 00c0 00000000 		.4byte	0
 4009 00c4 00000000 		.4byte	0
 4010 00c8 0E000000 		.4byte	.LBB53
 4011 00cc 12000000 		.4byte	.LBE53
 4012 00d0 14000000 		.4byte	.LBB56
 4013 00d4 18000000 		.4byte	.LBE56
 4014 00d8 00000000 		.4byte	0
 4015 00dc 00000000 		.4byte	0
 4016 00e0 0E000000 		.4byte	.LBB54
 4017 00e4 12000000 		.4byte	.LBE54
 4018 00e8 14000000 		.4byte	.LBB55
 4019 00ec 18000000 		.4byte	.LBE55
 4020 00f0 00000000 		.4byte	0
 4021 00f4 00000000 		.4byte	0
 4022 00f8 4C000000 		.4byte	.LBB58
 4023 00fc 54000000 		.4byte	.LBE58
 4024 0100 64000000 		.4byte	.LBB63
 4025 0104 6C000000 		.4byte	.LBE63
 4026 0108 7A000000 		.4byte	.LBB64
 4027 010c 82000000 		.4byte	.LBE64
 4028 0110 8A000000 		.4byte	.LBB65
 4029 0114 92000000 		.4byte	.LBE65
 4030 0118 00000000 		.4byte	0
 4031 011c 00000000 		.4byte	0
 4032 0120 4C000000 		.4byte	.LBB59
 4033 0124 54000000 		.4byte	.LBE59
 4034 0128 64000000 		.4byte	.LBB60
 4035 012c 6C000000 		.4byte	.LBE60
 4036 0130 7A000000 		.4byte	.LBB61
ARM GAS  C:\Users\jenny\AppData\Local\Temp\ccbhbpyh.s 			page 72


 4037 0134 82000000 		.4byte	.LBE61
 4038 0138 8A000000 		.4byte	.LBB62
 4039 013c 92000000 		.4byte	.LBE62
 4040 0140 00000000 		.4byte	0
 4041 0144 00000000 		.4byte	0
 4042 0148 32000000 		.4byte	.LBB69
 4043 014c 34000000 		.4byte	.LBE69
 4044 0150 38000000 		.4byte	.LBB72
 4045 0154 40000000 		.4byte	.LBE72
 4046 0158 00000000 		.4byte	0
 4047 015c 00000000 		.4byte	0
 4048 0160 00000000 		.4byte	.LFB7
 4049 0164 08000000 		.4byte	.LFE7
 4050 0168 00000000 		.4byte	.LFB9
 4051 016c 68000000 		.4byte	.LFE9
 4052 0170 00000000 		.4byte	.LFB8
 4053 0174 18000000 		.4byte	.LFE8
 4054 0178 00000000 		.4byte	.LFB11
 4055 017c 34000000 		.4byte	.LFE11
 4056 0180 00000000 		.4byte	.LFB10
 4057 0184 14000000 		.4byte	.LFE10
 4058 0188 00000000 		.4byte	.LFB13
 4059 018c 3C000000 		.4byte	.LFE13
 4060 0190 00000000 		.4byte	.LFB12
 4061 0194 14000000 		.4byte	.LFE12
 4062 0198 00000000 		.4byte	.LFB14
 4063 019c 2C000000 		.4byte	.LFE14
 4064 01a0 00000000 		.4byte	.LFB15
 4065 01a4 20000000 		.4byte	.LFE15
 4066 01a8 00000000 		.4byte	.LFB16
 4067 01ac 9C000000 		.4byte	.LFE16
 4068 01b0 00000000 		.4byte	.LFB17
 4069 01b4 64000000 		.4byte	.LFE17
 4070 01b8 00000000 		.4byte	0
 4071 01bc 00000000 		.4byte	0
 4072              		.section	.debug_line,"",%progbits
 4073              	.Ldebug_line0:
 4074 0000 54030000 		.section	.debug_str,"MS",%progbits,1
 4074      02002E01 
 4074      00000201 
 4074      FB0E0D00 
 4074      01010101 
 4075              	.LASF37:
 4076 0000 705F6D73 		.ascii	"p_msg\000"
 4076      6700
 4077              	.LASF86:
 4078 0006 71756575 		.ascii	"queue_insert\000"
 4078      655F696E 
 4078      73657274 
 4078      00
 4079              	.LASF78:
 4080 0013 63685365 		.ascii	"chSemSignalI\000"
 4080      6D536967 
 4080      6E616C49 
 4080      00
 4081              	.LASF62:
 4082 0020 7264796D 		.ascii	"rdymsg\000"
ARM GAS  C:\Users\jenny\AppData\Local\Temp\ccbhbpyh.s 			page 73


 4082      736700
 4083              	.LASF11:
 4084 0027 6C6F6E67 		.ascii	"long long unsigned int\000"
 4084      206C6F6E 
 4084      6720756E 
 4084      7369676E 
 4084      65642069 
 4085              	.LASF79:
 4086 003e 63685365 		.ascii	"chSemAddCounterI\000"
 4086      6D416464 
 4086      436F756E 
 4086      74657249 
 4086      00
 4087              	.LASF25:
 4088 004f 705F7072 		.ascii	"p_prio\000"
 4088      696F00
 4089              	.LASF10:
 4090 0056 6C6F6E67 		.ascii	"long long int\000"
 4090      206C6F6E 
 4090      6720696E 
 4090      7400
 4091              	.LASF1:
 4092 0064 7369676E 		.ascii	"signed char\000"
 4092      65642063 
 4092      68617200 
 4093              	.LASF80:
 4094 0070 63685365 		.ascii	"chSemSignalWait\000"
 4094      6D536967 
 4094      6E616C57 
 4094      61697400 
 4095              	.LASF41:
 4096 0080 705F6D70 		.ascii	"p_mpool\000"
 4096      6F6F6C00 
 4097              	.LASF59:
 4098 0088 6D5F7175 		.ascii	"m_queue\000"
 4098      65756500 
 4099              	.LASF16:
 4100 0090 74736C69 		.ascii	"tslices_t\000"
 4100      6365735F 
 4100      7400
 4101              	.LASF84:
 4102 009a 2E2E2F2E 		.ascii	"../../os/kernel/src/chsem.c\000"
 4102      2E2F6F73 
 4102      2F6B6572 
 4102      6E656C2F 
 4102      7372632F 
 4103              	.LASF83:
 4104 00b6 474E5520 		.ascii	"GNU C 4.7.4 20130913 (release) [ARM/embedded-4_7-br"
 4104      4320342E 
 4104      372E3420 
 4104      32303133 
 4104      30393133 
 4105 00e9 616E6368 		.ascii	"anch revision 202601]\000"
 4105      20726576 
 4105      6973696F 
 4105      6E203230 
 4105      32363031 
ARM GAS  C:\Users\jenny\AppData\Local\Temp\ccbhbpyh.s 			page 74


 4106              	.LASF7:
 4107 00ff 6C6F6E67 		.ascii	"long int\000"
 4107      20696E74 
 4107      00
 4108              	.LASF14:
 4109 0108 74737461 		.ascii	"tstate_t\000"
 4109      74655F74 
 4109      00
 4110              	.LASF27:
 4111 0111 705F6E65 		.ascii	"p_newer\000"
 4111      77657200 
 4112              	.LASF56:
 4113 0119 735F7175 		.ascii	"s_queue\000"
 4113      65756500 
 4114              	.LASF63:
 4115 0121 65786974 		.ascii	"exitcode\000"
 4115      636F6465 
 4115      00
 4116              	.LASF88:
 4117 012a 63685363 		.ascii	"chSchRescheduleS\000"
 4117      68526573 
 4117      63686564 
 4117      756C6553 
 4117      00
 4118              	.LASF51:
 4119 013b 725F6E65 		.ascii	"r_newer\000"
 4119      77657200 
 4120              	.LASF44:
 4121 0143 72656761 		.ascii	"regarm_t\000"
 4121      726D5F74 
 4121      00
 4122              	.LASF21:
 4123 014c 636E745F 		.ascii	"cnt_t\000"
 4123      7400
 4124              	.LASF0:
 4125 0152 756E7369 		.ascii	"unsigned int\000"
 4125      676E6564 
 4125      20696E74 
 4125      00
 4126              	.LASF76:
 4127 015f 63685365 		.ascii	"chSemWaitTimeout\000"
 4127      6D576169 
 4127      7454696D 
 4127      656F7574 
 4127      00
 4128              	.LASF9:
 4129 0170 6C6F6E67 		.ascii	"long unsigned int\000"
 4129      20756E73 
 4129      69676E65 
 4129      6420696E 
 4129      7400
 4130              	.LASF77:
 4131 0182 63685365 		.ascii	"chSemSignal\000"
 4131      6D536967 
 4131      6E616C00 
 4132              	.LASF57:
 4133 018e 735F636E 		.ascii	"s_cnt\000"
ARM GAS  C:\Users\jenny\AppData\Local\Temp\ccbhbpyh.s 			page 75


 4133      7400
 4134              	.LASF46:
 4135 0194 636F6E74 		.ascii	"context\000"
 4135      65787400 
 4136              	.LASF4:
 4137 019c 73686F72 		.ascii	"short unsigned int\000"
 4137      7420756E 
 4137      7369676E 
 4137      65642069 
 4137      6E7400
 4138              	.LASF71:
 4139 01af 63685365 		.ascii	"chSemReset\000"
 4139      6D526573 
 4139      657400
 4140              	.LASF18:
 4141 01ba 6D73675F 		.ascii	"msg_t\000"
 4141      7400
 4142              	.LASF13:
 4143 01c0 746D6F64 		.ascii	"tmode_t\000"
 4143      655F7400 
 4144              	.LASF43:
 4145 01c8 54687265 		.ascii	"ThreadsList\000"
 4145      6164734C 
 4145      69737400 
 4146              	.LASF19:
 4147 01d4 6576656E 		.ascii	"eventmask_t\000"
 4147      746D6173 
 4147      6B5F7400 
 4148              	.LASF58:
 4149 01e0 4D757465 		.ascii	"Mutex\000"
 4149      7800
 4150              	.LASF47:
 4151 01e6 73697A65 		.ascii	"sizetype\000"
 4151      74797065 
 4151      00
 4152              	.LASF28:
 4153 01ef 705F6F6C 		.ascii	"p_older\000"
 4153      64657200 
 4154              	.LASF50:
 4155 01f7 725F6374 		.ascii	"r_ctx\000"
 4155      7800
 4156              	.LASF42:
 4157 01fd 54687265 		.ascii	"ThreadsQueue\000"
 4157      61647351 
 4157      75657565 
 4157      00
 4158              	.LASF75:
 4159 020a 74696D65 		.ascii	"time\000"
 4159      00
 4160              	.LASF53:
 4161 020f 725F6375 		.ascii	"r_current\000"
 4161      7272656E 
 4161      7400
 4162              	.LASF52:
 4163 0219 725F6F6C 		.ascii	"r_older\000"
 4163      64657200 
 4164              	.LASF15:
ARM GAS  C:\Users\jenny\AppData\Local\Temp\ccbhbpyh.s 			page 76


 4165 0221 74726566 		.ascii	"trefs_t\000"
 4165      735F7400 
 4166              	.LASF24:
 4167 0229 705F7072 		.ascii	"p_prev\000"
 4167      657600
 4168              	.LASF17:
 4169 0230 74707269 		.ascii	"tprio_t\000"
 4169      6F5F7400 
 4170              	.LASF12:
 4171 0238 5F426F6F 		.ascii	"_Bool\000"
 4171      6C00
 4172              	.LASF6:
 4173 023e 696E7433 		.ascii	"int32_t\000"
 4173      325F7400 
 4174              	.LASF2:
 4175 0246 756E7369 		.ascii	"unsigned char\000"
 4175      676E6564 
 4175      20636861 
 4175      7200
 4176              	.LASF39:
 4177 0254 705F6D74 		.ascii	"p_mtxlist\000"
 4177      786C6973 
 4177      7400
 4178              	.LASF3:
 4179 025e 73686F72 		.ascii	"short int\000"
 4179      7420696E 
 4179      7400
 4180              	.LASF30:
 4181 0268 705F7374 		.ascii	"p_state\000"
 4181      61746500 
 4182              	.LASF33:
 4183 0270 705F7072 		.ascii	"p_preempt\000"
 4183      65656D70 
 4183      7400
 4184              	.LASF49:
 4185 027a 725F7072 		.ascii	"r_prio\000"
 4185      696F00
 4186              	.LASF65:
 4187 0281 65776D61 		.ascii	"ewmask\000"
 4187      736B00
 4188              	.LASF23:
 4189 0288 705F6E65 		.ascii	"p_next\000"
 4189      787400
 4190              	.LASF31:
 4191 028f 705F666C 		.ascii	"p_flags\000"
 4191      61677300 
 4192              	.LASF72:
 4193 0297 63685365 		.ascii	"chSemWaitS\000"
 4193      6D576169 
 4193      745300
 4194              	.LASF22:
 4195 02a2 54687265 		.ascii	"Thread\000"
 4195      616400
 4196              	.LASF89:
 4197 02a9 63685363 		.ascii	"chSchGoSleepS\000"
 4197      68476F53 
 4197      6C656570 
ARM GAS  C:\Users\jenny\AppData\Local\Temp\ccbhbpyh.s 			page 77


 4197      5300
 4198              	.LASF38:
 4199 02b7 705F6570 		.ascii	"p_epending\000"
 4199      656E6469 
 4199      6E6700
 4200              	.LASF8:
 4201 02c2 75696E74 		.ascii	"uint32_t\000"
 4201      33325F74 
 4201      00
 4202              	.LASF48:
 4203 02cb 725F7175 		.ascii	"r_queue\000"
 4203      65756500 
 4204              	.LASF66:
 4205 02d3 63686172 		.ascii	"char\000"
 4205      00
 4206              	.LASF68:
 4207 02d8 6669666F 		.ascii	"fifo_remove\000"
 4207      5F72656D 
 4207      6F766500 
 4208              	.LASF74:
 4209 02e4 63685365 		.ascii	"chSemWaitTimeoutS\000"
 4209      6D576169 
 4209      7454696D 
 4209      656F7574 
 4209      5300
 4210              	.LASF81:
 4211 02f6 63685363 		.ascii	"chSchReadyI\000"
 4211      68526561 
 4211      64794900 
 4212              	.LASF61:
 4213 0302 6D5F6E65 		.ascii	"m_next\000"
 4213      787400
 4214              	.LASF20:
 4215 0309 73797374 		.ascii	"systime_t\000"
 4215      696D655F 
 4215      7400
 4216              	.LASF40:
 4217 0313 705F7265 		.ascii	"p_realprio\000"
 4217      616C7072 
 4217      696F00
 4218              	.LASF73:
 4219 031e 63685365 		.ascii	"chSemWait\000"
 4219      6D576169 
 4219      7400
 4220              	.LASF34:
 4221 0328 705F7469 		.ascii	"p_time\000"
 4221      6D6500
 4222              	.LASF67:
 4223 032f 6C69666F 		.ascii	"lifo_remove\000"
 4223      5F72656D 
 4223      6F766500 
 4224              	.LASF45:
 4225 033b 696E7463 		.ascii	"intctx\000"
 4225      747800
 4226              	.LASF36:
 4227 0342 705F6D73 		.ascii	"p_msgqueue\000"
 4227      67717565 
ARM GAS  C:\Users\jenny\AppData\Local\Temp\ccbhbpyh.s 			page 78


 4227      756500
 4228              	.LASF90:
 4229 034d 63685363 		.ascii	"chSchWakeupS\000"
 4229      6857616B 
 4229      65757053 
 4229      00
 4230              	.LASF55:
 4231 035a 53656D61 		.ascii	"Semaphore\000"
 4231      70686F72 
 4231      6500
 4232              	.LASF32:
 4233 0364 705F7265 		.ascii	"p_refs\000"
 4233      667300
 4234              	.LASF54:
 4235 036b 52656164 		.ascii	"ReadyList\000"
 4235      794C6973 
 4235      7400
 4236              	.LASF70:
 4237 0375 63685365 		.ascii	"chSemResetI\000"
 4237      6D526573 
 4237      65744900 
 4238              	.LASF87:
 4239 0381 726C6973 		.ascii	"rlist\000"
 4239      7400
 4240              	.LASF5:
 4241 0387 75696E74 		.ascii	"uint8_t\000"
 4241      385F7400 
 4242              	.LASF85:
 4243 038f 443A5C6A 		.ascii	"D:\\jenny\\dev\\probe\\chibios\\chibios.workspace\\"
 4243      656E6E79 
 4243      5C646576 
 4243      5C70726F 
 4243      62655C63 
 4244 03bc 64656D6F 		.ascii	"demos\\ARMCM4-STM32F407-LWIP-FATFS-USB\000"
 4244      735C4152 
 4244      4D434D34 
 4244      2D53544D 
 4244      33324634 
 4245              	.LASF64:
 4246 03e2 77746F62 		.ascii	"wtobjp\000"
 4246      6A7000
 4247              	.LASF29:
 4248 03e9 705F6E61 		.ascii	"p_name\000"
 4248      6D6500
 4249              	.LASF82:
 4250 03f0 63685363 		.ascii	"chSchGoSleepTimeoutS\000"
 4250      68476F53 
 4250      6C656570 
 4250      54696D65 
 4250      6F757453 
 4251              	.LASF60:
 4252 0405 6D5F6F77 		.ascii	"m_owner\000"
 4252      6E657200 
 4253              	.LASF26:
 4254 040d 705F6374 		.ascii	"p_ctx\000"
 4254      7800
 4255              	.LASF35:
ARM GAS  C:\Users\jenny\AppData\Local\Temp\ccbhbpyh.s 			page 79


 4256 0413 705F7761 		.ascii	"p_waiting\000"
 4256      6974696E 
 4256      6700
 4257              	.LASF69:
 4258 041d 63685365 		.ascii	"chSemInit\000"
 4258      6D496E69 
 4258      7400
 4259              		.ident	"GCC: (GNU Tools for ARM Embedded Processors) 4.7.4 20130913 (release) [ARM/embedded-4_7-br
ARM GAS  C:\Users\jenny\AppData\Local\Temp\ccbhbpyh.s 			page 80


DEFINED SYMBOLS
                            *ABS*:00000000 chsem.c
C:\Users\jenny\AppData\Local\Temp\ccbhbpyh.s:20     .text.chSemInit:00000000 $t
C:\Users\jenny\AppData\Local\Temp\ccbhbpyh.s:26     .text.chSemInit:00000000 chSemInit
C:\Users\jenny\AppData\Local\Temp\ccbhbpyh.s:45     .text.chSemResetI:00000000 $t
C:\Users\jenny\AppData\Local\Temp\ccbhbpyh.s:51     .text.chSemResetI:00000000 chSemResetI
C:\Users\jenny\AppData\Local\Temp\ccbhbpyh.s:173    .text.chSemReset:00000000 $t
C:\Users\jenny\AppData\Local\Temp\ccbhbpyh.s:179    .text.chSemReset:00000000 chSemReset
C:\Users\jenny\AppData\Local\Temp\ccbhbpyh.s:222    .text.chSemWaitS:00000000 $t
C:\Users\jenny\AppData\Local\Temp\ccbhbpyh.s:228    .text.chSemWaitS:00000000 chSemWaitS
C:\Users\jenny\AppData\Local\Temp\ccbhbpyh.s:291    .text.chSemWaitS:00000030 $d
C:\Users\jenny\AppData\Local\Temp\ccbhbpyh.s:296    .text.chSemWait:00000000 $t
C:\Users\jenny\AppData\Local\Temp\ccbhbpyh.s:302    .text.chSemWait:00000000 chSemWait
C:\Users\jenny\AppData\Local\Temp\ccbhbpyh.s:343    .text.chSemWaitTimeoutS:00000000 $t
C:\Users\jenny\AppData\Local\Temp\ccbhbpyh.s:349    .text.chSemWaitTimeoutS:00000000 chSemWaitTimeoutS
C:\Users\jenny\AppData\Local\Temp\ccbhbpyh.s:419    .text.chSemWaitTimeoutS:00000038 $d
C:\Users\jenny\AppData\Local\Temp\ccbhbpyh.s:424    .text.chSemWaitTimeout:00000000 $t
C:\Users\jenny\AppData\Local\Temp\ccbhbpyh.s:430    .text.chSemWaitTimeout:00000000 chSemWaitTimeout
C:\Users\jenny\AppData\Local\Temp\ccbhbpyh.s:471    .text.chSemSignal:00000000 $t
C:\Users\jenny\AppData\Local\Temp\ccbhbpyh.s:477    .text.chSemSignal:00000000 chSemSignal
C:\Users\jenny\AppData\Local\Temp\ccbhbpyh.s:550    .text.chSemSignalI:00000000 $t
C:\Users\jenny\AppData\Local\Temp\ccbhbpyh.s:556    .text.chSemSignalI:00000000 chSemSignalI
C:\Users\jenny\AppData\Local\Temp\ccbhbpyh.s:611    .text.chSemAddCounterI:00000000 $t
C:\Users\jenny\AppData\Local\Temp\ccbhbpyh.s:617    .text.chSemAddCounterI:00000000 chSemAddCounterI
C:\Users\jenny\AppData\Local\Temp\ccbhbpyh.s:781    .text.chSemSignalWait:00000000 $t
C:\Users\jenny\AppData\Local\Temp\ccbhbpyh.s:787    .text.chSemSignalWait:00000000 chSemSignalWait
C:\Users\jenny\AppData\Local\Temp\ccbhbpyh.s:908    .text.chSemSignalWait:00000060 $d
                     .debug_frame:00000010 $d
C:\Users\jenny\AppData\Local\Temp\ccbhbpyh.s:295    .text.chSemWaitS:00000034 $t
C:\Users\jenny\AppData\Local\Temp\ccbhbpyh.s:423    .text.chSemWaitTimeoutS:0000003c $t
C:\Users\jenny\AppData\Local\Temp\ccbhbpyh.s:912    .text.chSemSignalWait:00000064 $t

UNDEFINED SYMBOLS
chSchReadyI
chSchRescheduleS
chSchGoSleepS
rlist
chSchGoSleepTimeoutS
chSchWakeupS
