ARM GAS  C:\Users\jenny\AppData\Local\Temp\ccbhbpyh.s 			page 1


   1              		.syntax unified
   2              		.cpu cortex-m4
   3              		.eabi_attribute 27, 3
   4              		.fpu fpv4-sp-d16
   5              		.eabi_attribute 20, 1
   6              		.eabi_attribute 21, 1
   7              		.eabi_attribute 23, 3
   8              		.eabi_attribute 24, 1
   9              		.eabi_attribute 25, 1
  10              		.eabi_attribute 26, 1
  11              		.eabi_attribute 30, 2
  12              		.eabi_attribute 34, 1
  13              		.eabi_attribute 18, 4
  14              		.thumb
  15              		.file	"chsem.c"
  16              		.text
  17              	.Ltext0:
  18              		.cfi_sections	.debug_frame
  19              		.section	.text.chSemInit,"ax",%progbits
  20              		.align	2
  21              		.p2align 4,,15
  22              		.global	chSemInit
  23              		.thumb
  24              		.thumb_func
  25              		.type	chSemInit, %function
  26              	chSemInit:
  27              	.LFB7:
  28              		.file 1 "../../os/kernel/src/chsem.c"
  29              		.loc 1 86 0
  30              		.cfi_startproc
  31              		@ args = 0, pretend = 0, frame = 0
  32              		@ frame_needed = 0, uses_anonymous_args = 0
  33              		@ link register save eliminated.
  34              	.LVL0:
  35              		.loc 1 90 0
  36 0000 4060     		str	r0, [r0, #4]
  37 0002 0060     		str	r0, [r0, #0]
  38              		.loc 1 91 0
  39 0004 8160     		str	r1, [r0, #8]
  40 0006 7047     		bx	lr
  41              		.cfi_endproc
  42              	.LFE7:
  43              		.size	chSemInit, .-chSemInit
  44 0008 AFF30080 		.section	.text.chSemResetI,"ax",%progbits
  44      AFF30080 
  45              		.align	2
  46              		.p2align 4,,15
  47              		.global	chSemResetI
  48              		.thumb
  49              		.thumb_func
  50              		.type	chSemResetI, %function
  51              	chSemResetI:
  52              	.LFB9:
  53              		.loc 1 136 0
  54              		.cfi_startproc
  55              		@ args = 0, pretend = 0, frame = 0
  56              		@ frame_needed = 0, uses_anonymous_args = 0
ARM GAS  C:\Users\jenny\AppData\Local\Temp\ccbhbpyh.s 			page 2


  57              	.LVL1:
  58 0000 F8B5     		push	{r3, r4, r5, r6, r7, lr}
  59              	.LCFI0:
  60              		.cfi_def_cfa_offset 24
  61              		.cfi_offset 3, -24
  62              		.cfi_offset 4, -20
  63              		.cfi_offset 5, -16
  64              		.cfi_offset 6, -12
  65              		.cfi_offset 7, -8
  66              		.cfi_offset 14, -4
  67              		.loc 1 141 0
  68 0002 8768     		ldr	r7, [r0, #8]
  69              	.LVL2:
  70              		.loc 1 147 0
  71 0004 8160     		str	r1, [r0, #8]
  72              		.loc 1 148 0
  73 0006 0137     		adds	r7, r7, #1
  74              	.LVL3:
  75 0008 002F     		cmp	r7, #0
  76              		.loc 1 136 0
  77 000a 0446     		mov	r4, r0
  78              		.loc 1 148 0
  79 000c 29DC     		bgt	.L2
  80              	.LBB24:
  81              	.LBB25:
  82              		.file 2 "../../os/kernel/include/chinline.h"
  83              		.loc 2 67 0
  84 000e 4068     		ldr	r0, [r0, #4]
  85              	.LVL4:
  86              		.loc 2 69 0
  87 0010 4368     		ldr	r3, [r0, #4]
  88 0012 6360     		str	r3, [r4, #4]
  89 0014 1C60     		str	r4, [r3, #0]
  90              	.LBE25:
  91              	.LBE24:
  92              		.loc 1 149 0
  93 0016 FFF7FEFF 		bl	chSchReadyI
  94              	.LVL5:
  95 001a 6FF00106 		mvn	r6, #1
  96 001e 07F00101 		and	r1, r7, #1
  97              	.LVL6:
  98 0022 4662     		str	r6, [r0, #36]
  99              		.loc 1 148 0
 100 0024 7D1C     		adds	r5, r7, #1
 101 0026 EFB1     		cbz	r7, .L15
 102 0028 49B1     		cbz	r1, .L6
 103              	.LBB29:
 104              	.LBB26:
 105              		.loc 2 67 0
 106 002a 6068     		ldr	r0, [r4, #4]
 107              		.loc 2 69 0
 108 002c 4268     		ldr	r2, [r0, #4]
 109 002e 6260     		str	r2, [r4, #4]
 110 0030 1460     		str	r4, [r2, #0]
 111              	.LBE26:
 112              	.LBE29:
 113              		.loc 1 149 0
ARM GAS  C:\Users\jenny\AppData\Local\Temp\ccbhbpyh.s 			page 3


 114 0032 FFF7FEFF 		bl	chSchReadyI
 115              	.LVL7:
 116              		.loc 1 148 0
 117 0036 0135     		adds	r5, r5, #1
 118 0038 012D     		cmp	r5, #1
 119              		.loc 1 149 0
 120 003a 4662     		str	r6, [r0, #36]
 121              	.LVL8:
 122              		.loc 1 148 0
 123 003c 13D0     		beq	.L16
 124              	.L6:
 125              	.LBB30:
 126              	.LBB27:
 127              		.loc 2 67 0
 128 003e 6068     		ldr	r0, [r4, #4]
 129              		.loc 2 69 0
 130 0040 4368     		ldr	r3, [r0, #4]
 131 0042 6360     		str	r3, [r4, #4]
 132 0044 1C60     		str	r4, [r3, #0]
 133              	.LBE27:
 134              	.LBE30:
 135              		.loc 1 149 0
 136 0046 FFF7FEFF 		bl	chSchReadyI
 137              	.LVL9:
 138 004a 4662     		str	r6, [r0, #36]
 139              	.LBB31:
 140              	.LBB28:
 141              		.loc 2 67 0
 142 004c 6068     		ldr	r0, [r4, #4]
 143              		.loc 2 69 0
 144 004e 4168     		ldr	r1, [r0, #4]
 145 0050 6160     		str	r1, [r4, #4]
 146 0052 0C60     		str	r4, [r1, #0]
 147              	.LBE28:
 148              	.LBE31:
 149              		.loc 1 149 0
 150 0054 FFF7FEFF 		bl	chSchReadyI
 151              	.LVL10:
 152              		.loc 1 148 0
 153 0058 6A1C     		adds	r2, r5, #1
 154              		.loc 1 149 0
 155 005a 4662     		str	r6, [r0, #36]
 156              		.loc 1 148 0
 157 005c 0235     		adds	r5, r5, #2
 158 005e 002A     		cmp	r2, #0
 159 0060 EDD1     		bne	.L6
 160              	.LVL11:
 161              	.L2:
 162 0062 F8BD     		pop	{r3, r4, r5, r6, r7, pc}
 163              	.LVL12:
 164              	.L15:
 165 0064 F8BD     		pop	{r3, r4, r5, r6, r7, pc}
 166              	.LVL13:
 167              	.L16:
 168 0066 F8BD     		pop	{r3, r4, r5, r6, r7, pc}
 169              		.cfi_endproc
 170              	.LFE9:
ARM GAS  C:\Users\jenny\AppData\Local\Temp\ccbhbpyh.s 			page 4


 171              		.size	chSemResetI, .-chSemResetI
 172 0068 AFF30080 		.section	.text.chSemReset,"ax",%progbits
 172      AFF30080 
 173              		.align	2
 174              		.p2align 4,,15
 175              		.global	chSemReset
 176              		.thumb
 177              		.thumb_func
 178              		.type	chSemReset, %function
 179              	chSemReset:
 180              	.LFB8:
 181              		.loc 1 109 0
 182              		.cfi_startproc
 183              		@ args = 0, pretend = 0, frame = 0
 184              		@ frame_needed = 0, uses_anonymous_args = 0
 185              	.LVL14:
 186 0000 08B5     		push	{r3, lr}
 187              	.LCFI1:
 188              		.cfi_def_cfa_offset 8
 189              		.cfi_offset 3, -8
 190              		.cfi_offset 14, -4
 191              	.LBB32:
 192              		.loc 1 111 0
 193 0002 2023     		movs	r3, #32
 194              	.LVL15:
 195              	@ 111 "../../os/kernel/src/chsem.c" 1
 196 0004 83F31188 		msr     BASEPRI, r3
 197              	@ 0 "" 2
 198              	.LVL16:
 199              		.thumb
 200              	.LBE32:
 201              		.loc 1 112 0
 202 0008 FFF7FEFF 		bl	chSemResetI
 203              	.LVL17:
 204              		.loc 1 113 0
 205 000c FFF7FEFF 		bl	chSchRescheduleS
 206              	.LVL18:
 207              	.LBB33:
 208              		.loc 1 114 0
 209 0010 0023     		movs	r3, #0
 210              	.LVL19:
 211              	@ 114 "../../os/kernel/src/chsem.c" 1
 212 0012 83F31188 		msr     BASEPRI, r3
 213              	@ 0 "" 2
 214              	.LVL20:
 215              		.thumb
 216 0016 08BD     		pop	{r3, pc}
 217              	.LBE33:
 218              		.cfi_endproc
 219              	.LFE8:
 220              		.size	chSemReset, .-chSemReset
 221 0018 AFF30080 		.section	.text.chSemWaitS,"ax",%progbits
 221      AFF30080 
 222              		.align	2
 223              		.p2align 4,,15
 224              		.global	chSemWaitS
 225              		.thumb
ARM GAS  C:\Users\jenny\AppData\Local\Temp\ccbhbpyh.s 			page 5


 226              		.thumb_func
 227              		.type	chSemWaitS, %function
 228              	chSemWaitS:
 229              	.LFB11:
 230              		.loc 1 185 0
 231              		.cfi_startproc
 232              		@ args = 0, pretend = 0, frame = 0
 233              		@ frame_needed = 0, uses_anonymous_args = 0
 234              	.LVL21:
 235              		.loc 1 194 0
 236 0000 8268     		ldr	r2, [r0, #8]
 237              		.loc 1 185 0
 238 0002 0346     		mov	r3, r0
 239              		.loc 1 194 0
 240 0004 501E     		subs	r0, r2, #1
 241              	.LVL22:
 242 0006 0028     		cmp	r0, #0
 243              		.loc 1 185 0
 244 0008 10B5     		push	{r4, lr}
 245              	.LCFI2:
 246              		.cfi_def_cfa_offset 8
 247              		.cfi_offset 4, -8
 248              		.cfi_offset 14, -4
 249              		.loc 1 194 0
 250 000a 9860     		str	r0, [r3, #8]
 251 000c 01DB     		blt	.L21
 252              		.loc 1 200 0
 253 000e 0020     		movs	r0, #0
 254              		.loc 1 201 0
 255 0010 10BD     		pop	{r4, pc}
 256              	.L21:
 257              		.loc 1 195 0
 258 0012 074C     		ldr	r4, .L22
 259 0014 A269     		ldr	r2, [r4, #24]
 260 0016 5362     		str	r3, [r2, #36]
 261              	.LVL23:
 262              	.LBB34:
 263              	.LBB35:
 264              		.loc 2 55 0
 265 0018 5968     		ldr	r1, [r3, #4]
 266              		.loc 2 54 0
 267 001a 1360     		str	r3, [r2, #0]
 268              		.loc 2 55 0
 269 001c 5160     		str	r1, [r2, #4]
 270              	.LBE35:
 271              	.LBE34:
 272              		.loc 1 197 0
 273 001e 0320     		movs	r0, #3
 274              	.LBB37:
 275              	.LBB36:
 276              		.loc 2 56 0
 277 0020 5A60     		str	r2, [r3, #4]
 278 0022 0A60     		str	r2, [r1, #0]
 279              	.LBE36:
 280              	.LBE37:
 281              		.loc 1 197 0
 282 0024 FFF7FEFF 		bl	chSchGoSleepS
ARM GAS  C:\Users\jenny\AppData\Local\Temp\ccbhbpyh.s 			page 6


 283              	.LVL24:
 284              		.loc 1 198 0
 285 0028 A369     		ldr	r3, [r4, #24]
 286 002a 586A     		ldr	r0, [r3, #36]
 287 002c 10BD     		pop	{r4, pc}
 288              	.L23:
 289 002e 00BF     		.align	2
 290              	.L22:
 291 0030 00000000 		.word	rlist
 292              		.cfi_endproc
 293              	.LFE11:
 294              		.size	chSemWaitS, .-chSemWaitS
 295 0034 AFF30080 		.section	.text.chSemWait,"ax",%progbits
 295      AFF30080 
 295      AFF30080 
 296              		.align	2
 297              		.p2align 4,,15
 298              		.global	chSemWait
 299              		.thumb
 300              		.thumb_func
 301              		.type	chSemWait, %function
 302              	chSemWait:
 303              	.LFB10:
 304              		.loc 1 164 0
 305              		.cfi_startproc
 306              		@ args = 0, pretend = 0, frame = 0
 307              		@ frame_needed = 0, uses_anonymous_args = 0
 308              	.LVL25:
 309 0000 08B5     		push	{r3, lr}
 310              	.LCFI3:
 311              		.cfi_def_cfa_offset 8
 312              		.cfi_offset 3, -8
 313              		.cfi_offset 14, -4
 314              	.LBB38:
 315              		.loc 1 167 0
 316 0002 2023     		movs	r3, #32
 317              	.LVL26:
 318              	@ 167 "../../os/kernel/src/chsem.c" 1
 319 0004 83F31188 		msr     BASEPRI, r3
 320              	@ 0 "" 2
 321              	.LVL27:
 322              		.thumb
 323              	.LBE38:
 324              		.loc 1 168 0
 325 0008 FFF7FEFF 		bl	chSemWaitS
 326              	.LVL28:
 327              	.LBB39:
 328              		.loc 1 169 0
 329 000c 0023     		movs	r3, #0
 330              	.LVL29:
 331              	@ 169 "../../os/kernel/src/chsem.c" 1
 332 000e 83F31188 		msr     BASEPRI, r3
 333              	@ 0 "" 2
 334              	.LVL30:
 335              		.thumb
 336              	.LBE39:
 337              		.loc 1 171 0
ARM GAS  C:\Users\jenny\AppData\Local\Temp\ccbhbpyh.s 			page 7


 338 0012 08BD     		pop	{r3, pc}
 339              		.cfi_endproc
 340              	.LFE10:
 341              		.size	chSemWait, .-chSemWait
 342 0014 AFF30080 		.section	.text.chSemWaitTimeoutS,"ax",%progbits
 342      AFF30080 
 342      AFF30080 
 343              		.align	2
 344              		.p2align 4,,15
 345              		.global	chSemWaitTimeoutS
 346              		.thumb
 347              		.thumb_func
 348              		.type	chSemWaitTimeoutS, %function
 349              	chSemWaitTimeoutS:
 350              	.LFB13:
 351              		.loc 1 250 0
 352              		.cfi_startproc
 353              		@ args = 0, pretend = 0, frame = 0
 354              		@ frame_needed = 0, uses_anonymous_args = 0
 355              		@ link register save eliminated.
 356              	.LVL31:
 357 0000 0346     		mov	r3, r0
 358              		.loc 1 254 0
 359 0002 8068     		ldr	r0, [r0, #8]
 360              	.LVL32:
 361              		.loc 1 259 0
 362 0004 421E     		subs	r2, r0, #1
 363 0006 002A     		cmp	r2, #0
 364              		.loc 1 250 0
 365 0008 10B4     		push	{r4}
 366              	.LCFI4:
 367              		.cfi_def_cfa_offset 4
 368              		.cfi_offset 4, -4
 369              		.loc 1 250 0
 370 000a 0C46     		mov	r4, r1
 371              		.loc 1 259 0
 372 000c 9A60     		str	r2, [r3, #8]
 373 000e 02DB     		blt	.L29
 374              		.loc 1 268 0
 375 0010 0020     		movs	r0, #0
 376              	.L26:
 377              		.loc 1 269 0
 378 0012 10BC     		pop	{r4}
 379 0014 7047     		bx	lr
 380              	.L29:
 381              		.loc 1 260 0
 382 0016 59B1     		cbz	r1, .L30
 383              		.loc 1 264 0
 384 0018 074C     		ldr	r4, .L31
 385 001a A269     		ldr	r2, [r4, #24]
 386 001c 5362     		str	r3, [r2, #36]
 387              	.LVL33:
 388              	.LBB40:
 389              	.LBB41:
 390              		.loc 2 55 0
 391 001e 5C68     		ldr	r4, [r3, #4]
 392              	.LBE41:
ARM GAS  C:\Users\jenny\AppData\Local\Temp\ccbhbpyh.s 			page 8


 393              	.LBE40:
 394              		.loc 1 266 0
 395 0020 0320     		movs	r0, #3
 396              	.LBB43:
 397              	.LBB42:
 398              		.loc 2 55 0
 399 0022 82E81800 		stmia	r2, {r3, r4}
 400              		.loc 2 56 0
 401 0026 5A60     		str	r2, [r3, #4]
 402 0028 2260     		str	r2, [r4, #0]
 403              	.LBE42:
 404              	.LBE43:
 405              		.loc 1 269 0
 406 002a 10BC     		pop	{r4}
 407              		.loc 1 266 0
 408 002c FFF7FEBF 		b	chSchGoSleepTimeoutS
 409              	.LVL34:
 410              	.L30:
 411              		.loc 1 261 0
 412 0030 9860     		str	r0, [r3, #8]
 413              		.loc 1 262 0
 414 0032 4FF0FF30 		mov	r0, #-1
 415 0036 ECE7     		b	.L26
 416              	.L32:
 417              		.align	2
 418              	.L31:
 419 0038 00000000 		.word	rlist
 420              		.cfi_endproc
 421              	.LFE13:
 422              		.size	chSemWaitTimeoutS, .-chSemWaitTimeoutS
 423 003c AFF30080 		.section	.text.chSemWaitTimeout,"ax",%progbits
 424              		.align	2
 425              		.p2align 4,,15
 426              		.global	chSemWaitTimeout
 427              		.thumb
 428              		.thumb_func
 429              		.type	chSemWaitTimeout, %function
 430              	chSemWaitTimeout:
 431              	.LFB12:
 432              		.loc 1 222 0
 433              		.cfi_startproc
 434              		@ args = 0, pretend = 0, frame = 0
 435              		@ frame_needed = 0, uses_anonymous_args = 0
 436              	.LVL35:
 437 0000 08B5     		push	{r3, lr}
 438              	.LCFI5:
 439              		.cfi_def_cfa_offset 8
 440              		.cfi_offset 3, -8
 441              		.cfi_offset 14, -4
 442              	.LBB44:
 443              		.loc 1 225 0
 444 0002 2023     		movs	r3, #32
 445              	.LVL36:
 446              	@ 225 "../../os/kernel/src/chsem.c" 1
 447 0004 83F31188 		msr     BASEPRI, r3
 448              	@ 0 "" 2
 449              	.LVL37:
ARM GAS  C:\Users\jenny\AppData\Local\Temp\ccbhbpyh.s 			page 9


 450              		.thumb
 451              	.LBE44:
 452              		.loc 1 226 0
 453 0008 FFF7FEFF 		bl	chSemWaitTimeoutS
 454              	.LVL38:
 455              	.LBB45:
 456              		.loc 1 227 0
 457 000c 0023     		movs	r3, #0
 458              	.LVL39:
 459              	@ 227 "../../os/kernel/src/chsem.c" 1
 460 000e 83F31188 		msr     BASEPRI, r3
 461              	@ 0 "" 2
 462              	.LVL40:
 463              		.thumb
 464              	.LBE45:
 465              		.loc 1 229 0
 466 0012 08BD     		pop	{r3, pc}
 467              		.cfi_endproc
 468              	.LFE12:
 469              		.size	chSemWaitTimeout, .-chSemWaitTimeout
 470 0014 AFF30080 		.section	.text.chSemSignal,"ax",%progbits
 470      AFF30080 
 470      AFF30080 
 471              		.align	2
 472              		.p2align 4,,15
 473              		.global	chSemSignal
 474              		.thumb
 475              		.thumb_func
 476              		.type	chSemSignal, %function
 477              	chSemSignal:
 478              	.LFB14:
 479              		.loc 1 278 0
 480              		.cfi_startproc
 481              		@ args = 0, pretend = 0, frame = 0
 482              		@ frame_needed = 0, uses_anonymous_args = 0
 483              	.LVL41:
 484 0000 08B5     		push	{r3, lr}
 485              	.LCFI6:
 486              		.cfi_def_cfa_offset 8
 487              		.cfi_offset 3, -8
 488              		.cfi_offset 14, -4
 489              		.loc 1 278 0
 490 0002 0246     		mov	r2, r0
 491              	.LBB46:
 492              		.loc 1 286 0
 493 0004 2023     		movs	r3, #32
 494              	.LVL42:
 495              	@ 286 "../../os/kernel/src/chsem.c" 1
 496 0006 83F31188 		msr     BASEPRI, r3
 497              	@ 0 "" 2
 498              	.LVL43:
 499              		.thumb
 500              	.LBE46:
 501              		.loc 1 287 0
 502 000a 8368     		ldr	r3, [r0, #8]
 503              	.LVL44:
 504 000c 581C     		adds	r0, r3, #1
ARM GAS  C:\Users\jenny\AppData\Local\Temp\ccbhbpyh.s 			page 10


 505              	.LVL45:
 506 000e 0028     		cmp	r0, #0
 507 0010 9060     		str	r0, [r2, #8]
 508 0012 03DD     		ble	.L36
 509              	.LVL46:
 510              	.L35:
 511              	.LBB47:
 512              		.loc 1 289 0
 513 0014 0023     		movs	r3, #0
 514              	.LVL47:
 515              	@ 289 "../../os/kernel/src/chsem.c" 1
 516 0016 83F31188 		msr     BASEPRI, r3
 517              	@ 0 "" 2
 518              	.LVL48:
 519              		.thumb
 520 001a 08BD     		pop	{r3, pc}
 521              	.LVL49:
 522              	.L36:
 523              	.LBE47:
 524              	.LBB48:
 525              	.LBB49:
 526              		.loc 2 60 0
 527 001c 1068     		ldr	r0, [r2, #0]
 528              	.LVL50:
 529              		.loc 2 62 0
 530 001e 0368     		ldr	r3, [r0, #0]
 531              	.LBE49:
 532              	.LBE48:
 533              		.loc 1 288 0
 534 0020 0021     		movs	r1, #0
 535              	.LBB51:
 536              	.LBB50:
 537              		.loc 2 62 0
 538 0022 1360     		str	r3, [r2, #0]
 539 0024 5A60     		str	r2, [r3, #4]
 540              	.LBE50:
 541              	.LBE51:
 542              		.loc 1 288 0
 543 0026 FFF7FEFF 		bl	chSchWakeupS
 544              	.LVL51:
 545 002a F3E7     		b	.L35
 546              		.cfi_endproc
 547              	.LFE14:
 548              		.size	chSemSignal, .-chSemSignal
 549 002c AFF30080 		.section	.text.chSemSignalI,"ax",%progbits
 550              		.align	2
 551              		.p2align 4,,15
 552              		.global	chSemSignalI
 553              		.thumb
 554              		.thumb_func
 555              		.type	chSemSignalI, %function
 556              	chSemSignalI:
 557              	.LFB15:
 558              		.loc 1 303 0
 559              		.cfi_startproc
 560              		@ args = 0, pretend = 0, frame = 0
 561              		@ frame_needed = 0, uses_anonymous_args = 0
ARM GAS  C:\Users\jenny\AppData\Local\Temp\ccbhbpyh.s 			page 11


 562              		@ link register save eliminated.
 563              	.LVL52:
 564              		.loc 1 312 0
 565 0000 8268     		ldr	r2, [r0, #8]
 566              		.loc 1 303 0
 567 0002 0346     		mov	r3, r0
 568              		.loc 1 312 0
 569 0004 501C     		adds	r0, r2, #1
 570              	.LVL53:
 571 0006 0028     		cmp	r0, #0
 572 0008 9860     		str	r0, [r3, #8]
 573 000a 00DD     		ble	.L39
 574 000c 7047     		bx	lr
 575              	.L39:
 576              	.LVL54:
 577              	.LBB52:
 578              	.LBB53:
 579              	.LBB54:
 580              		.loc 2 60 0
 581 000e 1A68     		ldr	r2, [r3, #0]
 582              	.LVL55:
 583              		.loc 2 62 0
 584 0010 1168     		ldr	r1, [r2, #0]
 585              	.LBE54:
 586              	.LBE53:
 587              		.loc 1 317 0
 588 0012 1046     		mov	r0, r2
 589              	.LBB56:
 590              	.LBB55:
 591              		.loc 2 62 0
 592 0014 1960     		str	r1, [r3, #0]
 593 0016 4B60     		str	r3, [r1, #4]
 594              	.LBE55:
 595              	.LBE56:
 596              		.loc 1 316 0
 597 0018 0023     		movs	r3, #0
 598              	.LVL56:
 599 001a 5362     		str	r3, [r2, #36]
 600              	.LBE52:
 601              		.loc 1 319 0
 602              	.LBB57:
 603              		.loc 1 317 0
 604 001c FFF7FEBF 		b	chSchReadyI
 605              	.LVL57:
 606              	.LBE57:
 607              		.cfi_endproc
 608              	.LFE15:
 609              		.size	chSemSignalI, .-chSemSignalI
 610              		.section	.text.chSemAddCounterI,"ax",%progbits
 611              		.align	2
 612              		.p2align 4,,15
 613              		.global	chSemAddCounterI
 614              		.thumb
 615              		.thumb_func
 616              		.type	chSemAddCounterI, %function
 617              	chSemAddCounterI:
 618              	.LFB16:
ARM GAS  C:\Users\jenny\AppData\Local\Temp\ccbhbpyh.s 			page 12


 619              		.loc 1 334 0
 620              		.cfi_startproc
 621              		@ args = 0, pretend = 0, frame = 0
 622              		@ frame_needed = 0, uses_anonymous_args = 0
 623              	.LVL58:
 624 0000 F8B5     		push	{r3, r4, r5, r6, r7, lr}
 625              	.LCFI7:
 626              		.cfi_def_cfa_offset 24
 627              		.cfi_offset 3, -24
 628              		.cfi_offset 4, -20
 629              		.cfi_offset 5, -16
 630              		.cfi_offset 6, -12
 631              		.cfi_offset 7, -8
 632              		.cfi_offset 14, -4
 633              		.loc 1 343 0
 634 0002 0D1E     		subs	r5, r1, #0
 635              		.loc 1 334 0
 636 0004 0446     		mov	r4, r0
 637              		.loc 1 343 0
 638 0006 37DD     		ble	.L40
 639              		.loc 1 344 0
 640 0008 8368     		ldr	r3, [r0, #8]
 641              		.loc 1 345 0
 642 000a 0026     		movs	r6, #0
 643              		.loc 1 344 0
 644 000c 581C     		adds	r0, r3, #1
 645              	.LVL59:
 646 000e 6A1E     		subs	r2, r5, #1
 647 0010 B042     		cmp	r0, r6
 648 0012 A060     		str	r0, [r4, #8]
 649 0014 02F00107 		and	r7, r2, #1
 650 0018 2FDD     		ble	.L58
 651              	.LVL60:
 652              	.L47:
 653              		.loc 1 343 0
 654 001a 013D     		subs	r5, r5, #1
 655              	.LVL61:
 656 001c 2CD0     		beq	.L40
 657 001e 77B1     		cbz	r7, .L45
 658              		.loc 1 344 0
 659 0020 A368     		ldr	r3, [r4, #8]
 660 0022 5A1C     		adds	r2, r3, #1
 661 0024 002A     		cmp	r2, #0
 662 0026 A260     		str	r2, [r4, #8]
 663 0028 2FDD     		ble	.L59
 664              	.L49:
 665              	.LVL62:
 666              		.loc 1 343 0
 667 002a 013D     		subs	r5, r5, #1
 668 002c 07D1     		bne	.L45
 669 002e 34E0     		b	.L63
 670              	.L42:
 671              		.loc 1 344 0
 672 0030 A168     		ldr	r1, [r4, #8]
 673 0032 481C     		adds	r0, r1, #1
 674 0034 0028     		cmp	r0, #0
 675 0036 A060     		str	r0, [r4, #8]
ARM GAS  C:\Users\jenny\AppData\Local\Temp\ccbhbpyh.s 			page 13


 676 0038 14DD     		ble	.L61
 677              	.L52:
 678              		.loc 1 343 0
 679 003a 013D     		subs	r5, r5, #1
 680 003c 1BD0     		beq	.L62
 681              	.L45:
 682              		.loc 1 344 0
 683 003e A068     		ldr	r0, [r4, #8]
 684 0040 431C     		adds	r3, r0, #1
 685 0042 002B     		cmp	r3, #0
 686 0044 A360     		str	r3, [r4, #8]
 687              		.loc 1 346 0
 688 0046 05F1FF35 		add	r5, r5, #-1
 689              		.loc 1 344 0
 690 004a F1DC     		bgt	.L42
 691              	.LVL63:
 692              	.LBB58:
 693              	.LBB59:
 694              		.loc 2 60 0
 695 004c 2068     		ldr	r0, [r4, #0]
 696              	.LVL64:
 697              		.loc 2 62 0
 698 004e 0268     		ldr	r2, [r0, #0]
 699 0050 2260     		str	r2, [r4, #0]
 700 0052 5460     		str	r4, [r2, #4]
 701              	.LBE59:
 702              	.LBE58:
 703              		.loc 1 345 0
 704 0054 FFF7FEFF 		bl	chSchReadyI
 705              	.LVL65:
 706 0058 4662     		str	r6, [r0, #36]
 707              		.loc 1 344 0
 708 005a A168     		ldr	r1, [r4, #8]
 709 005c 481C     		adds	r0, r1, #1
 710 005e 0028     		cmp	r0, #0
 711 0060 A060     		str	r0, [r4, #8]
 712 0062 EADC     		bgt	.L52
 713              	.LVL66:
 714              	.L61:
 715              	.LBB63:
 716              	.LBB60:
 717              		.loc 2 60 0
 718 0064 2068     		ldr	r0, [r4, #0]
 719              		.loc 2 62 0
 720 0066 0368     		ldr	r3, [r0, #0]
 721 0068 2360     		str	r3, [r4, #0]
 722 006a 5C60     		str	r4, [r3, #4]
 723              	.LBE60:
 724              	.LBE63:
 725              		.loc 1 345 0
 726 006c FFF7FEFF 		bl	chSchReadyI
 727              	.LVL67:
 728              		.loc 1 343 0
 729 0070 013D     		subs	r5, r5, #1
 730              		.loc 1 345 0
 731 0072 4662     		str	r6, [r0, #36]
 732              		.loc 1 343 0
ARM GAS  C:\Users\jenny\AppData\Local\Temp\ccbhbpyh.s 			page 14


 733 0074 E3D1     		bne	.L45
 734              	.LVL68:
 735              	.L62:
 736 0076 F8BD     		pop	{r3, r4, r5, r6, r7, pc}
 737              	.L40:
 738 0078 F8BD     		pop	{r3, r4, r5, r6, r7, pc}
 739              	.LVL69:
 740              	.L58:
 741              	.LBB64:
 742              	.LBB61:
 743              		.loc 2 60 0
 744 007a 2068     		ldr	r0, [r4, #0]
 745              		.loc 2 62 0
 746 007c 0168     		ldr	r1, [r0, #0]
 747              	.LVL70:
 748 007e 2160     		str	r1, [r4, #0]
 749 0080 4C60     		str	r4, [r1, #4]
 750              	.LBE61:
 751              	.LBE64:
 752              		.loc 1 345 0
 753 0082 FFF7FEFF 		bl	chSchReadyI
 754              	.LVL71:
 755 0086 4662     		str	r6, [r0, #36]
 756 0088 C7E7     		b	.L47
 757              	.LVL72:
 758              	.L59:
 759              	.LBB65:
 760              	.LBB62:
 761              		.loc 2 60 0
 762 008a 2068     		ldr	r0, [r4, #0]
 763              		.loc 2 62 0
 764 008c 0168     		ldr	r1, [r0, #0]
 765 008e 2160     		str	r1, [r4, #0]
 766 0090 4C60     		str	r4, [r1, #4]
 767              	.LBE62:
 768              	.LBE65:
 769              		.loc 1 345 0
 770 0092 FFF7FEFF 		bl	chSchReadyI
 771              	.LVL73:
 772 0096 4662     		str	r6, [r0, #36]
 773 0098 C7E7     		b	.L49
 774              	.LVL74:
 775              	.L63:
 776 009a F8BD     		pop	{r3, r4, r5, r6, r7, pc}
 777              		.cfi_endproc
 778              	.LFE16:
 779              		.size	chSemAddCounterI, .-chSemAddCounterI
 780 009c AFF30080 		.section	.text.chSemSignalWait,"ax",%progbits
 781              		.align	2
 782              		.p2align 4,,15
 783              		.global	chSemSignalWait
 784              		.thumb
 785              		.thumb_func
 786              		.type	chSemSignalWait, %function
 787              	chSemSignalWait:
 788              	.LFB17:
 789              		.loc 1 366 0
ARM GAS  C:\Users\jenny\AppData\Local\Temp\ccbhbpyh.s 			page 15


 790              		.cfi_startproc
 791              		@ args = 0, pretend = 0, frame = 8
 792              		@ frame_needed = 0, uses_anonymous_args = 0
 793              	.LVL75:
 794 0000 10B5     		push	{r4, lr}
 795              	.LCFI8:
 796              		.cfi_def_cfa_offset 8
 797              		.cfi_offset 4, -8
 798              		.cfi_offset 14, -4
 799 0002 0246     		mov	r2, r0
 800 0004 82B0     		sub	sp, sp, #8
 801              	.LCFI9:
 802              		.cfi_def_cfa_offset 16
 803              	.LBB66:
 804              		.loc 1 379 0
 805 0006 2023     		movs	r3, #32
 806              	.LVL76:
 807              	@ 379 "../../os/kernel/src/chsem.c" 1
 808 0008 83F31188 		msr     BASEPRI, r3
 809              	@ 0 "" 2
 810              	.LVL77:
 811              		.thumb
 812              	.LBE66:
 813              		.loc 1 380 0
 814 000c 8368     		ldr	r3, [r0, #8]
 815              	.LVL78:
 816 000e 581C     		adds	r0, r3, #1
 817              	.LVL79:
 818 0010 0028     		cmp	r0, #0
 819 0012 9060     		str	r0, [r2, #8]
 820 0014 19DD     		ble	.L68
 821              	.LVL80:
 822              	.L65:
 823              		.loc 1 382 0
 824 0016 8A68     		ldr	r2, [r1, #8]
 825 0018 501E     		subs	r0, r2, #1
 826 001a 0028     		cmp	r0, #0
 827 001c 8860     		str	r0, [r1, #8]
 828 001e 07DB     		blt	.L69
 829              		.loc 1 390 0
 830 0020 FFF7FEFF 		bl	chSchRescheduleS
 831              	.LVL81:
 832              		.loc 1 391 0
 833 0024 0020     		movs	r0, #0
 834              	.LVL82:
 835              	.L67:
 836              	.LBB67:
 837              		.loc 1 393 0
 838 0026 0023     		movs	r3, #0
 839              	.LVL83:
 840              	@ 393 "../../os/kernel/src/chsem.c" 1
 841 0028 83F31188 		msr     BASEPRI, r3
 842              	@ 0 "" 2
 843              	.LVL84:
 844              		.thumb
 845              	.LBE67:
 846              		.loc 1 395 0
ARM GAS  C:\Users\jenny\AppData\Local\Temp\ccbhbpyh.s 			page 16


 847 002c 02B0     		add	sp, sp, #8
 848 002e 10BD     		pop	{r4, pc}
 849              	.LVL85:
 850              	.L69:
 851              	.LBB68:
 852              		.loc 1 383 0
 853 0030 0B4C     		ldr	r4, .L70
 854              	.LBB69:
 855              	.LBB70:
 856              		.loc 2 55 0
 857 0032 4B68     		ldr	r3, [r1, #4]
 858              	.LBE70:
 859              	.LBE69:
 860              		.loc 1 383 0
 861 0034 A469     		ldr	r4, [r4, #24]
 862              	.LVL86:
 863              		.loc 1 386 0
 864 0036 0320     		movs	r0, #3
 865              	.LBB72:
 866              	.LBB71:
 867              		.loc 2 55 0
 868 0038 84E80A00 		stmia	r4, {r1, r3}
 869              		.loc 2 56 0
 870 003c 4C60     		str	r4, [r1, #4]
 871 003e 1C60     		str	r4, [r3, #0]
 872              	.LBE71:
 873              	.LBE72:
 874              		.loc 1 385 0
 875 0040 6162     		str	r1, [r4, #36]
 876              		.loc 1 386 0
 877 0042 FFF7FEFF 		bl	chSchGoSleepS
 878              	.LVL87:
 879              		.loc 1 387 0
 880 0046 606A     		ldr	r0, [r4, #36]
 881              	.LVL88:
 882 0048 EDE7     		b	.L67
 883              	.LVL89:
 884              	.L68:
 885              	.LBE68:
 886              	.LBB73:
 887              	.LBB74:
 888              		.loc 2 60 0
 889 004a 1068     		ldr	r0, [r2, #0]
 890              	.LVL90:
 891              		.loc 2 62 0
 892 004c 0368     		ldr	r3, [r0, #0]
 893 004e 1360     		str	r3, [r2, #0]
 894 0050 5A60     		str	r2, [r3, #4]
 895              	.LBE74:
 896              	.LBE73:
 897              		.loc 1 381 0
 898 0052 0191     		str	r1, [sp, #4]
 899 0054 FFF7FEFF 		bl	chSchReadyI
 900              	.LVL91:
 901 0058 0021     		movs	r1, #0
 902 005a 4162     		str	r1, [r0, #36]
 903 005c 0199     		ldr	r1, [sp, #4]
ARM GAS  C:\Users\jenny\AppData\Local\Temp\ccbhbpyh.s 			page 17


 904 005e DAE7     		b	.L65
 905              	.L71:
 906              		.align	2
 907              	.L70:
 908 0060 00000000 		.word	rlist
 909              		.cfi_endproc
 910              	.LFE17:
 911              		.size	chSemSignalWait, .-chSemSignalWait
 912 0064 AFF30080 		.text
 912      AFF30080 
 912      AFF30080 
 913              	.Letext0:
 914              		.file 3 "c:\\fbin\\yagarto\\bin\\../lib/gcc/arm-none-eabi/4.7.4/../../../../arm-none-eabi/include/
 915              		.file 4 "../../os/ports/GCC/ARMCMx/chtypes.h"
 916              		.file 5 "../../os/kernel/include/chlists.h"
 917              		.file 6 "../../os/kernel/include/chthreads.h"
 918              		.file 7 "../../os/ports/GCC/ARMCMx/chcore_v7m.h"
 919              		.file 8 "../../os/kernel/include/chschd.h"
 920              		.file 9 "../../os/kernel/include/chsem.h"
 921              		.file 10 "../../os/kernel/include/chmtx.h"