ARM GAS  C:\Users\jenny\AppData\Local\Temp\cckA4Rj6.s 			page 1


   1              		.syntax unified
   2              		.cpu cortex-m4
   3              		.eabi_attribute 27, 3
   4              		.fpu fpv4-sp-d16
   5              		.eabi_attribute 20, 1
   6              		.eabi_attribute 21, 1
   7              		.eabi_attribute 23, 3
   8              		.eabi_attribute 24, 1
   9              		.eabi_attribute 25, 1
  10              		.eabi_attribute 26, 1
  11              		.eabi_attribute 30, 2
  12              		.eabi_attribute 34, 1
  13              		.eabi_attribute 18, 4
  14              		.thumb
  15              		.file	"chthreads.c"
  16              		.text
  17              	.Ltext0:
  18              		.cfi_sections	.debug_frame
  19              		.section	.text._thread_init,"ax",%progbits
  20              		.align	2
  21              		.p2align 4,,15
  22              		.global	_thread_init
  23              		.thumb
  24              		.thumb_func
  25              		.type	_thread_init, %function
  26              	_thread_init:
  27              	.LFB7:
  28              		.file 1 "../../os/kernel/src/chthreads.c"
  29              		.loc 1 76 0
  30              		.cfi_startproc
  31              		@ args = 0, pretend = 0, frame = 0
  32              		@ frame_needed = 0, uses_anonymous_args = 0
  33              		@ link register save eliminated.
  34              	.LVL0:
  35 0000 F0B4     		push	{r4, r5, r6, r7}
  36              	.LCFI0:
  37              		.cfi_def_cfa_offset 16
  38              		.cfi_offset 4, -16
  39              		.cfi_offset 5, -12
  40              		.cfi_offset 6, -8
  41              		.cfi_offset 7, -4
  42              		.loc 1 99 0
  43 0002 40F20004 		movw	r4, #:lower16:rlist
  44 0006 C0F20004 		movt	r4, #:upper16:rlist
  45              		.loc 1 80 0
  46 000a 0022     		movs	r2, #0
  47              		.loc 1 99 0
  48 000c 6569     		ldr	r5, [r4, #20]
  49              		.loc 1 85 0
  50 000e 0164     		str	r1, [r0, #64]
  51              		.loc 1 99 0
  52 0010 0461     		str	r4, [r0, #16]
  53              		.loc 1 105 0
  54 0012 00F12C06 		add	r6, r0, #44
  55              		.loc 1 78 0
  56 0016 8160     		str	r1, [r0, #8]
  57              		.loc 1 102 0
ARM GAS  C:\Users\jenny\AppData\Local\Temp\cckA4Rj6.s 			page 2


  58 0018 00F12807 		add	r7, r0, #40
  59              		.loc 1 99 0
  60 001c 4561     		str	r5, [r0, #20]
  61              		.loc 1 79 0
  62 001e 4FF0020C 		mov	ip, #2
  63              		.loc 1 99 0
  64 0022 6061     		str	r0, [r4, #20]
  65              		.loc 1 95 0
  66 0024 0121     		movs	r1, #1
  67              	.LVL1:
  68              		.loc 1 82 0
  69 0026 1424     		movs	r4, #20
  70              		.loc 1 79 0
  71 0028 80F81CC0 		strb	ip, [r0, #28]
  72              		.loc 1 80 0
  73 002c 4277     		strb	r2, [r0, #29]
  74              		.loc 1 82 0
  75 002e C477     		strb	r4, [r0, #31]
  76              		.loc 1 86 0
  77 0030 C263     		str	r2, [r0, #60]
  78              		.loc 1 89 0
  79 0032 8263     		str	r2, [r0, #56]
  80              		.loc 1 92 0
  81 0034 0262     		str	r2, [r0, #32]
  82              		.loc 1 95 0
  83 0036 8177     		strb	r1, [r0, #30]
  84              		.loc 1 98 0
  85 0038 8261     		str	r2, [r0, #24]
  86              		.loc 1 99 0
  87 003a 2861     		str	r0, [r5, #16]
  88              		.loc 1 102 0
  89 003c 8762     		str	r7, [r0, #40]
  90              		.loc 1 105 0
  91 003e 0663     		str	r6, [r0, #48]
  92 0040 C662     		str	r6, [r0, #44]
  93              		.loc 1 114 0
  94 0042 F0BC     		pop	{r4, r5, r6, r7}
  95 0044 7047     		bx	lr
  96              		.cfi_endproc
  97              	.LFE7:
  98              		.size	_thread_init, .-_thread_init
  99 0046 00BFAFF3 		.section	.text.chThdCreateI,"ax",%progbits
  99      0080AFF3 
  99      0080
 100              		.align	2
 101              		.p2align 4,,15
 102              		.global	chThdCreateI
 103              		.thumb
 104              		.thumb_func
 105              		.type	chThdCreateI, %function
 106              	chThdCreateI:
 107              	.LFB8:
 108              		.loc 1 158 0
 109              		.cfi_startproc
 110              		@ args = 4, pretend = 0, frame = 0
 111              		@ frame_needed = 0, uses_anonymous_args = 0
 112              		@ link register save eliminated.
ARM GAS  C:\Users\jenny\AppData\Local\Temp\cckA4Rj6.s 			page 3


 113              	.LVL2:
 114 0000 2DE9F001 		push	{r4, r5, r6, r7, r8}
 115              	.LCFI1:
 116              		.cfi_def_cfa_offset 20
 117              		.cfi_offset 4, -20
 118              		.cfi_offset 5, -16
 119              		.cfi_offset 6, -12
 120              		.cfi_offset 7, -8
 121              		.cfi_offset 8, -4
 122              		.loc 1 167 0
 123 0004 6439     		subs	r1, r1, #100
 124              	.LVL3:
 125              	.LBB10:
 126              	.LBB11:
 127              		.loc 1 99 0
 128 0006 40F20005 		movw	r5, #:lower16:rlist
 129              	.LBE11:
 130              	.LBE10:
 131              		.loc 1 167 0
 132 000a 4118     		adds	r1, r0, r1
 133              	.LVL4:
 134              	.LBB16:
 135              	.LBB12:
 136              		.loc 1 99 0
 137 000c C0F20005 		movt	r5, #:upper16:rlist
 138              		.loc 1 80 0
 139 0010 0026     		movs	r6, #0
 140              		.loc 1 99 0
 141 0012 6F69     		ldr	r7, [r5, #20]
 142              	.LBE12:
 143              	.LBE16:
 144              		.loc 1 167 0
 145 0014 C160     		str	r1, [r0, #12]
 146 0016 0B64     		str	r3, [r1, #64]
 147 0018 059B     		ldr	r3, [sp, #20]
 148              	.LVL5:
 149 001a 4B64     		str	r3, [r1, #68]
 150 001c 40F20003 		movw	r3, #:lower16:_port_thread_start
 151 0020 C0F20003 		movt	r3, #:upper16:_port_thread_start
 152 0024 0B66     		str	r3, [r1, #96]
 153              	.LBB17:
 154              	.LBB13:
 155              		.loc 1 79 0
 156 0026 0221     		movs	r1, #2
 157              	.LVL6:
 158              	.LBE13:
 159              	.LBE17:
 160              		.loc 1 158 0
 161 0028 9446     		mov	ip, r2
 162              	.LBB18:
 163              	.LBB14:
 164              		.loc 1 102 0
 165 002a 00F12808 		add	r8, r0, #40
 166              		.loc 1 105 0
 167 002e 00F12C02 		add	r2, r0, #44
 168              	.LVL7:
 169              		.loc 1 79 0
ARM GAS  C:\Users\jenny\AppData\Local\Temp\cckA4Rj6.s 			page 4


 170 0032 0177     		strb	r1, [r0, #28]
 171              		.loc 1 82 0
 172 0034 1423     		movs	r3, #20
 173              		.loc 1 95 0
 174 0036 0121     		movs	r1, #1
 175              		.loc 1 99 0
 176 0038 0561     		str	r5, [r0, #16]
 177              		.loc 1 78 0
 178 003a C0F808C0 		str	ip, [r0, #8]
 179              		.loc 1 99 0
 180 003e 4761     		str	r7, [r0, #20]
 181              	.LBE14:
 182              	.LBE18:
 183              		.loc 1 158 0
 184 0040 0446     		mov	r4, r0
 185              	.LVL8:
 186              	.LBB19:
 187              	.LBB15:
 188              		.loc 1 99 0
 189 0042 6861     		str	r0, [r5, #20]
 190              		.loc 1 80 0
 191 0044 4677     		strb	r6, [r0, #29]
 192              		.loc 1 82 0
 193 0046 C377     		strb	r3, [r0, #31]
 194              		.loc 1 85 0
 195 0048 C0F840C0 		str	ip, [r0, #64]
 196              		.loc 1 86 0
 197 004c C663     		str	r6, [r0, #60]
 198              		.loc 1 89 0
 199 004e 8663     		str	r6, [r0, #56]
 200              		.loc 1 92 0
 201 0050 0662     		str	r6, [r0, #32]
 202              		.loc 1 95 0
 203 0052 8177     		strb	r1, [r0, #30]
 204              		.loc 1 98 0
 205 0054 8661     		str	r6, [r0, #24]
 206              		.loc 1 99 0
 207 0056 3861     		str	r0, [r7, #16]
 208              		.loc 1 102 0
 209 0058 C0F82880 		str	r8, [r0, #40]
 210              		.loc 1 105 0
 211 005c 0263     		str	r2, [r0, #48]
 212 005e C262     		str	r2, [r0, #44]
 213              	.LBE15:
 214              	.LBE19:
 215              		.loc 1 169 0
 216 0060 BDE8F001 		pop	{r4, r5, r6, r7, r8}
 217 0064 7047     		bx	lr
 218              		.cfi_endproc
 219              	.LFE8:
 220              		.size	chThdCreateI, .-chThdCreateI
 221 0066 00BFAFF3 		.section	.text.chThdCreateStatic,"ax",%progbits
 221      0080AFF3 
 221      0080
 222              		.align	2
 223              		.p2align 4,,15
 224              		.global	chThdCreateStatic
ARM GAS  C:\Users\jenny\AppData\Local\Temp\cckA4Rj6.s 			page 5


 225              		.thumb
 226              		.thumb_func
 227              		.type	chThdCreateStatic, %function
 228              	chThdCreateStatic:
 229              	.LFB9:
 230              		.loc 1 188 0
 231              		.cfi_startproc
 232              		@ args = 4, pretend = 0, frame = 0
 233              		@ frame_needed = 0, uses_anonymous_args = 0
 234              	.LVL9:
 235 0000 10B5     		push	{r4, lr}
 236              	.LCFI2:
 237              		.cfi_def_cfa_offset 8
 238              		.cfi_offset 4, -8
 239              		.cfi_offset 14, -4
 240 0002 1C46     		mov	r4, r3
 241 0004 82B0     		sub	sp, sp, #8
 242              	.LCFI3:
 243              		.cfi_def_cfa_offset 16
 244              	.LBB20:
 245              		.loc 1 199 0
 246 0006 2023     		movs	r3, #32
 247              	.LVL10:
 248              	@ 199 "../../os/kernel/src/chthreads.c" 1
 249 0008 83F31188 		msr     BASEPRI, r3
 250              	@ 0 "" 2
 251              	.LVL11:
 252              		.thumb
 253              	.LBE20:
 254              		.loc 1 200 0
 255 000c 2346     		mov	r3, r4
 256              	.LVL12:
 257 000e 049C     		ldr	r4, [sp, #16]
 258              	.LVL13:
 259 0010 0094     		str	r4, [sp, #0]
 260 0012 FFF7FEFF 		bl	chThdCreateI
 261              	.LVL14:
 262 0016 0021     		movs	r1, #0
 263 0018 0446     		mov	r4, r0
 264              	.LVL15:
 265 001a FFF7FEFF 		bl	chSchWakeupS
 266              	.LVL16:
 267              	.LBB21:
 268              		.loc 1 201 0
 269 001e 0023     		movs	r3, #0
 270              	.LVL17:
 271              	@ 201 "../../os/kernel/src/chthreads.c" 1
 272 0020 83F31188 		msr     BASEPRI, r3
 273              	@ 0 "" 2
 274              	.LVL18:
 275              		.thumb
 276              	.LBE21:
 277              		.loc 1 203 0
 278 0024 2046     		mov	r0, r4
 279 0026 02B0     		add	sp, sp, #8
 280 0028 10BD     		pop	{r4, pc}
 281              		.cfi_endproc
ARM GAS  C:\Users\jenny\AppData\Local\Temp\cckA4Rj6.s 			page 6


 282              	.LFE9:
 283              		.size	chThdCreateStatic, .-chThdCreateStatic
 284 002a 00BFAFF3 		.section	.text.chThdSetPriority,"ax",%progbits
 284      0080
 285              		.align	2
 286              		.p2align 4,,15
 287              		.global	chThdSetPriority
 288              		.thumb
 289              		.thumb_func
 290              		.type	chThdSetPriority, %function
 291              	chThdSetPriority:
 292              	.LFB10:
 293              		.loc 1 217 0
 294              		.cfi_startproc
 295              		@ args = 0, pretend = 0, frame = 0
 296              		@ frame_needed = 0, uses_anonymous_args = 0
 297              	.LVL19:
 298 0000 10B5     		push	{r4, lr}
 299              	.LCFI4:
 300              		.cfi_def_cfa_offset 8
 301              		.cfi_offset 4, -8
 302              		.cfi_offset 14, -4
 303              	.LBB22:
 304              		.loc 1 222 0
 305 0002 2023     		movs	r3, #32
 306              	.LVL20:
 307              	@ 222 "../../os/kernel/src/chthreads.c" 1
 308 0004 83F31188 		msr     BASEPRI, r3
 309              	@ 0 "" 2
 310              	.LVL21:
 311              		.thumb
 312              	.LBE22:
 313              		.loc 1 224 0
 314 0008 084B     		ldr	r3, .L8
 315              	.LVL22:
 316 000a 9A69     		ldr	r2, [r3, #24]
 317 000c 146C     		ldr	r4, [r2, #64]
 318              	.LVL23:
 319              		.loc 1 225 0
 320 000e 9168     		ldr	r1, [r2, #8]
 321 0010 8C42     		cmp	r4, r1
 322 0012 01D0     		beq	.L5
 323              		.loc 1 225 0 is_stmt 0 discriminator 1
 324 0014 8142     		cmp	r1, r0
 325 0016 00D2     		bcs	.L6
 326              	.L5:
 327              		.loc 1 226 0 is_stmt 1
 328 0018 9060     		str	r0, [r2, #8]
 329              	.L6:
 330              		.loc 1 227 0
 331 001a 1064     		str	r0, [r2, #64]
 332              		.loc 1 232 0
 333 001c FFF7FEFF 		bl	chSchRescheduleS
 334              	.LVL24:
 335              	.LBB23:
 336              		.loc 1 233 0
 337 0020 0023     		movs	r3, #0
ARM GAS  C:\Users\jenny\AppData\Local\Temp\cckA4Rj6.s 			page 7


 338              	.LVL25:
 339              	@ 233 "../../os/kernel/src/chthreads.c" 1
 340 0022 83F31188 		msr     BASEPRI, r3
 341              	@ 0 "" 2
 342              	.LVL26:
 343              		.thumb
 344              	.LBE23:
 345              		.loc 1 235 0
 346 0026 2046     		mov	r0, r4
 347 0028 10BD     		pop	{r4, pc}
 348              	.L9:
 349 002a 00BF     		.align	2
 350              	.L8:
 351 002c 00000000 		.word	rlist
 352              		.cfi_endproc
 353              	.LFE10:
 354              		.size	chThdSetPriority, .-chThdSetPriority
 355              		.section	.text.chThdResume,"ax",%progbits
 356              		.align	2
 357              		.p2align 4,,15
 358              		.global	chThdResume
 359              		.thumb
 360              		.thumb_func
 361              		.type	chThdResume, %function
 362              	chThdResume:
 363              	.LFB11:
 364              		.loc 1 250 0
 365              		.cfi_startproc
 366              		@ args = 0, pretend = 0, frame = 0
 367              		@ frame_needed = 0, uses_anonymous_args = 0
 368              	.LVL27:
 369 0000 10B5     		push	{r4, lr}
 370              	.LCFI5:
 371              		.cfi_def_cfa_offset 8
 372              		.cfi_offset 4, -8
 373              		.cfi_offset 14, -4
 374              	.LBB24:
 375              		.loc 1 252 0
 376 0002 2023     		movs	r3, #32
 377              	.LVL28:
 378              	.LBE24:
 379              		.loc 1 250 0
 380 0004 0446     		mov	r4, r0
 381              	.LBB25:
 382              		.loc 1 252 0
 383              	@ 252 "../../os/kernel/src/chthreads.c" 1
 384 0006 83F31188 		msr     BASEPRI, r3
 385              	@ 0 "" 2
 386              	.LVL29:
 387              		.thumb
 388              	.LBE25:
 389              		.loc 1 256 0
 390 000a 0021     		movs	r1, #0
 391 000c FFF7FEFF 		bl	chSchWakeupS
 392              	.LVL30:
 393              	.LBB26:
 394              		.loc 1 257 0
ARM GAS  C:\Users\jenny\AppData\Local\Temp\cckA4Rj6.s 			page 8


 395 0010 0023     		movs	r3, #0
 396              	.LVL31:
 397              	@ 257 "../../os/kernel/src/chthreads.c" 1
 398 0012 83F31188 		msr     BASEPRI, r3
 399              	@ 0 "" 2
 400              	.LVL32:
 401              		.thumb
 402              	.LBE26:
 403              		.loc 1 259 0
 404 0016 2046     		mov	r0, r4
 405 0018 10BD     		pop	{r4, pc}
 406              		.cfi_endproc
 407              	.LFE11:
 408              		.size	chThdResume, .-chThdResume
 409 001a 00BFAFF3 		.section	.text.chThdTerminate,"ax",%progbits
 409      0080
 410              		.align	2
 411              		.p2align 4,,15
 412              		.global	chThdTerminate
 413              		.thumb
 414              		.thumb_func
 415              		.type	chThdTerminate, %function
 416              	chThdTerminate:
 417              	.LFB12:
 418              		.loc 1 273 0
 419              		.cfi_startproc
 420              		@ args = 0, pretend = 0, frame = 0
 421              		@ frame_needed = 0, uses_anonymous_args = 0
 422              		@ link register save eliminated.
 423              	.LVL33:
 424              	.LBB27:
 425              		.loc 1 275 0
 426 0000 2023     		movs	r3, #32
 427              	.LVL34:
 428              	@ 275 "../../os/kernel/src/chthreads.c" 1
 429 0002 83F31188 		msr     BASEPRI, r3
 430              	@ 0 "" 2
 431              	.LVL35:
 432              		.thumb
 433              	.LBE27:
 434              		.loc 1 276 0
 435 0006 437F     		ldrb	r3, [r0, #29]	@ zero_extendqisi2
 436              	.LVL36:
 437 0008 43F00401 		orr	r1, r3, #4
 438 000c 4177     		strb	r1, [r0, #29]
 439              	.LBB28:
 440              		.loc 1 277 0
 441 000e 0023     		movs	r3, #0
 442              	.LVL37:
 443              	@ 277 "../../os/kernel/src/chthreads.c" 1
 444 0010 83F31188 		msr     BASEPRI, r3
 445              	@ 0 "" 2
 446              	.LVL38:
 447              		.thumb
 448 0014 7047     		bx	lr
 449              	.LBE28:
 450              		.cfi_endproc
ARM GAS  C:\Users\jenny\AppData\Local\Temp\cckA4Rj6.s 			page 9


 451              	.LFE12:
 452              		.size	chThdTerminate, .-chThdTerminate
 453 0016 00BFAFF3 		.section	.text.chThdSleep,"ax",%progbits
 453      0080AFF3 
 453      0080
 454              		.align	2
 455              		.p2align 4,,15
 456              		.global	chThdSleep
 457              		.thumb
 458              		.thumb_func
 459              		.type	chThdSleep, %function
 460              	chThdSleep:
 461              	.LFB13:
 462              		.loc 1 292 0
 463              		.cfi_startproc
 464              		@ args = 0, pretend = 0, frame = 0
 465              		@ frame_needed = 0, uses_anonymous_args = 0
 466              	.LVL39:
 467 0000 08B5     		push	{r3, lr}
 468              	.LCFI6:
 469              		.cfi_def_cfa_offset 8
 470              		.cfi_offset 3, -8
 471              		.cfi_offset 14, -4
 472              		.loc 1 292 0
 473 0002 0146     		mov	r1, r0
 474              	.LBB29:
 475              		.loc 1 296 0
 476 0004 2023     		movs	r3, #32
 477              	.LVL40:
 478              	@ 296 "../../os/kernel/src/chthreads.c" 1
 479 0006 83F31188 		msr     BASEPRI, r3
 480              	@ 0 "" 2
 481              	.LVL41:
 482              		.thumb
 483              	.LBE29:
 484              		.loc 1 297 0
 485 000a 0620     		movs	r0, #6
 486              	.LVL42:
 487 000c FFF7FEFF 		bl	chSchGoSleepTimeoutS
 488              	.LVL43:
 489              	.LBB30:
 490              		.loc 1 298 0
 491 0010 0023     		movs	r3, #0
 492              	.LVL44:
 493              	@ 298 "../../os/kernel/src/chthreads.c" 1
 494 0012 83F31188 		msr     BASEPRI, r3
 495              	@ 0 "" 2
 496              	.LVL45:
 497              		.thumb
 498 0016 08BD     		pop	{r3, pc}
 499              	.LBE30:
 500              		.cfi_endproc
 501              	.LFE13:
 502              		.size	chThdSleep, .-chThdSleep
 503              		.section	.text.chThdSleepUntil,"ax",%progbits
 504              		.align	2
 505              		.p2align 4,,15
ARM GAS  C:\Users\jenny\AppData\Local\Temp\cckA4Rj6.s 			page 10


 506              		.global	chThdSleepUntil
 507              		.thumb
 508              		.thumb_func
 509              		.type	chThdSleepUntil, %function
 510              	chThdSleepUntil:
 511              	.LFB14:
 512              		.loc 1 309 0
 513              		.cfi_startproc
 514              		@ args = 0, pretend = 0, frame = 0
 515              		@ frame_needed = 0, uses_anonymous_args = 0
 516              	.LVL46:
 517 0000 08B5     		push	{r3, lr}
 518              	.LCFI7:
 519              		.cfi_def_cfa_offset 8
 520              		.cfi_offset 3, -8
 521              		.cfi_offset 14, -4
 522              	.LBB31:
 523              		.loc 1 311 0
 524 0002 2023     		movs	r3, #32
 525              	.LVL47:
 526              	@ 311 "../../os/kernel/src/chthreads.c" 1
 527 0004 83F31188 		msr     BASEPRI, r3
 528              	@ 0 "" 2
 529              	.LVL48:
 530              		.thumb
 531              	.LBE31:
 532              		.loc 1 312 0
 533 0008 054B     		ldr	r3, .L18
 534              	.LVL49:
 535 000a D968     		ldr	r1, [r3, #12]
 536              	.LVL50:
 537 000c 411A     		subs	r1, r0, r1
 538              	.LVL51:
 539 000e 02D0     		beq	.L14
 540              		.loc 1 313 0
 541 0010 0620     		movs	r0, #6
 542 0012 FFF7FEFF 		bl	chSchGoSleepTimeoutS
 543              	.LVL52:
 544              	.L14:
 545              	.LBB32:
 546              		.loc 1 314 0
 547 0016 0023     		movs	r3, #0
 548              	.LVL53:
 549              	@ 314 "../../os/kernel/src/chthreads.c" 1
 550 0018 83F31188 		msr     BASEPRI, r3
 551              	@ 0 "" 2
 552              	.LVL54:
 553              		.thumb
 554 001c 08BD     		pop	{r3, pc}
 555              	.L19:
 556 001e 00BF     		.align	2
 557              	.L18:
 558 0020 00000000 		.word	vtlist
 559              	.LBE32:
 560              		.cfi_endproc
 561              	.LFE14:
 562              		.size	chThdSleepUntil, .-chThdSleepUntil
ARM GAS  C:\Users\jenny\AppData\Local\Temp\cckA4Rj6.s 			page 11


 563 0024 AFF30080 		.section	.text.chThdYield,"ax",%progbits
 563      AFF30080 
 563      AFF30080 
 564              		.align	2
 565              		.p2align 4,,15
 566              		.global	chThdYield
 567              		.thumb
 568              		.thumb_func
 569              		.type	chThdYield, %function
 570              	chThdYield:
 571              	.LFB15:
 572              		.loc 1 324 0
 573              		.cfi_startproc
 574              		@ args = 0, pretend = 0, frame = 0
 575              		@ frame_needed = 0, uses_anonymous_args = 0
 576 0000 08B5     		push	{r3, lr}
 577              	.LCFI8:
 578              		.cfi_def_cfa_offset 8
 579              		.cfi_offset 3, -8
 580              		.cfi_offset 14, -4
 581              	.LBB33:
 582              		.loc 1 326 0
 583 0002 2023     		movs	r3, #32
 584              	.LVL55:
 585              	@ 326 "../../os/kernel/src/chthreads.c" 1
 586 0004 83F31188 		msr     BASEPRI, r3
 587              	@ 0 "" 2
 588              	.LVL56:
 589              		.thumb
 590              	.LBE33:
 591              		.loc 1 327 0
 592 0008 064B     		ldr	r3, .L22
 593              	.LVL57:
 594 000a 1A68     		ldr	r2, [r3, #0]
 595 000c 9869     		ldr	r0, [r3, #24]
 596 000e 9168     		ldr	r1, [r2, #8]
 597 0010 8368     		ldr	r3, [r0, #8]
 598 0012 9942     		cmp	r1, r3
 599 0014 01D3     		bcc	.L21
 600              		.loc 1 327 0 is_stmt 0 discriminator 1
 601 0016 FFF7FEFF 		bl	chSchDoRescheduleBehind
 602              	.LVL58:
 603              	.L21:
 604              	.LBB34:
 605              		.loc 1 328 0 is_stmt 1
 606 001a 0023     		movs	r3, #0
 607              	.LVL59:
 608              	@ 328 "../../os/kernel/src/chthreads.c" 1
 609 001c 83F31188 		msr     BASEPRI, r3
 610              	@ 0 "" 2
 611              	.LVL60:
 612              		.thumb
 613 0020 08BD     		pop	{r3, pc}
 614              	.L23:
 615 0022 00BF     		.align	2
 616              	.L22:
 617 0024 00000000 		.word	rlist
ARM GAS  C:\Users\jenny\AppData\Local\Temp\cckA4Rj6.s 			page 12


 618              	.LBE34:
 619              		.cfi_endproc
 620              	.LFE15:
 621              		.size	chThdYield, .-chThdYield
 622 0028 AFF30080 		.section	.text.chThdExitS,"ax",%progbits
 622      AFF30080 
 623              		.align	2
 624              		.p2align 4,,15
 625              		.global	chThdExitS
 626              		.thumb
 627              		.thumb_func
 628              		.type	chThdExitS, %function
 629              	chThdExitS:
 630              	.LFB17:
 631              		.loc 1 366 0
 632              		.cfi_startproc
 633              		@ args = 0, pretend = 0, frame = 0
 634              		@ frame_needed = 0, uses_anonymous_args = 0
 635              	.LVL61:
 636 0000 38B5     		push	{r3, r4, r5, lr}
 637              	.LCFI9:
 638              		.cfi_def_cfa_offset 16
 639              		.cfi_offset 3, -16
 640              		.cfi_offset 4, -12
 641              		.cfi_offset 5, -8
 642              		.cfi_offset 14, -4
 643              		.loc 1 367 0
 644 0002 0E4B     		ldr	r3, .L32
 645 0004 9C69     		ldr	r4, [r3, #24]
 646              	.LVL62:
 647              		.loc 1 374 0
 648 0006 2546     		mov	r5, r4
 649              		.loc 1 369 0
 650 0008 6062     		str	r0, [r4, #36]
 651              		.loc 1 374 0
 652 000a 55F8280F 		ldr	r0, [r5, #40]!
 653              	.LVL63:
 654 000e A842     		cmp	r0, r5
 655 0010 06D0     		beq	.L29
 656              	.LVL64:
 657              	.L30:
 658              	.LBB35:
 659              	.LBB36:
 660              		.file 2 "../../os/kernel/include/chinline.h"
 661              		.loc 2 89 0
 662 0012 0168     		ldr	r1, [r0, #0]
 663 0014 A162     		str	r1, [r4, #40]
 664              	.LBE36:
 665              	.LBE35:
 666              		.loc 1 375 0
 667 0016 FFF7FEFF 		bl	chSchReadyI
 668              	.LVL65:
 669              		.loc 1 374 0
 670 001a A06A     		ldr	r0, [r4, #40]
 671 001c A842     		cmp	r0, r5
 672 001e F8D1     		bne	.L30
 673              	.LVL66:
ARM GAS  C:\Users\jenny\AppData\Local\Temp\cckA4Rj6.s 			page 13


 674              	.L29:
 675              		.loc 1 380 0
 676 0020 607F     		ldrb	r0, [r4, #29]	@ zero_extendqisi2
 677 0022 8307     		lsls	r3, r0, #30
 678 0024 04D1     		bne	.L27
 679              		.loc 1 381 0
 680 0026 6369     		ldr	r3, [r4, #20]
 681 0028 2269     		ldr	r2, [r4, #16]
 682 002a 1A61     		str	r2, [r3, #16]
 683 002c 2169     		ldr	r1, [r4, #16]
 684 002e 4B61     		str	r3, [r1, #20]
 685              	.L27:
 686              		.loc 1 383 0
 687 0030 0E20     		movs	r0, #14
 688              		.loc 1 386 0
 689 0032 BDE83840 		pop	{r3, r4, r5, lr}
 690              		.loc 1 383 0
 691 0036 FFF7FEBF 		b	chSchGoSleepS
 692              	.LVL67:
 693              	.L33:
 694 003a 00BF     		.align	2
 695              	.L32:
 696 003c 00000000 		.word	rlist
 697              		.cfi_endproc
 698              	.LFE17:
 699              		.size	chThdExitS, .-chThdExitS
 700              		.section	.text.chThdExit,"ax",%progbits
 701              		.align	2
 702              		.p2align 4,,15
 703              		.global	chThdExit
 704              		.thumb
 705              		.thumb_func
 706              		.type	chThdExit, %function
 707              	chThdExit:
 708              	.LFB16:
 709              		.loc 1 345 0
 710              		.cfi_startproc
 711              		@ args = 0, pretend = 0, frame = 0
 712              		@ frame_needed = 0, uses_anonymous_args = 0
 713              		@ link register save eliminated.
 714              	.LVL68:
 715              	.LBB37:
 716              		.loc 1 347 0
 717 0000 2023     		movs	r3, #32
 718              	.LVL69:
 719              	@ 347 "../../os/kernel/src/chthreads.c" 1
 720 0002 83F31188 		msr     BASEPRI, r3
 721              	@ 0 "" 2
 722              	.LVL70:
 723              		.thumb
 724              	.LBE37:
 725              		.loc 1 350 0
 726              		.loc 1 348 0
 727 0006 FFF7FEBF 		b	chThdExitS
 728              	.LVL71:
 729              		.cfi_endproc
 730              	.LFE16:
ARM GAS  C:\Users\jenny\AppData\Local\Temp\cckA4Rj6.s 			page 14


 731              		.size	chThdExit, .-chThdExit
 732 000a 00BFAFF3 		.section	.text.chThdWait,"ax",%progbits
 732      0080
 733              		.align	2
 734              		.p2align 4,,15
 735              		.global	chThdWait
 736              		.thumb
 737              		.thumb_func
 738              		.type	chThdWait, %function
 739              	chThdWait:
 740              	.LFB18:
 741              		.loc 1 420 0
 742              		.cfi_startproc
 743              		@ args = 0, pretend = 0, frame = 0
 744              		@ frame_needed = 0, uses_anonymous_args = 0
 745              	.LVL72:
 746 0000 38B5     		push	{r3, r4, r5, lr}
 747              	.LCFI10:
 748              		.cfi_def_cfa_offset 16
 749              		.cfi_offset 3, -16
 750              		.cfi_offset 4, -12
 751              		.cfi_offset 5, -8
 752              		.cfi_offset 14, -4
 753              		.loc 1 420 0
 754 0002 0446     		mov	r4, r0
 755              	.LBB38:
 756              		.loc 1 425 0
 757 0004 2023     		movs	r3, #32
 758              	.LVL73:
 759              	@ 425 "../../os/kernel/src/chthreads.c" 1
 760 0006 83F31188 		msr     BASEPRI, r3
 761              	@ 0 "" 2
 762              	.LVL74:
 763              		.thumb
 764              	.LBE38:
 765              		.loc 1 430 0
 766 000a 037F     		ldrb	r3, [r0, #28]	@ zero_extendqisi2
 767              	.LVL75:
 768 000c 0E2B     		cmp	r3, #14
 769 000e 07D0     		beq	.L36
 770              	.LBB39:
 771              	.LBB40:
 772              		.loc 2 82 0
 773 0010 826A     		ldr	r2, [r0, #40]
 774              	.LBE40:
 775              	.LBE39:
 776              		.loc 1 431 0
 777 0012 0848     		ldr	r0, .L40
 778              	.LVL76:
 779 0014 8169     		ldr	r1, [r0, #24]
 780              	.LVL77:
 781              		.loc 1 432 0
 782 0016 0720     		movs	r0, #7
 783              	.LBB42:
 784              	.LBB41:
 785              		.loc 2 82 0
 786 0018 0A60     		str	r2, [r1, #0]
ARM GAS  C:\Users\jenny\AppData\Local\Temp\cckA4Rj6.s 			page 15


 787              		.loc 2 83 0
 788 001a A162     		str	r1, [r4, #40]
 789              	.LBE41:
 790              	.LBE42:
 791              		.loc 1 432 0
 792 001c FFF7FEFF 		bl	chSchGoSleepS
 793              	.LVL78:
 794              	.L36:
 795              		.loc 1 434 0
 796 0020 656A     		ldr	r5, [r4, #36]
 797              	.LVL79:
 798              	.LBB43:
 799              		.loc 1 435 0
 800 0022 0023     		movs	r3, #0
 801              	.LVL80:
 802              	@ 435 "../../os/kernel/src/chthreads.c" 1
 803 0024 83F31188 		msr     BASEPRI, r3
 804              	@ 0 "" 2
 805              	.LVL81:
 806              		.thumb
 807              	.LBE43:
 808              		.loc 1 437 0
 809 0028 2046     		mov	r0, r4
 810 002a FFF7FEFF 		bl	chThdRelease
 811              	.LVL82:
 812              		.loc 1 440 0
 813 002e 2846     		mov	r0, r5
 814 0030 38BD     		pop	{r3, r4, r5, pc}
 815              	.L41:
 816 0032 00BF     		.align	2
 817              	.L40:
 818 0034 00000000 		.word	rlist
 819              		.cfi_endproc
 820              	.LFE18:
 821              		.size	chThdWait, .-chThdWait
 822 0038 AFF30080 		.text
 822      AFF30080 
 823              	.Letext0:
 824              		.file 3 "c:\\fbin\\yagarto\\bin\\../lib/gcc/arm-none-eabi/4.7.4/include/stddef.h"
 825              		.file 4 "c:\\fbin\\yagarto\\bin\\../lib/gcc/arm-none-eabi/4.7.4/../../../../arm-none-eabi/include/
 826              		.file 5 "../../os/ports/GCC/ARMCMx/chtypes.h"
 827              		.file 6 "../../os/kernel/include/chlists.h"
 828              		.file 7 "../../os/kernel/include/chthreads.h"
 829              		.file 8 "../../os/ports/GCC/ARMCMx/chcore_v7m.h"
 830              		.file 9 "../../os/kernel/include/chvt.h"
 831              		.file 10 "../../os/kernel/include/chschd.h"
 832              		.file 11 "../../os/kernel/include/chmtx.h"
 833              		.file 12 "../../os/kernel/include/chdynamic.h"