ARM GAS  C:\Users\jenny\AppData\Local\Temp\cckA4Rj6.s 			page 1


   1              		.syntax unified
   2              		.cpu cortex-m4
   3              		.eabi_attribute 27, 3
   4              		.fpu fpv4-sp-d16
   5              		.eabi_attribute 20, 1
   6              		.eabi_attribute 21, 1
   7              		.eabi_attribute 23, 3
   8              		.eabi_attribute 24, 1
   9              		.eabi_attribute 25, 1
  10              		.eabi_attribute 26, 1
  11              		.eabi_attribute 30, 2
  12              		.eabi_attribute 34, 1
  13              		.eabi_attribute 18, 4
  14              		.thumb
  15              		.file	"chthreads.c"
  16              		.text
  17              	.Ltext0:
  18              		.cfi_sections	.debug_frame
  19              		.section	.text._thread_init,"ax",%progbits
  20              		.align	2
  21              		.p2align 4,,15
  22              		.global	_thread_init
  23              		.thumb
  24              		.thumb_func
  25              		.type	_thread_init, %function
  26              	_thread_init:
  27              	.LFB7:
  28              		.file 1 "../../os/kernel/src/chthreads.c"
  29              		.loc 1 76 0
  30              		.cfi_startproc
  31              		@ args = 0, pretend = 0, frame = 0
  32              		@ frame_needed = 0, uses_anonymous_args = 0
  33              		@ link register save eliminated.
  34              	.LVL0:
  35 0000 F0B4     		push	{r4, r5, r6, r7}
  36              	.LCFI0:
  37              		.cfi_def_cfa_offset 16
  38              		.cfi_offset 4, -16
  39              		.cfi_offset 5, -12
  40              		.cfi_offset 6, -8
  41              		.cfi_offset 7, -4
  42              		.loc 1 99 0
  43 0002 40F20004 		movw	r4, #:lower16:rlist
  44 0006 C0F20004 		movt	r4, #:upper16:rlist
  45              		.loc 1 80 0
  46 000a 0022     		movs	r2, #0
  47              		.loc 1 99 0
  48 000c 6569     		ldr	r5, [r4, #20]
  49              		.loc 1 85 0
  50 000e 0164     		str	r1, [r0, #64]
  51              		.loc 1 99 0
  52 0010 0461     		str	r4, [r0, #16]
  53              		.loc 1 105 0
  54 0012 00F12C06 		add	r6, r0, #44
  55              		.loc 1 78 0
  56 0016 8160     		str	r1, [r0, #8]
  57              		.loc 1 102 0
ARM GAS  C:\Users\jenny\AppData\Local\Temp\cckA4Rj6.s 			page 2


  58 0018 00F12807 		add	r7, r0, #40
  59              		.loc 1 99 0
  60 001c 4561     		str	r5, [r0, #20]
  61              		.loc 1 79 0
  62 001e 4FF0020C 		mov	ip, #2
  63              		.loc 1 99 0
  64 0022 6061     		str	r0, [r4, #20]
  65              		.loc 1 95 0
  66 0024 0121     		movs	r1, #1
  67              	.LVL1:
  68              		.loc 1 82 0
  69 0026 1424     		movs	r4, #20
  70              		.loc 1 79 0
  71 0028 80F81CC0 		strb	ip, [r0, #28]
  72              		.loc 1 80 0
  73 002c 4277     		strb	r2, [r0, #29]
  74              		.loc 1 82 0
  75 002e C477     		strb	r4, [r0, #31]
  76              		.loc 1 86 0
  77 0030 C263     		str	r2, [r0, #60]
  78              		.loc 1 89 0
  79 0032 8263     		str	r2, [r0, #56]
  80              		.loc 1 92 0
  81 0034 0262     		str	r2, [r0, #32]
  82              		.loc 1 95 0
  83 0036 8177     		strb	r1, [r0, #30]
  84              		.loc 1 98 0
  85 0038 8261     		str	r2, [r0, #24]
  86              		.loc 1 99 0
  87 003a 2861     		str	r0, [r5, #16]
  88              		.loc 1 102 0
  89 003c 8762     		str	r7, [r0, #40]
  90              		.loc 1 105 0
  91 003e 0663     		str	r6, [r0, #48]
  92 0040 C662     		str	r6, [r0, #44]
  93              		.loc 1 114 0
  94 0042 F0BC     		pop	{r4, r5, r6, r7}
  95 0044 7047     		bx	lr
  96              		.cfi_endproc
  97              	.LFE7:
  98              		.size	_thread_init, .-_thread_init
  99 0046 00BFAFF3 		.section	.text.chThdCreateI,"ax",%progbits
  99      0080AFF3 
  99      0080
 100              		.align	2
 101              		.p2align 4,,15
 102              		.global	chThdCreateI
 103              		.thumb
 104              		.thumb_func
 105              		.type	chThdCreateI, %function
 106              	chThdCreateI:
 107              	.LFB8:
 108              		.loc 1 158 0
 109              		.cfi_startproc
 110              		@ args = 4, pretend = 0, frame = 0
 111              		@ frame_needed = 0, uses_anonymous_args = 0
 112              		@ link register save eliminated.
ARM GAS  C:\Users\jenny\AppData\Local\Temp\cckA4Rj6.s 			page 3


 113              	.LVL2:
 114 0000 2DE9F001 		push	{r4, r5, r6, r7, r8}
 115              	.LCFI1:
 116              		.cfi_def_cfa_offset 20
 117              		.cfi_offset 4, -20
 118              		.cfi_offset 5, -16
 119              		.cfi_offset 6, -12
 120              		.cfi_offset 7, -8
 121              		.cfi_offset 8, -4
 122              		.loc 1 167 0
 123 0004 6439     		subs	r1, r1, #100
 124              	.LVL3:
 125              	.LBB10:
 126              	.LBB11:
 127              		.loc 1 99 0
 128 0006 40F20005 		movw	r5, #:lower16:rlist
 129              	.LBE11:
 130              	.LBE10:
 131              		.loc 1 167 0
 132 000a 4118     		adds	r1, r0, r1
 133              	.LVL4:
 134              	.LBB16:
 135              	.LBB12:
 136              		.loc 1 99 0
 137 000c C0F20005 		movt	r5, #:upper16:rlist
 138              		.loc 1 80 0
 139 0010 0026     		movs	r6, #0
 140              		.loc 1 99 0
 141 0012 6F69     		ldr	r7, [r5, #20]
 142              	.LBE12:
 143              	.LBE16:
 144              		.loc 1 167 0
 145 0014 C160     		str	r1, [r0, #12]
 146 0016 0B64     		str	r3, [r1, #64]
 147 0018 059B     		ldr	r3, [sp, #20]
 148              	.LVL5:
 149 001a 4B64     		str	r3, [r1, #68]
 150 001c 40F20003 		movw	r3, #:lower16:_port_thread_start
 151 0020 C0F20003 		movt	r3, #:upper16:_port_thread_start
 152 0024 0B66     		str	r3, [r1, #96]
 153              	.LBB17:
 154              	.LBB13:
 155              		.loc 1 79 0
 156 0026 0221     		movs	r1, #2
 157              	.LVL6:
 158              	.LBE13:
 159              	.LBE17:
 160              		.loc 1 158 0
 161 0028 9446     		mov	ip, r2
 162              	.LBB18:
 163              	.LBB14:
 164              		.loc 1 102 0
 165 002a 00F12808 		add	r8, r0, #40
 166              		.loc 1 105 0
 167 002e 00F12C02 		add	r2, r0, #44
 168              	.LVL7:
 169              		.loc 1 79 0
ARM GAS  C:\Users\jenny\AppData\Local\Temp\cckA4Rj6.s 			page 4


 170 0032 0177     		strb	r1, [r0, #28]
 171              		.loc 1 82 0
 172 0034 1423     		movs	r3, #20
 173              		.loc 1 95 0
 174 0036 0121     		movs	r1, #1
 175              		.loc 1 99 0
 176 0038 0561     		str	r5, [r0, #16]
 177              		.loc 1 78 0
 178 003a C0F808C0 		str	ip, [r0, #8]
 179              		.loc 1 99 0
 180 003e 4761     		str	r7, [r0, #20]
 181              	.LBE14:
 182              	.LBE18:
 183              		.loc 1 158 0
 184 0040 0446     		mov	r4, r0
 185              	.LVL8:
 186              	.LBB19:
 187              	.LBB15:
 188              		.loc 1 99 0
 189 0042 6861     		str	r0, [r5, #20]
 190              		.loc 1 80 0
 191 0044 4677     		strb	r6, [r0, #29]
 192              		.loc 1 82 0
 193 0046 C377     		strb	r3, [r0, #31]
 194              		.loc 1 85 0
 195 0048 C0F840C0 		str	ip, [r0, #64]
 196              		.loc 1 86 0
 197 004c C663     		str	r6, [r0, #60]
 198              		.loc 1 89 0
 199 004e 8663     		str	r6, [r0, #56]
 200              		.loc 1 92 0
 201 0050 0662     		str	r6, [r0, #32]
 202              		.loc 1 95 0
 203 0052 8177     		strb	r1, [r0, #30]
 204              		.loc 1 98 0
 205 0054 8661     		str	r6, [r0, #24]
 206              		.loc 1 99 0
 207 0056 3861     		str	r0, [r7, #16]
 208              		.loc 1 102 0
 209 0058 C0F82880 		str	r8, [r0, #40]
 210              		.loc 1 105 0
 211 005c 0263     		str	r2, [r0, #48]
 212 005e C262     		str	r2, [r0, #44]
 213              	.LBE15:
 214              	.LBE19:
 215              		.loc 1 169 0
 216 0060 BDE8F001 		pop	{r4, r5, r6, r7, r8}
 217 0064 7047     		bx	lr
 218              		.cfi_endproc
 219              	.LFE8:
 220              		.size	chThdCreateI, .-chThdCreateI
 221 0066 00BFAFF3 		.section	.text.chThdCreateStatic,"ax",%progbits
 221      0080AFF3 
 221      0080
 222              		.align	2
 223              		.p2align 4,,15
 224              		.global	chThdCreateStatic
ARM GAS  C:\Users\jenny\AppData\Local\Temp\cckA4Rj6.s 			page 5


 225              		.thumb
 226              		.thumb_func
 227              		.type	chThdCreateStatic, %function
 228              	chThdCreateStatic:
 229              	.LFB9:
 230              		.loc 1 188 0
 231              		.cfi_startproc
 232              		@ args = 4, pretend = 0, frame = 0
 233              		@ frame_needed = 0, uses_anonymous_args = 0
 234              	.LVL9:
 235 0000 10B5     		push	{r4, lr}
 236              	.LCFI2:
 237              		.cfi_def_cfa_offset 8
 238              		.cfi_offset 4, -8
 239              		.cfi_offset 14, -4
 240 0002 1C46     		mov	r4, r3
 241 0004 82B0     		sub	sp, sp, #8
 242              	.LCFI3:
 243              		.cfi_def_cfa_offset 16
 244              	.LBB20:
 245              		.loc 1 199 0
 246 0006 2023     		movs	r3, #32
 247              	.LVL10:
 248              	@ 199 "../../os/kernel/src/chthreads.c" 1
 249 0008 83F31188 		msr     BASEPRI, r3
 250              	@ 0 "" 2
 251              	.LVL11:
 252              		.thumb
 253              	.LBE20:
 254              		.loc 1 200 0
 255 000c 2346     		mov	r3, r4
 256              	.LVL12:
 257 000e 049C     		ldr	r4, [sp, #16]
 258              	.LVL13:
 259 0010 0094     		str	r4, [sp, #0]
 260 0012 FFF7FEFF 		bl	chThdCreateI
 261              	.LVL14:
 262 0016 0021     		movs	r1, #0
 263 0018 0446     		mov	r4, r0
 264              	.LVL15:
 265 001a FFF7FEFF 		bl	chSchWakeupS
 266              	.LVL16:
 267              	.LBB21:
 268              		.loc 1 201 0
 269 001e 0023     		movs	r3, #0
 270              	.LVL17:
 271              	@ 201 "../../os/kernel/src/chthreads.c" 1
 272 0020 83F31188 		msr     BASEPRI, r3
 273              	@ 0 "" 2
 274              	.LVL18:
 275              		.thumb
 276              	.LBE21:
 277              		.loc 1 203 0
 278 0024 2046     		mov	r0, r4
 279 0026 02B0     		add	sp, sp, #8
 280 0028 10BD     		pop	{r4, pc}
 281              		.cfi_endproc
ARM GAS  C:\Users\jenny\AppData\Local\Temp\cckA4Rj6.s 			page 6


 282              	.LFE9:
 283              		.size	chThdCreateStatic, .-chThdCreateStatic
 284 002a 00BFAFF3 		.section	.text.chThdSetPriority,"ax",%progbits
 284      0080
 285              		.align	2
 286              		.p2align 4,,15
 287              		.global	chThdSetPriority
 288              		.thumb
 289              		.thumb_func
 290              		.type	chThdSetPriority, %function
 291              	chThdSetPriority:
 292              	.LFB10:
 293              		.loc 1 217 0
 294              		.cfi_startproc
 295              		@ args = 0, pretend = 0, frame = 0
 296              		@ frame_needed = 0, uses_anonymous_args = 0
 297              	.LVL19:
 298 0000 10B5     		push	{r4, lr}
 299              	.LCFI4:
 300              		.cfi_def_cfa_offset 8
 301              		.cfi_offset 4, -8
 302              		.cfi_offset 14, -4
 303              	.LBB22:
 304              		.loc 1 222 0
 305 0002 2023     		movs	r3, #32
 306              	.LVL20:
 307              	@ 222 "../../os/kernel/src/chthreads.c" 1
 308 0004 83F31188 		msr     BASEPRI, r3
 309              	@ 0 "" 2
 310              	.LVL21:
 311              		.thumb
 312              	.LBE22:
 313              		.loc 1 224 0
 314 0008 084B     		ldr	r3, .L8
 315              	.LVL22:
 316 000a 9A69     		ldr	r2, [r3, #24]
 317 000c 146C     		ldr	r4, [r2, #64]
 318              	.LVL23:
 319              		.loc 1 225 0
 320 000e 9168     		ldr	r1, [r2, #8]
 321 0010 8C42     		cmp	r4, r1
 322 0012 01D0     		beq	.L5
 323              		.loc 1 225 0 is_stmt 0 discriminator 1
 324 0014 8142     		cmp	r1, r0
 325 0016 00D2     		bcs	.L6
 326              	.L5:
 327              		.loc 1 226 0 is_stmt 1
 328 0018 9060     		str	r0, [r2, #8]
 329              	.L6:
 330              		.loc 1 227 0
 331 001a 1064     		str	r0, [r2, #64]
 332              		.loc 1 232 0
 333 001c FFF7FEFF 		bl	chSchRescheduleS
 334              	.LVL24:
 335              	.LBB23:
 336              		.loc 1 233 0
 337 0020 0023     		movs	r3, #0
ARM GAS  C:\Users\jenny\AppData\Local\Temp\cckA4Rj6.s 			page 7


 338              	.LVL25:
 339              	@ 233 "../../os/kernel/src/chthreads.c" 1
 340 0022 83F31188 		msr     BASEPRI, r3
 341              	@ 0 "" 2
 342              	.LVL26:
 343              		.thumb
 344              	.LBE23:
 345              		.loc 1 235 0
 346 0026 2046     		mov	r0, r4
 347 0028 10BD     		pop	{r4, pc}
 348              	.L9:
 349 002a 00BF     		.align	2
 350              	.L8:
 351 002c 00000000 		.word	rlist
 352              		.cfi_endproc
 353              	.LFE10:
 354              		.size	chThdSetPriority, .-chThdSetPriority
 355              		.section	.text.chThdResume,"ax",%progbits
 356              		.align	2
 357              		.p2align 4,,15
 358              		.global	chThdResume
 359              		.thumb
 360              		.thumb_func
 361              		.type	chThdResume, %function
 362              	chThdResume:
 363              	.LFB11:
 364              		.loc 1 250 0
 365              		.cfi_startproc
 366              		@ args = 0, pretend = 0, frame = 0
 367              		@ frame_needed = 0, uses_anonymous_args = 0
 368              	.LVL27:
 369 0000 10B5     		push	{r4, lr}
 370              	.LCFI5:
 371              		.cfi_def_cfa_offset 8
 372              		.cfi_offset 4, -8
 373              		.cfi_offset 14, -4
 374              	.LBB24:
 375              		.loc 1 252 0
 376 0002 2023     		movs	r3, #32
 377              	.LVL28:
 378              	.LBE24:
 379              		.loc 1 250 0
 380 0004 0446     		mov	r4, r0
 381              	.LBB25:
 382              		.loc 1 252 0
 383              	@ 252 "../../os/kernel/src/chthreads.c" 1
 384 0006 83F31188 		msr     BASEPRI, r3
 385              	@ 0 "" 2
 386              	.LVL29:
 387              		.thumb
 388              	.LBE25:
 389              		.loc 1 256 0
 390 000a 0021     		movs	r1, #0
 391 000c FFF7FEFF 		bl	chSchWakeupS
 392              	.LVL30:
 393              	.LBB26:
 394              		.loc 1 257 0
ARM GAS  C:\Users\jenny\AppData\Local\Temp\cckA4Rj6.s 			page 8


 395 0010 0023     		movs	r3, #0
 396              	.LVL31:
 397              	@ 257 "../../os/kernel/src/chthreads.c" 1
 398 0012 83F31188 		msr     BASEPRI, r3
 399              	@ 0 "" 2
 400              	.LVL32:
 401              		.thumb
 402              	.LBE26:
 403              		.loc 1 259 0
 404 0016 2046     		mov	r0, r4
 405 0018 10BD     		pop	{r4, pc}
 406              		.cfi_endproc
 407              	.LFE11:
 408              		.size	chThdResume, .-chThdResume
 409 001a 00BFAFF3 		.section	.text.chThdTerminate,"ax",%progbits
 409      0080
 410              		.align	2
 411              		.p2align 4,,15
 412              		.global	chThdTerminate
 413              		.thumb
 414              		.thumb_func
 415              		.type	chThdTerminate, %function
 416              	chThdTerminate:
 417              	.LFB12:
 418              		.loc 1 273 0
 419              		.cfi_startproc
 420              		@ args = 0, pretend = 0, frame = 0
 421              		@ frame_needed = 0, uses_anonymous_args = 0
 422              		@ link register save eliminated.
 423              	.LVL33:
 424              	.LBB27:
 425              		.loc 1 275 0
 426 0000 2023     		movs	r3, #32
 427              	.LVL34:
 428              	@ 275 "../../os/kernel/src/chthreads.c" 1
 429 0002 83F31188 		msr     BASEPRI, r3
 430              	@ 0 "" 2
 431              	.LVL35:
 432              		.thumb
 433              	.LBE27:
 434              		.loc 1 276 0
 435 0006 437F     		ldrb	r3, [r0, #29]	@ zero_extendqisi2
 436              	.LVL36:
 437 0008 43F00401 		orr	r1, r3, #4
 438 000c 4177     		strb	r1, [r0, #29]
 439              	.LBB28:
 440              		.loc 1 277 0
 441 000e 0023     		movs	r3, #0
 442              	.LVL37:
 443              	@ 277 "../../os/kernel/src/chthreads.c" 1
 444 0010 83F31188 		msr     BASEPRI, r3
 445              	@ 0 "" 2
 446              	.LVL38:
 447              		.thumb
 448 0014 7047     		bx	lr
 449              	.LBE28:
 450              		.cfi_endproc
ARM GAS  C:\Users\jenny\AppData\Local\Temp\cckA4Rj6.s 			page 9


 451              	.LFE12:
 452              		.size	chThdTerminate, .-chThdTerminate
 453 0016 00BFAFF3 		.section	.text.chThdSleep,"ax",%progbits
 453      0080AFF3 
 453      0080
 454              		.align	2
 455              		.p2align 4,,15
 456              		.global	chThdSleep
 457              		.thumb
 458              		.thumb_func
 459              		.type	chThdSleep, %function
 460              	chThdSleep:
 461              	.LFB13:
 462              		.loc 1 292 0
 463              		.cfi_startproc
 464              		@ args = 0, pretend = 0, frame = 0
 465              		@ frame_needed = 0, uses_anonymous_args = 0
 466              	.LVL39:
 467 0000 08B5     		push	{r3, lr}
 468              	.LCFI6:
 469              		.cfi_def_cfa_offset 8
 470              		.cfi_offset 3, -8
 471              		.cfi_offset 14, -4
 472              		.loc 1 292 0
 473 0002 0146     		mov	r1, r0
 474              	.LBB29:
 475              		.loc 1 296 0
 476 0004 2023     		movs	r3, #32
 477              	.LVL40:
 478              	@ 296 "../../os/kernel/src/chthreads.c" 1
 479 0006 83F31188 		msr     BASEPRI, r3
 480              	@ 0 "" 2
 481              	.LVL41:
 482              		.thumb
 483              	.LBE29:
 484              		.loc 1 297 0
 485 000a 0620     		movs	r0, #6
 486              	.LVL42:
 487 000c FFF7FEFF 		bl	chSchGoSleepTimeoutS
 488              	.LVL43:
 489              	.LBB30:
 490              		.loc 1 298 0
 491 0010 0023     		movs	r3, #0
 492              	.LVL44:
 493              	@ 298 "../../os/kernel/src/chthreads.c" 1
 494 0012 83F31188 		msr     BASEPRI, r3
 495              	@ 0 "" 2
 496              	.LVL45:
 497              		.thumb
 498 0016 08BD     		pop	{r3, pc}
 499              	.LBE30:
 500              		.cfi_endproc
 501              	.LFE13:
 502              		.size	chThdSleep, .-chThdSleep
 503              		.section	.text.chThdSleepUntil,"ax",%progbits
 504              		.align	2
 505              		.p2align 4,,15
ARM GAS  C:\Users\jenny\AppData\Local\Temp\cckA4Rj6.s 			page 10


 506              		.global	chThdSleepUntil
 507              		.thumb
 508              		.thumb_func
 509              		.type	chThdSleepUntil, %function
 510              	chThdSleepUntil:
 511              	.LFB14:
 512              		.loc 1 309 0
 513              		.cfi_startproc
 514              		@ args = 0, pretend = 0, frame = 0
 515              		@ frame_needed = 0, uses_anonymous_args = 0
 516              	.LVL46:
 517 0000 08B5     		push	{r3, lr}
 518              	.LCFI7:
 519              		.cfi_def_cfa_offset 8
 520              		.cfi_offset 3, -8
 521              		.cfi_offset 14, -4
 522              	.LBB31:
 523              		.loc 1 311 0
 524 0002 2023     		movs	r3, #32
 525              	.LVL47:
 526              	@ 311 "../../os/kernel/src/chthreads.c" 1
 527 0004 83F31188 		msr     BASEPRI, r3
 528              	@ 0 "" 2
 529              	.LVL48:
 530              		.thumb
 531              	.LBE31:
 532              		.loc 1 312 0
 533 0008 054B     		ldr	r3, .L18
 534              	.LVL49:
 535 000a D968     		ldr	r1, [r3, #12]
 536              	.LVL50:
 537 000c 411A     		subs	r1, r0, r1
 538              	.LVL51:
 539 000e 02D0     		beq	.L14
 540              		.loc 1 313 0
 541 0010 0620     		movs	r0, #6
 542 0012 FFF7FEFF 		bl	chSchGoSleepTimeoutS
 543              	.LVL52:
 544              	.L14:
 545              	.LBB32:
 546              		.loc 1 314 0
 547 0016 0023     		movs	r3, #0
 548              	.LVL53:
 549              	@ 314 "../../os/kernel/src/chthreads.c" 1
 550 0018 83F31188 		msr     BASEPRI, r3
 551              	@ 0 "" 2
 552              	.LVL54:
 553              		.thumb
 554 001c 08BD     		pop	{r3, pc}
 555              	.L19:
 556 001e 00BF     		.align	2
 557              	.L18:
 558 0020 00000000 		.word	vtlist
 559              	.LBE32:
 560              		.cfi_endproc
 561              	.LFE14:
 562              		.size	chThdSleepUntil, .-chThdSleepUntil
ARM GAS  C:\Users\jenny\AppData\Local\Temp\cckA4Rj6.s 			page 11


 563 0024 AFF30080 		.section	.text.chThdYield,"ax",%progbits
 563      AFF30080 
 563      AFF30080 
 564              		.align	2
 565              		.p2align 4,,15
 566              		.global	chThdYield
 567              		.thumb
 568              		.thumb_func
 569              		.type	chThdYield, %function
 570              	chThdYield:
 571              	.LFB15:
 572              		.loc 1 324 0
 573              		.cfi_startproc
 574              		@ args = 0, pretend = 0, frame = 0
 575              		@ frame_needed = 0, uses_anonymous_args = 0
 576 0000 08B5     		push	{r3, lr}
 577              	.LCFI8:
 578              		.cfi_def_cfa_offset 8
 579              		.cfi_offset 3, -8
 580              		.cfi_offset 14, -4
 581              	.LBB33:
 582              		.loc 1 326 0
 583 0002 2023     		movs	r3, #32
 584              	.LVL55:
 585              	@ 326 "../../os/kernel/src/chthreads.c" 1
 586 0004 83F31188 		msr     BASEPRI, r3
 587              	@ 0 "" 2
 588              	.LVL56:
 589              		.thumb
 590              	.LBE33:
 591              		.loc 1 327 0
 592 0008 064B     		ldr	r3, .L22
 593              	.LVL57:
 594 000a 1A68     		ldr	r2, [r3, #0]
 595 000c 9869     		ldr	r0, [r3, #24]
 596 000e 9168     		ldr	r1, [r2, #8]
 597 0010 8368     		ldr	r3, [r0, #8]
 598 0012 9942     		cmp	r1, r3
 599 0014 01D3     		bcc	.L21
 600              		.loc 1 327 0 is_stmt 0 discriminator 1
 601 0016 FFF7FEFF 		bl	chSchDoRescheduleBehind
 602              	.LVL58:
 603              	.L21:
 604              	.LBB34:
 605              		.loc 1 328 0 is_stmt 1
 606 001a 0023     		movs	r3, #0
 607              	.LVL59:
 608              	@ 328 "../../os/kernel/src/chthreads.c" 1
 609 001c 83F31188 		msr     BASEPRI, r3
 610              	@ 0 "" 2
 611              	.LVL60:
 612              		.thumb
 613 0020 08BD     		pop	{r3, pc}
 614              	.L23:
 615 0022 00BF     		.align	2
 616              	.L22:
 617 0024 00000000 		.word	rlist
ARM GAS  C:\Users\jenny\AppData\Local\Temp\cckA4Rj6.s 			page 12


 618              	.LBE34:
 619              		.cfi_endproc
 620              	.LFE15:
 621              		.size	chThdYield, .-chThdYield
 622 0028 AFF30080 		.section	.text.chThdExitS,"ax",%progbits
 622      AFF30080 
 623              		.align	2
 624              		.p2align 4,,15
 625              		.global	chThdExitS
 626              		.thumb
 627              		.thumb_func
 628              		.type	chThdExitS, %function
 629              	chThdExitS:
 630              	.LFB17:
 631              		.loc 1 366 0
 632              		.cfi_startproc
 633              		@ args = 0, pretend = 0, frame = 0
 634              		@ frame_needed = 0, uses_anonymous_args = 0
 635              	.LVL61:
 636 0000 38B5     		push	{r3, r4, r5, lr}
 637              	.LCFI9:
 638              		.cfi_def_cfa_offset 16
 639              		.cfi_offset 3, -16
 640              		.cfi_offset 4, -12
 641              		.cfi_offset 5, -8
 642              		.cfi_offset 14, -4
 643              		.loc 1 367 0
 644 0002 0E4B     		ldr	r3, .L32
 645 0004 9C69     		ldr	r4, [r3, #24]
 646              	.LVL62:
 647              		.loc 1 374 0
 648 0006 2546     		mov	r5, r4
 649              		.loc 1 369 0
 650 0008 6062     		str	r0, [r4, #36]
 651              		.loc 1 374 0
 652 000a 55F8280F 		ldr	r0, [r5, #40]!
 653              	.LVL63:
 654 000e A842     		cmp	r0, r5
 655 0010 06D0     		beq	.L29
 656              	.LVL64:
 657              	.L30:
 658              	.LBB35:
 659              	.LBB36:
 660              		.file 2 "../../os/kernel/include/chinline.h"
 661              		.loc 2 89 0
 662 0012 0168     		ldr	r1, [r0, #0]
 663 0014 A162     		str	r1, [r4, #40]
 664              	.LBE36:
 665              	.LBE35:
 666              		.loc 1 375 0
 667 0016 FFF7FEFF 		bl	chSchReadyI
 668              	.LVL65:
 669              		.loc 1 374 0
 670 001a A06A     		ldr	r0, [r4, #40]
 671 001c A842     		cmp	r0, r5
 672 001e F8D1     		bne	.L30
 673              	.LVL66:
ARM GAS  C:\Users\jenny\AppData\Local\Temp\cckA4Rj6.s 			page 13


 674              	.L29:
 675              		.loc 1 380 0
 676 0020 607F     		ldrb	r0, [r4, #29]	@ zero_extendqisi2
 677 0022 8307     		lsls	r3, r0, #30
 678 0024 04D1     		bne	.L27
 679              		.loc 1 381 0
 680 0026 6369     		ldr	r3, [r4, #20]
 681 0028 2269     		ldr	r2, [r4, #16]
 682 002a 1A61     		str	r2, [r3, #16]
 683 002c 2169     		ldr	r1, [r4, #16]
 684 002e 4B61     		str	r3, [r1, #20]
 685              	.L27:
 686              		.loc 1 383 0
 687 0030 0E20     		movs	r0, #14
 688              		.loc 1 386 0
 689 0032 BDE83840 		pop	{r3, r4, r5, lr}
 690              		.loc 1 383 0
 691 0036 FFF7FEBF 		b	chSchGoSleepS
 692              	.LVL67:
 693              	.L33:
 694 003a 00BF     		.align	2
 695              	.L32:
 696 003c 00000000 		.word	rlist
 697              		.cfi_endproc
 698              	.LFE17:
 699              		.size	chThdExitS, .-chThdExitS
 700              		.section	.text.chThdExit,"ax",%progbits
 701              		.align	2
 702              		.p2align 4,,15
 703              		.global	chThdExit
 704              		.thumb
 705              		.thumb_func
 706              		.type	chThdExit, %function
 707              	chThdExit:
 708              	.LFB16:
 709              		.loc 1 345 0
 710              		.cfi_startproc
 711              		@ args = 0, pretend = 0, frame = 0
 712              		@ frame_needed = 0, uses_anonymous_args = 0
 713              		@ link register save eliminated.
 714              	.LVL68:
 715              	.LBB37:
 716              		.loc 1 347 0
 717 0000 2023     		movs	r3, #32
 718              	.LVL69:
 719              	@ 347 "../../os/kernel/src/chthreads.c" 1
 720 0002 83F31188 		msr     BASEPRI, r3
 721              	@ 0 "" 2
 722              	.LVL70:
 723              		.thumb
 724              	.LBE37:
 725              		.loc 1 350 0
 726              		.loc 1 348 0
 727 0006 FFF7FEBF 		b	chThdExitS
 728              	.LVL71:
 729              		.cfi_endproc
 730              	.LFE16:
ARM GAS  C:\Users\jenny\AppData\Local\Temp\cckA4Rj6.s 			page 14


 731              		.size	chThdExit, .-chThdExit
 732 000a 00BFAFF3 		.section	.text.chThdWait,"ax",%progbits
 732      0080
 733              		.align	2
 734              		.p2align 4,,15
 735              		.global	chThdWait
 736              		.thumb
 737              		.thumb_func
 738              		.type	chThdWait, %function
 739              	chThdWait:
 740              	.LFB18:
 741              		.loc 1 420 0
 742              		.cfi_startproc
 743              		@ args = 0, pretend = 0, frame = 0
 744              		@ frame_needed = 0, uses_anonymous_args = 0
 745              	.LVL72:
 746 0000 38B5     		push	{r3, r4, r5, lr}
 747              	.LCFI10:
 748              		.cfi_def_cfa_offset 16
 749              		.cfi_offset 3, -16
 750              		.cfi_offset 4, -12
 751              		.cfi_offset 5, -8
 752              		.cfi_offset 14, -4
 753              		.loc 1 420 0
 754 0002 0446     		mov	r4, r0
 755              	.LBB38:
 756              		.loc 1 425 0
 757 0004 2023     		movs	r3, #32
 758              	.LVL73:
 759              	@ 425 "../../os/kernel/src/chthreads.c" 1
 760 0006 83F31188 		msr     BASEPRI, r3
 761              	@ 0 "" 2
 762              	.LVL74:
 763              		.thumb
 764              	.LBE38:
 765              		.loc 1 430 0
 766 000a 037F     		ldrb	r3, [r0, #28]	@ zero_extendqisi2
 767              	.LVL75:
 768 000c 0E2B     		cmp	r3, #14
 769 000e 07D0     		beq	.L36
 770              	.LBB39:
 771              	.LBB40:
 772              		.loc 2 82 0
 773 0010 826A     		ldr	r2, [r0, #40]
 774              	.LBE40:
 775              	.LBE39:
 776              		.loc 1 431 0
 777 0012 0848     		ldr	r0, .L40
 778              	.LVL76:
 779 0014 8169     		ldr	r1, [r0, #24]
 780              	.LVL77:
 781              		.loc 1 432 0
 782 0016 0720     		movs	r0, #7
 783              	.LBB42:
 784              	.LBB41:
 785              		.loc 2 82 0
 786 0018 0A60     		str	r2, [r1, #0]
ARM GAS  C:\Users\jenny\AppData\Local\Temp\cckA4Rj6.s 			page 15


 787              		.loc 2 83 0
 788 001a A162     		str	r1, [r4, #40]
 789              	.LBE41:
 790              	.LBE42:
 791              		.loc 1 432 0
 792 001c FFF7FEFF 		bl	chSchGoSleepS
 793              	.LVL78:
 794              	.L36:
 795              		.loc 1 434 0
 796 0020 656A     		ldr	r5, [r4, #36]
 797              	.LVL79:
 798              	.LBB43:
 799              		.loc 1 435 0
 800 0022 0023     		movs	r3, #0
 801              	.LVL80:
 802              	@ 435 "../../os/kernel/src/chthreads.c" 1
 803 0024 83F31188 		msr     BASEPRI, r3
 804              	@ 0 "" 2
 805              	.LVL81:
 806              		.thumb
 807              	.LBE43:
 808              		.loc 1 437 0
 809 0028 2046     		mov	r0, r4
 810 002a FFF7FEFF 		bl	chThdRelease
 811              	.LVL82:
 812              		.loc 1 440 0
 813 002e 2846     		mov	r0, r5
 814 0030 38BD     		pop	{r3, r4, r5, pc}
 815              	.L41:
 816 0032 00BF     		.align	2
 817              	.L40:
 818 0034 00000000 		.word	rlist
 819              		.cfi_endproc
 820              	.LFE18:
 821              		.size	chThdWait, .-chThdWait
 822 0038 AFF30080 		.text
 822      AFF30080 
 823              	.Letext0:
 824              		.file 3 "c:\\fbin\\yagarto\\bin\\../lib/gcc/arm-none-eabi/4.7.4/include/stddef.h"
 825              		.file 4 "c:\\fbin\\yagarto\\bin\\../lib/gcc/arm-none-eabi/4.7.4/../../../../arm-none-eabi/include/
 826              		.file 5 "../../os/ports/GCC/ARMCMx/chtypes.h"
 827              		.file 6 "../../os/kernel/include/chlists.h"
 828              		.file 7 "../../os/kernel/include/chthreads.h"
 829              		.file 8 "../../os/ports/GCC/ARMCMx/chcore_v7m.h"
 830              		.file 9 "../../os/kernel/include/chvt.h"
 831              		.file 10 "../../os/kernel/include/chschd.h"
 832              		.file 11 "../../os/kernel/include/chmtx.h"
 833              		.file 12 "../../os/kernel/include/chdynamic.h"
 834              		.section	.debug_info,"",%progbits
 835              	.Ldebug_info0:
 836 0000 370D0000 		.4byte	0xd37
 837 0004 0200     		.2byte	0x2
 838 0006 00000000 		.4byte	.Ldebug_abbrev0
 839 000a 04       		.byte	0x4
 840 000b 01       		.uleb128 0x1
 841 000c 9C000000 		.4byte	.LASF99
 842 0010 01       		.byte	0x1
ARM GAS  C:\Users\jenny\AppData\Local\Temp\cckA4Rj6.s 			page 16


 843 0011 EE030000 		.4byte	.LASF100
 844 0015 0E040000 		.4byte	.LASF101
 845 0019 60000000 		.4byte	.Ldebug_ranges0+0x60
 846 001d 00000000 		.4byte	0
 847 0021 00000000 		.4byte	0
 848 0025 00000000 		.4byte	.Ldebug_line0
 849 0029 02       		.uleb128 0x2
 850 002a 04       		.byte	0x4
 851 002b 05       		.byte	0x5
 852 002c 696E7400 		.ascii	"int\000"
 853 0030 03       		.uleb128 0x3
 854 0031 0E000000 		.4byte	.LASF2
 855 0035 03       		.byte	0x3
 856 0036 D5       		.byte	0xd5
 857 0037 3B000000 		.4byte	0x3b
 858 003b 04       		.uleb128 0x4
 859 003c 04       		.byte	0x4
 860 003d 07       		.byte	0x7
 861 003e 4F010000 		.4byte	.LASF0
 862 0042 04       		.uleb128 0x4
 863 0043 01       		.byte	0x1
 864 0044 06       		.byte	0x6
 865 0045 5F000000 		.4byte	.LASF1
 866 0049 03       		.uleb128 0x3
 867 004a E6030000 		.4byte	.LASF3
 868 004e 04       		.byte	0x4
 869 004f 2A       		.byte	0x2a
 870 0050 54000000 		.4byte	0x54
 871 0054 04       		.uleb128 0x4
 872 0055 01       		.byte	0x1
 873 0056 08       		.byte	0x8
 874 0057 BD020000 		.4byte	.LASF4
 875 005b 04       		.uleb128 0x4
 876 005c 02       		.byte	0x2
 877 005d 05       		.byte	0x5
 878 005e D5020000 		.4byte	.LASF5
 879 0062 04       		.uleb128 0x4
 880 0063 02       		.byte	0x2
 881 0064 07       		.byte	0x7
 882 0065 90010000 		.4byte	.LASF6
 883 0069 03       		.uleb128 0x3
 884 006a B5020000 		.4byte	.LASF7
 885 006e 04       		.byte	0x4
 886 006f 4F       		.byte	0x4f
 887 0070 74000000 		.4byte	0x74
 888 0074 04       		.uleb128 0x4
 889 0075 04       		.byte	0x4
 890 0076 05       		.byte	0x5
 891 0077 E5000000 		.4byte	.LASF8
 892 007b 03       		.uleb128 0x3
 893 007c 3B030000 		.4byte	.LASF9
 894 0080 04       		.byte	0x4
 895 0081 50       		.byte	0x50
 896 0082 86000000 		.4byte	0x86
 897 0086 04       		.uleb128 0x4
 898 0087 04       		.byte	0x4
 899 0088 07       		.byte	0x7
ARM GAS  C:\Users\jenny\AppData\Local\Temp\cckA4Rj6.s 			page 17


 900 0089 64010000 		.4byte	.LASF10
 901 008d 04       		.uleb128 0x4
 902 008e 08       		.byte	0x8
 903 008f 05       		.byte	0x5
 904 0090 51000000 		.4byte	.LASF11
 905 0094 04       		.uleb128 0x4
 906 0095 08       		.byte	0x8
 907 0096 07       		.byte	0x7
 908 0097 33000000 		.4byte	.LASF12
 909 009b 04       		.uleb128 0x4
 910 009c 01       		.byte	0x1
 911 009d 02       		.byte	0x2
 912 009e AF020000 		.4byte	.LASF13
 913 00a2 03       		.uleb128 0x3
 914 00a3 BE010000 		.4byte	.LASF14
 915 00a7 05       		.byte	0x5
 916 00a8 2C       		.byte	0x2c
 917 00a9 49000000 		.4byte	0x49
 918 00ad 03       		.uleb128 0x3
 919 00ae EE000000 		.4byte	.LASF15
 920 00b2 05       		.byte	0x5
 921 00b3 2D       		.byte	0x2d
 922 00b4 49000000 		.4byte	0x49
 923 00b8 03       		.uleb128 0x3
 924 00b9 98020000 		.4byte	.LASF16
 925 00bd 05       		.byte	0x5
 926 00be 2E       		.byte	0x2e
 927 00bf 49000000 		.4byte	0x49
 928 00c3 03       		.uleb128 0x3
 929 00c4 85000000 		.4byte	.LASF17
 930 00c8 05       		.byte	0x5
 931 00c9 2F       		.byte	0x2f
 932 00ca 49000000 		.4byte	0x49
 933 00ce 03       		.uleb128 0x3
 934 00cf A7020000 		.4byte	.LASF18
 935 00d3 05       		.byte	0x5
 936 00d4 30       		.byte	0x30
 937 00d5 7B000000 		.4byte	0x7b
 938 00d9 03       		.uleb128 0x3
 939 00da B0010000 		.4byte	.LASF19
 940 00de 05       		.byte	0x5
 941 00df 31       		.byte	0x31
 942 00e0 69000000 		.4byte	0x69
 943 00e4 03       		.uleb128 0x3
 944 00e5 E1010000 		.4byte	.LASF20
 945 00e9 05       		.byte	0x5
 946 00ea 33       		.byte	0x33
 947 00eb 7B000000 		.4byte	0x7b
 948 00ef 03       		.uleb128 0x3
 949 00f0 71030000 		.4byte	.LASF21
 950 00f4 05       		.byte	0x5
 951 00f5 35       		.byte	0x35
 952 00f6 7B000000 		.4byte	0x7b
 953 00fa 03       		.uleb128 0x3
 954 00fb 1B030000 		.4byte	.LASF22
 955 00ff 06       		.byte	0x6
 956 0100 2A       		.byte	0x2a
ARM GAS  C:\Users\jenny\AppData\Local\Temp\cckA4Rj6.s 			page 18


 957 0101 05010000 		.4byte	0x105
 958 0105 05       		.uleb128 0x5
 959 0106 1B030000 		.4byte	.LASF22
 960 010a 48       		.byte	0x48
 961 010b 07       		.byte	0x7
 962 010c 5E       		.byte	0x5e
 963 010d 2A020000 		.4byte	0x22a
 964 0111 06       		.uleb128 0x6
 965 0112 FF020000 		.4byte	.LASF23
 966 0116 07       		.byte	0x7
 967 0117 5F       		.byte	0x5f
 968 0118 4F020000 		.4byte	0x24f
 969 011c 02       		.byte	0x2
 970 011d 23       		.byte	0x23
 971 011e 00       		.uleb128 0
 972 011f 06       		.uleb128 0x6
 973 0120 A0020000 		.4byte	.LASF24
 974 0124 07       		.byte	0x7
 975 0125 61       		.byte	0x61
 976 0126 4F020000 		.4byte	0x24f
 977 012a 02       		.byte	0x2
 978 012b 23       		.byte	0x23
 979 012c 04       		.uleb128 0x4
 980 012d 06       		.uleb128 0x6
 981 012e 4A000000 		.4byte	.LASF25
 982 0132 07       		.byte	0x7
 983 0133 63       		.byte	0x63
 984 0134 CE000000 		.4byte	0xce
 985 0138 02       		.byte	0x2
 986 0139 23       		.byte	0x23
 987 013a 08       		.uleb128 0x8
 988 013b 06       		.uleb128 0x6
 989 013c 9E040000 		.4byte	.LASF26
 990 0140 07       		.byte	0x7
 991 0141 64       		.byte	0x64
 992 0142 0D040000 		.4byte	0x40d
 993 0146 02       		.byte	0x2
 994 0147 23       		.byte	0x23
 995 0148 0C       		.uleb128 0xc
 996 0149 06       		.uleb128 0x6
 997 014a F7000000 		.4byte	.LASF27
 998 014e 07       		.byte	0x7
 999 014f 66       		.byte	0x66
 1000 0150 4F020000 		.4byte	0x24f
 1001 0154 02       		.byte	0x2
 1002 0155 23       		.byte	0x23
 1003 0156 10       		.uleb128 0x10
 1004 0157 06       		.uleb128 0x6
 1005 0158 4A020000 		.4byte	.LASF28
 1006 015c 07       		.byte	0x7
 1007 015d 67       		.byte	0x67
 1008 015e 4F020000 		.4byte	0x24f
 1009 0162 02       		.byte	0x2
 1010 0163 23       		.byte	0x23
 1011 0164 14       		.uleb128 0x14
 1012 0165 06       		.uleb128 0x6
 1013 0166 68040000 		.4byte	.LASF29
ARM GAS  C:\Users\jenny\AppData\Local\Temp\cckA4Rj6.s 			page 19


 1014 016a 07       		.byte	0x7
 1015 016b 6E       		.byte	0x6e
 1016 016c EE050000 		.4byte	0x5ee
 1017 0170 02       		.byte	0x2
 1018 0171 23       		.byte	0x23
 1019 0172 18       		.uleb128 0x18
 1020 0173 06       		.uleb128 0x6
 1021 0174 DF020000 		.4byte	.LASF30
 1022 0178 07       		.byte	0x7
 1023 0179 79       		.byte	0x79
 1024 017a AD000000 		.4byte	0xad
 1025 017e 02       		.byte	0x2
 1026 017f 23       		.byte	0x23
 1027 0180 1C       		.uleb128 0x1c
 1028 0181 06       		.uleb128 0x6
 1029 0182 06030000 		.4byte	.LASF31
 1030 0186 07       		.byte	0x7
 1031 0187 7D       		.byte	0x7d
 1032 0188 A2000000 		.4byte	0xa2
 1033 018c 02       		.byte	0x2
 1034 018d 23       		.byte	0x23
 1035 018e 1D       		.uleb128 0x1d
 1036 018f 06       		.uleb128 0x6
 1037 0190 CF030000 		.4byte	.LASF32
 1038 0194 07       		.byte	0x7
 1039 0195 82       		.byte	0x82
 1040 0196 B8000000 		.4byte	0xb8
 1041 019a 02       		.byte	0x2
 1042 019b 23       		.byte	0x23
 1043 019c 1E       		.uleb128 0x1e
 1044 019d 06       		.uleb128 0x6
 1045 019e E7020000 		.4byte	.LASF33
 1046 01a2 07       		.byte	0x7
 1047 01a3 88       		.byte	0x88
 1048 01a4 C3000000 		.4byte	0xc3
 1049 01a8 02       		.byte	0x2
 1050 01a9 23       		.byte	0x23
 1051 01aa 1F       		.uleb128 0x1f
 1052 01ab 06       		.uleb128 0x6
 1053 01ac 9A030000 		.4byte	.LASF34
 1054 01b0 07       		.byte	0x7
 1055 01b1 8F       		.byte	0x8f
 1056 01b2 F9040000 		.4byte	0x4f9
 1057 01b6 02       		.byte	0x2
 1058 01b7 23       		.byte	0x23
 1059 01b8 20       		.uleb128 0x20
 1060 01b9 07       		.uleb128 0x7
 1061 01ba 705F7500 		.ascii	"p_u\000"
 1062 01be 07       		.byte	0x7
 1063 01bf B4       		.byte	0xb4
 1064 01c0 B9050000 		.4byte	0x5b9
 1065 01c4 02       		.byte	0x2
 1066 01c5 23       		.byte	0x23
 1067 01c6 24       		.uleb128 0x24
 1068 01c7 06       		.uleb128 0x6
 1069 01c8 A4040000 		.4byte	.LASF35
 1070 01cc 07       		.byte	0x7
ARM GAS  C:\Users\jenny\AppData\Local\Temp\cckA4Rj6.s 			page 20


 1071 01cd B9       		.byte	0xb9
 1072 01ce 77020000 		.4byte	0x277
 1073 01d2 02       		.byte	0x2
 1074 01d3 23       		.byte	0x23
 1075 01d4 28       		.uleb128 0x28
 1076 01d5 06       		.uleb128 0x6
 1077 01d6 A8030000 		.4byte	.LASF36
 1078 01da 07       		.byte	0x7
 1079 01db BF       		.byte	0xbf
 1080 01dc 55020000 		.4byte	0x255
 1081 01e0 02       		.byte	0x2
 1082 01e1 23       		.byte	0x23
 1083 01e2 2C       		.uleb128 0x2c
 1084 01e3 06       		.uleb128 0x6
 1085 01e4 08000000 		.4byte	.LASF37
 1086 01e8 07       		.byte	0x7
 1087 01e9 C3       		.byte	0xc3
 1088 01ea D9000000 		.4byte	0xd9
 1089 01ee 02       		.byte	0x2
 1090 01ef 23       		.byte	0x23
 1091 01f0 34       		.uleb128 0x34
 1092 01f1 06       		.uleb128 0x6
 1093 01f2 30030000 		.4byte	.LASF38
 1094 01f6 07       		.byte	0x7
 1095 01f7 C9       		.byte	0xc9
 1096 01f8 E4000000 		.4byte	0xe4
 1097 01fc 02       		.byte	0x2
 1098 01fd 23       		.byte	0x23
 1099 01fe 38       		.uleb128 0x38
 1100 01ff 06       		.uleb128 0x6
 1101 0200 CB020000 		.4byte	.LASF39
 1102 0204 07       		.byte	0x7
 1103 0205 D0       		.byte	0xd0
 1104 0206 00060000 		.4byte	0x600
 1105 020a 02       		.byte	0x2
 1106 020b 23       		.byte	0x23
 1107 020c 3C       		.uleb128 0x3c
 1108 020d 06       		.uleb128 0x6
 1109 020e 7B030000 		.4byte	.LASF40
 1110 0212 07       		.byte	0x7
 1111 0213 D4       		.byte	0xd4
 1112 0214 CE000000 		.4byte	0xce
 1113 0218 02       		.byte	0x2
 1114 0219 23       		.byte	0x23
 1115 021a 40       		.uleb128 0x40
 1116 021b 06       		.uleb128 0x6
 1117 021c 75000000 		.4byte	.LASF41
 1118 0220 07       		.byte	0x7
 1119 0221 DA       		.byte	0xda
 1120 0222 8D020000 		.4byte	0x28d
 1121 0226 02       		.byte	0x2
 1122 0227 23       		.byte	0x23
 1123 0228 44       		.uleb128 0x44
 1124 0229 00       		.byte	0
 1125 022a 08       		.uleb128 0x8
 1126 022b 08       		.byte	0x8
 1127 022c 06       		.byte	0x6
ARM GAS  C:\Users\jenny\AppData\Local\Temp\cckA4Rj6.s 			page 21


 1128 022d 61       		.byte	0x61
 1129 022e 4F020000 		.4byte	0x24f
 1130 0232 06       		.uleb128 0x6
 1131 0233 FF020000 		.4byte	.LASF23
 1132 0237 06       		.byte	0x6
 1133 0238 62       		.byte	0x62
 1134 0239 4F020000 		.4byte	0x24f
 1135 023d 02       		.byte	0x2
 1136 023e 23       		.byte	0x23
 1137 023f 00       		.uleb128 0
 1138 0240 06       		.uleb128 0x6
 1139 0241 A0020000 		.4byte	.LASF24
 1140 0245 06       		.byte	0x6
 1141 0246 64       		.byte	0x64
 1142 0247 4F020000 		.4byte	0x24f
 1143 024b 02       		.byte	0x2
 1144 024c 23       		.byte	0x23
 1145 024d 04       		.uleb128 0x4
 1146 024e 00       		.byte	0
 1147 024f 09       		.uleb128 0x9
 1148 0250 04       		.byte	0x4
 1149 0251 FA000000 		.4byte	0xfa
 1150 0255 03       		.uleb128 0x3
 1151 0256 58020000 		.4byte	.LASF42
 1152 025a 06       		.byte	0x6
 1153 025b 66       		.byte	0x66
 1154 025c 2A020000 		.4byte	0x22a
 1155 0260 08       		.uleb128 0x8
 1156 0261 04       		.byte	0x4
 1157 0262 06       		.byte	0x6
 1158 0263 6B       		.byte	0x6b
 1159 0264 77020000 		.4byte	0x277
 1160 0268 06       		.uleb128 0x6
 1161 0269 FF020000 		.4byte	.LASF23
 1162 026d 06       		.byte	0x6
 1163 026e 6D       		.byte	0x6d
 1164 026f 4F020000 		.4byte	0x24f
 1165 0273 02       		.byte	0x2
 1166 0274 23       		.byte	0x23
 1167 0275 00       		.uleb128 0
 1168 0276 00       		.byte	0
 1169 0277 03       		.uleb128 0x3
 1170 0278 D5010000 		.4byte	.LASF43
 1171 027c 06       		.byte	0x6
 1172 027d 70       		.byte	0x70
 1173 027e 60020000 		.4byte	0x260
 1174 0282 03       		.uleb128 0x3
 1175 0283 2D010000 		.4byte	.LASF44
 1176 0287 08       		.byte	0x8
 1177 0288 E5       		.byte	0xe5
 1178 0289 8D020000 		.4byte	0x28d
 1179 028d 0A       		.uleb128 0xa
 1180 028e 04       		.byte	0x4
 1181 028f 0B       		.uleb128 0xb
 1182 0290 A1030000 		.4byte	.LASF45
 1183 0294 64       		.byte	0x64
 1184 0295 08       		.byte	0x8
ARM GAS  C:\Users\jenny\AppData\Local\Temp\cckA4Rj6.s 			page 22


 1185 0296 0C01     		.2byte	0x10c
 1186 0298 0D040000 		.4byte	0x40d
 1187 029c 0C       		.uleb128 0xc
 1188 029d 73313600 		.ascii	"s16\000"
 1189 02a1 08       		.byte	0x8
 1190 02a2 0E01     		.2byte	0x10e
 1191 02a4 82020000 		.4byte	0x282
 1192 02a8 02       		.byte	0x2
 1193 02a9 23       		.byte	0x23
 1194 02aa 00       		.uleb128 0
 1195 02ab 0C       		.uleb128 0xc
 1196 02ac 73313700 		.ascii	"s17\000"
 1197 02b0 08       		.byte	0x8
 1198 02b1 0F01     		.2byte	0x10f
 1199 02b3 82020000 		.4byte	0x282
 1200 02b7 02       		.byte	0x2
 1201 02b8 23       		.byte	0x23
 1202 02b9 04       		.uleb128 0x4
 1203 02ba 0C       		.uleb128 0xc
 1204 02bb 73313800 		.ascii	"s18\000"
 1205 02bf 08       		.byte	0x8
 1206 02c0 1001     		.2byte	0x110
 1207 02c2 82020000 		.4byte	0x282
 1208 02c6 02       		.byte	0x2
 1209 02c7 23       		.byte	0x23
 1210 02c8 08       		.uleb128 0x8
 1211 02c9 0C       		.uleb128 0xc
 1212 02ca 73313900 		.ascii	"s19\000"
 1213 02ce 08       		.byte	0x8
 1214 02cf 1101     		.2byte	0x111
 1215 02d1 82020000 		.4byte	0x282
 1216 02d5 02       		.byte	0x2
 1217 02d6 23       		.byte	0x23
 1218 02d7 0C       		.uleb128 0xc
 1219 02d8 0C       		.uleb128 0xc
 1220 02d9 73323000 		.ascii	"s20\000"
 1221 02dd 08       		.byte	0x8
 1222 02de 1201     		.2byte	0x112
 1223 02e0 82020000 		.4byte	0x282
 1224 02e4 02       		.byte	0x2
 1225 02e5 23       		.byte	0x23
 1226 02e6 10       		.uleb128 0x10
 1227 02e7 0C       		.uleb128 0xc
 1228 02e8 73323100 		.ascii	"s21\000"
 1229 02ec 08       		.byte	0x8
 1230 02ed 1301     		.2byte	0x113
 1231 02ef 82020000 		.4byte	0x282
 1232 02f3 02       		.byte	0x2
 1233 02f4 23       		.byte	0x23
 1234 02f5 14       		.uleb128 0x14
 1235 02f6 0C       		.uleb128 0xc
 1236 02f7 73323200 		.ascii	"s22\000"
 1237 02fb 08       		.byte	0x8
 1238 02fc 1401     		.2byte	0x114
 1239 02fe 82020000 		.4byte	0x282
 1240 0302 02       		.byte	0x2
 1241 0303 23       		.byte	0x23
ARM GAS  C:\Users\jenny\AppData\Local\Temp\cckA4Rj6.s 			page 23


 1242 0304 18       		.uleb128 0x18
 1243 0305 0C       		.uleb128 0xc
 1244 0306 73323300 		.ascii	"s23\000"
 1245 030a 08       		.byte	0x8
 1246 030b 1501     		.2byte	0x115
 1247 030d 82020000 		.4byte	0x282
 1248 0311 02       		.byte	0x2
 1249 0312 23       		.byte	0x23
 1250 0313 1C       		.uleb128 0x1c
 1251 0314 0C       		.uleb128 0xc
 1252 0315 73323400 		.ascii	"s24\000"
 1253 0319 08       		.byte	0x8
 1254 031a 1601     		.2byte	0x116
 1255 031c 82020000 		.4byte	0x282
 1256 0320 02       		.byte	0x2
 1257 0321 23       		.byte	0x23
 1258 0322 20       		.uleb128 0x20
 1259 0323 0C       		.uleb128 0xc
 1260 0324 73323500 		.ascii	"s25\000"
 1261 0328 08       		.byte	0x8
 1262 0329 1701     		.2byte	0x117
 1263 032b 82020000 		.4byte	0x282
 1264 032f 02       		.byte	0x2
 1265 0330 23       		.byte	0x23
 1266 0331 24       		.uleb128 0x24
 1267 0332 0C       		.uleb128 0xc
 1268 0333 73323600 		.ascii	"s26\000"
 1269 0337 08       		.byte	0x8
 1270 0338 1801     		.2byte	0x118
 1271 033a 82020000 		.4byte	0x282
 1272 033e 02       		.byte	0x2
 1273 033f 23       		.byte	0x23
 1274 0340 28       		.uleb128 0x28
 1275 0341 0C       		.uleb128 0xc
 1276 0342 73323700 		.ascii	"s27\000"
 1277 0346 08       		.byte	0x8
 1278 0347 1901     		.2byte	0x119
 1279 0349 82020000 		.4byte	0x282
 1280 034d 02       		.byte	0x2
 1281 034e 23       		.byte	0x23
 1282 034f 2C       		.uleb128 0x2c
 1283 0350 0C       		.uleb128 0xc
 1284 0351 73323800 		.ascii	"s28\000"
 1285 0355 08       		.byte	0x8
 1286 0356 1A01     		.2byte	0x11a
 1287 0358 82020000 		.4byte	0x282
 1288 035c 02       		.byte	0x2
 1289 035d 23       		.byte	0x23
 1290 035e 30       		.uleb128 0x30
 1291 035f 0C       		.uleb128 0xc
 1292 0360 73323900 		.ascii	"s29\000"
 1293 0364 08       		.byte	0x8
 1294 0365 1B01     		.2byte	0x11b
 1295 0367 82020000 		.4byte	0x282
 1296 036b 02       		.byte	0x2
 1297 036c 23       		.byte	0x23
 1298 036d 34       		.uleb128 0x34
ARM GAS  C:\Users\jenny\AppData\Local\Temp\cckA4Rj6.s 			page 24


 1299 036e 0C       		.uleb128 0xc
 1300 036f 73333000 		.ascii	"s30\000"
 1301 0373 08       		.byte	0x8
 1302 0374 1C01     		.2byte	0x11c
 1303 0376 82020000 		.4byte	0x282
 1304 037a 02       		.byte	0x2
 1305 037b 23       		.byte	0x23
 1306 037c 38       		.uleb128 0x38
 1307 037d 0C       		.uleb128 0xc
 1308 037e 73333100 		.ascii	"s31\000"
 1309 0382 08       		.byte	0x8
 1310 0383 1D01     		.2byte	0x11d
 1311 0385 82020000 		.4byte	0x282
 1312 0389 02       		.byte	0x2
 1313 038a 23       		.byte	0x23
 1314 038b 3C       		.uleb128 0x3c
 1315 038c 0C       		.uleb128 0xc
 1316 038d 723400   		.ascii	"r4\000"
 1317 0390 08       		.byte	0x8
 1318 0391 1F01     		.2byte	0x11f
 1319 0393 82020000 		.4byte	0x282
 1320 0397 02       		.byte	0x2
 1321 0398 23       		.byte	0x23
 1322 0399 40       		.uleb128 0x40
 1323 039a 0C       		.uleb128 0xc
 1324 039b 723500   		.ascii	"r5\000"
 1325 039e 08       		.byte	0x8
 1326 039f 2001     		.2byte	0x120
 1327 03a1 82020000 		.4byte	0x282
 1328 03a5 02       		.byte	0x2
 1329 03a6 23       		.byte	0x23
 1330 03a7 44       		.uleb128 0x44
 1331 03a8 0C       		.uleb128 0xc
 1332 03a9 723600   		.ascii	"r6\000"
 1333 03ac 08       		.byte	0x8
 1334 03ad 2101     		.2byte	0x121
 1335 03af 82020000 		.4byte	0x282
 1336 03b3 02       		.byte	0x2
 1337 03b4 23       		.byte	0x23
 1338 03b5 48       		.uleb128 0x48
 1339 03b6 0C       		.uleb128 0xc
 1340 03b7 723700   		.ascii	"r7\000"
 1341 03ba 08       		.byte	0x8
 1342 03bb 2201     		.2byte	0x122
 1343 03bd 82020000 		.4byte	0x282
 1344 03c1 02       		.byte	0x2
 1345 03c2 23       		.byte	0x23
 1346 03c3 4C       		.uleb128 0x4c
 1347 03c4 0C       		.uleb128 0xc
 1348 03c5 723800   		.ascii	"r8\000"
 1349 03c8 08       		.byte	0x8
 1350 03c9 2301     		.2byte	0x123
 1351 03cb 82020000 		.4byte	0x282
 1352 03cf 02       		.byte	0x2
 1353 03d0 23       		.byte	0x23
 1354 03d1 50       		.uleb128 0x50
 1355 03d2 0C       		.uleb128 0xc
ARM GAS  C:\Users\jenny\AppData\Local\Temp\cckA4Rj6.s 			page 25


 1356 03d3 723900   		.ascii	"r9\000"
 1357 03d6 08       		.byte	0x8
 1358 03d7 2401     		.2byte	0x124
 1359 03d9 82020000 		.4byte	0x282
 1360 03dd 02       		.byte	0x2
 1361 03de 23       		.byte	0x23
 1362 03df 54       		.uleb128 0x54
 1363 03e0 0C       		.uleb128 0xc
 1364 03e1 72313000 		.ascii	"r10\000"
 1365 03e5 08       		.byte	0x8
 1366 03e6 2501     		.2byte	0x125
 1367 03e8 82020000 		.4byte	0x282
 1368 03ec 02       		.byte	0x2
 1369 03ed 23       		.byte	0x23
 1370 03ee 58       		.uleb128 0x58
 1371 03ef 0C       		.uleb128 0xc
 1372 03f0 72313100 		.ascii	"r11\000"
 1373 03f4 08       		.byte	0x8
 1374 03f5 2601     		.2byte	0x126
 1375 03f7 82020000 		.4byte	0x282
 1376 03fb 02       		.byte	0x2
 1377 03fc 23       		.byte	0x23
 1378 03fd 5C       		.uleb128 0x5c
 1379 03fe 0C       		.uleb128 0xc
 1380 03ff 6C7200   		.ascii	"lr\000"
 1381 0402 08       		.byte	0x8
 1382 0403 2701     		.2byte	0x127
 1383 0405 82020000 		.4byte	0x282
 1384 0409 02       		.byte	0x2
 1385 040a 23       		.byte	0x23
 1386 040b 60       		.uleb128 0x60
 1387 040c 00       		.byte	0
 1388 040d 0B       		.uleb128 0xb
 1389 040e 83010000 		.4byte	.LASF46
 1390 0412 04       		.byte	0x4
 1391 0413 08       		.byte	0x8
 1392 0414 3101     		.2byte	0x131
 1393 0416 2A040000 		.4byte	0x42a
 1394 041a 0C       		.uleb128 0xc
 1395 041b 72313300 		.ascii	"r13\000"
 1396 041f 08       		.byte	0x8
 1397 0420 3201     		.2byte	0x132
 1398 0422 2A040000 		.4byte	0x42a
 1399 0426 02       		.byte	0x2
 1400 0427 23       		.byte	0x23
 1401 0428 00       		.uleb128 0
 1402 0429 00       		.byte	0
 1403 042a 09       		.uleb128 0x9
 1404 042b 04       		.byte	0x4
 1405 042c 8F020000 		.4byte	0x28f
 1406 0430 04       		.uleb128 0x4
 1407 0431 04       		.byte	0x4
 1408 0432 07       		.byte	0x7
 1409 0433 15020000 		.4byte	.LASF47
 1410 0437 03       		.uleb128 0x3
 1411 0438 86030000 		.4byte	.LASF48
 1412 043c 09       		.byte	0x9
ARM GAS  C:\Users\jenny\AppData\Local\Temp\cckA4Rj6.s 			page 26


 1413 043d 58       		.byte	0x58
 1414 043e 42040000 		.4byte	0x442
 1415 0442 09       		.uleb128 0x9
 1416 0443 04       		.byte	0x4
 1417 0444 48040000 		.4byte	0x448
 1418 0448 0D       		.uleb128 0xd
 1419 0449 01       		.byte	0x1
 1420 044a 54040000 		.4byte	0x454
 1421 044e 0E       		.uleb128 0xe
 1422 044f 8D020000 		.4byte	0x28d
 1423 0453 00       		.byte	0
 1424 0454 03       		.uleb128 0x3
 1425 0455 76010000 		.4byte	.LASF49
 1426 0459 09       		.byte	0x9
 1427 045a 5D       		.byte	0x5d
 1428 045b 5F040000 		.4byte	0x45f
 1429 045f 05       		.uleb128 0x5
 1430 0460 76010000 		.4byte	.LASF49
 1431 0464 14       		.byte	0x14
 1432 0465 09       		.byte	0x9
 1433 0466 64       		.byte	0x64
 1434 0467 B2040000 		.4byte	0x4b2
 1435 046b 06       		.uleb128 0x6
 1436 046c 5C010000 		.4byte	.LASF50
 1437 0470 09       		.byte	0x9
 1438 0471 65       		.byte	0x65
 1439 0472 B2040000 		.4byte	0x4b2
 1440 0476 02       		.byte	0x2
 1441 0477 23       		.byte	0x23
 1442 0478 00       		.uleb128 0
 1443 0479 06       		.uleb128 0x6
 1444 047a 36010000 		.4byte	.LASF51
 1445 047e 09       		.byte	0x9
 1446 047f 67       		.byte	0x67
 1447 0480 B2040000 		.4byte	0x4b2
 1448 0484 02       		.byte	0x2
 1449 0485 23       		.byte	0x23
 1450 0486 04       		.uleb128 0x4
 1451 0487 06       		.uleb128 0x6
 1452 0488 0D020000 		.4byte	.LASF52
 1453 048c 09       		.byte	0x9
 1454 048d 69       		.byte	0x69
 1455 048e EF000000 		.4byte	0xef
 1456 0492 02       		.byte	0x2
 1457 0493 23       		.byte	0x23
 1458 0494 08       		.uleb128 0x8
 1459 0495 06       		.uleb128 0x6
 1460 0496 1E020000 		.4byte	.LASF53
 1461 049a 09       		.byte	0x9
 1462 049b 6A       		.byte	0x6a
 1463 049c 37040000 		.4byte	0x437
 1464 04a0 02       		.byte	0x2
 1465 04a1 23       		.byte	0x23
 1466 04a2 0C       		.uleb128 0xc
 1467 04a3 06       		.uleb128 0x6
 1468 04a4 BD030000 		.4byte	.LASF54
 1469 04a8 09       		.byte	0x9
ARM GAS  C:\Users\jenny\AppData\Local\Temp\cckA4Rj6.s 			page 27


 1470 04a9 6C       		.byte	0x6c
 1471 04aa 8D020000 		.4byte	0x28d
 1472 04ae 02       		.byte	0x2
 1473 04af 23       		.byte	0x23
 1474 04b0 10       		.uleb128 0x10
 1475 04b1 00       		.byte	0
 1476 04b2 09       		.uleb128 0x9
 1477 04b3 04       		.byte	0x4
 1478 04b4 54040000 		.4byte	0x454
 1479 04b8 08       		.uleb128 0x8
 1480 04b9 10       		.byte	0x10
 1481 04ba 09       		.byte	0x9
 1482 04bb 76       		.byte	0x76
 1483 04bc F9040000 		.4byte	0x4f9
 1484 04c0 06       		.uleb128 0x6
 1485 04c1 5C010000 		.4byte	.LASF50
 1486 04c5 09       		.byte	0x9
 1487 04c6 77       		.byte	0x77
 1488 04c7 B2040000 		.4byte	0x4b2
 1489 04cb 02       		.byte	0x2
 1490 04cc 23       		.byte	0x23
 1491 04cd 00       		.uleb128 0
 1492 04ce 06       		.uleb128 0x6
 1493 04cf 36010000 		.4byte	.LASF51
 1494 04d3 09       		.byte	0x9
 1495 04d4 79       		.byte	0x79
 1496 04d5 B2040000 		.4byte	0x4b2
 1497 04d9 02       		.byte	0x2
 1498 04da 23       		.byte	0x23
 1499 04db 04       		.uleb128 0x4
 1500 04dc 06       		.uleb128 0x6
 1501 04dd 0D020000 		.4byte	.LASF52
 1502 04e1 09       		.byte	0x9
 1503 04e2 7B       		.byte	0x7b
 1504 04e3 EF000000 		.4byte	0xef
 1505 04e7 02       		.byte	0x2
 1506 04e8 23       		.byte	0x23
 1507 04e9 08       		.uleb128 0x8
 1508 04ea 06       		.uleb128 0x6
 1509 04eb 6F040000 		.4byte	.LASF55
 1510 04ef 09       		.byte	0x9
 1511 04f0 7C       		.byte	0x7c
 1512 04f1 F9040000 		.4byte	0x4f9
 1513 04f5 02       		.byte	0x2
 1514 04f6 23       		.byte	0x23
 1515 04f7 0C       		.uleb128 0xc
 1516 04f8 00       		.byte	0
 1517 04f9 0F       		.uleb128 0xf
 1518 04fa EF000000 		.4byte	0xef
 1519 04fe 03       		.uleb128 0x3
 1520 04ff 8F040000 		.4byte	.LASF56
 1521 0503 09       		.byte	0x9
 1522 0504 7D       		.byte	0x7d
 1523 0505 B8040000 		.4byte	0x4b8
 1524 0509 08       		.uleb128 0x8
 1525 050a 1C       		.byte	0x1c
 1526 050b 0A       		.byte	0xa
ARM GAS  C:\Users\jenny\AppData\Local\Temp\cckA4Rj6.s 			page 28


 1527 050c 5E       		.byte	0x5e
 1528 050d 66050000 		.4byte	0x566
 1529 0511 06       		.uleb128 0x6
 1530 0512 51030000 		.4byte	.LASF57
 1531 0516 0A       		.byte	0xa
 1532 0517 5F       		.byte	0x5f
 1533 0518 55020000 		.4byte	0x255
 1534 051c 02       		.byte	0x2
 1535 051d 23       		.byte	0x23
 1536 051e 00       		.uleb128 0
 1537 051f 06       		.uleb128 0x6
 1538 0520 F1020000 		.4byte	.LASF58
 1539 0524 0A       		.byte	0xa
 1540 0525 60       		.byte	0x60
 1541 0526 CE000000 		.4byte	0xce
 1542 052a 02       		.byte	0x2
 1543 052b 23       		.byte	0x23
 1544 052c 08       		.uleb128 0x8
 1545 052d 06       		.uleb128 0x6
 1546 052e 52020000 		.4byte	.LASF59
 1547 0532 0A       		.byte	0xa
 1548 0533 62       		.byte	0x62
 1549 0534 0D040000 		.4byte	0x40d
 1550 0538 02       		.byte	0x2
 1551 0539 23       		.byte	0x23
 1552 053a 0C       		.uleb128 0xc
 1553 053b 06       		.uleb128 0x6
 1554 053c 25010000 		.4byte	.LASF60
 1555 0540 0A       		.byte	0xa
 1556 0541 65       		.byte	0x65
 1557 0542 4F020000 		.4byte	0x24f
 1558 0546 02       		.byte	0x2
 1559 0547 23       		.byte	0x23
 1560 0548 10       		.uleb128 0x10
 1561 0549 06       		.uleb128 0x6
 1562 054a 80020000 		.4byte	.LASF61
 1563 054e 0A       		.byte	0xa
 1564 054f 66       		.byte	0x66
 1565 0550 4F020000 		.4byte	0x24f
 1566 0554 02       		.byte	0x2
 1567 0555 23       		.byte	0x23
 1568 0556 14       		.uleb128 0x14
 1569 0557 06       		.uleb128 0x6
 1570 0558 76020000 		.4byte	.LASF62
 1571 055c 0A       		.byte	0xa
 1572 055d 69       		.byte	0x69
 1573 055e 4F020000 		.4byte	0x24f
 1574 0562 02       		.byte	0x2
 1575 0563 23       		.byte	0x23
 1576 0564 18       		.uleb128 0x18
 1577 0565 00       		.byte	0
 1578 0566 03       		.uleb128 0x3
 1579 0567 D6030000 		.4byte	.LASF63
 1580 056b 0A       		.byte	0xa
 1581 056c 6B       		.byte	0x6b
 1582 056d 09050000 		.4byte	0x509
 1583 0571 05       		.uleb128 0x5
ARM GAS  C:\Users\jenny\AppData\Local\Temp\cckA4Rj6.s 			page 29


 1584 0572 ED010000 		.4byte	.LASF64
 1585 0576 10       		.byte	0x10
 1586 0577 0B       		.byte	0xb
 1587 0578 2C       		.byte	0x2c
 1588 0579 A8050000 		.4byte	0x5a8
 1589 057d 06       		.uleb128 0x6
 1590 057e 7D000000 		.4byte	.LASF65
 1591 0582 0B       		.byte	0xb
 1592 0583 2D       		.byte	0x2d
 1593 0584 55020000 		.4byte	0x255
 1594 0588 02       		.byte	0x2
 1595 0589 23       		.byte	0x23
 1596 058a 00       		.uleb128 0
 1597 058b 06       		.uleb128 0x6
 1598 058c 96040000 		.4byte	.LASF66
 1599 0590 0B       		.byte	0xb
 1600 0591 2F       		.byte	0x2f
 1601 0592 4F020000 		.4byte	0x24f
 1602 0596 02       		.byte	0x2
 1603 0597 23       		.byte	0x23
 1604 0598 08       		.uleb128 0x8
 1605 0599 06       		.uleb128 0x6
 1606 059a 6A030000 		.4byte	.LASF67
 1607 059e 0B       		.byte	0xb
 1608 059f 31       		.byte	0x31
 1609 05a0 A8050000 		.4byte	0x5a8
 1610 05a4 02       		.byte	0x2
 1611 05a5 23       		.byte	0x23
 1612 05a6 0C       		.uleb128 0xc
 1613 05a7 00       		.byte	0
 1614 05a8 09       		.uleb128 0x9
 1615 05a9 04       		.byte	0x4
 1616 05aa 71050000 		.4byte	0x571
 1617 05ae 03       		.uleb128 0x3
 1618 05af ED010000 		.4byte	.LASF64
 1619 05b3 0B       		.byte	0xb
 1620 05b4 33       		.byte	0x33
 1621 05b5 71050000 		.4byte	0x571
 1622 05b9 10       		.uleb128 0x10
 1623 05ba 04       		.byte	0x4
 1624 05bb 07       		.byte	0x7
 1625 05bc 96       		.byte	0x96
 1626 05bd EE050000 		.4byte	0x5ee
 1627 05c1 11       		.uleb128 0x11
 1628 05c2 1A000000 		.4byte	.LASF68
 1629 05c6 07       		.byte	0x7
 1630 05c7 9D       		.byte	0x9d
 1631 05c8 D9000000 		.4byte	0xd9
 1632 05cc 11       		.uleb128 0x11
 1633 05cd 0B010000 		.4byte	.LASF69
 1634 05d1 07       		.byte	0x7
 1635 05d2 A4       		.byte	0xa4
 1636 05d3 D9000000 		.4byte	0xd9
 1637 05d7 11       		.uleb128 0x11
 1638 05d8 61040000 		.4byte	.LASF70
 1639 05dc 07       		.byte	0x7
 1640 05dd AB       		.byte	0xab
ARM GAS  C:\Users\jenny\AppData\Local\Temp\cckA4Rj6.s 			page 30


 1641 05de 8D020000 		.4byte	0x28d
 1642 05e2 11       		.uleb128 0x11
 1643 05e3 F8020000 		.4byte	.LASF71
 1644 05e7 07       		.byte	0x7
 1645 05e8 B2       		.byte	0xb2
 1646 05e9 E4000000 		.4byte	0xe4
 1647 05ed 00       		.byte	0
 1648 05ee 09       		.uleb128 0x9
 1649 05ef 04       		.byte	0x4
 1650 05f0 F4050000 		.4byte	0x5f4
 1651 05f4 12       		.uleb128 0x12
 1652 05f5 F9050000 		.4byte	0x5f9
 1653 05f9 04       		.uleb128 0x4
 1654 05fa 01       		.byte	0x1
 1655 05fb 08       		.byte	0x8
 1656 05fc 59030000 		.4byte	.LASF72
 1657 0600 09       		.uleb128 0x9
 1658 0601 04       		.byte	0x4
 1659 0602 AE050000 		.4byte	0x5ae
 1660 0606 03       		.uleb128 0x3
 1661 0607 00000000 		.4byte	.LASF73
 1662 060b 07       		.byte	0x7
 1663 060c E5       		.byte	0xe5
 1664 060d 11060000 		.4byte	0x611
 1665 0611 09       		.uleb128 0x9
 1666 0612 04       		.byte	0x4
 1667 0613 17060000 		.4byte	0x617
 1668 0617 13       		.uleb128 0x13
 1669 0618 01       		.byte	0x1
 1670 0619 D9000000 		.4byte	0xd9
 1671 061d 27060000 		.4byte	0x627
 1672 0621 0E       		.uleb128 0xe
 1673 0622 8D020000 		.4byte	0x28d
 1674 0626 00       		.byte	0
 1675 0627 14       		.uleb128 0x14
 1676 0628 01       		.byte	0x1
 1677 0629 44030000 		.4byte	.LASF92
 1678 062d 01       		.byte	0x1
 1679 062e 4C       		.byte	0x4c
 1680 062f 01       		.byte	0x1
 1681 0630 4F020000 		.4byte	0x24f
 1682 0634 01       		.byte	0x1
 1683 0635 4F060000 		.4byte	0x64f
 1684 0639 15       		.uleb128 0x15
 1685 063a 747000   		.ascii	"tp\000"
 1686 063d 01       		.byte	0x1
 1687 063e 4C       		.byte	0x4c
 1688 063f 4F020000 		.4byte	0x24f
 1689 0643 16       		.uleb128 0x16
 1690 0644 15000000 		.4byte	.LASF74
 1691 0648 01       		.byte	0x1
 1692 0649 4C       		.byte	0x4c
 1693 064a CE000000 		.4byte	0xce
 1694 064e 00       		.byte	0
 1695 064f 17       		.uleb128 0x17
 1696 0650 FF000000 		.4byte	.LASF102
 1697 0654 02       		.byte	0x2
ARM GAS  C:\Users\jenny\AppData\Local\Temp\cckA4Rj6.s 			page 31


 1698 0655 56       		.byte	0x56
 1699 0656 01       		.byte	0x1
 1700 0657 4F020000 		.4byte	0x24f
 1701 065b 03       		.byte	0x3
 1702 065c 76060000 		.4byte	0x676
 1703 0660 15       		.uleb128 0x15
 1704 0661 746C7000 		.ascii	"tlp\000"
 1705 0665 02       		.byte	0x2
 1706 0666 56       		.byte	0x56
 1707 0667 76060000 		.4byte	0x676
 1708 066b 18       		.uleb128 0x18
 1709 066c 747000   		.ascii	"tp\000"
 1710 066f 02       		.byte	0x2
 1711 0670 58       		.byte	0x58
 1712 0671 4F020000 		.4byte	0x24f
 1713 0675 00       		.byte	0
 1714 0676 09       		.uleb128 0x9
 1715 0677 04       		.byte	0x4
 1716 0678 77020000 		.4byte	0x277
 1717 067c 19       		.uleb128 0x19
 1718 067d 6A020000 		.4byte	.LASF103
 1719 0681 02       		.byte	0x2
 1720 0682 50       		.byte	0x50
 1721 0683 01       		.byte	0x1
 1722 0684 03       		.byte	0x3
 1723 0685 9F060000 		.4byte	0x69f
 1724 0689 15       		.uleb128 0x15
 1725 068a 747000   		.ascii	"tp\000"
 1726 068d 02       		.byte	0x2
 1727 068e 50       		.byte	0x50
 1728 068f 4F020000 		.4byte	0x24f
 1729 0693 15       		.uleb128 0x15
 1730 0694 746C7000 		.ascii	"tlp\000"
 1731 0698 02       		.byte	0x2
 1732 0699 50       		.byte	0x50
 1733 069a 76060000 		.4byte	0x676
 1734 069e 00       		.byte	0
 1735 069f 1A       		.uleb128 0x1a
 1736 06a0 27060000 		.4byte	0x627
 1737 06a4 00000000 		.4byte	.LFB7
 1738 06a8 46000000 		.4byte	.LFE7
 1739 06ac 00000000 		.4byte	.LLST0
 1740 06b0 01       		.byte	0x1
 1741 06b1 C6060000 		.4byte	0x6c6
 1742 06b5 1B       		.uleb128 0x1b
 1743 06b6 39060000 		.4byte	0x639
 1744 06ba 01       		.byte	0x1
 1745 06bb 50       		.byte	0x50
 1746 06bc 1C       		.uleb128 0x1c
 1747 06bd 43060000 		.4byte	0x643
 1748 06c1 20000000 		.4byte	.LLST1
 1749 06c5 00       		.byte	0
 1750 06c6 1D       		.uleb128 0x1d
 1751 06c7 01       		.byte	0x1
 1752 06c8 8F000000 		.4byte	.LASF76
 1753 06cc 01       		.byte	0x1
 1754 06cd 9D       		.byte	0x9d
ARM GAS  C:\Users\jenny\AppData\Local\Temp\cckA4Rj6.s 			page 32


 1755 06ce 01       		.byte	0x1
 1756 06cf 4F020000 		.4byte	0x24f
 1757 06d3 00000000 		.4byte	.LFB8
 1758 06d7 66000000 		.4byte	.LFE8
 1759 06db 40000000 		.4byte	.LLST2
 1760 06df 01       		.byte	0x1
 1761 06e0 56070000 		.4byte	0x756
 1762 06e4 1E       		.uleb128 0x1e
 1763 06e5 77737000 		.ascii	"wsp\000"
 1764 06e9 01       		.byte	0x1
 1765 06ea 9D       		.byte	0x9d
 1766 06eb 8D020000 		.4byte	0x28d
 1767 06ef 01       		.byte	0x1
 1768 06f0 50       		.byte	0x50
 1769 06f1 1F       		.uleb128 0x1f
 1770 06f2 8B010000 		.4byte	.LASF75
 1771 06f6 01       		.byte	0x1
 1772 06f7 9D       		.byte	0x9d
 1773 06f8 30000000 		.4byte	0x30
 1774 06fc 60000000 		.4byte	.LLST3
 1775 0700 1F       		.uleb128 0x1f
 1776 0701 15000000 		.4byte	.LASF74
 1777 0705 01       		.byte	0x1
 1778 0706 9E       		.byte	0x9e
 1779 0707 CE000000 		.4byte	0xce
 1780 070b 8F000000 		.4byte	.LLST4
 1781 070f 20       		.uleb128 0x20
 1782 0710 706600   		.ascii	"pf\000"
 1783 0713 01       		.byte	0x1
 1784 0714 9E       		.byte	0x9e
 1785 0715 06060000 		.4byte	0x606
 1786 0719 AD000000 		.4byte	.LLST5
 1787 071d 1E       		.uleb128 0x1e
 1788 071e 61726700 		.ascii	"arg\000"
 1789 0722 01       		.byte	0x1
 1790 0723 9E       		.byte	0x9e
 1791 0724 8D020000 		.4byte	0x28d
 1792 0728 02       		.byte	0x2
 1793 0729 91       		.byte	0x91
 1794 072a 00       		.sleb128 0
 1795 072b 21       		.uleb128 0x21
 1796 072c 747000   		.ascii	"tp\000"
 1797 072f 01       		.byte	0x1
 1798 0730 A0       		.byte	0xa0
 1799 0731 4F020000 		.4byte	0x24f
 1800 0735 01       		.byte	0x1
 1801 0736 50       		.byte	0x50
 1802 0737 22       		.uleb128 0x22
 1803 0738 27060000 		.4byte	0x627
 1804 073c 06000000 		.4byte	.LBB10
 1805 0740 00000000 		.4byte	.Ldebug_ranges0+0
 1806 0744 01       		.byte	0x1
 1807 0745 A8       		.byte	0xa8
 1808 0746 1B       		.uleb128 0x1b
 1809 0747 43060000 		.4byte	0x643
 1810 074b 01       		.byte	0x1
 1811 074c 5C       		.byte	0x5c
ARM GAS  C:\Users\jenny\AppData\Local\Temp\cckA4Rj6.s 			page 33


 1812 074d 1B       		.uleb128 0x1b
 1813 074e 39060000 		.4byte	0x639
 1814 0752 01       		.byte	0x1
 1815 0753 50       		.byte	0x50
 1816 0754 00       		.byte	0
 1817 0755 00       		.byte	0
 1818 0756 1D       		.uleb128 0x1d
 1819 0757 01       		.byte	0x1
 1820 0758 FB010000 		.4byte	.LASF77
 1821 075c 01       		.byte	0x1
 1822 075d BB       		.byte	0xbb
 1823 075e 01       		.byte	0x1
 1824 075f 4F020000 		.4byte	0x24f
 1825 0763 00000000 		.4byte	.LFB9
 1826 0767 2A000000 		.4byte	.LFE9
 1827 076b DC000000 		.4byte	.LLST6
 1828 076f 01       		.byte	0x1
 1829 0770 4C080000 		.4byte	0x84c
 1830 0774 20       		.uleb128 0x20
 1831 0775 77737000 		.ascii	"wsp\000"
 1832 0779 01       		.byte	0x1
 1833 077a BB       		.byte	0xbb
 1834 077b 8D020000 		.4byte	0x28d
 1835 077f 08010000 		.4byte	.LLST7
 1836 0783 1F       		.uleb128 0x1f
 1837 0784 8B010000 		.4byte	.LASF75
 1838 0788 01       		.byte	0x1
 1839 0789 BB       		.byte	0xbb
 1840 078a 30000000 		.4byte	0x30
 1841 078e 29010000 		.4byte	.LLST8
 1842 0792 1F       		.uleb128 0x1f
 1843 0793 15000000 		.4byte	.LASF74
 1844 0797 01       		.byte	0x1
 1845 0798 BC       		.byte	0xbc
 1846 0799 CE000000 		.4byte	0xce
 1847 079d 4A010000 		.4byte	.LLST9
 1848 07a1 20       		.uleb128 0x20
 1849 07a2 706600   		.ascii	"pf\000"
 1850 07a5 01       		.byte	0x1
 1851 07a6 BC       		.byte	0xbc
 1852 07a7 06060000 		.4byte	0x606
 1853 07ab 6B010000 		.4byte	.LLST10
 1854 07af 1E       		.uleb128 0x1e
 1855 07b0 61726700 		.ascii	"arg\000"
 1856 07b4 01       		.byte	0x1
 1857 07b5 BC       		.byte	0xbc
 1858 07b6 8D020000 		.4byte	0x28d
 1859 07ba 02       		.byte	0x2
 1860 07bb 91       		.byte	0x91
 1861 07bc 00       		.sleb128 0
 1862 07bd 23       		.uleb128 0x23
 1863 07be 747000   		.ascii	"tp\000"
 1864 07c1 01       		.byte	0x1
 1865 07c2 BD       		.byte	0xbd
 1866 07c3 4F020000 		.4byte	0x24f
 1867 07c7 A2010000 		.4byte	.LLST11
 1868 07cb 24       		.uleb128 0x24
ARM GAS  C:\Users\jenny\AppData\Local\Temp\cckA4Rj6.s 			page 34


 1869 07cc 06000000 		.4byte	.LBB20
 1870 07d0 0C000000 		.4byte	.LBE20
 1871 07d4 E8070000 		.4byte	0x7e8
 1872 07d8 23       		.uleb128 0x23
 1873 07d9 746D7000 		.ascii	"tmp\000"
 1874 07dd 01       		.byte	0x1
 1875 07de C7       		.byte	0xc7
 1876 07df 7B000000 		.4byte	0x7b
 1877 07e3 C0010000 		.4byte	.LLST12
 1878 07e7 00       		.byte	0
 1879 07e8 24       		.uleb128 0x24
 1880 07e9 1E000000 		.4byte	.LBB21
 1881 07ed 24000000 		.4byte	.LBE21
 1882 07f1 05080000 		.4byte	0x805
 1883 07f5 23       		.uleb128 0x23
 1884 07f6 746D7000 		.ascii	"tmp\000"
 1885 07fa 01       		.byte	0x1
 1886 07fb C9       		.byte	0xc9
 1887 07fc 7B000000 		.4byte	0x7b
 1888 0800 D3010000 		.4byte	.LLST13
 1889 0804 00       		.byte	0
 1890 0805 25       		.uleb128 0x25
 1891 0806 16000000 		.4byte	.LVL14
 1892 080a C6060000 		.4byte	0x6c6
 1893 080e 36080000 		.4byte	0x836
 1894 0812 26       		.uleb128 0x26
 1895 0813 01       		.byte	0x1
 1896 0814 53       		.byte	0x53
 1897 0815 03       		.byte	0x3
 1898 0816 F3       		.byte	0xf3
 1899 0817 01       		.uleb128 0x1
 1900 0818 53       		.byte	0x53
 1901 0819 26       		.uleb128 0x26
 1902 081a 01       		.byte	0x1
 1903 081b 52       		.byte	0x52
 1904 081c 03       		.byte	0x3
 1905 081d F3       		.byte	0xf3
 1906 081e 01       		.uleb128 0x1
 1907 081f 52       		.byte	0x52
 1908 0820 26       		.uleb128 0x26
 1909 0821 01       		.byte	0x1
 1910 0822 51       		.byte	0x51
 1911 0823 03       		.byte	0x3
 1912 0824 F3       		.byte	0xf3
 1913 0825 01       		.uleb128 0x1
 1914 0826 51       		.byte	0x51
 1915 0827 26       		.uleb128 0x26
 1916 0828 01       		.byte	0x1
 1917 0829 50       		.byte	0x50
 1918 082a 03       		.byte	0x3
 1919 082b F3       		.byte	0xf3
 1920 082c 01       		.uleb128 0x1
 1921 082d 50       		.byte	0x50
 1922 082e 26       		.uleb128 0x26
 1923 082f 02       		.byte	0x2
 1924 0830 7D       		.byte	0x7d
 1925 0831 00       		.sleb128 0
ARM GAS  C:\Users\jenny\AppData\Local\Temp\cckA4Rj6.s 			page 35


 1926 0832 02       		.byte	0x2
 1927 0833 74       		.byte	0x74
 1928 0834 00       		.sleb128 0
 1929 0835 00       		.byte	0
 1930 0836 27       		.uleb128 0x27
 1931 0837 1E000000 		.4byte	.LVL16
 1932 083b B40C0000 		.4byte	0xcb4
 1933 083f 26       		.uleb128 0x26
 1934 0840 01       		.byte	0x1
 1935 0841 51       		.byte	0x51
 1936 0842 01       		.byte	0x1
 1937 0843 30       		.byte	0x30
 1938 0844 26       		.uleb128 0x26
 1939 0845 01       		.byte	0x1
 1940 0846 50       		.byte	0x50
 1941 0847 02       		.byte	0x2
 1942 0848 74       		.byte	0x74
 1943 0849 00       		.sleb128 0
 1944 084a 00       		.byte	0
 1945 084b 00       		.byte	0
 1946 084c 1D       		.uleb128 0x1d
 1947 084d 01       		.byte	0x1
 1948 084e 3E010000 		.4byte	.LASF78
 1949 0852 01       		.byte	0x1
 1950 0853 D9       		.byte	0xd9
 1951 0854 01       		.byte	0x1
 1952 0855 CE000000 		.4byte	0xce
 1953 0859 00000000 		.4byte	.LFB10
 1954 085d 30000000 		.4byte	.LFE10
 1955 0861 E6010000 		.4byte	.LLST14
 1956 0865 01       		.byte	0x1
 1957 0866 CA080000 		.4byte	0x8ca
 1958 086a 1F       		.uleb128 0x1f
 1959 086b B6010000 		.4byte	.LASF79
 1960 086f 01       		.byte	0x1
 1961 0870 D9       		.byte	0xd9
 1962 0871 CE000000 		.4byte	0xce
 1963 0875 06020000 		.4byte	.LLST15
 1964 0879 28       		.uleb128 0x28
 1965 087a F3010000 		.4byte	.LASF80
 1966 087e 01       		.byte	0x1
 1967 087f DA       		.byte	0xda
 1968 0880 CE000000 		.4byte	0xce
 1969 0884 01       		.byte	0x1
 1970 0885 54       		.byte	0x54
 1971 0886 24       		.uleb128 0x24
 1972 0887 02000000 		.4byte	.LBB22
 1973 088b 08000000 		.4byte	.LBE22
 1974 088f A3080000 		.4byte	0x8a3
 1975 0893 23       		.uleb128 0x23
 1976 0894 746D7000 		.ascii	"tmp\000"
 1977 0898 01       		.byte	0x1
 1978 0899 DE       		.byte	0xde
 1979 089a 7B000000 		.4byte	0x7b
 1980 089e 27020000 		.4byte	.LLST16
 1981 08a2 00       		.byte	0
 1982 08a3 24       		.uleb128 0x24
ARM GAS  C:\Users\jenny\AppData\Local\Temp\cckA4Rj6.s 			page 36


 1983 08a4 20000000 		.4byte	.LBB23
 1984 08a8 26000000 		.4byte	.LBE23
 1985 08ac C0080000 		.4byte	0x8c0
 1986 08b0 23       		.uleb128 0x23
 1987 08b1 746D7000 		.ascii	"tmp\000"
 1988 08b5 01       		.byte	0x1
 1989 08b6 E9       		.byte	0xe9
 1990 08b7 7B000000 		.4byte	0x7b
 1991 08bb 3A020000 		.4byte	.LLST17
 1992 08bf 00       		.byte	0
 1993 08c0 29       		.uleb128 0x29
 1994 08c1 20000000 		.4byte	.LVL24
 1995 08c5 CD0C0000 		.4byte	0xccd
 1996 08c9 00       		.byte	0
 1997 08ca 1D       		.uleb128 0x1d
 1998 08cb 01       		.byte	0x1
 1999 08cc 26020000 		.4byte	.LASF81
 2000 08d0 01       		.byte	0x1
 2001 08d1 FA       		.byte	0xfa
 2002 08d2 01       		.byte	0x1
 2003 08d3 4F020000 		.4byte	0x24f
 2004 08d7 00000000 		.4byte	.LFB11
 2005 08db 1A000000 		.4byte	.LFE11
 2006 08df 4D020000 		.4byte	.LLST18
 2007 08e3 01       		.byte	0x1
 2008 08e4 43090000 		.4byte	0x943
 2009 08e8 20       		.uleb128 0x20
 2010 08e9 747000   		.ascii	"tp\000"
 2011 08ec 01       		.byte	0x1
 2012 08ed FA       		.byte	0xfa
 2013 08ee 4F020000 		.4byte	0x24f
 2014 08f2 6D020000 		.4byte	.LLST19
 2015 08f6 2A       		.uleb128 0x2a
 2016 08f7 30000000 		.4byte	.Ldebug_ranges0+0x30
 2017 08fb 0F090000 		.4byte	0x90f
 2018 08ff 23       		.uleb128 0x23
 2019 0900 746D7000 		.ascii	"tmp\000"
 2020 0904 01       		.byte	0x1
 2021 0905 FC       		.byte	0xfc
 2022 0906 7B000000 		.4byte	0x7b
 2023 090a 8B020000 		.4byte	.LLST20
 2024 090e 00       		.byte	0
 2025 090f 24       		.uleb128 0x24
 2026 0910 10000000 		.4byte	.LBB26
 2027 0914 16000000 		.4byte	.LBE26
 2028 0918 2D090000 		.4byte	0x92d
 2029 091c 2B       		.uleb128 0x2b
 2030 091d 746D7000 		.ascii	"tmp\000"
 2031 0921 01       		.byte	0x1
 2032 0922 0101     		.2byte	0x101
 2033 0924 7B000000 		.4byte	0x7b
 2034 0928 9E020000 		.4byte	.LLST21
 2035 092c 00       		.byte	0
 2036 092d 27       		.uleb128 0x27
 2037 092e 10000000 		.4byte	.LVL30
 2038 0932 B40C0000 		.4byte	0xcb4
 2039 0936 26       		.uleb128 0x26
ARM GAS  C:\Users\jenny\AppData\Local\Temp\cckA4Rj6.s 			page 37


 2040 0937 01       		.byte	0x1
 2041 0938 51       		.byte	0x51
 2042 0939 01       		.byte	0x1
 2043 093a 30       		.byte	0x30
 2044 093b 26       		.uleb128 0x26
 2045 093c 01       		.byte	0x1
 2046 093d 50       		.byte	0x50
 2047 093e 02       		.byte	0x2
 2048 093f 74       		.byte	0x74
 2049 0940 00       		.sleb128 0
 2050 0941 00       		.byte	0
 2051 0942 00       		.byte	0
 2052 0943 2C       		.uleb128 0x2c
 2053 0944 01       		.byte	0x1
 2054 0945 C6010000 		.4byte	.LASF82
 2055 0949 01       		.byte	0x1
 2056 094a 1101     		.2byte	0x111
 2057 094c 01       		.byte	0x1
 2058 094d 00000000 		.4byte	.LFB12
 2059 0951 16000000 		.4byte	.LFE12
 2060 0955 02       		.byte	0x2
 2061 0956 7D       		.byte	0x7d
 2062 0957 00       		.sleb128 0
 2063 0958 01       		.byte	0x1
 2064 0959 A3090000 		.4byte	0x9a3
 2065 095d 2D       		.uleb128 0x2d
 2066 095e 747000   		.ascii	"tp\000"
 2067 0961 01       		.byte	0x1
 2068 0962 1101     		.2byte	0x111
 2069 0964 4F020000 		.4byte	0x24f
 2070 0968 01       		.byte	0x1
 2071 0969 50       		.byte	0x50
 2072 096a 24       		.uleb128 0x24
 2073 096b 00000000 		.4byte	.LBB27
 2074 096f 06000000 		.4byte	.LBE27
 2075 0973 88090000 		.4byte	0x988
 2076 0977 2B       		.uleb128 0x2b
 2077 0978 746D7000 		.ascii	"tmp\000"
 2078 097c 01       		.byte	0x1
 2079 097d 1301     		.2byte	0x113
 2080 097f 7B000000 		.4byte	0x7b
 2081 0983 B1020000 		.4byte	.LLST22
 2082 0987 00       		.byte	0
 2083 0988 2E       		.uleb128 0x2e
 2084 0989 0E000000 		.4byte	.LBB28
 2085 098d 16000000 		.4byte	.LBE28
 2086 0991 2B       		.uleb128 0x2b
 2087 0992 746D7000 		.ascii	"tmp\000"
 2088 0996 01       		.byte	0x1
 2089 0997 1501     		.2byte	0x115
 2090 0999 7B000000 		.4byte	0x7b
 2091 099d C4020000 		.4byte	.LLST23
 2092 09a1 00       		.byte	0
 2093 09a2 00       		.byte	0
 2094 09a3 2F       		.uleb128 0x2f
 2095 09a4 01       		.byte	0x1
 2096 09a5 C4030000 		.4byte	.LASF83
ARM GAS  C:\Users\jenny\AppData\Local\Temp\cckA4Rj6.s 			page 38


 2097 09a9 01       		.byte	0x1
 2098 09aa 2401     		.2byte	0x124
 2099 09ac 01       		.byte	0x1
 2100 09ad 00000000 		.4byte	.LFB13
 2101 09b1 18000000 		.4byte	.LFE13
 2102 09b5 D7020000 		.4byte	.LLST24
 2103 09b9 01       		.byte	0x1
 2104 09ba 210A0000 		.4byte	0xa21
 2105 09be 30       		.uleb128 0x30
 2106 09bf 65020000 		.4byte	.LASF84
 2107 09c3 01       		.byte	0x1
 2108 09c4 2401     		.2byte	0x124
 2109 09c6 EF000000 		.4byte	0xef
 2110 09ca F7020000 		.4byte	.LLST25
 2111 09ce 24       		.uleb128 0x24
 2112 09cf 04000000 		.4byte	.LBB29
 2113 09d3 0A000000 		.4byte	.LBE29
 2114 09d7 EC090000 		.4byte	0x9ec
 2115 09db 2B       		.uleb128 0x2b
 2116 09dc 746D7000 		.ascii	"tmp\000"
 2117 09e0 01       		.byte	0x1
 2118 09e1 2801     		.2byte	0x128
 2119 09e3 7B000000 		.4byte	0x7b
 2120 09e7 23030000 		.4byte	.LLST26
 2121 09eb 00       		.byte	0
 2122 09ec 24       		.uleb128 0x24
 2123 09ed 10000000 		.4byte	.LBB30
 2124 09f1 18000000 		.4byte	.LBE30
 2125 09f5 0A0A0000 		.4byte	0xa0a
 2126 09f9 2B       		.uleb128 0x2b
 2127 09fa 746D7000 		.ascii	"tmp\000"
 2128 09fe 01       		.byte	0x1
 2129 09ff 2A01     		.2byte	0x12a
 2130 0a01 7B000000 		.4byte	0x7b
 2131 0a05 36030000 		.4byte	.LLST27
 2132 0a09 00       		.byte	0
 2133 0a0a 27       		.uleb128 0x27
 2134 0a0b 10000000 		.4byte	.LVL43
 2135 0a0f D70C0000 		.4byte	0xcd7
 2136 0a13 26       		.uleb128 0x26
 2137 0a14 01       		.byte	0x1
 2138 0a15 51       		.byte	0x51
 2139 0a16 03       		.byte	0x3
 2140 0a17 F3       		.byte	0xf3
 2141 0a18 01       		.uleb128 0x1
 2142 0a19 50       		.byte	0x50
 2143 0a1a 26       		.uleb128 0x26
 2144 0a1b 01       		.byte	0x1
 2145 0a1c 50       		.byte	0x50
 2146 0a1d 01       		.byte	0x1
 2147 0a1e 36       		.byte	0x36
 2148 0a1f 00       		.byte	0
 2149 0a20 00       		.byte	0
 2150 0a21 2F       		.uleb128 0x2f
 2151 0a22 01       		.byte	0x1
 2152 0a23 88020000 		.4byte	.LASF85
 2153 0a27 01       		.byte	0x1
ARM GAS  C:\Users\jenny\AppData\Local\Temp\cckA4Rj6.s 			page 39


 2154 0a28 3501     		.2byte	0x135
 2155 0a2a 01       		.byte	0x1
 2156 0a2b 00000000 		.4byte	.LFB14
 2157 0a2f 24000000 		.4byte	.LFE14
 2158 0a33 49030000 		.4byte	.LLST28
 2159 0a37 01       		.byte	0x1
 2160 0a38 980A0000 		.4byte	0xa98
 2161 0a3c 30       		.uleb128 0x30
 2162 0a3d 65020000 		.4byte	.LASF84
 2163 0a41 01       		.byte	0x1
 2164 0a42 3501     		.2byte	0x135
 2165 0a44 EF000000 		.4byte	0xef
 2166 0a48 69030000 		.4byte	.LLST29
 2167 0a4c 24       		.uleb128 0x24
 2168 0a4d 02000000 		.4byte	.LBB31
 2169 0a51 08000000 		.4byte	.LBE31
 2170 0a55 6A0A0000 		.4byte	0xa6a
 2171 0a59 2B       		.uleb128 0x2b
 2172 0a5a 746D7000 		.ascii	"tmp\000"
 2173 0a5e 01       		.byte	0x1
 2174 0a5f 3701     		.2byte	0x137
 2175 0a61 7B000000 		.4byte	0x7b
 2176 0a65 97030000 		.4byte	.LLST30
 2177 0a69 00       		.byte	0
 2178 0a6a 24       		.uleb128 0x24
 2179 0a6b 16000000 		.4byte	.LBB32
 2180 0a6f 24000000 		.4byte	.LBE32
 2181 0a73 880A0000 		.4byte	0xa88
 2182 0a77 2B       		.uleb128 0x2b
 2183 0a78 746D7000 		.ascii	"tmp\000"
 2184 0a7c 01       		.byte	0x1
 2185 0a7d 3A01     		.2byte	0x13a
 2186 0a7f 7B000000 		.4byte	0x7b
 2187 0a83 AA030000 		.4byte	.LLST31
 2188 0a87 00       		.byte	0
 2189 0a88 27       		.uleb128 0x27
 2190 0a89 16000000 		.4byte	.LVL52
 2191 0a8d D70C0000 		.4byte	0xcd7
 2192 0a91 26       		.uleb128 0x26
 2193 0a92 01       		.byte	0x1
 2194 0a93 50       		.byte	0x50
 2195 0a94 01       		.byte	0x1
 2196 0a95 36       		.byte	0x36
 2197 0a96 00       		.byte	0
 2198 0a97 00       		.byte	0
 2199 0a98 2F       		.uleb128 0x2f
 2200 0a99 01       		.byte	0x1
 2201 0a9a 8F030000 		.4byte	.LASF86
 2202 0a9e 01       		.byte	0x1
 2203 0a9f 4401     		.2byte	0x144
 2204 0aa1 01       		.byte	0x1
 2205 0aa2 00000000 		.4byte	.LFB15
 2206 0aa6 28000000 		.4byte	.LFE15
 2207 0aaa BD030000 		.4byte	.LLST32
 2208 0aae 01       		.byte	0x1
 2209 0aaf F90A0000 		.4byte	0xaf9
 2210 0ab3 24       		.uleb128 0x24
ARM GAS  C:\Users\jenny\AppData\Local\Temp\cckA4Rj6.s 			page 40


 2211 0ab4 02000000 		.4byte	.LBB33
 2212 0ab8 08000000 		.4byte	.LBE33
 2213 0abc D10A0000 		.4byte	0xad1
 2214 0ac0 2B       		.uleb128 0x2b
 2215 0ac1 746D7000 		.ascii	"tmp\000"
 2216 0ac5 01       		.byte	0x1
 2217 0ac6 4601     		.2byte	0x146
 2218 0ac8 7B000000 		.4byte	0x7b
 2219 0acc DD030000 		.4byte	.LLST33
 2220 0ad0 00       		.byte	0
 2221 0ad1 24       		.uleb128 0x24
 2222 0ad2 1A000000 		.4byte	.LBB34
 2223 0ad6 28000000 		.4byte	.LBE34
 2224 0ada EF0A0000 		.4byte	0xaef
 2225 0ade 2B       		.uleb128 0x2b
 2226 0adf 746D7000 		.ascii	"tmp\000"
 2227 0ae3 01       		.byte	0x1
 2228 0ae4 4801     		.2byte	0x148
 2229 0ae6 7B000000 		.4byte	0x7b
 2230 0aea F0030000 		.4byte	.LLST34
 2231 0aee 00       		.byte	0
 2232 0aef 29       		.uleb128 0x29
 2233 0af0 1A000000 		.4byte	.LVL58
 2234 0af4 F40C0000 		.4byte	0xcf4
 2235 0af8 00       		.byte	0
 2236 0af9 2F       		.uleb128 0x2f
 2237 0afa 01       		.byte	0x1
 2238 0afb 28000000 		.4byte	.LASF87
 2239 0aff 01       		.byte	0x1
 2240 0b00 6E01     		.2byte	0x16e
 2241 0b02 01       		.byte	0x1
 2242 0b03 00000000 		.4byte	.LFB17
 2243 0b07 40000000 		.4byte	.LFE17
 2244 0b0b 03040000 		.4byte	.LLST35
 2245 0b0f 01       		.byte	0x1
 2246 0b10 7C0B0000 		.4byte	0xb7c
 2247 0b14 31       		.uleb128 0x31
 2248 0b15 6D736700 		.ascii	"msg\000"
 2249 0b19 01       		.byte	0x1
 2250 0b1a 6E01     		.2byte	0x16e
 2251 0b1c D9000000 		.4byte	0xd9
 2252 0b20 23040000 		.4byte	.LLST36
 2253 0b24 32       		.uleb128 0x32
 2254 0b25 747000   		.ascii	"tp\000"
 2255 0b28 01       		.byte	0x1
 2256 0b29 6F01     		.2byte	0x16f
 2257 0b2b 4F020000 		.4byte	0x24f
 2258 0b2f 01       		.byte	0x1
 2259 0b30 54       		.byte	0x54
 2260 0b31 33       		.uleb128 0x33
 2261 0b32 4F060000 		.4byte	0x64f
 2262 0b36 12000000 		.4byte	.LBB35
 2263 0b3a 16000000 		.4byte	.LBE35
 2264 0b3e 01       		.byte	0x1
 2265 0b3f 7701     		.2byte	0x177
 2266 0b41 620B0000 		.4byte	0xb62
 2267 0b45 1C       		.uleb128 0x1c
ARM GAS  C:\Users\jenny\AppData\Local\Temp\cckA4Rj6.s 			page 41


 2268 0b46 60060000 		.4byte	0x660
 2269 0b4a 50040000 		.4byte	.LLST37
 2270 0b4e 2E       		.uleb128 0x2e
 2271 0b4f 12000000 		.4byte	.LBB36
 2272 0b53 16000000 		.4byte	.LBE36
 2273 0b57 34       		.uleb128 0x34
 2274 0b58 6B060000 		.4byte	0x66b
 2275 0b5c 65040000 		.4byte	.LLST38
 2276 0b60 00       		.byte	0
 2277 0b61 00       		.byte	0
 2278 0b62 29       		.uleb128 0x29
 2279 0b63 1A000000 		.4byte	.LVL65
 2280 0b67 FE0C0000 		.4byte	0xcfe
 2281 0b6b 35       		.uleb128 0x35
 2282 0b6c 3A000000 		.4byte	.LVL67
 2283 0b70 01       		.byte	0x1
 2284 0b71 160D0000 		.4byte	0xd16
 2285 0b75 26       		.uleb128 0x26
 2286 0b76 01       		.byte	0x1
 2287 0b77 50       		.byte	0x50
 2288 0b78 01       		.byte	0x1
 2289 0b79 3E       		.byte	0x3e
 2290 0b7a 00       		.byte	0
 2291 0b7b 00       		.byte	0
 2292 0b7c 2C       		.uleb128 0x2c
 2293 0b7d 01       		.byte	0x1
 2294 0b7e 6B000000 		.4byte	.LASF88
 2295 0b82 01       		.byte	0x1
 2296 0b83 5901     		.2byte	0x159
 2297 0b85 01       		.byte	0x1
 2298 0b86 00000000 		.4byte	.LFB16
 2299 0b8a 0A000000 		.4byte	.LFE16
 2300 0b8e 02       		.byte	0x2
 2301 0b8f 7D       		.byte	0x7d
 2302 0b90 00       		.sleb128 0
 2303 0b91 01       		.byte	0x1
 2304 0b92 D70B0000 		.4byte	0xbd7
 2305 0b96 31       		.uleb128 0x31
 2306 0b97 6D736700 		.ascii	"msg\000"
 2307 0b9b 01       		.byte	0x1
 2308 0b9c 5901     		.2byte	0x159
 2309 0b9e D9000000 		.4byte	0xd9
 2310 0ba2 78040000 		.4byte	.LLST39
 2311 0ba6 24       		.uleb128 0x24
 2312 0ba7 00000000 		.4byte	.LBB37
 2313 0bab 06000000 		.4byte	.LBE37
 2314 0baf C40B0000 		.4byte	0xbc4
 2315 0bb3 2B       		.uleb128 0x2b
 2316 0bb4 746D7000 		.ascii	"tmp\000"
 2317 0bb8 01       		.byte	0x1
 2318 0bb9 5B01     		.2byte	0x15b
 2319 0bbb 7B000000 		.4byte	0x7b
 2320 0bbf 99040000 		.4byte	.LLST40
 2321 0bc3 00       		.byte	0
 2322 0bc4 35       		.uleb128 0x35
 2323 0bc5 0A000000 		.4byte	.LVL71
 2324 0bc9 01       		.byte	0x1
ARM GAS  C:\Users\jenny\AppData\Local\Temp\cckA4Rj6.s 			page 42


 2325 0bca F90A0000 		.4byte	0xaf9
 2326 0bce 26       		.uleb128 0x26
 2327 0bcf 01       		.byte	0x1
 2328 0bd0 50       		.byte	0x50
 2329 0bd1 03       		.byte	0x3
 2330 0bd2 F3       		.byte	0xf3
 2331 0bd3 01       		.uleb128 0x1
 2332 0bd4 50       		.byte	0x50
 2333 0bd5 00       		.byte	0
 2334 0bd6 00       		.byte	0
 2335 0bd7 36       		.uleb128 0x36
 2336 0bd8 01       		.byte	0x1
 2337 0bd9 B3030000 		.4byte	.LASF89
 2338 0bdd 01       		.byte	0x1
 2339 0bde A401     		.2byte	0x1a4
 2340 0be0 01       		.byte	0x1
 2341 0be1 D9000000 		.4byte	0xd9
 2342 0be5 00000000 		.4byte	.LFB18
 2343 0be9 38000000 		.4byte	.LFE18
 2344 0bed AC040000 		.4byte	.LLST41
 2345 0bf1 01       		.byte	0x1
 2346 0bf2 9A0C0000 		.4byte	0xc9a
 2347 0bf6 31       		.uleb128 0x31
 2348 0bf7 747000   		.ascii	"tp\000"
 2349 0bfa 01       		.byte	0x1
 2350 0bfb A401     		.2byte	0x1a4
 2351 0bfd 4F020000 		.4byte	0x24f
 2352 0c01 CC040000 		.4byte	.LLST42
 2353 0c05 32       		.uleb128 0x32
 2354 0c06 6D736700 		.ascii	"msg\000"
 2355 0c0a 01       		.byte	0x1
 2356 0c0b A501     		.2byte	0x1a5
 2357 0c0d D9000000 		.4byte	0xd9
 2358 0c11 01       		.byte	0x1
 2359 0c12 55       		.byte	0x55
 2360 0c13 24       		.uleb128 0x24
 2361 0c14 04000000 		.4byte	.LBB38
 2362 0c18 0A000000 		.4byte	.LBE38
 2363 0c1c 310C0000 		.4byte	0xc31
 2364 0c20 2B       		.uleb128 0x2b
 2365 0c21 746D7000 		.ascii	"tmp\000"
 2366 0c25 01       		.byte	0x1
 2367 0c26 A901     		.2byte	0x1a9
 2368 0c28 7B000000 		.4byte	0x7b
 2369 0c2c EA040000 		.4byte	.LLST43
 2370 0c30 00       		.byte	0
 2371 0c31 37       		.uleb128 0x37
 2372 0c32 7C060000 		.4byte	0x67c
 2373 0c36 10000000 		.4byte	.LBB39
 2374 0c3a 48000000 		.4byte	.Ldebug_ranges0+0x48
 2375 0c3e 01       		.byte	0x1
 2376 0c3f AF01     		.2byte	0x1af
 2377 0c41 580C0000 		.4byte	0xc58
 2378 0c45 1C       		.uleb128 0x1c
 2379 0c46 93060000 		.4byte	0x693
 2380 0c4a FD040000 		.4byte	.LLST44
 2381 0c4e 1C       		.uleb128 0x1c
ARM GAS  C:\Users\jenny\AppData\Local\Temp\cckA4Rj6.s 			page 43


 2382 0c4f 89060000 		.4byte	0x689
 2383 0c53 12050000 		.4byte	.LLST45
 2384 0c57 00       		.byte	0
 2385 0c58 24       		.uleb128 0x24
 2386 0c59 22000000 		.4byte	.LBB43
 2387 0c5d 28000000 		.4byte	.LBE43
 2388 0c61 760C0000 		.4byte	0xc76
 2389 0c65 2B       		.uleb128 0x2b
 2390 0c66 746D7000 		.ascii	"tmp\000"
 2391 0c6a 01       		.byte	0x1
 2392 0c6b B301     		.2byte	0x1b3
 2393 0c6d 7B000000 		.4byte	0x7b
 2394 0c71 25050000 		.4byte	.LLST46
 2395 0c75 00       		.byte	0
 2396 0c76 25       		.uleb128 0x25
 2397 0c77 20000000 		.4byte	.LVL78
 2398 0c7b 160D0000 		.4byte	0xd16
 2399 0c7f 890C0000 		.4byte	0xc89
 2400 0c83 26       		.uleb128 0x26
 2401 0c84 01       		.byte	0x1
 2402 0c85 50       		.byte	0x50
 2403 0c86 01       		.byte	0x1
 2404 0c87 37       		.byte	0x37
 2405 0c88 00       		.byte	0
 2406 0c89 27       		.uleb128 0x27
 2407 0c8a 2E000000 		.4byte	.LVL82
 2408 0c8e 2A0D0000 		.4byte	0xd2a
 2409 0c92 26       		.uleb128 0x26
 2410 0c93 01       		.byte	0x1
 2411 0c94 50       		.byte	0x50
 2412 0c95 02       		.byte	0x2
 2413 0c96 74       		.byte	0x74
 2414 0c97 00       		.sleb128 0
 2415 0c98 00       		.byte	0
 2416 0c99 00       		.byte	0
 2417 0c9a 38       		.uleb128 0x38
 2418 0c9b 21000000 		.4byte	.LASF90
 2419 0c9f 09       		.byte	0x9
 2420 0ca0 DB       		.byte	0xdb
 2421 0ca1 FE040000 		.4byte	0x4fe
 2422 0ca5 01       		.byte	0x1
 2423 0ca6 01       		.byte	0x1
 2424 0ca7 38       		.uleb128 0x38
 2425 0ca8 E0030000 		.4byte	.LASF91
 2426 0cac 0A       		.byte	0xa
 2427 0cad 6F       		.byte	0x6f
 2428 0cae 66050000 		.4byte	0x566
 2429 0cb2 01       		.byte	0x1
 2430 0cb3 01       		.byte	0x1
 2431 0cb4 39       		.uleb128 0x39
 2432 0cb5 01       		.byte	0x1
 2433 0cb6 A3010000 		.4byte	.LASF97
 2434 0cba 0A       		.byte	0xa
 2435 0cbb 99       		.byte	0x99
 2436 0cbc 01       		.byte	0x1
 2437 0cbd 01       		.byte	0x1
 2438 0cbe CD0C0000 		.4byte	0xccd
ARM GAS  C:\Users\jenny\AppData\Local\Temp\cckA4Rj6.s 			page 44


 2439 0cc2 0E       		.uleb128 0xe
 2440 0cc3 4F020000 		.4byte	0x24f
 2441 0cc7 0E       		.uleb128 0xe
 2442 0cc8 D9000000 		.4byte	0xd9
 2443 0ccc 00       		.byte	0
 2444 0ccd 3A       		.uleb128 0x3a
 2445 0cce 01       		.byte	0x1
 2446 0ccf 14010000 		.4byte	.LASF94
 2447 0cd3 0A       		.byte	0xa
 2448 0cd4 9C       		.byte	0x9c
 2449 0cd5 01       		.byte	0x1
 2450 0cd6 01       		.byte	0x1
 2451 0cd7 3B       		.uleb128 0x3b
 2452 0cd8 01       		.byte	0x1
 2453 0cd9 7A040000 		.4byte	.LASF93
 2454 0cdd 0A       		.byte	0xa
 2455 0cde 96       		.byte	0x96
 2456 0cdf 01       		.byte	0x1
 2457 0ce0 D9000000 		.4byte	0xd9
 2458 0ce4 01       		.byte	0x1
 2459 0ce5 F40C0000 		.4byte	0xcf4
 2460 0ce9 0E       		.uleb128 0xe
 2461 0cea AD000000 		.4byte	0xad
 2462 0cee 0E       		.uleb128 0xe
 2463 0cef EF000000 		.4byte	0xef
 2464 0cf3 00       		.byte	0
 2465 0cf4 3A       		.uleb128 0x3a
 2466 0cf5 01       		.byte	0x1
 2467 0cf6 32020000 		.4byte	.LASF95
 2468 0cfa 0A       		.byte	0xa
 2469 0cfb A2       		.byte	0xa2
 2470 0cfc 01       		.byte	0x1
 2471 0cfd 01       		.byte	0x1
 2472 0cfe 3B       		.uleb128 0x3b
 2473 0cff 01       		.byte	0x1
 2474 0d00 5E030000 		.4byte	.LASF96
 2475 0d04 0A       		.byte	0xa
 2476 0d05 90       		.byte	0x90
 2477 0d06 01       		.byte	0x1
 2478 0d07 4F020000 		.4byte	0x24f
 2479 0d0b 01       		.byte	0x1
 2480 0d0c 160D0000 		.4byte	0xd16
 2481 0d10 0E       		.uleb128 0xe
 2482 0d11 4F020000 		.4byte	0x24f
 2483 0d15 00       		.byte	0
 2484 0d16 39       		.uleb128 0x39
 2485 0d17 01       		.byte	0x1
 2486 0d18 22030000 		.4byte	.LASF98
 2487 0d1c 0A       		.byte	0xa
 2488 0d1d 93       		.byte	0x93
 2489 0d1e 01       		.byte	0x1
 2490 0d1f 01       		.byte	0x1
 2491 0d20 2A0D0000 		.4byte	0xd2a
 2492 0d24 0E       		.uleb128 0xe
 2493 0d25 AD000000 		.4byte	0xad
 2494 0d29 00       		.byte	0
 2495 0d2a 3C       		.uleb128 0x3c
ARM GAS  C:\Users\jenny\AppData\Local\Temp\cckA4Rj6.s 			page 45


 2496 0d2b 01       		.byte	0x1
 2497 0d2c 0E030000 		.4byte	.LASF104
 2498 0d30 0C       		.byte	0xc
 2499 0d31 3A       		.byte	0x3a
 2500 0d32 01       		.byte	0x1
 2501 0d33 01       		.byte	0x1
 2502 0d34 0E       		.uleb128 0xe
 2503 0d35 4F020000 		.4byte	0x24f
 2504 0d39 00       		.byte	0
 2505 0d3a 00       		.byte	0
 2506              		.section	.debug_abbrev,"",%progbits
 2507              	.Ldebug_abbrev0:
 2508 0000 01       		.uleb128 0x1
 2509 0001 11       		.uleb128 0x11
 2510 0002 01       		.byte	0x1
 2511 0003 25       		.uleb128 0x25
 2512 0004 0E       		.uleb128 0xe
 2513 0005 13       		.uleb128 0x13
 2514 0006 0B       		.uleb128 0xb
 2515 0007 03       		.uleb128 0x3
 2516 0008 0E       		.uleb128 0xe
 2517 0009 1B       		.uleb128 0x1b
 2518 000a 0E       		.uleb128 0xe
 2519 000b 55       		.uleb128 0x55
 2520 000c 06       		.uleb128 0x6
 2521 000d 11       		.uleb128 0x11
 2522 000e 01       		.uleb128 0x1
 2523 000f 52       		.uleb128 0x52
 2524 0010 01       		.uleb128 0x1
 2525 0011 10       		.uleb128 0x10
 2526 0012 06       		.uleb128 0x6
 2527 0013 00       		.byte	0
 2528 0014 00       		.byte	0
 2529 0015 02       		.uleb128 0x2
 2530 0016 24       		.uleb128 0x24
 2531 0017 00       		.byte	0
 2532 0018 0B       		.uleb128 0xb
 2533 0019 0B       		.uleb128 0xb
 2534 001a 3E       		.uleb128 0x3e
 2535 001b 0B       		.uleb128 0xb
 2536 001c 03       		.uleb128 0x3
 2537 001d 08       		.uleb128 0x8
 2538 001e 00       		.byte	0
 2539 001f 00       		.byte	0
 2540 0020 03       		.uleb128 0x3
 2541 0021 16       		.uleb128 0x16
 2542 0022 00       		.byte	0
 2543 0023 03       		.uleb128 0x3
 2544 0024 0E       		.uleb128 0xe
 2545 0025 3A       		.uleb128 0x3a
 2546 0026 0B       		.uleb128 0xb
 2547 0027 3B       		.uleb128 0x3b
 2548 0028 0B       		.uleb128 0xb
 2549 0029 49       		.uleb128 0x49
 2550 002a 13       		.uleb128 0x13
 2551 002b 00       		.byte	0
 2552 002c 00       		.byte	0
ARM GAS  C:\Users\jenny\AppData\Local\Temp\cckA4Rj6.s 			page 46


 2553 002d 04       		.uleb128 0x4
 2554 002e 24       		.uleb128 0x24
 2555 002f 00       		.byte	0
 2556 0030 0B       		.uleb128 0xb
 2557 0031 0B       		.uleb128 0xb
 2558 0032 3E       		.uleb128 0x3e
 2559 0033 0B       		.uleb128 0xb
 2560 0034 03       		.uleb128 0x3
 2561 0035 0E       		.uleb128 0xe
 2562 0036 00       		.byte	0
 2563 0037 00       		.byte	0
 2564 0038 05       		.uleb128 0x5
 2565 0039 13       		.uleb128 0x13
 2566 003a 01       		.byte	0x1
 2567 003b 03       		.uleb128 0x3
 2568 003c 0E       		.uleb128 0xe
 2569 003d 0B       		.uleb128 0xb
 2570 003e 0B       		.uleb128 0xb
 2571 003f 3A       		.uleb128 0x3a
 2572 0040 0B       		.uleb128 0xb
 2573 0041 3B       		.uleb128 0x3b
 2574 0042 0B       		.uleb128 0xb
 2575 0043 01       		.uleb128 0x1
 2576 0044 13       		.uleb128 0x13
 2577 0045 00       		.byte	0
 2578 0046 00       		.byte	0
 2579 0047 06       		.uleb128 0x6
 2580 0048 0D       		.uleb128 0xd
 2581 0049 00       		.byte	0
 2582 004a 03       		.uleb128 0x3
 2583 004b 0E       		.uleb128 0xe
 2584 004c 3A       		.uleb128 0x3a
 2585 004d 0B       		.uleb128 0xb
 2586 004e 3B       		.uleb128 0x3b
 2587 004f 0B       		.uleb128 0xb
 2588 0050 49       		.uleb128 0x49
 2589 0051 13       		.uleb128 0x13
 2590 0052 38       		.uleb128 0x38
 2591 0053 0A       		.uleb128 0xa
 2592 0054 00       		.byte	0
 2593 0055 00       		.byte	0
 2594 0056 07       		.uleb128 0x7
 2595 0057 0D       		.uleb128 0xd
 2596 0058 00       		.byte	0
 2597 0059 03       		.uleb128 0x3
 2598 005a 08       		.uleb128 0x8
 2599 005b 3A       		.uleb128 0x3a
 2600 005c 0B       		.uleb128 0xb
 2601 005d 3B       		.uleb128 0x3b
 2602 005e 0B       		.uleb128 0xb
 2603 005f 49       		.uleb128 0x49
 2604 0060 13       		.uleb128 0x13
 2605 0061 38       		.uleb128 0x38
 2606 0062 0A       		.uleb128 0xa
 2607 0063 00       		.byte	0
 2608 0064 00       		.byte	0
 2609 0065 08       		.uleb128 0x8
ARM GAS  C:\Users\jenny\AppData\Local\Temp\cckA4Rj6.s 			page 47


 2610 0066 13       		.uleb128 0x13
 2611 0067 01       		.byte	0x1
 2612 0068 0B       		.uleb128 0xb
 2613 0069 0B       		.uleb128 0xb
 2614 006a 3A       		.uleb128 0x3a
 2615 006b 0B       		.uleb128 0xb
 2616 006c 3B       		.uleb128 0x3b
 2617 006d 0B       		.uleb128 0xb
 2618 006e 01       		.uleb128 0x1
 2619 006f 13       		.uleb128 0x13
 2620 0070 00       		.byte	0
 2621 0071 00       		.byte	0
 2622 0072 09       		.uleb128 0x9
 2623 0073 0F       		.uleb128 0xf
 2624 0074 00       		.byte	0
 2625 0075 0B       		.uleb128 0xb
 2626 0076 0B       		.uleb128 0xb
 2627 0077 49       		.uleb128 0x49
 2628 0078 13       		.uleb128 0x13
 2629 0079 00       		.byte	0
 2630 007a 00       		.byte	0
 2631 007b 0A       		.uleb128 0xa
 2632 007c 0F       		.uleb128 0xf
 2633 007d 00       		.byte	0
 2634 007e 0B       		.uleb128 0xb
 2635 007f 0B       		.uleb128 0xb
 2636 0080 00       		.byte	0
 2637 0081 00       		.byte	0
 2638 0082 0B       		.uleb128 0xb
 2639 0083 13       		.uleb128 0x13
 2640 0084 01       		.byte	0x1
 2641 0085 03       		.uleb128 0x3
 2642 0086 0E       		.uleb128 0xe
 2643 0087 0B       		.uleb128 0xb
 2644 0088 0B       		.uleb128 0xb
 2645 0089 3A       		.uleb128 0x3a
 2646 008a 0B       		.uleb128 0xb
 2647 008b 3B       		.uleb128 0x3b
 2648 008c 05       		.uleb128 0x5
 2649 008d 01       		.uleb128 0x1
 2650 008e 13       		.uleb128 0x13
 2651 008f 00       		.byte	0
 2652 0090 00       		.byte	0
 2653 0091 0C       		.uleb128 0xc
 2654 0092 0D       		.uleb128 0xd
 2655 0093 00       		.byte	0
 2656 0094 03       		.uleb128 0x3
 2657 0095 08       		.uleb128 0x8
 2658 0096 3A       		.uleb128 0x3a
 2659 0097 0B       		.uleb128 0xb
 2660 0098 3B       		.uleb128 0x3b
 2661 0099 05       		.uleb128 0x5
 2662 009a 49       		.uleb128 0x49
 2663 009b 13       		.uleb128 0x13
 2664 009c 38       		.uleb128 0x38
 2665 009d 0A       		.uleb128 0xa
 2666 009e 00       		.byte	0
ARM GAS  C:\Users\jenny\AppData\Local\Temp\cckA4Rj6.s 			page 48


 2667 009f 00       		.byte	0
 2668 00a0 0D       		.uleb128 0xd
 2669 00a1 15       		.uleb128 0x15
 2670 00a2 01       		.byte	0x1
 2671 00a3 27       		.uleb128 0x27
 2672 00a4 0C       		.uleb128 0xc
 2673 00a5 01       		.uleb128 0x1
 2674 00a6 13       		.uleb128 0x13
 2675 00a7 00       		.byte	0
 2676 00a8 00       		.byte	0
 2677 00a9 0E       		.uleb128 0xe
 2678 00aa 05       		.uleb128 0x5
 2679 00ab 00       		.byte	0
 2680 00ac 49       		.uleb128 0x49
 2681 00ad 13       		.uleb128 0x13
 2682 00ae 00       		.byte	0
 2683 00af 00       		.byte	0
 2684 00b0 0F       		.uleb128 0xf
 2685 00b1 35       		.uleb128 0x35
 2686 00b2 00       		.byte	0
 2687 00b3 49       		.uleb128 0x49
 2688 00b4 13       		.uleb128 0x13
 2689 00b5 00       		.byte	0
 2690 00b6 00       		.byte	0
 2691 00b7 10       		.uleb128 0x10
 2692 00b8 17       		.uleb128 0x17
 2693 00b9 01       		.byte	0x1
 2694 00ba 0B       		.uleb128 0xb
 2695 00bb 0B       		.uleb128 0xb
 2696 00bc 3A       		.uleb128 0x3a
 2697 00bd 0B       		.uleb128 0xb
 2698 00be 3B       		.uleb128 0x3b
 2699 00bf 0B       		.uleb128 0xb
 2700 00c0 01       		.uleb128 0x1
 2701 00c1 13       		.uleb128 0x13
 2702 00c2 00       		.byte	0
 2703 00c3 00       		.byte	0
 2704 00c4 11       		.uleb128 0x11
 2705 00c5 0D       		.uleb128 0xd
 2706 00c6 00       		.byte	0
 2707 00c7 03       		.uleb128 0x3
 2708 00c8 0E       		.uleb128 0xe
 2709 00c9 3A       		.uleb128 0x3a
 2710 00ca 0B       		.uleb128 0xb
 2711 00cb 3B       		.uleb128 0x3b
 2712 00cc 0B       		.uleb128 0xb
 2713 00cd 49       		.uleb128 0x49
 2714 00ce 13       		.uleb128 0x13
 2715 00cf 00       		.byte	0
 2716 00d0 00       		.byte	0
 2717 00d1 12       		.uleb128 0x12
 2718 00d2 26       		.uleb128 0x26
 2719 00d3 00       		.byte	0
 2720 00d4 49       		.uleb128 0x49
 2721 00d5 13       		.uleb128 0x13
 2722 00d6 00       		.byte	0
 2723 00d7 00       		.byte	0
ARM GAS  C:\Users\jenny\AppData\Local\Temp\cckA4Rj6.s 			page 49


 2724 00d8 13       		.uleb128 0x13
 2725 00d9 15       		.uleb128 0x15
 2726 00da 01       		.byte	0x1
 2727 00db 27       		.uleb128 0x27
 2728 00dc 0C       		.uleb128 0xc
 2729 00dd 49       		.uleb128 0x49
 2730 00de 13       		.uleb128 0x13
 2731 00df 01       		.uleb128 0x1
 2732 00e0 13       		.uleb128 0x13
 2733 00e1 00       		.byte	0
 2734 00e2 00       		.byte	0
 2735 00e3 14       		.uleb128 0x14
 2736 00e4 2E       		.uleb128 0x2e
 2737 00e5 01       		.byte	0x1
 2738 00e6 3F       		.uleb128 0x3f
 2739 00e7 0C       		.uleb128 0xc
 2740 00e8 03       		.uleb128 0x3
 2741 00e9 0E       		.uleb128 0xe
 2742 00ea 3A       		.uleb128 0x3a
 2743 00eb 0B       		.uleb128 0xb
 2744 00ec 3B       		.uleb128 0x3b
 2745 00ed 0B       		.uleb128 0xb
 2746 00ee 27       		.uleb128 0x27
 2747 00ef 0C       		.uleb128 0xc
 2748 00f0 49       		.uleb128 0x49
 2749 00f1 13       		.uleb128 0x13
 2750 00f2 20       		.uleb128 0x20
 2751 00f3 0B       		.uleb128 0xb
 2752 00f4 01       		.uleb128 0x1
 2753 00f5 13       		.uleb128 0x13
 2754 00f6 00       		.byte	0
 2755 00f7 00       		.byte	0
 2756 00f8 15       		.uleb128 0x15
 2757 00f9 05       		.uleb128 0x5
 2758 00fa 00       		.byte	0
 2759 00fb 03       		.uleb128 0x3
 2760 00fc 08       		.uleb128 0x8
 2761 00fd 3A       		.uleb128 0x3a
 2762 00fe 0B       		.uleb128 0xb
 2763 00ff 3B       		.uleb128 0x3b
 2764 0100 0B       		.uleb128 0xb
 2765 0101 49       		.uleb128 0x49
 2766 0102 13       		.uleb128 0x13
 2767 0103 00       		.byte	0
 2768 0104 00       		.byte	0
 2769 0105 16       		.uleb128 0x16
 2770 0106 05       		.uleb128 0x5
 2771 0107 00       		.byte	0
 2772 0108 03       		.uleb128 0x3
 2773 0109 0E       		.uleb128 0xe
 2774 010a 3A       		.uleb128 0x3a
 2775 010b 0B       		.uleb128 0xb
 2776 010c 3B       		.uleb128 0x3b
 2777 010d 0B       		.uleb128 0xb
 2778 010e 49       		.uleb128 0x49
 2779 010f 13       		.uleb128 0x13
 2780 0110 00       		.byte	0
ARM GAS  C:\Users\jenny\AppData\Local\Temp\cckA4Rj6.s 			page 50


 2781 0111 00       		.byte	0
 2782 0112 17       		.uleb128 0x17
 2783 0113 2E       		.uleb128 0x2e
 2784 0114 01       		.byte	0x1
 2785 0115 03       		.uleb128 0x3
 2786 0116 0E       		.uleb128 0xe
 2787 0117 3A       		.uleb128 0x3a
 2788 0118 0B       		.uleb128 0xb
 2789 0119 3B       		.uleb128 0x3b
 2790 011a 0B       		.uleb128 0xb
 2791 011b 27       		.uleb128 0x27
 2792 011c 0C       		.uleb128 0xc
 2793 011d 49       		.uleb128 0x49
 2794 011e 13       		.uleb128 0x13
 2795 011f 20       		.uleb128 0x20
 2796 0120 0B       		.uleb128 0xb
 2797 0121 01       		.uleb128 0x1
 2798 0122 13       		.uleb128 0x13
 2799 0123 00       		.byte	0
 2800 0124 00       		.byte	0
 2801 0125 18       		.uleb128 0x18
 2802 0126 34       		.uleb128 0x34
 2803 0127 00       		.byte	0
 2804 0128 03       		.uleb128 0x3
 2805 0129 08       		.uleb128 0x8
 2806 012a 3A       		.uleb128 0x3a
 2807 012b 0B       		.uleb128 0xb
 2808 012c 3B       		.uleb128 0x3b
 2809 012d 0B       		.uleb128 0xb
 2810 012e 49       		.uleb128 0x49
 2811 012f 13       		.uleb128 0x13
 2812 0130 00       		.byte	0
 2813 0131 00       		.byte	0
 2814 0132 19       		.uleb128 0x19
 2815 0133 2E       		.uleb128 0x2e
 2816 0134 01       		.byte	0x1
 2817 0135 03       		.uleb128 0x3
 2818 0136 0E       		.uleb128 0xe
 2819 0137 3A       		.uleb128 0x3a
 2820 0138 0B       		.uleb128 0xb
 2821 0139 3B       		.uleb128 0x3b
 2822 013a 0B       		.uleb128 0xb
 2823 013b 27       		.uleb128 0x27
 2824 013c 0C       		.uleb128 0xc
 2825 013d 20       		.uleb128 0x20
 2826 013e 0B       		.uleb128 0xb
 2827 013f 01       		.uleb128 0x1
 2828 0140 13       		.uleb128 0x13
 2829 0141 00       		.byte	0
 2830 0142 00       		.byte	0
 2831 0143 1A       		.uleb128 0x1a
 2832 0144 2E       		.uleb128 0x2e
 2833 0145 01       		.byte	0x1
 2834 0146 31       		.uleb128 0x31
 2835 0147 13       		.uleb128 0x13
 2836 0148 11       		.uleb128 0x11
 2837 0149 01       		.uleb128 0x1
ARM GAS  C:\Users\jenny\AppData\Local\Temp\cckA4Rj6.s 			page 51


 2838 014a 12       		.uleb128 0x12
 2839 014b 01       		.uleb128 0x1
 2840 014c 40       		.uleb128 0x40
 2841 014d 06       		.uleb128 0x6
 2842 014e 9742     		.uleb128 0x2117
 2843 0150 0C       		.uleb128 0xc
 2844 0151 01       		.uleb128 0x1
 2845 0152 13       		.uleb128 0x13
 2846 0153 00       		.byte	0
 2847 0154 00       		.byte	0
 2848 0155 1B       		.uleb128 0x1b
 2849 0156 05       		.uleb128 0x5
 2850 0157 00       		.byte	0
 2851 0158 31       		.uleb128 0x31
 2852 0159 13       		.uleb128 0x13
 2853 015a 02       		.uleb128 0x2
 2854 015b 0A       		.uleb128 0xa
 2855 015c 00       		.byte	0
 2856 015d 00       		.byte	0
 2857 015e 1C       		.uleb128 0x1c
 2858 015f 05       		.uleb128 0x5
 2859 0160 00       		.byte	0
 2860 0161 31       		.uleb128 0x31
 2861 0162 13       		.uleb128 0x13
 2862 0163 02       		.uleb128 0x2
 2863 0164 06       		.uleb128 0x6
 2864 0165 00       		.byte	0
 2865 0166 00       		.byte	0
 2866 0167 1D       		.uleb128 0x1d
 2867 0168 2E       		.uleb128 0x2e
 2868 0169 01       		.byte	0x1
 2869 016a 3F       		.uleb128 0x3f
 2870 016b 0C       		.uleb128 0xc
 2871 016c 03       		.uleb128 0x3
 2872 016d 0E       		.uleb128 0xe
 2873 016e 3A       		.uleb128 0x3a
 2874 016f 0B       		.uleb128 0xb
 2875 0170 3B       		.uleb128 0x3b
 2876 0171 0B       		.uleb128 0xb
 2877 0172 27       		.uleb128 0x27
 2878 0173 0C       		.uleb128 0xc
 2879 0174 49       		.uleb128 0x49
 2880 0175 13       		.uleb128 0x13
 2881 0176 11       		.uleb128 0x11
 2882 0177 01       		.uleb128 0x1
 2883 0178 12       		.uleb128 0x12
 2884 0179 01       		.uleb128 0x1
 2885 017a 40       		.uleb128 0x40
 2886 017b 06       		.uleb128 0x6
 2887 017c 9742     		.uleb128 0x2117
 2888 017e 0C       		.uleb128 0xc
 2889 017f 01       		.uleb128 0x1
 2890 0180 13       		.uleb128 0x13
 2891 0181 00       		.byte	0
 2892 0182 00       		.byte	0
 2893 0183 1E       		.uleb128 0x1e
 2894 0184 05       		.uleb128 0x5
ARM GAS  C:\Users\jenny\AppData\Local\Temp\cckA4Rj6.s 			page 52


 2895 0185 00       		.byte	0
 2896 0186 03       		.uleb128 0x3
 2897 0187 08       		.uleb128 0x8
 2898 0188 3A       		.uleb128 0x3a
 2899 0189 0B       		.uleb128 0xb
 2900 018a 3B       		.uleb128 0x3b
 2901 018b 0B       		.uleb128 0xb
 2902 018c 49       		.uleb128 0x49
 2903 018d 13       		.uleb128 0x13
 2904 018e 02       		.uleb128 0x2
 2905 018f 0A       		.uleb128 0xa
 2906 0190 00       		.byte	0
 2907 0191 00       		.byte	0
 2908 0192 1F       		.uleb128 0x1f
 2909 0193 05       		.uleb128 0x5
 2910 0194 00       		.byte	0
 2911 0195 03       		.uleb128 0x3
 2912 0196 0E       		.uleb128 0xe
 2913 0197 3A       		.uleb128 0x3a
 2914 0198 0B       		.uleb128 0xb
 2915 0199 3B       		.uleb128 0x3b
 2916 019a 0B       		.uleb128 0xb
 2917 019b 49       		.uleb128 0x49
 2918 019c 13       		.uleb128 0x13
 2919 019d 02       		.uleb128 0x2
 2920 019e 06       		.uleb128 0x6
 2921 019f 00       		.byte	0
 2922 01a0 00       		.byte	0
 2923 01a1 20       		.uleb128 0x20
 2924 01a2 05       		.uleb128 0x5
 2925 01a3 00       		.byte	0
 2926 01a4 03       		.uleb128 0x3
 2927 01a5 08       		.uleb128 0x8
 2928 01a6 3A       		.uleb128 0x3a
 2929 01a7 0B       		.uleb128 0xb
 2930 01a8 3B       		.uleb128 0x3b
 2931 01a9 0B       		.uleb128 0xb
 2932 01aa 49       		.uleb128 0x49
 2933 01ab 13       		.uleb128 0x13
 2934 01ac 02       		.uleb128 0x2
 2935 01ad 06       		.uleb128 0x6
 2936 01ae 00       		.byte	0
 2937 01af 00       		.byte	0
 2938 01b0 21       		.uleb128 0x21
 2939 01b1 34       		.uleb128 0x34
 2940 01b2 00       		.byte	0
 2941 01b3 03       		.uleb128 0x3
 2942 01b4 08       		.uleb128 0x8
 2943 01b5 3A       		.uleb128 0x3a
 2944 01b6 0B       		.uleb128 0xb
 2945 01b7 3B       		.uleb128 0x3b
 2946 01b8 0B       		.uleb128 0xb
 2947 01b9 49       		.uleb128 0x49
 2948 01ba 13       		.uleb128 0x13
 2949 01bb 02       		.uleb128 0x2
 2950 01bc 0A       		.uleb128 0xa
 2951 01bd 00       		.byte	0
ARM GAS  C:\Users\jenny\AppData\Local\Temp\cckA4Rj6.s 			page 53


 2952 01be 00       		.byte	0
 2953 01bf 22       		.uleb128 0x22
 2954 01c0 1D       		.uleb128 0x1d
 2955 01c1 01       		.byte	0x1
 2956 01c2 31       		.uleb128 0x31
 2957 01c3 13       		.uleb128 0x13
 2958 01c4 52       		.uleb128 0x52
 2959 01c5 01       		.uleb128 0x1
 2960 01c6 55       		.uleb128 0x55
 2961 01c7 06       		.uleb128 0x6
 2962 01c8 58       		.uleb128 0x58
 2963 01c9 0B       		.uleb128 0xb
 2964 01ca 59       		.uleb128 0x59
 2965 01cb 0B       		.uleb128 0xb
 2966 01cc 00       		.byte	0
 2967 01cd 00       		.byte	0
 2968 01ce 23       		.uleb128 0x23
 2969 01cf 34       		.uleb128 0x34
 2970 01d0 00       		.byte	0
 2971 01d1 03       		.uleb128 0x3
 2972 01d2 08       		.uleb128 0x8
 2973 01d3 3A       		.uleb128 0x3a
 2974 01d4 0B       		.uleb128 0xb
 2975 01d5 3B       		.uleb128 0x3b
 2976 01d6 0B       		.uleb128 0xb
 2977 01d7 49       		.uleb128 0x49
 2978 01d8 13       		.uleb128 0x13
 2979 01d9 02       		.uleb128 0x2
 2980 01da 06       		.uleb128 0x6
 2981 01db 00       		.byte	0
 2982 01dc 00       		.byte	0
 2983 01dd 24       		.uleb128 0x24
 2984 01de 0B       		.uleb128 0xb
 2985 01df 01       		.byte	0x1
 2986 01e0 11       		.uleb128 0x11
 2987 01e1 01       		.uleb128 0x1
 2988 01e2 12       		.uleb128 0x12
 2989 01e3 01       		.uleb128 0x1
 2990 01e4 01       		.uleb128 0x1
 2991 01e5 13       		.uleb128 0x13
 2992 01e6 00       		.byte	0
 2993 01e7 00       		.byte	0
 2994 01e8 25       		.uleb128 0x25
 2995 01e9 898201   		.uleb128 0x4109
 2996 01ec 01       		.byte	0x1
 2997 01ed 11       		.uleb128 0x11
 2998 01ee 01       		.uleb128 0x1
 2999 01ef 31       		.uleb128 0x31
 3000 01f0 13       		.uleb128 0x13
 3001 01f1 01       		.uleb128 0x1
 3002 01f2 13       		.uleb128 0x13
 3003 01f3 00       		.byte	0
 3004 01f4 00       		.byte	0
 3005 01f5 26       		.uleb128 0x26
 3006 01f6 8A8201   		.uleb128 0x410a
 3007 01f9 00       		.byte	0
 3008 01fa 02       		.uleb128 0x2
ARM GAS  C:\Users\jenny\AppData\Local\Temp\cckA4Rj6.s 			page 54


 3009 01fb 0A       		.uleb128 0xa
 3010 01fc 9142     		.uleb128 0x2111
 3011 01fe 0A       		.uleb128 0xa
 3012 01ff 00       		.byte	0
 3013 0200 00       		.byte	0
 3014 0201 27       		.uleb128 0x27
 3015 0202 898201   		.uleb128 0x4109
 3016 0205 01       		.byte	0x1
 3017 0206 11       		.uleb128 0x11
 3018 0207 01       		.uleb128 0x1
 3019 0208 31       		.uleb128 0x31
 3020 0209 13       		.uleb128 0x13
 3021 020a 00       		.byte	0
 3022 020b 00       		.byte	0
 3023 020c 28       		.uleb128 0x28
 3024 020d 34       		.uleb128 0x34
 3025 020e 00       		.byte	0
 3026 020f 03       		.uleb128 0x3
 3027 0210 0E       		.uleb128 0xe
 3028 0211 3A       		.uleb128 0x3a
 3029 0212 0B       		.uleb128 0xb
 3030 0213 3B       		.uleb128 0x3b
 3031 0214 0B       		.uleb128 0xb
 3032 0215 49       		.uleb128 0x49
 3033 0216 13       		.uleb128 0x13
 3034 0217 02       		.uleb128 0x2
 3035 0218 0A       		.uleb128 0xa
 3036 0219 00       		.byte	0
 3037 021a 00       		.byte	0
 3038 021b 29       		.uleb128 0x29
 3039 021c 898201   		.uleb128 0x4109
 3040 021f 00       		.byte	0
 3041 0220 11       		.uleb128 0x11
 3042 0221 01       		.uleb128 0x1
 3043 0222 31       		.uleb128 0x31
 3044 0223 13       		.uleb128 0x13
 3045 0224 00       		.byte	0
 3046 0225 00       		.byte	0
 3047 0226 2A       		.uleb128 0x2a
 3048 0227 0B       		.uleb128 0xb
 3049 0228 01       		.byte	0x1
 3050 0229 55       		.uleb128 0x55
 3051 022a 06       		.uleb128 0x6
 3052 022b 01       		.uleb128 0x1
 3053 022c 13       		.uleb128 0x13
 3054 022d 00       		.byte	0
 3055 022e 00       		.byte	0
 3056 022f 2B       		.uleb128 0x2b
 3057 0230 34       		.uleb128 0x34
 3058 0231 00       		.byte	0
 3059 0232 03       		.uleb128 0x3
 3060 0233 08       		.uleb128 0x8
 3061 0234 3A       		.uleb128 0x3a
 3062 0235 0B       		.uleb128 0xb
 3063 0236 3B       		.uleb128 0x3b
 3064 0237 05       		.uleb128 0x5
 3065 0238 49       		.uleb128 0x49
ARM GAS  C:\Users\jenny\AppData\Local\Temp\cckA4Rj6.s 			page 55


 3066 0239 13       		.uleb128 0x13
 3067 023a 02       		.uleb128 0x2
 3068 023b 06       		.uleb128 0x6
 3069 023c 00       		.byte	0
 3070 023d 00       		.byte	0
 3071 023e 2C       		.uleb128 0x2c
 3072 023f 2E       		.uleb128 0x2e
 3073 0240 01       		.byte	0x1
 3074 0241 3F       		.uleb128 0x3f
 3075 0242 0C       		.uleb128 0xc
 3076 0243 03       		.uleb128 0x3
 3077 0244 0E       		.uleb128 0xe
 3078 0245 3A       		.uleb128 0x3a
 3079 0246 0B       		.uleb128 0xb
 3080 0247 3B       		.uleb128 0x3b
 3081 0248 05       		.uleb128 0x5
 3082 0249 27       		.uleb128 0x27
 3083 024a 0C       		.uleb128 0xc
 3084 024b 11       		.uleb128 0x11
 3085 024c 01       		.uleb128 0x1
 3086 024d 12       		.uleb128 0x12
 3087 024e 01       		.uleb128 0x1
 3088 024f 40       		.uleb128 0x40
 3089 0250 0A       		.uleb128 0xa
 3090 0251 9742     		.uleb128 0x2117
 3091 0253 0C       		.uleb128 0xc
 3092 0254 01       		.uleb128 0x1
 3093 0255 13       		.uleb128 0x13
 3094 0256 00       		.byte	0
 3095 0257 00       		.byte	0
 3096 0258 2D       		.uleb128 0x2d
 3097 0259 05       		.uleb128 0x5
 3098 025a 00       		.byte	0
 3099 025b 03       		.uleb128 0x3
 3100 025c 08       		.uleb128 0x8
 3101 025d 3A       		.uleb128 0x3a
 3102 025e 0B       		.uleb128 0xb
 3103 025f 3B       		.uleb128 0x3b
 3104 0260 05       		.uleb128 0x5
 3105 0261 49       		.uleb128 0x49
 3106 0262 13       		.uleb128 0x13
 3107 0263 02       		.uleb128 0x2
 3108 0264 0A       		.uleb128 0xa
 3109 0265 00       		.byte	0
 3110 0266 00       		.byte	0
 3111 0267 2E       		.uleb128 0x2e
 3112 0268 0B       		.uleb128 0xb
 3113 0269 01       		.byte	0x1
 3114 026a 11       		.uleb128 0x11
 3115 026b 01       		.uleb128 0x1
 3116 026c 12       		.uleb128 0x12
 3117 026d 01       		.uleb128 0x1
 3118 026e 00       		.byte	0
 3119 026f 00       		.byte	0
 3120 0270 2F       		.uleb128 0x2f
 3121 0271 2E       		.uleb128 0x2e
 3122 0272 01       		.byte	0x1
ARM GAS  C:\Users\jenny\AppData\Local\Temp\cckA4Rj6.s 			page 56


 3123 0273 3F       		.uleb128 0x3f
 3124 0274 0C       		.uleb128 0xc
 3125 0275 03       		.uleb128 0x3
 3126 0276 0E       		.uleb128 0xe
 3127 0277 3A       		.uleb128 0x3a
 3128 0278 0B       		.uleb128 0xb
 3129 0279 3B       		.uleb128 0x3b
 3130 027a 05       		.uleb128 0x5
 3131 027b 27       		.uleb128 0x27
 3132 027c 0C       		.uleb128 0xc
 3133 027d 11       		.uleb128 0x11
 3134 027e 01       		.uleb128 0x1
 3135 027f 12       		.uleb128 0x12
 3136 0280 01       		.uleb128 0x1
 3137 0281 40       		.uleb128 0x40
 3138 0282 06       		.uleb128 0x6
 3139 0283 9742     		.uleb128 0x2117
 3140 0285 0C       		.uleb128 0xc
 3141 0286 01       		.uleb128 0x1
 3142 0287 13       		.uleb128 0x13
 3143 0288 00       		.byte	0
 3144 0289 00       		.byte	0
 3145 028a 30       		.uleb128 0x30
 3146 028b 05       		.uleb128 0x5
 3147 028c 00       		.byte	0
 3148 028d 03       		.uleb128 0x3
 3149 028e 0E       		.uleb128 0xe
 3150 028f 3A       		.uleb128 0x3a
 3151 0290 0B       		.uleb128 0xb
 3152 0291 3B       		.uleb128 0x3b
 3153 0292 05       		.uleb128 0x5
 3154 0293 49       		.uleb128 0x49
 3155 0294 13       		.uleb128 0x13
 3156 0295 02       		.uleb128 0x2
 3157 0296 06       		.uleb128 0x6
 3158 0297 00       		.byte	0
 3159 0298 00       		.byte	0
 3160 0299 31       		.uleb128 0x31
 3161 029a 05       		.uleb128 0x5
 3162 029b 00       		.byte	0
 3163 029c 03       		.uleb128 0x3
 3164 029d 08       		.uleb128 0x8
 3165 029e 3A       		.uleb128 0x3a
 3166 029f 0B       		.uleb128 0xb
 3167 02a0 3B       		.uleb128 0x3b
 3168 02a1 05       		.uleb128 0x5
 3169 02a2 49       		.uleb128 0x49
 3170 02a3 13       		.uleb128 0x13
 3171 02a4 02       		.uleb128 0x2
 3172 02a5 06       		.uleb128 0x6
 3173 02a6 00       		.byte	0
 3174 02a7 00       		.byte	0
 3175 02a8 32       		.uleb128 0x32
 3176 02a9 34       		.uleb128 0x34
 3177 02aa 00       		.byte	0
 3178 02ab 03       		.uleb128 0x3
 3179 02ac 08       		.uleb128 0x8
ARM GAS  C:\Users\jenny\AppData\Local\Temp\cckA4Rj6.s 			page 57


 3180 02ad 3A       		.uleb128 0x3a
 3181 02ae 0B       		.uleb128 0xb
 3182 02af 3B       		.uleb128 0x3b
 3183 02b0 05       		.uleb128 0x5
 3184 02b1 49       		.uleb128 0x49
 3185 02b2 13       		.uleb128 0x13
 3186 02b3 02       		.uleb128 0x2
 3187 02b4 0A       		.uleb128 0xa
 3188 02b5 00       		.byte	0
 3189 02b6 00       		.byte	0
 3190 02b7 33       		.uleb128 0x33
 3191 02b8 1D       		.uleb128 0x1d
 3192 02b9 01       		.byte	0x1
 3193 02ba 31       		.uleb128 0x31
 3194 02bb 13       		.uleb128 0x13
 3195 02bc 11       		.uleb128 0x11
 3196 02bd 01       		.uleb128 0x1
 3197 02be 12       		.uleb128 0x12
 3198 02bf 01       		.uleb128 0x1
 3199 02c0 58       		.uleb128 0x58
 3200 02c1 0B       		.uleb128 0xb
 3201 02c2 59       		.uleb128 0x59
 3202 02c3 05       		.uleb128 0x5
 3203 02c4 01       		.uleb128 0x1
 3204 02c5 13       		.uleb128 0x13
 3205 02c6 00       		.byte	0
 3206 02c7 00       		.byte	0
 3207 02c8 34       		.uleb128 0x34
 3208 02c9 34       		.uleb128 0x34
 3209 02ca 00       		.byte	0
 3210 02cb 31       		.uleb128 0x31
 3211 02cc 13       		.uleb128 0x13
 3212 02cd 02       		.uleb128 0x2
 3213 02ce 06       		.uleb128 0x6
 3214 02cf 00       		.byte	0
 3215 02d0 00       		.byte	0
 3216 02d1 35       		.uleb128 0x35
 3217 02d2 898201   		.uleb128 0x4109
 3218 02d5 01       		.byte	0x1
 3219 02d6 11       		.uleb128 0x11
 3220 02d7 01       		.uleb128 0x1
 3221 02d8 9542     		.uleb128 0x2115
 3222 02da 0C       		.uleb128 0xc
 3223 02db 31       		.uleb128 0x31
 3224 02dc 13       		.uleb128 0x13
 3225 02dd 00       		.byte	0
 3226 02de 00       		.byte	0
 3227 02df 36       		.uleb128 0x36
 3228 02e0 2E       		.uleb128 0x2e
 3229 02e1 01       		.byte	0x1
 3230 02e2 3F       		.uleb128 0x3f
 3231 02e3 0C       		.uleb128 0xc
 3232 02e4 03       		.uleb128 0x3
 3233 02e5 0E       		.uleb128 0xe
 3234 02e6 3A       		.uleb128 0x3a
 3235 02e7 0B       		.uleb128 0xb
 3236 02e8 3B       		.uleb128 0x3b
ARM GAS  C:\Users\jenny\AppData\Local\Temp\cckA4Rj6.s 			page 58


 3237 02e9 05       		.uleb128 0x5
 3238 02ea 27       		.uleb128 0x27
 3239 02eb 0C       		.uleb128 0xc
 3240 02ec 49       		.uleb128 0x49
 3241 02ed 13       		.uleb128 0x13
 3242 02ee 11       		.uleb128 0x11
 3243 02ef 01       		.uleb128 0x1
 3244 02f0 12       		.uleb128 0x12
 3245 02f1 01       		.uleb128 0x1
 3246 02f2 40       		.uleb128 0x40
 3247 02f3 06       		.uleb128 0x6
 3248 02f4 9742     		.uleb128 0x2117
 3249 02f6 0C       		.uleb128 0xc
 3250 02f7 01       		.uleb128 0x1
 3251 02f8 13       		.uleb128 0x13
 3252 02f9 00       		.byte	0
 3253 02fa 00       		.byte	0
 3254 02fb 37       		.uleb128 0x37
 3255 02fc 1D       		.uleb128 0x1d
 3256 02fd 01       		.byte	0x1
 3257 02fe 31       		.uleb128 0x31
 3258 02ff 13       		.uleb128 0x13
 3259 0300 52       		.uleb128 0x52
 3260 0301 01       		.uleb128 0x1
 3261 0302 55       		.uleb128 0x55
 3262 0303 06       		.uleb128 0x6
 3263 0304 58       		.uleb128 0x58
 3264 0305 0B       		.uleb128 0xb
 3265 0306 59       		.uleb128 0x59
 3266 0307 05       		.uleb128 0x5
 3267 0308 01       		.uleb128 0x1
 3268 0309 13       		.uleb128 0x13
 3269 030a 00       		.byte	0
 3270 030b 00       		.byte	0
 3271 030c 38       		.uleb128 0x38
 3272 030d 34       		.uleb128 0x34
 3273 030e 00       		.byte	0
 3274 030f 03       		.uleb128 0x3
 3275 0310 0E       		.uleb128 0xe
 3276 0311 3A       		.uleb128 0x3a
 3277 0312 0B       		.uleb128 0xb
 3278 0313 3B       		.uleb128 0x3b
 3279 0314 0B       		.uleb128 0xb
 3280 0315 49       		.uleb128 0x49
 3281 0316 13       		.uleb128 0x13
 3282 0317 3F       		.uleb128 0x3f
 3283 0318 0C       		.uleb128 0xc
 3284 0319 3C       		.uleb128 0x3c
 3285 031a 0C       		.uleb128 0xc
 3286 031b 00       		.byte	0
 3287 031c 00       		.byte	0
 3288 031d 39       		.uleb128 0x39
 3289 031e 2E       		.uleb128 0x2e
 3290 031f 01       		.byte	0x1
 3291 0320 3F       		.uleb128 0x3f
 3292 0321 0C       		.uleb128 0xc
 3293 0322 03       		.uleb128 0x3
ARM GAS  C:\Users\jenny\AppData\Local\Temp\cckA4Rj6.s 			page 59


 3294 0323 0E       		.uleb128 0xe
 3295 0324 3A       		.uleb128 0x3a
 3296 0325 0B       		.uleb128 0xb
 3297 0326 3B       		.uleb128 0x3b
 3298 0327 0B       		.uleb128 0xb
 3299 0328 27       		.uleb128 0x27
 3300 0329 0C       		.uleb128 0xc
 3301 032a 3C       		.uleb128 0x3c
 3302 032b 0C       		.uleb128 0xc
 3303 032c 01       		.uleb128 0x1
 3304 032d 13       		.uleb128 0x13
 3305 032e 00       		.byte	0
 3306 032f 00       		.byte	0
 3307 0330 3A       		.uleb128 0x3a
 3308 0331 2E       		.uleb128 0x2e
 3309 0332 00       		.byte	0
 3310 0333 3F       		.uleb128 0x3f
 3311 0334 0C       		.uleb128 0xc
 3312 0335 03       		.uleb128 0x3
 3313 0336 0E       		.uleb128 0xe
 3314 0337 3A       		.uleb128 0x3a
 3315 0338 0B       		.uleb128 0xb
 3316 0339 3B       		.uleb128 0x3b
 3317 033a 0B       		.uleb128 0xb
 3318 033b 27       		.uleb128 0x27
 3319 033c 0C       		.uleb128 0xc
 3320 033d 3C       		.uleb128 0x3c
 3321 033e 0C       		.uleb128 0xc
 3322 033f 00       		.byte	0
 3323 0340 00       		.byte	0
 3324 0341 3B       		.uleb128 0x3b
 3325 0342 2E       		.uleb128 0x2e
 3326 0343 01       		.byte	0x1
 3327 0344 3F       		.uleb128 0x3f
 3328 0345 0C       		.uleb128 0xc
 3329 0346 03       		.uleb128 0x3
 3330 0347 0E       		.uleb128 0xe
 3331 0348 3A       		.uleb128 0x3a
 3332 0349 0B       		.uleb128 0xb
 3333 034a 3B       		.uleb128 0x3b
 3334 034b 0B       		.uleb128 0xb
 3335 034c 27       		.uleb128 0x27
 3336 034d 0C       		.uleb128 0xc
 3337 034e 49       		.uleb128 0x49
 3338 034f 13       		.uleb128 0x13
 3339 0350 3C       		.uleb128 0x3c
 3340 0351 0C       		.uleb128 0xc
 3341 0352 01       		.uleb128 0x1
 3342 0353 13       		.uleb128 0x13
 3343 0354 00       		.byte	0
 3344 0355 00       		.byte	0
 3345 0356 3C       		.uleb128 0x3c
 3346 0357 2E       		.uleb128 0x2e
 3347 0358 01       		.byte	0x1
 3348 0359 3F       		.uleb128 0x3f
 3349 035a 0C       		.uleb128 0xc
 3350 035b 03       		.uleb128 0x3
ARM GAS  C:\Users\jenny\AppData\Local\Temp\cckA4Rj6.s 			page 60


 3351 035c 0E       		.uleb128 0xe
 3352 035d 3A       		.uleb128 0x3a
 3353 035e 0B       		.uleb128 0xb
 3354 035f 3B       		.uleb128 0x3b
 3355 0360 0B       		.uleb128 0xb
 3356 0361 27       		.uleb128 0x27
 3357 0362 0C       		.uleb128 0xc
 3358 0363 3C       		.uleb128 0x3c
 3359 0364 0C       		.uleb128 0xc
 3360 0365 00       		.byte	0
 3361 0366 00       		.byte	0
 3362 0367 00       		.byte	0
 3363              		.section	.debug_loc,"",%progbits
 3364              	.Ldebug_loc0:
 3365              	.LLST0:
 3366 0000 00000000 		.4byte	.LFB7
 3367 0004 02000000 		.4byte	.LCFI0
 3368 0008 0200     		.2byte	0x2
 3369 000a 7D       		.byte	0x7d
 3370 000b 00       		.sleb128 0
 3371 000c 02000000 		.4byte	.LCFI0
 3372 0010 46000000 		.4byte	.LFE7
 3373 0014 0200     		.2byte	0x2
 3374 0016 7D       		.byte	0x7d
 3375 0017 10       		.sleb128 16
 3376 0018 00000000 		.4byte	0
 3377 001c 00000000 		.4byte	0
 3378              	.LLST1:
 3379 0020 00000000 		.4byte	.LVL0
 3380 0024 26000000 		.4byte	.LVL1
 3381 0028 0100     		.2byte	0x1
 3382 002a 51       		.byte	0x51
 3383 002b 26000000 		.4byte	.LVL1
 3384 002f 46000000 		.4byte	.LFE7
 3385 0033 0300     		.2byte	0x3
 3386 0035 70       		.byte	0x70
 3387 0036 C000     		.sleb128 64
 3388 0038 00000000 		.4byte	0
 3389 003c 00000000 		.4byte	0
 3390              	.LLST2:
 3391 0040 00000000 		.4byte	.LFB8
 3392 0044 04000000 		.4byte	.LCFI1
 3393 0048 0200     		.2byte	0x2
 3394 004a 7D       		.byte	0x7d
 3395 004b 00       		.sleb128 0
 3396 004c 04000000 		.4byte	.LCFI1
 3397 0050 66000000 		.4byte	.LFE8
 3398 0054 0200     		.2byte	0x2
 3399 0056 7D       		.byte	0x7d
 3400 0057 14       		.sleb128 20
 3401 0058 00000000 		.4byte	0
 3402 005c 00000000 		.4byte	0
 3403              	.LLST3:
 3404 0060 00000000 		.4byte	.LVL2
 3405 0064 06000000 		.4byte	.LVL3
 3406 0068 0100     		.2byte	0x1
 3407 006a 51       		.byte	0x51
ARM GAS  C:\Users\jenny\AppData\Local\Temp\cckA4Rj6.s 			page 61


 3408 006b 06000000 		.4byte	.LVL3
 3409 006f 0C000000 		.4byte	.LVL4
 3410 0073 0400     		.2byte	0x4
 3411 0075 71       		.byte	0x71
 3412 0076 E400     		.sleb128 100
 3413 0078 9F       		.byte	0x9f
 3414 0079 0C000000 		.4byte	.LVL4
 3415 007d 66000000 		.4byte	.LFE8
 3416 0081 0400     		.2byte	0x4
 3417 0083 F3       		.byte	0xf3
 3418 0084 01       		.uleb128 0x1
 3419 0085 51       		.byte	0x51
 3420 0086 9F       		.byte	0x9f
 3421 0087 00000000 		.4byte	0
 3422 008b 00000000 		.4byte	0
 3423              	.LLST4:
 3424 008f 00000000 		.4byte	.LVL2
 3425 0093 32000000 		.4byte	.LVL7
 3426 0097 0100     		.2byte	0x1
 3427 0099 52       		.byte	0x52
 3428 009a 32000000 		.4byte	.LVL7
 3429 009e 66000000 		.4byte	.LFE8
 3430 00a2 0100     		.2byte	0x1
 3431 00a4 5C       		.byte	0x5c
 3432 00a5 00000000 		.4byte	0
 3433 00a9 00000000 		.4byte	0
 3434              	.LLST5:
 3435 00ad 00000000 		.4byte	.LVL2
 3436 00b1 1A000000 		.4byte	.LVL5
 3437 00b5 0100     		.2byte	0x1
 3438 00b7 53       		.byte	0x53
 3439 00b8 1A000000 		.4byte	.LVL5
 3440 00bc 28000000 		.4byte	.LVL6
 3441 00c0 0300     		.2byte	0x3
 3442 00c2 71       		.byte	0x71
 3443 00c3 C000     		.sleb128 64
 3444 00c5 28000000 		.4byte	.LVL6
 3445 00c9 66000000 		.4byte	.LFE8
 3446 00cd 0500     		.2byte	0x5
 3447 00cf 70       		.byte	0x70
 3448 00d0 0C       		.sleb128 12
 3449 00d1 06       		.byte	0x6
 3450 00d2 23       		.byte	0x23
 3451 00d3 40       		.uleb128 0x40
 3452 00d4 00000000 		.4byte	0
 3453 00d8 00000000 		.4byte	0
 3454              	.LLST6:
 3455 00dc 00000000 		.4byte	.LFB9
 3456 00e0 02000000 		.4byte	.LCFI2
 3457 00e4 0200     		.2byte	0x2
 3458 00e6 7D       		.byte	0x7d
 3459 00e7 00       		.sleb128 0
 3460 00e8 02000000 		.4byte	.LCFI2
 3461 00ec 06000000 		.4byte	.LCFI3
 3462 00f0 0200     		.2byte	0x2
 3463 00f2 7D       		.byte	0x7d
 3464 00f3 08       		.sleb128 8
ARM GAS  C:\Users\jenny\AppData\Local\Temp\cckA4Rj6.s 			page 62


 3465 00f4 06000000 		.4byte	.LCFI3
 3466 00f8 2A000000 		.4byte	.LFE9
 3467 00fc 0200     		.2byte	0x2
 3468 00fe 7D       		.byte	0x7d
 3469 00ff 10       		.sleb128 16
 3470 0100 00000000 		.4byte	0
 3471 0104 00000000 		.4byte	0
 3472              	.LLST7:
 3473 0108 00000000 		.4byte	.LVL9
 3474 010c 15000000 		.4byte	.LVL14-1
 3475 0110 0100     		.2byte	0x1
 3476 0112 50       		.byte	0x50
 3477 0113 15000000 		.4byte	.LVL14-1
 3478 0117 2A000000 		.4byte	.LFE9
 3479 011b 0400     		.2byte	0x4
 3480 011d F3       		.byte	0xf3
 3481 011e 01       		.uleb128 0x1
 3482 011f 50       		.byte	0x50
 3483 0120 9F       		.byte	0x9f
 3484 0121 00000000 		.4byte	0
 3485 0125 00000000 		.4byte	0
 3486              	.LLST8:
 3487 0129 00000000 		.4byte	.LVL9
 3488 012d 15000000 		.4byte	.LVL14-1
 3489 0131 0100     		.2byte	0x1
 3490 0133 51       		.byte	0x51
 3491 0134 15000000 		.4byte	.LVL14-1
 3492 0138 2A000000 		.4byte	.LFE9
 3493 013c 0400     		.2byte	0x4
 3494 013e F3       		.byte	0xf3
 3495 013f 01       		.uleb128 0x1
 3496 0140 51       		.byte	0x51
 3497 0141 9F       		.byte	0x9f
 3498 0142 00000000 		.4byte	0
 3499 0146 00000000 		.4byte	0
 3500              	.LLST9:
 3501 014a 00000000 		.4byte	.LVL9
 3502 014e 15000000 		.4byte	.LVL14-1
 3503 0152 0100     		.2byte	0x1
 3504 0154 52       		.byte	0x52
 3505 0155 15000000 		.4byte	.LVL14-1
 3506 0159 2A000000 		.4byte	.LFE9
 3507 015d 0400     		.2byte	0x4
 3508 015f F3       		.byte	0xf3
 3509 0160 01       		.uleb128 0x1
 3510 0161 52       		.byte	0x52
 3511 0162 9F       		.byte	0x9f
 3512 0163 00000000 		.4byte	0
 3513 0167 00000000 		.4byte	0
 3514              	.LLST10:
 3515 016b 00000000 		.4byte	.LVL9
 3516 016f 08000000 		.4byte	.LVL10
 3517 0173 0100     		.2byte	0x1
 3518 0175 53       		.byte	0x53
 3519 0176 08000000 		.4byte	.LVL10
 3520 017a 10000000 		.4byte	.LVL13
 3521 017e 0100     		.2byte	0x1
ARM GAS  C:\Users\jenny\AppData\Local\Temp\cckA4Rj6.s 			page 63


 3522 0180 54       		.byte	0x54
 3523 0181 10000000 		.4byte	.LVL13
 3524 0185 15000000 		.4byte	.LVL14-1
 3525 0189 0100     		.2byte	0x1
 3526 018b 53       		.byte	0x53
 3527 018c 15000000 		.4byte	.LVL14-1
 3528 0190 2A000000 		.4byte	.LFE9
 3529 0194 0400     		.2byte	0x4
 3530 0196 F3       		.byte	0xf3
 3531 0197 01       		.uleb128 0x1
 3532 0198 53       		.byte	0x53
 3533 0199 9F       		.byte	0x9f
 3534 019a 00000000 		.4byte	0
 3535 019e 00000000 		.4byte	0
 3536              	.LLST11:
 3537 01a2 1A000000 		.4byte	.LVL15
 3538 01a6 1D000000 		.4byte	.LVL16-1
 3539 01aa 0100     		.2byte	0x1
 3540 01ac 50       		.byte	0x50
 3541 01ad 1D000000 		.4byte	.LVL16-1
 3542 01b1 2A000000 		.4byte	.LFE9
 3543 01b5 0100     		.2byte	0x1
 3544 01b7 54       		.byte	0x54
 3545 01b8 00000000 		.4byte	0
 3546 01bc 00000000 		.4byte	0
 3547              	.LLST12:
 3548 01c0 0C000000 		.4byte	.LVL11
 3549 01c4 0E000000 		.4byte	.LVL12
 3550 01c8 0100     		.2byte	0x1
 3551 01ca 53       		.byte	0x53
 3552 01cb 00000000 		.4byte	0
 3553 01cf 00000000 		.4byte	0
 3554              	.LLST13:
 3555 01d3 24000000 		.4byte	.LVL18
 3556 01d7 2A000000 		.4byte	.LFE9
 3557 01db 0100     		.2byte	0x1
 3558 01dd 53       		.byte	0x53
 3559 01de 00000000 		.4byte	0
 3560 01e2 00000000 		.4byte	0
 3561              	.LLST14:
 3562 01e6 00000000 		.4byte	.LFB10
 3563 01ea 02000000 		.4byte	.LCFI4
 3564 01ee 0200     		.2byte	0x2
 3565 01f0 7D       		.byte	0x7d
 3566 01f1 00       		.sleb128 0
 3567 01f2 02000000 		.4byte	.LCFI4
 3568 01f6 30000000 		.4byte	.LFE10
 3569 01fa 0200     		.2byte	0x2
 3570 01fc 7D       		.byte	0x7d
 3571 01fd 08       		.sleb128 8
 3572 01fe 00000000 		.4byte	0
 3573 0202 00000000 		.4byte	0
 3574              	.LLST15:
 3575 0206 00000000 		.4byte	.LVL19
 3576 020a 1F000000 		.4byte	.LVL24-1
 3577 020e 0100     		.2byte	0x1
 3578 0210 50       		.byte	0x50
ARM GAS  C:\Users\jenny\AppData\Local\Temp\cckA4Rj6.s 			page 64


 3579 0211 1F000000 		.4byte	.LVL24-1
 3580 0215 30000000 		.4byte	.LFE10
 3581 0219 0400     		.2byte	0x4
 3582 021b F3       		.byte	0xf3
 3583 021c 01       		.uleb128 0x1
 3584 021d 50       		.byte	0x50
 3585 021e 9F       		.byte	0x9f
 3586 021f 00000000 		.4byte	0
 3587 0223 00000000 		.4byte	0
 3588              	.LLST16:
 3589 0227 08000000 		.4byte	.LVL21
 3590 022b 0A000000 		.4byte	.LVL22
 3591 022f 0100     		.2byte	0x1
 3592 0231 53       		.byte	0x53
 3593 0232 00000000 		.4byte	0
 3594 0236 00000000 		.4byte	0
 3595              	.LLST17:
 3596 023a 26000000 		.4byte	.LVL26
 3597 023e 30000000 		.4byte	.LFE10
 3598 0242 0100     		.2byte	0x1
 3599 0244 53       		.byte	0x53
 3600 0245 00000000 		.4byte	0
 3601 0249 00000000 		.4byte	0
 3602              	.LLST18:
 3603 024d 00000000 		.4byte	.LFB11
 3604 0251 02000000 		.4byte	.LCFI5
 3605 0255 0200     		.2byte	0x2
 3606 0257 7D       		.byte	0x7d
 3607 0258 00       		.sleb128 0
 3608 0259 02000000 		.4byte	.LCFI5
 3609 025d 1A000000 		.4byte	.LFE11
 3610 0261 0200     		.2byte	0x2
 3611 0263 7D       		.byte	0x7d
 3612 0264 08       		.sleb128 8
 3613 0265 00000000 		.4byte	0
 3614 0269 00000000 		.4byte	0
 3615              	.LLST19:
 3616 026d 00000000 		.4byte	.LVL27
 3617 0271 0F000000 		.4byte	.LVL30-1
 3618 0275 0100     		.2byte	0x1
 3619 0277 50       		.byte	0x50
 3620 0278 0F000000 		.4byte	.LVL30-1
 3621 027c 1A000000 		.4byte	.LFE11
 3622 0280 0100     		.2byte	0x1
 3623 0282 54       		.byte	0x54
 3624 0283 00000000 		.4byte	0
 3625 0287 00000000 		.4byte	0
 3626              	.LLST20:
 3627 028b 0A000000 		.4byte	.LVL29
 3628 028f 0F000000 		.4byte	.LVL30-1
 3629 0293 0100     		.2byte	0x1
 3630 0295 53       		.byte	0x53
 3631 0296 00000000 		.4byte	0
 3632 029a 00000000 		.4byte	0
 3633              	.LLST21:
 3634 029e 16000000 		.4byte	.LVL32
 3635 02a2 1A000000 		.4byte	.LFE11
ARM GAS  C:\Users\jenny\AppData\Local\Temp\cckA4Rj6.s 			page 65


 3636 02a6 0100     		.2byte	0x1
 3637 02a8 53       		.byte	0x53
 3638 02a9 00000000 		.4byte	0
 3639 02ad 00000000 		.4byte	0
 3640              	.LLST22:
 3641 02b1 06000000 		.4byte	.LVL35
 3642 02b5 08000000 		.4byte	.LVL36
 3643 02b9 0100     		.2byte	0x1
 3644 02bb 53       		.byte	0x53
 3645 02bc 00000000 		.4byte	0
 3646 02c0 00000000 		.4byte	0
 3647              	.LLST23:
 3648 02c4 14000000 		.4byte	.LVL38
 3649 02c8 16000000 		.4byte	.LFE12
 3650 02cc 0100     		.2byte	0x1
 3651 02ce 53       		.byte	0x53
 3652 02cf 00000000 		.4byte	0
 3653 02d3 00000000 		.4byte	0
 3654              	.LLST24:
 3655 02d7 00000000 		.4byte	.LFB13
 3656 02db 02000000 		.4byte	.LCFI6
 3657 02df 0200     		.2byte	0x2
 3658 02e1 7D       		.byte	0x7d
 3659 02e2 00       		.sleb128 0
 3660 02e3 02000000 		.4byte	.LCFI6
 3661 02e7 18000000 		.4byte	.LFE13
 3662 02eb 0200     		.2byte	0x2
 3663 02ed 7D       		.byte	0x7d
 3664 02ee 08       		.sleb128 8
 3665 02ef 00000000 		.4byte	0
 3666 02f3 00000000 		.4byte	0
 3667              	.LLST25:
 3668 02f7 00000000 		.4byte	.LVL39
 3669 02fb 0C000000 		.4byte	.LVL42
 3670 02ff 0100     		.2byte	0x1
 3671 0301 50       		.byte	0x50
 3672 0302 0C000000 		.4byte	.LVL42
 3673 0306 0F000000 		.4byte	.LVL43-1
 3674 030a 0100     		.2byte	0x1
 3675 030c 51       		.byte	0x51
 3676 030d 0F000000 		.4byte	.LVL43-1
 3677 0311 18000000 		.4byte	.LFE13
 3678 0315 0400     		.2byte	0x4
 3679 0317 F3       		.byte	0xf3
 3680 0318 01       		.uleb128 0x1
 3681 0319 50       		.byte	0x50
 3682 031a 9F       		.byte	0x9f
 3683 031b 00000000 		.4byte	0
 3684 031f 00000000 		.4byte	0
 3685              	.LLST26:
 3686 0323 0A000000 		.4byte	.LVL41
 3687 0327 0F000000 		.4byte	.LVL43-1
 3688 032b 0100     		.2byte	0x1
 3689 032d 53       		.byte	0x53
 3690 032e 00000000 		.4byte	0
 3691 0332 00000000 		.4byte	0
 3692              	.LLST27:
ARM GAS  C:\Users\jenny\AppData\Local\Temp\cckA4Rj6.s 			page 66


 3693 0336 16000000 		.4byte	.LVL45
 3694 033a 18000000 		.4byte	.LFE13
 3695 033e 0100     		.2byte	0x1
 3696 0340 53       		.byte	0x53
 3697 0341 00000000 		.4byte	0
 3698 0345 00000000 		.4byte	0
 3699              	.LLST28:
 3700 0349 00000000 		.4byte	.LFB14
 3701 034d 02000000 		.4byte	.LCFI7
 3702 0351 0200     		.2byte	0x2
 3703 0353 7D       		.byte	0x7d
 3704 0354 00       		.sleb128 0
 3705 0355 02000000 		.4byte	.LCFI7
 3706 0359 24000000 		.4byte	.LFE14
 3707 035d 0200     		.2byte	0x2
 3708 035f 7D       		.byte	0x7d
 3709 0360 08       		.sleb128 8
 3710 0361 00000000 		.4byte	0
 3711 0365 00000000 		.4byte	0
 3712              	.LLST29:
 3713 0369 00000000 		.4byte	.LVL46
 3714 036d 0C000000 		.4byte	.LVL50
 3715 0371 0100     		.2byte	0x1
 3716 0373 50       		.byte	0x50
 3717 0374 0C000000 		.4byte	.LVL50
 3718 0378 0E000000 		.4byte	.LVL51
 3719 037c 0600     		.2byte	0x6
 3720 037e 70       		.byte	0x70
 3721 037f 00       		.sleb128 0
 3722 0380 71       		.byte	0x71
 3723 0381 00       		.sleb128 0
 3724 0382 1C       		.byte	0x1c
 3725 0383 9F       		.byte	0x9f
 3726 0384 0E000000 		.4byte	.LVL51
 3727 0388 15000000 		.4byte	.LVL52-1
 3728 038c 0100     		.2byte	0x1
 3729 038e 51       		.byte	0x51
 3730 038f 00000000 		.4byte	0
 3731 0393 00000000 		.4byte	0
 3732              	.LLST30:
 3733 0397 08000000 		.4byte	.LVL48
 3734 039b 0A000000 		.4byte	.LVL49
 3735 039f 0100     		.2byte	0x1
 3736 03a1 53       		.byte	0x53
 3737 03a2 00000000 		.4byte	0
 3738 03a6 00000000 		.4byte	0
 3739              	.LLST31:
 3740 03aa 1C000000 		.4byte	.LVL54
 3741 03ae 24000000 		.4byte	.LFE14
 3742 03b2 0100     		.2byte	0x1
 3743 03b4 53       		.byte	0x53
 3744 03b5 00000000 		.4byte	0
 3745 03b9 00000000 		.4byte	0
 3746              	.LLST32:
 3747 03bd 00000000 		.4byte	.LFB15
 3748 03c1 02000000 		.4byte	.LCFI8
 3749 03c5 0200     		.2byte	0x2
ARM GAS  C:\Users\jenny\AppData\Local\Temp\cckA4Rj6.s 			page 67


 3750 03c7 7D       		.byte	0x7d
 3751 03c8 00       		.sleb128 0
 3752 03c9 02000000 		.4byte	.LCFI8
 3753 03cd 28000000 		.4byte	.LFE15
 3754 03d1 0200     		.2byte	0x2
 3755 03d3 7D       		.byte	0x7d
 3756 03d4 08       		.sleb128 8
 3757 03d5 00000000 		.4byte	0
 3758 03d9 00000000 		.4byte	0
 3759              	.LLST33:
 3760 03dd 08000000 		.4byte	.LVL56
 3761 03e1 0A000000 		.4byte	.LVL57
 3762 03e5 0100     		.2byte	0x1
 3763 03e7 53       		.byte	0x53
 3764 03e8 00000000 		.4byte	0
 3765 03ec 00000000 		.4byte	0
 3766              	.LLST34:
 3767 03f0 20000000 		.4byte	.LVL60
 3768 03f4 28000000 		.4byte	.LFE15
 3769 03f8 0100     		.2byte	0x1
 3770 03fa 53       		.byte	0x53
 3771 03fb 00000000 		.4byte	0
 3772 03ff 00000000 		.4byte	0
 3773              	.LLST35:
 3774 0403 00000000 		.4byte	.LFB17
 3775 0407 02000000 		.4byte	.LCFI9
 3776 040b 0200     		.2byte	0x2
 3777 040d 7D       		.byte	0x7d
 3778 040e 00       		.sleb128 0
 3779 040f 02000000 		.4byte	.LCFI9
 3780 0413 40000000 		.4byte	.LFE17
 3781 0417 0200     		.2byte	0x2
 3782 0419 7D       		.byte	0x7d
 3783 041a 10       		.sleb128 16
 3784 041b 00000000 		.4byte	0
 3785 041f 00000000 		.4byte	0
 3786              	.LLST36:
 3787 0423 00000000 		.4byte	.LVL61
 3788 0427 0E000000 		.4byte	.LVL63
 3789 042b 0100     		.2byte	0x1
 3790 042d 50       		.byte	0x50
 3791 042e 0E000000 		.4byte	.LVL63
 3792 0432 12000000 		.4byte	.LVL64
 3793 0436 0200     		.2byte	0x2
 3794 0438 74       		.byte	0x74
 3795 0439 24       		.sleb128 36
 3796 043a 12000000 		.4byte	.LVL64
 3797 043e 40000000 		.4byte	.LFE17
 3798 0442 0400     		.2byte	0x4
 3799 0444 F3       		.byte	0xf3
 3800 0445 01       		.uleb128 0x1
 3801 0446 50       		.byte	0x50
 3802 0447 9F       		.byte	0x9f
 3803 0448 00000000 		.4byte	0
 3804 044c 00000000 		.4byte	0
 3805              	.LLST37:
 3806 0450 12000000 		.4byte	.LVL64
ARM GAS  C:\Users\jenny\AppData\Local\Temp\cckA4Rj6.s 			page 68


 3807 0454 20000000 		.4byte	.LVL66
 3808 0458 0300     		.2byte	0x3
 3809 045a 74       		.byte	0x74
 3810 045b 28       		.sleb128 40
 3811 045c 9F       		.byte	0x9f
 3812 045d 00000000 		.4byte	0
 3813 0461 00000000 		.4byte	0
 3814              	.LLST38:
 3815 0465 12000000 		.4byte	.LVL64
 3816 0469 19000000 		.4byte	.LVL65-1
 3817 046d 0100     		.2byte	0x1
 3818 046f 50       		.byte	0x50
 3819 0470 00000000 		.4byte	0
 3820 0474 00000000 		.4byte	0
 3821              	.LLST39:
 3822 0478 00000000 		.4byte	.LVL68
 3823 047c 09000000 		.4byte	.LVL71-1
 3824 0480 0100     		.2byte	0x1
 3825 0482 50       		.byte	0x50
 3826 0483 09000000 		.4byte	.LVL71-1
 3827 0487 0A000000 		.4byte	.LFE16
 3828 048b 0400     		.2byte	0x4
 3829 048d F3       		.byte	0xf3
 3830 048e 01       		.uleb128 0x1
 3831 048f 50       		.byte	0x50
 3832 0490 9F       		.byte	0x9f
 3833 0491 00000000 		.4byte	0
 3834 0495 00000000 		.4byte	0
 3835              	.LLST40:
 3836 0499 06000000 		.4byte	.LVL70
 3837 049d 09000000 		.4byte	.LVL71-1
 3838 04a1 0100     		.2byte	0x1
 3839 04a3 53       		.byte	0x53
 3840 04a4 00000000 		.4byte	0
 3841 04a8 00000000 		.4byte	0
 3842              	.LLST41:
 3843 04ac 00000000 		.4byte	.LFB18
 3844 04b0 02000000 		.4byte	.LCFI10
 3845 04b4 0200     		.2byte	0x2
 3846 04b6 7D       		.byte	0x7d
 3847 04b7 00       		.sleb128 0
 3848 04b8 02000000 		.4byte	.LCFI10
 3849 04bc 38000000 		.4byte	.LFE18
 3850 04c0 0200     		.2byte	0x2
 3851 04c2 7D       		.byte	0x7d
 3852 04c3 10       		.sleb128 16
 3853 04c4 00000000 		.4byte	0
 3854 04c8 00000000 		.4byte	0
 3855              	.LLST42:
 3856 04cc 00000000 		.4byte	.LVL72
 3857 04d0 14000000 		.4byte	.LVL76
 3858 04d4 0100     		.2byte	0x1
 3859 04d6 50       		.byte	0x50
 3860 04d7 14000000 		.4byte	.LVL76
 3861 04db 38000000 		.4byte	.LFE18
 3862 04df 0100     		.2byte	0x1
 3863 04e1 54       		.byte	0x54
ARM GAS  C:\Users\jenny\AppData\Local\Temp\cckA4Rj6.s 			page 69


 3864 04e2 00000000 		.4byte	0
 3865 04e6 00000000 		.4byte	0
 3866              	.LLST43:
 3867 04ea 0A000000 		.4byte	.LVL74
 3868 04ee 0C000000 		.4byte	.LVL75
 3869 04f2 0100     		.2byte	0x1
 3870 04f4 53       		.byte	0x53
 3871 04f5 00000000 		.4byte	0
 3872 04f9 00000000 		.4byte	0
 3873              	.LLST44:
 3874 04fd 16000000 		.4byte	.LVL77
 3875 0501 20000000 		.4byte	.LVL78
 3876 0505 0300     		.2byte	0x3
 3877 0507 74       		.byte	0x74
 3878 0508 28       		.sleb128 40
 3879 0509 9F       		.byte	0x9f
 3880 050a 00000000 		.4byte	0
 3881 050e 00000000 		.4byte	0
 3882              	.LLST45:
 3883 0512 16000000 		.4byte	.LVL77
 3884 0516 1F000000 		.4byte	.LVL78-1
 3885 051a 0100     		.2byte	0x1
 3886 051c 51       		.byte	0x51
 3887 051d 00000000 		.4byte	0
 3888 0521 00000000 		.4byte	0
 3889              	.LLST46:
 3890 0525 28000000 		.4byte	.LVL81
 3891 0529 2D000000 		.4byte	.LVL82-1
 3892 052d 0100     		.2byte	0x1
 3893 052f 53       		.byte	0x53
 3894 0530 00000000 		.4byte	0
 3895 0534 00000000 		.4byte	0
 3896              		.section	.debug_aranges,"",%progbits
 3897 0000 74000000 		.4byte	0x74
 3898 0004 0200     		.2byte	0x2
 3899 0006 00000000 		.4byte	.Ldebug_info0
 3900 000a 04       		.byte	0x4
 3901 000b 00       		.byte	0
 3902 000c 0000     		.2byte	0
 3903 000e 0000     		.2byte	0
 3904 0010 00000000 		.4byte	.LFB7
 3905 0014 46000000 		.4byte	.LFE7-.LFB7
 3906 0018 00000000 		.4byte	.LFB8
 3907 001c 66000000 		.4byte	.LFE8-.LFB8
 3908 0020 00000000 		.4byte	.LFB9
 3909 0024 2A000000 		.4byte	.LFE9-.LFB9
 3910 0028 00000000 		.4byte	.LFB10
 3911 002c 30000000 		.4byte	.LFE10-.LFB10
 3912 0030 00000000 		.4byte	.LFB11
 3913 0034 1A000000 		.4byte	.LFE11-.LFB11
 3914 0038 00000000 		.4byte	.LFB12
 3915 003c 16000000 		.4byte	.LFE12-.LFB12
 3916 0040 00000000 		.4byte	.LFB13
 3917 0044 18000000 		.4byte	.LFE13-.LFB13
 3918 0048 00000000 		.4byte	.LFB14
 3919 004c 24000000 		.4byte	.LFE14-.LFB14
 3920 0050 00000000 		.4byte	.LFB15
ARM GAS  C:\Users\jenny\AppData\Local\Temp\cckA4Rj6.s 			page 70


 3921 0054 28000000 		.4byte	.LFE15-.LFB15
 3922 0058 00000000 		.4byte	.LFB17
 3923 005c 40000000 		.4byte	.LFE17-.LFB17
 3924 0060 00000000 		.4byte	.LFB16
 3925 0064 0A000000 		.4byte	.LFE16-.LFB16
 3926 0068 00000000 		.4byte	.LFB18
 3927 006c 38000000 		.4byte	.LFE18-.LFB18
 3928 0070 00000000 		.4byte	0
 3929 0074 00000000 		.4byte	0
 3930              		.section	.debug_ranges,"",%progbits
 3931              	.Ldebug_ranges0:
 3932 0000 06000000 		.4byte	.LBB10
 3933 0004 0A000000 		.4byte	.LBE10
 3934 0008 0C000000 		.4byte	.LBB16
 3935 000c 14000000 		.4byte	.LBE16
 3936 0010 26000000 		.4byte	.LBB17
 3937 0014 28000000 		.4byte	.LBE17
 3938 0018 2A000000 		.4byte	.LBB18
 3939 001c 40000000 		.4byte	.LBE18
 3940 0020 42000000 		.4byte	.LBB19
 3941 0024 60000000 		.4byte	.LBE19
 3942 0028 00000000 		.4byte	0
 3943 002c 00000000 		.4byte	0
 3944 0030 02000000 		.4byte	.LBB24
 3945 0034 04000000 		.4byte	.LBE24
 3946 0038 06000000 		.4byte	.LBB25
 3947 003c 0A000000 		.4byte	.LBE25
 3948 0040 00000000 		.4byte	0
 3949 0044 00000000 		.4byte	0
 3950 0048 10000000 		.4byte	.LBB39
 3951 004c 12000000 		.4byte	.LBE39
 3952 0050 18000000 		.4byte	.LBB42
 3953 0054 1C000000 		.4byte	.LBE42
 3954 0058 00000000 		.4byte	0
 3955 005c 00000000 		.4byte	0
 3956 0060 00000000 		.4byte	.LFB7
 3957 0064 46000000 		.4byte	.LFE7
 3958 0068 00000000 		.4byte	.LFB8
 3959 006c 66000000 		.4byte	.LFE8
 3960 0070 00000000 		.4byte	.LFB9
 3961 0074 2A000000 		.4byte	.LFE9
 3962 0078 00000000 		.4byte	.LFB10
 3963 007c 30000000 		.4byte	.LFE10
 3964 0080 00000000 		.4byte	.LFB11
 3965 0084 1A000000 		.4byte	.LFE11
 3966 0088 00000000 		.4byte	.LFB12
 3967 008c 16000000 		.4byte	.LFE12
 3968 0090 00000000 		.4byte	.LFB13
 3969 0094 18000000 		.4byte	.LFE13
 3970 0098 00000000 		.4byte	.LFB14
 3971 009c 24000000 		.4byte	.LFE14
 3972 00a0 00000000 		.4byte	.LFB15
 3973 00a4 28000000 		.4byte	.LFE15
 3974 00a8 00000000 		.4byte	.LFB17
 3975 00ac 40000000 		.4byte	.LFE17
 3976 00b0 00000000 		.4byte	.LFB16
 3977 00b4 0A000000 		.4byte	.LFE16
ARM GAS  C:\Users\jenny\AppData\Local\Temp\cckA4Rj6.s 			page 71


 3978 00b8 00000000 		.4byte	.LFB18
 3979 00bc 38000000 		.4byte	.LFE18
 3980 00c0 00000000 		.4byte	0
 3981 00c4 00000000 		.4byte	0
 3982              		.section	.debug_line,"",%progbits
 3983              	.Ldebug_line0:
 3984 0000 30030000 		.section	.debug_str,"MS",%progbits,1
 3984      02008701 
 3984      00000201 
 3984      FB0E0D00 
 3984      01010101 
 3985              	.LASF73:
 3986 0000 7466756E 		.ascii	"tfunc_t\000"
 3986      635F7400 
 3987              	.LASF37:
 3988 0008 705F6D73 		.ascii	"p_msg\000"
 3988      6700
 3989              	.LASF2:
 3990 000e 73697A65 		.ascii	"size_t\000"
 3990      5F7400
 3991              	.LASF74:
 3992 0015 7072696F 		.ascii	"prio\000"
 3992      00
 3993              	.LASF68:
 3994 001a 7264796D 		.ascii	"rdymsg\000"
 3994      736700
 3995              	.LASF90:
 3996 0021 76746C69 		.ascii	"vtlist\000"
 3996      737400
 3997              	.LASF87:
 3998 0028 63685468 		.ascii	"chThdExitS\000"
 3998      64457869 
 3998      745300
 3999              	.LASF12:
 4000 0033 6C6F6E67 		.ascii	"long long unsigned int\000"
 4000      206C6F6E 
 4000      6720756E 
 4000      7369676E 
 4000      65642069 
 4001              	.LASF25:
 4002 004a 705F7072 		.ascii	"p_prio\000"
 4002      696F00
 4003              	.LASF11:
 4004 0051 6C6F6E67 		.ascii	"long long int\000"
 4004      206C6F6E 
 4004      6720696E 
 4004      7400
 4005              	.LASF1:
 4006 005f 7369676E 		.ascii	"signed char\000"
 4006      65642063 
 4006      68617200 
 4007              	.LASF88:
 4008 006b 63685468 		.ascii	"chThdExit\000"
 4008      64457869 
 4008      7400
 4009              	.LASF41:
 4010 0075 705F6D70 		.ascii	"p_mpool\000"
ARM GAS  C:\Users\jenny\AppData\Local\Temp\cckA4Rj6.s 			page 72


 4010      6F6F6C00 
 4011              	.LASF65:
 4012 007d 6D5F7175 		.ascii	"m_queue\000"
 4012      65756500 
 4013              	.LASF17:
 4014 0085 74736C69 		.ascii	"tslices_t\000"
 4014      6365735F 
 4014      7400
 4015              	.LASF76:
 4016 008f 63685468 		.ascii	"chThdCreateI\000"
 4016      64437265 
 4016      61746549 
 4016      00
 4017              	.LASF99:
 4018 009c 474E5520 		.ascii	"GNU C 4.7.4 20130913 (release) [ARM/embedded-4_7-br"
 4018      4320342E 
 4018      372E3420 
 4018      32303133 
 4018      30393133 
 4019 00cf 616E6368 		.ascii	"anch revision 202601]\000"
 4019      20726576 
 4019      6973696F 
 4019      6E203230 
 4019      32363031 
 4020              	.LASF8:
 4021 00e5 6C6F6E67 		.ascii	"long int\000"
 4021      20696E74 
 4021      00
 4022              	.LASF15:
 4023 00ee 74737461 		.ascii	"tstate_t\000"
 4023      74655F74 
 4023      00
 4024              	.LASF27:
 4025 00f7 705F6E65 		.ascii	"p_newer\000"
 4025      77657200 
 4026              	.LASF102:
 4027 00ff 6C697374 		.ascii	"list_remove\000"
 4027      5F72656D 
 4027      6F766500 
 4028              	.LASF69:
 4029 010b 65786974 		.ascii	"exitcode\000"
 4029      636F6465 
 4029      00
 4030              	.LASF94:
 4031 0114 63685363 		.ascii	"chSchRescheduleS\000"
 4031      68526573 
 4031      63686564 
 4031      756C6553 
 4031      00
 4032              	.LASF60:
 4033 0125 725F6E65 		.ascii	"r_newer\000"
 4033      77657200 
 4034              	.LASF44:
 4035 012d 72656761 		.ascii	"regarm_t\000"
 4035      726D5F74 
 4035      00
 4036              	.LASF51:
ARM GAS  C:\Users\jenny\AppData\Local\Temp\cckA4Rj6.s 			page 73


 4037 0136 76745F70 		.ascii	"vt_prev\000"
 4037      72657600 
 4038              	.LASF78:
 4039 013e 63685468 		.ascii	"chThdSetPriority\000"
 4039      64536574 
 4039      5072696F 
 4039      72697479 
 4039      00
 4040              	.LASF0:
 4041 014f 756E7369 		.ascii	"unsigned int\000"
 4041      676E6564 
 4041      20696E74 
 4041      00
 4042              	.LASF50:
 4043 015c 76745F6E 		.ascii	"vt_next\000"
 4043      65787400 
 4044              	.LASF10:
 4045 0164 6C6F6E67 		.ascii	"long unsigned int\000"
 4045      20756E73 
 4045      69676E65 
 4045      6420696E 
 4045      7400
 4046              	.LASF49:
 4047 0176 56697274 		.ascii	"VirtualTimer\000"
 4047      75616C54 
 4047      696D6572 
 4047      00
 4048              	.LASF46:
 4049 0183 636F6E74 		.ascii	"context\000"
 4049      65787400 
 4050              	.LASF75:
 4051 018b 73697A65 		.ascii	"size\000"
 4051      00
 4052              	.LASF6:
 4053 0190 73686F72 		.ascii	"short unsigned int\000"
 4053      7420756E 
 4053      7369676E 
 4053      65642069 
 4053      6E7400
 4054              	.LASF97:
 4055 01a3 63685363 		.ascii	"chSchWakeupS\000"
 4055      6857616B 
 4055      65757053 
 4055      00
 4056              	.LASF19:
 4057 01b0 6D73675F 		.ascii	"msg_t\000"
 4057      7400
 4058              	.LASF79:
 4059 01b6 6E657770 		.ascii	"newprio\000"
 4059      72696F00 
 4060              	.LASF14:
 4061 01be 746D6F64 		.ascii	"tmode_t\000"
 4061      655F7400 
 4062              	.LASF82:
 4063 01c6 63685468 		.ascii	"chThdTerminate\000"
 4063      64546572 
 4063      6D696E61 
ARM GAS  C:\Users\jenny\AppData\Local\Temp\cckA4Rj6.s 			page 74


 4063      746500
 4064              	.LASF43:
 4065 01d5 54687265 		.ascii	"ThreadsList\000"
 4065      6164734C 
 4065      69737400 
 4066              	.LASF20:
 4067 01e1 6576656E 		.ascii	"eventmask_t\000"
 4067      746D6173 
 4067      6B5F7400 
 4068              	.LASF64:
 4069 01ed 4D757465 		.ascii	"Mutex\000"
 4069      7800
 4070              	.LASF80:
 4071 01f3 6F6C6470 		.ascii	"oldprio\000"
 4071      72696F00 
 4072              	.LASF77:
 4073 01fb 63685468 		.ascii	"chThdCreateStatic\000"
 4073      64437265 
 4073      61746553 
 4073      74617469 
 4073      6300
 4074              	.LASF52:
 4075 020d 76745F74 		.ascii	"vt_time\000"
 4075      696D6500 
 4076              	.LASF47:
 4077 0215 73697A65 		.ascii	"sizetype\000"
 4077      74797065 
 4077      00
 4078              	.LASF53:
 4079 021e 76745F66 		.ascii	"vt_func\000"
 4079      756E6300 
 4080              	.LASF81:
 4081 0226 63685468 		.ascii	"chThdResume\000"
 4081      64526573 
 4081      756D6500 
 4082              	.LASF95:
 4083 0232 63685363 		.ascii	"chSchDoRescheduleBehind\000"
 4083      68446F52 
 4083      65736368 
 4083      6564756C 
 4083      65426568 
 4084              	.LASF28:
 4085 024a 705F6F6C 		.ascii	"p_older\000"
 4085      64657200 
 4086              	.LASF59:
 4087 0252 725F6374 		.ascii	"r_ctx\000"
 4087      7800
 4088              	.LASF42:
 4089 0258 54687265 		.ascii	"ThreadsQueue\000"
 4089      61647351 
 4089      75657565 
 4089      00
 4090              	.LASF84:
 4091 0265 74696D65 		.ascii	"time\000"
 4091      00
 4092              	.LASF103:
 4093 026a 6C697374 		.ascii	"list_insert\000"
ARM GAS  C:\Users\jenny\AppData\Local\Temp\cckA4Rj6.s 			page 75


 4093      5F696E73 
 4093      65727400 
 4094              	.LASF62:
 4095 0276 725F6375 		.ascii	"r_current\000"
 4095      7272656E 
 4095      7400
 4096              	.LASF61:
 4097 0280 725F6F6C 		.ascii	"r_older\000"
 4097      64657200 
 4098              	.LASF85:
 4099 0288 63685468 		.ascii	"chThdSleepUntil\000"
 4099      64536C65 
 4099      6570556E 
 4099      74696C00 
 4100              	.LASF16:
 4101 0298 74726566 		.ascii	"trefs_t\000"
 4101      735F7400 
 4102              	.LASF24:
 4103 02a0 705F7072 		.ascii	"p_prev\000"
 4103      657600
 4104              	.LASF18:
 4105 02a7 74707269 		.ascii	"tprio_t\000"
 4105      6F5F7400 
 4106              	.LASF13:
 4107 02af 5F426F6F 		.ascii	"_Bool\000"
 4107      6C00
 4108              	.LASF7:
 4109 02b5 696E7433 		.ascii	"int32_t\000"
 4109      325F7400 
 4110              	.LASF4:
 4111 02bd 756E7369 		.ascii	"unsigned char\000"
 4111      676E6564 
 4111      20636861 
 4111      7200
 4112              	.LASF39:
 4113 02cb 705F6D74 		.ascii	"p_mtxlist\000"
 4113      786C6973 
 4113      7400
 4114              	.LASF5:
 4115 02d5 73686F72 		.ascii	"short int\000"
 4115      7420696E 
 4115      7400
 4116              	.LASF30:
 4117 02df 705F7374 		.ascii	"p_state\000"
 4117      61746500 
 4118              	.LASF33:
 4119 02e7 705F7072 		.ascii	"p_preempt\000"
 4119      65656D70 
 4119      7400
 4120              	.LASF58:
 4121 02f1 725F7072 		.ascii	"r_prio\000"
 4121      696F00
 4122              	.LASF71:
 4123 02f8 65776D61 		.ascii	"ewmask\000"
 4123      736B00
 4124              	.LASF23:
 4125 02ff 705F6E65 		.ascii	"p_next\000"
ARM GAS  C:\Users\jenny\AppData\Local\Temp\cckA4Rj6.s 			page 76


 4125      787400
 4126              	.LASF31:
 4127 0306 705F666C 		.ascii	"p_flags\000"
 4127      61677300 
 4128              	.LASF104:
 4129 030e 63685468 		.ascii	"chThdRelease\000"
 4129      6452656C 
 4129      65617365 
 4129      00
 4130              	.LASF22:
 4131 031b 54687265 		.ascii	"Thread\000"
 4131      616400
 4132              	.LASF98:
 4133 0322 63685363 		.ascii	"chSchGoSleepS\000"
 4133      68476F53 
 4133      6C656570 
 4133      5300
 4134              	.LASF38:
 4135 0330 705F6570 		.ascii	"p_epending\000"
 4135      656E6469 
 4135      6E6700
 4136              	.LASF9:
 4137 033b 75696E74 		.ascii	"uint32_t\000"
 4137      33325F74 
 4137      00
 4138              	.LASF92:
 4139 0344 5F746872 		.ascii	"_thread_init\000"
 4139      6561645F 
 4139      696E6974 
 4139      00
 4140              	.LASF57:
 4141 0351 725F7175 		.ascii	"r_queue\000"
 4141      65756500 
 4142              	.LASF72:
 4143 0359 63686172 		.ascii	"char\000"
 4143      00
 4144              	.LASF96:
 4145 035e 63685363 		.ascii	"chSchReadyI\000"
 4145      68526561 
 4145      64794900 
 4146              	.LASF67:
 4147 036a 6D5F6E65 		.ascii	"m_next\000"
 4147      787400
 4148              	.LASF21:
 4149 0371 73797374 		.ascii	"systime_t\000"
 4149      696D655F 
 4149      7400
 4150              	.LASF40:
 4151 037b 705F7265 		.ascii	"p_realprio\000"
 4151      616C7072 
 4151      696F00
 4152              	.LASF48:
 4153 0386 76746675 		.ascii	"vtfunc_t\000"
 4153      6E635F74 
 4153      00
 4154              	.LASF86:
 4155 038f 63685468 		.ascii	"chThdYield\000"
ARM GAS  C:\Users\jenny\AppData\Local\Temp\cckA4Rj6.s 			page 77


 4155      64596965 
 4155      6C6400
 4156              	.LASF34:
 4157 039a 705F7469 		.ascii	"p_time\000"
 4157      6D6500
 4158              	.LASF45:
 4159 03a1 696E7463 		.ascii	"intctx\000"
 4159      747800
 4160              	.LASF36:
 4161 03a8 705F6D73 		.ascii	"p_msgqueue\000"
 4161      67717565 
 4161      756500
 4162              	.LASF89:
 4163 03b3 63685468 		.ascii	"chThdWait\000"
 4163      64576169 
 4163      7400
 4164              	.LASF54:
 4165 03bd 76745F70 		.ascii	"vt_par\000"
 4165      617200
 4166              	.LASF83:
 4167 03c4 63685468 		.ascii	"chThdSleep\000"
 4167      64536C65 
 4167      657000
 4168              	.LASF32:
 4169 03cf 705F7265 		.ascii	"p_refs\000"
 4169      667300
 4170              	.LASF63:
 4171 03d6 52656164 		.ascii	"ReadyList\000"
 4171      794C6973 
 4171      7400
 4172              	.LASF91:
 4173 03e0 726C6973 		.ascii	"rlist\000"
 4173      7400
 4174              	.LASF3:
 4175 03e6 75696E74 		.ascii	"uint8_t\000"
 4175      385F7400 
 4176              	.LASF100:
 4177 03ee 2E2E2F2E 		.ascii	"../../os/kernel/src/chthreads.c\000"
 4177      2E2F6F73 
 4177      2F6B6572 
 4177      6E656C2F 
 4177      7372632F 
 4178              	.LASF101:
 4179 040e 443A5C6A 		.ascii	"D:\\jenny\\dev\\probe\\chibios\\chibios.workspace\\"
 4179      656E6E79 
 4179      5C646576 
 4179      5C70726F 
 4179      62655C63 
 4180 043b 64656D6F 		.ascii	"demos\\ARMCM4-STM32F407-LWIP-FATFS-USB\000"
 4180      735C4152 
 4180      4D434D34 
 4180      2D53544D 
 4180      33324634 
 4181              	.LASF70:
 4182 0461 77746F62 		.ascii	"wtobjp\000"
 4182      6A7000
 4183              	.LASF29:
ARM GAS  C:\Users\jenny\AppData\Local\Temp\cckA4Rj6.s 			page 78


 4184 0468 705F6E61 		.ascii	"p_name\000"
 4184      6D6500
 4185              	.LASF55:
 4186 046f 76745F73 		.ascii	"vt_systime\000"
 4186      79737469 
 4186      6D6500
 4187              	.LASF93:
 4188 047a 63685363 		.ascii	"chSchGoSleepTimeoutS\000"
 4188      68476F53 
 4188      6C656570 
 4188      54696D65 
 4188      6F757453 
 4189              	.LASF56:
 4190 048f 56544C69 		.ascii	"VTList\000"
 4190      737400
 4191              	.LASF66:
 4192 0496 6D5F6F77 		.ascii	"m_owner\000"
 4192      6E657200 
 4193              	.LASF26:
 4194 049e 705F6374 		.ascii	"p_ctx\000"
 4194      7800
 4195              	.LASF35:
 4196 04a4 705F7761 		.ascii	"p_waiting\000"
 4196      6974696E 
 4196      6700
 4197              		.ident	"GCC: (GNU Tools for ARM Embedded Processors) 4.7.4 20130913 (release) [ARM/embedded-4_7-br
ARM GAS  C:\Users\jenny\AppData\Local\Temp\cckA4Rj6.s 			page 79


DEFINED SYMBOLS
                            *ABS*:00000000 chthreads.c
C:\Users\jenny\AppData\Local\Temp\cckA4Rj6.s:20     .text._thread_init:00000000 $t
C:\Users\jenny\AppData\Local\Temp\cckA4Rj6.s:26     .text._thread_init:00000000 _thread_init
C:\Users\jenny\AppData\Local\Temp\cckA4Rj6.s:100    .text.chThdCreateI:00000000 $t
C:\Users\jenny\AppData\Local\Temp\cckA4Rj6.s:106    .text.chThdCreateI:00000000 chThdCreateI
C:\Users\jenny\AppData\Local\Temp\cckA4Rj6.s:222    .text.chThdCreateStatic:00000000 $t
C:\Users\jenny\AppData\Local\Temp\cckA4Rj6.s:228    .text.chThdCreateStatic:00000000 chThdCreateStatic
C:\Users\jenny\AppData\Local\Temp\cckA4Rj6.s:285    .text.chThdSetPriority:00000000 $t
C:\Users\jenny\AppData\Local\Temp\cckA4Rj6.s:291    .text.chThdSetPriority:00000000 chThdSetPriority
C:\Users\jenny\AppData\Local\Temp\cckA4Rj6.s:351    .text.chThdSetPriority:0000002c $d
C:\Users\jenny\AppData\Local\Temp\cckA4Rj6.s:356    .text.chThdResume:00000000 $t
C:\Users\jenny\AppData\Local\Temp\cckA4Rj6.s:362    .text.chThdResume:00000000 chThdResume
C:\Users\jenny\AppData\Local\Temp\cckA4Rj6.s:410    .text.chThdTerminate:00000000 $t
C:\Users\jenny\AppData\Local\Temp\cckA4Rj6.s:416    .text.chThdTerminate:00000000 chThdTerminate
C:\Users\jenny\AppData\Local\Temp\cckA4Rj6.s:454    .text.chThdSleep:00000000 $t
C:\Users\jenny\AppData\Local\Temp\cckA4Rj6.s:460    .text.chThdSleep:00000000 chThdSleep
C:\Users\jenny\AppData\Local\Temp\cckA4Rj6.s:504    .text.chThdSleepUntil:00000000 $t
C:\Users\jenny\AppData\Local\Temp\cckA4Rj6.s:510    .text.chThdSleepUntil:00000000 chThdSleepUntil
C:\Users\jenny\AppData\Local\Temp\cckA4Rj6.s:558    .text.chThdSleepUntil:00000020 $d
C:\Users\jenny\AppData\Local\Temp\cckA4Rj6.s:564    .text.chThdYield:00000000 $t
C:\Users\jenny\AppData\Local\Temp\cckA4Rj6.s:570    .text.chThdYield:00000000 chThdYield
C:\Users\jenny\AppData\Local\Temp\cckA4Rj6.s:617    .text.chThdYield:00000024 $d
C:\Users\jenny\AppData\Local\Temp\cckA4Rj6.s:623    .text.chThdExitS:00000000 $t
C:\Users\jenny\AppData\Local\Temp\cckA4Rj6.s:629    .text.chThdExitS:00000000 chThdExitS
C:\Users\jenny\AppData\Local\Temp\cckA4Rj6.s:696    .text.chThdExitS:0000003c $d
C:\Users\jenny\AppData\Local\Temp\cckA4Rj6.s:701    .text.chThdExit:00000000 $t
C:\Users\jenny\AppData\Local\Temp\cckA4Rj6.s:707    .text.chThdExit:00000000 chThdExit
C:\Users\jenny\AppData\Local\Temp\cckA4Rj6.s:733    .text.chThdWait:00000000 $t
C:\Users\jenny\AppData\Local\Temp\cckA4Rj6.s:739    .text.chThdWait:00000000 chThdWait
C:\Users\jenny\AppData\Local\Temp\cckA4Rj6.s:818    .text.chThdWait:00000034 $d
                     .debug_frame:00000010 $d
C:\Users\jenny\AppData\Local\Temp\cckA4Rj6.s:563    .text.chThdSleepUntil:00000024 $t
C:\Users\jenny\AppData\Local\Temp\cckA4Rj6.s:622    .text.chThdYield:00000028 $t
C:\Users\jenny\AppData\Local\Temp\cckA4Rj6.s:822    .text.chThdWait:00000038 $t

UNDEFINED SYMBOLS
rlist
_port_thread_start
chSchWakeupS
chSchRescheduleS
chSchGoSleepTimeoutS
vtlist
chSchDoRescheduleBehind
chSchReadyI
chSchGoSleepS
chThdRelease
