ARM GAS  C:\Users\jenny\AppData\Local\Temp\ccFzIZYt.s 			page 1


   1              		.syntax unified
   2              		.cpu cortex-m4
   3              		.eabi_attribute 27, 3
   4              		.fpu fpv4-sp-d16
   5              		.eabi_attribute 20, 1
   6              		.eabi_attribute 21, 1
   7              		.eabi_attribute 23, 3
   8              		.eabi_attribute 24, 1
   9              		.eabi_attribute 25, 1
  10              		.eabi_attribute 26, 1
  11              		.eabi_attribute 30, 2
  12              		.eabi_attribute 34, 1
  13              		.eabi_attribute 18, 4
  14              		.thumb
  15              		.file	"etharp.c"
  16              		.text
  17              	.Ltext0:
  18              		.cfi_sections	.debug_frame
  19              		.section	.text.etharp_free_entry,"ax",%progbits
  20              		.align	2
  21              		.p2align 4,,15
  22              		.thumb
  23              		.thumb_func
  24              		.type	etharp_free_entry, %function
  25              	etharp_free_entry:
  26              	.LFB7:
  27              		.file 1 "../../ext/lwip/src/netif/etharp.c"
  28              		.loc 1 178 0
  29              		.cfi_startproc
  30              		@ args = 0, pretend = 0, frame = 0
  31              		@ frame_needed = 0, uses_anonymous_args = 0
  32              	.LVL0:
  33 0000 F8B5     		push	{r3, r4, r5, r6, r7, lr}
  34              	.LCFI0:
  35              		.cfi_def_cfa_offset 24
  36              		.cfi_offset 3, -24
  37              		.cfi_offset 4, -20
  38              		.cfi_offset 5, -16
  39              		.cfi_offset 6, -12
  40              		.cfi_offset 7, -8
  41              		.cfi_offset 14, -4
  42              		.loc 1 182 0
  43 0002 8600     		lsls	r6, r0, #2
  44 0004 3718     		adds	r7, r6, r0
  45 0006 084D     		ldr	r5, .L7
  46 0008 BF00     		lsls	r7, r7, #2
  47              		.loc 1 178 0
  48 000a 0446     		mov	r4, r0
  49              		.loc 1 182 0
  50 000c E859     		ldr	r0, [r5, r7]
  51              	.LVL1:
  52 000e 18B1     		cbz	r0, .L2
  53              		.loc 1 185 0
  54 0010 FFF7FEFF 		bl	pbuf_free
  55              	.LVL2:
  56              		.loc 1 186 0
  57 0014 0023     		movs	r3, #0
ARM GAS  C:\Users\jenny\AppData\Local\Temp\ccFzIZYt.s 			page 2


  58 0016 EB51     		str	r3, [r5, r7]
  59              	.L2:
  60              		.loc 1 189 0
  61 0018 3419     		adds	r4, r6, r4
  62              	.LVL3:
  63 001a 05EB8405 		add	r5, r5, r4, lsl #2
  64 001e 0020     		movs	r0, #0
  65 0020 A874     		strb	r0, [r5, #18]
  66 0022 1035     		adds	r5, r5, #16
  67 0024 F8BD     		pop	{r3, r4, r5, r6, r7, pc}
  68              	.L8:
  69 0026 00BF     		.align	2
  70              	.L7:
  71 0028 00000000 		.word	.LANCHOR0
  72              		.cfi_endproc
  73              	.LFE7:
  74              		.size	etharp_free_entry, .-etharp_free_entry
  75 002c AFF30080 		.section	.text.etharp_find_entry,"ax",%progbits
  76              		.align	2
  77              		.p2align 4,,15
  78              		.thumb
  79              		.thumb_func
  80              		.type	etharp_find_entry, %function
  81              	etharp_find_entry:
  82              	.LFB9:
  83              		.loc 1 267 0
  84              		.cfi_startproc
  85              		@ args = 0, pretend = 0, frame = 8
  86              		@ frame_needed = 0, uses_anonymous_args = 0
  87              	.LVL4:
  88 0000 2DE9F04F 		push	{r4, r5, r6, r7, r8, r9, sl, fp, lr}
  89              	.LCFI1:
  90              		.cfi_def_cfa_offset 36
  91              		.cfi_offset 4, -36
  92              		.cfi_offset 5, -32
  93              		.cfi_offset 6, -28
  94              		.cfi_offset 7, -24
  95              		.cfi_offset 8, -20
  96              		.cfi_offset 9, -16
  97              		.cfi_offset 10, -12
  98              		.cfi_offset 11, -8
  99              		.cfi_offset 14, -4
 100              	.LBB2:
 101              		.loc 1 292 0
 102 0004 A94C     		ldr	r4, .L173
 103 0006 A37C     		ldrb	r3, [r4, #18]	@ zero_extendqisi2
 104              	.LVL5:
 105              	.LBE2:
 106              		.loc 1 267 0
 107 0008 83B0     		sub	sp, sp, #12
 108              	.LCFI2:
 109              		.cfi_def_cfa_offset 48
 110              		.loc 1 267 0
 111 000a 0546     		mov	r5, r0
 112 000c 8C46     		mov	ip, r1
 113              	.LBB3:
 114              		.loc 1 294 0
ARM GAS  C:\Users\jenny\AppData\Local\Temp\ccFzIZYt.s 			page 3


 115 000e 7BB9     		cbnz	r3, .L142
 116              	.LVL6:
 117              		.loc 1 292 0
 118 0010 94F826A0 		ldrb	sl, [r4, #38]	@ zero_extendqisi2
 119              	.LVL7:
 120              		.loc 1 298 0
 121 0014 BAF1000F 		cmp	sl, #0
 122 0018 40F0A181 		bne	.L143
 123              		.loc 1 272 0
 124 001c 4FF00A08 		mov	r8, #10
 125              		.loc 1 274 0
 126 0020 CDF804A0 		str	sl, [sp, #4]
 127              		.loc 1 270 0
 128 0024 5246     		mov	r2, sl
 129 0026 D346     		mov	fp, sl
 130              		.loc 1 297 0
 131 0028 5346     		mov	r3, sl
 132              		.loc 1 268 0
 133 002a 4146     		mov	r1, r8
 134              	.LVL8:
 135 002c C146     		mov	r9, r8
 136 002e 19E0     		b	.L17
 137              	.LVL9:
 138              	.L142:
 139              		.loc 1 302 0
 140 0030 20B1     		cbz	r0, .L16
 141 0032 0168     		ldr	r1, [r0, #0]
 142              	.LVL10:
 143 0034 6268     		ldr	r2, [r4, #4]
 144 0036 9142     		cmp	r1, r2
 145 0038 00F02682 		beq	.L144
 146              	.L16:
 147              		.loc 1 308 0
 148 003c 012B     		cmp	r3, #1
 149 003e 00F09681 		beq	.L12
 150              		.loc 1 324 0
 151 0042 40F21682 		bls	.L102
 152              		.loc 1 274 0
 153 0046 0020     		movs	r0, #0
 154              	.LVL11:
 155              		.loc 1 272 0
 156 0048 4FF00A08 		mov	r8, #10
 157              		.loc 1 331 0
 158 004c E27C     		ldrb	r2, [r4, #19]	@ zero_extendqisi2
 159              	.LVL12:
 160              		.loc 1 274 0
 161 004e 0190     		str	r0, [sp, #4]
 162              		.loc 1 270 0
 163 0050 8346     		mov	fp, r0
 164              		.loc 1 332 0
 165 0052 0146     		mov	r1, r0
 166              		.loc 1 268 0
 167 0054 C146     		mov	r9, r8
 168              	.LVL13:
 169              	.L13:
 170              		.loc 1 292 0
 171 0056 94F826A0 		ldrb	sl, [r4, #38]	@ zero_extendqisi2
ARM GAS  C:\Users\jenny\AppData\Local\Temp\ccFzIZYt.s 			page 4


 172              	.LVL14:
 173              		.loc 1 294 0
 174 005a BAF1000F 		cmp	sl, #0
 175 005e 40F03B81 		bne	.L123
 176              		.loc 1 297 0
 177 0062 0123     		movs	r3, #1
 178              	.LVL15:
 179              	.L17:
 180              		.loc 1 292 0
 181 0064 94F83A70 		ldrb	r7, [r4, #58]	@ zero_extendqisi2
 182              	.LVL16:
 183              	.L24:
 184              		.loc 1 298 0
 185 0068 002F     		cmp	r7, #0
 186 006a 40D1     		bne	.L30
 187              	.L31:
 188              	.LVL17:
 189              		.loc 1 292 0
 190 006c 94F84E70 		ldrb	r7, [r4, #78]	@ zero_extendqisi2
 191              	.LVL18:
 192              	.L33:
 193              		.loc 1 298 0
 194 0070 002F     		cmp	r7, #0
 195 0072 53D1     		bne	.L39
 196              	.L40:
 197              	.LVL19:
 198              		.loc 1 292 0
 199 0074 94F86270 		ldrb	r7, [r4, #98]	@ zero_extendqisi2
 200              	.LVL20:
 201              	.L42:
 202              		.loc 1 298 0
 203 0078 002F     		cmp	r7, #0
 204 007a 66D1     		bne	.L48
 205              	.L49:
 206              	.LVL21:
 207              		.loc 1 292 0
 208 007c 94F87670 		ldrb	r7, [r4, #118]	@ zero_extendqisi2
 209              	.LVL22:
 210              	.L51:
 211              		.loc 1 298 0
 212 0080 002F     		cmp	r7, #0
 213 0082 79D1     		bne	.L57
 214              	.L58:
 215              	.LVL23:
 216              		.loc 1 292 0
 217 0084 94F88A70 		ldrb	r7, [r4, #138]	@ zero_extendqisi2
 218              	.LVL24:
 219              	.L60:
 220              		.loc 1 298 0
 221 0088 002F     		cmp	r7, #0
 222 008a 40F08D80 		bne	.L66
 223              	.L67:
 224              	.LVL25:
 225              		.loc 1 292 0
 226 008e 94F89E70 		ldrb	r7, [r4, #158]	@ zero_extendqisi2
 227              	.LVL26:
 228              	.L69:
ARM GAS  C:\Users\jenny\AppData\Local\Temp\ccFzIZYt.s 			page 5


 229              		.loc 1 298 0
 230 0092 002F     		cmp	r7, #0
 231 0094 40F0A180 		bne	.L75
 232              	.L76:
 233              	.LVL27:
 234              		.loc 1 292 0
 235 0098 94F8B270 		ldrb	r7, [r4, #178]	@ zero_extendqisi2
 236              	.LVL28:
 237              	.L78:
 238              		.loc 1 298 0
 239 009c 002F     		cmp	r7, #0
 240 009e 40F0B680 		bne	.L84
 241              	.LVL29:
 242              	.L81:
 243              		.loc 1 294 0
 244 00a2 58B2     		sxtb	r0, r3
 245 00a4 0A28     		cmp	r0, #10
 246              		.loc 1 292 0
 247 00a6 94F8C6A0 		ldrb	sl, [r4, #198]	@ zero_extendqisi2
 248              	.LVL30:
 249              		.loc 1 294 0
 250 00aa 00F0C480 		beq	.L145
 251              		.loc 1 298 0
 252 00ae BAF1000F 		cmp	sl, #0
 253 00b2 40F0C380 		bne	.L87
 254              	.LVL31:
 255              	.L86:
 256              	.LBE3:
 257              		.loc 1 342 0
 258 00b6 0CF00200 		and	r0, ip, #2
 259 00ba C2B2     		uxtb	r2, r0
 260 00bc 002A     		cmp	r2, #0
 261 00be 40F0E181 		bne	.L124
 262 00c2 58B2     		sxtb	r0, r3
 263 00c4 D3E0     		b	.L93
 264              	.LVL32:
 265              	.L19:
 266              	.LBB4:
 267              		.loc 1 310 0
 268 00c6 6069     		ldr	r0, [r4, #20]
 269 00c8 784F     		ldr	r7, .L173
 270 00ca 0028     		cmp	r0, #0
 271 00cc 00F0F181 		beq	.L146
 272              		.loc 1 311 0
 273 00d0 97F82770 		ldrb	r7, [r7, #39]	@ zero_extendqisi2
 274 00d4 019E     		ldr	r6, [sp, #4]
 275 00d6 BE42     		cmp	r6, r7
 276 00d8 01D8     		bhi	.L20
 277              	.LVL33:
 278 00da 0197     		str	r7, [sp, #4]
 279              		.loc 1 312 0
 280 00dc D046     		mov	r8, sl
 281              	.LVL34:
 282              	.L20:
 283              		.loc 1 294 0
 284 00de 58B2     		sxtb	r0, r3
 285 00e0 0A28     		cmp	r0, #10
ARM GAS  C:\Users\jenny\AppData\Local\Temp\ccFzIZYt.s 			page 6


 286              		.loc 1 292 0
 287 00e2 94F83A70 		ldrb	r7, [r4, #58]	@ zero_extendqisi2
 288              	.LVL35:
 289              		.loc 1 294 0
 290 00e6 BFD1     		bne	.L24
 291 00e8 002F     		cmp	r7, #0
 292 00ea 00F01681 		beq	.L107
 293              	.LVL36:
 294              	.L30:
 295              		.loc 1 302 0
 296 00ee 25B1     		cbz	r5, .L29
 297 00f0 2E68     		ldr	r6, [r5, #0]
 298 00f2 E06A     		ldr	r0, [r4, #44]
 299 00f4 8642     		cmp	r6, r0
 300 00f6 00F00882 		beq	.L147
 301              	.L29:
 302              		.loc 1 308 0
 303 00fa 012F     		cmp	r7, #1
 304 00fc 00F04581 		beq	.L26
 305              		.loc 1 324 0
 306 0100 04D9     		bls	.L27
 307              		.loc 1 331 0
 308 0102 94F83B70 		ldrb	r7, [r4, #59]	@ zero_extendqisi2
 309 0106 9742     		cmp	r7, r2
 310 0108 80F01781 		bcs	.L148
 311              	.LVL37:
 312              	.L27:
 313              		.loc 1 294 0
 314 010c 58B2     		sxtb	r0, r3
 315 010e 0A28     		cmp	r0, #10
 316              		.loc 1 292 0
 317 0110 94F84E70 		ldrb	r7, [r4, #78]	@ zero_extendqisi2
 318              	.LVL38:
 319              		.loc 1 294 0
 320 0114 ACD1     		bne	.L33
 321 0116 002F     		cmp	r7, #0
 322 0118 00F00181 		beq	.L109
 323              	.LVL39:
 324              	.L39:
 325              		.loc 1 302 0
 326 011c 25B1     		cbz	r5, .L38
 327 011e 2E68     		ldr	r6, [r5, #0]
 328 0120 206C     		ldr	r0, [r4, #64]
 329 0122 8642     		cmp	r6, r0
 330 0124 00F0F381 		beq	.L149
 331              	.L38:
 332              		.loc 1 308 0
 333 0128 012F     		cmp	r7, #1
 334 012a 00F03D81 		beq	.L35
 335              		.loc 1 324 0
 336 012e 04D9     		bls	.L36
 337              		.loc 1 331 0
 338 0130 94F84F70 		ldrb	r7, [r4, #79]	@ zero_extendqisi2
 339 0134 BA42     		cmp	r2, r7
 340 0136 40F20381 		bls	.L150
 341              	.LVL40:
 342              	.L36:
ARM GAS  C:\Users\jenny\AppData\Local\Temp\ccFzIZYt.s 			page 7


 343              		.loc 1 294 0
 344 013a 58B2     		sxtb	r0, r3
 345 013c 0A28     		cmp	r0, #10
 346              		.loc 1 292 0
 347 013e 94F86270 		ldrb	r7, [r4, #98]	@ zero_extendqisi2
 348              	.LVL41:
 349              		.loc 1 294 0
 350 0142 99D1     		bne	.L42
 351 0144 002F     		cmp	r7, #0
 352 0146 00F0EC80 		beq	.L111
 353              	.LVL42:
 354              	.L48:
 355              		.loc 1 302 0
 356 014a 25B1     		cbz	r5, .L47
 357 014c 2E68     		ldr	r6, [r5, #0]
 358 014e 606D     		ldr	r0, [r4, #84]
 359 0150 8642     		cmp	r6, r0
 360 0152 00F0E281 		beq	.L151
 361              	.L47:
 362              		.loc 1 308 0
 363 0156 012F     		cmp	r7, #1
 364 0158 00F03481 		beq	.L44
 365              		.loc 1 324 0
 366 015c 04D9     		bls	.L45
 367              		.loc 1 331 0
 368 015e 94F86370 		ldrb	r7, [r4, #99]	@ zero_extendqisi2
 369 0162 BA42     		cmp	r2, r7
 370 0164 40F2EF80 		bls	.L152
 371              	.LVL43:
 372              	.L45:
 373              		.loc 1 294 0
 374 0168 58B2     		sxtb	r0, r3
 375 016a 0A28     		cmp	r0, #10
 376              		.loc 1 292 0
 377 016c 94F87670 		ldrb	r7, [r4, #118]	@ zero_extendqisi2
 378              	.LVL44:
 379              		.loc 1 294 0
 380 0170 86D1     		bne	.L51
 381 0172 002F     		cmp	r7, #0
 382 0174 00F0D780 		beq	.L113
 383              	.LVL45:
 384              	.L57:
 385              		.loc 1 302 0
 386 0178 25B1     		cbz	r5, .L56
 387 017a 2E68     		ldr	r6, [r5, #0]
 388 017c A06E     		ldr	r0, [r4, #104]
 389 017e 8642     		cmp	r6, r0
 390 0180 00F0C981 		beq	.L153
 391              	.L56:
 392              		.loc 1 308 0
 393 0184 012F     		cmp	r7, #1
 394 0186 00F02C81 		beq	.L53
 395              		.loc 1 324 0
 396 018a 04D9     		bls	.L54
 397              		.loc 1 331 0
 398 018c 94F87770 		ldrb	r7, [r4, #119]	@ zero_extendqisi2
 399 0190 BA42     		cmp	r2, r7
ARM GAS  C:\Users\jenny\AppData\Local\Temp\ccFzIZYt.s 			page 8


 400 0192 40F2E180 		bls	.L154
 401              	.LVL46:
 402              	.L54:
 403              		.loc 1 294 0
 404 0196 58B2     		sxtb	r0, r3
 405 0198 0A28     		cmp	r0, #10
 406              		.loc 1 292 0
 407 019a 94F88A70 		ldrb	r7, [r4, #138]	@ zero_extendqisi2
 408              	.LVL47:
 409              		.loc 1 294 0
 410 019e 7FF473AF 		bne	.L60
 411 01a2 002F     		cmp	r7, #0
 412 01a4 00F0C180 		beq	.L115
 413              	.LVL48:
 414              	.L66:
 415              		.loc 1 302 0
 416 01a8 25B1     		cbz	r5, .L65
 417 01aa 2E68     		ldr	r6, [r5, #0]
 418 01ac E06F     		ldr	r0, [r4, #124]
 419 01ae 8642     		cmp	r6, r0
 420 01b0 00F0D081 		beq	.L155
 421              	.L65:
 422              		.loc 1 308 0
 423 01b4 012F     		cmp	r7, #1
 424 01b6 00F02281 		beq	.L62
 425              		.loc 1 324 0
 426 01ba 05D9     		bls	.L63
 427              		.loc 1 331 0
 428 01bc 94F88B70 		ldrb	r7, [r4, #139]	@ zero_extendqisi2
 429 01c0 9742     		cmp	r7, r2
 430 01c2 01D3     		bcc	.L63
 431              	.LVL49:
 432 01c4 3A46     		mov	r2, r7
 433              		.loc 1 332 0
 434 01c6 0621     		movs	r1, #6
 435              	.LVL50:
 436              	.L63:
 437              		.loc 1 294 0
 438 01c8 58B2     		sxtb	r0, r3
 439 01ca 0A28     		cmp	r0, #10
 440              		.loc 1 292 0
 441 01cc 94F89E70 		ldrb	r7, [r4, #158]	@ zero_extendqisi2
 442              	.LVL51:
 443              		.loc 1 294 0
 444 01d0 7FF45FAF 		bne	.L69
 445 01d4 002F     		cmp	r7, #0
 446 01d6 00F0AA80 		beq	.L117
 447              	.LVL52:
 448              	.L75:
 449              		.loc 1 302 0
 450 01da 2DB1     		cbz	r5, .L74
 451 01dc 2E68     		ldr	r6, [r5, #0]
 452 01de D4F89000 		ldr	r0, [r4, #144]
 453 01e2 8642     		cmp	r6, r0
 454 01e4 00F0B481 		beq	.L156
 455              	.L74:
 456              		.loc 1 308 0
ARM GAS  C:\Users\jenny\AppData\Local\Temp\ccFzIZYt.s 			page 9


 457 01e8 012F     		cmp	r7, #1
 458 01ea 00F01681 		beq	.L71
 459              		.loc 1 324 0
 460 01ee 05D9     		bls	.L72
 461              		.loc 1 331 0
 462 01f0 94F89F70 		ldrb	r7, [r4, #159]	@ zero_extendqisi2
 463 01f4 9742     		cmp	r7, r2
 464 01f6 01D3     		bcc	.L72
 465              	.LVL53:
 466 01f8 3A46     		mov	r2, r7
 467              		.loc 1 332 0
 468 01fa 0721     		movs	r1, #7
 469              	.LVL54:
 470              	.L72:
 471              		.loc 1 294 0
 472 01fc 58B2     		sxtb	r0, r3
 473 01fe 0A28     		cmp	r0, #10
 474              		.loc 1 292 0
 475 0200 94F8B270 		ldrb	r7, [r4, #178]	@ zero_extendqisi2
 476              	.LVL55:
 477              		.loc 1 294 0
 478 0204 7FF44AAF 		bne	.L78
 479 0208 002F     		cmp	r7, #0
 480 020a 00F09280 		beq	.L157
 481              	.LVL56:
 482              	.L84:
 483              		.loc 1 302 0
 484 020e 2DB1     		cbz	r5, .L83
 485 0210 2E68     		ldr	r6, [r5, #0]
 486 0212 D4F8A400 		ldr	r0, [r4, #164]
 487 0216 8642     		cmp	r6, r0
 488 0218 00F0A081 		beq	.L158
 489              	.L83:
 490              		.loc 1 308 0
 491 021c 012F     		cmp	r7, #1
 492 021e 00F00C81 		beq	.L80
 493              		.loc 1 324 0
 494 0222 7FF63EAF 		bls	.L81
 495              		.loc 1 331 0
 496 0226 94F8B300 		ldrb	r0, [r4, #179]	@ zero_extendqisi2
 497 022a 9042     		cmp	r0, r2
 498 022c FFF439AF 		bcc	.L81
 499              	.LVL57:
 500 0230 0246     		mov	r2, r0
 501              		.loc 1 332 0
 502 0232 0821     		movs	r1, #8
 503 0234 35E7     		b	.L81
 504              	.LVL58:
 505              	.L145:
 506              		.loc 1 294 0 discriminator 1
 507 0236 BAF1000F 		cmp	sl, #0
 508 023a 7CD0     		beq	.L119
 509              	.L87:
 510              		.loc 1 302 0
 511 023c 2DB1     		cbz	r5, .L88
 512              		.loc 1 302 0 is_stmt 0 discriminator 1
 513 023e 2E68     		ldr	r6, [r5, #0]
ARM GAS  C:\Users\jenny\AppData\Local\Temp\ccFzIZYt.s 			page 10


 514 0240 D4F8B870 		ldr	r7, [r4, #184]
 515 0244 BE42     		cmp	r6, r7
 516 0246 00F08781 		beq	.L159
 517              	.L88:
 518              		.loc 1 308 0 is_stmt 1
 519 024a BAF1010F 		cmp	sl, #1
 520 024e 00F00381 		beq	.L160
 521              		.loc 1 324 0
 522 0252 04D9     		bls	.L92
 523              		.loc 1 331 0
 524 0254 94F8C760 		ldrb	r6, [r4, #199]	@ zero_extendqisi2
 525              		.loc 1 332 0
 526 0258 9642     		cmp	r6, r2
 527 025a 28BF     		it	cs
 528 025c 0921     		movcs	r1, #9
 529              	.LVL59:
 530              	.L92:
 531              	.LBE4:
 532              		.loc 1 342 0
 533 025e 0CF00202 		and	r2, ip, #2
 534 0262 D2B2     		uxtb	r2, r2
 535 0264 002A     		cmp	r2, #0
 536 0266 40F00D81 		bne	.L124
 537              		.loc 1 342 0 is_stmt 0 discriminator 1
 538 026a 0A28     		cmp	r0, #10
 539 026c 20D0     		beq	.L161
 540              	.LVL60:
 541              	.L93:
 542              		.loc 1 360 0 is_stmt 1
 543 026e 5FFA83F8 		uxtb	r8, r3
 544              	.LVL61:
 545 0272 0646     		mov	r6, r0
 546              	.LVL62:
 547              	.L95:
 548              		.loc 1 392 0
 549 0274 B700     		lsls	r7, r6, #2
 550 0276 B919     		adds	r1, r7, r6
 551 0278 04EB8103 		add	r3, r4, r1, lsl #2
 552 027c 9A7C     		ldrb	r2, [r3, #18]	@ zero_extendqisi2
 553 027e 8AB9     		cbnz	r2, .L162
 554              	.L99:
 555              		.loc 1 396 0
 556 0280 25B1     		cbz	r5, .L100
 557              		.loc 1 398 0
 558 0282 B819     		adds	r0, r7, r6
 559 0284 2968     		ldr	r1, [r5, #0]
 560 0286 04EB8003 		add	r3, r4, r0, lsl #2
 561 028a 5960     		str	r1, [r3, #4]
 562              	.L100:
 563              		.loc 1 400 0
 564 028c BE19     		adds	r6, r7, r6
 565 028e 04EB8604 		add	r4, r4, r6, lsl #2
 566 0292 0022     		movs	r2, #0
 567 0294 E274     		strb	r2, [r4, #19]
 568              		.loc 1 401 0
 569 0296 5FFA88F0 		uxtb	r0, r8
 570              		.loc 1 400 0
ARM GAS  C:\Users\jenny\AppData\Local\Temp\ccFzIZYt.s 			page 11


 571 029a 1034     		adds	r4, r4, #16
 572              	.LVL63:
 573              	.L89:
 574 029c 40B2     		sxtb	r0, r0
 575              		.loc 1 402 0
 576 029e 03B0     		add	sp, sp, #12
 577 02a0 BDE8F08F 		pop	{r4, r5, r6, r7, r8, r9, sl, fp, pc}
 578              	.LVL64:
 579              	.L162:
 580              		.loc 1 392 0 discriminator 1
 581 02a4 FFF7FEFF 		bl	port_halt
 582              	.LVL65:
 583 02a8 EAE7     		b	.L99
 584              	.L174:
 585 02aa 00BF     		.align	2
 586              	.L173:
 587 02ac 00000000 		.word	.LANCHOR0
 588              	.LVL66:
 589              	.L161:
 590              		.loc 1 344 0
 591 02b0 1CF0010F 		tst	ip, #1
 592 02b4 00F0E680 		beq	.L124
 593              		.loc 1 364 0
 594 02b8 4EB2     		sxtb	r6, r1
 595 02ba 0A2E     		cmp	r6, #10
 596 02bc 21D0     		beq	.L96
 597              		.loc 1 369 0
 598 02be 06EB8607 		add	r7, r6, r6, lsl #2
 599              		.loc 1 366 0
 600 02c2 5FFA81F8 		uxtb	r8, r1
 601              	.LVL67:
 602              		.loc 1 369 0
 603 02c6 54F82710 		ldr	r1, [r4, r7, lsl #2]
 604              	.LVL68:
 605 02ca 09B1     		cbz	r1, .L97
 606              		.loc 1 369 0 is_stmt 0 discriminator 1
 607 02cc FFF7FEFF 		bl	port_halt
 608              	.LVL69:
 609              	.L97:
 610              		.loc 1 388 0 is_stmt 1
 611 02d0 3046     		mov	r0, r6
 612 02d2 FFF7FEFF 		bl	etharp_free_entry
 613              	.LVL70:
 614 02d6 CDE7     		b	.L95
 615              	.LVL71:
 616              	.L123:
 617              	.LBB5:
 618              		.loc 1 294 0
 619 02d8 0A23     		movs	r3, #10
 620              	.LVL72:
 621              	.L101:
 622              		.loc 1 302 0
 623 02da 25B1     		cbz	r5, .L22
 624 02dc 2F68     		ldr	r7, [r5, #0]
 625 02de A069     		ldr	r0, [r4, #24]
 626 02e0 8742     		cmp	r7, r0
 627 02e2 00F01681 		beq	.L163
ARM GAS  C:\Users\jenny\AppData\Local\Temp\ccFzIZYt.s 			page 12


 628              	.L22:
 629              		.loc 1 308 0
 630 02e6 BAF1010F 		cmp	sl, #1
 631 02ea 3FF4ECAE 		beq	.L19
 632              		.loc 1 324 0
 633 02ee 7FF6F6AE 		bls	.L20
 634              		.loc 1 331 0
 635 02f2 94F82770 		ldrb	r7, [r4, #39]	@ zero_extendqisi2
 636 02f6 9742     		cmp	r7, r2
 637 02f8 FFF4F1AE 		bcc	.L20
 638              	.LVL73:
 639 02fc 3A46     		mov	r2, r7
 640              		.loc 1 332 0
 641 02fe 0121     		movs	r1, #1
 642 0300 EDE6     		b	.L20
 643              	.LVL74:
 644              	.L96:
 645              	.LBE5:
 646              		.loc 1 371 0
 647 0302 4FFA89F6 		sxtb	r6, r9
 648 0306 0A2E     		cmp	r6, #10
 649 0308 20D1     		bne	.L164
 650              		.loc 1 376 0
 651 030a 4FFA88F6 		sxtb	r6, r8
 652 030e 0A2E     		cmp	r6, #10
 653 0310 00F0B880 		beq	.L124
 654              		.loc 1 378 0
 655 0314 5FFA88F8 		uxtb	r8, r8
 656              	.LVL75:
 657 0318 DAE7     		b	.L97
 658              	.LVL76:
 659              	.L107:
 660              	.LBB6:
 661              		.loc 1 297 0
 662 031a 0223     		movs	r3, #2
 663              	.LVL77:
 664 031c A6E6     		b	.L31
 665              	.LVL78:
 666              	.L109:
 667 031e 0323     		movs	r3, #3
 668              	.LVL79:
 669 0320 A8E6     		b	.L40
 670              	.LVL80:
 671              	.L111:
 672 0322 0423     		movs	r3, #4
 673              	.LVL81:
 674 0324 AAE6     		b	.L49
 675              	.LVL82:
 676              	.L113:
 677 0326 0523     		movs	r3, #5
 678              	.LVL83:
 679 0328 ACE6     		b	.L58
 680              	.LVL84:
 681              	.L115:
 682 032a 0623     		movs	r3, #6
 683              	.LVL85:
 684 032c AFE6     		b	.L67
ARM GAS  C:\Users\jenny\AppData\Local\Temp\ccFzIZYt.s 			page 13


 685              	.LVL86:
 686              	.L117:
 687 032e 0723     		movs	r3, #7
 688              	.LVL87:
 689 0330 B2E6     		b	.L76
 690              	.LVL88:
 691              	.L157:
 692 0332 0823     		movs	r3, #8
 693              	.LVL89:
 694 0334 B5E6     		b	.L81
 695              	.LVL90:
 696              	.L119:
 697 0336 0923     		movs	r3, #9
 698              	.LVL91:
 699 0338 BDE6     		b	.L86
 700              	.LVL92:
 701              	.L148:
 702              		.loc 1 331 0
 703 033a 3A46     		mov	r2, r7
 704              		.loc 1 332 0
 705 033c 0221     		movs	r1, #2
 706 033e E5E6     		b	.L27
 707              	.LVL93:
 708              	.L150:
 709              		.loc 1 331 0
 710 0340 3A46     		mov	r2, r7
 711              		.loc 1 332 0
 712 0342 0321     		movs	r1, #3
 713 0344 F9E6     		b	.L36
 714              	.LVL94:
 715              	.L152:
 716              		.loc 1 331 0
 717 0346 3A46     		mov	r2, r7
 718              		.loc 1 332 0
 719 0348 0421     		movs	r1, #4
 720 034a 0DE7     		b	.L45
 721              	.LVL95:
 722              	.L164:
 723              	.LBE6:
 724              		.loc 1 388 0
 725 034c 3046     		mov	r0, r6
 726              		.loc 1 373 0
 727 034e 5FFA89F8 		uxtb	r8, r9
 728              	.LVL96:
 729              		.loc 1 388 0
 730 0352 FFF7FEFF 		bl	etharp_free_entry
 731              	.LVL97:
 732 0356 8DE7     		b	.L95
 733              	.LVL98:
 734              	.L154:
 735              	.LBB7:
 736              		.loc 1 331 0
 737 0358 3A46     		mov	r2, r7
 738              		.loc 1 332 0
 739 035a 0521     		movs	r1, #5
 740 035c 1BE7     		b	.L54
 741              	.LVL99:
ARM GAS  C:\Users\jenny\AppData\Local\Temp\ccFzIZYt.s 			page 14


 742              	.L143:
 743              		.loc 1 268 0
 744 035e 0A21     		movs	r1, #10
 745              	.LVL100:
 746              		.loc 1 270 0
 747 0360 9B46     		mov	fp, r3
 748              		.loc 1 272 0
 749 0362 8846     		mov	r8, r1
 750              		.loc 1 270 0
 751 0364 1A46     		mov	r2, r3
 752              		.loc 1 268 0
 753 0366 8946     		mov	r9, r1
 754              		.loc 1 274 0
 755 0368 CDF804B0 		str	fp, [sp, #4]
 756 036c B5E7     		b	.L101
 757              	.LVL101:
 758              	.L12:
 759              		.loc 1 310 0
 760 036e 2668     		ldr	r6, [r4, #0]
 761 0370 7B4B     		ldr	r3, .L175
 762 0372 002E     		cmp	r6, #0
 763 0374 00F0A580 		beq	.L165
 764              		.loc 1 311 0
 765 0378 DA7C     		ldrb	r2, [r3, #19]	@ zero_extendqisi2
 766              		.loc 1 312 0
 767 037a 4FF00008 		mov	r8, #0
 768              		.loc 1 268 0
 769 037e 0A21     		movs	r1, #10
 770              		.loc 1 311 0
 771 0380 0192     		str	r2, [sp, #4]
 772              	.LVL102:
 773              		.loc 1 270 0
 774 0382 C346     		mov	fp, r8
 775 0384 4246     		mov	r2, r8
 776              		.loc 1 268 0
 777 0386 8946     		mov	r9, r1
 778 0388 65E6     		b	.L13
 779              	.LVL103:
 780              	.L26:
 781              		.loc 1 310 0
 782 038a A06A     		ldr	r0, [r4, #40]
 783 038c 744F     		ldr	r7, .L175
 784 038e 0028     		cmp	r0, #0
 785 0390 00F08680 		beq	.L166
 786              		.loc 1 311 0
 787 0394 97F83B00 		ldrb	r0, [r7, #59]	@ zero_extendqisi2
 788 0398 019F     		ldr	r7, [sp, #4]
 789 039a 8742     		cmp	r7, r0
 790 039c 3FF6B6AE 		bhi	.L27
 791              	.LVL104:
 792 03a0 0190     		str	r0, [sp, #4]
 793              		.loc 1 312 0
 794 03a2 4FF00208 		mov	r8, #2
 795 03a6 B1E6     		b	.L27
 796              	.LVL105:
 797              	.L35:
 798              		.loc 1 310 0
ARM GAS  C:\Users\jenny\AppData\Local\Temp\ccFzIZYt.s 			page 15


 799 03a8 E06B     		ldr	r0, [r4, #60]
 800 03aa 6D4F     		ldr	r7, .L175
 801 03ac 0028     		cmp	r0, #0
 802 03ae 6ED0     		beq	.L167
 803              		.loc 1 311 0
 804 03b0 97F84F70 		ldrb	r7, [r7, #79]	@ zero_extendqisi2
 805 03b4 019E     		ldr	r6, [sp, #4]
 806 03b6 B742     		cmp	r7, r6
 807 03b8 FFF4BFAE 		bcc	.L36
 808              	.LVL106:
 809 03bc 0197     		str	r7, [sp, #4]
 810              		.loc 1 312 0
 811 03be 4FF00308 		mov	r8, #3
 812 03c2 BAE6     		b	.L36
 813              	.LVL107:
 814              	.L44:
 815              		.loc 1 310 0
 816 03c4 206D     		ldr	r0, [r4, #80]
 817 03c6 664F     		ldr	r7, .L175
 818 03c8 0028     		cmp	r0, #0
 819 03ca 00F08380 		beq	.L168
 820              		.loc 1 311 0
 821 03ce 97F86370 		ldrb	r7, [r7, #99]	@ zero_extendqisi2
 822 03d2 019E     		ldr	r6, [sp, #4]
 823 03d4 BE42     		cmp	r6, r7
 824 03d6 3FF6C7AE 		bhi	.L45
 825              	.LVL108:
 826 03da 0197     		str	r7, [sp, #4]
 827              		.loc 1 312 0
 828 03dc 4FF00408 		mov	r8, #4
 829 03e0 C2E6     		b	.L45
 830              	.LVL109:
 831              	.L53:
 832              		.loc 1 310 0
 833 03e2 606E     		ldr	r0, [r4, #100]
 834 03e4 5E4F     		ldr	r7, .L175
 835 03e6 0028     		cmp	r0, #0
 836 03e8 7DD0     		beq	.L169
 837              		.loc 1 311 0
 838 03ea 97F87770 		ldrb	r7, [r7, #119]	@ zero_extendqisi2
 839 03ee 019E     		ldr	r6, [sp, #4]
 840 03f0 BE42     		cmp	r6, r7
 841 03f2 3FF6D0AE 		bhi	.L54
 842              	.LVL110:
 843 03f6 0197     		str	r7, [sp, #4]
 844              		.loc 1 312 0
 845 03f8 4FF00508 		mov	r8, #5
 846 03fc CBE6     		b	.L54
 847              	.LVL111:
 848              	.L62:
 849              		.loc 1 310 0
 850 03fe A06F     		ldr	r0, [r4, #120]
 851 0400 574F     		ldr	r7, .L175
 852 0402 0028     		cmp	r0, #0
 853 0404 78D0     		beq	.L170
 854              		.loc 1 311 0
 855 0406 97F88B70 		ldrb	r7, [r7, #139]	@ zero_extendqisi2
ARM GAS  C:\Users\jenny\AppData\Local\Temp\ccFzIZYt.s 			page 16


 856 040a 019E     		ldr	r6, [sp, #4]
 857 040c B742     		cmp	r7, r6
 858 040e FFF4DBAE 		bcc	.L63
 859              	.LVL112:
 860 0412 0197     		str	r7, [sp, #4]
 861              		.loc 1 312 0
 862 0414 4FF00608 		mov	r8, #6
 863 0418 D6E6     		b	.L63
 864              	.LVL113:
 865              	.L71:
 866              		.loc 1 310 0
 867 041a D4F88C00 		ldr	r0, [r4, #140]
 868 041e 504F     		ldr	r7, .L175
 869 0420 0028     		cmp	r0, #0
 870 0422 00F08380 		beq	.L171
 871              		.loc 1 311 0
 872 0426 97F89F70 		ldrb	r7, [r7, #159]	@ zero_extendqisi2
 873 042a 019E     		ldr	r6, [sp, #4]
 874 042c B742     		cmp	r7, r6
 875 042e FFF4E5AE 		bcc	.L72
 876              	.LVL114:
 877 0432 0197     		str	r7, [sp, #4]
 878              		.loc 1 312 0
 879 0434 4FF00708 		mov	r8, #7
 880 0438 E0E6     		b	.L72
 881              	.LVL115:
 882              	.L80:
 883              		.loc 1 310 0
 884 043a D4F8A000 		ldr	r0, [r4, #160]
 885 043e 484F     		ldr	r7, .L175
 886 0440 0028     		cmp	r0, #0
 887 0442 7CD0     		beq	.L172
 888              		.loc 1 311 0
 889 0444 97F8B300 		ldrb	r0, [r7, #179]	@ zero_extendqisi2
 890 0448 019E     		ldr	r6, [sp, #4]
 891 044a B042     		cmp	r0, r6
 892 044c FFF429AE 		bcc	.L81
 893              	.LVL116:
 894 0450 0190     		str	r0, [sp, #4]
 895              		.loc 1 312 0
 896 0452 4FF00808 		mov	r8, #8
 897 0456 24E6     		b	.L81
 898              	.LVL117:
 899              	.L160:
 900              		.loc 1 310 0
 901 0458 D4F8B420 		ldr	r2, [r4, #180]
 902              	.LVL118:
 903 045c 404F     		ldr	r7, .L175
 904 045e 002A     		cmp	r2, #0
 905 0460 5DD0     		beq	.L91
 906              		.loc 1 311 0
 907 0462 97F8C720 		ldrb	r2, [r7, #199]	@ zero_extendqisi2
 908              		.loc 1 312 0
 909 0466 019E     		ldr	r6, [sp, #4]
 910 0468 B242     		cmp	r2, r6
 911 046a 28BF     		it	cs
 912 046c 4FF00908 		movcs	r8, #9
ARM GAS  C:\Users\jenny\AppData\Local\Temp\ccFzIZYt.s 			page 17


 913              	.LVL119:
 914 0470 F5E6     		b	.L92
 915              	.LVL120:
 916              	.L102:
 917              		.loc 1 274 0
 918 0472 0027     		movs	r7, #0
 919              		.loc 1 272 0
 920 0474 4FF00A08 		mov	r8, #10
 921              		.loc 1 274 0
 922 0478 0197     		str	r7, [sp, #4]
 923              		.loc 1 270 0
 924 047a 3A46     		mov	r2, r7
 925 047c BB46     		mov	fp, r7
 926              		.loc 1 268 0
 927 047e 4146     		mov	r1, r8
 928 0480 C146     		mov	r9, r8
 929 0482 E8E5     		b	.L13
 930              	.LVL121:
 931              	.L124:
 932              	.LBE7:
 933              		.loc 1 346 0
 934 0484 FF20     		movs	r0, #255
 935 0486 09E7     		b	.L89
 936              	.LVL122:
 937              	.L144:
 938              	.LBB8:
 939              		.loc 1 291 0
 940 0488 0023     		movs	r3, #0
 941              	.LVL123:
 942              	.L15:
 943              		.loc 1 305 0
 944 048a D8B2     		uxtb	r0, r3
 945 048c 06E7     		b	.L89
 946              	.LVL124:
 947              	.L167:
 948              		.loc 1 318 0
 949 048e 97F84F00 		ldrb	r0, [r7, #79]	@ zero_extendqisi2
 950 0492 8345     		cmp	fp, r0
 951 0494 3FF651AE 		bhi	.L36
 952              	.LVL125:
 953 0498 8346     		mov	fp, r0
 954              		.loc 1 319 0
 955 049a 4FF00309 		mov	r9, #3
 956 049e 4CE6     		b	.L36
 957              	.LVL126:
 958              	.L166:
 959              		.loc 1 318 0
 960 04a0 97F83B00 		ldrb	r0, [r7, #59]	@ zero_extendqisi2
 961 04a4 5845     		cmp	r0, fp
 962 04a6 FFF431AE 		bcc	.L27
 963              	.LVL127:
 964 04aa 8346     		mov	fp, r0
 965              		.loc 1 319 0
 966 04ac 4FF00209 		mov	r9, #2
 967 04b0 2CE6     		b	.L27
 968              	.LVL128:
 969              	.L146:
ARM GAS  C:\Users\jenny\AppData\Local\Temp\ccFzIZYt.s 			page 18


 970              		.loc 1 318 0
 971 04b2 97F82700 		ldrb	r0, [r7, #39]	@ zero_extendqisi2
 972 04b6 5845     		cmp	r0, fp
 973 04b8 FFF411AE 		bcc	.L20
 974              	.LVL129:
 975 04bc 8346     		mov	fp, r0
 976              		.loc 1 319 0
 977 04be D146     		mov	r9, sl
 978 04c0 0DE6     		b	.L20
 979              	.LVL130:
 980              	.L165:
 981              		.loc 1 272 0
 982 04c2 4FF00A08 		mov	r8, #10
 983              		.loc 1 274 0
 984 04c6 0196     		str	r6, [sp, #4]
 985              		.loc 1 318 0
 986 04c8 93F813B0 		ldrb	fp, [r3, #19]	@ zero_extendqisi2
 987              	.LVL131:
 988              		.loc 1 270 0
 989 04cc 3246     		mov	r2, r6
 990              		.loc 1 268 0
 991 04ce 4146     		mov	r1, r8
 992              		.loc 1 319 0
 993 04d0 B146     		mov	r9, r6
 994 04d2 C0E5     		b	.L13
 995              	.LVL132:
 996              	.L168:
 997              		.loc 1 318 0
 998 04d4 97F86300 		ldrb	r0, [r7, #99]	@ zero_extendqisi2
 999 04d8 8345     		cmp	fp, r0
 1000 04da 3FF645AE 		bhi	.L45
 1001              	.LVL133:
 1002 04de 8346     		mov	fp, r0
 1003              		.loc 1 319 0
 1004 04e0 4FF00409 		mov	r9, #4
 1005 04e4 40E6     		b	.L45
 1006              	.LVL134:
 1007              	.L169:
 1008              		.loc 1 318 0
 1009 04e6 97F87700 		ldrb	r0, [r7, #119]	@ zero_extendqisi2
 1010 04ea 8345     		cmp	fp, r0
 1011 04ec 3FF653AE 		bhi	.L54
 1012              	.LVL135:
 1013 04f0 8346     		mov	fp, r0
 1014              		.loc 1 319 0
 1015 04f2 4FF00509 		mov	r9, #5
 1016 04f6 4EE6     		b	.L54
 1017              	.LVL136:
 1018              	.L170:
 1019              		.loc 1 318 0
 1020 04f8 97F88B00 		ldrb	r0, [r7, #139]	@ zero_extendqisi2
 1021 04fc 8345     		cmp	fp, r0
 1022 04fe 3FF663AE 		bhi	.L63
 1023              	.LVL137:
 1024 0502 8346     		mov	fp, r0
 1025              		.loc 1 319 0
 1026 0504 4FF00609 		mov	r9, #6
ARM GAS  C:\Users\jenny\AppData\Local\Temp\ccFzIZYt.s 			page 19


 1027 0508 5EE6     		b	.L63
 1028              	.LVL138:
 1029              	.L147:
 1030              		.loc 1 291 0
 1031 050a 0223     		movs	r3, #2
 1032 050c BDE7     		b	.L15
 1033              	.LVL139:
 1034              	.L149:
 1035 050e 0323     		movs	r3, #3
 1036 0510 BBE7     		b	.L15
 1037              	.LVL140:
 1038              	.L163:
 1039 0512 0123     		movs	r3, #1
 1040 0514 B9E7     		b	.L15
 1041              	.LVL141:
 1042              	.L153:
 1043 0516 0523     		movs	r3, #5
 1044 0518 B7E7     		b	.L15
 1045              	.LVL142:
 1046              	.L151:
 1047 051a 0423     		movs	r3, #4
 1048 051c B5E7     		b	.L15
 1049              	.LVL143:
 1050              	.L91:
 1051              		.loc 1 318 0
 1052 051e 97F8C720 		ldrb	r2, [r7, #199]	@ zero_extendqisi2
 1053              		.loc 1 319 0
 1054 0522 5A45     		cmp	r2, fp
 1055 0524 28BF     		it	cs
 1056 0526 4FF00909 		movcs	r9, #9
 1057              	.LVL144:
 1058 052a 98E6     		b	.L92
 1059              	.LVL145:
 1060              	.L171:
 1061              		.loc 1 318 0
 1062 052c 97F89F00 		ldrb	r0, [r7, #159]	@ zero_extendqisi2
 1063 0530 5845     		cmp	r0, fp
 1064 0532 FFF463AE 		bcc	.L72
 1065              	.LVL146:
 1066 0536 8346     		mov	fp, r0
 1067              		.loc 1 319 0
 1068 0538 4FF00709 		mov	r9, #7
 1069 053c 5EE6     		b	.L72
 1070              	.LVL147:
 1071              	.L172:
 1072              		.loc 1 318 0
 1073 053e 97F8B300 		ldrb	r0, [r7, #179]	@ zero_extendqisi2
 1074 0542 5845     		cmp	r0, fp
 1075 0544 FFF4ADAD 		bcc	.L81
 1076              	.LVL148:
 1077 0548 8346     		mov	fp, r0
 1078              		.loc 1 319 0
 1079 054a 4FF00809 		mov	r9, #8
 1080 054e A8E5     		b	.L81
 1081              	.LVL149:
 1082              	.L156:
 1083              		.loc 1 291 0
ARM GAS  C:\Users\jenny\AppData\Local\Temp\ccFzIZYt.s 			page 20


 1084 0550 0723     		movs	r3, #7
 1085 0552 9AE7     		b	.L15
 1086              	.LVL150:
 1087              	.L155:
 1088 0554 0623     		movs	r3, #6
 1089 0556 98E7     		b	.L15
 1090              	.LVL151:
 1091              	.L159:
 1092              		.loc 1 302 0
 1093 0558 0923     		movs	r3, #9
 1094              	.LVL152:
 1095 055a 96E7     		b	.L15
 1096              	.LVL153:
 1097              	.L158:
 1098              		.loc 1 291 0
 1099 055c 0823     		movs	r3, #8
 1100 055e 94E7     		b	.L15
 1101              	.L176:
 1102              		.align	2
 1103              	.L175:
 1104 0560 00000000 		.word	.LANCHOR0
 1105              	.LBE8:
 1106              		.cfi_endproc
 1107              	.LFE9:
 1108              		.size	etharp_find_entry, .-etharp_find_entry
 1109 0564 AFF30080 		.section	.text.etharp_send_ip,"ax",%progbits
 1109      AFF30080 
 1109      AFF30080 
 1110              		.align	2
 1111              		.p2align 4,,15
 1112              		.thumb
 1113              		.thumb_func
 1114              		.type	etharp_send_ip, %function
 1115              	etharp_send_ip:
 1116              	.LFB10:
 1117              		.loc 1 416 0
 1118              		.cfi_startproc
 1119              		@ args = 0, pretend = 0, frame = 0
 1120              		@ frame_needed = 0, uses_anonymous_args = 0
 1121              	.LVL154:
 1122 0000 2DE9F041 		push	{r4, r5, r6, r7, r8, lr}
 1123              	.LCFI3:
 1124              		.cfi_def_cfa_offset 24
 1125              		.cfi_offset 4, -24
 1126              		.cfi_offset 5, -20
 1127              		.cfi_offset 6, -16
 1128              		.cfi_offset 7, -12
 1129              		.cfi_offset 8, -8
 1130              		.cfi_offset 14, -4
 1131              		.loc 1 416 0
 1132 0004 0E46     		mov	r6, r1
 1133              		.loc 1 419 0
 1134 0006 90F82210 		ldrb	r1, [r0, #34]	@ zero_extendqisi2
 1135              	.LVL155:
 1136              		.loc 1 417 0
 1137 000a 7468     		ldr	r4, [r6, #4]
 1138              	.LVL156:
ARM GAS  C:\Users\jenny\AppData\Local\Temp\ccFzIZYt.s 			page 21


 1139              		.loc 1 419 0
 1140 000c 0629     		cmp	r1, #6
 1141              		.loc 1 416 0
 1142 000e 0546     		mov	r5, r0
 1143 0010 1746     		mov	r7, r2
 1144 0012 9846     		mov	r8, r3
 1145              		.loc 1 419 0
 1146 0014 01D0     		beq	.L178
 1147              		.loc 1 419 0 is_stmt 0 discriminator 1
 1148 0016 FFF7FEFF 		bl	port_halt
 1149              	.LVL157:
 1150              	.L178:
 1151              		.loc 1 421 0 is_stmt 1
 1152 001a D8F80030 		ldr	r3, [r8, #0]	@ unaligned
 1153 001e 2360     		str	r3, [r4, #0]	@ unaligned
 1154 0020 B8F80400 		ldrh	r0, [r8, #4]	@ unaligned
 1155 0024 A080     		strh	r0, [r4, #4]	@ unaligned
 1156              		.loc 1 422 0
 1157 0026 3A68     		ldr	r2, [r7, #0]	@ unaligned
 1158 0028 C4F80620 		str	r2, [r4, #6]	@ unaligned
 1159 002c B988     		ldrh	r1, [r7, #4]	@ unaligned
 1160              		.loc 1 423 0
 1161 002e 0020     		movs	r0, #0
 1162 0030 0823     		movs	r3, #8
 1163              		.loc 1 422 0
 1164 0032 6181     		strh	r1, [r4, #10]	@ unaligned
 1165              		.loc 1 423 0
 1166 0034 6073     		strb	r0, [r4, #13]
 1167 0036 2373     		strb	r3, [r4, #12]
 1168              		.loc 1 426 0
 1169 0038 AA69     		ldr	r2, [r5, #24]
 1170 003a 2846     		mov	r0, r5
 1171 003c 3146     		mov	r1, r6
 1172 003e 9047     		blx	r2
 1173              	.LVL158:
 1174              		.loc 1 427 0
 1175 0040 BDE8F081 		pop	{r4, r5, r6, r7, r8, pc}
 1176              		.cfi_endproc
 1177              	.LFE10:
 1178              		.size	etharp_send_ip, .-etharp_send_ip
 1179 0044 AFF30080 		.section	.text.etharp_tmr,"ax",%progbits
 1179      AFF30080 
 1179      AFF30080 
 1180              		.align	2
 1181              		.p2align 4,,15
 1182              		.global	etharp_tmr
 1183              		.thumb
 1184              		.thumb_func
 1185              		.type	etharp_tmr, %function
 1186              	etharp_tmr:
 1187              	.LFB8:
 1188              		.loc 1 207 0
 1189              		.cfi_startproc
 1190              		@ args = 0, pretend = 0, frame = 0
 1191              		@ frame_needed = 0, uses_anonymous_args = 0
 1192              	.LVL159:
 1193 0000 10B5     		push	{r4, lr}
ARM GAS  C:\Users\jenny\AppData\Local\Temp\ccFzIZYt.s 			page 22


 1194              	.LCFI4:
 1195              		.cfi_def_cfa_offset 8
 1196              		.cfi_offset 4, -8
 1197              		.cfi_offset 14, -4
 1198              	.LBB9:
 1199              		.loc 1 213 0
 1200 0002 8C4C     		ldr	r4, .L271
 1201              		.loc 1 214 0
 1202 0004 A37C     		ldrb	r3, [r4, #18]	@ zero_extendqisi2
 1203 0006 63B1     		cbz	r3, .L185
 1204              		.loc 1 219 0
 1205 0008 E27C     		ldrb	r2, [r4, #19]	@ zero_extendqisi2
 1206 000a 501C     		adds	r0, r2, #1
 1207 000c C1B2     		uxtb	r1, r0
 1208              		.loc 1 220 0
 1209 000e EF29     		cmp	r1, #239
 1210              		.loc 1 219 0
 1211 0010 E174     		strb	r1, [r4, #19]
 1212              		.loc 1 220 0
 1213 0012 00F2AF80 		bhi	.L187
 1214 0016 012B     		cmp	r3, #1
 1215 0018 00F0A980 		beq	.L186
 1216              		.loc 1 229 0
 1217 001c 032B     		cmp	r3, #3
 1218 001e 00F0E180 		beq	.L260
 1219              	.LVL160:
 1220              	.L185:
 1221              		.loc 1 214 0
 1222 0022 94F82600 		ldrb	r0, [r4, #38]	@ zero_extendqisi2
 1223              		.loc 1 213 0
 1224 0026 834A     		ldr	r2, .L271
 1225              		.loc 1 214 0
 1226 0028 70B1     		cbz	r0, .L190
 1227              		.loc 1 219 0
 1228 002a 92F82710 		ldrb	r1, [r2, #39]	@ zero_extendqisi2
 1229 002e 4B1C     		adds	r3, r1, #1
 1230 0030 D9B2     		uxtb	r1, r3
 1231              		.loc 1 220 0
 1232 0032 EF29     		cmp	r1, #239
 1233              		.loc 1 219 0
 1234 0034 82F82710 		strb	r1, [r2, #39]
 1235              		.loc 1 220 0
 1236 0038 00F29580 		bhi	.L192
 1237 003c 0128     		cmp	r0, #1
 1238 003e 00F08F80 		beq	.L191
 1239              		.loc 1 229 0
 1240 0042 0328     		cmp	r0, #3
 1241 0044 00F0D180 		beq	.L261
 1242              	.LVL161:
 1243              	.L190:
 1244              		.loc 1 214 0
 1245 0048 94F83A30 		ldrb	r3, [r4, #58]	@ zero_extendqisi2
 1246              		.loc 1 213 0
 1247 004c 794A     		ldr	r2, .L271
 1248              		.loc 1 214 0
 1249 004e 73B1     		cbz	r3, .L195
 1250              		.loc 1 219 0
ARM GAS  C:\Users\jenny\AppData\Local\Temp\ccFzIZYt.s 			page 23


 1251 0050 92F83B10 		ldrb	r1, [r2, #59]	@ zero_extendqisi2
 1252 0054 481C     		adds	r0, r1, #1
 1253 0056 C1B2     		uxtb	r1, r0
 1254              		.loc 1 220 0
 1255 0058 EF29     		cmp	r1, #239
 1256              		.loc 1 219 0
 1257 005a 82F83B10 		strb	r1, [r2, #59]
 1258              		.loc 1 220 0
 1259 005e 00F2B080 		bhi	.L197
 1260 0062 012B     		cmp	r3, #1
 1261 0064 00F0AA80 		beq	.L196
 1262              		.loc 1 229 0
 1263 0068 032B     		cmp	r3, #3
 1264 006a 00F0C280 		beq	.L262
 1265              	.LVL162:
 1266              	.L195:
 1267              		.loc 1 214 0
 1268 006e 94F84E00 		ldrb	r0, [r4, #78]	@ zero_extendqisi2
 1269              		.loc 1 213 0
 1270 0072 704A     		ldr	r2, .L271
 1271              		.loc 1 214 0
 1272 0074 70B1     		cbz	r0, .L200
 1273              		.loc 1 219 0
 1274 0076 92F84F10 		ldrb	r1, [r2, #79]	@ zero_extendqisi2
 1275 007a 4B1C     		adds	r3, r1, #1
 1276 007c D9B2     		uxtb	r1, r3
 1277              		.loc 1 220 0
 1278 007e EF29     		cmp	r1, #239
 1279              		.loc 1 219 0
 1280 0080 82F84F10 		strb	r1, [r2, #79]
 1281              		.loc 1 220 0
 1282 0084 00F29680 		bhi	.L202
 1283 0088 0128     		cmp	r0, #1
 1284 008a 00F09080 		beq	.L201
 1285              		.loc 1 229 0
 1286 008e 0328     		cmp	r0, #3
 1287 0090 00F0B380 		beq	.L263
 1288              	.LVL163:
 1289              	.L200:
 1290              		.loc 1 214 0
 1291 0094 94F86230 		ldrb	r3, [r4, #98]	@ zero_extendqisi2
 1292              		.loc 1 213 0
 1293 0098 664A     		ldr	r2, .L271
 1294              		.loc 1 214 0
 1295 009a 73B1     		cbz	r3, .L205
 1296              		.loc 1 219 0
 1297 009c 92F86310 		ldrb	r1, [r2, #99]	@ zero_extendqisi2
 1298 00a0 481C     		adds	r0, r1, #1
 1299 00a2 C1B2     		uxtb	r1, r0
 1300              		.loc 1 220 0
 1301 00a4 EF29     		cmp	r1, #239
 1302              		.loc 1 219 0
 1303 00a6 82F86310 		strb	r1, [r2, #99]
 1304              		.loc 1 220 0
 1305 00aa 00F29780 		bhi	.L207
 1306 00ae 012B     		cmp	r3, #1
 1307 00b0 00F09180 		beq	.L206
ARM GAS  C:\Users\jenny\AppData\Local\Temp\ccFzIZYt.s 			page 24


 1308              		.loc 1 229 0
 1309 00b4 032B     		cmp	r3, #3
 1310 00b6 00F0A480 		beq	.L264
 1311              	.LVL164:
 1312              	.L205:
 1313              		.loc 1 214 0
 1314 00ba 94F87600 		ldrb	r0, [r4, #118]	@ zero_extendqisi2
 1315              		.loc 1 213 0
 1316 00be 5D4A     		ldr	r2, .L271
 1317              		.loc 1 214 0
 1318 00c0 60B1     		cbz	r0, .L210
 1319              		.loc 1 219 0
 1320 00c2 92F87710 		ldrb	r1, [r2, #119]	@ zero_extendqisi2
 1321 00c6 4B1C     		adds	r3, r1, #1
 1322 00c8 D9B2     		uxtb	r1, r3
 1323              		.loc 1 220 0
 1324 00ca EF29     		cmp	r1, #239
 1325              		.loc 1 219 0
 1326 00cc 82F87710 		strb	r1, [r2, #119]
 1327              		.loc 1 220 0
 1328 00d0 7DD8     		bhi	.L212
 1329 00d2 0128     		cmp	r0, #1
 1330 00d4 79D0     		beq	.L211
 1331              		.loc 1 229 0
 1332 00d6 0328     		cmp	r0, #3
 1333 00d8 00F09780 		beq	.L265
 1334              	.LVL165:
 1335              	.L210:
 1336              		.loc 1 214 0
 1337 00dc 94F88A30 		ldrb	r3, [r4, #138]	@ zero_extendqisi2
 1338              		.loc 1 213 0
 1339 00e0 544A     		ldr	r2, .L271
 1340              		.loc 1 214 0
 1341 00e2 63B1     		cbz	r3, .L215
 1342              		.loc 1 219 0
 1343 00e4 92F88B10 		ldrb	r1, [r2, #139]	@ zero_extendqisi2
 1344 00e8 481C     		adds	r0, r1, #1
 1345 00ea C1B2     		uxtb	r1, r0
 1346              		.loc 1 220 0
 1347 00ec EF29     		cmp	r1, #239
 1348              		.loc 1 219 0
 1349 00ee 82F88B10 		strb	r1, [r2, #139]
 1350              		.loc 1 220 0
 1351 00f2 4BD8     		bhi	.L217
 1352 00f4 012B     		cmp	r3, #1
 1353 00f6 47D0     		beq	.L216
 1354              		.loc 1 229 0
 1355 00f8 032B     		cmp	r3, #3
 1356 00fa 00F08A80 		beq	.L266
 1357              	.LVL166:
 1358              	.L215:
 1359              		.loc 1 214 0
 1360 00fe 94F89E00 		ldrb	r0, [r4, #158]	@ zero_extendqisi2
 1361              		.loc 1 213 0
 1362 0102 4C4A     		ldr	r2, .L271
 1363              		.loc 1 214 0
 1364 0104 58B1     		cbz	r0, .L220
ARM GAS  C:\Users\jenny\AppData\Local\Temp\ccFzIZYt.s 			page 25


 1365              		.loc 1 219 0
 1366 0106 92F89F10 		ldrb	r1, [r2, #159]	@ zero_extendqisi2
 1367 010a 4B1C     		adds	r3, r1, #1
 1368 010c D9B2     		uxtb	r1, r3
 1369              		.loc 1 220 0
 1370 010e EF29     		cmp	r1, #239
 1371              		.loc 1 219 0
 1372 0110 82F89F10 		strb	r1, [r2, #159]
 1373              		.loc 1 220 0
 1374 0114 34D8     		bhi	.L222
 1375 0116 0128     		cmp	r0, #1
 1376 0118 30D0     		beq	.L221
 1377              		.loc 1 229 0
 1378 011a 0328     		cmp	r0, #3
 1379 011c 7DD0     		beq	.L267
 1380              	.LVL167:
 1381              	.L220:
 1382              		.loc 1 214 0
 1383 011e 94F8B230 		ldrb	r3, [r4, #178]	@ zero_extendqisi2
 1384              		.loc 1 213 0
 1385 0122 444A     		ldr	r2, .L271
 1386              		.loc 1 214 0
 1387 0124 5BB1     		cbz	r3, .L225
 1388              		.loc 1 219 0
 1389 0126 92F8B310 		ldrb	r1, [r2, #179]	@ zero_extendqisi2
 1390 012a 481C     		adds	r0, r1, #1
 1391 012c C1B2     		uxtb	r1, r0
 1392              		.loc 1 220 0
 1393 012e EF29     		cmp	r1, #239
 1394              		.loc 1 219 0
 1395 0130 82F8B310 		strb	r1, [r2, #179]
 1396              		.loc 1 220 0
 1397 0134 37D8     		bhi	.L227
 1398 0136 012B     		cmp	r3, #1
 1399 0138 33D0     		beq	.L226
 1400              		.loc 1 229 0
 1401 013a 032B     		cmp	r3, #3
 1402 013c 71D0     		beq	.L268
 1403              	.LVL168:
 1404              	.L225:
 1405              		.loc 1 214 0
 1406 013e 94F8C600 		ldrb	r0, [r4, #198]	@ zero_extendqisi2
 1407              		.loc 1 213 0
 1408 0142 3C4A     		ldr	r2, .L271
 1409              		.loc 1 214 0
 1410 0144 58B1     		cbz	r0, .L182
 1411              		.loc 1 219 0
 1412 0146 92F8C710 		ldrb	r1, [r2, #199]	@ zero_extendqisi2
 1413 014a 4B1C     		adds	r3, r1, #1
 1414 014c D9B2     		uxtb	r1, r3
 1415              		.loc 1 220 0
 1416 014e EF29     		cmp	r1, #239
 1417              		.loc 1 219 0
 1418 0150 82F8C710 		strb	r1, [r2, #199]
 1419              		.loc 1 220 0
 1420 0154 20D8     		bhi	.L230
 1421              		.loc 1 220 0 is_stmt 0 discriminator 1
ARM GAS  C:\Users\jenny\AppData\Local\Temp\ccFzIZYt.s 			page 26


 1422 0156 0128     		cmp	r0, #1
 1423 0158 1CD0     		beq	.L269
 1424              		.loc 1 229 0 is_stmt 1
 1425 015a 0328     		cmp	r0, #3
 1426 015c 65D0     		beq	.L270
 1427              	.LVL169:
 1428              	.L182:
 1429 015e 10BD     		pop	{r4, pc}
 1430              	.LVL170:
 1431              	.L191:
 1432              		.loc 1 221 0
 1433 0160 0129     		cmp	r1, #1
 1434 0162 7FF671AF 		bls	.L190
 1435              	.L192:
 1436              		.loc 1 227 0
 1437 0166 0120     		movs	r0, #1
 1438 0168 FFF7FEFF 		bl	etharp_free_entry
 1439              	.LVL171:
 1440 016c 6CE7     		b	.L190
 1441              	.LVL172:
 1442              	.L186:
 1443              		.loc 1 221 0
 1444 016e 0129     		cmp	r1, #1
 1445 0170 7FF657AF 		bls	.L185
 1446              	.L187:
 1447              		.loc 1 227 0
 1448 0174 0020     		movs	r0, #0
 1449 0176 FFF7FEFF 		bl	etharp_free_entry
 1450              	.LVL173:
 1451 017a 52E7     		b	.L185
 1452              	.LVL174:
 1453              	.L221:
 1454              		.loc 1 221 0
 1455 017c 0129     		cmp	r1, #1
 1456 017e CED9     		bls	.L220
 1457              	.L222:
 1458              		.loc 1 227 0
 1459 0180 0720     		movs	r0, #7
 1460 0182 FFF7FEFF 		bl	etharp_free_entry
 1461              	.LVL175:
 1462 0186 CAE7     		b	.L220
 1463              	.LVL176:
 1464              	.L216:
 1465              		.loc 1 221 0
 1466 0188 0129     		cmp	r1, #1
 1467 018a B8D9     		bls	.L215
 1468              	.L217:
 1469              		.loc 1 227 0
 1470 018c 0620     		movs	r0, #6
 1471 018e FFF7FEFF 		bl	etharp_free_entry
 1472              	.LVL177:
 1473 0192 B4E7     		b	.L215
 1474              	.LVL178:
 1475              	.L269:
 1476              		.loc 1 221 0
 1477 0194 0129     		cmp	r1, #1
 1478 0196 E2D9     		bls	.L182
ARM GAS  C:\Users\jenny\AppData\Local\Temp\ccFzIZYt.s 			page 27


 1479              	.L230:
 1480              		.loc 1 227 0
 1481 0198 0920     		movs	r0, #9
 1482              	.LBE9:
 1483              		.loc 1 242 0
 1484 019a BDE81040 		pop	{r4, lr}
 1485              	.LBB10:
 1486              		.loc 1 227 0
 1487 019e FFF7FEBF 		b	etharp_free_entry
 1488              	.LVL179:
 1489              	.L226:
 1490              		.loc 1 221 0
 1491 01a2 0129     		cmp	r1, #1
 1492 01a4 CBD9     		bls	.L225
 1493              	.L227:
 1494              		.loc 1 227 0
 1495 01a6 0820     		movs	r0, #8
 1496 01a8 FFF7FEFF 		bl	etharp_free_entry
 1497              	.LVL180:
 1498 01ac C7E7     		b	.L225
 1499              	.LVL181:
 1500              	.L201:
 1501              		.loc 1 221 0
 1502 01ae 0129     		cmp	r1, #1
 1503 01b0 7FF670AF 		bls	.L200
 1504              	.L202:
 1505              		.loc 1 227 0
 1506 01b4 0320     		movs	r0, #3
 1507 01b6 FFF7FEFF 		bl	etharp_free_entry
 1508              	.LVL182:
 1509 01ba 6BE7     		b	.L200
 1510              	.LVL183:
 1511              	.L196:
 1512              		.loc 1 221 0
 1513 01bc 0129     		cmp	r1, #1
 1514 01be 7FF656AF 		bls	.L195
 1515              	.L197:
 1516              		.loc 1 227 0
 1517 01c2 0220     		movs	r0, #2
 1518 01c4 FFF7FEFF 		bl	etharp_free_entry
 1519              	.LVL184:
 1520 01c8 51E7     		b	.L195
 1521              	.LVL185:
 1522              	.L211:
 1523              		.loc 1 221 0
 1524 01ca 0129     		cmp	r1, #1
 1525 01cc 86D9     		bls	.L210
 1526              	.L212:
 1527              		.loc 1 227 0
 1528 01ce 0520     		movs	r0, #5
 1529 01d0 FFF7FEFF 		bl	etharp_free_entry
 1530              	.LVL186:
 1531 01d4 82E7     		b	.L210
 1532              	.LVL187:
 1533              	.L206:
 1534              		.loc 1 221 0
 1535 01d6 0129     		cmp	r1, #1
ARM GAS  C:\Users\jenny\AppData\Local\Temp\ccFzIZYt.s 			page 28


 1536 01d8 7FF66FAF 		bls	.L205
 1537              	.L207:
 1538              		.loc 1 227 0
 1539 01dc 0420     		movs	r0, #4
 1540 01de FFF7FEFF 		bl	etharp_free_entry
 1541              	.LVL188:
 1542 01e2 6AE7     		b	.L205
 1543              	.LVL189:
 1544              	.L260:
 1545              		.loc 1 232 0
 1546 01e4 0223     		movs	r3, #2
 1547 01e6 A374     		strb	r3, [r4, #18]
 1548 01e8 1BE7     		b	.L185
 1549              	.LVL190:
 1550              	.L261:
 1551 01ea 0220     		movs	r0, #2
 1552 01ec 82F82600 		strb	r0, [r2, #38]
 1553 01f0 2AE7     		b	.L190
 1554              	.LVL191:
 1555              	.L262:
 1556 01f2 0223     		movs	r3, #2
 1557 01f4 82F83A30 		strb	r3, [r2, #58]
 1558 01f8 39E7     		b	.L195
 1559              	.LVL192:
 1560              	.L263:
 1561 01fa 0220     		movs	r0, #2
 1562 01fc 82F84E00 		strb	r0, [r2, #78]
 1563 0200 48E7     		b	.L200
 1564              	.LVL193:
 1565              	.L264:
 1566 0202 0223     		movs	r3, #2
 1567 0204 82F86230 		strb	r3, [r2, #98]
 1568 0208 57E7     		b	.L205
 1569              	.LVL194:
 1570              	.L265:
 1571 020a 0220     		movs	r0, #2
 1572 020c 82F87600 		strb	r0, [r2, #118]
 1573 0210 64E7     		b	.L210
 1574              	.LVL195:
 1575              	.L266:
 1576 0212 0223     		movs	r3, #2
 1577 0214 82F88A30 		strb	r3, [r2, #138]
 1578 0218 71E7     		b	.L215
 1579              	.LVL196:
 1580              	.L267:
 1581 021a 0220     		movs	r0, #2
 1582 021c 82F89E00 		strb	r0, [r2, #158]
 1583 0220 7DE7     		b	.L220
 1584              	.LVL197:
 1585              	.L268:
 1586 0222 0223     		movs	r3, #2
 1587 0224 82F8B230 		strb	r3, [r2, #178]
 1588 0228 89E7     		b	.L225
 1589              	.LVL198:
 1590              	.L270:
 1591 022a 0220     		movs	r0, #2
 1592 022c 82F8C600 		strb	r0, [r2, #198]
ARM GAS  C:\Users\jenny\AppData\Local\Temp\ccFzIZYt.s 			page 29


 1593              	.LVL199:
 1594 0230 95E7     		b	.L182
 1595              	.L272:
 1596 0232 00BF     		.align	2
 1597              	.L271:
 1598 0234 00000000 		.word	.LANCHOR0
 1599              	.LBE10:
 1600              		.cfi_endproc
 1601              	.LFE8:
 1602              		.size	etharp_tmr, .-etharp_tmr
 1603 0238 AFF30080 		.section	.text.etharp_cleanup_netif,"ax",%progbits
 1603      AFF30080 
 1604              		.align	2
 1605              		.p2align 4,,15
 1606              		.global	etharp_cleanup_netif
 1607              		.thumb
 1608              		.thumb_func
 1609              		.type	etharp_cleanup_netif, %function
 1610              	etharp_cleanup_netif:
 1611              	.LFB12:
 1612              		.loc 1 580 0
 1613              		.cfi_startproc
 1614              		@ args = 0, pretend = 0, frame = 0
 1615              		@ frame_needed = 0, uses_anonymous_args = 0
 1616              	.LVL200:
 1617 0000 38B5     		push	{r3, r4, r5, lr}
 1618              	.LCFI5:
 1619              		.cfi_def_cfa_offset 16
 1620              		.cfi_offset 3, -16
 1621              		.cfi_offset 4, -12
 1622              		.cfi_offset 5, -8
 1623              		.cfi_offset 14, -4
 1624              	.LBB11:
 1625              		.loc 1 584 0
 1626 0002 3A4C     		ldr	r4, .L324
 1627              		.loc 1 585 0
 1628 0004 A37C     		ldrb	r3, [r4, #18]	@ zero_extendqisi2
 1629              	.LBE11:
 1630              		.loc 1 580 0
 1631 0006 0546     		mov	r5, r0
 1632              	.LBB12:
 1633              		.loc 1 585 0
 1634 0008 13B1     		cbz	r3, .L274
 1635 000a A068     		ldr	r0, [r4, #8]
 1636              	.LVL201:
 1637 000c A842     		cmp	r0, r5
 1638 000e 68D0     		beq	.L314
 1639              	.LVL202:
 1640              	.L274:
 1641 0010 94F82610 		ldrb	r1, [r4, #38]	@ zero_extendqisi2
 1642 0014 19B1     		cbz	r1, .L275
 1643 0016 354A     		ldr	r2, .L324
 1644 0018 D369     		ldr	r3, [r2, #28]
 1645 001a AB42     		cmp	r3, r5
 1646 001c 5DD0     		beq	.L315
 1647              	.LVL203:
 1648              	.L275:
ARM GAS  C:\Users\jenny\AppData\Local\Temp\ccFzIZYt.s 			page 30


 1649 001e 94F83A00 		ldrb	r0, [r4, #58]	@ zero_extendqisi2
 1650 0022 18B1     		cbz	r0, .L276
 1651 0024 3149     		ldr	r1, .L324
 1652 0026 0A6B     		ldr	r2, [r1, #48]
 1653 0028 AA42     		cmp	r2, r5
 1654 002a 52D0     		beq	.L316
 1655              	.LVL204:
 1656              	.L276:
 1657 002c 94F84E30 		ldrb	r3, [r4, #78]	@ zero_extendqisi2
 1658 0030 1BB1     		cbz	r3, .L277
 1659 0032 2E48     		ldr	r0, .L324
 1660 0034 416C     		ldr	r1, [r0, #68]
 1661 0036 A942     		cmp	r1, r5
 1662 0038 47D0     		beq	.L317
 1663              	.LVL205:
 1664              	.L277:
 1665 003a 94F86220 		ldrb	r2, [r4, #98]	@ zero_extendqisi2
 1666 003e 1AB1     		cbz	r2, .L278
 1667 0040 2A4B     		ldr	r3, .L324
 1668 0042 986D     		ldr	r0, [r3, #88]
 1669 0044 A842     		cmp	r0, r5
 1670 0046 3CD0     		beq	.L318
 1671              	.LVL206:
 1672              	.L278:
 1673 0048 94F87610 		ldrb	r1, [r4, #118]	@ zero_extendqisi2
 1674 004c 19B1     		cbz	r1, .L279
 1675 004e 274A     		ldr	r2, .L324
 1676 0050 D36E     		ldr	r3, [r2, #108]
 1677 0052 AB42     		cmp	r3, r5
 1678 0054 31D0     		beq	.L319
 1679              	.LVL207:
 1680              	.L279:
 1681 0056 94F88A00 		ldrb	r0, [r4, #138]	@ zero_extendqisi2
 1682 005a 20B1     		cbz	r0, .L280
 1683 005c 2349     		ldr	r1, .L324
 1684 005e D1F88020 		ldr	r2, [r1, #128]
 1685 0062 AA42     		cmp	r2, r5
 1686 0064 25D0     		beq	.L320
 1687              	.LVL208:
 1688              	.L280:
 1689 0066 94F89E30 		ldrb	r3, [r4, #158]	@ zero_extendqisi2
 1690 006a 23B1     		cbz	r3, .L281
 1691 006c 1F48     		ldr	r0, .L324
 1692 006e D0F89410 		ldr	r1, [r0, #148]
 1693 0072 A942     		cmp	r1, r5
 1694 0074 19D0     		beq	.L321
 1695              	.LVL209:
 1696              	.L281:
 1697 0076 94F8B220 		ldrb	r2, [r4, #178]	@ zero_extendqisi2
 1698 007a 22B1     		cbz	r2, .L282
 1699 007c 1B4B     		ldr	r3, .L324
 1700 007e D3F8A800 		ldr	r0, [r3, #168]
 1701 0082 A842     		cmp	r0, r5
 1702 0084 0DD0     		beq	.L322
 1703              	.LVL210:
 1704              	.L282:
 1705 0086 94F8C610 		ldrb	r1, [r4, #198]	@ zero_extendqisi2
ARM GAS  C:\Users\jenny\AppData\Local\Temp\ccFzIZYt.s 			page 31


 1706 008a 21B1     		cbz	r1, .L273
 1707              		.loc 1 585 0 is_stmt 0 discriminator 1
 1708 008c 174A     		ldr	r2, .L324
 1709 008e D2F8BC30 		ldr	r3, [r2, #188]
 1710 0092 AB42     		cmp	r3, r5
 1711 0094 00D0     		beq	.L323
 1712              	.L273:
 1713 0096 38BD     		pop	{r3, r4, r5, pc}
 1714              	.L323:
 1715              		.loc 1 586 0 is_stmt 1
 1716 0098 0920     		movs	r0, #9
 1717              	.LBE12:
 1718              		.loc 1 589 0
 1719 009a BDE83840 		pop	{r3, r4, r5, lr}
 1720              	.LBB13:
 1721              		.loc 1 586 0
 1722 009e FFF7FEBF 		b	etharp_free_entry
 1723              	.LVL211:
 1724              	.L322:
 1725 00a2 0820     		movs	r0, #8
 1726 00a4 FFF7FEFF 		bl	etharp_free_entry
 1727              	.LVL212:
 1728 00a8 EDE7     		b	.L282
 1729              	.LVL213:
 1730              	.L321:
 1731 00aa 0720     		movs	r0, #7
 1732 00ac FFF7FEFF 		bl	etharp_free_entry
 1733              	.LVL214:
 1734 00b0 E1E7     		b	.L281
 1735              	.LVL215:
 1736              	.L320:
 1737 00b2 0620     		movs	r0, #6
 1738 00b4 FFF7FEFF 		bl	etharp_free_entry
 1739              	.LVL216:
 1740 00b8 D5E7     		b	.L280
 1741              	.LVL217:
 1742              	.L319:
 1743 00ba 0520     		movs	r0, #5
 1744 00bc FFF7FEFF 		bl	etharp_free_entry
 1745              	.LVL218:
 1746 00c0 C9E7     		b	.L279
 1747              	.LVL219:
 1748              	.L318:
 1749 00c2 0420     		movs	r0, #4
 1750 00c4 FFF7FEFF 		bl	etharp_free_entry
 1751              	.LVL220:
 1752 00c8 BEE7     		b	.L278
 1753              	.LVL221:
 1754              	.L317:
 1755 00ca 0320     		movs	r0, #3
 1756 00cc FFF7FEFF 		bl	etharp_free_entry
 1757              	.LVL222:
 1758 00d0 B3E7     		b	.L277
 1759              	.LVL223:
 1760              	.L316:
 1761 00d2 0220     		movs	r0, #2
 1762 00d4 FFF7FEFF 		bl	etharp_free_entry
ARM GAS  C:\Users\jenny\AppData\Local\Temp\ccFzIZYt.s 			page 32


 1763              	.LVL224:
 1764 00d8 A8E7     		b	.L276
 1765              	.LVL225:
 1766              	.L315:
 1767 00da 0120     		movs	r0, #1
 1768 00dc FFF7FEFF 		bl	etharp_free_entry
 1769              	.LVL226:
 1770 00e0 9DE7     		b	.L275
 1771              	.LVL227:
 1772              	.L314:
 1773 00e2 0020     		movs	r0, #0
 1774 00e4 FFF7FEFF 		bl	etharp_free_entry
 1775              	.LVL228:
 1776 00e8 92E7     		b	.L274
 1777              	.L325:
 1778 00ea 00BF     		.align	2
 1779              	.L324:
 1780 00ec 00000000 		.word	.LANCHOR0
 1781              	.LBE13:
 1782              		.cfi_endproc
 1783              	.LFE12:
 1784              		.size	etharp_cleanup_netif, .-etharp_cleanup_netif
 1785              		.section	.text.etharp_find_addr,"ax",%progbits
 1786              		.align	2
 1787              		.p2align 4,,15
 1788              		.global	etharp_find_addr
 1789              		.thumb
 1790              		.thumb_func
 1791              		.type	etharp_find_addr, %function
 1792              	etharp_find_addr:
 1793              	.LFB13:
 1794              		.loc 1 605 0
 1795              		.cfi_startproc
 1796              		@ args = 0, pretend = 0, frame = 0
 1797              		@ frame_needed = 0, uses_anonymous_args = 0
 1798              	.LVL229:
 1799 0000 70B5     		push	{r4, r5, r6, lr}
 1800              	.LCFI6:
 1801              		.cfi_def_cfa_offset 16
 1802              		.cfi_offset 4, -16
 1803              		.cfi_offset 5, -12
 1804              		.cfi_offset 6, -8
 1805              		.cfi_offset 14, -4
 1806              		.loc 1 608 0
 1807 0002 1446     		mov	r4, r2
 1808              		.loc 1 605 0
 1809 0004 0D46     		mov	r5, r1
 1810 0006 1E46     		mov	r6, r3
 1811              		.loc 1 608 0
 1812 0008 AAB1     		cbz	r2, .L327
 1813              		.loc 1 608 0 is_stmt 0 discriminator 2
 1814 000a A3B1     		cbz	r3, .L327
 1815              	.LVL230:
 1816              	.L328:
 1817              		.loc 1 613 0 is_stmt 1
 1818 000c 0221     		movs	r1, #2
 1819 000e 2846     		mov	r0, r5
ARM GAS  C:\Users\jenny\AppData\Local\Temp\ccFzIZYt.s 			page 33


 1820 0010 FFF7FEFF 		bl	etharp_find_entry
 1821              	.LVL231:
 1822              		.loc 1 614 0
 1823 0014 0028     		cmp	r0, #0
 1824              	.LVL232:
 1825 0016 11DB     		blt	.L331
 1826              		.loc 1 614 0 is_stmt 0 discriminator 1
 1827 0018 094D     		ldr	r5, .L335
 1828              	.LVL233:
 1829 001a 00EB8001 		add	r1, r0, r0, lsl #2
 1830 001e 8A00     		lsls	r2, r1, #2
 1831 0020 AA18     		adds	r2, r5, r2
 1832 0022 937C     		ldrb	r3, [r2, #18]	@ zero_extendqisi2
 1833 0024 012B     		cmp	r3, #1
 1834 0026 09D9     		bls	.L331
 1835              		.loc 1 615 0 is_stmt 1
 1836 0028 1146     		mov	r1, r2
 1837 002a 0C31     		adds	r1, r1, #12
 1838              		.loc 1 616 0
 1839 002c 0432     		adds	r2, r2, #4
 1840              		.loc 1 615 0
 1841 002e 2160     		str	r1, [r4, #0]
 1842              		.loc 1 616 0
 1843 0030 3260     		str	r2, [r6, #0]
 1844              	.L329:
 1845              		.loc 1 620 0
 1846 0032 40B2     		sxtb	r0, r0
 1847 0034 70BD     		pop	{r4, r5, r6, pc}
 1848              	.LVL234:
 1849              	.L327:
 1850              		.loc 1 608 0 discriminator 1
 1851 0036 FFF7FEFF 		bl	port_halt
 1852              	.LVL235:
 1853 003a E7E7     		b	.L328
 1854              	.LVL236:
 1855              	.L331:
 1856              		.loc 1 619 0
 1857 003c FF20     		movs	r0, #255
 1858 003e F8E7     		b	.L329
 1859              	.L336:
 1860              		.align	2
 1861              	.L335:
 1862 0040 00000000 		.word	.LANCHOR0
 1863              		.cfi_endproc
 1864              	.LFE13:
 1865              		.size	etharp_find_addr, .-etharp_find_addr
 1866 0044 AFF30080 		.section	.text.etharp_request,"ax",%progbits
 1866      AFF30080 
 1866      AFF30080 
 1867              		.align	2
 1868              		.p2align 4,,15
 1869              		.global	etharp_request
 1870              		.thumb
 1871              		.thumb_func
 1872              		.type	etharp_request, %function
 1873              	etharp_request:
 1874              	.LFB19:
ARM GAS  C:\Users\jenny\AppData\Local\Temp\ccFzIZYt.s 			page 34


 1875              		.loc 1 1260 0
 1876              		.cfi_startproc
 1877              		@ args = 0, pretend = 0, frame = 0
 1878              		@ frame_needed = 0, uses_anonymous_args = 0
 1879              	.LVL237:
 1880 0000 2DE9F843 		push	{r3, r4, r5, r6, r7, r8, r9, lr}
 1881              	.LCFI7:
 1882              		.cfi_def_cfa_offset 32
 1883              		.cfi_offset 3, -32
 1884              		.cfi_offset 4, -28
 1885              		.cfi_offset 5, -24
 1886              		.cfi_offset 6, -20
 1887              		.cfi_offset 7, -16
 1888              		.cfi_offset 8, -12
 1889              		.cfi_offset 9, -8
 1890              		.cfi_offset 14, -4
 1891              		.loc 1 1260 0
 1892 0004 0546     		mov	r5, r0
 1893 0006 8846     		mov	r8, r1
 1894              		.loc 1 1263 0
 1895 0008 00F12307 		add	r7, r0, #35
 1896 000c 00F10409 		add	r9, r0, #4
 1897              	.LVL238:
 1898              	.LBB16:
 1899              	.LBB17:
 1900              		.loc 1 1189 0
 1901 0010 0028     		cmp	r0, #0
 1902 0012 51D0     		beq	.L346
 1903              	.LVL239:
 1904              	.L338:
 1905              		.loc 1 1192 0
 1906 0014 0320     		movs	r0, #3
 1907 0016 2A21     		movs	r1, #42
 1908 0018 0022     		movs	r2, #0
 1909 001a FFF7FEFF 		bl	pbuf_alloc
 1910              	.LVL240:
 1911              		.loc 1 1194 0
 1912 001e 0646     		mov	r6, r0
 1913 0020 0028     		cmp	r0, #0
 1914 0022 4CD0     		beq	.L347
 1915              		.loc 1 1200 0
 1916 0024 4389     		ldrh	r3, [r0, #10]
 1917 0026 292B     		cmp	r3, #41
 1918 0028 43D9     		bls	.L348
 1919              	.LVL241:
 1920              	.L341:
 1921              		.loc 1 1206 0
 1922 002a 0120     		movs	r0, #1
 1923              		.loc 1 1203 0
 1924 002c 7468     		ldr	r4, [r6, #4]
 1925              	.LVL242:
 1926              		.loc 1 1206 0
 1927 002e FFF7FEFF 		bl	lwip_htons
 1928              	.LVL243:
 1929 0032 A082     		strh	r0, [r4, #20]	@ unaligned
 1930              		.loc 1 1208 0
 1931 0034 95F82200 		ldrb	r0, [r5, #34]	@ zero_extendqisi2
ARM GAS  C:\Users\jenny\AppData\Local\Temp\ccFzIZYt.s 			page 35


 1932 0038 0628     		cmp	r0, #6
 1933 003a 01D0     		beq	.L342
 1934 003c FFF7FEFF 		bl	port_halt
 1935              	.LVL244:
 1936              	.L342:
 1937              	.LBE17:
 1938              		.loc 1 1262 0
 1939 0040 224A     		ldr	r2, .L349
 1940              	.LBB18:
 1941              		.loc 1 1217 0
 1942 0042 3968     		ldr	r1, [r7, #0]	@ unaligned
 1943              	.LBE18:
 1944              		.loc 1 1218 0
 1945 0044 1068     		ldr	r0, [r2, #0]	@ unaligned
 1946              		.loc 1 1262 0
 1947 0046 224B     		ldr	r3, .L349+4
 1948              	.LBB19:
 1949              		.loc 1 1217 0
 1950 0048 C4F81610 		str	r1, [r4, #22]	@ unaligned
 1951 004c B7F804E0 		ldrh	lr, [r7, #4]	@ unaligned
 1952              	.LBE19:
 1953              		.loc 1 1218 0
 1954 0050 9188     		ldrh	r1, [r2, #4]	@ unaligned
 1955 0052 2062     		str	r0, [r4, #32]	@ unaligned
 1956              		.loc 1 1223 0
 1957 0054 9A88     		ldrh	r2, [r3, #4]	@ unaligned
 1958 0056 1868     		ldr	r0, [r3, #0]	@ unaligned
 1959              	.LBB20:
 1960              		.loc 1 1217 0
 1961 0058 A4F81AE0 		strh	lr, [r4, #26]	@ unaligned
 1962              	.LBE20:
 1963              		.loc 1 1223 0
 1964 005c 2060     		str	r0, [r4, #0]	@ unaligned
 1965              		.loc 1 1218 0
 1966 005e A184     		strh	r1, [r4, #36]	@ unaligned
 1967              		.loc 1 1223 0
 1968 0060 A280     		strh	r2, [r4, #4]	@ unaligned
 1969              	.LBB21:
 1970              		.loc 1 1225 0
 1971 0062 3B68     		ldr	r3, [r7, #0]	@ unaligned
 1972 0064 C4F80630 		str	r3, [r4, #6]	@ unaligned
 1973 0068 B988     		ldrh	r1, [r7, #4]	@ unaligned
 1974 006a 6181     		strh	r1, [r4, #10]	@ unaligned
 1975              		.loc 1 1228 0
 1976 006c D9F80020 		ldr	r2, [r9, #0]	@ unaligned
 1977 0070 E261     		str	r2, [r4, #28]	@ unaligned
 1978              		.loc 1 1229 0
 1979 0072 D8F80000 		ldr	r0, [r8, #0]	@ unaligned
 1980              		.loc 1 1231 0
 1981 0076 0021     		movs	r1, #0
 1982              		.loc 1 1232 0
 1983 0078 0822     		movs	r2, #8
 1984              		.loc 1 1234 0
 1985 007a 0623     		movs	r3, #6
 1986              		.loc 1 1229 0
 1987 007c C4F82600 		str	r0, [r4, #38]	@ unaligned
 1988              		.loc 1 1231 0
ARM GAS  C:\Users\jenny\AppData\Local\Temp\ccFzIZYt.s 			page 36


 1989 0080 A173     		strb	r1, [r4, #14]
 1990              		.loc 1 1232 0
 1991 0082 6174     		strb	r1, [r4, #17]
 1992              		.loc 1 1231 0
 1993 0084 0120     		movs	r0, #1
 1994              		.loc 1 1235 0
 1995 0086 0421     		movs	r1, #4
 1996              		.loc 1 1231 0
 1997 0088 E073     		strb	r0, [r4, #15]
 1998              		.loc 1 1232 0
 1999 008a 2274     		strb	r2, [r4, #16]
 2000              		.loc 1 1234 0
 2001 008c A374     		strb	r3, [r4, #18]
 2002              		.loc 1 1235 0
 2003 008e E174     		strb	r1, [r4, #19]
 2004              		.loc 1 1237 0
 2005 0090 2273     		strb	r2, [r4, #12]
 2006 0092 6373     		strb	r3, [r4, #13]
 2007              		.loc 1 1239 0
 2008 0094 AC69     		ldr	r4, [r5, #24]
 2009              	.LVL245:
 2010 0096 3146     		mov	r1, r6
 2011 0098 2846     		mov	r0, r5
 2012 009a A047     		blx	r4
 2013              	.LVL246:
 2014              		.loc 1 1240 0
 2015 009c 0D4B     		ldr	r3, .L349+8
 2016 009e 1A8B     		ldrh	r2, [r3, #24]
 2017              		.loc 1 1239 0
 2018 00a0 0446     		mov	r4, r0
 2019              	.LVL247:
 2020              		.loc 1 1240 0
 2021 00a2 511C     		adds	r1, r2, #1
 2022              		.loc 1 1242 0
 2023 00a4 3046     		mov	r0, r6
 2024              	.LVL248:
 2025              		.loc 1 1240 0
 2026 00a6 1983     		strh	r1, [r3, #24]	@ movhi
 2027              		.loc 1 1242 0
 2028 00a8 FFF7FEFF 		bl	pbuf_free
 2029              	.LVL249:
 2030              	.L340:
 2031              	.LBE21:
 2032              	.LBE16:
 2033              		.loc 1 1265 0
 2034 00ac 60B2     		sxtb	r0, r4
 2035 00ae BDE8F883 		pop	{r3, r4, r5, r6, r7, r8, r9, pc}
 2036              	.LVL250:
 2037              	.L348:
 2038              	.LBB23:
 2039              	.LBB22:
 2040              		.loc 1 1200 0
 2041 00b2 FFF7FEFF 		bl	port_halt
 2042              	.LVL251:
 2043 00b6 B8E7     		b	.L341
 2044              	.LVL252:
 2045              	.L346:
ARM GAS  C:\Users\jenny\AppData\Local\Temp\ccFzIZYt.s 			page 37


 2046              		.loc 1 1189 0
 2047 00b8 FFF7FEFF 		bl	port_halt
 2048              	.LVL253:
 2049 00bc AAE7     		b	.L338
 2050              	.LVL254:
 2051              	.L347:
 2052              		.loc 1 1197 0
 2053 00be 0548     		ldr	r0, .L349+8
 2054              	.LVL255:
 2055 00c0 848C     		ldrh	r4, [r0, #36]
 2056 00c2 631C     		adds	r3, r4, #1
 2057 00c4 8384     		strh	r3, [r0, #36]	@ movhi
 2058              		.loc 1 1198 0
 2059 00c6 FF24     		movs	r4, #255
 2060 00c8 F0E7     		b	.L340
 2061              	.L350:
 2062 00ca 00BF     		.align	2
 2063              	.L349:
 2064 00cc 00000000 		.word	.LANCHOR1
 2065 00d0 00000000 		.word	.LANCHOR2
 2066 00d4 00000000 		.word	lwip_stats
 2067              	.LBE22:
 2068              	.LBE23:
 2069              		.cfi_endproc
 2070              	.LFE19:
 2071              		.size	etharp_request, .-etharp_request
 2072 00d8 AFF30080 		.section	.text.etharp_query,"ax",%progbits
 2072      AFF30080 
 2073              		.align	2
 2074              		.p2align 4,,15
 2075              		.global	etharp_query
 2076              		.thumb
 2077              		.thumb_func
 2078              		.type	etharp_query, %function
 2079              	etharp_query:
 2080              	.LFB17:
 2081              		.loc 1 1017 0
 2082              		.cfi_startproc
 2083              		@ args = 0, pretend = 0, frame = 0
 2084              		@ frame_needed = 0, uses_anonymous_args = 0
 2085              	.LVL256:
 2086 0000 2DE9F047 		push	{r4, r5, r6, r7, r8, r9, sl, lr}
 2087              	.LCFI8:
 2088              		.cfi_def_cfa_offset 32
 2089              		.cfi_offset 4, -32
 2090              		.cfi_offset 5, -28
 2091              		.cfi_offset 6, -24
 2092              		.cfi_offset 7, -20
 2093              		.cfi_offset 8, -16
 2094              		.cfi_offset 9, -12
 2095              		.cfi_offset 10, -8
 2096              		.cfi_offset 14, -4
 2097              		.loc 1 1017 0
 2098 0004 0C46     		mov	r4, r1
 2099 0006 0646     		mov	r6, r0
 2100              	.LVL257:
 2101              		.loc 1 1023 0
ARM GAS  C:\Users\jenny\AppData\Local\Temp\ccFzIZYt.s 			page 38


 2102 0008 0146     		mov	r1, r0
 2103              	.LVL258:
 2104 000a 2068     		ldr	r0, [r4, #0]
 2105              	.LVL259:
 2106              		.loc 1 1017 0
 2107 000c 1746     		mov	r7, r2
 2108              		.loc 1 1023 0
 2109 000e FFF7FEFF 		bl	ip4_addr_isbroadcast
 2110              	.LVL260:
 2111 0012 0028     		cmp	r0, #0
 2112 0014 49D1     		bne	.L372
 2113              		.loc 1 1024 0 discriminator 1
 2114 0016 2368     		ldr	r3, [r4, #0]
 2115 0018 03F0F002 		and	r2, r3, #240
 2116              		.loc 1 1023 0 discriminator 1
 2117 001c E02A     		cmp	r2, #224
 2118 001e 44D0     		beq	.L372
 2119              		.loc 1 1025 0
 2120 0020 002B     		cmp	r3, #0
 2121 0022 42D0     		beq	.L372
 2122              		.loc 1 1031 0
 2123 0024 0121     		movs	r1, #1
 2124 0026 2046     		mov	r0, r4
 2125 0028 FFF7FEFF 		bl	etharp_find_entry
 2126              	.LVL261:
 2127              		.loc 1 1034 0
 2128 002c 051E     		subs	r5, r0, #0
 2129 002e 33DB     		blt	.L397
 2130              		.loc 1 1044 0
 2131 0030 DFF80091 		ldr	r9, .L404+8
 2132 0034 4FEA8508 		lsl	r8, r5, #2
 2133 0038 08EB0500 		add	r0, r8, r5
 2134              	.LVL262:
 2135 003c 09EB8001 		add	r1, r9, r0, lsl #2
 2136 0040 8B7C     		ldrb	r3, [r1, #18]	@ zero_extendqisi2
 2137 0042 1031     		adds	r1, r1, #16
 2138 0044 3BB1     		cbz	r3, .L398
 2139              		.loc 1 1054 0
 2140 0046 012B     		cmp	r3, #1
 2141 0048 07D0     		beq	.L355
 2142              		.loc 1 1054 0 is_stmt 0 discriminator 1
 2143 004a 002F     		cmp	r7, #0
 2144 004c 31D0     		beq	.L399
 2145              		.loc 1 1071 0 is_stmt 1
 2146 004e 012B     		cmp	r3, #1
 2147 0050 0FD8     		bhi	.L366
 2148              		.loc 1 1019 0
 2149 0052 FF25     		movs	r5, #255
 2150 0054 1DE0     		b	.L352
 2151              	.L398:
 2152              		.loc 1 1045 0
 2153 0056 0122     		movs	r2, #1
 2154 0058 8A70     		strb	r2, [r1, #2]
 2155              	.L355:
 2156              		.loc 1 1056 0
 2157 005a 3046     		mov	r0, r6
 2158 005c 2146     		mov	r1, r4
ARM GAS  C:\Users\jenny\AppData\Local\Temp\ccFzIZYt.s 			page 39


 2159 005e FFF7FEFF 		bl	etharp_request
 2160              	.LVL263:
 2161              		.loc 1 1063 0
 2162 0062 AFB1     		cbz	r7, .L374
 2163              		.loc 1 1071 0
 2164 0064 08EB0501 		add	r1, r8, r5
 2165 0068 09EB8103 		add	r3, r9, r1, lsl #2
 2166 006c 9A7C     		ldrb	r2, [r3, #18]	@ zero_extendqisi2
 2167 006e 012A     		cmp	r2, #1
 2168 0070 0DD9     		bls	.L400
 2169              	.LVL264:
 2170              	.L366:
 2171              		.loc 1 1075 0
 2172 0072 A844     		add	r8, r8, r5
 2173 0074 09EB8803 		add	r3, r9, r8, lsl #2
 2174              		.loc 1 1073 0
 2175 0078 2C4C     		ldr	r4, .L404
 2176              	.LVL265:
 2177              		.loc 1 1075 0
 2178 007a 3046     		mov	r0, r6
 2179 007c 3946     		mov	r1, r7
 2180 007e 06F12302 		add	r2, r6, #35
 2181 0082 0C33     		adds	r3, r3, #12
 2182              		.loc 1 1073 0
 2183 0084 2570     		strb	r5, [r4, #0]
 2184              		.loc 1 1154 0
 2185 0086 BDE8F047 		pop	{r4, r5, r6, r7, r8, r9, sl, lr}
 2186              		.loc 1 1075 0
 2187 008a FFF7FEBF 		b	etharp_send_ip
 2188              	.LVL266:
 2189              	.L400:
 2190              		.loc 1 1077 0
 2191 008e 16D0     		beq	.L401
 2192              	.L374:
 2193              		.loc 1 1056 0
 2194 0090 0546     		mov	r5, r0
 2195              	.LVL267:
 2196              	.L352:
 2197 0092 68B2     		sxtb	r0, r5
 2198 0094 BDE8F087 		pop	{r4, r5, r6, r7, r8, r9, sl, pc}
 2199              	.LVL268:
 2200              	.L397:
 2201              		.loc 1 1036 0
 2202 0098 002F     		cmp	r7, #0
 2203 009a FAD0     		beq	.L352
 2204              		.loc 1 1038 0
 2205 009c 2448     		ldr	r0, .L404+4
 2206              	.LVL269:
 2207 009e 828C     		ldrh	r2, [r0, #36]
 2208 00a0 511C     		adds	r1, r2, #1
 2209 00a2 8184     		strh	r1, [r0, #36]	@ movhi
 2210 00a4 68B2     		sxtb	r0, r5
 2211 00a6 BDE8F087 		pop	{r4, r5, r6, r7, r8, r9, sl, pc}
 2212              	.L372:
 2213              		.loc 1 1027 0
 2214 00aa F225     		movs	r5, #242
 2215 00ac 68B2     		sxtb	r0, r5
ARM GAS  C:\Users\jenny\AppData\Local\Temp\ccFzIZYt.s 			page 40


 2216 00ae BDE8F087 		pop	{r4, r5, r6, r7, r8, r9, sl, pc}
 2217              	.L399:
 2218              		.loc 1 1056 0
 2219 00b2 3046     		mov	r0, r6
 2220 00b4 2146     		mov	r1, r4
 2221              		.loc 1 1154 0
 2222 00b6 BDE8F047 		pop	{r4, r5, r6, r7, r8, r9, sl, lr}
 2223              		.loc 1 1056 0
 2224 00ba FFF7FEBF 		b	etharp_request
 2225              	.LVL270:
 2226              	.L401:
 2227              		.loc 1 1077 0
 2228 00be 3C46     		mov	r4, r7
 2229              	.LVL271:
 2230 00c0 04E0     		b	.L361
 2231              	.LVL272:
 2232              	.L359:
 2233              	.LBB24:
 2234              		.loc 1 1087 0
 2235 00c2 227B     		ldrb	r2, [r4, #12]	@ zero_extendqisi2
 2236 00c4 012A     		cmp	r2, #1
 2237 00c6 0BD1     		bne	.L360
 2238              		.loc 1 1091 0
 2239 00c8 2468     		ldr	r4, [r4, #0]
 2240              	.LVL273:
 2241              		.loc 1 1085 0
 2242 00ca 04B3     		cbz	r4, .L402
 2243              	.LVL274:
 2244              	.L361:
 2245              		.loc 1 1086 0
 2246 00cc 6089     		ldrh	r0, [r4, #10]
 2247 00ce 2189     		ldrh	r1, [r4, #8]
 2248 00d0 8842     		cmp	r0, r1
 2249 00d2 F6D1     		bne	.L359
 2250              		.loc 1 1086 0 is_stmt 0 discriminator 1
 2251 00d4 2368     		ldr	r3, [r4, #0]
 2252 00d6 002B     		cmp	r3, #0
 2253 00d8 F3D0     		beq	.L359
 2254              		.loc 1 1086 0 discriminator 2
 2255 00da FFF7FEFF 		bl	port_halt
 2256              	.LVL275:
 2257 00de F0E7     		b	.L359
 2258              	.L360:
 2259              	.LVL276:
 2260              		.loc 1 1095 0 is_stmt 1
 2261 00e0 2189     		ldrh	r1, [r4, #8]
 2262 00e2 0320     		movs	r0, #3
 2263 00e4 0022     		movs	r2, #0
 2264 00e6 FFF7FEFF 		bl	pbuf_alloc
 2265              	.LVL277:
 2266              		.loc 1 1096 0
 2267 00ea 0446     		mov	r4, r0
 2268 00ec B8B1     		cbz	r0, .L364
 2269              		.loc 1 1097 0
 2270 00ee 3946     		mov	r1, r7
 2271 00f0 FFF7FEFF 		bl	pbuf_copy
 2272              	.LVL278:
ARM GAS  C:\Users\jenny\AppData\Local\Temp\ccFzIZYt.s 			page 41


 2273 00f4 80B9     		cbnz	r0, .L403
 2274              	.LVL279:
 2275              	.L363:
 2276              		.loc 1 1139 0
 2277 00f6 08EB0500 		add	r0, r8, r5
 2278 00fa 59F82000 		ldr	r0, [r9, r0, lsl #2]
 2279 00fe 08B1     		cbz	r0, .L365
 2280              		.loc 1 1141 0
 2281 0100 FFF7FEFF 		bl	pbuf_free
 2282              	.LVL280:
 2283              	.L365:
 2284              		.loc 1 1143 0
 2285 0104 A844     		add	r8, r8, r5
 2286              		.loc 1 1144 0
 2287 0106 0025     		movs	r5, #0
 2288              		.loc 1 1143 0
 2289 0108 49F82840 		str	r4, [r9, r8, lsl #2]
 2290              	.LVL281:
 2291 010c C1E7     		b	.L352
 2292              	.LVL282:
 2293              	.L402:
 2294              		.loc 1 1105 0
 2295 010e 3846     		mov	r0, r7
 2296 0110 FFF7FEFF 		bl	pbuf_ref
 2297              	.LVL283:
 2298 0114 3C46     		mov	r4, r7
 2299 0116 EEE7     		b	.L363
 2300              	.LVL284:
 2301              	.L403:
 2302              		.loc 1 1098 0
 2303 0118 2046     		mov	r0, r4
 2304 011a FFF7FEFF 		bl	pbuf_free
 2305              	.LVL285:
 2306              	.L364:
 2307              		.loc 1 1148 0
 2308 011e 044D     		ldr	r5, .L404+4
 2309 0120 A98C     		ldrh	r1, [r5, #36]
 2310 0122 4B1C     		adds	r3, r1, #1
 2311 0124 AB84     		strh	r3, [r5, #36]	@ movhi
 2312              	.LVL286:
 2313              		.loc 1 1150 0
 2314 0126 FF25     		movs	r5, #255
 2315 0128 B3E7     		b	.L352
 2316              	.L405:
 2317 012a 00BF     		.align	2
 2318              	.L404:
 2319 012c 00000000 		.word	.LANCHOR3
 2320 0130 00000000 		.word	lwip_stats
 2321 0134 00000000 		.word	.LANCHOR0
 2322              	.LBE24:
 2323              		.cfi_endproc
 2324              	.LFE17:
 2325              		.size	etharp_query, .-etharp_query
 2326 0138 AFF30080 		.section	.text.etharp_output_to_arp_index,"ax",%progbits
 2326      AFF30080 
 2327              		.align	2
 2328              		.p2align 4,,15
ARM GAS  C:\Users\jenny\AppData\Local\Temp\ccFzIZYt.s 			page 42


 2329              		.thumb
 2330              		.thumb_func
 2331              		.type	etharp_output_to_arp_index, %function
 2332              	etharp_output_to_arp_index:
 2333              	.LFB15:
 2334              		.loc 1 843 0
 2335              		.cfi_startproc
 2336              		@ args = 0, pretend = 0, frame = 0
 2337              		@ frame_needed = 0, uses_anonymous_args = 0
 2338              	.LVL287:
 2339 0000 2DE9F047 		push	{r4, r5, r6, r7, r8, r9, sl, lr}
 2340              	.LCFI9:
 2341              		.cfi_def_cfa_offset 32
 2342              		.cfi_offset 4, -32
 2343              		.cfi_offset 5, -28
 2344              		.cfi_offset 6, -24
 2345              		.cfi_offset 7, -20
 2346              		.cfi_offset 8, -16
 2347              		.cfi_offset 9, -12
 2348              		.cfi_offset 10, -8
 2349              		.cfi_offset 14, -4
 2350              		.loc 1 844 0
 2351 0004 9600     		lsls	r6, r2, #2
 2352 0006 194D     		ldr	r5, .L413
 2353 0008 06EB0208 		add	r8, r6, r2
 2354              		.loc 1 843 0
 2355 000c 1446     		mov	r4, r2
 2356              		.loc 1 844 0
 2357 000e 05EB8802 		add	r2, r5, r8, lsl #2
 2358              	.LVL288:
 2359              		.loc 1 843 0
 2360 0012 0746     		mov	r7, r0
 2361              		.loc 1 844 0
 2362 0014 937C     		ldrb	r3, [r2, #18]	@ zero_extendqisi2
 2363 0016 012B     		cmp	r3, #1
 2364 0018 02F11008 		add	r8, r2, #16
 2365              		.loc 1 843 0
 2366 001c 8946     		mov	r9, r1
 2367              		.loc 1 844 0
 2368 001e 1FD9     		bls	.L411
 2369              	.LVL289:
 2370              	.L407:
 2371              		.loc 1 849 0
 2372 0020 022B     		cmp	r3, #2
 2373 0022 0BD0     		beq	.L412
 2374              	.L409:
 2375              		.loc 1 856 0
 2376 0024 3419     		adds	r4, r6, r4
 2377 0026 05EB8403 		add	r3, r5, r4, lsl #2
 2378 002a 3846     		mov	r0, r7
 2379 002c 4946     		mov	r1, r9
 2380 002e 07F12302 		add	r2, r7, #35
 2381 0032 0C33     		adds	r3, r3, #12
 2382              		.loc 1 858 0
 2383 0034 BDE8F047 		pop	{r4, r5, r6, r7, r8, r9, sl, lr}
 2384              		.loc 1 856 0
 2385 0038 FFF7FEBF 		b	etharp_send_ip
ARM GAS  C:\Users\jenny\AppData\Local\Temp\ccFzIZYt.s 			page 43


 2386              	.LVL290:
 2387              	.L412:
 2388              		.loc 1 850 0 discriminator 1
 2389 003c 3119     		adds	r1, r6, r4
 2390 003e 05EB8102 		add	r2, r5, r1, lsl #2
 2391 0042 02F11008 		add	r8, r2, #16
 2392              		.loc 1 849 0 discriminator 1
 2393 0046 D07C     		ldrb	r0, [r2, #19]	@ zero_extendqisi2
 2394 0048 E328     		cmp	r0, #227
 2395 004a EBD9     		bls	.L409
 2396              		.loc 1 851 0
 2397 004c 3846     		mov	r0, r7
 2398 004e 111D     		adds	r1, r2, #4
 2399 0050 FFF7FEFF 		bl	etharp_request
 2400              	.LVL291:
 2401 0054 0028     		cmp	r0, #0
 2402 0056 E5D1     		bne	.L409
 2403              		.loc 1 852 0
 2404 0058 0323     		movs	r3, #3
 2405 005a 88F80230 		strb	r3, [r8, #2]
 2406 005e E1E7     		b	.L409
 2407              	.LVL292:
 2408              	.L411:
 2409              		.loc 1 844 0 discriminator 1
 2410 0060 FFF7FEFF 		bl	port_halt
 2411              	.LVL293:
 2412 0064 98F80230 		ldrb	r3, [r8, #2]	@ zero_extendqisi2
 2413 0068 DAE7     		b	.L407
 2414              	.L414:
 2415 006a 00BF     		.align	2
 2416              	.L413:
 2417 006c 00000000 		.word	.LANCHOR0
 2418              		.cfi_endproc
 2419              	.LFE15:
 2420              		.size	etharp_output_to_arp_index, .-etharp_output_to_arp_index
 2421              		.section	.text.etharp_output,"ax",%progbits
 2422              		.align	2
 2423              		.p2align 4,,15
 2424              		.global	etharp_output
 2425              		.thumb
 2426              		.thumb_func
 2427              		.type	etharp_output, %function
 2428              	etharp_output:
 2429              	.LFB16:
 2430              		.loc 1 880 0
 2431              		.cfi_startproc
 2432              		@ args = 0, pretend = 0, frame = 8
 2433              		@ frame_needed = 0, uses_anonymous_args = 0
 2434              	.LVL294:
 2435 0000 F0B5     		push	{r4, r5, r6, r7, lr}
 2436              	.LCFI10:
 2437              		.cfi_def_cfa_offset 20
 2438              		.cfi_offset 4, -20
 2439              		.cfi_offset 5, -16
 2440              		.cfi_offset 6, -12
 2441              		.cfi_offset 7, -8
 2442              		.cfi_offset 14, -4
ARM GAS  C:\Users\jenny\AppData\Local\Temp\ccFzIZYt.s 			page 44


 2443              		.loc 1 885 0
 2444 0002 0446     		mov	r4, r0
 2445              		.loc 1 880 0
 2446 0004 83B0     		sub	sp, sp, #12
 2447              	.LCFI11:
 2448              		.cfi_def_cfa_offset 32
 2449              		.loc 1 880 0
 2450 0006 0E46     		mov	r6, r1
 2451 0008 1546     		mov	r5, r2
 2452              	.LVL295:
 2453              		.loc 1 885 0
 2454 000a 0028     		cmp	r0, #0
 2455 000c 00F0BF80 		beq	.L451
 2456              		.loc 1 886 0
 2457 0010 002E     		cmp	r6, #0
 2458 0012 00F0C180 		beq	.L452
 2459              	.LVL296:
 2460              	.L417:
 2461              		.loc 1 887 0
 2462 0016 002D     		cmp	r5, #0
 2463 0018 00F0C780 		beq	.L453
 2464              	.L418:
 2465              		.loc 1 890 0
 2466 001c 3046     		mov	r0, r6
 2467 001e 0E21     		movs	r1, #14
 2468 0020 FFF7FEFF 		bl	pbuf_header
 2469              	.LVL297:
 2470 0024 0028     		cmp	r0, #0
 2471 0026 40F0BA80 		bne	.L454
 2472              		.loc 1 902 0
 2473 002a 2868     		ldr	r0, [r5, #0]
 2474 002c 2146     		mov	r1, r4
 2475 002e FFF7FEFF 		bl	ip4_addr_isbroadcast
 2476              	.LVL298:
 2477 0032 0028     		cmp	r0, #0
 2478 0034 40F08E80 		bne	.L438
 2479              		.loc 1 906 0
 2480 0038 2B68     		ldr	r3, [r5, #0]
 2481 003a 03F0F002 		and	r2, r3, #240
 2482 003e E02A     		cmp	r2, #224
 2483 0040 00F09080 		beq	.L455
 2484              	.LBB25:
 2485              		.loc 1 921 0
 2486 0044 6168     		ldr	r1, [r4, #4]
 2487 0046 A068     		ldr	r0, [r4, #8]
 2488 0048 83EA0102 		eor	r2, r3, r1
 2489 004c 0242     		tst	r2, r0
 2490 004e 0AD0     		beq	.L440
 2491              		.loc 1 922 0 discriminator 1
 2492 0050 9BB2     		uxth	r3, r3
 2493              		.loc 1 921 0 discriminator 1
 2494 0052 4FF6A961 		movw	r1, #65193
 2495 0056 8B42     		cmp	r3, r1
 2496 0058 05D0     		beq	.L440
 2497              		.loc 1 934 0
 2498 005a E068     		ldr	r0, [r4, #12]
 2499 005c 04F10C01 		add	r1, r4, #12
ARM GAS  C:\Users\jenny\AppData\Local\Temp\ccFzIZYt.s 			page 45


 2500 0060 10B9     		cbnz	r0, .L423
 2501              		.loc 1 940 0
 2502 0062 FC20     		movs	r0, #252
 2503 0064 73E0     		b	.L420
 2504              	.L440:
 2505              		.loc 1 921 0
 2506 0066 2946     		mov	r1, r5
 2507              	.L423:
 2508              	.LVL299:
 2509              		.loc 1 950 0
 2510 0068 634D     		ldr	r5, .L457
 2511              	.LVL300:
 2512 006a 644B     		ldr	r3, .L457+4
 2513 006c 2A78     		ldrb	r2, [r5, #0]	@ zero_extendqisi2
 2514 006e 02EB8207 		add	r7, r2, r2, lsl #2
 2515 0072 03EB8700 		add	r0, r3, r7, lsl #2
 2516 0076 877C     		ldrb	r7, [r0, #18]	@ zero_extendqisi2
 2517 0078 012F     		cmp	r7, #1
 2518 007a 04D9     		bls	.L424
 2519              		.loc 1 950 0 is_stmt 0 discriminator 1
 2520 007c 0F68     		ldr	r7, [r1, #0]
 2521 007e 4068     		ldr	r0, [r0, #4]
 2522 0080 8742     		cmp	r7, r0
 2523 0082 00F09580 		beq	.L425
 2524              	.L424:
 2525              		.loc 1 964 0 is_stmt 1
 2526 0086 9A7C     		ldrb	r2, [r3, #18]	@ zero_extendqisi2
 2527 0088 012A     		cmp	r2, #1
 2528 008a 05D9     		bls	.L426
 2529 008c 5B48     		ldr	r0, .L457+4
 2530 008e 0A68     		ldr	r2, [r1, #0]
 2531 0090 4068     		ldr	r0, [r0, #4]
 2532 0092 8242     		cmp	r2, r0
 2533 0094 00F09580 		beq	.L442
 2534              	.L426:
 2535              	.LVL301:
 2536 0098 93F82620 		ldrb	r2, [r3, #38]	@ zero_extendqisi2
 2537 009c 012A     		cmp	r2, #1
 2538 009e 05D9     		bls	.L428
 2539 00a0 5648     		ldr	r0, .L457+4
 2540 00a2 0A68     		ldr	r2, [r1, #0]
 2541 00a4 8069     		ldr	r0, [r0, #24]
 2542 00a6 8242     		cmp	r2, r0
 2543 00a8 00F09480 		beq	.L443
 2544              	.L428:
 2545              	.LVL302:
 2546 00ac 93F83A20 		ldrb	r2, [r3, #58]	@ zero_extendqisi2
 2547 00b0 012A     		cmp	r2, #1
 2548 00b2 05D9     		bls	.L429
 2549 00b4 5148     		ldr	r0, .L457+4
 2550 00b6 0A68     		ldr	r2, [r1, #0]
 2551 00b8 C06A     		ldr	r0, [r0, #44]
 2552 00ba 8242     		cmp	r2, r0
 2553 00bc 00F08C80 		beq	.L444
 2554              	.L429:
 2555              	.LVL303:
 2556 00c0 93F84E20 		ldrb	r2, [r3, #78]	@ zero_extendqisi2
ARM GAS  C:\Users\jenny\AppData\Local\Temp\ccFzIZYt.s 			page 46


 2557 00c4 012A     		cmp	r2, #1
 2558 00c6 05D9     		bls	.L430
 2559 00c8 4C48     		ldr	r0, .L457+4
 2560 00ca 0A68     		ldr	r2, [r1, #0]
 2561 00cc 006C     		ldr	r0, [r0, #64]
 2562 00ce 8242     		cmp	r2, r0
 2563 00d0 00F08480 		beq	.L445
 2564              	.L430:
 2565              	.LVL304:
 2566 00d4 93F86220 		ldrb	r2, [r3, #98]	@ zero_extendqisi2
 2567 00d8 012A     		cmp	r2, #1
 2568 00da 04D9     		bls	.L431
 2569 00dc 4748     		ldr	r0, .L457+4
 2570 00de 0A68     		ldr	r2, [r1, #0]
 2571 00e0 406D     		ldr	r0, [r0, #84]
 2572 00e2 8242     		cmp	r2, r0
 2573 00e4 7CD0     		beq	.L446
 2574              	.L431:
 2575              	.LVL305:
 2576 00e6 93F87620 		ldrb	r2, [r3, #118]	@ zero_extendqisi2
 2577 00ea 012A     		cmp	r2, #1
 2578 00ec 04D9     		bls	.L432
 2579 00ee 4348     		ldr	r0, .L457+4
 2580 00f0 0A68     		ldr	r2, [r1, #0]
 2581 00f2 806E     		ldr	r0, [r0, #104]
 2582 00f4 8242     		cmp	r2, r0
 2583 00f6 75D0     		beq	.L447
 2584              	.L432:
 2585              	.LVL306:
 2586 00f8 93F88A20 		ldrb	r2, [r3, #138]	@ zero_extendqisi2
 2587 00fc 012A     		cmp	r2, #1
 2588 00fe 04D9     		bls	.L433
 2589 0100 3E48     		ldr	r0, .L457+4
 2590 0102 0A68     		ldr	r2, [r1, #0]
 2591 0104 C06F     		ldr	r0, [r0, #124]
 2592 0106 8242     		cmp	r2, r0
 2593 0108 6ED0     		beq	.L448
 2594              	.L433:
 2595              	.LVL307:
 2596 010a 93F89E20 		ldrb	r2, [r3, #158]	@ zero_extendqisi2
 2597 010e 012A     		cmp	r2, #1
 2598 0110 05D9     		bls	.L434
 2599 0112 3A48     		ldr	r0, .L457+4
 2600 0114 0A68     		ldr	r2, [r1, #0]
 2601 0116 D0F89000 		ldr	r0, [r0, #144]
 2602 011a 8242     		cmp	r2, r0
 2603 011c 66D0     		beq	.L449
 2604              	.L434:
 2605              	.LVL308:
 2606 011e 93F8B220 		ldrb	r2, [r3, #178]	@ zero_extendqisi2
 2607 0122 012A     		cmp	r2, #1
 2608 0124 05D9     		bls	.L435
 2609 0126 3548     		ldr	r0, .L457+4
 2610 0128 0A68     		ldr	r2, [r1, #0]
 2611 012a D0F8A400 		ldr	r0, [r0, #164]
 2612 012e 8242     		cmp	r2, r0
 2613 0130 5ED0     		beq	.L450
ARM GAS  C:\Users\jenny\AppData\Local\Temp\ccFzIZYt.s 			page 47


 2614              	.L435:
 2615              	.LVL309:
 2616 0132 93F8C630 		ldrb	r3, [r3, #198]	@ zero_extendqisi2
 2617 0136 012B     		cmp	r3, #1
 2618 0138 05D9     		bls	.L437
 2619              		.loc 1 964 0 is_stmt 0 discriminator 1
 2620 013a 304A     		ldr	r2, .L457+4
 2621 013c 0868     		ldr	r0, [r1, #0]
 2622 013e D2F8B830 		ldr	r3, [r2, #184]
 2623 0142 9842     		cmp	r0, r3
 2624 0144 56D0     		beq	.L456
 2625              	.L437:
 2626              	.LVL310:
 2627              		.loc 1 973 0 is_stmt 1
 2628 0146 2046     		mov	r0, r4
 2629 0148 3246     		mov	r2, r6
 2630 014a FFF7FEFF 		bl	etharp_query
 2631              	.LVL311:
 2632              	.L420:
 2633              	.LBE25:
 2634              		.loc 1 980 0
 2635 014e 40B2     		sxtb	r0, r0
 2636 0150 03B0     		add	sp, sp, #12
 2637 0152 F0BD     		pop	{r4, r5, r6, r7, pc}
 2638              	.LVL312:
 2639              	.L438:
 2640              		.loc 1 904 0
 2641 0154 2A4B     		ldr	r3, .L457+8
 2642              	.L421:
 2643              	.LVL313:
 2644              		.loc 1 979 0
 2645 0156 2046     		mov	r0, r4
 2646 0158 3146     		mov	r1, r6
 2647 015a 04F12302 		add	r2, r4, #35
 2648 015e FFF7FEFF 		bl	etharp_send_ip
 2649              	.LVL314:
 2650 0162 F4E7     		b	.L420
 2651              	.L455:
 2652              		.loc 1 911 0
 2653 0164 6978     		ldrb	r1, [r5, #1]	@ zero_extendqisi2
 2654              		.loc 1 913 0
 2655 0166 EB78     		ldrb	r3, [r5, #3]	@ zero_extendqisi2
 2656              		.loc 1 912 0
 2657 0168 AA78     		ldrb	r2, [r5, #2]	@ zero_extendqisi2
 2658              		.loc 1 909 0
 2659 016a 8DF80100 		strb	r0, [sp, #1]
 2660              		.loc 1 908 0
 2661 016e 0120     		movs	r0, #1
 2662              		.loc 1 911 0
 2663 0170 01F07F01 		and	r1, r1, #127
 2664              		.loc 1 908 0
 2665 0174 8DF80000 		strb	r0, [sp, #0]
 2666              		.loc 1 910 0
 2667 0178 5E20     		movs	r0, #94
 2668              		.loc 1 913 0
 2669 017a 8DF80530 		strb	r3, [sp, #5]
 2670              	.LVL315:
ARM GAS  C:\Users\jenny\AppData\Local\Temp\ccFzIZYt.s 			page 48


 2671              		.loc 1 910 0
 2672 017e 8DF80200 		strb	r0, [sp, #2]
 2673              		.loc 1 911 0
 2674 0182 8DF80310 		strb	r1, [sp, #3]
 2675              		.loc 1 912 0
 2676 0186 8DF80420 		strb	r2, [sp, #4]
 2677              		.loc 1 915 0
 2678 018a 6B46     		mov	r3, sp
 2679 018c E3E7     		b	.L421
 2680              	.LVL316:
 2681              	.L451:
 2682              		.loc 1 885 0 discriminator 1
 2683 018e FFF7FEFF 		bl	port_halt
 2684              	.LVL317:
 2685              		.loc 1 886 0 discriminator 1
 2686 0192 002E     		cmp	r6, #0
 2687 0194 7FF43FAF 		bne	.L417
 2688              	.L452:
 2689 0198 FFF7FEFF 		bl	port_halt
 2690              	.LVL318:
 2691 019c 3BE7     		b	.L417
 2692              	.L454:
 2693              		.loc 1 894 0
 2694 019e 194B     		ldr	r3, .L457+12
 2695 01a0 5A89     		ldrh	r2, [r3, #10]
 2696 01a2 511C     		adds	r1, r2, #1
 2697 01a4 5981     		strh	r1, [r3, #10]	@ movhi
 2698              		.loc 1 895 0
 2699 01a6 FE20     		movs	r0, #254
 2700 01a8 D1E7     		b	.L420
 2701              	.L453:
 2702              		.loc 1 887 0 discriminator 1
 2703 01aa FFF7FEFF 		bl	port_halt
 2704              	.LVL319:
 2705 01ae 35E7     		b	.L418
 2706              	.LVL320:
 2707              	.L425:
 2708              	.LBB26:
 2709              		.loc 1 953 0
 2710 01b0 144B     		ldr	r3, .L457+12
 2711 01b2 D98D     		ldrh	r1, [r3, #46]
 2712              	.LVL321:
 2713              		.loc 1 954 0
 2714 01b4 2046     		mov	r0, r4
 2715              		.loc 1 953 0
 2716 01b6 4C1C     		adds	r4, r1, #1
 2717              	.LVL322:
 2718              		.loc 1 954 0
 2719 01b8 3146     		mov	r1, r6
 2720              		.loc 1 953 0
 2721 01ba DC85     		strh	r4, [r3, #46]	@ movhi
 2722              		.loc 1 954 0
 2723 01bc FFF7FEFF 		bl	etharp_output_to_arp_index
 2724              	.LVL323:
 2725 01c0 C5E7     		b	.L420
 2726              	.LVL324:
 2727              	.L442:
ARM GAS  C:\Users\jenny\AppData\Local\Temp\ccFzIZYt.s 			page 49


 2728              		.loc 1 964 0
 2729 01c2 0021     		movs	r1, #0
 2730              	.LVL325:
 2731              	.L427:
 2732              		.loc 1 967 0
 2733 01c4 CBB2     		uxtb	r3, r1
 2734              		.loc 1 968 0
 2735 01c6 2046     		mov	r0, r4
 2736 01c8 3146     		mov	r1, r6
 2737 01ca 1A46     		mov	r2, r3
 2738              		.loc 1 967 0
 2739 01cc 2B70     		strb	r3, [r5, #0]
 2740              		.loc 1 968 0
 2741 01ce FFF7FEFF 		bl	etharp_output_to_arp_index
 2742              	.LVL326:
 2743 01d2 BCE7     		b	.L420
 2744              	.LVL327:
 2745              	.L443:
 2746              		.loc 1 963 0
 2747 01d4 0121     		movs	r1, #1
 2748              	.LVL328:
 2749 01d6 F5E7     		b	.L427
 2750              	.LVL329:
 2751              	.L444:
 2752 01d8 0221     		movs	r1, #2
 2753              	.LVL330:
 2754 01da F3E7     		b	.L427
 2755              	.LVL331:
 2756              	.L445:
 2757 01dc 0321     		movs	r1, #3
 2758              	.LVL332:
 2759 01de F1E7     		b	.L427
 2760              	.LVL333:
 2761              	.L446:
 2762 01e0 0421     		movs	r1, #4
 2763              	.LVL334:
 2764 01e2 EFE7     		b	.L427
 2765              	.LVL335:
 2766              	.L447:
 2767 01e4 0521     		movs	r1, #5
 2768              	.LVL336:
 2769 01e6 EDE7     		b	.L427
 2770              	.LVL337:
 2771              	.L448:
 2772 01e8 0621     		movs	r1, #6
 2773              	.LVL338:
 2774 01ea EBE7     		b	.L427
 2775              	.LVL339:
 2776              	.L449:
 2777 01ec 0721     		movs	r1, #7
 2778              	.LVL340:
 2779 01ee E9E7     		b	.L427
 2780              	.LVL341:
 2781              	.L450:
 2782 01f0 0821     		movs	r1, #8
 2783              	.LVL342:
 2784 01f2 E7E7     		b	.L427
ARM GAS  C:\Users\jenny\AppData\Local\Temp\ccFzIZYt.s 			page 50


 2785              	.LVL343:
 2786              	.L456:
 2787              		.loc 1 964 0
 2788 01f4 0921     		movs	r1, #9
 2789              	.LVL344:
 2790 01f6 E5E7     		b	.L427
 2791              	.L458:
 2792              		.align	2
 2793              	.L457:
 2794 01f8 00000000 		.word	.LANCHOR3
 2795 01fc 00000000 		.word	.LANCHOR0
 2796 0200 00000000 		.word	.LANCHOR2
 2797 0204 00000000 		.word	lwip_stats
 2798              	.LBE26:
 2799              		.cfi_endproc
 2800              	.LFE16:
 2801              		.size	etharp_output, .-etharp_output
 2802 0208 AFF30080 		.section	.text.ethernet_input,"ax",%progbits
 2802      AFF30080 
 2803              		.align	2
 2804              		.p2align 4,,15
 2805              		.global	ethernet_input
 2806              		.thumb
 2807              		.thumb_func
 2808              		.type	ethernet_input, %function
 2809              	ethernet_input:
 2810              	.LFB20:
 2811              		.loc 1 1278 0
 2812              		.cfi_startproc
 2813              		@ args = 0, pretend = 0, frame = 24
 2814              		@ frame_needed = 0, uses_anonymous_args = 0
 2815              	.LVL345:
 2816 0000 2DE9F04F 		push	{r4, r5, r6, r7, r8, r9, sl, fp, lr}
 2817              	.LCFI12:
 2818              		.cfi_def_cfa_offset 36
 2819              		.cfi_offset 4, -36
 2820              		.cfi_offset 5, -32
 2821              		.cfi_offset 6, -28
 2822              		.cfi_offset 7, -24
 2823              		.cfi_offset 8, -20
 2824              		.cfi_offset 9, -16
 2825              		.cfi_offset 10, -12
 2826              		.cfi_offset 11, -8
 2827              		.cfi_offset 14, -4
 2828              		.loc 1 1285 0
 2829 0004 4789     		ldrh	r7, [r0, #10]
 2830 0006 0E2F     		cmp	r7, #14
 2831              		.loc 1 1278 0
 2832 0008 87B0     		sub	sp, sp, #28
 2833              	.LCFI13:
 2834              		.cfi_def_cfa_offset 64
 2835              		.loc 1 1278 0
 2836 000a 0446     		mov	r4, r0
 2837 000c 0E46     		mov	r6, r1
 2838              		.loc 1 1285 0
 2839 000e 17D9     		bls	.L511
 2840              		.loc 1 1293 0
ARM GAS  C:\Users\jenny\AppData\Local\Temp\ccFzIZYt.s 			page 51


 2841 0010 4568     		ldr	r5, [r0, #4]
 2842              	.LVL346:
 2843              		.loc 1 1332 0
 2844 0012 2B78     		ldrb	r3, [r5, #0]	@ zero_extendqisi2
 2845              		.loc 1 1302 0
 2846 0014 B5F80C80 		ldrh	r8, [r5, #12]	@ unaligned
 2847              	.LVL347:
 2848              		.loc 1 1332 0
 2849 0018 DA07     		lsls	r2, r3, #31
 2850 001a 0BD5     		bpl	.L462
 2851              		.loc 1 1334 0
 2852 001c 012B     		cmp	r3, #1
 2853 001e 48D0     		beq	.L514
 2854              		.loc 1 1340 0
 2855 0020 2846     		mov	r0, r5
 2856              	.LVL348:
 2857 0022 8149     		ldr	r1, .L518
 2858              	.LVL349:
 2859 0024 0622     		movs	r2, #6
 2860 0026 FFF7FEFF 		bl	memcmp
 2861              	.LVL350:
 2862 002a 18B9     		cbnz	r0, .L462
 2863              		.loc 1 1342 0
 2864 002c 607B     		ldrb	r0, [r4, #13]	@ zero_extendqisi2
 2865 002e 40F00801 		orr	r1, r0, #8
 2866 0032 6173     		strb	r1, [r4, #13]
 2867              	.L462:
 2868              		.loc 1 1346 0
 2869 0034 B8F1080F 		cmp	r8, #8
 2870 0038 10D0     		beq	.L465
 2871 003a B8F5C16F 		cmp	r8, #1544
 2872 003e 1DD0     		beq	.L515
 2873              	.LVL351:
 2874              	.L511:
 2875              		.loc 1 1386 0
 2876 0040 7A4B     		ldr	r3, .L518+4
 2877 0042 188D     		ldrh	r0, [r3, #40]
 2878              		.loc 1 1387 0
 2879 0044 DA8B     		ldrh	r2, [r3, #30]
 2880              		.loc 1 1386 0
 2881 0046 411C     		adds	r1, r0, #1
 2882              		.loc 1 1387 0
 2883 0048 501C     		adds	r0, r2, #1
 2884              		.loc 1 1386 0
 2885 004a 1985     		strh	r1, [r3, #40]	@ movhi
 2886              		.loc 1 1387 0
 2887 004c D883     		strh	r0, [r3, #30]	@ movhi
 2888              	.L461:
 2889              		.loc 1 1396 0
 2890 004e 2046     		mov	r0, r4
 2891 0050 FFF7FEFF 		bl	pbuf_free
 2892              	.LVL352:
 2893              	.L512:
 2894              		.loc 1 1398 0
 2895 0054 0020     		movs	r0, #0
 2896 0056 07B0     		add	sp, sp, #28
 2897 0058 BDE8F08F 		pop	{r4, r5, r6, r7, r8, r9, sl, fp, pc}
ARM GAS  C:\Users\jenny\AppData\Local\Temp\ccFzIZYt.s 			page 52


 2898              	.LVL353:
 2899              	.L465:
 2900              		.loc 1 1350 0
 2901 005c 96F82930 		ldrb	r3, [r6, #41]	@ zero_extendqisi2
 2902 0060 03F02000 		and	r0, r3, #32
 2903 0064 C1B2     		uxtb	r1, r0
 2904 0066 0029     		cmp	r1, #0
 2905 0068 F1D0     		beq	.L461
 2906              		.loc 1 1358 0
 2907 006a 2046     		mov	r0, r4
 2908 006c 6FF00D01 		mvn	r1, #13
 2909 0070 FFF7FEFF 		bl	pbuf_header
 2910              	.LVL354:
 2911 0074 40B3     		cbz	r0, .L467
 2912              		.loc 1 1359 0 discriminator 1
 2913 0076 FFF7FEFF 		bl	port_halt
 2914              	.LVL355:
 2915              		.loc 1 1360 0 discriminator 1
 2916 007a E8E7     		b	.L461
 2917              	.L515:
 2918              		.loc 1 1368 0
 2919 007c 96F82920 		ldrb	r2, [r6, #41]	@ zero_extendqisi2
 2920 0080 02F02003 		and	r3, r2, #32
 2921 0084 D8B2     		uxtb	r0, r3
 2922 0086 0028     		cmp	r0, #0
 2923 0088 E1D0     		beq	.L461
 2924              	.LVL356:
 2925              	.LBB32:
 2926              	.LBB33:
 2927              		.loc 1 703 0
 2928 008a 292F     		cmp	r7, #41
 2929 008c 21D9     		bls	.L516
 2930              	.LVL357:
 2931              		.loc 1 722 0
 2932 008e E989     		ldrh	r1, [r5, #14]	@ unaligned
 2933 0090 B1F5807F 		cmp	r1, #256
 2934 0094 02D1     		bne	.L471
 2935 0096 AA7C     		ldrb	r2, [r5, #18]	@ zero_extendqisi2
 2936 0098 062A     		cmp	r2, #6
 2937 009a 25D0     		beq	.L517
 2938              	.L471:
 2939              		.loc 1 729 0
 2940 009c 634B     		ldr	r3, .L518+4
 2941 009e 188D     		ldrh	r0, [r3, #40]
 2942              		.loc 1 730 0
 2943 00a0 DA8B     		ldrh	r2, [r3, #30]
 2944              		.loc 1 729 0
 2945 00a2 411C     		adds	r1, r0, #1
 2946              		.loc 1 730 0
 2947 00a4 0132     		adds	r2, r2, #1
 2948              		.loc 1 731 0
 2949 00a6 2046     		mov	r0, r4
 2950              		.loc 1 729 0
 2951 00a8 1985     		strh	r1, [r3, #40]	@ movhi
 2952              		.loc 1 730 0
 2953 00aa DA83     		strh	r2, [r3, #30]	@ movhi
 2954              		.loc 1 731 0
ARM GAS  C:\Users\jenny\AppData\Local\Temp\ccFzIZYt.s 			page 53


 2955 00ac FFF7FEFF 		bl	pbuf_free
 2956              	.LVL358:
 2957 00b0 D0E7     		b	.L512
 2958              	.LVL359:
 2959              	.L514:
 2960              	.LBE33:
 2961              	.LBE32:
 2962              		.loc 1 1335 0
 2963 00b2 6A78     		ldrb	r2, [r5, #1]	@ zero_extendqisi2
 2964 00b4 002A     		cmp	r2, #0
 2965 00b6 BDD1     		bne	.L462
 2966              		.loc 1 1335 0 is_stmt 0 discriminator 1
 2967 00b8 AB78     		ldrb	r3, [r5, #2]	@ zero_extendqisi2
 2968 00ba 5E2B     		cmp	r3, #94
 2969 00bc BAD1     		bne	.L462
 2970              		.loc 1 1338 0 is_stmt 1
 2971 00be 407B     		ldrb	r0, [r0, #13]	@ zero_extendqisi2
 2972              	.LVL360:
 2973 00c0 40F01001 		orr	r1, r0, #16
 2974              	.LVL361:
 2975 00c4 6173     		strb	r1, [r4, #13]
 2976 00c6 B5E7     		b	.L462
 2977              	.LVL362:
 2978              	.L467:
 2979              		.loc 1 1363 0
 2980 00c8 2046     		mov	r0, r4
 2981 00ca 3146     		mov	r1, r6
 2982 00cc FFF7FEFF 		bl	ip_input
 2983              	.LVL363:
 2984              		.loc 1 1365 0
 2985 00d0 C0E7     		b	.L512
 2986              	.LVL364:
 2987              	.L516:
 2988              	.LBB41:
 2989              	.LBB39:
 2990              		.loc 1 707 0
 2991 00d2 564B     		ldr	r3, .L518+4
 2992 00d4 588C     		ldrh	r0, [r3, #34]
 2993              		.loc 1 708 0
 2994 00d6 DA8B     		ldrh	r2, [r3, #30]
 2995              		.loc 1 707 0
 2996 00d8 411C     		adds	r1, r0, #1
 2997              		.loc 1 708 0
 2998 00da 0132     		adds	r2, r2, #1
 2999              		.loc 1 709 0
 3000 00dc 2046     		mov	r0, r4
 3001              		.loc 1 707 0
 3002 00de 5984     		strh	r1, [r3, #34]	@ movhi
 3003              		.loc 1 708 0
 3004 00e0 DA83     		strh	r2, [r3, #30]	@ movhi
 3005              		.loc 1 709 0
 3006 00e2 FFF7FEFF 		bl	pbuf_free
 3007              	.LVL365:
 3008 00e6 B5E7     		b	.L512
 3009              	.LVL366:
 3010              	.L517:
 3011              		.loc 1 723 0
ARM GAS  C:\Users\jenny\AppData\Local\Temp\ccFzIZYt.s 			page 54


 3012 00e8 EB7C     		ldrb	r3, [r5, #19]	@ zero_extendqisi2
 3013 00ea 042B     		cmp	r3, #4
 3014 00ec D6D1     		bne	.L471
 3015              		.loc 1 724 0
 3016 00ee 288A     		ldrh	r0, [r5, #16]	@ unaligned
 3017 00f0 0828     		cmp	r0, #8
 3018 00f2 D3D1     		bne	.L471
 3019              		.loc 1 734 0
 3020 00f4 DFF834A1 		ldr	sl, .L518+4
 3021              		.loc 1 745 0
 3022 00f8 0295     		str	r5, [sp, #8]
 3023              		.loc 1 734 0
 3024 00fa BAF81A70 		ldrh	r7, [sl, #26]
 3025              		.loc 1 749 0
 3026 00fe 7168     		ldr	r1, [r6, #4]
 3027              		.loc 1 734 0
 3028 0100 7A1C     		adds	r2, r7, #1
 3029              		.loc 1 745 0
 3030 0102 2B46     		mov	r3, r5
 3031              		.loc 1 734 0
 3032 0104 AAF81A20 		strh	r2, [sl, #26]	@ movhi
 3033              		.loc 1 745 0
 3034 0108 53F81C0F 		ldr	r0, [r3, #28]!	@ unaligned
 3035 010c 0293     		str	r3, [sp, #8]
 3036 010e 0490     		str	r0, [sp, #16]	@ unaligned
 3037              		.loc 1 746 0
 3038 0110 D5F82670 		ldr	r7, [r5, #38]	@ unaligned
 3039 0114 0597     		str	r7, [sp, #20]	@ unaligned
 3040              		.loc 1 761 0
 3041 0116 05F11607 		add	r7, r5, #22
 3042 011a 0197     		str	r7, [sp, #4]
 3043              		.loc 1 749 0
 3044 011c 0029     		cmp	r1, #0
 3045 011e 4ED0     		beq	.L483
 3046              	.LVL367:
 3047              		.loc 1 761 0
 3048 0120 059A     		ldr	r2, [sp, #20]
 3049 0122 9142     		cmp	r1, r2
 3050 0124 4BD1     		bne	.L483
 3051 0126 4FF00109 		mov	r9, #1
 3052 012a CB46     		mov	fp, r9
 3053              	.LVL368:
 3054              	.L474:
 3055              	.LBB34:
 3056              	.LBB35:
 3057              		.loc 1 451 0
 3058 012c 96F82210 		ldrb	r1, [r6, #34]	@ zero_extendqisi2
 3059 0130 0629     		cmp	r1, #6
 3060 0132 01D0     		beq	.L475
 3061 0134 FFF7FEFF 		bl	port_halt
 3062              	.LVL369:
 3063              	.L475:
 3064              		.loc 1 457 0
 3065 0138 0498     		ldr	r0, [sp, #16]
 3066              	.LBE35:
 3067              	.LBE34:
 3068              	.LBE39:
ARM GAS  C:\Users\jenny\AppData\Local\Temp\ccFzIZYt.s 			page 55


 3069              	.LBE41:
 3070              		.loc 1 1372 0
 3071 013a 06F12308 		add	r8, r6, #35
 3072              	.LBB42:
 3073              	.LBB40:
 3074              	.LBB38:
 3075              	.LBB37:
 3076              		.loc 1 457 0
 3077 013e 80B3     		cbz	r0, .L477
 3078              		.loc 1 458 0
 3079 0140 3146     		mov	r1, r6
 3080 0142 FFF7FEFF 		bl	ip4_addr_isbroadcast
 3081              	.LVL370:
 3082              		.loc 1 457 0
 3083 0146 0390     		str	r0, [sp, #12]
 3084 0148 58BB     		cbnz	r0, .L477
 3085              		.loc 1 459 0
 3086 014a 049B     		ldr	r3, [sp, #16]
 3087 014c 03F0F000 		and	r0, r3, #240
 3088              		.loc 1 458 0
 3089 0150 E028     		cmp	r0, #224
 3090 0152 26D0     		beq	.L477
 3091              		.loc 1 464 0
 3092 0154 04A8     		add	r0, sp, #16
 3093 0156 5946     		mov	r1, fp
 3094 0158 FFF7FEFF 		bl	etharp_find_entry
 3095              	.LVL371:
 3096              		.loc 1 466 0
 3097 015c 0028     		cmp	r0, #0
 3098              	.LVL372:
 3099 015e 20DB     		blt	.L477
 3100              		.loc 1 478 0
 3101 0160 DFF8CCE0 		ldr	lr, .L518+8
 3102              		.loc 1 488 0
 3103 0164 019B     		ldr	r3, [sp, #4]
 3104              		.loc 1 478 0
 3105 0166 1427     		movs	r7, #20
 3106 0168 07FB00FC 		mul	ip, r7, r0
 3107 016c 0EEB0C02 		add	r2, lr, ip
 3108 0170 0221     		movs	r1, #2
 3109 0172 9174     		strb	r1, [r2, #18]
 3110              		.loc 1 482 0
 3111 0174 9660     		str	r6, [r2, #8]
 3112              		.loc 1 488 0
 3113 0176 1868     		ldr	r0, [r3, #0]	@ unaligned
 3114              		.loc 1 490 0
 3115 0178 039F     		ldr	r7, [sp, #12]
 3116              		.loc 1 488 0
 3117 017a D060     		str	r0, [r2, #12]	@ unaligned
 3118 017c 9988     		ldrh	r1, [r3, #4]	@ unaligned
 3119              		.loc 1 504 0
 3120 017e 5EF80CB0 		ldr	fp, [lr, ip]
 3121              	.LVL373:
 3122              		.loc 1 490 0
 3123 0182 D774     		strb	r7, [r2, #19]
 3124              		.loc 1 488 0
 3125 0184 1182     		strh	r1, [r2, #16]	@ unaligned
ARM GAS  C:\Users\jenny\AppData\Local\Temp\ccFzIZYt.s 			page 56


 3126              		.loc 1 504 0
 3127 0186 BBF1000F 		cmp	fp, #0
 3128 018a 0AD0     		beq	.L477
 3129              	.LVL374:
 3130              	.LBB36:
 3131              		.loc 1 509 0
 3132 018c 3046     		mov	r0, r6
 3133 018e 5946     		mov	r1, fp
 3134 0190 4246     		mov	r2, r8
 3135 0192 019B     		ldr	r3, [sp, #4]
 3136              		.loc 1 506 0
 3137 0194 4EF80C70 		str	r7, [lr, ip]
 3138              		.loc 1 509 0
 3139 0198 FFF7FEFF 		bl	etharp_send_ip
 3140              	.LVL375:
 3141              		.loc 1 511 0
 3142 019c 5846     		mov	r0, fp
 3143 019e FFF7FEFF 		bl	pbuf_free
 3144              	.LVL376:
 3145              	.L477:
 3146              	.LBE36:
 3147              	.LBE37:
 3148              	.LBE38:
 3149              		.loc 1 765 0
 3150 01a2 AA8A     		ldrh	r2, [r5, #20]	@ unaligned
 3151 01a4 B2F5807F 		cmp	r2, #256
 3152 01a8 0ED0     		beq	.L480
 3153 01aa B2F5007F 		cmp	r2, #512
 3154 01ae 3FF44EAF 		beq	.L461
 3155              		.loc 1 831 0
 3156 01b2 BAF82C30 		ldrh	r3, [sl, #44]
 3157 01b6 581C     		adds	r0, r3, #1
 3158 01b8 AAF82C00 		strh	r0, [sl, #44]	@ movhi
 3159 01bc 47E7     		b	.L461
 3160              	.LVL377:
 3161              	.L483:
 3162              		.loc 1 761 0
 3163 01be 4FF00009 		mov	r9, #0
 3164 01c2 4FF0020B 		mov	fp, #2
 3165 01c6 B1E7     		b	.L474
 3166              	.LVL378:
 3167              	.L480:
 3168              		.loc 1 774 0
 3169 01c8 B9F1000F 		cmp	r9, #0
 3170 01cc 3FF43FAF 		beq	.L461
 3171              		.loc 1 780 0
 3172 01d0 0220     		movs	r0, #2
 3173 01d2 FFF7FEFF 		bl	lwip_htons
 3174              	.LVL379:
 3175 01d6 A882     		strh	r0, [r5, #20]	@ unaligned
 3176              		.loc 1 782 0
 3177 01d8 029F     		ldr	r7, [sp, #8]
 3178 01da 3968     		ldr	r1, [r7, #0]	@ unaligned
 3179 01dc C5F82610 		str	r1, [r5, #38]	@ unaligned
 3180              		.loc 1 783 0
 3181 01e0 7268     		ldr	r2, [r6, #4]	@ unaligned
 3182 01e2 EA61     		str	r2, [r5, #28]	@ unaligned
ARM GAS  C:\Users\jenny\AppData\Local\Temp\ccFzIZYt.s 			page 57


 3183              		.loc 1 785 0
 3184 01e4 96F82230 		ldrb	r3, [r6, #34]	@ zero_extendqisi2
 3185 01e8 062B     		cmp	r3, #6
 3186 01ea 01D0     		beq	.L482
 3187 01ec FFF7FEFF 		bl	port_halt
 3188              	.LVL380:
 3189              	.L482:
 3190              		.loc 1 794 0
 3191 01f0 019F     		ldr	r7, [sp, #4]
 3192 01f2 3868     		ldr	r0, [r7, #0]	@ unaligned
 3193 01f4 2862     		str	r0, [r5, #32]	@ unaligned
 3194 01f6 B988     		ldrh	r1, [r7, #4]	@ unaligned
 3195 01f8 A984     		strh	r1, [r5, #36]	@ unaligned
 3196              		.loc 1 798 0
 3197 01fa 3A68     		ldr	r2, [r7, #0]	@ unaligned
 3198 01fc 2A60     		str	r2, [r5, #0]	@ unaligned
 3199 01fe BB88     		ldrh	r3, [r7, #4]	@ unaligned
 3200 0200 AB80     		strh	r3, [r5, #4]	@ unaligned
 3201              		.loc 1 800 0
 3202 0202 D8F80000 		ldr	r0, [r8, #0]	@ unaligned
 3203 0206 3860     		str	r0, [r7, #0]	@ unaligned
 3204 0208 B8F80410 		ldrh	r1, [r8, #4]	@ unaligned
 3205 020c B980     		strh	r1, [r7, #4]	@ unaligned
 3206              		.loc 1 801 0
 3207 020e D8F80020 		ldr	r2, [r8, #0]	@ unaligned
 3208 0212 C5F80620 		str	r2, [r5, #6]	@ unaligned
 3209 0216 B8F80430 		ldrh	r3, [r8, #4]	@ unaligned
 3210 021a 6B81     		strh	r3, [r5, #10]	@ unaligned
 3211              		.loc 1 807 0
 3212 021c B269     		ldr	r2, [r6, #24]
 3213 021e 3046     		mov	r0, r6
 3214 0220 2146     		mov	r1, r4
 3215 0222 9047     		blx	r2
 3216              	.LVL381:
 3217 0224 13E7     		b	.L461
 3218              	.L519:
 3219 0226 00BF     		.align	2
 3220              	.L518:
 3221 0228 00000000 		.word	.LANCHOR2
 3222 022c 00000000 		.word	lwip_stats
 3223 0230 00000000 		.word	.LANCHOR0
 3224              	.LBE40:
 3225              	.LBE42:
 3226              		.cfi_endproc
 3227              	.LFE20:
 3228              		.size	ethernet_input, .-ethernet_input
 3229              		.global	ethzero
 3230              		.global	ethbroadcast
 3231 0234 AFF30080 		.section	.bss.etharp_cached_entry,"aw",%nobits
 3231      AFF30080 
 3231      AFF30080 
 3232              		.set	.LANCHOR3,. + 0
 3233              		.type	etharp_cached_entry, %object
 3234              		.size	etharp_cached_entry, 1
 3235              	etharp_cached_entry:
 3236 0000 00       		.space	1
 3237              		.section	.bss.arp_table,"aw",%nobits
ARM GAS  C:\Users\jenny\AppData\Local\Temp\ccFzIZYt.s 			page 58


 3238              		.align	2
 3239              		.set	.LANCHOR0,. + 0
 3240              		.type	arp_table, %object
 3241              		.size	arp_table, 200
 3242              	arp_table:
 3243 0000 00000000 		.space	200
 3243      00000000 
 3243      00000000 
 3243      00000000 
 3243      00000000 
 3244              		.section	.rodata.ethbroadcast,"a",%progbits
 3245              		.align	2
 3246              		.set	.LANCHOR2,. + 0
 3247              		.type	ethbroadcast, %object
 3248              		.size	ethbroadcast, 6
 3249              	ethbroadcast:
 3250 0000 FF       		.byte	-1
 3251 0001 FF       		.byte	-1
 3252 0002 FF       		.byte	-1
 3253 0003 FF       		.byte	-1
 3254 0004 FF       		.byte	-1
 3255 0005 FF       		.byte	-1
 3256 0006 0000     		.section	.rodata.ethzero,"a",%progbits
 3257              		.align	2
 3258              		.set	.LANCHOR1,. + 0
 3259              		.type	ethzero, %object
 3260              		.size	ethzero, 6
 3261              	ethzero:
 3262 0000 00000000 		.space	6
 3262      0000
 3263 0006 0000     		.text
 3264              	.Letext0:
 3265              		.file 2 "c:\\fbin\\yagarto\\bin\\../lib/gcc/arm-none-eabi/4.7.4/include/stddef.h"
 3266              		.file 3 "c:\\fbin\\yagarto\\bin\\../lib/gcc/arm-none-eabi/4.7.4/../../../../arm-none-eabi/include/
 3267              		.file 4 "../../os/various/lwip_bindings/arch/cc.h"
 3268              		.file 5 "../../ext/lwip/src/include/ipv4/lwip/ip_addr.h"
 3269              		.file 6 "../../ext/lwip/src/include/lwip/err.h"
 3270              		.file 7 "../../ext/lwip/src/include/lwip/pbuf.h"
 3271              		.file 8 "../../ext/lwip/src/include/lwip/netif.h"
 3272              		.file 9 "../../ext/lwip/src/include/lwip/mem.h"
 3273              		.file 10 "../../ext/lwip/src/include/lwip/memp.h"
 3274              		.file 11 "../../ext/lwip/src/include/lwip/stats.h"
 3275              		.file 12 "../../ext/lwip/src/include/netif/etharp.h"
 3276              		.file 13 "../../ext/lwip/src/include/lwip/def.h"
 3277              		.file 14 "c:\\fbin\\yagarto\\bin\\../lib/gcc/arm-none-eabi/4.7.4/../../../../arm-none-eabi/include
 3278              		.file 15 "../../ext/lwip/src/include/ipv4/lwip/ip.h"
 3279              		.file 16 "../../os/ports/GCC/ARMCMx/chcore_v7m.h"