ARM GAS  C:\Users\jenny\AppData\Local\Temp\ccFzIZYt.s 			page 1


   1              		.syntax unified
   2              		.cpu cortex-m4
   3              		.eabi_attribute 27, 3
   4              		.fpu fpv4-sp-d16
   5              		.eabi_attribute 20, 1
   6              		.eabi_attribute 21, 1
   7              		.eabi_attribute 23, 3
   8              		.eabi_attribute 24, 1
   9              		.eabi_attribute 25, 1
  10              		.eabi_attribute 26, 1
  11              		.eabi_attribute 30, 2
  12              		.eabi_attribute 34, 1
  13              		.eabi_attribute 18, 4
  14              		.thumb
  15              		.file	"etharp.c"
  16              		.text
  17              	.Ltext0:
  18              		.cfi_sections	.debug_frame
  19              		.section	.text.etharp_free_entry,"ax",%progbits
  20              		.align	2
  21              		.p2align 4,,15
  22              		.thumb
  23              		.thumb_func
  24              		.type	etharp_free_entry, %function
  25              	etharp_free_entry:
  26              	.LFB7:
  27              		.file 1 "../../ext/lwip/src/netif/etharp.c"
  28              		.loc 1 178 0
  29              		.cfi_startproc
  30              		@ args = 0, pretend = 0, frame = 0
  31              		@ frame_needed = 0, uses_anonymous_args = 0
  32              	.LVL0:
  33 0000 F8B5     		push	{r3, r4, r5, r6, r7, lr}
  34              	.LCFI0:
  35              		.cfi_def_cfa_offset 24
  36              		.cfi_offset 3, -24
  37              		.cfi_offset 4, -20
  38              		.cfi_offset 5, -16
  39              		.cfi_offset 6, -12
  40              		.cfi_offset 7, -8
  41              		.cfi_offset 14, -4
  42              		.loc 1 182 0
  43 0002 8600     		lsls	r6, r0, #2
  44 0004 3718     		adds	r7, r6, r0
  45 0006 084D     		ldr	r5, .L7
  46 0008 BF00     		lsls	r7, r7, #2
  47              		.loc 1 178 0
  48 000a 0446     		mov	r4, r0
  49              		.loc 1 182 0
  50 000c E859     		ldr	r0, [r5, r7]
  51              	.LVL1:
  52 000e 18B1     		cbz	r0, .L2
  53              		.loc 1 185 0
  54 0010 FFF7FEFF 		bl	pbuf_free
  55              	.LVL2:
  56              		.loc 1 186 0
  57 0014 0023     		movs	r3, #0
ARM GAS  C:\Users\jenny\AppData\Local\Temp\ccFzIZYt.s 			page 2


  58 0016 EB51     		str	r3, [r5, r7]
  59              	.L2:
  60              		.loc 1 189 0
  61 0018 3419     		adds	r4, r6, r4
  62              	.LVL3:
  63 001a 05EB8405 		add	r5, r5, r4, lsl #2
  64 001e 0020     		movs	r0, #0
  65 0020 A874     		strb	r0, [r5, #18]
  66 0022 1035     		adds	r5, r5, #16
  67 0024 F8BD     		pop	{r3, r4, r5, r6, r7, pc}
  68              	.L8:
  69 0026 00BF     		.align	2
  70              	.L7:
  71 0028 00000000 		.word	.LANCHOR0
  72              		.cfi_endproc
  73              	.LFE7:
  74              		.size	etharp_free_entry, .-etharp_free_entry
  75 002c AFF30080 		.section	.text.etharp_find_entry,"ax",%progbits
  76              		.align	2
  77              		.p2align 4,,15
  78              		.thumb
  79              		.thumb_func
  80              		.type	etharp_find_entry, %function
  81              	etharp_find_entry:
  82              	.LFB9:
  83              		.loc 1 267 0
  84              		.cfi_startproc
  85              		@ args = 0, pretend = 0, frame = 8
  86              		@ frame_needed = 0, uses_anonymous_args = 0
  87              	.LVL4:
  88 0000 2DE9F04F 		push	{r4, r5, r6, r7, r8, r9, sl, fp, lr}
  89              	.LCFI1:
  90              		.cfi_def_cfa_offset 36
  91              		.cfi_offset 4, -36
  92              		.cfi_offset 5, -32
  93              		.cfi_offset 6, -28
  94              		.cfi_offset 7, -24
  95              		.cfi_offset 8, -20
  96              		.cfi_offset 9, -16
  97              		.cfi_offset 10, -12
  98              		.cfi_offset 11, -8
  99              		.cfi_offset 14, -4
 100              	.LBB2:
 101              		.loc 1 292 0
 102 0004 A94C     		ldr	r4, .L173
 103 0006 A37C     		ldrb	r3, [r4, #18]	@ zero_extendqisi2
 104              	.LVL5:
 105              	.LBE2:
 106              		.loc 1 267 0
 107 0008 83B0     		sub	sp, sp, #12
 108              	.LCFI2:
 109              		.cfi_def_cfa_offset 48
 110              		.loc 1 267 0
 111 000a 0546     		mov	r5, r0
 112 000c 8C46     		mov	ip, r1
 113              	.LBB3:
 114              		.loc 1 294 0
ARM GAS  C:\Users\jenny\AppData\Local\Temp\ccFzIZYt.s 			page 3


 115 000e 7BB9     		cbnz	r3, .L142
 116              	.LVL6:
 117              		.loc 1 292 0
 118 0010 94F826A0 		ldrb	sl, [r4, #38]	@ zero_extendqisi2
 119              	.LVL7:
 120              		.loc 1 298 0
 121 0014 BAF1000F 		cmp	sl, #0
 122 0018 40F0A181 		bne	.L143
 123              		.loc 1 272 0
 124 001c 4FF00A08 		mov	r8, #10
 125              		.loc 1 274 0
 126 0020 CDF804A0 		str	sl, [sp, #4]
 127              		.loc 1 270 0
 128 0024 5246     		mov	r2, sl
 129 0026 D346     		mov	fp, sl
 130              		.loc 1 297 0
 131 0028 5346     		mov	r3, sl
 132              		.loc 1 268 0
 133 002a 4146     		mov	r1, r8
 134              	.LVL8:
 135 002c C146     		mov	r9, r8
 136 002e 19E0     		b	.L17
 137              	.LVL9:
 138              	.L142:
 139              		.loc 1 302 0
 140 0030 20B1     		cbz	r0, .L16
 141 0032 0168     		ldr	r1, [r0, #0]
 142              	.LVL10:
 143 0034 6268     		ldr	r2, [r4, #4]
 144 0036 9142     		cmp	r1, r2
 145 0038 00F02682 		beq	.L144
 146              	.L16:
 147              		.loc 1 308 0
 148 003c 012B     		cmp	r3, #1
 149 003e 00F09681 		beq	.L12
 150              		.loc 1 324 0
 151 0042 40F21682 		bls	.L102
 152              		.loc 1 274 0
 153 0046 0020     		movs	r0, #0
 154              	.LVL11:
 155              		.loc 1 272 0
 156 0048 4FF00A08 		mov	r8, #10
 157              		.loc 1 331 0
 158 004c E27C     		ldrb	r2, [r4, #19]	@ zero_extendqisi2
 159              	.LVL12:
 160              		.loc 1 274 0
 161 004e 0190     		str	r0, [sp, #4]
 162              		.loc 1 270 0
 163 0050 8346     		mov	fp, r0
 164              		.loc 1 332 0
 165 0052 0146     		mov	r1, r0
 166              		.loc 1 268 0
 167 0054 C146     		mov	r9, r8
 168              	.LVL13:
 169              	.L13:
 170              		.loc 1 292 0
 171 0056 94F826A0 		ldrb	sl, [r4, #38]	@ zero_extendqisi2
ARM GAS  C:\Users\jenny\AppData\Local\Temp\ccFzIZYt.s 			page 4


 172              	.LVL14:
 173              		.loc 1 294 0
 174 005a BAF1000F 		cmp	sl, #0
 175 005e 40F03B81 		bne	.L123
 176              		.loc 1 297 0
 177 0062 0123     		movs	r3, #1
 178              	.LVL15:
 179              	.L17:
 180              		.loc 1 292 0
 181 0064 94F83A70 		ldrb	r7, [r4, #58]	@ zero_extendqisi2
 182              	.LVL16:
 183              	.L24:
 184              		.loc 1 298 0
 185 0068 002F     		cmp	r7, #0
 186 006a 40D1     		bne	.L30
 187              	.L31:
 188              	.LVL17:
 189              		.loc 1 292 0
 190 006c 94F84E70 		ldrb	r7, [r4, #78]	@ zero_extendqisi2
 191              	.LVL18:
 192              	.L33:
 193              		.loc 1 298 0
 194 0070 002F     		cmp	r7, #0
 195 0072 53D1     		bne	.L39
 196              	.L40:
 197              	.LVL19:
 198              		.loc 1 292 0
 199 0074 94F86270 		ldrb	r7, [r4, #98]	@ zero_extendqisi2
 200              	.LVL20:
 201              	.L42:
 202              		.loc 1 298 0
 203 0078 002F     		cmp	r7, #0
 204 007a 66D1     		bne	.L48
 205              	.L49:
 206              	.LVL21:
 207              		.loc 1 292 0
 208 007c 94F87670 		ldrb	r7, [r4, #118]	@ zero_extendqisi2
 209              	.LVL22:
 210              	.L51:
 211              		.loc 1 298 0
 212 0080 002F     		cmp	r7, #0
 213 0082 79D1     		bne	.L57
 214              	.L58:
 215              	.LVL23:
 216              		.loc 1 292 0
 217 0084 94F88A70 		ldrb	r7, [r4, #138]	@ zero_extendqisi2
 218              	.LVL24:
 219              	.L60:
 220              		.loc 1 298 0
 221 0088 002F     		cmp	r7, #0
 222 008a 40F08D80 		bne	.L66
 223              	.L67:
 224              	.LVL25:
 225              		.loc 1 292 0
 226 008e 94F89E70 		ldrb	r7, [r4, #158]	@ zero_extendqisi2
 227              	.LVL26:
 228              	.L69:
ARM GAS  C:\Users\jenny\AppData\Local\Temp\ccFzIZYt.s 			page 5


 229              		.loc 1 298 0
 230 0092 002F     		cmp	r7, #0
 231 0094 40F0A180 		bne	.L75
 232              	.L76:
 233              	.LVL27:
 234              		.loc 1 292 0
 235 0098 94F8B270 		ldrb	r7, [r4, #178]	@ zero_extendqisi2
 236              	.LVL28:
 237              	.L78:
 238              		.loc 1 298 0
 239 009c 002F     		cmp	r7, #0
 240 009e 40F0B680 		bne	.L84
 241              	.LVL29:
 242              	.L81:
 243              		.loc 1 294 0
 244 00a2 58B2     		sxtb	r0, r3
 245 00a4 0A28     		cmp	r0, #10
 246              		.loc 1 292 0
 247 00a6 94F8C6A0 		ldrb	sl, [r4, #198]	@ zero_extendqisi2
 248              	.LVL30:
 249              		.loc 1 294 0
 250 00aa 00F0C480 		beq	.L145
 251              		.loc 1 298 0
 252 00ae BAF1000F 		cmp	sl, #0
 253 00b2 40F0C380 		bne	.L87
 254              	.LVL31:
 255              	.L86:
 256              	.LBE3:
 257              		.loc 1 342 0
 258 00b6 0CF00200 		and	r0, ip, #2
 259 00ba C2B2     		uxtb	r2, r0
 260 00bc 002A     		cmp	r2, #0
 261 00be 40F0E181 		bne	.L124
 262 00c2 58B2     		sxtb	r0, r3
 263 00c4 D3E0     		b	.L93
 264              	.LVL32:
 265              	.L19:
 266              	.LBB4:
 267              		.loc 1 310 0
 268 00c6 6069     		ldr	r0, [r4, #20]
 269 00c8 784F     		ldr	r7, .L173
 270 00ca 0028     		cmp	r0, #0
 271 00cc 00F0F181 		beq	.L146
 272              		.loc 1 311 0
 273 00d0 97F82770 		ldrb	r7, [r7, #39]	@ zero_extendqisi2
 274 00d4 019E     		ldr	r6, [sp, #4]
 275 00d6 BE42     		cmp	r6, r7
 276 00d8 01D8     		bhi	.L20
 277              	.LVL33:
 278 00da 0197     		str	r7, [sp, #4]
 279              		.loc 1 312 0
 280 00dc D046     		mov	r8, sl
 281              	.LVL34:
 282              	.L20:
 283              		.loc 1 294 0
 284 00de 58B2     		sxtb	r0, r3
 285 00e0 0A28     		cmp	r0, #10
ARM GAS  C:\Users\jenny\AppData\Local\Temp\ccFzIZYt.s 			page 6


 286              		.loc 1 292 0
 287 00e2 94F83A70 		ldrb	r7, [r4, #58]	@ zero_extendqisi2
 288              	.LVL35:
 289              		.loc 1 294 0
 290 00e6 BFD1     		bne	.L24
 291 00e8 002F     		cmp	r7, #0
 292 00ea 00F01681 		beq	.L107
 293              	.LVL36:
 294              	.L30:
 295              		.loc 1 302 0
 296 00ee 25B1     		cbz	r5, .L29
 297 00f0 2E68     		ldr	r6, [r5, #0]
 298 00f2 E06A     		ldr	r0, [r4, #44]
 299 00f4 8642     		cmp	r6, r0
 300 00f6 00F00882 		beq	.L147
 301              	.L29:
 302              		.loc 1 308 0
 303 00fa 012F     		cmp	r7, #1
 304 00fc 00F04581 		beq	.L26
 305              		.loc 1 324 0
 306 0100 04D9     		bls	.L27
 307              		.loc 1 331 0
 308 0102 94F83B70 		ldrb	r7, [r4, #59]	@ zero_extendqisi2
 309 0106 9742     		cmp	r7, r2
 310 0108 80F01781 		bcs	.L148
 311              	.LVL37:
 312              	.L27:
 313              		.loc 1 294 0
 314 010c 58B2     		sxtb	r0, r3
 315 010e 0A28     		cmp	r0, #10
 316              		.loc 1 292 0
 317 0110 94F84E70 		ldrb	r7, [r4, #78]	@ zero_extendqisi2
 318              	.LVL38:
 319              		.loc 1 294 0
 320 0114 ACD1     		bne	.L33
 321 0116 002F     		cmp	r7, #0
 322 0118 00F00181 		beq	.L109
 323              	.LVL39:
 324              	.L39:
 325              		.loc 1 302 0
 326 011c 25B1     		cbz	r5, .L38
 327 011e 2E68     		ldr	r6, [r5, #0]
 328 0120 206C     		ldr	r0, [r4, #64]
 329 0122 8642     		cmp	r6, r0
 330 0124 00F0F381 		beq	.L149
 331              	.L38:
 332              		.loc 1 308 0
 333 0128 012F     		cmp	r7, #1
 334 012a 00F03D81 		beq	.L35
 335              		.loc 1 324 0
 336 012e 04D9     		bls	.L36
 337              		.loc 1 331 0
 338 0130 94F84F70 		ldrb	r7, [r4, #79]	@ zero_extendqisi2
 339 0134 BA42     		cmp	r2, r7
 340 0136 40F20381 		bls	.L150
 341              	.LVL40:
 342              	.L36:
ARM GAS  C:\Users\jenny\AppData\Local\Temp\ccFzIZYt.s 			page 7


 343              		.loc 1 294 0
 344 013a 58B2     		sxtb	r0, r3
 345 013c 0A28     		cmp	r0, #10
 346              		.loc 1 292 0
 347 013e 94F86270 		ldrb	r7, [r4, #98]	@ zero_extendqisi2
 348              	.LVL41:
 349              		.loc 1 294 0
 350 0142 99D1     		bne	.L42
 351 0144 002F     		cmp	r7, #0
 352 0146 00F0EC80 		beq	.L111
 353              	.LVL42:
 354              	.L48:
 355              		.loc 1 302 0
 356 014a 25B1     		cbz	r5, .L47
 357 014c 2E68     		ldr	r6, [r5, #0]
 358 014e 606D     		ldr	r0, [r4, #84]
 359 0150 8642     		cmp	r6, r0
 360 0152 00F0E281 		beq	.L151
 361              	.L47:
 362              		.loc 1 308 0
 363 0156 012F     		cmp	r7, #1
 364 0158 00F03481 		beq	.L44
 365              		.loc 1 324 0
 366 015c 04D9     		bls	.L45
 367              		.loc 1 331 0
 368 015e 94F86370 		ldrb	r7, [r4, #99]	@ zero_extendqisi2
 369 0162 BA42     		cmp	r2, r7
 370 0164 40F2EF80 		bls	.L152
 371              	.LVL43:
 372              	.L45:
 373              		.loc 1 294 0
 374 0168 58B2     		sxtb	r0, r3
 375 016a 0A28     		cmp	r0, #10
 376              		.loc 1 292 0
 377 016c 94F87670 		ldrb	r7, [r4, #118]	@ zero_extendqisi2
 378              	.LVL44:
 379              		.loc 1 294 0
 380 0170 86D1     		bne	.L51
 381 0172 002F     		cmp	r7, #0
 382 0174 00F0D780 		beq	.L113
 383              	.LVL45:
 384              	.L57:
 385              		.loc 1 302 0
 386 0178 25B1     		cbz	r5, .L56
 387 017a 2E68     		ldr	r6, [r5, #0]
 388 017c A06E     		ldr	r0, [r4, #104]
 389 017e 8642     		cmp	r6, r0
 390 0180 00F0C981 		beq	.L153
 391              	.L56:
 392              		.loc 1 308 0
 393 0184 012F     		cmp	r7, #1
 394 0186 00F02C81 		beq	.L53
 395              		.loc 1 324 0
 396 018a 04D9     		bls	.L54
 397              		.loc 1 331 0
 398 018c 94F87770 		ldrb	r7, [r4, #119]	@ zero_extendqisi2
 399 0190 BA42     		cmp	r2, r7
ARM GAS  C:\Users\jenny\AppData\Local\Temp\ccFzIZYt.s 			page 8


 400 0192 40F2E180 		bls	.L154
 401              	.LVL46:
 402              	.L54:
 403              		.loc 1 294 0
 404 0196 58B2     		sxtb	r0, r3
 405 0198 0A28     		cmp	r0, #10
 406              		.loc 1 292 0
 407 019a 94F88A70 		ldrb	r7, [r4, #138]	@ zero_extendqisi2
 408              	.LVL47:
 409              		.loc 1 294 0
 410 019e 7FF473AF 		bne	.L60
 411 01a2 002F     		cmp	r7, #0
 412 01a4 00F0C180 		beq	.L115
 413              	.LVL48:
 414              	.L66:
 415              		.loc 1 302 0
 416 01a8 25B1     		cbz	r5, .L65
 417 01aa 2E68     		ldr	r6, [r5, #0]
 418 01ac E06F     		ldr	r0, [r4, #124]
 419 01ae 8642     		cmp	r6, r0
 420 01b0 00F0D081 		beq	.L155
 421              	.L65:
 422              		.loc 1 308 0
 423 01b4 012F     		cmp	r7, #1
 424 01b6 00F02281 		beq	.L62
 425              		.loc 1 324 0
 426 01ba 05D9     		bls	.L63
 427              		.loc 1 331 0
 428 01bc 94F88B70 		ldrb	r7, [r4, #139]	@ zero_extendqisi2
 429 01c0 9742     		cmp	r7, r2
 430 01c2 01D3     		bcc	.L63
 431              	.LVL49:
 432 01c4 3A46     		mov	r2, r7
 433              		.loc 1 332 0
 434 01c6 0621     		movs	r1, #6
 435              	.LVL50:
 436              	.L63:
 437              		.loc 1 294 0
 438 01c8 58B2     		sxtb	r0, r3
 439 01ca 0A28     		cmp	r0, #10
 440              		.loc 1 292 0
 441 01cc 94F89E70 		ldrb	r7, [r4, #158]	@ zero_extendqisi2
 442              	.LVL51:
 443              		.loc 1 294 0
 444 01d0 7FF45FAF 		bne	.L69
 445 01d4 002F     		cmp	r7, #0
 446 01d6 00F0AA80 		beq	.L117
 447              	.LVL52:
 448              	.L75:
 449              		.loc 1 302 0
 450 01da 2DB1     		cbz	r5, .L74
 451 01dc 2E68     		ldr	r6, [r5, #0]
 452 01de D4F89000 		ldr	r0, [r4, #144]
 453 01e2 8642     		cmp	r6, r0
 454 01e4 00F0B481 		beq	.L156
 455              	.L74:
 456              		.loc 1 308 0
ARM GAS  C:\Users\jenny\AppData\Local\Temp\ccFzIZYt.s 			page 9


 457 01e8 012F     		cmp	r7, #1
 458 01ea 00F01681 		beq	.L71
 459              		.loc 1 324 0
 460 01ee 05D9     		bls	.L72
 461              		.loc 1 331 0
 462 01f0 94F89F70 		ldrb	r7, [r4, #159]	@ zero_extendqisi2
 463 01f4 9742     		cmp	r7, r2
 464 01f6 01D3     		bcc	.L72
 465              	.LVL53:
 466 01f8 3A46     		mov	r2, r7
 467              		.loc 1 332 0
 468 01fa 0721     		movs	r1, #7
 469              	.LVL54:
 470              	.L72:
 471              		.loc 1 294 0
 472 01fc 58B2     		sxtb	r0, r3
 473 01fe 0A28     		cmp	r0, #10
 474              		.loc 1 292 0
 475 0200 94F8B270 		ldrb	r7, [r4, #178]	@ zero_extendqisi2
 476              	.LVL55:
 477              		.loc 1 294 0
 478 0204 7FF44AAF 		bne	.L78
 479 0208 002F     		cmp	r7, #0
 480 020a 00F09280 		beq	.L157
 481              	.LVL56:
 482              	.L84:
 483              		.loc 1 302 0
 484 020e 2DB1     		cbz	r5, .L83
 485 0210 2E68     		ldr	r6, [r5, #0]
 486 0212 D4F8A400 		ldr	r0, [r4, #164]
 487 0216 8642     		cmp	r6, r0
 488 0218 00F0A081 		beq	.L158
 489              	.L83:
 490              		.loc 1 308 0
 491 021c 012F     		cmp	r7, #1
 492 021e 00F00C81 		beq	.L80
 493              		.loc 1 324 0
 494 0222 7FF63EAF 		bls	.L81
 495              		.loc 1 331 0
 496 0226 94F8B300 		ldrb	r0, [r4, #179]	@ zero_extendqisi2
 497 022a 9042     		cmp	r0, r2
 498 022c FFF439AF 		bcc	.L81
 499              	.LVL57:
 500 0230 0246     		mov	r2, r0
 501              		.loc 1 332 0
 502 0232 0821     		movs	r1, #8
 503 0234 35E7     		b	.L81
 504              	.LVL58:
 505              	.L145:
 506              		.loc 1 294 0 discriminator 1
 507 0236 BAF1000F 		cmp	sl, #0
 508 023a 7CD0     		beq	.L119
 509              	.L87:
 510              		.loc 1 302 0
 511 023c 2DB1     		cbz	r5, .L88
 512              		.loc 1 302 0 is_stmt 0 discriminator 1
 513 023e 2E68     		ldr	r6, [r5, #0]
ARM GAS  C:\Users\jenny\AppData\Local\Temp\ccFzIZYt.s 			page 10


 514 0240 D4F8B870 		ldr	r7, [r4, #184]
 515 0244 BE42     		cmp	r6, r7
 516 0246 00F08781 		beq	.L159
 517              	.L88:
 518              		.loc 1 308 0 is_stmt 1
 519 024a BAF1010F 		cmp	sl, #1
 520 024e 00F00381 		beq	.L160
 521              		.loc 1 324 0
 522 0252 04D9     		bls	.L92
 523              		.loc 1 331 0
 524 0254 94F8C760 		ldrb	r6, [r4, #199]	@ zero_extendqisi2
 525              		.loc 1 332 0
 526 0258 9642     		cmp	r6, r2
 527 025a 28BF     		it	cs
 528 025c 0921     		movcs	r1, #9
 529              	.LVL59:
 530              	.L92:
 531              	.LBE4:
 532              		.loc 1 342 0
 533 025e 0CF00202 		and	r2, ip, #2
 534 0262 D2B2     		uxtb	r2, r2
 535 0264 002A     		cmp	r2, #0
 536 0266 40F00D81 		bne	.L124
 537              		.loc 1 342 0 is_stmt 0 discriminator 1
 538 026a 0A28     		cmp	r0, #10
 539 026c 20D0     		beq	.L161
 540              	.LVL60:
 541              	.L93:
 542              		.loc 1 360 0 is_stmt 1
 543 026e 5FFA83F8 		uxtb	r8, r3
 544              	.LVL61:
 545 0272 0646     		mov	r6, r0
 546              	.LVL62:
 547              	.L95:
 548              		.loc 1 392 0
 549 0274 B700     		lsls	r7, r6, #2
 550 0276 B919     		adds	r1, r7, r6
 551 0278 04EB8103 		add	r3, r4, r1, lsl #2
 552 027c 9A7C     		ldrb	r2, [r3, #18]	@ zero_extendqisi2
 553 027e 8AB9     		cbnz	r2, .L162
 554              	.L99:
 555              		.loc 1 396 0
 556 0280 25B1     		cbz	r5, .L100
 557              		.loc 1 398 0
 558 0282 B819     		adds	r0, r7, r6
 559 0284 2968     		ldr	r1, [r5, #0]
 560 0286 04EB8003 		add	r3, r4, r0, lsl #2
 561 028a 5960     		str	r1, [r3, #4]
 562              	.L100:
 563              		.loc 1 400 0
 564 028c BE19     		adds	r6, r7, r6
 565 028e 04EB8604 		add	r4, r4, r6, lsl #2
 566 0292 0022     		movs	r2, #0
 567 0294 E274     		strb	r2, [r4, #19]
 568              		.loc 1 401 0
 569 0296 5FFA88F0 		uxtb	r0, r8
 570              		.loc 1 400 0
ARM GAS  C:\Users\jenny\AppData\Local\Temp\ccFzIZYt.s 			page 11


 571 029a 1034     		adds	r4, r4, #16
 572              	.LVL63:
 573              	.L89:
 574 029c 40B2     		sxtb	r0, r0
 575              		.loc 1 402 0
 576 029e 03B0     		add	sp, sp, #12
 577 02a0 BDE8F08F 		pop	{r4, r5, r6, r7, r8, r9, sl, fp, pc}
 578              	.LVL64:
 579              	.L162:
 580              		.loc 1 392 0 discriminator 1
 581 02a4 FFF7FEFF 		bl	port_halt
 582              	.LVL65:
 583 02a8 EAE7     		b	.L99
 584              	.L174:
 585 02aa 00BF     		.align	2
 586              	.L173:
 587 02ac 00000000 		.word	.LANCHOR0
 588              	.LVL66:
 589              	.L161:
 590              		.loc 1 344 0
 591 02b0 1CF0010F 		tst	ip, #1
 592 02b4 00F0E680 		beq	.L124
 593              		.loc 1 364 0
 594 02b8 4EB2     		sxtb	r6, r1
 595 02ba 0A2E     		cmp	r6, #10
 596 02bc 21D0     		beq	.L96
 597              		.loc 1 369 0
 598 02be 06EB8607 		add	r7, r6, r6, lsl #2
 599              		.loc 1 366 0
 600 02c2 5FFA81F8 		uxtb	r8, r1
 601              	.LVL67:
 602              		.loc 1 369 0
 603 02c6 54F82710 		ldr	r1, [r4, r7, lsl #2]
 604              	.LVL68:
 605 02ca 09B1     		cbz	r1, .L97
 606              		.loc 1 369 0 is_stmt 0 discriminator 1
 607 02cc FFF7FEFF 		bl	port_halt
 608              	.LVL69:
 609              	.L97:
 610              		.loc 1 388 0 is_stmt 1
 611 02d0 3046     		mov	r0, r6
 612 02d2 FFF7FEFF 		bl	etharp_free_entry
 613              	.LVL70:
 614 02d6 CDE7     		b	.L95
 615              	.LVL71:
 616              	.L123:
 617              	.LBB5:
 618              		.loc 1 294 0
 619 02d8 0A23     		movs	r3, #10
 620              	.LVL72:
 621              	.L101:
 622              		.loc 1 302 0
 623 02da 25B1     		cbz	r5, .L22
 624 02dc 2F68     		ldr	r7, [r5, #0]
 625 02de A069     		ldr	r0, [r4, #24]
 626 02e0 8742     		cmp	r7, r0
 627 02e2 00F01681 		beq	.L163
ARM GAS  C:\Users\jenny\AppData\Local\Temp\ccFzIZYt.s 			page 12


 628              	.L22:
 629              		.loc 1 308 0
 630 02e6 BAF1010F 		cmp	sl, #1
 631 02ea 3FF4ECAE 		beq	.L19
 632              		.loc 1 324 0
 633 02ee 7FF6F6AE 		bls	.L20
 634              		.loc 1 331 0
 635 02f2 94F82770 		ldrb	r7, [r4, #39]	@ zero_extendqisi2
 636 02f6 9742     		cmp	r7, r2
 637 02f8 FFF4F1AE 		bcc	.L20
 638              	.LVL73:
 639 02fc 3A46     		mov	r2, r7
 640              		.loc 1 332 0
 641 02fe 0121     		movs	r1, #1
 642 0300 EDE6     		b	.L20
 643              	.LVL74:
 644              	.L96:
 645              	.LBE5:
 646              		.loc 1 371 0
 647 0302 4FFA89F6 		sxtb	r6, r9
 648 0306 0A2E     		cmp	r6, #10
 649 0308 20D1     		bne	.L164
 650              		.loc 1 376 0
 651 030a 4FFA88F6 		sxtb	r6, r8
 652 030e 0A2E     		cmp	r6, #10
 653 0310 00F0B880 		beq	.L124
 654              		.loc 1 378 0
 655 0314 5FFA88F8 		uxtb	r8, r8
 656              	.LVL75:
 657 0318 DAE7     		b	.L97
 658              	.LVL76:
 659              	.L107:
 660              	.LBB6:
 661              		.loc 1 297 0
 662 031a 0223     		movs	r3, #2
 663              	.LVL77:
 664 031c A6E6     		b	.L31
 665              	.LVL78:
 666              	.L109:
 667 031e 0323     		movs	r3, #3
 668              	.LVL79:
 669 0320 A8E6     		b	.L40
 670              	.LVL80:
 671              	.L111:
 672 0322 0423     		movs	r3, #4
 673              	.LVL81:
 674 0324 AAE6     		b	.L49
 675              	.LVL82:
 676              	.L113:
 677 0326 0523     		movs	r3, #5
 678              	.LVL83:
 679 0328 ACE6     		b	.L58
 680              	.LVL84:
 681              	.L115:
 682 032a 0623     		movs	r3, #6
 683              	.LVL85:
 684 032c AFE6     		b	.L67
ARM GAS  C:\Users\jenny\AppData\Local\Temp\ccFzIZYt.s 			page 13


 685              	.LVL86:
 686              	.L117:
 687 032e 0723     		movs	r3, #7
 688              	.LVL87:
 689 0330 B2E6     		b	.L76
 690              	.LVL88:
 691              	.L157:
 692 0332 0823     		movs	r3, #8
 693              	.LVL89:
 694 0334 B5E6     		b	.L81
 695              	.LVL90:
 696              	.L119:
 697 0336 0923     		movs	r3, #9
 698              	.LVL91:
 699 0338 BDE6     		b	.L86
 700              	.LVL92:
 701              	.L148:
 702              		.loc 1 331 0
 703 033a 3A46     		mov	r2, r7
 704              		.loc 1 332 0
 705 033c 0221     		movs	r1, #2
 706 033e E5E6     		b	.L27
 707              	.LVL93:
 708              	.L150:
 709              		.loc 1 331 0
 710 0340 3A46     		mov	r2, r7
 711              		.loc 1 332 0
 712 0342 0321     		movs	r1, #3
 713 0344 F9E6     		b	.L36
 714              	.LVL94:
 715              	.L152:
 716              		.loc 1 331 0
 717 0346 3A46     		mov	r2, r7
 718              		.loc 1 332 0
 719 0348 0421     		movs	r1, #4
 720 034a 0DE7     		b	.L45
 721              	.LVL95:
 722              	.L164:
 723              	.LBE6:
 724              		.loc 1 388 0
 725 034c 3046     		mov	r0, r6
 726              		.loc 1 373 0
 727 034e 5FFA89F8 		uxtb	r8, r9
 728              	.LVL96:
 729              		.loc 1 388 0
 730 0352 FFF7FEFF 		bl	etharp_free_entry
 731              	.LVL97:
 732 0356 8DE7     		b	.L95
 733              	.LVL98:
 734              	.L154:
 735              	.LBB7:
 736              		.loc 1 331 0
 737 0358 3A46     		mov	r2, r7
 738              		.loc 1 332 0
 739 035a 0521     		movs	r1, #5
 740 035c 1BE7     		b	.L54
 741              	.LVL99:
ARM GAS  C:\Users\jenny\AppData\Local\Temp\ccFzIZYt.s 			page 14


 742              	.L143:
 743              		.loc 1 268 0
 744 035e 0A21     		movs	r1, #10
 745              	.LVL100:
 746              		.loc 1 270 0
 747 0360 9B46     		mov	fp, r3
 748              		.loc 1 272 0
 749 0362 8846     		mov	r8, r1
 750              		.loc 1 270 0
 751 0364 1A46     		mov	r2, r3
 752              		.loc 1 268 0
 753 0366 8946     		mov	r9, r1
 754              		.loc 1 274 0
 755 0368 CDF804B0 		str	fp, [sp, #4]
 756 036c B5E7     		b	.L101
 757              	.LVL101:
 758              	.L12:
 759              		.loc 1 310 0
 760 036e 2668     		ldr	r6, [r4, #0]
 761 0370 7B4B     		ldr	r3, .L175
 762 0372 002E     		cmp	r6, #0
 763 0374 00F0A580 		beq	.L165
 764              		.loc 1 311 0
 765 0378 DA7C     		ldrb	r2, [r3, #19]	@ zero_extendqisi2
 766              		.loc 1 312 0
 767 037a 4FF00008 		mov	r8, #0
 768              		.loc 1 268 0
 769 037e 0A21     		movs	r1, #10
 770              		.loc 1 311 0
 771 0380 0192     		str	r2, [sp, #4]
 772              	.LVL102:
 773              		.loc 1 270 0
 774 0382 C346     		mov	fp, r8
 775 0384 4246     		mov	r2, r8
 776              		.loc 1 268 0
 777 0386 8946     		mov	r9, r1
 778 0388 65E6     		b	.L13
 779              	.LVL103:
 780              	.L26:
 781              		.loc 1 310 0
 782 038a A06A     		ldr	r0, [r4, #40]
 783 038c 744F     		ldr	r7, .L175
 784 038e 0028     		cmp	r0, #0
 785 0390 00F08680 		beq	.L166
 786              		.loc 1 311 0
 787 0394 97F83B00 		ldrb	r0, [r7, #59]	@ zero_extendqisi2
 788 0398 019F     		ldr	r7, [sp, #4]
 789 039a 8742     		cmp	r7, r0
 790 039c 3FF6B6AE 		bhi	.L27
 791              	.LVL104:
 792 03a0 0190     		str	r0, [sp, #4]
 793              		.loc 1 312 0
 794 03a2 4FF00208 		mov	r8, #2
 795 03a6 B1E6     		b	.L27
 796              	.LVL105:
 797              	.L35:
 798              		.loc 1 310 0
ARM GAS  C:\Users\jenny\AppData\Local\Temp\ccFzIZYt.s 			page 15


 799 03a8 E06B     		ldr	r0, [r4, #60]
 800 03aa 6D4F     		ldr	r7, .L175
 801 03ac 0028     		cmp	r0, #0
 802 03ae 6ED0     		beq	.L167
 803              		.loc 1 311 0
 804 03b0 97F84F70 		ldrb	r7, [r7, #79]	@ zero_extendqisi2
 805 03b4 019E     		ldr	r6, [sp, #4]
 806 03b6 B742     		cmp	r7, r6
 807 03b8 FFF4BFAE 		bcc	.L36
 808              	.LVL106:
 809 03bc 0197     		str	r7, [sp, #4]
 810              		.loc 1 312 0
 811 03be 4FF00308 		mov	r8, #3
 812 03c2 BAE6     		b	.L36
 813              	.LVL107:
 814              	.L44:
 815              		.loc 1 310 0
 816 03c4 206D     		ldr	r0, [r4, #80]
 817 03c6 664F     		ldr	r7, .L175
 818 03c8 0028     		cmp	r0, #0
 819 03ca 00F08380 		beq	.L168
 820              		.loc 1 311 0
 821 03ce 97F86370 		ldrb	r7, [r7, #99]	@ zero_extendqisi2
 822 03d2 019E     		ldr	r6, [sp, #4]
 823 03d4 BE42     		cmp	r6, r7
 824 03d6 3FF6C7AE 		bhi	.L45
 825              	.LVL108:
 826 03da 0197     		str	r7, [sp, #4]
 827              		.loc 1 312 0
 828 03dc 4FF00408 		mov	r8, #4
 829 03e0 C2E6     		b	.L45
 830              	.LVL109:
 831              	.L53:
 832              		.loc 1 310 0
 833 03e2 606E     		ldr	r0, [r4, #100]
 834 03e4 5E4F     		ldr	r7, .L175
 835 03e6 0028     		cmp	r0, #0
 836 03e8 7DD0     		beq	.L169
 837              		.loc 1 311 0
 838 03ea 97F87770 		ldrb	r7, [r7, #119]	@ zero_extendqisi2
 839 03ee 019E     		ldr	r6, [sp, #4]
 840 03f0 BE42     		cmp	r6, r7
 841 03f2 3FF6D0AE 		bhi	.L54
 842              	.LVL110:
 843 03f6 0197     		str	r7, [sp, #4]
 844              		.loc 1 312 0
 845 03f8 4FF00508 		mov	r8, #5
 846 03fc CBE6     		b	.L54
 847              	.LVL111:
 848              	.L62:
 849              		.loc 1 310 0
 850 03fe A06F     		ldr	r0, [r4, #120]
 851 0400 574F     		ldr	r7, .L175
 852 0402 0028     		cmp	r0, #0
 853 0404 78D0     		beq	.L170
 854              		.loc 1 311 0
 855 0406 97F88B70 		ldrb	r7, [r7, #139]	@ zero_extendqisi2
ARM GAS  C:\Users\jenny\AppData\Local\Temp\ccFzIZYt.s 			page 16


 856 040a 019E     		ldr	r6, [sp, #4]
 857 040c B742     		cmp	r7, r6
 858 040e FFF4DBAE 		bcc	.L63
 859              	.LVL112:
 860 0412 0197     		str	r7, [sp, #4]
 861              		.loc 1 312 0
 862 0414 4FF00608 		mov	r8, #6
 863 0418 D6E6     		b	.L63
 864              	.LVL113:
 865              	.L71:
 866              		.loc 1 310 0
 867 041a D4F88C00 		ldr	r0, [r4, #140]
 868 041e 504F     		ldr	r7, .L175
 869 0420 0028     		cmp	r0, #0
 870 0422 00F08380 		beq	.L171
 871              		.loc 1 311 0
 872 0426 97F89F70 		ldrb	r7, [r7, #159]	@ zero_extendqisi2
 873 042a 019E     		ldr	r6, [sp, #4]
 874 042c B742     		cmp	r7, r6
 875 042e FFF4E5AE 		bcc	.L72
 876              	.LVL114:
 877 0432 0197     		str	r7, [sp, #4]
 878              		.loc 1 312 0
 879 0434 4FF00708 		mov	r8, #7
 880 0438 E0E6     		b	.L72
 881              	.LVL115:
 882              	.L80:
 883              		.loc 1 310 0
 884 043a D4F8A000 		ldr	r0, [r4, #160]
 885 043e 484F     		ldr	r7, .L175
 886 0440 0028     		cmp	r0, #0
 887 0442 7CD0     		beq	.L172
 888              		.loc 1 311 0
 889 0444 97F8B300 		ldrb	r0, [r7, #179]	@ zero_extendqisi2
 890 0448 019E     		ldr	r6, [sp, #4]
 891 044a B042     		cmp	r0, r6
 892 044c FFF429AE 		bcc	.L81
 893              	.LVL116:
 894 0450 0190     		str	r0, [sp, #4]
 895              		.loc 1 312 0
 896 0452 4FF00808 		mov	r8, #8
 897 0456 24E6     		b	.L81
 898              	.LVL117:
 899              	.L160:
 900              		.loc 1 310 0
 901 0458 D4F8B420 		ldr	r2, [r4, #180]
 902              	.LVL118:
 903 045c 404F     		ldr	r7, .L175
 904 045e 002A     		cmp	r2, #0
 905 0460 5DD0     		beq	.L91
 906              		.loc 1 311 0
 907 0462 97F8C720 		ldrb	r2, [r7, #199]	@ zero_extendqisi2
 908              		.loc 1 312 0
 909 0466 019E     		ldr	r6, [sp, #4]
 910 0468 B242     		cmp	r2, r6
 911 046a 28BF     		it	cs
 912 046c 4FF00908 		movcs	r8, #9
ARM GAS  C:\Users\jenny\AppData\Local\Temp\ccFzIZYt.s 			page 17


 913              	.LVL119:
 914 0470 F5E6     		b	.L92
 915              	.LVL120:
 916              	.L102:
 917              		.loc 1 274 0
 918 0472 0027     		movs	r7, #0
 919              		.loc 1 272 0
 920 0474 4FF00A08 		mov	r8, #10
 921              		.loc 1 274 0
 922 0478 0197     		str	r7, [sp, #4]
 923              		.loc 1 270 0
 924 047a 3A46     		mov	r2, r7
 925 047c BB46     		mov	fp, r7
 926              		.loc 1 268 0
 927 047e 4146     		mov	r1, r8
 928 0480 C146     		mov	r9, r8
 929 0482 E8E5     		b	.L13
 930              	.LVL121:
 931              	.L124:
 932              	.LBE7:
 933              		.loc 1 346 0
 934 0484 FF20     		movs	r0, #255
 935 0486 09E7     		b	.L89
 936              	.LVL122:
 937              	.L144:
 938              	.LBB8:
 939              		.loc 1 291 0
 940 0488 0023     		movs	r3, #0
 941              	.LVL123:
 942              	.L15:
 943              		.loc 1 305 0
 944 048a D8B2     		uxtb	r0, r3
 945 048c 06E7     		b	.L89
 946              	.LVL124:
 947              	.L167:
 948              		.loc 1 318 0
 949 048e 97F84F00 		ldrb	r0, [r7, #79]	@ zero_extendqisi2
 950 0492 8345     		cmp	fp, r0
 951 0494 3FF651AE 		bhi	.L36
 952              	.LVL125:
 953 0498 8346     		mov	fp, r0
 954              		.loc 1 319 0
 955 049a 4FF00309 		mov	r9, #3
 956 049e 4CE6     		b	.L36
 957              	.LVL126:
 958              	.L166:
 959              		.loc 1 318 0
 960 04a0 97F83B00 		ldrb	r0, [r7, #59]	@ zero_extendqisi2
 961 04a4 5845     		cmp	r0, fp
 962 04a6 FFF431AE 		bcc	.L27
 963              	.LVL127:
 964 04aa 8346     		mov	fp, r0
 965              		.loc 1 319 0
 966 04ac 4FF00209 		mov	r9, #2
 967 04b0 2CE6     		b	.L27
 968              	.LVL128:
 969              	.L146:
ARM GAS  C:\Users\jenny\AppData\Local\Temp\ccFzIZYt.s 			page 18


 970              		.loc 1 318 0
 971 04b2 97F82700 		ldrb	r0, [r7, #39]	@ zero_extendqisi2
 972 04b6 5845     		cmp	r0, fp
 973 04b8 FFF411AE 		bcc	.L20
 974              	.LVL129:
 975 04bc 8346     		mov	fp, r0
 976              		.loc 1 319 0
 977 04be D146     		mov	r9, sl
 978 04c0 0DE6     		b	.L20
 979              	.LVL130:
 980              	.L165:
 981              		.loc 1 272 0
 982 04c2 4FF00A08 		mov	r8, #10
 983              		.loc 1 274 0
 984 04c6 0196     		str	r6, [sp, #4]
 985              		.loc 1 318 0
 986 04c8 93F813B0 		ldrb	fp, [r3, #19]	@ zero_extendqisi2
 987              	.LVL131:
 988              		.loc 1 270 0
 989 04cc 3246     		mov	r2, r6
 990              		.loc 1 268 0
 991 04ce 4146     		mov	r1, r8
 992              		.loc 1 319 0
 993 04d0 B146     		mov	r9, r6
 994 04d2 C0E5     		b	.L13
 995              	.LVL132:
 996              	.L168:
 997              		.loc 1 318 0
 998 04d4 97F86300 		ldrb	r0, [r7, #99]	@ zero_extendqisi2
 999 04d8 8345     		cmp	fp, r0
 1000 04da 3FF645AE 		bhi	.L45
 1001              	.LVL133:
 1002 04de 8346     		mov	fp, r0
 1003              		.loc 1 319 0
 1004 04e0 4FF00409 		mov	r9, #4
 1005 04e4 40E6     		b	.L45
 1006              	.LVL134:
 1007              	.L169:
 1008              		.loc 1 318 0
 1009 04e6 97F87700 		ldrb	r0, [r7, #119]	@ zero_extendqisi2
 1010 04ea 8345     		cmp	fp, r0
 1011 04ec 3FF653AE 		bhi	.L54
 1012              	.LVL135:
 1013 04f0 8346     		mov	fp, r0
 1014              		.loc 1 319 0
 1015 04f2 4FF00509 		mov	r9, #5
 1016 04f6 4EE6     		b	.L54
 1017              	.LVL136:
 1018              	.L170:
 1019              		.loc 1 318 0
 1020 04f8 97F88B00 		ldrb	r0, [r7, #139]	@ zero_extendqisi2
 1021 04fc 8345     		cmp	fp, r0
 1022 04fe 3FF663AE 		bhi	.L63
 1023              	.LVL137:
 1024 0502 8346     		mov	fp, r0
 1025              		.loc 1 319 0
 1026 0504 4FF00609 		mov	r9, #6
ARM GAS  C:\Users\jenny\AppData\Local\Temp\ccFzIZYt.s 			page 19


 1027 0508 5EE6     		b	.L63
 1028              	.LVL138:
 1029              	.L147:
 1030              		.loc 1 291 0
 1031 050a 0223     		movs	r3, #2
 1032 050c BDE7     		b	.L15
 1033              	.LVL139:
 1034              	.L149:
 1035 050e 0323     		movs	r3, #3
 1036 0510 BBE7     		b	.L15
 1037              	.LVL140:
 1038              	.L163:
 1039 0512 0123     		movs	r3, #1
 1040 0514 B9E7     		b	.L15
 1041              	.LVL141:
 1042              	.L153:
 1043 0516 0523     		movs	r3, #5
 1044 0518 B7E7     		b	.L15
 1045              	.LVL142:
 1046              	.L151:
 1047 051a 0423     		movs	r3, #4
 1048 051c B5E7     		b	.L15
 1049              	.LVL143:
 1050              	.L91:
 1051              		.loc 1 318 0
 1052 051e 97F8C720 		ldrb	r2, [r7, #199]	@ zero_extendqisi2
 1053              		.loc 1 319 0
 1054 0522 5A45     		cmp	r2, fp
 1055 0524 28BF     		it	cs
 1056 0526 4FF00909 		movcs	r9, #9
 1057              	.LVL144:
 1058 052a 98E6     		b	.L92
 1059              	.LVL145:
 1060              	.L171:
 1061              		.loc 1 318 0
 1062 052c 97F89F00 		ldrb	r0, [r7, #159]	@ zero_extendqisi2
 1063 0530 5845     		cmp	r0, fp
 1064 0532 FFF463AE 		bcc	.L72
 1065              	.LVL146:
 1066 0536 8346     		mov	fp, r0
 1067              		.loc 1 319 0
 1068 0538 4FF00709 		mov	r9, #7
 1069 053c 5EE6     		b	.L72
 1070              	.LVL147:
 1071              	.L172:
 1072              		.loc 1 318 0
 1073 053e 97F8B300 		ldrb	r0, [r7, #179]	@ zero_extendqisi2
 1074 0542 5845     		cmp	r0, fp
 1075 0544 FFF4ADAD 		bcc	.L81
 1076              	.LVL148:
 1077 0548 8346     		mov	fp, r0
 1078              		.loc 1 319 0
 1079 054a 4FF00809 		mov	r9, #8
 1080 054e A8E5     		b	.L81
 1081              	.LVL149:
 1082              	.L156:
 1083              		.loc 1 291 0
ARM GAS  C:\Users\jenny\AppData\Local\Temp\ccFzIZYt.s 			page 20


 1084 0550 0723     		movs	r3, #7
 1085 0552 9AE7     		b	.L15
 1086              	.LVL150:
 1087              	.L155:
 1088 0554 0623     		movs	r3, #6
 1089 0556 98E7     		b	.L15
 1090              	.LVL151:
 1091              	.L159:
 1092              		.loc 1 302 0
 1093 0558 0923     		movs	r3, #9
 1094              	.LVL152:
 1095 055a 96E7     		b	.L15
 1096              	.LVL153:
 1097              	.L158:
 1098              		.loc 1 291 0
 1099 055c 0823     		movs	r3, #8
 1100 055e 94E7     		b	.L15
 1101              	.L176:
 1102              		.align	2
 1103              	.L175:
 1104 0560 00000000 		.word	.LANCHOR0
 1105              	.LBE8:
 1106              		.cfi_endproc
 1107              	.LFE9:
 1108              		.size	etharp_find_entry, .-etharp_find_entry
 1109 0564 AFF30080 		.section	.text.etharp_send_ip,"ax",%progbits
 1109      AFF30080 
 1109      AFF30080 
 1110              		.align	2
 1111              		.p2align 4,,15
 1112              		.thumb
 1113              		.thumb_func
 1114              		.type	etharp_send_ip, %function
 1115              	etharp_send_ip:
 1116              	.LFB10:
 1117              		.loc 1 416 0
 1118              		.cfi_startproc
 1119              		@ args = 0, pretend = 0, frame = 0
 1120              		@ frame_needed = 0, uses_anonymous_args = 0
 1121              	.LVL154:
 1122 0000 2DE9F041 		push	{r4, r5, r6, r7, r8, lr}
 1123              	.LCFI3:
 1124              		.cfi_def_cfa_offset 24
 1125              		.cfi_offset 4, -24
 1126              		.cfi_offset 5, -20
 1127              		.cfi_offset 6, -16
 1128              		.cfi_offset 7, -12
 1129              		.cfi_offset 8, -8
 1130              		.cfi_offset 14, -4
 1131              		.loc 1 416 0
 1132 0004 0E46     		mov	r6, r1
 1133              		.loc 1 419 0
 1134 0006 90F82210 		ldrb	r1, [r0, #34]	@ zero_extendqisi2
 1135              	.LVL155:
 1136              		.loc 1 417 0
 1137 000a 7468     		ldr	r4, [r6, #4]
 1138              	.LVL156:
ARM GAS  C:\Users\jenny\AppData\Local\Temp\ccFzIZYt.s 			page 21


 1139              		.loc 1 419 0
 1140 000c 0629     		cmp	r1, #6
 1141              		.loc 1 416 0
 1142 000e 0546     		mov	r5, r0
 1143 0010 1746     		mov	r7, r2
 1144 0012 9846     		mov	r8, r3
 1145              		.loc 1 419 0
 1146 0014 01D0     		beq	.L178
 1147              		.loc 1 419 0 is_stmt 0 discriminator 1
 1148 0016 FFF7FEFF 		bl	port_halt
 1149              	.LVL157:
 1150              	.L178:
 1151              		.loc 1 421 0 is_stmt 1
 1152 001a D8F80030 		ldr	r3, [r8, #0]	@ unaligned
 1153 001e 2360     		str	r3, [r4, #0]	@ unaligned
 1154 0020 B8F80400 		ldrh	r0, [r8, #4]	@ unaligned
 1155 0024 A080     		strh	r0, [r4, #4]	@ unaligned
 1156              		.loc 1 422 0
 1157 0026 3A68     		ldr	r2, [r7, #0]	@ unaligned
 1158 0028 C4F80620 		str	r2, [r4, #6]	@ unaligned
 1159 002c B988     		ldrh	r1, [r7, #4]	@ unaligned
 1160              		.loc 1 423 0
 1161 002e 0020     		movs	r0, #0
 1162 0030 0823     		movs	r3, #8
 1163              		.loc 1 422 0
 1164 0032 6181     		strh	r1, [r4, #10]	@ unaligned
 1165              		.loc 1 423 0
 1166 0034 6073     		strb	r0, [r4, #13]
 1167 0036 2373     		strb	r3, [r4, #12]
 1168              		.loc 1 426 0
 1169 0038 AA69     		ldr	r2, [r5, #24]
 1170 003a 2846     		mov	r0, r5
 1171 003c 3146     		mov	r1, r6
 1172 003e 9047     		blx	r2
 1173              	.LVL158:
 1174              		.loc 1 427 0
 1175 0040 BDE8F081 		pop	{r4, r5, r6, r7, r8, pc}
 1176              		.cfi_endproc
 1177              	.LFE10:
 1178              		.size	etharp_send_ip, .-etharp_send_ip
 1179 0044 AFF30080 		.section	.text.etharp_tmr,"ax",%progbits
 1179      AFF30080 
 1179      AFF30080 
 1180              		.align	2
 1181              		.p2align 4,,15
 1182              		.global	etharp_tmr
 1183              		.thumb
 1184              		.thumb_func
 1185              		.type	etharp_tmr, %function
 1186              	etharp_tmr:
 1187              	.LFB8:
 1188              		.loc 1 207 0
 1189              		.cfi_startproc
 1190              		@ args = 0, pretend = 0, frame = 0
 1191              		@ frame_needed = 0, uses_anonymous_args = 0
 1192              	.LVL159:
 1193 0000 10B5     		push	{r4, lr}
ARM GAS  C:\Users\jenny\AppData\Local\Temp\ccFzIZYt.s 			page 22


 1194              	.LCFI4:
 1195              		.cfi_def_cfa_offset 8
 1196              		.cfi_offset 4, -8
 1197              		.cfi_offset 14, -4
 1198              	.LBB9:
 1199              		.loc 1 213 0
 1200 0002 8C4C     		ldr	r4, .L271
 1201              		.loc 1 214 0
 1202 0004 A37C     		ldrb	r3, [r4, #18]	@ zero_extendqisi2
 1203 0006 63B1     		cbz	r3, .L185
 1204              		.loc 1 219 0
 1205 0008 E27C     		ldrb	r2, [r4, #19]	@ zero_extendqisi2
 1206 000a 501C     		adds	r0, r2, #1
 1207 000c C1B2     		uxtb	r1, r0
 1208              		.loc 1 220 0
 1209 000e EF29     		cmp	r1, #239
 1210              		.loc 1 219 0
 1211 0010 E174     		strb	r1, [r4, #19]
 1212              		.loc 1 220 0
 1213 0012 00F2AF80 		bhi	.L187
 1214 0016 012B     		cmp	r3, #1
 1215 0018 00F0A980 		beq	.L186
 1216              		.loc 1 229 0
 1217 001c 032B     		cmp	r3, #3
 1218 001e 00F0E180 		beq	.L260
 1219              	.LVL160:
 1220              	.L185:
 1221              		.loc 1 214 0
 1222 0022 94F82600 		ldrb	r0, [r4, #38]	@ zero_extendqisi2
 1223              		.loc 1 213 0
 1224 0026 834A     		ldr	r2, .L271
 1225              		.loc 1 214 0
 1226 0028 70B1     		cbz	r0, .L190
 1227              		.loc 1 219 0
 1228 002a 92F82710 		ldrb	r1, [r2, #39]	@ zero_extendqisi2
 1229 002e 4B1C     		adds	r3, r1, #1
 1230 0030 D9B2     		uxtb	r1, r3
 1231              		.loc 1 220 0
 1232 0032 EF29     		cmp	r1, #239
 1233              		.loc 1 219 0
 1234 0034 82F82710 		strb	r1, [r2, #39]
 1235              		.loc 1 220 0
 1236 0038 00F29580 		bhi	.L192
 1237 003c 0128     		cmp	r0, #1
 1238 003e 00F08F80 		beq	.L191
 1239              		.loc 1 229 0
 1240 0042 0328     		cmp	r0, #3
 1241 0044 00F0D180 		beq	.L261
 1242              	.LVL161:
 1243              	.L190:
 1244              		.loc 1 214 0
 1245 0048 94F83A30 		ldrb	r3, [r4, #58]	@ zero_extendqisi2
 1246              		.loc 1 213 0
 1247 004c 794A     		ldr	r2, .L271
 1248              		.loc 1 214 0
 1249 004e 73B1     		cbz	r3, .L195
 1250              		.loc 1 219 0
ARM GAS  C:\Users\jenny\AppData\Local\Temp\ccFzIZYt.s 			page 23


 1251 0050 92F83B10 		ldrb	r1, [r2, #59]	@ zero_extendqisi2
 1252 0054 481C     		adds	r0, r1, #1
 1253 0056 C1B2     		uxtb	r1, r0
 1254              		.loc 1 220 0
 1255 0058 EF29     		cmp	r1, #239
 1256              		.loc 1 219 0
 1257 005a 82F83B10 		strb	r1, [r2, #59]
 1258              		.loc 1 220 0
 1259 005e 00F2B080 		bhi	.L197
 1260 0062 012B     		cmp	r3, #1
 1261 0064 00F0AA80 		beq	.L196
 1262              		.loc 1 229 0
 1263 0068 032B     		cmp	r3, #3
 1264 006a 00F0C280 		beq	.L262
 1265              	.LVL162:
 1266              	.L195:
 1267              		.loc 1 214 0
 1268 006e 94F84E00 		ldrb	r0, [r4, #78]	@ zero_extendqisi2
 1269              		.loc 1 213 0
 1270 0072 704A     		ldr	r2, .L271
 1271              		.loc 1 214 0
 1272 0074 70B1     		cbz	r0, .L200
 1273              		.loc 1 219 0
 1274 0076 92F84F10 		ldrb	r1, [r2, #79]	@ zero_extendqisi2
 1275 007a 4B1C     		adds	r3, r1, #1
 1276 007c D9B2     		uxtb	r1, r3
 1277              		.loc 1 220 0
 1278 007e EF29     		cmp	r1, #239
 1279              		.loc 1 219 0
 1280 0080 82F84F10 		strb	r1, [r2, #79]
 1281              		.loc 1 220 0
 1282 0084 00F29680 		bhi	.L202
 1283 0088 0128     		cmp	r0, #1
 1284 008a 00F09080 		beq	.L201
 1285              		.loc 1 229 0
 1286 008e 0328     		cmp	r0, #3
 1287 0090 00F0B380 		beq	.L263
 1288              	.LVL163:
 1289              	.L200:
 1290              		.loc 1 214 0
 1291 0094 94F86230 		ldrb	r3, [r4, #98]	@ zero_extendqisi2
 1292              		.loc 1 213 0
 1293 0098 664A     		ldr	r2, .L271
 1294              		.loc 1 214 0
 1295 009a 73B1     		cbz	r3, .L205
 1296              		.loc 1 219 0
 1297 009c 92F86310 		ldrb	r1, [r2, #99]	@ zero_extendqisi2
 1298 00a0 481C     		adds	r0, r1, #1
 1299 00a2 C1B2     		uxtb	r1, r0
 1300              		.loc 1 220 0
 1301 00a4 EF29     		cmp	r1, #239
 1302              		.loc 1 219 0
 1303 00a6 82F86310 		strb	r1, [r2, #99]
 1304              		.loc 1 220 0
 1305 00aa 00F29780 		bhi	.L207
 1306 00ae 012B     		cmp	r3, #1
 1307 00b0 00F09180 		beq	.L206
ARM GAS  C:\Users\jenny\AppData\Local\Temp\ccFzIZYt.s 			page 24


 1308              		.loc 1 229 0
 1309 00b4 032B     		cmp	r3, #3
 1310 00b6 00F0A480 		beq	.L264
 1311              	.LVL164:
 1312              	.L205:
 1313              		.loc 1 214 0
 1314 00ba 94F87600 		ldrb	r0, [r4, #118]	@ zero_extendqisi2
 1315              		.loc 1 213 0
 1316 00be 5D4A     		ldr	r2, .L271
 1317              		.loc 1 214 0
 1318 00c0 60B1     		cbz	r0, .L210
 1319              		.loc 1 219 0
 1320 00c2 92F87710 		ldrb	r1, [r2, #119]	@ zero_extendqisi2
 1321 00c6 4B1C     		adds	r3, r1, #1
 1322 00c8 D9B2     		uxtb	r1, r3
 1323              		.loc 1 220 0
 1324 00ca EF29     		cmp	r1, #239
 1325              		.loc 1 219 0
 1326 00cc 82F87710 		strb	r1, [r2, #119]
 1327              		.loc 1 220 0
 1328 00d0 7DD8     		bhi	.L212
 1329 00d2 0128     		cmp	r0, #1
 1330 00d4 79D0     		beq	.L211
 1331              		.loc 1 229 0
 1332 00d6 0328     		cmp	r0, #3
 1333 00d8 00F09780 		beq	.L265
 1334              	.LVL165:
 1335              	.L210:
 1336              		.loc 1 214 0
 1337 00dc 94F88A30 		ldrb	r3, [r4, #138]	@ zero_extendqisi2
 1338              		.loc 1 213 0
 1339 00e0 544A     		ldr	r2, .L271
 1340              		.loc 1 214 0
 1341 00e2 63B1     		cbz	r3, .L215
 1342              		.loc 1 219 0
 1343 00e4 92F88B10 		ldrb	r1, [r2, #139]	@ zero_extendqisi2
 1344 00e8 481C     		adds	r0, r1, #1
 1345 00ea C1B2     		uxtb	r1, r0
 1346              		.loc 1 220 0
 1347 00ec EF29     		cmp	r1, #239
 1348              		.loc 1 219 0
 1349 00ee 82F88B10 		strb	r1, [r2, #139]
 1350              		.loc 1 220 0
 1351 00f2 4BD8     		bhi	.L217
 1352 00f4 012B     		cmp	r3, #1
 1353 00f6 47D0     		beq	.L216
 1354              		.loc 1 229 0
 1355 00f8 032B     		cmp	r3, #3
 1356 00fa 00F08A80 		beq	.L266
 1357              	.LVL166:
 1358              	.L215:
 1359              		.loc 1 214 0
 1360 00fe 94F89E00 		ldrb	r0, [r4, #158]	@ zero_extendqisi2
 1361              		.loc 1 213 0
 1362 0102 4C4A     		ldr	r2, .L271
 1363              		.loc 1 214 0
 1364 0104 58B1     		cbz	r0, .L220
ARM GAS  C:\Users\jenny\AppData\Local\Temp\ccFzIZYt.s 			page 25


 1365              		.loc 1 219 0
 1366 0106 92F89F10 		ldrb	r1, [r2, #159]	@ zero_extendqisi2
 1367 010a 4B1C     		adds	r3, r1, #1
 1368 010c D9B2     		uxtb	r1, r3
 1369              		.loc 1 220 0
 1370 010e EF29     		cmp	r1, #239
 1371              		.loc 1 219 0
 1372 0110 82F89F10 		strb	r1, [r2, #159]
 1373              		.loc 1 220 0
 1374 0114 34D8     		bhi	.L222
 1375 0116 0128     		cmp	r0, #1
 1376 0118 30D0     		beq	.L221
 1377              		.loc 1 229 0
 1378 011a 0328     		cmp	r0, #3
 1379 011c 7DD0     		beq	.L267
 1380              	.LVL167:
 1381              	.L220:
 1382              		.loc 1 214 0
 1383 011e 94F8B230 		ldrb	r3, [r4, #178]	@ zero_extendqisi2
 1384              		.loc 1 213 0
 1385 0122 444A     		ldr	r2, .L271
 1386              		.loc 1 214 0
 1387 0124 5BB1     		cbz	r3, .L225
 1388              		.loc 1 219 0
 1389 0126 92F8B310 		ldrb	r1, [r2, #179]	@ zero_extendqisi2
 1390 012a 481C     		adds	r0, r1, #1
 1391 012c C1B2     		uxtb	r1, r0
 1392              		.loc 1 220 0
 1393 012e EF29     		cmp	r1, #239
 1394              		.loc 1 219 0
 1395 0130 82F8B310 		strb	r1, [r2, #179]
 1396              		.loc 1 220 0
 1397 0134 37D8     		bhi	.L227
 1398 0136 012B     		cmp	r3, #1
 1399 0138 33D0     		beq	.L226
 1400              		.loc 1 229 0
 1401 013a 032B     		cmp	r3, #3
 1402 013c 71D0     		beq	.L268
 1403              	.LVL168:
 1404              	.L225:
 1405              		.loc 1 214 0
 1406 013e 94F8C600 		ldrb	r0, [r4, #198]	@ zero_extendqisi2
 1407              		.loc 1 213 0
 1408 0142 3C4A     		ldr	r2, .L271
 1409              		.loc 1 214 0
 1410 0144 58B1     		cbz	r0, .L182
 1411              		.loc 1 219 0
 1412 0146 92F8C710 		ldrb	r1, [r2, #199]	@ zero_extendqisi2
 1413 014a 4B1C     		adds	r3, r1, #1
 1414 014c D9B2     		uxtb	r1, r3
 1415              		.loc 1 220 0
 1416 014e EF29     		cmp	r1, #239
 1417              		.loc 1 219 0
 1418 0150 82F8C710 		strb	r1, [r2, #199]
 1419              		.loc 1 220 0
 1420 0154 20D8     		bhi	.L230
 1421              		.loc 1 220 0 is_stmt 0 discriminator 1
ARM GAS  C:\Users\jenny\AppData\Local\Temp\ccFzIZYt.s 			page 26


 1422 0156 0128     		cmp	r0, #1
 1423 0158 1CD0     		beq	.L269
 1424              		.loc 1 229 0 is_stmt 1
 1425 015a 0328     		cmp	r0, #3
 1426 015c 65D0     		beq	.L270
 1427              	.LVL169:
 1428              	.L182:
 1429 015e 10BD     		pop	{r4, pc}
 1430              	.LVL170:
 1431              	.L191:
 1432              		.loc 1 221 0
 1433 0160 0129     		cmp	r1, #1
 1434 0162 7FF671AF 		bls	.L190
 1435              	.L192:
 1436              		.loc 1 227 0
 1437 0166 0120     		movs	r0, #1
 1438 0168 FFF7FEFF 		bl	etharp_free_entry
 1439              	.LVL171:
 1440 016c 6CE7     		b	.L190
 1441              	.LVL172:
 1442              	.L186:
 1443              		.loc 1 221 0
 1444 016e 0129     		cmp	r1, #1
 1445 0170 7FF657AF 		bls	.L185
 1446              	.L187:
 1447              		.loc 1 227 0
 1448 0174 0020     		movs	r0, #0
 1449 0176 FFF7FEFF 		bl	etharp_free_entry
 1450              	.LVL173:
 1451 017a 52E7     		b	.L185
 1452              	.LVL174:
 1453              	.L221:
 1454              		.loc 1 221 0
 1455 017c 0129     		cmp	r1, #1
 1456 017e CED9     		bls	.L220
 1457              	.L222:
 1458              		.loc 1 227 0
 1459 0180 0720     		movs	r0, #7
 1460 0182 FFF7FEFF 		bl	etharp_free_entry
 1461              	.LVL175:
 1462 0186 CAE7     		b	.L220
 1463              	.LVL176:
 1464              	.L216:
 1465              		.loc 1 221 0
 1466 0188 0129     		cmp	r1, #1
 1467 018a B8D9     		bls	.L215
 1468              	.L217:
 1469              		.loc 1 227 0
 1470 018c 0620     		movs	r0, #6
 1471 018e FFF7FEFF 		bl	etharp_free_entry
 1472              	.LVL177:
 1473 0192 B4E7     		b	.L215
 1474              	.LVL178:
 1475              	.L269:
 1476              		.loc 1 221 0
 1477 0194 0129     		cmp	r1, #1
 1478 0196 E2D9     		bls	.L182
ARM GAS  C:\Users\jenny\AppData\Local\Temp\ccFzIZYt.s 			page 27


 1479              	.L230:
 1480              		.loc 1 227 0
 1481 0198 0920     		movs	r0, #9
 1482              	.LBE9:
 1483              		.loc 1 242 0
 1484 019a BDE81040 		pop	{r4, lr}
 1485              	.LBB10:
 1486              		.loc 1 227 0
 1487 019e FFF7FEBF 		b	etharp_free_entry
 1488              	.LVL179:
 1489              	.L226:
 1490              		.loc 1 221 0
 1491 01a2 0129     		cmp	r1, #1
 1492 01a4 CBD9     		bls	.L225
 1493              	.L227:
 1494              		.loc 1 227 0
 1495 01a6 0820     		movs	r0, #8
 1496 01a8 FFF7FEFF 		bl	etharp_free_entry
 1497              	.LVL180:
 1498 01ac C7E7     		b	.L225
 1499              	.LVL181:
 1500              	.L201:
 1501              		.loc 1 221 0
 1502 01ae 0129     		cmp	r1, #1
 1503 01b0 7FF670AF 		bls	.L200
 1504              	.L202:
 1505              		.loc 1 227 0
 1506 01b4 0320     		movs	r0, #3
 1507 01b6 FFF7FEFF 		bl	etharp_free_entry
 1508              	.LVL182:
 1509 01ba 6BE7     		b	.L200
 1510              	.LVL183:
 1511              	.L196:
 1512              		.loc 1 221 0
 1513 01bc 0129     		cmp	r1, #1
 1514 01be 7FF656AF 		bls	.L195
 1515              	.L197:
 1516              		.loc 1 227 0
 1517 01c2 0220     		movs	r0, #2
 1518 01c4 FFF7FEFF 		bl	etharp_free_entry
 1519              	.LVL184:
 1520 01c8 51E7     		b	.L195
 1521              	.LVL185:
 1522              	.L211:
 1523              		.loc 1 221 0
 1524 01ca 0129     		cmp	r1, #1
 1525 01cc 86D9     		bls	.L210
 1526              	.L212:
 1527              		.loc 1 227 0
 1528 01ce 0520     		movs	r0, #5
 1529 01d0 FFF7FEFF 		bl	etharp_free_entry
 1530              	.LVL186:
 1531 01d4 82E7     		b	.L210
 1532              	.LVL187:
 1533              	.L206:
 1534              		.loc 1 221 0
 1535 01d6 0129     		cmp	r1, #1
ARM GAS  C:\Users\jenny\AppData\Local\Temp\ccFzIZYt.s 			page 28


 1536 01d8 7FF66FAF 		bls	.L205
 1537              	.L207:
 1538              		.loc 1 227 0
 1539 01dc 0420     		movs	r0, #4
 1540 01de FFF7FEFF 		bl	etharp_free_entry
 1541              	.LVL188:
 1542 01e2 6AE7     		b	.L205
 1543              	.LVL189:
 1544              	.L260:
 1545              		.loc 1 232 0
 1546 01e4 0223     		movs	r3, #2
 1547 01e6 A374     		strb	r3, [r4, #18]
 1548 01e8 1BE7     		b	.L185
 1549              	.LVL190:
 1550              	.L261:
 1551 01ea 0220     		movs	r0, #2
 1552 01ec 82F82600 		strb	r0, [r2, #38]
 1553 01f0 2AE7     		b	.L190
 1554              	.LVL191:
 1555              	.L262:
 1556 01f2 0223     		movs	r3, #2
 1557 01f4 82F83A30 		strb	r3, [r2, #58]
 1558 01f8 39E7     		b	.L195
 1559              	.LVL192:
 1560              	.L263:
 1561 01fa 0220     		movs	r0, #2
 1562 01fc 82F84E00 		strb	r0, [r2, #78]
 1563 0200 48E7     		b	.L200
 1564              	.LVL193:
 1565              	.L264:
 1566 0202 0223     		movs	r3, #2
 1567 0204 82F86230 		strb	r3, [r2, #98]
 1568 0208 57E7     		b	.L205
 1569              	.LVL194:
 1570              	.L265:
 1571 020a 0220     		movs	r0, #2
 1572 020c 82F87600 		strb	r0, [r2, #118]
 1573 0210 64E7     		b	.L210
 1574              	.LVL195:
 1575              	.L266:
 1576 0212 0223     		movs	r3, #2
 1577 0214 82F88A30 		strb	r3, [r2, #138]
 1578 0218 71E7     		b	.L215
 1579              	.LVL196:
 1580              	.L267:
 1581 021a 0220     		movs	r0, #2
 1582 021c 82F89E00 		strb	r0, [r2, #158]
 1583 0220 7DE7     		b	.L220
 1584              	.LVL197:
 1585              	.L268:
 1586 0222 0223     		movs	r3, #2
 1587 0224 82F8B230 		strb	r3, [r2, #178]
 1588 0228 89E7     		b	.L225
 1589              	.LVL198:
 1590              	.L270:
 1591 022a 0220     		movs	r0, #2
 1592 022c 82F8C600 		strb	r0, [r2, #198]
ARM GAS  C:\Users\jenny\AppData\Local\Temp\ccFzIZYt.s 			page 29


 1593              	.LVL199:
 1594 0230 95E7     		b	.L182
 1595              	.L272:
 1596 0232 00BF     		.align	2
 1597              	.L271:
 1598 0234 00000000 		.word	.LANCHOR0
 1599              	.LBE10:
 1600              		.cfi_endproc
 1601              	.LFE8:
 1602              		.size	etharp_tmr, .-etharp_tmr
 1603 0238 AFF30080 		.section	.text.etharp_cleanup_netif,"ax",%progbits
 1603      AFF30080 
 1604              		.align	2
 1605              		.p2align 4,,15
 1606              		.global	etharp_cleanup_netif
 1607              		.thumb
 1608              		.thumb_func
 1609              		.type	etharp_cleanup_netif, %function
 1610              	etharp_cleanup_netif:
 1611              	.LFB12:
 1612              		.loc 1 580 0
 1613              		.cfi_startproc
 1614              		@ args = 0, pretend = 0, frame = 0
 1615              		@ frame_needed = 0, uses_anonymous_args = 0
 1616              	.LVL200:
 1617 0000 38B5     		push	{r3, r4, r5, lr}
 1618              	.LCFI5:
 1619              		.cfi_def_cfa_offset 16
 1620              		.cfi_offset 3, -16
 1621              		.cfi_offset 4, -12
 1622              		.cfi_offset 5, -8
 1623              		.cfi_offset 14, -4
 1624              	.LBB11:
 1625              		.loc 1 584 0
 1626 0002 3A4C     		ldr	r4, .L324
 1627              		.loc 1 585 0
 1628 0004 A37C     		ldrb	r3, [r4, #18]	@ zero_extendqisi2
 1629              	.LBE11:
 1630              		.loc 1 580 0
 1631 0006 0546     		mov	r5, r0
 1632              	.LBB12:
 1633              		.loc 1 585 0
 1634 0008 13B1     		cbz	r3, .L274
 1635 000a A068     		ldr	r0, [r4, #8]
 1636              	.LVL201:
 1637 000c A842     		cmp	r0, r5
 1638 000e 68D0     		beq	.L314
 1639              	.LVL202:
 1640              	.L274:
 1641 0010 94F82610 		ldrb	r1, [r4, #38]	@ zero_extendqisi2
 1642 0014 19B1     		cbz	r1, .L275
 1643 0016 354A     		ldr	r2, .L324
 1644 0018 D369     		ldr	r3, [r2, #28]
 1645 001a AB42     		cmp	r3, r5
 1646 001c 5DD0     		beq	.L315
 1647              	.LVL203:
 1648              	.L275:
ARM GAS  C:\Users\jenny\AppData\Local\Temp\ccFzIZYt.s 			page 30


 1649 001e 94F83A00 		ldrb	r0, [r4, #58]	@ zero_extendqisi2
 1650 0022 18B1     		cbz	r0, .L276
 1651 0024 3149     		ldr	r1, .L324
 1652 0026 0A6B     		ldr	r2, [r1, #48]
 1653 0028 AA42     		cmp	r2, r5
 1654 002a 52D0     		beq	.L316
 1655              	.LVL204:
 1656              	.L276:
 1657 002c 94F84E30 		ldrb	r3, [r4, #78]	@ zero_extendqisi2
 1658 0030 1BB1     		cbz	r3, .L277
 1659 0032 2E48     		ldr	r0, .L324
 1660 0034 416C     		ldr	r1, [r0, #68]
 1661 0036 A942     		cmp	r1, r5
 1662 0038 47D0     		beq	.L317
 1663              	.LVL205:
 1664              	.L277:
 1665 003a 94F86220 		ldrb	r2, [r4, #98]	@ zero_extendqisi2
 1666 003e 1AB1     		cbz	r2, .L278
 1667 0040 2A4B     		ldr	r3, .L324
 1668 0042 986D     		ldr	r0, [r3, #88]
 1669 0044 A842     		cmp	r0, r5
 1670 0046 3CD0     		beq	.L318
 1671              	.LVL206:
 1672              	.L278:
 1673 0048 94F87610 		ldrb	r1, [r4, #118]	@ zero_extendqisi2
 1674 004c 19B1     		cbz	r1, .L279
 1675 004e 274A     		ldr	r2, .L324
 1676 0050 D36E     		ldr	r3, [r2, #108]
 1677 0052 AB42     		cmp	r3, r5
 1678 0054 31D0     		beq	.L319
 1679              	.LVL207:
 1680              	.L279:
 1681 0056 94F88A00 		ldrb	r0, [r4, #138]	@ zero_extendqisi2
 1682 005a 20B1     		cbz	r0, .L280
 1683 005c 2349     		ldr	r1, .L324
 1684 005e D1F88020 		ldr	r2, [r1, #128]
 1685 0062 AA42     		cmp	r2, r5
 1686 0064 25D0     		beq	.L320
 1687              	.LVL208:
 1688              	.L280:
 1689 0066 94F89E30 		ldrb	r3, [r4, #158]	@ zero_extendqisi2
 1690 006a 23B1     		cbz	r3, .L281
 1691 006c 1F48     		ldr	r0, .L324
 1692 006e D0F89410 		ldr	r1, [r0, #148]
 1693 0072 A942     		cmp	r1, r5
 1694 0074 19D0     		beq	.L321
 1695              	.LVL209:
 1696              	.L281:
 1697 0076 94F8B220 		ldrb	r2, [r4, #178]	@ zero_extendqisi2
 1698 007a 22B1     		cbz	r2, .L282
 1699 007c 1B4B     		ldr	r3, .L324
 1700 007e D3F8A800 		ldr	r0, [r3, #168]
 1701 0082 A842     		cmp	r0, r5
 1702 0084 0DD0     		beq	.L322
 1703              	.LVL210:
 1704              	.L282:
 1705 0086 94F8C610 		ldrb	r1, [r4, #198]	@ zero_extendqisi2
ARM GAS  C:\Users\jenny\AppData\Local\Temp\ccFzIZYt.s 			page 31


 1706 008a 21B1     		cbz	r1, .L273
 1707              		.loc 1 585 0 is_stmt 0 discriminator 1
 1708 008c 174A     		ldr	r2, .L324
 1709 008e D2F8BC30 		ldr	r3, [r2, #188]
 1710 0092 AB42     		cmp	r3, r5
 1711 0094 00D0     		beq	.L323
 1712              	.L273:
 1713 0096 38BD     		pop	{r3, r4, r5, pc}
 1714              	.L323:
 1715              		.loc 1 586 0 is_stmt 1
 1716 0098 0920     		movs	r0, #9
 1717              	.LBE12:
 1718              		.loc 1 589 0
 1719 009a BDE83840 		pop	{r3, r4, r5, lr}
 1720              	.LBB13:
 1721              		.loc 1 586 0
 1722 009e FFF7FEBF 		b	etharp_free_entry
 1723              	.LVL211:
 1724              	.L322:
 1725 00a2 0820     		movs	r0, #8
 1726 00a4 FFF7FEFF 		bl	etharp_free_entry
 1727              	.LVL212:
 1728 00a8 EDE7     		b	.L282
 1729              	.LVL213:
 1730              	.L321:
 1731 00aa 0720     		movs	r0, #7
 1732 00ac FFF7FEFF 		bl	etharp_free_entry
 1733              	.LVL214:
 1734 00b0 E1E7     		b	.L281
 1735              	.LVL215:
 1736              	.L320:
 1737 00b2 0620     		movs	r0, #6
 1738 00b4 FFF7FEFF 		bl	etharp_free_entry
 1739              	.LVL216:
 1740 00b8 D5E7     		b	.L280
 1741              	.LVL217:
 1742              	.L319:
 1743 00ba 0520     		movs	r0, #5
 1744 00bc FFF7FEFF 		bl	etharp_free_entry
 1745              	.LVL218:
 1746 00c0 C9E7     		b	.L279
 1747              	.LVL219:
 1748              	.L318:
 1749 00c2 0420     		movs	r0, #4
 1750 00c4 FFF7FEFF 		bl	etharp_free_entry
 1751              	.LVL220:
 1752 00c8 BEE7     		b	.L278
 1753              	.LVL221:
 1754              	.L317:
 1755 00ca 0320     		movs	r0, #3
 1756 00cc FFF7FEFF 		bl	etharp_free_entry
 1757              	.LVL222:
 1758 00d0 B3E7     		b	.L277
 1759              	.LVL223:
 1760              	.L316:
 1761 00d2 0220     		movs	r0, #2
 1762 00d4 FFF7FEFF 		bl	etharp_free_entry
ARM GAS  C:\Users\jenny\AppData\Local\Temp\ccFzIZYt.s 			page 32


 1763              	.LVL224:
 1764 00d8 A8E7     		b	.L276
 1765              	.LVL225:
 1766              	.L315:
 1767 00da 0120     		movs	r0, #1
 1768 00dc FFF7FEFF 		bl	etharp_free_entry
 1769              	.LVL226:
 1770 00e0 9DE7     		b	.L275
 1771              	.LVL227:
 1772              	.L314:
 1773 00e2 0020     		movs	r0, #0
 1774 00e4 FFF7FEFF 		bl	etharp_free_entry
 1775              	.LVL228:
 1776 00e8 92E7     		b	.L274
 1777              	.L325:
 1778 00ea 00BF     		.align	2
 1779              	.L324:
 1780 00ec 00000000 		.word	.LANCHOR0
 1781              	.LBE13:
 1782              		.cfi_endproc
 1783              	.LFE12:
 1784              		.size	etharp_cleanup_netif, .-etharp_cleanup_netif
 1785              		.section	.text.etharp_find_addr,"ax",%progbits
 1786              		.align	2
 1787              		.p2align 4,,15
 1788              		.global	etharp_find_addr
 1789              		.thumb
 1790              		.thumb_func
 1791              		.type	etharp_find_addr, %function
 1792              	etharp_find_addr:
 1793              	.LFB13:
 1794              		.loc 1 605 0
 1795              		.cfi_startproc
 1796              		@ args = 0, pretend = 0, frame = 0
 1797              		@ frame_needed = 0, uses_anonymous_args = 0
 1798              	.LVL229:
 1799 0000 70B5     		push	{r4, r5, r6, lr}
 1800              	.LCFI6:
 1801              		.cfi_def_cfa_offset 16
 1802              		.cfi_offset 4, -16
 1803              		.cfi_offset 5, -12
 1804              		.cfi_offset 6, -8
 1805              		.cfi_offset 14, -4
 1806              		.loc 1 608 0
 1807 0002 1446     		mov	r4, r2
 1808              		.loc 1 605 0
 1809 0004 0D46     		mov	r5, r1
 1810 0006 1E46     		mov	r6, r3
 1811              		.loc 1 608 0
 1812 0008 AAB1     		cbz	r2, .L327
 1813              		.loc 1 608 0 is_stmt 0 discriminator 2
 1814 000a A3B1     		cbz	r3, .L327
 1815              	.LVL230:
 1816              	.L328:
 1817              		.loc 1 613 0 is_stmt 1
 1818 000c 0221     		movs	r1, #2
 1819 000e 2846     		mov	r0, r5
ARM GAS  C:\Users\jenny\AppData\Local\Temp\ccFzIZYt.s 			page 33


 1820 0010 FFF7FEFF 		bl	etharp_find_entry
 1821              	.LVL231:
 1822              		.loc 1 614 0
 1823 0014 0028     		cmp	r0, #0
 1824              	.LVL232:
 1825 0016 11DB     		blt	.L331
 1826              		.loc 1 614 0 is_stmt 0 discriminator 1
 1827 0018 094D     		ldr	r5, .L335
 1828              	.LVL233:
 1829 001a 00EB8001 		add	r1, r0, r0, lsl #2
 1830 001e 8A00     		lsls	r2, r1, #2
 1831 0020 AA18     		adds	r2, r5, r2
 1832 0022 937C     		ldrb	r3, [r2, #18]	@ zero_extendqisi2
 1833 0024 012B     		cmp	r3, #1
 1834 0026 09D9     		bls	.L331
 1835              		.loc 1 615 0 is_stmt 1
 1836 0028 1146     		mov	r1, r2
 1837 002a 0C31     		adds	r1, r1, #12
 1838              		.loc 1 616 0
 1839 002c 0432     		adds	r2, r2, #4
 1840              		.loc 1 615 0
 1841 002e 2160     		str	r1, [r4, #0]
 1842              		.loc 1 616 0
 1843 0030 3260     		str	r2, [r6, #0]
 1844              	.L329:
 1845              		.loc 1 620 0
 1846 0032 40B2     		sxtb	r0, r0
 1847 0034 70BD     		pop	{r4, r5, r6, pc}
 1848              	.LVL234:
 1849              	.L327:
 1850              		.loc 1 608 0 discriminator 1
 1851 0036 FFF7FEFF 		bl	port_halt
 1852              	.LVL235:
 1853 003a E7E7     		b	.L328
 1854              	.LVL236:
 1855              	.L331:
 1856              		.loc 1 619 0
 1857 003c FF20     		movs	r0, #255
 1858 003e F8E7     		b	.L329
 1859              	.L336:
 1860              		.align	2
 1861              	.L335:
 1862 0040 00000000 		.word	.LANCHOR0
 1863              		.cfi_endproc
 1864              	.LFE13:
 1865              		.size	etharp_find_addr, .-etharp_find_addr
 1866 0044 AFF30080 		.section	.text.etharp_request,"ax",%progbits
 1866      AFF30080 
 1866      AFF30080 
 1867              		.align	2
 1868              		.p2align 4,,15
 1869              		.global	etharp_request
 1870              		.thumb
 1871              		.thumb_func
 1872              		.type	etharp_request, %function
 1873              	etharp_request:
 1874              	.LFB19:
ARM GAS  C:\Users\jenny\AppData\Local\Temp\ccFzIZYt.s 			page 34


 1875              		.loc 1 1260 0
 1876              		.cfi_startproc
 1877              		@ args = 0, pretend = 0, frame = 0
 1878              		@ frame_needed = 0, uses_anonymous_args = 0
 1879              	.LVL237:
 1880 0000 2DE9F843 		push	{r3, r4, r5, r6, r7, r8, r9, lr}
 1881              	.LCFI7:
 1882              		.cfi_def_cfa_offset 32
 1883              		.cfi_offset 3, -32
 1884              		.cfi_offset 4, -28
 1885              		.cfi_offset 5, -24
 1886              		.cfi_offset 6, -20
 1887              		.cfi_offset 7, -16
 1888              		.cfi_offset 8, -12
 1889              		.cfi_offset 9, -8
 1890              		.cfi_offset 14, -4
 1891              		.loc 1 1260 0
 1892 0004 0546     		mov	r5, r0
 1893 0006 8846     		mov	r8, r1
 1894              		.loc 1 1263 0
 1895 0008 00F12307 		add	r7, r0, #35
 1896 000c 00F10409 		add	r9, r0, #4
 1897              	.LVL238:
 1898              	.LBB16:
 1899              	.LBB17:
 1900              		.loc 1 1189 0
 1901 0010 0028     		cmp	r0, #0
 1902 0012 51D0     		beq	.L346
 1903              	.LVL239:
 1904              	.L338:
 1905              		.loc 1 1192 0
 1906 0014 0320     		movs	r0, #3
 1907 0016 2A21     		movs	r1, #42
 1908 0018 0022     		movs	r2, #0
 1909 001a FFF7FEFF 		bl	pbuf_alloc
 1910              	.LVL240:
 1911              		.loc 1 1194 0
 1912 001e 0646     		mov	r6, r0
 1913 0020 0028     		cmp	r0, #0
 1914 0022 4CD0     		beq	.L347
 1915              		.loc 1 1200 0
 1916 0024 4389     		ldrh	r3, [r0, #10]
 1917 0026 292B     		cmp	r3, #41
 1918 0028 43D9     		bls	.L348
 1919              	.LVL241:
 1920              	.L341:
 1921              		.loc 1 1206 0
 1922 002a 0120     		movs	r0, #1
 1923              		.loc 1 1203 0
 1924 002c 7468     		ldr	r4, [r6, #4]
 1925              	.LVL242:
 1926              		.loc 1 1206 0
 1927 002e FFF7FEFF 		bl	lwip_htons
 1928              	.LVL243:
 1929 0032 A082     		strh	r0, [r4, #20]	@ unaligned
 1930              		.loc 1 1208 0
 1931 0034 95F82200 		ldrb	r0, [r5, #34]	@ zero_extendqisi2
ARM GAS  C:\Users\jenny\AppData\Local\Temp\ccFzIZYt.s 			page 35


 1932 0038 0628     		cmp	r0, #6
 1933 003a 01D0     		beq	.L342
 1934 003c FFF7FEFF 		bl	port_halt
 1935              	.LVL244:
 1936              	.L342:
 1937              	.LBE17:
 1938              		.loc 1 1262 0
 1939 0040 224A     		ldr	r2, .L349
 1940              	.LBB18:
 1941              		.loc 1 1217 0
 1942 0042 3968     		ldr	r1, [r7, #0]	@ unaligned
 1943              	.LBE18:
 1944              		.loc 1 1218 0
 1945 0044 1068     		ldr	r0, [r2, #0]	@ unaligned
 1946              		.loc 1 1262 0
 1947 0046 224B     		ldr	r3, .L349+4
 1948              	.LBB19:
 1949              		.loc 1 1217 0
 1950 0048 C4F81610 		str	r1, [r4, #22]	@ unaligned
 1951 004c B7F804E0 		ldrh	lr, [r7, #4]	@ unaligned
 1952              	.LBE19:
 1953              		.loc 1 1218 0
 1954 0050 9188     		ldrh	r1, [r2, #4]	@ unaligned
 1955 0052 2062     		str	r0, [r4, #32]	@ unaligned
 1956              		.loc 1 1223 0
 1957 0054 9A88     		ldrh	r2, [r3, #4]	@ unaligned
 1958 0056 1868     		ldr	r0, [r3, #0]	@ unaligned
 1959              	.LBB20:
 1960              		.loc 1 1217 0
 1961 0058 A4F81AE0 		strh	lr, [r4, #26]	@ unaligned
 1962              	.LBE20:
 1963              		.loc 1 1223 0
 1964 005c 2060     		str	r0, [r4, #0]	@ unaligned
 1965              		.loc 1 1218 0
 1966 005e A184     		strh	r1, [r4, #36]	@ unaligned
 1967              		.loc 1 1223 0
 1968 0060 A280     		strh	r2, [r4, #4]	@ unaligned
 1969              	.LBB21:
 1970              		.loc 1 1225 0
 1971 0062 3B68     		ldr	r3, [r7, #0]	@ unaligned
 1972 0064 C4F80630 		str	r3, [r4, #6]	@ unaligned
 1973 0068 B988     		ldrh	r1, [r7, #4]	@ unaligned
 1974 006a 6181     		strh	r1, [r4, #10]	@ unaligned
 1975              		.loc 1 1228 0
 1976 006c D9F80020 		ldr	r2, [r9, #0]	@ unaligned
 1977 0070 E261     		str	r2, [r4, #28]	@ unaligned
 1978              		.loc 1 1229 0
 1979 0072 D8F80000 		ldr	r0, [r8, #0]	@ unaligned
 1980              		.loc 1 1231 0
 1981 0076 0021     		movs	r1, #0
 1982              		.loc 1 1232 0
 1983 0078 0822     		movs	r2, #8
 1984              		.loc 1 1234 0
 1985 007a 0623     		movs	r3, #6
 1986              		.loc 1 1229 0
 1987 007c C4F82600 		str	r0, [r4, #38]	@ unaligned
 1988              		.loc 1 1231 0
ARM GAS  C:\Users\jenny\AppData\Local\Temp\ccFzIZYt.s 			page 36


 1989 0080 A173     		strb	r1, [r4, #14]
 1990              		.loc 1 1232 0
 1991 0082 6174     		strb	r1, [r4, #17]
 1992              		.loc 1 1231 0
 1993 0084 0120     		movs	r0, #1
 1994              		.loc 1 1235 0
 1995 0086 0421     		movs	r1, #4
 1996              		.loc 1 1231 0
 1997 0088 E073     		strb	r0, [r4, #15]
 1998              		.loc 1 1232 0
 1999 008a 2274     		strb	r2, [r4, #16]
 2000              		.loc 1 1234 0
 2001 008c A374     		strb	r3, [r4, #18]
 2002              		.loc 1 1235 0
 2003 008e E174     		strb	r1, [r4, #19]
 2004              		.loc 1 1237 0
 2005 0090 2273     		strb	r2, [r4, #12]
 2006 0092 6373     		strb	r3, [r4, #13]
 2007              		.loc 1 1239 0
 2008 0094 AC69     		ldr	r4, [r5, #24]
 2009              	.LVL245:
 2010 0096 3146     		mov	r1, r6
 2011 0098 2846     		mov	r0, r5
 2012 009a A047     		blx	r4
 2013              	.LVL246:
 2014              		.loc 1 1240 0
 2015 009c 0D4B     		ldr	r3, .L349+8
 2016 009e 1A8B     		ldrh	r2, [r3, #24]
 2017              		.loc 1 1239 0
 2018 00a0 0446     		mov	r4, r0
 2019              	.LVL247:
 2020              		.loc 1 1240 0
 2021 00a2 511C     		adds	r1, r2, #1
 2022              		.loc 1 1242 0
 2023 00a4 3046     		mov	r0, r6
 2024              	.LVL248:
 2025              		.loc 1 1240 0
 2026 00a6 1983     		strh	r1, [r3, #24]	@ movhi
 2027              		.loc 1 1242 0
 2028 00a8 FFF7FEFF 		bl	pbuf_free
 2029              	.LVL249:
 2030              	.L340:
 2031              	.LBE21:
 2032              	.LBE16:
 2033              		.loc 1 1265 0
 2034 00ac 60B2     		sxtb	r0, r4
 2035 00ae BDE8F883 		pop	{r3, r4, r5, r6, r7, r8, r9, pc}
 2036              	.LVL250:
 2037              	.L348:
 2038              	.LBB23:
 2039              	.LBB22:
 2040              		.loc 1 1200 0
 2041 00b2 FFF7FEFF 		bl	port_halt
 2042              	.LVL251:
 2043 00b6 B8E7     		b	.L341
 2044              	.LVL252:
 2045              	.L346:
ARM GAS  C:\Users\jenny\AppData\Local\Temp\ccFzIZYt.s 			page 37


 2046              		.loc 1 1189 0
 2047 00b8 FFF7FEFF 		bl	port_halt
 2048              	.LVL253:
 2049 00bc AAE7     		b	.L338
 2050              	.LVL254:
 2051              	.L347:
 2052              		.loc 1 1197 0
 2053 00be 0548     		ldr	r0, .L349+8
 2054              	.LVL255:
 2055 00c0 848C     		ldrh	r4, [r0, #36]
 2056 00c2 631C     		adds	r3, r4, #1
 2057 00c4 8384     		strh	r3, [r0, #36]	@ movhi
 2058              		.loc 1 1198 0
 2059 00c6 FF24     		movs	r4, #255
 2060 00c8 F0E7     		b	.L340
 2061              	.L350:
 2062 00ca 00BF     		.align	2
 2063              	.L349:
 2064 00cc 00000000 		.word	.LANCHOR1
 2065 00d0 00000000 		.word	.LANCHOR2
 2066 00d4 00000000 		.word	lwip_stats
 2067              	.LBE22:
 2068              	.LBE23:
 2069              		.cfi_endproc
 2070              	.LFE19:
 2071              		.size	etharp_request, .-etharp_request
 2072 00d8 AFF30080 		.section	.text.etharp_query,"ax",%progbits
 2072      AFF30080 
 2073              		.align	2
 2074              		.p2align 4,,15
 2075              		.global	etharp_query
 2076              		.thumb
 2077              		.thumb_func
 2078              		.type	etharp_query, %function
 2079              	etharp_query:
 2080              	.LFB17:
 2081              		.loc 1 1017 0
 2082              		.cfi_startproc
 2083              		@ args = 0, pretend = 0, frame = 0
 2084              		@ frame_needed = 0, uses_anonymous_args = 0
 2085              	.LVL256:
 2086 0000 2DE9F047 		push	{r4, r5, r6, r7, r8, r9, sl, lr}
 2087              	.LCFI8:
 2088              		.cfi_def_cfa_offset 32
 2089              		.cfi_offset 4, -32
 2090              		.cfi_offset 5, -28
 2091              		.cfi_offset 6, -24
 2092              		.cfi_offset 7, -20
 2093              		.cfi_offset 8, -16
 2094              		.cfi_offset 9, -12
 2095              		.cfi_offset 10, -8
 2096              		.cfi_offset 14, -4
 2097              		.loc 1 1017 0
 2098 0004 0C46     		mov	r4, r1
 2099 0006 0646     		mov	r6, r0
 2100              	.LVL257:
 2101              		.loc 1 1023 0
ARM GAS  C:\Users\jenny\AppData\Local\Temp\ccFzIZYt.s 			page 38


 2102 0008 0146     		mov	r1, r0
 2103              	.LVL258:
 2104 000a 2068     		ldr	r0, [r4, #0]
 2105              	.LVL259:
 2106              		.loc 1 1017 0
 2107 000c 1746     		mov	r7, r2
 2108              		.loc 1 1023 0
 2109 000e FFF7FEFF 		bl	ip4_addr_isbroadcast
 2110              	.LVL260:
 2111 0012 0028     		cmp	r0, #0
 2112 0014 49D1     		bne	.L372
 2113              		.loc 1 1024 0 discriminator 1
 2114 0016 2368     		ldr	r3, [r4, #0]
 2115 0018 03F0F002 		and	r2, r3, #240
 2116              		.loc 1 1023 0 discriminator 1
 2117 001c E02A     		cmp	r2, #224
 2118 001e 44D0     		beq	.L372
 2119              		.loc 1 1025 0
 2120 0020 002B     		cmp	r3, #0
 2121 0022 42D0     		beq	.L372
 2122              		.loc 1 1031 0
 2123 0024 0121     		movs	r1, #1
 2124 0026 2046     		mov	r0, r4
 2125 0028 FFF7FEFF 		bl	etharp_find_entry
 2126              	.LVL261:
 2127              		.loc 1 1034 0
 2128 002c 051E     		subs	r5, r0, #0
 2129 002e 33DB     		blt	.L397
 2130              		.loc 1 1044 0
 2131 0030 DFF80091 		ldr	r9, .L404+8
 2132 0034 4FEA8508 		lsl	r8, r5, #2
 2133 0038 08EB0500 		add	r0, r8, r5
 2134              	.LVL262:
 2135 003c 09EB8001 		add	r1, r9, r0, lsl #2
 2136 0040 8B7C     		ldrb	r3, [r1, #18]	@ zero_extendqisi2
 2137 0042 1031     		adds	r1, r1, #16
 2138 0044 3BB1     		cbz	r3, .L398
 2139              		.loc 1 1054 0
 2140 0046 012B     		cmp	r3, #1
 2141 0048 07D0     		beq	.L355
 2142              		.loc 1 1054 0 is_stmt 0 discriminator 1
 2143 004a 002F     		cmp	r7, #0
 2144 004c 31D0     		beq	.L399
 2145              		.loc 1 1071 0 is_stmt 1
 2146 004e 012B     		cmp	r3, #1
 2147 0050 0FD8     		bhi	.L366
 2148              		.loc 1 1019 0
 2149 0052 FF25     		movs	r5, #255
 2150 0054 1DE0     		b	.L352
 2151              	.L398:
 2152              		.loc 1 1045 0
 2153 0056 0122     		movs	r2, #1
 2154 0058 8A70     		strb	r2, [r1, #2]
 2155              	.L355:
 2156              		.loc 1 1056 0
 2157 005a 3046     		mov	r0, r6
 2158 005c 2146     		mov	r1, r4
ARM GAS  C:\Users\jenny\AppData\Local\Temp\ccFzIZYt.s 			page 39


 2159 005e FFF7FEFF 		bl	etharp_request
 2160              	.LVL263:
 2161              		.loc 1 1063 0
 2162 0062 AFB1     		cbz	r7, .L374
 2163              		.loc 1 1071 0
 2164 0064 08EB0501 		add	r1, r8, r5
 2165 0068 09EB8103 		add	r3, r9, r1, lsl #2
 2166 006c 9A7C     		ldrb	r2, [r3, #18]	@ zero_extendqisi2
 2167 006e 012A     		cmp	r2, #1
 2168 0070 0DD9     		bls	.L400
 2169              	.LVL264:
 2170              	.L366:
 2171              		.loc 1 1075 0
 2172 0072 A844     		add	r8, r8, r5
 2173 0074 09EB8803 		add	r3, r9, r8, lsl #2
 2174              		.loc 1 1073 0
 2175 0078 2C4C     		ldr	r4, .L404
 2176              	.LVL265:
 2177              		.loc 1 1075 0
 2178 007a 3046     		mov	r0, r6
 2179 007c 3946     		mov	r1, r7
 2180 007e 06F12302 		add	r2, r6, #35
 2181 0082 0C33     		adds	r3, r3, #12
 2182              		.loc 1 1073 0
 2183 0084 2570     		strb	r5, [r4, #0]
 2184              		.loc 1 1154 0
 2185 0086 BDE8F047 		pop	{r4, r5, r6, r7, r8, r9, sl, lr}
 2186              		.loc 1 1075 0
 2187 008a FFF7FEBF 		b	etharp_send_ip
 2188              	.LVL266:
 2189              	.L400:
 2190              		.loc 1 1077 0
 2191 008e 16D0     		beq	.L401
 2192              	.L374:
 2193              		.loc 1 1056 0
 2194 0090 0546     		mov	r5, r0
 2195              	.LVL267:
 2196              	.L352:
 2197 0092 68B2     		sxtb	r0, r5
 2198 0094 BDE8F087 		pop	{r4, r5, r6, r7, r8, r9, sl, pc}
 2199              	.LVL268:
 2200              	.L397:
 2201              		.loc 1 1036 0
 2202 0098 002F     		cmp	r7, #0
 2203 009a FAD0     		beq	.L352
 2204              		.loc 1 1038 0
 2205 009c 2448     		ldr	r0, .L404+4
 2206              	.LVL269:
 2207 009e 828C     		ldrh	r2, [r0, #36]
 2208 00a0 511C     		adds	r1, r2, #1
 2209 00a2 8184     		strh	r1, [r0, #36]	@ movhi
 2210 00a4 68B2     		sxtb	r0, r5
 2211 00a6 BDE8F087 		pop	{r4, r5, r6, r7, r8, r9, sl, pc}
 2212              	.L372:
 2213              		.loc 1 1027 0
 2214 00aa F225     		movs	r5, #242
 2215 00ac 68B2     		sxtb	r0, r5
ARM GAS  C:\Users\jenny\AppData\Local\Temp\ccFzIZYt.s 			page 40


 2216 00ae BDE8F087 		pop	{r4, r5, r6, r7, r8, r9, sl, pc}
 2217              	.L399:
 2218              		.loc 1 1056 0
 2219 00b2 3046     		mov	r0, r6
 2220 00b4 2146     		mov	r1, r4
 2221              		.loc 1 1154 0
 2222 00b6 BDE8F047 		pop	{r4, r5, r6, r7, r8, r9, sl, lr}
 2223              		.loc 1 1056 0
 2224 00ba FFF7FEBF 		b	etharp_request
 2225              	.LVL270:
 2226              	.L401:
 2227              		.loc 1 1077 0
 2228 00be 3C46     		mov	r4, r7
 2229              	.LVL271:
 2230 00c0 04E0     		b	.L361
 2231              	.LVL272:
 2232              	.L359:
 2233              	.LBB24:
 2234              		.loc 1 1087 0
 2235 00c2 227B     		ldrb	r2, [r4, #12]	@ zero_extendqisi2
 2236 00c4 012A     		cmp	r2, #1
 2237 00c6 0BD1     		bne	.L360
 2238              		.loc 1 1091 0
 2239 00c8 2468     		ldr	r4, [r4, #0]
 2240              	.LVL273:
 2241              		.loc 1 1085 0
 2242 00ca 04B3     		cbz	r4, .L402
 2243              	.LVL274:
 2244              	.L361:
 2245              		.loc 1 1086 0
 2246 00cc 6089     		ldrh	r0, [r4, #10]
 2247 00ce 2189     		ldrh	r1, [r4, #8]
 2248 00d0 8842     		cmp	r0, r1
 2249 00d2 F6D1     		bne	.L359
 2250              		.loc 1 1086 0 is_stmt 0 discriminator 1
 2251 00d4 2368     		ldr	r3, [r4, #0]
 2252 00d6 002B     		cmp	r3, #0
 2253 00d8 F3D0     		beq	.L359
 2254              		.loc 1 1086 0 discriminator 2
 2255 00da FFF7FEFF 		bl	port_halt
 2256              	.LVL275:
 2257 00de F0E7     		b	.L359
 2258              	.L360:
 2259              	.LVL276:
 2260              		.loc 1 1095 0 is_stmt 1
 2261 00e0 2189     		ldrh	r1, [r4, #8]
 2262 00e2 0320     		movs	r0, #3
 2263 00e4 0022     		movs	r2, #0
 2264 00e6 FFF7FEFF 		bl	pbuf_alloc
 2265              	.LVL277:
 2266              		.loc 1 1096 0
 2267 00ea 0446     		mov	r4, r0
 2268 00ec B8B1     		cbz	r0, .L364
 2269              		.loc 1 1097 0
 2270 00ee 3946     		mov	r1, r7
 2271 00f0 FFF7FEFF 		bl	pbuf_copy
 2272              	.LVL278:
ARM GAS  C:\Users\jenny\AppData\Local\Temp\ccFzIZYt.s 			page 41


 2273 00f4 80B9     		cbnz	r0, .L403
 2274              	.LVL279:
 2275              	.L363:
 2276              		.loc 1 1139 0
 2277 00f6 08EB0500 		add	r0, r8, r5
 2278 00fa 59F82000 		ldr	r0, [r9, r0, lsl #2]
 2279 00fe 08B1     		cbz	r0, .L365
 2280              		.loc 1 1141 0
 2281 0100 FFF7FEFF 		bl	pbuf_free
 2282              	.LVL280:
 2283              	.L365:
 2284              		.loc 1 1143 0
 2285 0104 A844     		add	r8, r8, r5
 2286              		.loc 1 1144 0
 2287 0106 0025     		movs	r5, #0
 2288              		.loc 1 1143 0
 2289 0108 49F82840 		str	r4, [r9, r8, lsl #2]
 2290              	.LVL281:
 2291 010c C1E7     		b	.L352
 2292              	.LVL282:
 2293              	.L402:
 2294              		.loc 1 1105 0
 2295 010e 3846     		mov	r0, r7
 2296 0110 FFF7FEFF 		bl	pbuf_ref
 2297              	.LVL283:
 2298 0114 3C46     		mov	r4, r7
 2299 0116 EEE7     		b	.L363
 2300              	.LVL284:
 2301              	.L403:
 2302              		.loc 1 1098 0
 2303 0118 2046     		mov	r0, r4
 2304 011a FFF7FEFF 		bl	pbuf_free
 2305              	.LVL285:
 2306              	.L364:
 2307              		.loc 1 1148 0
 2308 011e 044D     		ldr	r5, .L404+4
 2309 0120 A98C     		ldrh	r1, [r5, #36]
 2310 0122 4B1C     		adds	r3, r1, #1
 2311 0124 AB84     		strh	r3, [r5, #36]	@ movhi
 2312              	.LVL286:
 2313              		.loc 1 1150 0
 2314 0126 FF25     		movs	r5, #255
 2315 0128 B3E7     		b	.L352
 2316              	.L405:
 2317 012a 00BF     		.align	2
 2318              	.L404:
 2319 012c 00000000 		.word	.LANCHOR3
 2320 0130 00000000 		.word	lwip_stats
 2321 0134 00000000 		.word	.LANCHOR0
 2322              	.LBE24:
 2323              		.cfi_endproc
 2324              	.LFE17:
 2325              		.size	etharp_query, .-etharp_query
 2326 0138 AFF30080 		.section	.text.etharp_output_to_arp_index,"ax",%progbits
 2326      AFF30080 
 2327              		.align	2
 2328              		.p2align 4,,15
ARM GAS  C:\Users\jenny\AppData\Local\Temp\ccFzIZYt.s 			page 42


 2329              		.thumb
 2330              		.thumb_func
 2331              		.type	etharp_output_to_arp_index, %function
 2332              	etharp_output_to_arp_index:
 2333              	.LFB15:
 2334              		.loc 1 843 0
 2335              		.cfi_startproc
 2336              		@ args = 0, pretend = 0, frame = 0
 2337              		@ frame_needed = 0, uses_anonymous_args = 0
 2338              	.LVL287:
 2339 0000 2DE9F047 		push	{r4, r5, r6, r7, r8, r9, sl, lr}
 2340              	.LCFI9:
 2341              		.cfi_def_cfa_offset 32
 2342              		.cfi_offset 4, -32
 2343              		.cfi_offset 5, -28
 2344              		.cfi_offset 6, -24
 2345              		.cfi_offset 7, -20
 2346              		.cfi_offset 8, -16
 2347              		.cfi_offset 9, -12
 2348              		.cfi_offset 10, -8
 2349              		.cfi_offset 14, -4
 2350              		.loc 1 844 0
 2351 0004 9600     		lsls	r6, r2, #2
 2352 0006 194D     		ldr	r5, .L413
 2353 0008 06EB0208 		add	r8, r6, r2
 2354              		.loc 1 843 0
 2355 000c 1446     		mov	r4, r2
 2356              		.loc 1 844 0
 2357 000e 05EB8802 		add	r2, r5, r8, lsl #2
 2358              	.LVL288:
 2359              		.loc 1 843 0
 2360 0012 0746     		mov	r7, r0
 2361              		.loc 1 844 0
 2362 0014 937C     		ldrb	r3, [r2, #18]	@ zero_extendqisi2
 2363 0016 012B     		cmp	r3, #1
 2364 0018 02F11008 		add	r8, r2, #16
 2365              		.loc 1 843 0
 2366 001c 8946     		mov	r9, r1
 2367              		.loc 1 844 0
 2368 001e 1FD9     		bls	.L411
 2369              	.LVL289:
 2370              	.L407:
 2371              		.loc 1 849 0
 2372 0020 022B     		cmp	r3, #2
 2373 0022 0BD0     		beq	.L412
 2374              	.L409:
 2375              		.loc 1 856 0
 2376 0024 3419     		adds	r4, r6, r4
 2377 0026 05EB8403 		add	r3, r5, r4, lsl #2
 2378 002a 3846     		mov	r0, r7
 2379 002c 4946     		mov	r1, r9
 2380 002e 07F12302 		add	r2, r7, #35
 2381 0032 0C33     		adds	r3, r3, #12
 2382              		.loc 1 858 0
 2383 0034 BDE8F047 		pop	{r4, r5, r6, r7, r8, r9, sl, lr}
 2384              		.loc 1 856 0
 2385 0038 FFF7FEBF 		b	etharp_send_ip
ARM GAS  C:\Users\jenny\AppData\Local\Temp\ccFzIZYt.s 			page 43


 2386              	.LVL290:
 2387              	.L412:
 2388              		.loc 1 850 0 discriminator 1
 2389 003c 3119     		adds	r1, r6, r4
 2390 003e 05EB8102 		add	r2, r5, r1, lsl #2
 2391 0042 02F11008 		add	r8, r2, #16
 2392              		.loc 1 849 0 discriminator 1
 2393 0046 D07C     		ldrb	r0, [r2, #19]	@ zero_extendqisi2
 2394 0048 E328     		cmp	r0, #227
 2395 004a EBD9     		bls	.L409
 2396              		.loc 1 851 0
 2397 004c 3846     		mov	r0, r7
 2398 004e 111D     		adds	r1, r2, #4
 2399 0050 FFF7FEFF 		bl	etharp_request
 2400              	.LVL291:
 2401 0054 0028     		cmp	r0, #0
 2402 0056 E5D1     		bne	.L409
 2403              		.loc 1 852 0
 2404 0058 0323     		movs	r3, #3
 2405 005a 88F80230 		strb	r3, [r8, #2]
 2406 005e E1E7     		b	.L409
 2407              	.LVL292:
 2408              	.L411:
 2409              		.loc 1 844 0 discriminator 1
 2410 0060 FFF7FEFF 		bl	port_halt
 2411              	.LVL293:
 2412 0064 98F80230 		ldrb	r3, [r8, #2]	@ zero_extendqisi2
 2413 0068 DAE7     		b	.L407
 2414              	.L414:
 2415 006a 00BF     		.align	2
 2416              	.L413:
 2417 006c 00000000 		.word	.LANCHOR0
 2418              		.cfi_endproc
 2419              	.LFE15:
 2420              		.size	etharp_output_to_arp_index, .-etharp_output_to_arp_index
 2421              		.section	.text.etharp_output,"ax",%progbits
 2422              		.align	2
 2423              		.p2align 4,,15
 2424              		.global	etharp_output
 2425              		.thumb
 2426              		.thumb_func
 2427              		.type	etharp_output, %function
 2428              	etharp_output:
 2429              	.LFB16:
 2430              		.loc 1 880 0
 2431              		.cfi_startproc
 2432              		@ args = 0, pretend = 0, frame = 8
 2433              		@ frame_needed = 0, uses_anonymous_args = 0
 2434              	.LVL294:
 2435 0000 F0B5     		push	{r4, r5, r6, r7, lr}
 2436              	.LCFI10:
 2437              		.cfi_def_cfa_offset 20
 2438              		.cfi_offset 4, -20
 2439              		.cfi_offset 5, -16
 2440              		.cfi_offset 6, -12
 2441              		.cfi_offset 7, -8
 2442              		.cfi_offset 14, -4
ARM GAS  C:\Users\jenny\AppData\Local\Temp\ccFzIZYt.s 			page 44


 2443              		.loc 1 885 0
 2444 0002 0446     		mov	r4, r0
 2445              		.loc 1 880 0
 2446 0004 83B0     		sub	sp, sp, #12
 2447              	.LCFI11:
 2448              		.cfi_def_cfa_offset 32
 2449              		.loc 1 880 0
 2450 0006 0E46     		mov	r6, r1
 2451 0008 1546     		mov	r5, r2
 2452              	.LVL295:
 2453              		.loc 1 885 0
 2454 000a 0028     		cmp	r0, #0
 2455 000c 00F0BF80 		beq	.L451
 2456              		.loc 1 886 0
 2457 0010 002E     		cmp	r6, #0
 2458 0012 00F0C180 		beq	.L452
 2459              	.LVL296:
 2460              	.L417:
 2461              		.loc 1 887 0
 2462 0016 002D     		cmp	r5, #0
 2463 0018 00F0C780 		beq	.L453
 2464              	.L418:
 2465              		.loc 1 890 0
 2466 001c 3046     		mov	r0, r6
 2467 001e 0E21     		movs	r1, #14
 2468 0020 FFF7FEFF 		bl	pbuf_header
 2469              	.LVL297:
 2470 0024 0028     		cmp	r0, #0
 2471 0026 40F0BA80 		bne	.L454
 2472              		.loc 1 902 0
 2473 002a 2868     		ldr	r0, [r5, #0]
 2474 002c 2146     		mov	r1, r4
 2475 002e FFF7FEFF 		bl	ip4_addr_isbroadcast
 2476              	.LVL298:
 2477 0032 0028     		cmp	r0, #0
 2478 0034 40F08E80 		bne	.L438
 2479              		.loc 1 906 0
 2480 0038 2B68     		ldr	r3, [r5, #0]
 2481 003a 03F0F002 		and	r2, r3, #240
 2482 003e E02A     		cmp	r2, #224
 2483 0040 00F09080 		beq	.L455
 2484              	.LBB25:
 2485              		.loc 1 921 0
 2486 0044 6168     		ldr	r1, [r4, #4]
 2487 0046 A068     		ldr	r0, [r4, #8]
 2488 0048 83EA0102 		eor	r2, r3, r1
 2489 004c 0242     		tst	r2, r0
 2490 004e 0AD0     		beq	.L440
 2491              		.loc 1 922 0 discriminator 1
 2492 0050 9BB2     		uxth	r3, r3
 2493              		.loc 1 921 0 discriminator 1
 2494 0052 4FF6A961 		movw	r1, #65193
 2495 0056 8B42     		cmp	r3, r1
 2496 0058 05D0     		beq	.L440
 2497              		.loc 1 934 0
 2498 005a E068     		ldr	r0, [r4, #12]
 2499 005c 04F10C01 		add	r1, r4, #12
ARM GAS  C:\Users\jenny\AppData\Local\Temp\ccFzIZYt.s 			page 45


 2500 0060 10B9     		cbnz	r0, .L423
 2501              		.loc 1 940 0
 2502 0062 FC20     		movs	r0, #252
 2503 0064 73E0     		b	.L420
 2504              	.L440:
 2505              		.loc 1 921 0
 2506 0066 2946     		mov	r1, r5
 2507              	.L423:
 2508              	.LVL299:
 2509              		.loc 1 950 0
 2510 0068 634D     		ldr	r5, .L457
 2511              	.LVL300:
 2512 006a 644B     		ldr	r3, .L457+4
 2513 006c 2A78     		ldrb	r2, [r5, #0]	@ zero_extendqisi2
 2514 006e 02EB8207 		add	r7, r2, r2, lsl #2
 2515 0072 03EB8700 		add	r0, r3, r7, lsl #2
 2516 0076 877C     		ldrb	r7, [r0, #18]	@ zero_extendqisi2
 2517 0078 012F     		cmp	r7, #1
 2518 007a 04D9     		bls	.L424
 2519              		.loc 1 950 0 is_stmt 0 discriminator 1
 2520 007c 0F68     		ldr	r7, [r1, #0]
 2521 007e 4068     		ldr	r0, [r0, #4]
 2522 0080 8742     		cmp	r7, r0
 2523 0082 00F09580 		beq	.L425
 2524              	.L424:
 2525              		.loc 1 964 0 is_stmt 1
 2526 0086 9A7C     		ldrb	r2, [r3, #18]	@ zero_extendqisi2
 2527 0088 012A     		cmp	r2, #1
 2528 008a 05D9     		bls	.L426
 2529 008c 5B48     		ldr	r0, .L457+4
 2530 008e 0A68     		ldr	r2, [r1, #0]
 2531 0090 4068     		ldr	r0, [r0, #4]
 2532 0092 8242     		cmp	r2, r0
 2533 0094 00F09580 		beq	.L442
 2534              	.L426:
 2535              	.LVL301:
 2536 0098 93F82620 		ldrb	r2, [r3, #38]	@ zero_extendqisi2
 2537 009c 012A     		cmp	r2, #1
 2538 009e 05D9     		bls	.L428
 2539 00a0 5648     		ldr	r0, .L457+4
 2540 00a2 0A68     		ldr	r2, [r1, #0]
 2541 00a4 8069     		ldr	r0, [r0, #24]
 2542 00a6 8242     		cmp	r2, r0
 2543 00a8 00F09480 		beq	.L443
 2544              	.L428:
 2545              	.LVL302:
 2546 00ac 93F83A20 		ldrb	r2, [r3, #58]	@ zero_extendqisi2
 2547 00b0 012A     		cmp	r2, #1
 2548 00b2 05D9     		bls	.L429
 2549 00b4 5148     		ldr	r0, .L457+4
 2550 00b6 0A68     		ldr	r2, [r1, #0]
 2551 00b8 C06A     		ldr	r0, [r0, #44]
 2552 00ba 8242     		cmp	r2, r0
 2553 00bc 00F08C80 		beq	.L444
 2554              	.L429:
 2555              	.LVL303:
 2556 00c0 93F84E20 		ldrb	r2, [r3, #78]	@ zero_extendqisi2
ARM GAS  C:\Users\jenny\AppData\Local\Temp\ccFzIZYt.s 			page 46


 2557 00c4 012A     		cmp	r2, #1
 2558 00c6 05D9     		bls	.L430
 2559 00c8 4C48     		ldr	r0, .L457+4
 2560 00ca 0A68     		ldr	r2, [r1, #0]
 2561 00cc 006C     		ldr	r0, [r0, #64]
 2562 00ce 8242     		cmp	r2, r0
 2563 00d0 00F08480 		beq	.L445
 2564              	.L430:
 2565              	.LVL304:
 2566 00d4 93F86220 		ldrb	r2, [r3, #98]	@ zero_extendqisi2
 2567 00d8 012A     		cmp	r2, #1
 2568 00da 04D9     		bls	.L431
 2569 00dc 4748     		ldr	r0, .L457+4
 2570 00de 0A68     		ldr	r2, [r1, #0]
 2571 00e0 406D     		ldr	r0, [r0, #84]
 2572 00e2 8242     		cmp	r2, r0
 2573 00e4 7CD0     		beq	.L446
 2574              	.L431:
 2575              	.LVL305:
 2576 00e6 93F87620 		ldrb	r2, [r3, #118]	@ zero_extendqisi2
 2577 00ea 012A     		cmp	r2, #1
 2578 00ec 04D9     		bls	.L432
 2579 00ee 4348     		ldr	r0, .L457+4
 2580 00f0 0A68     		ldr	r2, [r1, #0]
 2581 00f2 806E     		ldr	r0, [r0, #104]
 2582 00f4 8242     		cmp	r2, r0
 2583 00f6 75D0     		beq	.L447
 2584              	.L432:
 2585              	.LVL306:
 2586 00f8 93F88A20 		ldrb	r2, [r3, #138]	@ zero_extendqisi2
 2587 00fc 012A     		cmp	r2, #1
 2588 00fe 04D9     		bls	.L433
 2589 0100 3E48     		ldr	r0, .L457+4
 2590 0102 0A68     		ldr	r2, [r1, #0]
 2591 0104 C06F     		ldr	r0, [r0, #124]
 2592 0106 8242     		cmp	r2, r0
 2593 0108 6ED0     		beq	.L448
 2594              	.L433:
 2595              	.LVL307:
 2596 010a 93F89E20 		ldrb	r2, [r3, #158]	@ zero_extendqisi2
 2597 010e 012A     		cmp	r2, #1
 2598 0110 05D9     		bls	.L434
 2599 0112 3A48     		ldr	r0, .L457+4
 2600 0114 0A68     		ldr	r2, [r1, #0]
 2601 0116 D0F89000 		ldr	r0, [r0, #144]
 2602 011a 8242     		cmp	r2, r0
 2603 011c 66D0     		beq	.L449
 2604              	.L434:
 2605              	.LVL308:
 2606 011e 93F8B220 		ldrb	r2, [r3, #178]	@ zero_extendqisi2
 2607 0122 012A     		cmp	r2, #1
 2608 0124 05D9     		bls	.L435
 2609 0126 3548     		ldr	r0, .L457+4
 2610 0128 0A68     		ldr	r2, [r1, #0]
 2611 012a D0F8A400 		ldr	r0, [r0, #164]
 2612 012e 8242     		cmp	r2, r0
 2613 0130 5ED0     		beq	.L450
ARM GAS  C:\Users\jenny\AppData\Local\Temp\ccFzIZYt.s 			page 47


 2614              	.L435:
 2615              	.LVL309:
 2616 0132 93F8C630 		ldrb	r3, [r3, #198]	@ zero_extendqisi2
 2617 0136 012B     		cmp	r3, #1
 2618 0138 05D9     		bls	.L437
 2619              		.loc 1 964 0 is_stmt 0 discriminator 1
 2620 013a 304A     		ldr	r2, .L457+4
 2621 013c 0868     		ldr	r0, [r1, #0]
 2622 013e D2F8B830 		ldr	r3, [r2, #184]
 2623 0142 9842     		cmp	r0, r3
 2624 0144 56D0     		beq	.L456
 2625              	.L437:
 2626              	.LVL310:
 2627              		.loc 1 973 0 is_stmt 1
 2628 0146 2046     		mov	r0, r4
 2629 0148 3246     		mov	r2, r6
 2630 014a FFF7FEFF 		bl	etharp_query
 2631              	.LVL311:
 2632              	.L420:
 2633              	.LBE25:
 2634              		.loc 1 980 0
 2635 014e 40B2     		sxtb	r0, r0
 2636 0150 03B0     		add	sp, sp, #12
 2637 0152 F0BD     		pop	{r4, r5, r6, r7, pc}
 2638              	.LVL312:
 2639              	.L438:
 2640              		.loc 1 904 0
 2641 0154 2A4B     		ldr	r3, .L457+8
 2642              	.L421:
 2643              	.LVL313:
 2644              		.loc 1 979 0
 2645 0156 2046     		mov	r0, r4
 2646 0158 3146     		mov	r1, r6
 2647 015a 04F12302 		add	r2, r4, #35
 2648 015e FFF7FEFF 		bl	etharp_send_ip
 2649              	.LVL314:
 2650 0162 F4E7     		b	.L420
 2651              	.L455:
 2652              		.loc 1 911 0
 2653 0164 6978     		ldrb	r1, [r5, #1]	@ zero_extendqisi2
 2654              		.loc 1 913 0
 2655 0166 EB78     		ldrb	r3, [r5, #3]	@ zero_extendqisi2
 2656              		.loc 1 912 0
 2657 0168 AA78     		ldrb	r2, [r5, #2]	@ zero_extendqisi2
 2658              		.loc 1 909 0
 2659 016a 8DF80100 		strb	r0, [sp, #1]
 2660              		.loc 1 908 0
 2661 016e 0120     		movs	r0, #1
 2662              		.loc 1 911 0
 2663 0170 01F07F01 		and	r1, r1, #127
 2664              		.loc 1 908 0
 2665 0174 8DF80000 		strb	r0, [sp, #0]
 2666              		.loc 1 910 0
 2667 0178 5E20     		movs	r0, #94
 2668              		.loc 1 913 0
 2669 017a 8DF80530 		strb	r3, [sp, #5]
 2670              	.LVL315:
ARM GAS  C:\Users\jenny\AppData\Local\Temp\ccFzIZYt.s 			page 48


 2671              		.loc 1 910 0
 2672 017e 8DF80200 		strb	r0, [sp, #2]
 2673              		.loc 1 911 0
 2674 0182 8DF80310 		strb	r1, [sp, #3]
 2675              		.loc 1 912 0
 2676 0186 8DF80420 		strb	r2, [sp, #4]
 2677              		.loc 1 915 0
 2678 018a 6B46     		mov	r3, sp
 2679 018c E3E7     		b	.L421
 2680              	.LVL316:
 2681              	.L451:
 2682              		.loc 1 885 0 discriminator 1
 2683 018e FFF7FEFF 		bl	port_halt
 2684              	.LVL317:
 2685              		.loc 1 886 0 discriminator 1
 2686 0192 002E     		cmp	r6, #0
 2687 0194 7FF43FAF 		bne	.L417
 2688              	.L452:
 2689 0198 FFF7FEFF 		bl	port_halt
 2690              	.LVL318:
 2691 019c 3BE7     		b	.L417
 2692              	.L454:
 2693              		.loc 1 894 0
 2694 019e 194B     		ldr	r3, .L457+12
 2695 01a0 5A89     		ldrh	r2, [r3, #10]
 2696 01a2 511C     		adds	r1, r2, #1
 2697 01a4 5981     		strh	r1, [r3, #10]	@ movhi
 2698              		.loc 1 895 0
 2699 01a6 FE20     		movs	r0, #254
 2700 01a8 D1E7     		b	.L420
 2701              	.L453:
 2702              		.loc 1 887 0 discriminator 1
 2703 01aa FFF7FEFF 		bl	port_halt
 2704              	.LVL319:
 2705 01ae 35E7     		b	.L418
 2706              	.LVL320:
 2707              	.L425:
 2708              	.LBB26:
 2709              		.loc 1 953 0
 2710 01b0 144B     		ldr	r3, .L457+12
 2711 01b2 D98D     		ldrh	r1, [r3, #46]
 2712              	.LVL321:
 2713              		.loc 1 954 0
 2714 01b4 2046     		mov	r0, r4
 2715              		.loc 1 953 0
 2716 01b6 4C1C     		adds	r4, r1, #1
 2717              	.LVL322:
 2718              		.loc 1 954 0
 2719 01b8 3146     		mov	r1, r6
 2720              		.loc 1 953 0
 2721 01ba DC85     		strh	r4, [r3, #46]	@ movhi
 2722              		.loc 1 954 0
 2723 01bc FFF7FEFF 		bl	etharp_output_to_arp_index
 2724              	.LVL323:
 2725 01c0 C5E7     		b	.L420
 2726              	.LVL324:
 2727              	.L442:
ARM GAS  C:\Users\jenny\AppData\Local\Temp\ccFzIZYt.s 			page 49


 2728              		.loc 1 964 0
 2729 01c2 0021     		movs	r1, #0
 2730              	.LVL325:
 2731              	.L427:
 2732              		.loc 1 967 0
 2733 01c4 CBB2     		uxtb	r3, r1
 2734              		.loc 1 968 0
 2735 01c6 2046     		mov	r0, r4
 2736 01c8 3146     		mov	r1, r6
 2737 01ca 1A46     		mov	r2, r3
 2738              		.loc 1 967 0
 2739 01cc 2B70     		strb	r3, [r5, #0]
 2740              		.loc 1 968 0
 2741 01ce FFF7FEFF 		bl	etharp_output_to_arp_index
 2742              	.LVL326:
 2743 01d2 BCE7     		b	.L420
 2744              	.LVL327:
 2745              	.L443:
 2746              		.loc 1 963 0
 2747 01d4 0121     		movs	r1, #1
 2748              	.LVL328:
 2749 01d6 F5E7     		b	.L427
 2750              	.LVL329:
 2751              	.L444:
 2752 01d8 0221     		movs	r1, #2
 2753              	.LVL330:
 2754 01da F3E7     		b	.L427
 2755              	.LVL331:
 2756              	.L445:
 2757 01dc 0321     		movs	r1, #3
 2758              	.LVL332:
 2759 01de F1E7     		b	.L427
 2760              	.LVL333:
 2761              	.L446:
 2762 01e0 0421     		movs	r1, #4
 2763              	.LVL334:
 2764 01e2 EFE7     		b	.L427
 2765              	.LVL335:
 2766              	.L447:
 2767 01e4 0521     		movs	r1, #5
 2768              	.LVL336:
 2769 01e6 EDE7     		b	.L427
 2770              	.LVL337:
 2771              	.L448:
 2772 01e8 0621     		movs	r1, #6
 2773              	.LVL338:
 2774 01ea EBE7     		b	.L427
 2775              	.LVL339:
 2776              	.L449:
 2777 01ec 0721     		movs	r1, #7
 2778              	.LVL340:
 2779 01ee E9E7     		b	.L427
 2780              	.LVL341:
 2781              	.L450:
 2782 01f0 0821     		movs	r1, #8
 2783              	.LVL342:
 2784 01f2 E7E7     		b	.L427
ARM GAS  C:\Users\jenny\AppData\Local\Temp\ccFzIZYt.s 			page 50


 2785              	.LVL343:
 2786              	.L456:
 2787              		.loc 1 964 0
 2788 01f4 0921     		movs	r1, #9
 2789              	.LVL344:
 2790 01f6 E5E7     		b	.L427
 2791              	.L458:
 2792              		.align	2
 2793              	.L457:
 2794 01f8 00000000 		.word	.LANCHOR3
 2795 01fc 00000000 		.word	.LANCHOR0
 2796 0200 00000000 		.word	.LANCHOR2
 2797 0204 00000000 		.word	lwip_stats
 2798              	.LBE26:
 2799              		.cfi_endproc
 2800              	.LFE16:
 2801              		.size	etharp_output, .-etharp_output
 2802 0208 AFF30080 		.section	.text.ethernet_input,"ax",%progbits
 2802      AFF30080 
 2803              		.align	2
 2804              		.p2align 4,,15
 2805              		.global	ethernet_input
 2806              		.thumb
 2807              		.thumb_func
 2808              		.type	ethernet_input, %function
 2809              	ethernet_input:
 2810              	.LFB20:
 2811              		.loc 1 1278 0
 2812              		.cfi_startproc
 2813              		@ args = 0, pretend = 0, frame = 24
 2814              		@ frame_needed = 0, uses_anonymous_args = 0
 2815              	.LVL345:
 2816 0000 2DE9F04F 		push	{r4, r5, r6, r7, r8, r9, sl, fp, lr}
 2817              	.LCFI12:
 2818              		.cfi_def_cfa_offset 36
 2819              		.cfi_offset 4, -36
 2820              		.cfi_offset 5, -32
 2821              		.cfi_offset 6, -28
 2822              		.cfi_offset 7, -24
 2823              		.cfi_offset 8, -20
 2824              		.cfi_offset 9, -16
 2825              		.cfi_offset 10, -12
 2826              		.cfi_offset 11, -8
 2827              		.cfi_offset 14, -4
 2828              		.loc 1 1285 0
 2829 0004 4789     		ldrh	r7, [r0, #10]
 2830 0006 0E2F     		cmp	r7, #14
 2831              		.loc 1 1278 0
 2832 0008 87B0     		sub	sp, sp, #28
 2833              	.LCFI13:
 2834              		.cfi_def_cfa_offset 64
 2835              		.loc 1 1278 0
 2836 000a 0446     		mov	r4, r0
 2837 000c 0E46     		mov	r6, r1
 2838              		.loc 1 1285 0
 2839 000e 17D9     		bls	.L511
 2840              		.loc 1 1293 0
ARM GAS  C:\Users\jenny\AppData\Local\Temp\ccFzIZYt.s 			page 51


 2841 0010 4568     		ldr	r5, [r0, #4]
 2842              	.LVL346:
 2843              		.loc 1 1332 0
 2844 0012 2B78     		ldrb	r3, [r5, #0]	@ zero_extendqisi2
 2845              		.loc 1 1302 0
 2846 0014 B5F80C80 		ldrh	r8, [r5, #12]	@ unaligned
 2847              	.LVL347:
 2848              		.loc 1 1332 0
 2849 0018 DA07     		lsls	r2, r3, #31
 2850 001a 0BD5     		bpl	.L462
 2851              		.loc 1 1334 0
 2852 001c 012B     		cmp	r3, #1
 2853 001e 48D0     		beq	.L514
 2854              		.loc 1 1340 0
 2855 0020 2846     		mov	r0, r5
 2856              	.LVL348:
 2857 0022 8149     		ldr	r1, .L518
 2858              	.LVL349:
 2859 0024 0622     		movs	r2, #6
 2860 0026 FFF7FEFF 		bl	memcmp
 2861              	.LVL350:
 2862 002a 18B9     		cbnz	r0, .L462
 2863              		.loc 1 1342 0
 2864 002c 607B     		ldrb	r0, [r4, #13]	@ zero_extendqisi2
 2865 002e 40F00801 		orr	r1, r0, #8
 2866 0032 6173     		strb	r1, [r4, #13]
 2867              	.L462:
 2868              		.loc 1 1346 0
 2869 0034 B8F1080F 		cmp	r8, #8
 2870 0038 10D0     		beq	.L465
 2871 003a B8F5C16F 		cmp	r8, #1544
 2872 003e 1DD0     		beq	.L515
 2873              	.LVL351:
 2874              	.L511:
 2875              		.loc 1 1386 0
 2876 0040 7A4B     		ldr	r3, .L518+4
 2877 0042 188D     		ldrh	r0, [r3, #40]
 2878              		.loc 1 1387 0
 2879 0044 DA8B     		ldrh	r2, [r3, #30]
 2880              		.loc 1 1386 0
 2881 0046 411C     		adds	r1, r0, #1
 2882              		.loc 1 1387 0
 2883 0048 501C     		adds	r0, r2, #1
 2884              		.loc 1 1386 0
 2885 004a 1985     		strh	r1, [r3, #40]	@ movhi
 2886              		.loc 1 1387 0
 2887 004c D883     		strh	r0, [r3, #30]	@ movhi
 2888              	.L461:
 2889              		.loc 1 1396 0
 2890 004e 2046     		mov	r0, r4
 2891 0050 FFF7FEFF 		bl	pbuf_free
 2892              	.LVL352:
 2893              	.L512:
 2894              		.loc 1 1398 0
 2895 0054 0020     		movs	r0, #0
 2896 0056 07B0     		add	sp, sp, #28
 2897 0058 BDE8F08F 		pop	{r4, r5, r6, r7, r8, r9, sl, fp, pc}
ARM GAS  C:\Users\jenny\AppData\Local\Temp\ccFzIZYt.s 			page 52


 2898              	.LVL353:
 2899              	.L465:
 2900              		.loc 1 1350 0
 2901 005c 96F82930 		ldrb	r3, [r6, #41]	@ zero_extendqisi2
 2902 0060 03F02000 		and	r0, r3, #32
 2903 0064 C1B2     		uxtb	r1, r0
 2904 0066 0029     		cmp	r1, #0
 2905 0068 F1D0     		beq	.L461
 2906              		.loc 1 1358 0
 2907 006a 2046     		mov	r0, r4
 2908 006c 6FF00D01 		mvn	r1, #13
 2909 0070 FFF7FEFF 		bl	pbuf_header
 2910              	.LVL354:
 2911 0074 40B3     		cbz	r0, .L467
 2912              		.loc 1 1359 0 discriminator 1
 2913 0076 FFF7FEFF 		bl	port_halt
 2914              	.LVL355:
 2915              		.loc 1 1360 0 discriminator 1
 2916 007a E8E7     		b	.L461
 2917              	.L515:
 2918              		.loc 1 1368 0
 2919 007c 96F82920 		ldrb	r2, [r6, #41]	@ zero_extendqisi2
 2920 0080 02F02003 		and	r3, r2, #32
 2921 0084 D8B2     		uxtb	r0, r3
 2922 0086 0028     		cmp	r0, #0
 2923 0088 E1D0     		beq	.L461
 2924              	.LVL356:
 2925              	.LBB32:
 2926              	.LBB33:
 2927              		.loc 1 703 0
 2928 008a 292F     		cmp	r7, #41
 2929 008c 21D9     		bls	.L516
 2930              	.LVL357:
 2931              		.loc 1 722 0
 2932 008e E989     		ldrh	r1, [r5, #14]	@ unaligned
 2933 0090 B1F5807F 		cmp	r1, #256
 2934 0094 02D1     		bne	.L471
 2935 0096 AA7C     		ldrb	r2, [r5, #18]	@ zero_extendqisi2
 2936 0098 062A     		cmp	r2, #6
 2937 009a 25D0     		beq	.L517
 2938              	.L471:
 2939              		.loc 1 729 0
 2940 009c 634B     		ldr	r3, .L518+4
 2941 009e 188D     		ldrh	r0, [r3, #40]
 2942              		.loc 1 730 0
 2943 00a0 DA8B     		ldrh	r2, [r3, #30]
 2944              		.loc 1 729 0
 2945 00a2 411C     		adds	r1, r0, #1
 2946              		.loc 1 730 0
 2947 00a4 0132     		adds	r2, r2, #1
 2948              		.loc 1 731 0
 2949 00a6 2046     		mov	r0, r4
 2950              		.loc 1 729 0
 2951 00a8 1985     		strh	r1, [r3, #40]	@ movhi
 2952              		.loc 1 730 0
 2953 00aa DA83     		strh	r2, [r3, #30]	@ movhi
 2954              		.loc 1 731 0
ARM GAS  C:\Users\jenny\AppData\Local\Temp\ccFzIZYt.s 			page 53


 2955 00ac FFF7FEFF 		bl	pbuf_free
 2956              	.LVL358:
 2957 00b0 D0E7     		b	.L512
 2958              	.LVL359:
 2959              	.L514:
 2960              	.LBE33:
 2961              	.LBE32:
 2962              		.loc 1 1335 0
 2963 00b2 6A78     		ldrb	r2, [r5, #1]	@ zero_extendqisi2
 2964 00b4 002A     		cmp	r2, #0
 2965 00b6 BDD1     		bne	.L462
 2966              		.loc 1 1335 0 is_stmt 0 discriminator 1
 2967 00b8 AB78     		ldrb	r3, [r5, #2]	@ zero_extendqisi2
 2968 00ba 5E2B     		cmp	r3, #94
 2969 00bc BAD1     		bne	.L462
 2970              		.loc 1 1338 0 is_stmt 1
 2971 00be 407B     		ldrb	r0, [r0, #13]	@ zero_extendqisi2
 2972              	.LVL360:
 2973 00c0 40F01001 		orr	r1, r0, #16
 2974              	.LVL361:
 2975 00c4 6173     		strb	r1, [r4, #13]
 2976 00c6 B5E7     		b	.L462
 2977              	.LVL362:
 2978              	.L467:
 2979              		.loc 1 1363 0
 2980 00c8 2046     		mov	r0, r4
 2981 00ca 3146     		mov	r1, r6
 2982 00cc FFF7FEFF 		bl	ip_input
 2983              	.LVL363:
 2984              		.loc 1 1365 0
 2985 00d0 C0E7     		b	.L512
 2986              	.LVL364:
 2987              	.L516:
 2988              	.LBB41:
 2989              	.LBB39:
 2990              		.loc 1 707 0
 2991 00d2 564B     		ldr	r3, .L518+4
 2992 00d4 588C     		ldrh	r0, [r3, #34]
 2993              		.loc 1 708 0
 2994 00d6 DA8B     		ldrh	r2, [r3, #30]
 2995              		.loc 1 707 0
 2996 00d8 411C     		adds	r1, r0, #1
 2997              		.loc 1 708 0
 2998 00da 0132     		adds	r2, r2, #1
 2999              		.loc 1 709 0
 3000 00dc 2046     		mov	r0, r4
 3001              		.loc 1 707 0
 3002 00de 5984     		strh	r1, [r3, #34]	@ movhi
 3003              		.loc 1 708 0
 3004 00e0 DA83     		strh	r2, [r3, #30]	@ movhi
 3005              		.loc 1 709 0
 3006 00e2 FFF7FEFF 		bl	pbuf_free
 3007              	.LVL365:
 3008 00e6 B5E7     		b	.L512
 3009              	.LVL366:
 3010              	.L517:
 3011              		.loc 1 723 0
ARM GAS  C:\Users\jenny\AppData\Local\Temp\ccFzIZYt.s 			page 54


 3012 00e8 EB7C     		ldrb	r3, [r5, #19]	@ zero_extendqisi2
 3013 00ea 042B     		cmp	r3, #4
 3014 00ec D6D1     		bne	.L471
 3015              		.loc 1 724 0
 3016 00ee 288A     		ldrh	r0, [r5, #16]	@ unaligned
 3017 00f0 0828     		cmp	r0, #8
 3018 00f2 D3D1     		bne	.L471
 3019              		.loc 1 734 0
 3020 00f4 DFF834A1 		ldr	sl, .L518+4
 3021              		.loc 1 745 0
 3022 00f8 0295     		str	r5, [sp, #8]
 3023              		.loc 1 734 0
 3024 00fa BAF81A70 		ldrh	r7, [sl, #26]
 3025              		.loc 1 749 0
 3026 00fe 7168     		ldr	r1, [r6, #4]
 3027              		.loc 1 734 0
 3028 0100 7A1C     		adds	r2, r7, #1
 3029              		.loc 1 745 0
 3030 0102 2B46     		mov	r3, r5
 3031              		.loc 1 734 0
 3032 0104 AAF81A20 		strh	r2, [sl, #26]	@ movhi
 3033              		.loc 1 745 0
 3034 0108 53F81C0F 		ldr	r0, [r3, #28]!	@ unaligned
 3035 010c 0293     		str	r3, [sp, #8]
 3036 010e 0490     		str	r0, [sp, #16]	@ unaligned
 3037              		.loc 1 746 0
 3038 0110 D5F82670 		ldr	r7, [r5, #38]	@ unaligned
 3039 0114 0597     		str	r7, [sp, #20]	@ unaligned
 3040              		.loc 1 761 0
 3041 0116 05F11607 		add	r7, r5, #22
 3042 011a 0197     		str	r7, [sp, #4]
 3043              		.loc 1 749 0
 3044 011c 0029     		cmp	r1, #0
 3045 011e 4ED0     		beq	.L483
 3046              	.LVL367:
 3047              		.loc 1 761 0
 3048 0120 059A     		ldr	r2, [sp, #20]
 3049 0122 9142     		cmp	r1, r2
 3050 0124 4BD1     		bne	.L483
 3051 0126 4FF00109 		mov	r9, #1
 3052 012a CB46     		mov	fp, r9
 3053              	.LVL368:
 3054              	.L474:
 3055              	.LBB34:
 3056              	.LBB35:
 3057              		.loc 1 451 0
 3058 012c 96F82210 		ldrb	r1, [r6, #34]	@ zero_extendqisi2
 3059 0130 0629     		cmp	r1, #6
 3060 0132 01D0     		beq	.L475
 3061 0134 FFF7FEFF 		bl	port_halt
 3062              	.LVL369:
 3063              	.L475:
 3064              		.loc 1 457 0
 3065 0138 0498     		ldr	r0, [sp, #16]
 3066              	.LBE35:
 3067              	.LBE34:
 3068              	.LBE39:
ARM GAS  C:\Users\jenny\AppData\Local\Temp\ccFzIZYt.s 			page 55


 3069              	.LBE41:
 3070              		.loc 1 1372 0
 3071 013a 06F12308 		add	r8, r6, #35
 3072              	.LBB42:
 3073              	.LBB40:
 3074              	.LBB38:
 3075              	.LBB37:
 3076              		.loc 1 457 0
 3077 013e 80B3     		cbz	r0, .L477
 3078              		.loc 1 458 0
 3079 0140 3146     		mov	r1, r6
 3080 0142 FFF7FEFF 		bl	ip4_addr_isbroadcast
 3081              	.LVL370:
 3082              		.loc 1 457 0
 3083 0146 0390     		str	r0, [sp, #12]
 3084 0148 58BB     		cbnz	r0, .L477
 3085              		.loc 1 459 0
 3086 014a 049B     		ldr	r3, [sp, #16]
 3087 014c 03F0F000 		and	r0, r3, #240
 3088              		.loc 1 458 0
 3089 0150 E028     		cmp	r0, #224
 3090 0152 26D0     		beq	.L477
 3091              		.loc 1 464 0
 3092 0154 04A8     		add	r0, sp, #16
 3093 0156 5946     		mov	r1, fp
 3094 0158 FFF7FEFF 		bl	etharp_find_entry
 3095              	.LVL371:
 3096              		.loc 1 466 0
 3097 015c 0028     		cmp	r0, #0
 3098              	.LVL372:
 3099 015e 20DB     		blt	.L477
 3100              		.loc 1 478 0
 3101 0160 DFF8CCE0 		ldr	lr, .L518+8
 3102              		.loc 1 488 0
 3103 0164 019B     		ldr	r3, [sp, #4]
 3104              		.loc 1 478 0
 3105 0166 1427     		movs	r7, #20
 3106 0168 07FB00FC 		mul	ip, r7, r0
 3107 016c 0EEB0C02 		add	r2, lr, ip
 3108 0170 0221     		movs	r1, #2
 3109 0172 9174     		strb	r1, [r2, #18]
 3110              		.loc 1 482 0
 3111 0174 9660     		str	r6, [r2, #8]
 3112              		.loc 1 488 0
 3113 0176 1868     		ldr	r0, [r3, #0]	@ unaligned
 3114              		.loc 1 490 0
 3115 0178 039F     		ldr	r7, [sp, #12]
 3116              		.loc 1 488 0
 3117 017a D060     		str	r0, [r2, #12]	@ unaligned
 3118 017c 9988     		ldrh	r1, [r3, #4]	@ unaligned
 3119              		.loc 1 504 0
 3120 017e 5EF80CB0 		ldr	fp, [lr, ip]
 3121              	.LVL373:
 3122              		.loc 1 490 0
 3123 0182 D774     		strb	r7, [r2, #19]
 3124              		.loc 1 488 0
 3125 0184 1182     		strh	r1, [r2, #16]	@ unaligned
ARM GAS  C:\Users\jenny\AppData\Local\Temp\ccFzIZYt.s 			page 56


 3126              		.loc 1 504 0
 3127 0186 BBF1000F 		cmp	fp, #0
 3128 018a 0AD0     		beq	.L477
 3129              	.LVL374:
 3130              	.LBB36:
 3131              		.loc 1 509 0
 3132 018c 3046     		mov	r0, r6
 3133 018e 5946     		mov	r1, fp
 3134 0190 4246     		mov	r2, r8
 3135 0192 019B     		ldr	r3, [sp, #4]
 3136              		.loc 1 506 0
 3137 0194 4EF80C70 		str	r7, [lr, ip]
 3138              		.loc 1 509 0
 3139 0198 FFF7FEFF 		bl	etharp_send_ip
 3140              	.LVL375:
 3141              		.loc 1 511 0
 3142 019c 5846     		mov	r0, fp
 3143 019e FFF7FEFF 		bl	pbuf_free
 3144              	.LVL376:
 3145              	.L477:
 3146              	.LBE36:
 3147              	.LBE37:
 3148              	.LBE38:
 3149              		.loc 1 765 0
 3150 01a2 AA8A     		ldrh	r2, [r5, #20]	@ unaligned
 3151 01a4 B2F5807F 		cmp	r2, #256
 3152 01a8 0ED0     		beq	.L480
 3153 01aa B2F5007F 		cmp	r2, #512
 3154 01ae 3FF44EAF 		beq	.L461
 3155              		.loc 1 831 0
 3156 01b2 BAF82C30 		ldrh	r3, [sl, #44]
 3157 01b6 581C     		adds	r0, r3, #1
 3158 01b8 AAF82C00 		strh	r0, [sl, #44]	@ movhi
 3159 01bc 47E7     		b	.L461
 3160              	.LVL377:
 3161              	.L483:
 3162              		.loc 1 761 0
 3163 01be 4FF00009 		mov	r9, #0
 3164 01c2 4FF0020B 		mov	fp, #2
 3165 01c6 B1E7     		b	.L474
 3166              	.LVL378:
 3167              	.L480:
 3168              		.loc 1 774 0
 3169 01c8 B9F1000F 		cmp	r9, #0
 3170 01cc 3FF43FAF 		beq	.L461
 3171              		.loc 1 780 0
 3172 01d0 0220     		movs	r0, #2
 3173 01d2 FFF7FEFF 		bl	lwip_htons
 3174              	.LVL379:
 3175 01d6 A882     		strh	r0, [r5, #20]	@ unaligned
 3176              		.loc 1 782 0
 3177 01d8 029F     		ldr	r7, [sp, #8]
 3178 01da 3968     		ldr	r1, [r7, #0]	@ unaligned
 3179 01dc C5F82610 		str	r1, [r5, #38]	@ unaligned
 3180              		.loc 1 783 0
 3181 01e0 7268     		ldr	r2, [r6, #4]	@ unaligned
 3182 01e2 EA61     		str	r2, [r5, #28]	@ unaligned
ARM GAS  C:\Users\jenny\AppData\Local\Temp\ccFzIZYt.s 			page 57


 3183              		.loc 1 785 0
 3184 01e4 96F82230 		ldrb	r3, [r6, #34]	@ zero_extendqisi2
 3185 01e8 062B     		cmp	r3, #6
 3186 01ea 01D0     		beq	.L482
 3187 01ec FFF7FEFF 		bl	port_halt
 3188              	.LVL380:
 3189              	.L482:
 3190              		.loc 1 794 0
 3191 01f0 019F     		ldr	r7, [sp, #4]
 3192 01f2 3868     		ldr	r0, [r7, #0]	@ unaligned
 3193 01f4 2862     		str	r0, [r5, #32]	@ unaligned
 3194 01f6 B988     		ldrh	r1, [r7, #4]	@ unaligned
 3195 01f8 A984     		strh	r1, [r5, #36]	@ unaligned
 3196              		.loc 1 798 0
 3197 01fa 3A68     		ldr	r2, [r7, #0]	@ unaligned
 3198 01fc 2A60     		str	r2, [r5, #0]	@ unaligned
 3199 01fe BB88     		ldrh	r3, [r7, #4]	@ unaligned
 3200 0200 AB80     		strh	r3, [r5, #4]	@ unaligned
 3201              		.loc 1 800 0
 3202 0202 D8F80000 		ldr	r0, [r8, #0]	@ unaligned
 3203 0206 3860     		str	r0, [r7, #0]	@ unaligned
 3204 0208 B8F80410 		ldrh	r1, [r8, #4]	@ unaligned
 3205 020c B980     		strh	r1, [r7, #4]	@ unaligned
 3206              		.loc 1 801 0
 3207 020e D8F80020 		ldr	r2, [r8, #0]	@ unaligned
 3208 0212 C5F80620 		str	r2, [r5, #6]	@ unaligned
 3209 0216 B8F80430 		ldrh	r3, [r8, #4]	@ unaligned
 3210 021a 6B81     		strh	r3, [r5, #10]	@ unaligned
 3211              		.loc 1 807 0
 3212 021c B269     		ldr	r2, [r6, #24]
 3213 021e 3046     		mov	r0, r6
 3214 0220 2146     		mov	r1, r4
 3215 0222 9047     		blx	r2
 3216              	.LVL381:
 3217 0224 13E7     		b	.L461
 3218              	.L519:
 3219 0226 00BF     		.align	2
 3220              	.L518:
 3221 0228 00000000 		.word	.LANCHOR2
 3222 022c 00000000 		.word	lwip_stats
 3223 0230 00000000 		.word	.LANCHOR0
 3224              	.LBE40:
 3225              	.LBE42:
 3226              		.cfi_endproc
 3227              	.LFE20:
 3228              		.size	ethernet_input, .-ethernet_input
 3229              		.global	ethzero
 3230              		.global	ethbroadcast
 3231 0234 AFF30080 		.section	.bss.etharp_cached_entry,"aw",%nobits
 3231      AFF30080 
 3231      AFF30080 
 3232              		.set	.LANCHOR3,. + 0
 3233              		.type	etharp_cached_entry, %object
 3234              		.size	etharp_cached_entry, 1
 3235              	etharp_cached_entry:
 3236 0000 00       		.space	1
 3237              		.section	.bss.arp_table,"aw",%nobits
ARM GAS  C:\Users\jenny\AppData\Local\Temp\ccFzIZYt.s 			page 58


 3238              		.align	2
 3239              		.set	.LANCHOR0,. + 0
 3240              		.type	arp_table, %object
 3241              		.size	arp_table, 200
 3242              	arp_table:
 3243 0000 00000000 		.space	200
 3243      00000000 
 3243      00000000 
 3243      00000000 
 3243      00000000 
 3244              		.section	.rodata.ethbroadcast,"a",%progbits
 3245              		.align	2
 3246              		.set	.LANCHOR2,. + 0
 3247              		.type	ethbroadcast, %object
 3248              		.size	ethbroadcast, 6
 3249              	ethbroadcast:
 3250 0000 FF       		.byte	-1
 3251 0001 FF       		.byte	-1
 3252 0002 FF       		.byte	-1
 3253 0003 FF       		.byte	-1
 3254 0004 FF       		.byte	-1
 3255 0005 FF       		.byte	-1
 3256 0006 0000     		.section	.rodata.ethzero,"a",%progbits
 3257              		.align	2
 3258              		.set	.LANCHOR1,. + 0
 3259              		.type	ethzero, %object
 3260              		.size	ethzero, 6
 3261              	ethzero:
 3262 0000 00000000 		.space	6
 3262      0000
 3263 0006 0000     		.text
 3264              	.Letext0:
 3265              		.file 2 "c:\\fbin\\yagarto\\bin\\../lib/gcc/arm-none-eabi/4.7.4/include/stddef.h"
 3266              		.file 3 "c:\\fbin\\yagarto\\bin\\../lib/gcc/arm-none-eabi/4.7.4/../../../../arm-none-eabi/include/
 3267              		.file 4 "../../os/various/lwip_bindings/arch/cc.h"
 3268              		.file 5 "../../ext/lwip/src/include/ipv4/lwip/ip_addr.h"
 3269              		.file 6 "../../ext/lwip/src/include/lwip/err.h"
 3270              		.file 7 "../../ext/lwip/src/include/lwip/pbuf.h"
 3271              		.file 8 "../../ext/lwip/src/include/lwip/netif.h"
 3272              		.file 9 "../../ext/lwip/src/include/lwip/mem.h"
 3273              		.file 10 "../../ext/lwip/src/include/lwip/memp.h"
 3274              		.file 11 "../../ext/lwip/src/include/lwip/stats.h"
 3275              		.file 12 "../../ext/lwip/src/include/netif/etharp.h"
 3276              		.file 13 "../../ext/lwip/src/include/lwip/def.h"
 3277              		.file 14 "c:\\fbin\\yagarto\\bin\\../lib/gcc/arm-none-eabi/4.7.4/../../../../arm-none-eabi/include
 3278              		.file 15 "../../ext/lwip/src/include/ipv4/lwip/ip.h"
 3279              		.file 16 "../../os/ports/GCC/ARMCMx/chcore_v7m.h"
 3280              		.section	.debug_info,"",%progbits
 3281              	.Ldebug_info0:
 3282 0000 14160000 		.4byte	0x1614
 3283 0004 0200     		.2byte	0x2
 3284 0006 00000000 		.4byte	.Ldebug_abbrev0
 3285 000a 04       		.byte	0x4
 3286 000b 01       		.uleb128 0x1
 3287 000c 0A050000 		.4byte	.LASF169
 3288 0010 01       		.byte	0x1
 3289 0011 D3000000 		.4byte	.LASF170
ARM GAS  C:\Users\jenny\AppData\Local\Temp\ccFzIZYt.s 			page 59


 3290 0015 03030000 		.4byte	.LASF171
 3291 0019 50010000 		.4byte	.Ldebug_ranges0+0x150
 3292 001d 00000000 		.4byte	0
 3293 0021 00000000 		.4byte	0
 3294 0025 00000000 		.4byte	.Ldebug_line0
 3295 0029 02       		.uleb128 0x2
 3296 002a 04       		.byte	0x4
 3297 002b 05       		.byte	0x5
 3298 002c 696E7400 		.ascii	"int\000"
 3299 0030 03       		.uleb128 0x3
 3300 0031 83020000 		.4byte	.LASF1
 3301 0035 02       		.byte	0x2
 3302 0036 D5       		.byte	0xd5
 3303 0037 3B000000 		.4byte	0x3b
 3304 003b 04       		.uleb128 0x4
 3305 003c 04       		.byte	0x4
 3306 003d 07       		.byte	0x7
 3307 003e 79000000 		.4byte	.LASF0
 3308 0042 03       		.uleb128 0x3
 3309 0043 6B010000 		.4byte	.LASF2
 3310 0047 03       		.byte	0x3
 3311 0048 29       		.byte	0x29
 3312 0049 4D000000 		.4byte	0x4d
 3313 004d 04       		.uleb128 0x4
 3314 004e 01       		.byte	0x1
 3315 004f 06       		.byte	0x6
 3316 0050 74070000 		.4byte	.LASF3
 3317 0054 03       		.uleb128 0x3
 3318 0055 18040000 		.4byte	.LASF4
 3319 0059 03       		.byte	0x3
 3320 005a 2A       		.byte	0x2a
 3321 005b 5F000000 		.4byte	0x5f
 3322 005f 04       		.uleb128 0x4
 3323 0060 01       		.byte	0x1
 3324 0061 08       		.byte	0x8
 3325 0062 FA060000 		.4byte	.LASF5
 3326 0066 03       		.uleb128 0x3
 3327 0067 C5010000 		.4byte	.LASF6
 3328 006b 03       		.byte	0x3
 3329 006c 35       		.byte	0x35
 3330 006d 71000000 		.4byte	0x71
 3331 0071 04       		.uleb128 0x4
 3332 0072 02       		.byte	0x2
 3333 0073 05       		.byte	0x5
 3334 0074 AA050000 		.4byte	.LASF7
 3335 0078 03       		.uleb128 0x3
 3336 0079 53050000 		.4byte	.LASF8
 3337 007d 03       		.byte	0x3
 3338 007e 36       		.byte	0x36
 3339 007f 83000000 		.4byte	0x83
 3340 0083 04       		.uleb128 0x4
 3341 0084 02       		.byte	0x2
 3342 0085 07       		.byte	0x7
 3343 0086 80070000 		.4byte	.LASF9
 3344 008a 04       		.uleb128 0x4
 3345 008b 04       		.byte	0x4
 3346 008c 05       		.byte	0x5
ARM GAS  C:\Users\jenny\AppData\Local\Temp\ccFzIZYt.s 			page 60


 3347 008d B9050000 		.4byte	.LASF10
 3348 0091 03       		.uleb128 0x3
 3349 0092 62010000 		.4byte	.LASF11
 3350 0096 03       		.byte	0x3
 3351 0097 50       		.byte	0x50
 3352 0098 9C000000 		.4byte	0x9c
 3353 009c 04       		.uleb128 0x4
 3354 009d 04       		.byte	0x4
 3355 009e 07       		.byte	0x7
 3356 009f 9E060000 		.4byte	.LASF12
 3357 00a3 04       		.uleb128 0x4
 3358 00a4 08       		.byte	0x8
 3359 00a5 05       		.byte	0x5
 3360 00a6 61040000 		.4byte	.LASF13
 3361 00aa 04       		.uleb128 0x4
 3362 00ab 08       		.byte	0x8
 3363 00ac 07       		.byte	0x7
 3364 00ad EF010000 		.4byte	.LASF14
 3365 00b1 04       		.uleb128 0x4
 3366 00b2 01       		.byte	0x1
 3367 00b3 02       		.byte	0x2
 3368 00b4 B6020000 		.4byte	.LASF15
 3369 00b8 05       		.uleb128 0x5
 3370 00b9 04       		.byte	0x4
 3371 00ba 04       		.uleb128 0x4
 3372 00bb 04       		.byte	0x4
 3373 00bc 07       		.byte	0x7
 3374 00bd 8E060000 		.4byte	.LASF16
 3375 00c1 04       		.uleb128 0x4
 3376 00c2 01       		.byte	0x1
 3377 00c3 08       		.byte	0x8
 3378 00c4 DB030000 		.4byte	.LASF17
 3379 00c8 03       		.uleb128 0x3
 3380 00c9 A3040000 		.4byte	.LASF18
 3381 00cd 04       		.byte	0x4
 3382 00ce 38       		.byte	0x38
 3383 00cf 54000000 		.4byte	0x54
 3384 00d3 03       		.uleb128 0x3
 3385 00d4 E1020000 		.4byte	.LASF19
 3386 00d8 04       		.byte	0x4
 3387 00d9 39       		.byte	0x39
 3388 00da 42000000 		.4byte	0x42
 3389 00de 03       		.uleb128 0x3
 3390 00df B6000000 		.4byte	.LASF20
 3391 00e3 04       		.byte	0x4
 3392 00e4 3A       		.byte	0x3a
 3393 00e5 78000000 		.4byte	0x78
 3394 00e9 03       		.uleb128 0x3
 3395 00ea C8060000 		.4byte	.LASF21
 3396 00ee 04       		.byte	0x4
 3397 00ef 3B       		.byte	0x3b
 3398 00f0 66000000 		.4byte	0x66
 3399 00f4 03       		.uleb128 0x3
 3400 00f5 A4050000 		.4byte	.LASF22
 3401 00f9 04       		.byte	0x4
 3402 00fa 3C       		.byte	0x3c
 3403 00fb 91000000 		.4byte	0x91
ARM GAS  C:\Users\jenny\AppData\Local\Temp\ccFzIZYt.s 			page 61


 3404 00ff 06       		.uleb128 0x6
 3405 0100 C7070000 		.4byte	.LASF24
 3406 0104 04       		.byte	0x4
 3407 0105 05       		.byte	0x5
 3408 0106 2C       		.byte	0x2c
 3409 0107 1A010000 		.4byte	0x11a
 3410 010b 07       		.uleb128 0x7
 3411 010c 34070000 		.4byte	.LASF26
 3412 0110 05       		.byte	0x5
 3413 0111 2D       		.byte	0x2d
 3414 0112 F4000000 		.4byte	0xf4
 3415 0116 02       		.byte	0x2
 3416 0117 23       		.byte	0x23
 3417 0118 00       		.uleb128 0
 3418 0119 00       		.byte	0
 3419 011a 03       		.uleb128 0x3
 3420 011b 9E070000 		.4byte	.LASF23
 3421 011f 05       		.byte	0x5
 3422 0120 40       		.byte	0x40
 3423 0121 FF000000 		.4byte	0xff
 3424 0125 06       		.uleb128 0x6
 3425 0126 F8040000 		.4byte	.LASF25
 3426 012a 04       		.byte	0x4
 3427 012b 05       		.byte	0x5
 3428 012c 4B       		.byte	0x4b
 3429 012d 40010000 		.4byte	0x140
 3430 0131 07       		.uleb128 0x7
 3431 0132 B0000000 		.4byte	.LASF27
 3432 0136 05       		.byte	0x5
 3433 0137 4C       		.byte	0x4c
 3434 0138 40010000 		.4byte	0x140
 3435 013c 02       		.byte	0x2
 3436 013d 23       		.byte	0x23
 3437 013e 00       		.uleb128 0
 3438 013f 00       		.byte	0
 3439 0140 08       		.uleb128 0x8
 3440 0141 DE000000 		.4byte	0xde
 3441 0145 50010000 		.4byte	0x150
 3442 0149 09       		.uleb128 0x9
 3443 014a BA000000 		.4byte	0xba
 3444 014e 01       		.byte	0x1
 3445 014f 00       		.byte	0
 3446 0150 03       		.uleb128 0x3
 3447 0151 97000000 		.4byte	.LASF28
 3448 0155 06       		.byte	0x6
 3449 0156 2F       		.byte	0x2f
 3450 0157 D3000000 		.4byte	0xd3
 3451 015b 0A       		.uleb128 0xa
 3452 015c 01       		.byte	0x1
 3453 015d 07       		.byte	0x7
 3454 015e 32       		.byte	0x32
 3455 015f 7C010000 		.4byte	0x17c
 3456 0163 0B       		.uleb128 0xb
 3457 0164 36010000 		.4byte	.LASF29
 3458 0168 00       		.sleb128 0
 3459 0169 0B       		.uleb128 0xb
 3460 016a A7020000 		.4byte	.LASF30
ARM GAS  C:\Users\jenny\AppData\Local\Temp\ccFzIZYt.s 			page 62


 3461 016e 01       		.sleb128 1
 3462 016f 0B       		.uleb128 0xb
 3463 0170 DA040000 		.4byte	.LASF31
 3464 0174 02       		.sleb128 2
 3465 0175 0B       		.uleb128 0xb
 3466 0176 66000000 		.4byte	.LASF32
 3467 017a 03       		.sleb128 3
 3468 017b 00       		.byte	0
 3469 017c 03       		.uleb128 0x3
 3470 017d CE060000 		.4byte	.LASF33
 3471 0181 07       		.byte	0x7
 3472 0182 37       		.byte	0x37
 3473 0183 5B010000 		.4byte	0x15b
 3474 0187 0A       		.uleb128 0xa
 3475 0188 01       		.byte	0x1
 3476 0189 07       		.byte	0x7
 3477 018a 39       		.byte	0x39
 3478 018b A8010000 		.4byte	0x1a8
 3479 018f 0B       		.uleb128 0xb
 3480 0190 5D000000 		.4byte	.LASF34
 3481 0194 00       		.sleb128 0
 3482 0195 0B       		.uleb128 0xb
 3483 0196 A8070000 		.4byte	.LASF35
 3484 019a 01       		.sleb128 1
 3485 019b 0B       		.uleb128 0xb
 3486 019c 51020000 		.4byte	.LASF36
 3487 01a0 02       		.sleb128 2
 3488 01a1 0B       		.uleb128 0xb
 3489 01a2 C8020000 		.4byte	.LASF37
 3490 01a6 03       		.sleb128 3
 3491 01a7 00       		.byte	0
 3492 01a8 03       		.uleb128 0x3
 3493 01a9 6F000000 		.4byte	.LASF38
 3494 01ad 07       		.byte	0x7
 3495 01ae 3E       		.byte	0x3e
 3496 01af 87010000 		.4byte	0x187
 3497 01b3 06       		.uleb128 0x6
 3498 01b4 21070000 		.4byte	.LASF39
 3499 01b8 10       		.byte	0x10
 3500 01b9 07       		.byte	0x7
 3501 01ba 4F       		.byte	0x4f
 3502 01bb 22020000 		.4byte	0x222
 3503 01bf 07       		.uleb128 0x7
 3504 01c0 86000000 		.4byte	.LASF40
 3505 01c4 07       		.byte	0x7
 3506 01c5 51       		.byte	0x51
 3507 01c6 22020000 		.4byte	0x222
 3508 01ca 02       		.byte	0x2
 3509 01cb 23       		.byte	0x23
 3510 01cc 00       		.uleb128 0
 3511 01cd 07       		.uleb128 0x7
 3512 01ce 8A020000 		.4byte	.LASF41
 3513 01d2 07       		.byte	0x7
 3514 01d3 54       		.byte	0x54
 3515 01d4 B8000000 		.4byte	0xb8
 3516 01d8 02       		.byte	0x2
 3517 01d9 23       		.byte	0x23
ARM GAS  C:\Users\jenny\AppData\Local\Temp\ccFzIZYt.s 			page 63


 3518 01da 04       		.uleb128 0x4
 3519 01db 07       		.uleb128 0x7
 3520 01dc 74020000 		.4byte	.LASF42
 3521 01e0 07       		.byte	0x7
 3522 01e1 5D       		.byte	0x5d
 3523 01e2 DE000000 		.4byte	0xde
 3524 01e6 02       		.byte	0x2
 3525 01e7 23       		.byte	0x23
 3526 01e8 08       		.uleb128 0x8
 3527 01e9 0C       		.uleb128 0xc
 3528 01ea 6C656E00 		.ascii	"len\000"
 3529 01ee 07       		.byte	0x7
 3530 01ef 60       		.byte	0x60
 3531 01f0 DE000000 		.4byte	0xde
 3532 01f4 02       		.byte	0x2
 3533 01f5 23       		.byte	0x23
 3534 01f6 0A       		.uleb128 0xa
 3535 01f7 07       		.uleb128 0x7
 3536 01f8 EB060000 		.4byte	.LASF43
 3537 01fc 07       		.byte	0x7
 3538 01fd 63       		.byte	0x63
 3539 01fe C8000000 		.4byte	0xc8
 3540 0202 02       		.byte	0x2
 3541 0203 23       		.byte	0x23
 3542 0204 0C       		.uleb128 0xc
 3543 0205 07       		.uleb128 0x7
 3544 0206 D2020000 		.4byte	.LASF44
 3545 020a 07       		.byte	0x7
 3546 020b 66       		.byte	0x66
 3547 020c C8000000 		.4byte	0xc8
 3548 0210 02       		.byte	0x2
 3549 0211 23       		.byte	0x23
 3550 0212 0D       		.uleb128 0xd
 3551 0213 0C       		.uleb128 0xc
 3552 0214 72656600 		.ascii	"ref\000"
 3553 0218 07       		.byte	0x7
 3554 0219 6D       		.byte	0x6d
 3555 021a DE000000 		.4byte	0xde
 3556 021e 02       		.byte	0x2
 3557 021f 23       		.byte	0x23
 3558 0220 0E       		.uleb128 0xe
 3559 0221 00       		.byte	0
 3560 0222 0D       		.uleb128 0xd
 3561 0223 04       		.byte	0x4
 3562 0224 B3010000 		.4byte	0x1b3
 3563 0228 0D       		.uleb128 0xd
 3564 0229 04       		.byte	0x4
 3565 022a 2E020000 		.4byte	0x22e
 3566 022e 06       		.uleb128 0x6
 3567 022f 4F070000 		.4byte	.LASF45
 3568 0233 30       		.byte	0x30
 3569 0234 08       		.byte	0x8
 3570 0235 88       		.byte	0x88
 3571 0236 FE020000 		.4byte	0x2fe
 3572 023a 07       		.uleb128 0x7
 3573 023b 86000000 		.4byte	.LASF40
 3574 023f 08       		.byte	0x8
ARM GAS  C:\Users\jenny\AppData\Local\Temp\ccFzIZYt.s 			page 64


 3575 0240 8A       		.byte	0x8a
 3576 0241 28020000 		.4byte	0x228
 3577 0245 02       		.byte	0x2
 3578 0246 23       		.byte	0x23
 3579 0247 00       		.uleb128 0
 3580 0248 07       		.uleb128 0x7
 3581 0249 C7070000 		.4byte	.LASF24
 3582 024d 08       		.byte	0x8
 3583 024e 8D       		.byte	0x8d
 3584 024f 1A010000 		.4byte	0x11a
 3585 0253 02       		.byte	0x2
 3586 0254 23       		.byte	0x23
 3587 0255 04       		.uleb128 0x4
 3588 0256 07       		.uleb128 0x7
 3589 0257 59040000 		.4byte	.LASF46
 3590 025b 08       		.byte	0x8
 3591 025c 8E       		.byte	0x8e
 3592 025d 1A010000 		.4byte	0x11a
 3593 0261 02       		.byte	0x2
 3594 0262 23       		.byte	0x23
 3595 0263 08       		.uleb128 0x8
 3596 0264 0C       		.uleb128 0xc
 3597 0265 677700   		.ascii	"gw\000"
 3598 0268 08       		.byte	0x8
 3599 0269 8F       		.byte	0x8f
 3600 026a 1A010000 		.4byte	0x11a
 3601 026e 02       		.byte	0x2
 3602 026f 23       		.byte	0x23
 3603 0270 0C       		.uleb128 0xc
 3604 0271 07       		.uleb128 0x7
 3605 0272 3A000000 		.4byte	.LASF47
 3606 0276 08       		.byte	0x8
 3607 0277 93       		.byte	0x93
 3608 0278 FE020000 		.4byte	0x2fe
 3609 027c 02       		.byte	0x2
 3610 027d 23       		.byte	0x23
 3611 027e 10       		.uleb128 0x10
 3612 027f 07       		.uleb128 0x7
 3613 0280 AF020000 		.4byte	.LASF48
 3614 0284 08       		.byte	0x8
 3615 0285 97       		.byte	0x97
 3616 0286 24030000 		.4byte	0x324
 3617 028a 02       		.byte	0x2
 3618 028b 23       		.byte	0x23
 3619 028c 14       		.uleb128 0x14
 3620 028d 07       		.uleb128 0x7
 3621 028e A5000000 		.4byte	.LASF49
 3622 0292 08       		.byte	0x8
 3623 0293 9B       		.byte	0x9b
 3624 0294 55030000 		.4byte	0x355
 3625 0298 02       		.byte	0x2
 3626 0299 23       		.byte	0x23
 3627 029a 18       		.uleb128 0x18
 3628 029b 07       		.uleb128 0x7
 3629 029c 3E070000 		.4byte	.LASF50
 3630 02a0 08       		.byte	0x8
 3631 02a1 AC       		.byte	0xac
ARM GAS  C:\Users\jenny\AppData\Local\Temp\ccFzIZYt.s 			page 65


 3632 02a2 B8000000 		.4byte	0xb8
 3633 02a6 02       		.byte	0x2
 3634 02a7 23       		.byte	0x23
 3635 02a8 1C       		.uleb128 0x1c
 3636 02a9 0C       		.uleb128 0xc
 3637 02aa 6D747500 		.ascii	"mtu\000"
 3638 02ae 08       		.byte	0x8
 3639 02af BA       		.byte	0xba
 3640 02b0 DE000000 		.4byte	0xde
 3641 02b4 02       		.byte	0x2
 3642 02b5 23       		.byte	0x23
 3643 02b6 20       		.uleb128 0x20
 3644 02b7 07       		.uleb128 0x7
 3645 02b8 1F020000 		.4byte	.LASF51
 3646 02bc 08       		.byte	0x8
 3647 02bd BC       		.byte	0xbc
 3648 02be C8000000 		.4byte	0xc8
 3649 02c2 02       		.byte	0x2
 3650 02c3 23       		.byte	0x23
 3651 02c4 22       		.uleb128 0x22
 3652 02c5 07       		.uleb128 0x7
 3653 02c6 E1010000 		.4byte	.LASF52
 3654 02ca 08       		.byte	0x8
 3655 02cb BE       		.byte	0xbe
 3656 02cc 7B030000 		.4byte	0x37b
 3657 02d0 02       		.byte	0x2
 3658 02d1 23       		.byte	0x23
 3659 02d2 23       		.uleb128 0x23
 3660 02d3 07       		.uleb128 0x7
 3661 02d4 D2020000 		.4byte	.LASF44
 3662 02d8 08       		.byte	0x8
 3663 02d9 C0       		.byte	0xc0
 3664 02da C8000000 		.4byte	0xc8
 3665 02de 02       		.byte	0x2
 3666 02df 23       		.byte	0x23
 3667 02e0 29       		.uleb128 0x29
 3668 02e1 07       		.uleb128 0x7
 3669 02e2 2C060000 		.4byte	.LASF53
 3670 02e6 08       		.byte	0x8
 3671 02e7 C2       		.byte	0xc2
 3672 02e8 8B030000 		.4byte	0x38b
 3673 02ec 02       		.byte	0x2
 3674 02ed 23       		.byte	0x23
 3675 02ee 2A       		.uleb128 0x2a
 3676 02ef 0C       		.uleb128 0xc
 3677 02f0 6E756D00 		.ascii	"num\000"
 3678 02f4 08       		.byte	0x8
 3679 02f5 C4       		.byte	0xc4
 3680 02f6 C8000000 		.4byte	0xc8
 3681 02fa 02       		.byte	0x2
 3682 02fb 23       		.byte	0x23
 3683 02fc 2C       		.uleb128 0x2c
 3684 02fd 00       		.byte	0
 3685 02fe 03       		.uleb128 0x3
 3686 02ff 53010000 		.4byte	.LASF54
 3687 0303 08       		.byte	0x8
 3688 0304 6D       		.byte	0x6d
ARM GAS  C:\Users\jenny\AppData\Local\Temp\ccFzIZYt.s 			page 66


 3689 0305 09030000 		.4byte	0x309
 3690 0309 0D       		.uleb128 0xd
 3691 030a 04       		.byte	0x4
 3692 030b 0F030000 		.4byte	0x30f
 3693 030f 0E       		.uleb128 0xe
 3694 0310 01       		.byte	0x1
 3695 0311 50010000 		.4byte	0x150
 3696 0315 24030000 		.4byte	0x324
 3697 0319 0F       		.uleb128 0xf
 3698 031a 22020000 		.4byte	0x222
 3699 031e 0F       		.uleb128 0xf
 3700 031f 28020000 		.4byte	0x228
 3701 0323 00       		.byte	0
 3702 0324 03       		.uleb128 0x3
 3703 0325 F5000000 		.4byte	.LASF55
 3704 0329 08       		.byte	0x8
 3705 032a 76       		.byte	0x76
 3706 032b 2F030000 		.4byte	0x32f
 3707 032f 0D       		.uleb128 0xd
 3708 0330 04       		.byte	0x4
 3709 0331 35030000 		.4byte	0x335
 3710 0335 0E       		.uleb128 0xe
 3711 0336 01       		.byte	0x1
 3712 0337 50010000 		.4byte	0x150
 3713 033b 4F030000 		.4byte	0x34f
 3714 033f 0F       		.uleb128 0xf
 3715 0340 28020000 		.4byte	0x228
 3716 0344 0F       		.uleb128 0xf
 3717 0345 22020000 		.4byte	0x222
 3718 0349 0F       		.uleb128 0xf
 3719 034a 4F030000 		.4byte	0x34f
 3720 034e 00       		.byte	0
 3721 034f 0D       		.uleb128 0xd
 3722 0350 04       		.byte	0x4
 3723 0351 1A010000 		.4byte	0x11a
 3724 0355 03       		.uleb128 0x3
 3725 0356 31060000 		.4byte	.LASF56
 3726 035a 08       		.byte	0x8
 3727 035b 7E       		.byte	0x7e
 3728 035c 60030000 		.4byte	0x360
 3729 0360 0D       		.uleb128 0xd
 3730 0361 04       		.byte	0x4
 3731 0362 66030000 		.4byte	0x366
 3732 0366 0E       		.uleb128 0xe
 3733 0367 01       		.byte	0x1
 3734 0368 50010000 		.4byte	0x150
 3735 036c 7B030000 		.4byte	0x37b
 3736 0370 0F       		.uleb128 0xf
 3737 0371 28020000 		.4byte	0x228
 3738 0375 0F       		.uleb128 0xf
 3739 0376 22020000 		.4byte	0x222
 3740 037a 00       		.byte	0
 3741 037b 08       		.uleb128 0x8
 3742 037c C8000000 		.4byte	0xc8
 3743 0380 8B030000 		.4byte	0x38b
 3744 0384 09       		.uleb128 0x9
 3745 0385 BA000000 		.4byte	0xba
ARM GAS  C:\Users\jenny\AppData\Local\Temp\ccFzIZYt.s 			page 67


 3746 0389 05       		.byte	0x5
 3747 038a 00       		.byte	0
 3748 038b 08       		.uleb128 0x8
 3749 038c C1000000 		.4byte	0xc1
 3750 0390 9B030000 		.4byte	0x39b
 3751 0394 09       		.uleb128 0x9
 3752 0395 BA000000 		.4byte	0xba
 3753 0399 01       		.byte	0x1
 3754 039a 00       		.byte	0
 3755 039b 03       		.uleb128 0x3
 3756 039c EC030000 		.4byte	.LASF57
 3757 03a0 09       		.byte	0x9
 3758 03a1 4C       		.byte	0x4c
 3759 03a2 DE000000 		.4byte	0xde
 3760 03a6 0A       		.uleb128 0xa
 3761 03a7 01       		.byte	0x1
 3762 03a8 0A       		.byte	0xa
 3763 03a9 2B       		.byte	0x2b
 3764 03aa 09040000 		.4byte	0x409
 3765 03ae 0B       		.uleb128 0xb
 3766 03af 72060000 		.4byte	.LASF58
 3767 03b3 00       		.sleb128 0
 3768 03b4 0B       		.uleb128 0xb
 3769 03b5 E6050000 		.4byte	.LASF59
 3770 03b9 01       		.sleb128 1
 3771 03ba 0B       		.uleb128 0xb
 3772 03bb 91040000 		.4byte	.LASF60
 3773 03bf 02       		.sleb128 2
 3774 03c0 0B       		.uleb128 0xb
 3775 03c1 1C000000 		.4byte	.LASF61
 3776 03c5 03       		.sleb128 3
 3777 03c6 0B       		.uleb128 0xb
 3778 03c7 0F070000 		.4byte	.LASF62
 3779 03cb 04       		.sleb128 4
 3780 03cc 0B       		.uleb128 0xb
 3781 03cd CB040000 		.4byte	.LASF63
 3782 03d1 05       		.sleb128 5
 3783 03d2 0B       		.uleb128 0xb
 3784 03d3 45060000 		.4byte	.LASF64
 3785 03d7 06       		.sleb128 6
 3786 03d8 0B       		.uleb128 0xb
 3787 03d9 4D040000 		.4byte	.LASF65
 3788 03dd 07       		.sleb128 7
 3789 03de 0B       		.uleb128 0xb
 3790 03df 56030000 		.4byte	.LASF66
 3791 03e3 08       		.sleb128 8
 3792 03e4 0B       		.uleb128 0xb
 3793 03e5 72010000 		.4byte	.LASF67
 3794 03e9 09       		.sleb128 9
 3795 03ea 0B       		.uleb128 0xb
 3796 03eb 3C020000 		.4byte	.LASF68
 3797 03ef 0A       		.sleb128 10
 3798 03f0 0B       		.uleb128 0xb
 3799 03f1 CE050000 		.4byte	.LASF69
 3800 03f5 0B       		.sleb128 11
 3801 03f6 0B       		.uleb128 0xb
 3802 03f7 A6030000 		.4byte	.LASF70
ARM GAS  C:\Users\jenny\AppData\Local\Temp\ccFzIZYt.s 			page 68


 3803 03fb 0C       		.sleb128 12
 3804 03fc 0B       		.uleb128 0xb
 3805 03fd 10010000 		.4byte	.LASF71
 3806 0401 0D       		.sleb128 13
 3807 0402 0B       		.uleb128 0xb
 3808 0403 D8020000 		.4byte	.LASF72
 3809 0407 0E       		.sleb128 14
 3810 0408 00       		.byte	0
 3811 0409 06       		.uleb128 0x6
 3812 040a F7030000 		.4byte	.LASF73
 3813 040e 18       		.byte	0x18
 3814 040f 0B       		.byte	0xb
 3815 0410 3A       		.byte	0x3a
 3816 0411 BD040000 		.4byte	0x4bd
 3817 0415 07       		.uleb128 0x7
 3818 0416 93070000 		.4byte	.LASF74
 3819 041a 0B       		.byte	0xb
 3820 041b 3B       		.byte	0x3b
 3821 041c DE000000 		.4byte	0xde
 3822 0420 02       		.byte	0x2
 3823 0421 23       		.byte	0x23
 3824 0422 00       		.uleb128 0
 3825 0423 07       		.uleb128 0x7
 3826 0424 6F070000 		.4byte	.LASF75
 3827 0428 0B       		.byte	0xb
 3828 0429 3C       		.byte	0x3c
 3829 042a DE000000 		.4byte	0xde
 3830 042e 02       		.byte	0x2
 3831 042f 23       		.byte	0x23
 3832 0430 02       		.uleb128 0x2
 3833 0431 0C       		.uleb128 0xc
 3834 0432 667700   		.ascii	"fw\000"
 3835 0435 0B       		.byte	0xb
 3836 0436 3D       		.byte	0x3d
 3837 0437 DE000000 		.4byte	0xde
 3838 043b 02       		.byte	0x2
 3839 043c 23       		.byte	0x23
 3840 043d 04       		.uleb128 0x4
 3841 043e 07       		.uleb128 0x7
 3842 043f 39070000 		.4byte	.LASF76
 3843 0443 0B       		.byte	0xb
 3844 0444 3E       		.byte	0x3e
 3845 0445 DE000000 		.4byte	0xde
 3846 0449 02       		.byte	0x2
 3847 044a 23       		.byte	0x23
 3848 044b 06       		.uleb128 0x6
 3849 044c 07       		.uleb128 0x7
 3850 044d B9040000 		.4byte	.LASF77
 3851 0451 0B       		.byte	0xb
 3852 0452 3F       		.byte	0x3f
 3853 0453 DE000000 		.4byte	0xde
 3854 0457 02       		.byte	0x2
 3855 0458 23       		.byte	0x23
 3856 0459 08       		.uleb128 0x8
 3857 045a 07       		.uleb128 0x7
 3858 045b 7F060000 		.4byte	.LASF78
 3859 045f 0B       		.byte	0xb
ARM GAS  C:\Users\jenny\AppData\Local\Temp\ccFzIZYt.s 			page 69


 3860 0460 40       		.byte	0x40
 3861 0461 DE000000 		.4byte	0xde
 3862 0465 02       		.byte	0x2
 3863 0466 23       		.byte	0x23
 3864 0467 0A       		.uleb128 0xa
 3865 0468 07       		.uleb128 0x7
 3866 0469 08070000 		.4byte	.LASF79
 3867 046d 0B       		.byte	0xb
 3868 046e 41       		.byte	0x41
 3869 046f DE000000 		.4byte	0xde
 3870 0473 02       		.byte	0x2
 3871 0474 23       		.byte	0x23
 3872 0475 0C       		.uleb128 0xc
 3873 0476 07       		.uleb128 0x7
 3874 0477 C2050000 		.4byte	.LASF80
 3875 047b 0B       		.byte	0xb
 3876 047c 42       		.byte	0x42
 3877 047d DE000000 		.4byte	0xde
 3878 0481 02       		.byte	0x2
 3879 0482 23       		.byte	0x23
 3880 0483 0E       		.uleb128 0xe
 3881 0484 07       		.uleb128 0x7
 3882 0485 D9060000 		.4byte	.LASF81
 3883 0489 0B       		.byte	0xb
 3884 048a 43       		.byte	0x43
 3885 048b DE000000 		.4byte	0xde
 3886 048f 02       		.byte	0x2
 3887 0490 23       		.byte	0x23
 3888 0491 10       		.uleb128 0x10
 3889 0492 07       		.uleb128 0x7
 3890 0493 85010000 		.4byte	.LASF82
 3891 0497 0B       		.byte	0xb
 3892 0498 44       		.byte	0x44
 3893 0499 DE000000 		.4byte	0xde
 3894 049d 02       		.byte	0x2
 3895 049e 23       		.byte	0x23
 3896 049f 12       		.uleb128 0x12
 3897 04a0 0C       		.uleb128 0xc
 3898 04a1 65727200 		.ascii	"err\000"
 3899 04a5 0B       		.byte	0xb
 3900 04a6 45       		.byte	0x45
 3901 04a7 DE000000 		.4byte	0xde
 3902 04ab 02       		.byte	0x2
 3903 04ac 23       		.byte	0x23
 3904 04ad 14       		.uleb128 0x14
 3905 04ae 07       		.uleb128 0x7
 3906 04af 23060000 		.4byte	.LASF83
 3907 04b3 0B       		.byte	0xb
 3908 04b4 46       		.byte	0x46
 3909 04b5 DE000000 		.4byte	0xde
 3910 04b9 02       		.byte	0x2
 3911 04ba 23       		.byte	0x23
 3912 04bb 16       		.uleb128 0x16
 3913 04bc 00       		.byte	0
 3914 04bd 06       		.uleb128 0x6
 3915 04be BC000000 		.4byte	.LASF84
 3916 04c2 0A       		.byte	0xa
ARM GAS  C:\Users\jenny\AppData\Local\Temp\ccFzIZYt.s 			page 70


 3917 04c3 0B       		.byte	0xb
 3918 04c4 5A       		.byte	0x5a
 3919 04c5 10050000 		.4byte	0x510
 3920 04c9 07       		.uleb128 0x7
 3921 04ca C8050000 		.4byte	.LASF85
 3922 04ce 0B       		.byte	0xb
 3923 04cf 5E       		.byte	0x5e
 3924 04d0 9B030000 		.4byte	0x39b
 3925 04d4 02       		.byte	0x2
 3926 04d5 23       		.byte	0x23
 3927 04d6 00       		.uleb128 0
 3928 04d7 07       		.uleb128 0x7
 3929 04d8 B4040000 		.4byte	.LASF86
 3930 04dc 0B       		.byte	0xb
 3931 04dd 5F       		.byte	0x5f
 3932 04de 9B030000 		.4byte	0x39b
 3933 04e2 02       		.byte	0x2
 3934 04e3 23       		.byte	0x23
 3935 04e4 02       		.uleb128 0x2
 3936 04e5 0C       		.uleb128 0xc
 3937 04e6 6D617800 		.ascii	"max\000"
 3938 04ea 0B       		.byte	0xb
 3939 04eb 60       		.byte	0x60
 3940 04ec 9B030000 		.4byte	0x39b
 3941 04f0 02       		.byte	0x2
 3942 04f1 23       		.byte	0x23
 3943 04f2 04       		.uleb128 0x4
 3944 04f3 0C       		.uleb128 0xc
 3945 04f4 65727200 		.ascii	"err\000"
 3946 04f8 0B       		.byte	0xb
 3947 04f9 61       		.byte	0x61
 3948 04fa DE000000 		.4byte	0xde
 3949 04fe 02       		.byte	0x2
 3950 04ff 23       		.byte	0x23
 3951 0500 06       		.uleb128 0x6
 3952 0501 07       		.uleb128 0x7
 3953 0502 BD010000 		.4byte	.LASF87
 3954 0506 0B       		.byte	0xb
 3955 0507 62       		.byte	0x62
 3956 0508 DE000000 		.4byte	0xde
 3957 050c 02       		.byte	0x2
 3958 050d 23       		.byte	0x23
 3959 050e 08       		.uleb128 0x8
 3960 050f 00       		.byte	0
 3961 0510 06       		.uleb128 0x6
 3962 0511 45010000 		.4byte	.LASF88
 3963 0515 06       		.byte	0x6
 3964 0516 0B       		.byte	0xb
 3965 0517 65       		.byte	0x65
 3966 0518 47050000 		.4byte	0x547
 3967 051c 07       		.uleb128 0x7
 3968 051d B4040000 		.4byte	.LASF86
 3969 0521 0B       		.byte	0xb
 3970 0522 66       		.byte	0x66
 3971 0523 DE000000 		.4byte	0xde
 3972 0527 02       		.byte	0x2
 3973 0528 23       		.byte	0x23
ARM GAS  C:\Users\jenny\AppData\Local\Temp\ccFzIZYt.s 			page 71


 3974 0529 00       		.uleb128 0
 3975 052a 0C       		.uleb128 0xc
 3976 052b 6D617800 		.ascii	"max\000"
 3977 052f 0B       		.byte	0xb
 3978 0530 67       		.byte	0x67
 3979 0531 DE000000 		.4byte	0xde
 3980 0535 02       		.byte	0x2
 3981 0536 23       		.byte	0x23
 3982 0537 02       		.uleb128 0x2
 3983 0538 0C       		.uleb128 0xc
 3984 0539 65727200 		.ascii	"err\000"
 3985 053d 0B       		.byte	0xb
 3986 053e 68       		.byte	0x68
 3987 053f DE000000 		.4byte	0xde
 3988 0543 02       		.byte	0x2
 3989 0544 23       		.byte	0x23
 3990 0545 04       		.uleb128 0x4
 3991 0546 00       		.byte	0
 3992 0547 06       		.uleb128 0x6
 3993 0548 F0060000 		.4byte	.LASF89
 3994 054c 12       		.byte	0x12
 3995 054d 0B       		.byte	0xb
 3996 054e 6B       		.byte	0x6b
 3997 054f 7E050000 		.4byte	0x57e
 3998 0553 0C       		.uleb128 0xc
 3999 0554 73656D00 		.ascii	"sem\000"
 4000 0558 0B       		.byte	0xb
 4001 0559 6C       		.byte	0x6c
 4002 055a 10050000 		.4byte	0x510
 4003 055e 02       		.byte	0x2
 4004 055f 23       		.byte	0x23
 4005 0560 00       		.uleb128 0
 4006 0561 07       		.uleb128 0x7
 4007 0562 A4010000 		.4byte	.LASF90
 4008 0566 0B       		.byte	0xb
 4009 0567 6D       		.byte	0x6d
 4010 0568 10050000 		.4byte	0x510
 4011 056c 02       		.byte	0x2
 4012 056d 23       		.byte	0x23
 4013 056e 06       		.uleb128 0x6
 4014 056f 07       		.uleb128 0x7
 4015 0570 F3050000 		.4byte	.LASF91
 4016 0574 0B       		.byte	0xb
 4017 0575 6E       		.byte	0x6e
 4018 0576 10050000 		.4byte	0x510
 4019 057a 02       		.byte	0x2
 4020 057b 23       		.byte	0x23
 4021 057c 0C       		.uleb128 0xc
 4022 057d 00       		.byte	0
 4023 057e 10       		.uleb128 0x10
 4024 057f 64020000 		.4byte	.LASF92
 4025 0583 5001     		.2byte	0x150
 4026 0585 0B       		.byte	0xb
 4027 0586 71       		.byte	0x71
 4028 0587 1B060000 		.4byte	0x61b
 4029 058b 07       		.uleb128 0x7
 4030 058c 1C070000 		.4byte	.LASF93
ARM GAS  C:\Users\jenny\AppData\Local\Temp\ccFzIZYt.s 			page 72


 4031 0590 0B       		.byte	0xb
 4032 0591 73       		.byte	0x73
 4033 0592 09040000 		.4byte	0x409
 4034 0596 02       		.byte	0x2
 4035 0597 23       		.byte	0x23
 4036 0598 00       		.uleb128 0
 4037 0599 07       		.uleb128 0x7
 4038 059a E8010000 		.4byte	.LASF94
 4039 059e 0B       		.byte	0xb
 4040 059f 76       		.byte	0x76
 4041 05a0 09040000 		.4byte	0x409
 4042 05a4 02       		.byte	0x2
 4043 05a5 23       		.byte	0x23
 4044 05a6 18       		.uleb128 0x18
 4045 05a7 07       		.uleb128 0x7
 4046 05a8 B5010000 		.4byte	.LASF95
 4047 05ac 0B       		.byte	0xb
 4048 05ad 79       		.byte	0x79
 4049 05ae 09040000 		.4byte	0x409
 4050 05b2 02       		.byte	0x2
 4051 05b3 23       		.byte	0x23
 4052 05b4 30       		.uleb128 0x30
 4053 05b5 0C       		.uleb128 0xc
 4054 05b6 697000   		.ascii	"ip\000"
 4055 05b9 0B       		.byte	0xb
 4056 05ba 7C       		.byte	0x7c
 4057 05bb 09040000 		.4byte	0x409
 4058 05bf 02       		.byte	0x2
 4059 05c0 23       		.byte	0x23
 4060 05c1 48       		.uleb128 0x48
 4061 05c2 07       		.uleb128 0x7
 4062 05c3 B4050000 		.4byte	.LASF96
 4063 05c7 0B       		.byte	0xb
 4064 05c8 7F       		.byte	0x7f
 4065 05c9 09040000 		.4byte	0x409
 4066 05cd 02       		.byte	0x2
 4067 05ce 23       		.byte	0x23
 4068 05cf 60       		.uleb128 0x60
 4069 05d0 0C       		.uleb128 0xc
 4070 05d1 75647000 		.ascii	"udp\000"
 4071 05d5 0B       		.byte	0xb
 4072 05d6 85       		.byte	0x85
 4073 05d7 09040000 		.4byte	0x409
 4074 05db 02       		.byte	0x2
 4075 05dc 23       		.byte	0x23
 4076 05dd 78       		.uleb128 0x78
 4077 05de 0C       		.uleb128 0xc
 4078 05df 74637000 		.ascii	"tcp\000"
 4079 05e3 0B       		.byte	0xb
 4080 05e4 88       		.byte	0x88
 4081 05e5 09040000 		.4byte	0x409
 4082 05e9 03       		.byte	0x3
 4083 05ea 23       		.byte	0x23
 4084 05eb 9001     		.uleb128 0x90
 4085 05ed 0C       		.uleb128 0xc
 4086 05ee 6D656D00 		.ascii	"mem\000"
 4087 05f2 0B       		.byte	0xb
ARM GAS  C:\Users\jenny\AppData\Local\Temp\ccFzIZYt.s 			page 73


 4088 05f3 8B       		.byte	0x8b
 4089 05f4 BD040000 		.4byte	0x4bd
 4090 05f8 03       		.byte	0x3
 4091 05f9 23       		.byte	0x23
 4092 05fa A801     		.uleb128 0xa8
 4093 05fc 07       		.uleb128 0x7
 4094 05fd 9E040000 		.4byte	.LASF97
 4095 0601 0B       		.byte	0xb
 4096 0602 8E       		.byte	0x8e
 4097 0603 1B060000 		.4byte	0x61b
 4098 0607 03       		.byte	0x3
 4099 0608 23       		.byte	0x23
 4100 0609 B201     		.uleb128 0xb2
 4101 060b 0C       		.uleb128 0xc
 4102 060c 73797300 		.ascii	"sys\000"
 4103 0610 0B       		.byte	0xb
 4104 0611 91       		.byte	0x91
 4105 0612 47050000 		.4byte	0x547
 4106 0616 03       		.byte	0x3
 4107 0617 23       		.byte	0x23
 4108 0618 BE02     		.uleb128 0x13e
 4109 061a 00       		.byte	0
 4110 061b 08       		.uleb128 0x8
 4111 061c BD040000 		.4byte	0x4bd
 4112 0620 2B060000 		.4byte	0x62b
 4113 0624 09       		.uleb128 0x9
 4114 0625 BA000000 		.4byte	0xba
 4115 0629 0D       		.byte	0xd
 4116 062a 00       		.byte	0
 4117 062b 06       		.uleb128 0x6
 4118 062c 00000000 		.4byte	.LASF98
 4119 0630 06       		.byte	0x6
 4120 0631 0C       		.byte	0xc
 4121 0632 3B       		.byte	0x3b
 4122 0633 46060000 		.4byte	0x646
 4123 0637 07       		.uleb128 0x7
 4124 0638 34070000 		.4byte	.LASF26
 4125 063c 0C       		.byte	0xc
 4126 063d 3C       		.byte	0x3c
 4127 063e 7B030000 		.4byte	0x37b
 4128 0642 02       		.byte	0x2
 4129 0643 23       		.byte	0x23
 4130 0644 00       		.uleb128 0
 4131 0645 00       		.byte	0
 4132 0646 06       		.uleb128 0x6
 4133 0647 2B040000 		.4byte	.LASF99
 4134 064b 0E       		.byte	0xe
 4135 064c 0C       		.byte	0xc
 4136 064d 48       		.byte	0x48
 4137 064e 7D060000 		.4byte	0x67d
 4138 0652 07       		.uleb128 0x7
 4139 0653 C2070000 		.4byte	.LASF100
 4140 0657 0C       		.byte	0xc
 4141 0658 4C       		.byte	0x4c
 4142 0659 2B060000 		.4byte	0x62b
 4143 065d 02       		.byte	0x2
 4144 065e 23       		.byte	0x23
ARM GAS  C:\Users\jenny\AppData\Local\Temp\ccFzIZYt.s 			page 74


 4145 065f 00       		.uleb128 0
 4146 0660 0C       		.uleb128 0xc
 4147 0661 73726300 		.ascii	"src\000"
 4148 0665 0C       		.byte	0xc
 4149 0666 4D       		.byte	0x4d
 4150 0667 2B060000 		.4byte	0x62b
 4151 066b 02       		.byte	0x2
 4152 066c 23       		.byte	0x23
 4153 066d 06       		.uleb128 0x6
 4154 066e 07       		.uleb128 0x7
 4155 066f EB060000 		.4byte	.LASF43
 4156 0673 0C       		.byte	0xc
 4157 0674 4E       		.byte	0x4e
 4158 0675 DE000000 		.4byte	0xde
 4159 0679 02       		.byte	0x2
 4160 067a 23       		.byte	0x23
 4161 067b 0C       		.uleb128 0xc
 4162 067c 00       		.byte	0
 4163 067d 06       		.uleb128 0x6
 4164 067e 11000000 		.4byte	.LASF101
 4165 0682 1C       		.byte	0x1c
 4166 0683 0C       		.byte	0xc
 4167 0684 73       		.byte	0x73
 4168 0685 08070000 		.4byte	0x708
 4169 0689 07       		.uleb128 0x7
 4170 068a B8030000 		.4byte	.LASF102
 4171 068e 0C       		.byte	0xc
 4172 068f 74       		.byte	0x74
 4173 0690 DE000000 		.4byte	0xde
 4174 0694 02       		.byte	0x2
 4175 0695 23       		.byte	0x23
 4176 0696 00       		.uleb128 0
 4177 0697 07       		.uleb128 0x7
 4178 0698 03040000 		.4byte	.LASF103
 4179 069c 0C       		.byte	0xc
 4180 069d 75       		.byte	0x75
 4181 069e DE000000 		.4byte	0xde
 4182 06a2 02       		.byte	0x2
 4183 06a3 23       		.byte	0x23
 4184 06a4 02       		.uleb128 0x2
 4185 06a5 07       		.uleb128 0x7
 4186 06a6 98070000 		.4byte	.LASF104
 4187 06aa 0C       		.byte	0xc
 4188 06ab 76       		.byte	0x76
 4189 06ac C8000000 		.4byte	0xc8
 4190 06b0 02       		.byte	0x2
 4191 06b1 23       		.byte	0x23
 4192 06b2 04       		.uleb128 0x4
 4193 06b3 07       		.uleb128 0x7
 4194 06b4 54000000 		.4byte	.LASF105
 4195 06b8 0C       		.byte	0xc
 4196 06b9 77       		.byte	0x77
 4197 06ba C8000000 		.4byte	0xc8
 4198 06be 02       		.byte	0x2
 4199 06bf 23       		.byte	0x23
 4200 06c0 05       		.uleb128 0x5
 4201 06c1 07       		.uleb128 0x7
ARM GAS  C:\Users\jenny\AppData\Local\Temp\ccFzIZYt.s 			page 75


 4202 06c2 09040000 		.4byte	.LASF106
 4203 06c6 0C       		.byte	0xc
 4204 06c7 78       		.byte	0x78
 4205 06c8 DE000000 		.4byte	0xde
 4206 06cc 02       		.byte	0x2
 4207 06cd 23       		.byte	0x23
 4208 06ce 06       		.uleb128 0x6
 4209 06cf 07       		.uleb128 0x7
 4210 06d0 F0020000 		.4byte	.LASF107
 4211 06d4 0C       		.byte	0xc
 4212 06d5 79       		.byte	0x79
 4213 06d6 2B060000 		.4byte	0x62b
 4214 06da 02       		.byte	0x2
 4215 06db 23       		.byte	0x23
 4216 06dc 08       		.uleb128 0x8
 4217 06dd 07       		.uleb128 0x7
 4218 06de 10040000 		.4byte	.LASF108
 4219 06e2 0C       		.byte	0xc
 4220 06e3 7A       		.byte	0x7a
 4221 06e4 25010000 		.4byte	0x125
 4222 06e8 02       		.byte	0x2
 4223 06e9 23       		.byte	0x23
 4224 06ea 0E       		.uleb128 0xe
 4225 06eb 07       		.uleb128 0x7
 4226 06ec 09000000 		.4byte	.LASF109
 4227 06f0 0C       		.byte	0xc
 4228 06f1 7B       		.byte	0x7b
 4229 06f2 2B060000 		.4byte	0x62b
 4230 06f6 02       		.byte	0x2
 4231 06f7 23       		.byte	0x23
 4232 06f8 12       		.uleb128 0x12
 4233 06f9 07       		.uleb128 0x7
 4234 06fa 9D000000 		.4byte	.LASF110
 4235 06fe 0C       		.byte	0xc
 4236 06ff 7C       		.byte	0x7c
 4237 0700 25010000 		.4byte	0x125
 4238 0704 02       		.byte	0x2
 4239 0705 23       		.byte	0x23
 4240 0706 18       		.uleb128 0x18
 4241 0707 00       		.byte	0
 4242 0708 11       		.uleb128 0x11
 4243 0709 78030000 		.4byte	.LASF172
 4244 070d 01       		.byte	0x1
 4245 070e 01       		.byte	0x1
 4246 070f 5F       		.byte	0x5f
 4247 0710 2D070000 		.4byte	0x72d
 4248 0714 0B       		.uleb128 0xb
 4249 0715 06020000 		.4byte	.LASF111
 4250 0719 00       		.sleb128 0
 4251 071a 0B       		.uleb128 0xb
 4252 071b 5D060000 		.4byte	.LASF112
 4253 071f 01       		.sleb128 1
 4254 0720 0B       		.uleb128 0xb
 4255 0721 E4040000 		.4byte	.LASF113
 4256 0725 02       		.sleb128 2
 4257 0726 0B       		.uleb128 0xb
 4258 0727 5C050000 		.4byte	.LASF114
ARM GAS  C:\Users\jenny\AppData\Local\Temp\ccFzIZYt.s 			page 76


 4259 072b 03       		.sleb128 3
 4260 072c 00       		.byte	0
 4261 072d 06       		.uleb128 0x6
 4262 072e CD010000 		.4byte	.LASF115
 4263 0732 14       		.byte	0x14
 4264 0733 01       		.byte	0x1
 4265 0734 69       		.byte	0x69
 4266 0735 8C070000 		.4byte	0x78c
 4267 0739 0C       		.uleb128 0xc
 4268 073a 7100     		.ascii	"q\000"
 4269 073c 01       		.byte	0x1
 4270 073d 6F       		.byte	0x6f
 4271 073e 22020000 		.4byte	0x222
 4272 0742 02       		.byte	0x2
 4273 0743 23       		.byte	0x23
 4274 0744 00       		.uleb128 0
 4275 0745 07       		.uleb128 0x7
 4276 0746 7C020000 		.4byte	.LASF116
 4277 074a 01       		.byte	0x1
 4278 074b 71       		.byte	0x71
 4279 074c 1A010000 		.4byte	0x11a
 4280 0750 02       		.byte	0x2
 4281 0751 23       		.byte	0x23
 4282 0752 04       		.uleb128 0x4
 4283 0753 07       		.uleb128 0x7
 4284 0754 4F070000 		.4byte	.LASF45
 4285 0758 01       		.byte	0x1
 4286 0759 72       		.byte	0x72
 4287 075a 28020000 		.4byte	0x228
 4288 075e 02       		.byte	0x2
 4289 075f 23       		.byte	0x23
 4290 0760 08       		.uleb128 0x8
 4291 0761 07       		.uleb128 0x7
 4292 0762 B0030000 		.4byte	.LASF117
 4293 0766 01       		.byte	0x1
 4294 0767 73       		.byte	0x73
 4295 0768 2B060000 		.4byte	0x62b
 4296 076c 02       		.byte	0x2
 4297 076d 23       		.byte	0x23
 4298 076e 0C       		.uleb128 0xc
 4299 076f 07       		.uleb128 0x7
 4300 0770 3E070000 		.4byte	.LASF50
 4301 0774 01       		.byte	0x1
 4302 0775 74       		.byte	0x74
 4303 0776 C8000000 		.4byte	0xc8
 4304 077a 02       		.byte	0x2
 4305 077b 23       		.byte	0x23
 4306 077c 12       		.uleb128 0x12
 4307 077d 07       		.uleb128 0x7
 4308 077e 19020000 		.4byte	.LASF118
 4309 0782 01       		.byte	0x1
 4310 0783 75       		.byte	0x75
 4311 0784 C8000000 		.4byte	0xc8
 4312 0788 02       		.byte	0x2
 4313 0789 23       		.byte	0x23
 4314 078a 13       		.uleb128 0x13
 4315 078b 00       		.byte	0
ARM GAS  C:\Users\jenny\AppData\Local\Temp\ccFzIZYt.s 			page 77


 4316 078c 12       		.uleb128 0x12
 4317 078d B6060000 		.4byte	.LASF151
 4318 0791 01       		.byte	0x1
 4319 0792 9704     		.2byte	0x497
 4320 0794 01       		.byte	0x1
 4321 0795 50010000 		.4byte	0x150
 4322 0799 01       		.byte	0x1
 4323 079a 2D080000 		.4byte	0x82d
 4324 079e 13       		.uleb128 0x13
 4325 079f 4F070000 		.4byte	.LASF45
 4326 07a3 01       		.byte	0x1
 4327 07a4 9704     		.2byte	0x497
 4328 07a6 28020000 		.4byte	0x228
 4329 07aa 13       		.uleb128 0x13
 4330 07ab 2A010000 		.4byte	.LASF119
 4331 07af 01       		.byte	0x1
 4332 07b0 9704     		.2byte	0x497
 4333 07b2 2D080000 		.4byte	0x82d
 4334 07b6 13       		.uleb128 0x13
 4335 07b7 A8040000 		.4byte	.LASF120
 4336 07bb 01       		.byte	0x1
 4337 07bc 9804     		.2byte	0x498
 4338 07be 2D080000 		.4byte	0x82d
 4339 07c2 13       		.uleb128 0x13
 4340 07c3 7E040000 		.4byte	.LASF121
 4341 07c7 01       		.byte	0x1
 4342 07c8 9904     		.2byte	0x499
 4343 07ca 2D080000 		.4byte	0x82d
 4344 07ce 13       		.uleb128 0x13
 4345 07cf F8050000 		.4byte	.LASF122
 4346 07d3 01       		.byte	0x1
 4347 07d4 9904     		.2byte	0x499
 4348 07d6 38080000 		.4byte	0x838
 4349 07da 13       		.uleb128 0x13
 4350 07db 44070000 		.4byte	.LASF123
 4351 07df 01       		.byte	0x1
 4352 07e0 9A04     		.2byte	0x49a
 4353 07e2 2D080000 		.4byte	0x82d
 4354 07e6 13       		.uleb128 0x13
 4355 07e7 AA010000 		.4byte	.LASF124
 4356 07eb 01       		.byte	0x1
 4357 07ec 9A04     		.2byte	0x49a
 4358 07ee 38080000 		.4byte	0x838
 4359 07f2 13       		.uleb128 0x13
 4360 07f3 09040000 		.4byte	.LASF106
 4361 07f7 01       		.byte	0x1
 4362 07f8 9B04     		.2byte	0x49b
 4363 07fa 43080000 		.4byte	0x843
 4364 07fe 14       		.uleb128 0x14
 4365 07ff 7000     		.ascii	"p\000"
 4366 0801 01       		.byte	0x1
 4367 0802 9D04     		.2byte	0x49d
 4368 0804 22020000 		.4byte	0x222
 4369 0808 15       		.uleb128 0x15
 4370 0809 DA010000 		.4byte	.LASF125
 4371 080d 01       		.byte	0x1
 4372 080e 9E04     		.2byte	0x49e
ARM GAS  C:\Users\jenny\AppData\Local\Temp\ccFzIZYt.s 			page 78


 4373 0810 50010000 		.4byte	0x150
 4374 0814 15       		.uleb128 0x15
 4375 0815 9D050000 		.4byte	.LASF126
 4376 0819 01       		.byte	0x1
 4377 081a 9F04     		.2byte	0x49f
 4378 081c 48080000 		.4byte	0x848
 4379 0820 14       		.uleb128 0x14
 4380 0821 68647200 		.ascii	"hdr\000"
 4381 0825 01       		.byte	0x1
 4382 0826 A004     		.2byte	0x4a0
 4383 0828 4E080000 		.4byte	0x84e
 4384 082c 00       		.byte	0
 4385 082d 0D       		.uleb128 0xd
 4386 082e 04       		.byte	0x4
 4387 082f 33080000 		.4byte	0x833
 4388 0833 16       		.uleb128 0x16
 4389 0834 2B060000 		.4byte	0x62b
 4390 0838 0D       		.uleb128 0xd
 4391 0839 04       		.byte	0x4
 4392 083a 3E080000 		.4byte	0x83e
 4393 083e 16       		.uleb128 0x16
 4394 083f 1A010000 		.4byte	0x11a
 4395 0843 16       		.uleb128 0x16
 4396 0844 DE000000 		.4byte	0xde
 4397 0848 0D       		.uleb128 0xd
 4398 0849 04       		.byte	0x4
 4399 084a 46060000 		.4byte	0x646
 4400 084e 0D       		.uleb128 0xd
 4401 084f 04       		.byte	0x4
 4402 0850 7D060000 		.4byte	0x67d
 4403 0854 17       		.uleb128 0x17
 4404 0855 2A020000 		.4byte	.LASF173
 4405 0859 01       		.byte	0x1
 4406 085a B1       		.byte	0xb1
 4407 085b 01       		.byte	0x1
 4408 085c 00000000 		.4byte	.LFB7
 4409 0860 2C000000 		.4byte	.LFE7
 4410 0864 00000000 		.4byte	.LLST0
 4411 0868 01       		.byte	0x1
 4412 0869 84080000 		.4byte	0x884
 4413 086d 18       		.uleb128 0x18
 4414 086e 6900     		.ascii	"i\000"
 4415 0870 01       		.byte	0x1
 4416 0871 B1       		.byte	0xb1
 4417 0872 29000000 		.4byte	0x29
 4418 0876 20000000 		.4byte	.LLST1
 4419 087a 19       		.uleb128 0x19
 4420 087b 14000000 		.4byte	.LVL2
 4421 087f 02150000 		.4byte	0x1502
 4422 0883 00       		.byte	0
 4423 0884 1A       		.uleb128 0x1a
 4424 0885 94030000 		.4byte	.LASF134
 4425 0889 01       		.byte	0x1
 4426 088a 0A01     		.2byte	0x10a
 4427 088c 01       		.byte	0x1
 4428 088d D3000000 		.4byte	0xd3
 4429 0891 00000000 		.4byte	.LFB9
ARM GAS  C:\Users\jenny\AppData\Local\Temp\ccFzIZYt.s 			page 79


 4430 0895 64050000 		.4byte	.LFE9
 4431 0899 4C000000 		.4byte	.LLST2
 4432 089d 01       		.byte	0x1
 4433 089e 91090000 		.4byte	0x991
 4434 08a2 1B       		.uleb128 0x1b
 4435 08a3 7C020000 		.4byte	.LASF116
 4436 08a7 01       		.byte	0x1
 4437 08a8 0A01     		.2byte	0x10a
 4438 08aa 4F030000 		.4byte	0x34f
 4439 08ae 78000000 		.4byte	.LLST3
 4440 08b2 1B       		.uleb128 0x1b
 4441 08b3 D2020000 		.4byte	.LASF44
 4442 08b7 01       		.byte	0x1
 4443 08b8 0A01     		.2byte	0x10a
 4444 08ba C8000000 		.4byte	0xc8
 4445 08be EE000000 		.4byte	.LLST4
 4446 08c2 1C       		.uleb128 0x1c
 4447 08c3 BC020000 		.4byte	.LASF127
 4448 08c7 01       		.byte	0x1
 4449 08c8 0C01     		.2byte	0x10c
 4450 08ca D3000000 		.4byte	0xd3
 4451 08ce 41010000 		.4byte	.LLST5
 4452 08d2 1C       		.uleb128 0x1c
 4453 08d3 C0040000 		.4byte	.LASF128
 4454 08d7 01       		.byte	0x1
 4455 08d8 0C01     		.2byte	0x10c
 4456 08da D3000000 		.4byte	0xd3
 4457 08de E3020000 		.4byte	.LLST6
 4458 08e2 1C       		.uleb128 0x1c
 4459 08e3 B0060000 		.4byte	.LASF129
 4460 08e7 01       		.byte	0x1
 4461 08e8 0D01     		.2byte	0x10d
 4462 08ea D3000000 		.4byte	0xd3
 4463 08ee 90040000 		.4byte	.LLST7
 4464 08f2 1D       		.uleb128 0x1d
 4465 08f3 6900     		.ascii	"i\000"
 4466 08f5 01       		.byte	0x1
 4467 08f6 0E01     		.2byte	0x10e
 4468 08f8 C8000000 		.4byte	0xc8
 4469 08fc 43060000 		.4byte	.LLST8
 4470 0900 1C       		.uleb128 0x1c
 4471 0901 55070000 		.4byte	.LASF130
 4472 0905 01       		.byte	0x1
 4473 0906 0E01     		.2byte	0x10e
 4474 0908 C8000000 		.4byte	0xc8
 4475 090c D6090000 		.4byte	.LLST9
 4476 0910 1C       		.uleb128 0x1c
 4477 0911 7D050000 		.4byte	.LASF131
 4478 0915 01       		.byte	0x1
 4479 0916 0E01     		.2byte	0x10e
 4480 0918 C8000000 		.4byte	0xc8
 4481 091c 880B0000 		.4byte	.LLST10
 4482 0920 1C       		.uleb128 0x1c
 4483 0921 E6020000 		.4byte	.LASF132
 4484 0925 01       		.byte	0x1
 4485 0926 1001     		.2byte	0x110
 4486 0928 D3000000 		.4byte	0xd3
ARM GAS  C:\Users\jenny\AppData\Local\Temp\ccFzIZYt.s 			page 80


 4487 092c 090D0000 		.4byte	.LLST11
 4488 0930 1C       		.uleb128 0x1c
 4489 0931 4A000000 		.4byte	.LASF133
 4490 0935 01       		.byte	0x1
 4491 0936 1201     		.2byte	0x112
 4492 0938 C8000000 		.4byte	0xc8
 4493 093c C10E0000 		.4byte	.LLST12
 4494 0940 1E       		.uleb128 0x1e
 4495 0941 00000000 		.4byte	.Ldebug_ranges0+0
 4496 0945 5A090000 		.4byte	0x95a
 4497 0949 1C       		.uleb128 0x1c
 4498 094a 3E070000 		.4byte	.LASF50
 4499 094e 01       		.byte	0x1
 4500 094f 2401     		.2byte	0x124
 4501 0951 C8000000 		.4byte	0xc8
 4502 0955 3D100000 		.4byte	.LLST13
 4503 0959 00       		.byte	0
 4504 095a 19       		.uleb128 0x19
 4505 095b A8020000 		.4byte	.LVL65
 4506 095f 1A150000 		.4byte	0x151a
 4507 0963 19       		.uleb128 0x19
 4508 0964 D0020000 		.4byte	.LVL69
 4509 0968 1A150000 		.4byte	0x151a
 4510 096c 1F       		.uleb128 0x1f
 4511 096d D6020000 		.4byte	.LVL70
 4512 0971 54080000 		.4byte	0x854
 4513 0975 80090000 		.4byte	0x980
 4514 0979 20       		.uleb128 0x20
 4515 097a 01       		.byte	0x1
 4516 097b 50       		.byte	0x50
 4517 097c 02       		.byte	0x2
 4518 097d 76       		.byte	0x76
 4519 097e 00       		.sleb128 0
 4520 097f 00       		.byte	0
 4521 0980 21       		.uleb128 0x21
 4522 0981 56030000 		.4byte	.LVL97
 4523 0985 54080000 		.4byte	0x854
 4524 0989 20       		.uleb128 0x20
 4525 098a 01       		.byte	0x1
 4526 098b 50       		.byte	0x50
 4527 098c 02       		.byte	0x2
 4528 098d 76       		.byte	0x76
 4529 098e 00       		.sleb128 0
 4530 098f 00       		.byte	0
 4531 0990 00       		.byte	0
 4532 0991 1A       		.uleb128 0x1a
 4533 0992 6F040000 		.4byte	.LASF135
 4534 0996 01       		.byte	0x1
 4535 0997 9F01     		.2byte	0x19f
 4536 0999 01       		.byte	0x1
 4537 099a 50010000 		.4byte	0x150
 4538 099e 00000000 		.4byte	.LFB10
 4539 09a2 44000000 		.4byte	.LFE10
 4540 09a6 6F120000 		.4byte	.LLST14
 4541 09aa 01       		.byte	0x1
 4542 09ab 170A0000 		.4byte	0xa17
 4543 09af 1B       		.uleb128 0x1b
ARM GAS  C:\Users\jenny\AppData\Local\Temp\ccFzIZYt.s 			page 81


 4544 09b0 4F070000 		.4byte	.LASF45
 4545 09b4 01       		.byte	0x1
 4546 09b5 9F01     		.2byte	0x19f
 4547 09b7 28020000 		.4byte	0x228
 4548 09bb 8F120000 		.4byte	.LLST15
 4549 09bf 22       		.uleb128 0x22
 4550 09c0 7000     		.ascii	"p\000"
 4551 09c2 01       		.byte	0x1
 4552 09c3 9F01     		.2byte	0x19f
 4553 09c5 22020000 		.4byte	0x222
 4554 09c9 AD120000 		.4byte	.LLST16
 4555 09cd 22       		.uleb128 0x22
 4556 09ce 73726300 		.ascii	"src\000"
 4557 09d2 01       		.byte	0x1
 4558 09d3 9F01     		.2byte	0x19f
 4559 09d5 170A0000 		.4byte	0xa17
 4560 09d9 CB120000 		.4byte	.LLST17
 4561 09dd 22       		.uleb128 0x22
 4562 09de 64737400 		.ascii	"dst\000"
 4563 09e2 01       		.byte	0x1
 4564 09e3 9F01     		.2byte	0x19f
 4565 09e5 170A0000 		.4byte	0xa17
 4566 09e9 E9120000 		.4byte	.LLST18
 4567 09ed 23       		.uleb128 0x23
 4568 09ee 9D050000 		.4byte	.LASF126
 4569 09f2 01       		.byte	0x1
 4570 09f3 A101     		.2byte	0x1a1
 4571 09f5 48080000 		.4byte	0x848
 4572 09f9 01       		.byte	0x1
 4573 09fa 54       		.byte	0x54
 4574 09fb 19       		.uleb128 0x19
 4575 09fc 1A000000 		.4byte	.LVL157
 4576 0a00 1A150000 		.4byte	0x151a
 4577 0a04 24       		.uleb128 0x24
 4578 0a05 40000000 		.4byte	.LVL158
 4579 0a09 20       		.uleb128 0x20
 4580 0a0a 01       		.byte	0x1
 4581 0a0b 51       		.byte	0x51
 4582 0a0c 02       		.byte	0x2
 4583 0a0d 76       		.byte	0x76
 4584 0a0e 00       		.sleb128 0
 4585 0a0f 20       		.uleb128 0x20
 4586 0a10 01       		.byte	0x1
 4587 0a11 50       		.byte	0x50
 4588 0a12 02       		.byte	0x2
 4589 0a13 75       		.byte	0x75
 4590 0a14 00       		.sleb128 0
 4591 0a15 00       		.byte	0
 4592 0a16 00       		.byte	0
 4593 0a17 0D       		.uleb128 0xd
 4594 0a18 04       		.byte	0x4
 4595 0a19 2B060000 		.4byte	0x62b
 4596 0a1d 25       		.uleb128 0x25
 4597 0a1e 01       		.byte	0x1
 4598 0a1f F8020000 		.4byte	.LASF136
 4599 0a23 01       		.byte	0x1
 4600 0a24 CE       		.byte	0xce
ARM GAS  C:\Users\jenny\AppData\Local\Temp\ccFzIZYt.s 			page 82


 4601 0a25 01       		.byte	0x1
 4602 0a26 00000000 		.4byte	.LFB8
 4603 0a2a 38020000 		.4byte	.LFE8
 4604 0a2e 07130000 		.4byte	.LLST19
 4605 0a32 01       		.byte	0x1
 4606 0a33 150B0000 		.4byte	0xb15
 4607 0a37 26       		.uleb128 0x26
 4608 0a38 6900     		.ascii	"i\000"
 4609 0a3a 01       		.byte	0x1
 4610 0a3b D0       		.byte	0xd0
 4611 0a3c C8000000 		.4byte	0xc8
 4612 0a40 27130000 		.4byte	.LLST20
 4613 0a44 27       		.uleb128 0x27
 4614 0a45 40000000 		.4byte	.Ldebug_ranges0+0x40
 4615 0a49 28       		.uleb128 0x28
 4616 0a4a 3E070000 		.4byte	.LASF50
 4617 0a4e 01       		.byte	0x1
 4618 0a4f D5       		.byte	0xd5
 4619 0a50 C8000000 		.4byte	0xc8
 4620 0a54 A3140000 		.4byte	.LLST21
 4621 0a58 1F       		.uleb128 0x1f
 4622 0a59 6C010000 		.4byte	.LVL171
 4623 0a5d 54080000 		.4byte	0x854
 4624 0a61 6B0A0000 		.4byte	0xa6b
 4625 0a65 20       		.uleb128 0x20
 4626 0a66 01       		.byte	0x1
 4627 0a67 50       		.byte	0x50
 4628 0a68 01       		.byte	0x1
 4629 0a69 31       		.byte	0x31
 4630 0a6a 00       		.byte	0
 4631 0a6b 1F       		.uleb128 0x1f
 4632 0a6c 7A010000 		.4byte	.LVL173
 4633 0a70 54080000 		.4byte	0x854
 4634 0a74 7E0A0000 		.4byte	0xa7e
 4635 0a78 20       		.uleb128 0x20
 4636 0a79 01       		.byte	0x1
 4637 0a7a 50       		.byte	0x50
 4638 0a7b 01       		.byte	0x1
 4639 0a7c 30       		.byte	0x30
 4640 0a7d 00       		.byte	0
 4641 0a7e 1F       		.uleb128 0x1f
 4642 0a7f 86010000 		.4byte	.LVL175
 4643 0a83 54080000 		.4byte	0x854
 4644 0a87 910A0000 		.4byte	0xa91
 4645 0a8b 20       		.uleb128 0x20
 4646 0a8c 01       		.byte	0x1
 4647 0a8d 50       		.byte	0x50
 4648 0a8e 01       		.byte	0x1
 4649 0a8f 37       		.byte	0x37
 4650 0a90 00       		.byte	0
 4651 0a91 1F       		.uleb128 0x1f
 4652 0a92 92010000 		.4byte	.LVL177
 4653 0a96 54080000 		.4byte	0x854
 4654 0a9a A40A0000 		.4byte	0xaa4
 4655 0a9e 20       		.uleb128 0x20
 4656 0a9f 01       		.byte	0x1
 4657 0aa0 50       		.byte	0x50
ARM GAS  C:\Users\jenny\AppData\Local\Temp\ccFzIZYt.s 			page 83


 4658 0aa1 01       		.byte	0x1
 4659 0aa2 36       		.byte	0x36
 4660 0aa3 00       		.byte	0
 4661 0aa4 29       		.uleb128 0x29
 4662 0aa5 A2010000 		.4byte	.LVL179
 4663 0aa9 01       		.byte	0x1
 4664 0aaa 54080000 		.4byte	0x854
 4665 0aae B80A0000 		.4byte	0xab8
 4666 0ab2 20       		.uleb128 0x20
 4667 0ab3 01       		.byte	0x1
 4668 0ab4 50       		.byte	0x50
 4669 0ab5 01       		.byte	0x1
 4670 0ab6 39       		.byte	0x39
 4671 0ab7 00       		.byte	0
 4672 0ab8 1F       		.uleb128 0x1f
 4673 0ab9 AC010000 		.4byte	.LVL180
 4674 0abd 54080000 		.4byte	0x854
 4675 0ac1 CB0A0000 		.4byte	0xacb
 4676 0ac5 20       		.uleb128 0x20
 4677 0ac6 01       		.byte	0x1
 4678 0ac7 50       		.byte	0x50
 4679 0ac8 01       		.byte	0x1
 4680 0ac9 38       		.byte	0x38
 4681 0aca 00       		.byte	0
 4682 0acb 1F       		.uleb128 0x1f
 4683 0acc BA010000 		.4byte	.LVL182
 4684 0ad0 54080000 		.4byte	0x854
 4685 0ad4 DE0A0000 		.4byte	0xade
 4686 0ad8 20       		.uleb128 0x20
 4687 0ad9 01       		.byte	0x1
 4688 0ada 50       		.byte	0x50
 4689 0adb 01       		.byte	0x1
 4690 0adc 33       		.byte	0x33
 4691 0add 00       		.byte	0
 4692 0ade 1F       		.uleb128 0x1f
 4693 0adf C8010000 		.4byte	.LVL184
 4694 0ae3 54080000 		.4byte	0x854
 4695 0ae7 F10A0000 		.4byte	0xaf1
 4696 0aeb 20       		.uleb128 0x20
 4697 0aec 01       		.byte	0x1
 4698 0aed 50       		.byte	0x50
 4699 0aee 01       		.byte	0x1
 4700 0aef 32       		.byte	0x32
 4701 0af0 00       		.byte	0
 4702 0af1 1F       		.uleb128 0x1f
 4703 0af2 D4010000 		.4byte	.LVL186
 4704 0af6 54080000 		.4byte	0x854
 4705 0afa 040B0000 		.4byte	0xb04
 4706 0afe 20       		.uleb128 0x20
 4707 0aff 01       		.byte	0x1
 4708 0b00 50       		.byte	0x50
 4709 0b01 01       		.byte	0x1
 4710 0b02 35       		.byte	0x35
 4711 0b03 00       		.byte	0
 4712 0b04 21       		.uleb128 0x21
 4713 0b05 E2010000 		.4byte	.LVL188
 4714 0b09 54080000 		.4byte	0x854
ARM GAS  C:\Users\jenny\AppData\Local\Temp\ccFzIZYt.s 			page 84


 4715 0b0d 20       		.uleb128 0x20
 4716 0b0e 01       		.byte	0x1
 4717 0b0f 50       		.byte	0x50
 4718 0b10 01       		.byte	0x1
 4719 0b11 34       		.byte	0x34
 4720 0b12 00       		.byte	0
 4721 0b13 00       		.byte	0
 4722 0b14 00       		.byte	0
 4723 0b15 2A       		.uleb128 0x2a
 4724 0b16 01       		.byte	0x1
 4725 0b17 92020000 		.4byte	.LASF137
 4726 0b1b 01       		.byte	0x1
 4727 0b1c 4302     		.2byte	0x243
 4728 0b1e 01       		.byte	0x1
 4729 0b1f 00000000 		.4byte	.LFB12
 4730 0b23 F0000000 		.4byte	.LFE12
 4731 0b27 6D160000 		.4byte	.LLST22
 4732 0b2b 01       		.byte	0x1
 4733 0b2c 200C0000 		.4byte	0xc20
 4734 0b30 1B       		.uleb128 0x1b
 4735 0b31 4F070000 		.4byte	.LASF45
 4736 0b35 01       		.byte	0x1
 4737 0b36 4302     		.2byte	0x243
 4738 0b38 28020000 		.4byte	0x228
 4739 0b3c 8D160000 		.4byte	.LLST23
 4740 0b40 1D       		.uleb128 0x1d
 4741 0b41 6900     		.ascii	"i\000"
 4742 0b43 01       		.byte	0x1
 4743 0b44 4502     		.2byte	0x245
 4744 0b46 C8000000 		.4byte	0xc8
 4745 0b4a AB160000 		.4byte	.LLST24
 4746 0b4e 27       		.uleb128 0x27
 4747 0b4f 58000000 		.4byte	.Ldebug_ranges0+0x58
 4748 0b53 1C       		.uleb128 0x1c
 4749 0b54 3E070000 		.4byte	.LASF50
 4750 0b58 01       		.byte	0x1
 4751 0b59 4802     		.2byte	0x248
 4752 0b5b C8000000 		.4byte	0xc8
 4753 0b5f 97170000 		.4byte	.LLST25
 4754 0b63 29       		.uleb128 0x29
 4755 0b64 A2000000 		.4byte	.LVL211
 4756 0b68 01       		.byte	0x1
 4757 0b69 54080000 		.4byte	0x854
 4758 0b6d 770B0000 		.4byte	0xb77
 4759 0b71 20       		.uleb128 0x20
 4760 0b72 01       		.byte	0x1
 4761 0b73 50       		.byte	0x50
 4762 0b74 01       		.byte	0x1
 4763 0b75 39       		.byte	0x39
 4764 0b76 00       		.byte	0
 4765 0b77 1F       		.uleb128 0x1f
 4766 0b78 A8000000 		.4byte	.LVL212
 4767 0b7c 54080000 		.4byte	0x854
 4768 0b80 8A0B0000 		.4byte	0xb8a
 4769 0b84 20       		.uleb128 0x20
 4770 0b85 01       		.byte	0x1
 4771 0b86 50       		.byte	0x50
ARM GAS  C:\Users\jenny\AppData\Local\Temp\ccFzIZYt.s 			page 85


 4772 0b87 01       		.byte	0x1
 4773 0b88 38       		.byte	0x38
 4774 0b89 00       		.byte	0
 4775 0b8a 1F       		.uleb128 0x1f
 4776 0b8b B0000000 		.4byte	.LVL214
 4777 0b8f 54080000 		.4byte	0x854
 4778 0b93 9D0B0000 		.4byte	0xb9d
 4779 0b97 20       		.uleb128 0x20
 4780 0b98 01       		.byte	0x1
 4781 0b99 50       		.byte	0x50
 4782 0b9a 01       		.byte	0x1
 4783 0b9b 37       		.byte	0x37
 4784 0b9c 00       		.byte	0
 4785 0b9d 1F       		.uleb128 0x1f
 4786 0b9e B8000000 		.4byte	.LVL216
 4787 0ba2 54080000 		.4byte	0x854
 4788 0ba6 B00B0000 		.4byte	0xbb0
 4789 0baa 20       		.uleb128 0x20
 4790 0bab 01       		.byte	0x1
 4791 0bac 50       		.byte	0x50
 4792 0bad 01       		.byte	0x1
 4793 0bae 36       		.byte	0x36
 4794 0baf 00       		.byte	0
 4795 0bb0 1F       		.uleb128 0x1f
 4796 0bb1 C0000000 		.4byte	.LVL218
 4797 0bb5 54080000 		.4byte	0x854
 4798 0bb9 C30B0000 		.4byte	0xbc3
 4799 0bbd 20       		.uleb128 0x20
 4800 0bbe 01       		.byte	0x1
 4801 0bbf 50       		.byte	0x50
 4802 0bc0 01       		.byte	0x1
 4803 0bc1 35       		.byte	0x35
 4804 0bc2 00       		.byte	0
 4805 0bc3 1F       		.uleb128 0x1f
 4806 0bc4 C8000000 		.4byte	.LVL220
 4807 0bc8 54080000 		.4byte	0x854
 4808 0bcc D60B0000 		.4byte	0xbd6
 4809 0bd0 20       		.uleb128 0x20
 4810 0bd1 01       		.byte	0x1
 4811 0bd2 50       		.byte	0x50
 4812 0bd3 01       		.byte	0x1
 4813 0bd4 34       		.byte	0x34
 4814 0bd5 00       		.byte	0
 4815 0bd6 1F       		.uleb128 0x1f
 4816 0bd7 D0000000 		.4byte	.LVL222
 4817 0bdb 54080000 		.4byte	0x854
 4818 0bdf E90B0000 		.4byte	0xbe9
 4819 0be3 20       		.uleb128 0x20
 4820 0be4 01       		.byte	0x1
 4821 0be5 50       		.byte	0x50
 4822 0be6 01       		.byte	0x1
 4823 0be7 33       		.byte	0x33
 4824 0be8 00       		.byte	0
 4825 0be9 1F       		.uleb128 0x1f
 4826 0bea D8000000 		.4byte	.LVL224
 4827 0bee 54080000 		.4byte	0x854
 4828 0bf2 FC0B0000 		.4byte	0xbfc
ARM GAS  C:\Users\jenny\AppData\Local\Temp\ccFzIZYt.s 			page 86


 4829 0bf6 20       		.uleb128 0x20
 4830 0bf7 01       		.byte	0x1
 4831 0bf8 50       		.byte	0x50
 4832 0bf9 01       		.byte	0x1
 4833 0bfa 32       		.byte	0x32
 4834 0bfb 00       		.byte	0
 4835 0bfc 1F       		.uleb128 0x1f
 4836 0bfd E0000000 		.4byte	.LVL226
 4837 0c01 54080000 		.4byte	0x854
 4838 0c05 0F0C0000 		.4byte	0xc0f
 4839 0c09 20       		.uleb128 0x20
 4840 0c0a 01       		.byte	0x1
 4841 0c0b 50       		.byte	0x50
 4842 0c0c 01       		.byte	0x1
 4843 0c0d 31       		.byte	0x31
 4844 0c0e 00       		.byte	0
 4845 0c0f 21       		.uleb128 0x21
 4846 0c10 E8000000 		.4byte	.LVL228
 4847 0c14 54080000 		.4byte	0x854
 4848 0c18 20       		.uleb128 0x20
 4849 0c19 01       		.byte	0x1
 4850 0c1a 50       		.byte	0x50
 4851 0c1b 01       		.byte	0x1
 4852 0c1c 30       		.byte	0x30
 4853 0c1d 00       		.byte	0
 4854 0c1e 00       		.byte	0
 4855 0c1f 00       		.byte	0
 4856 0c20 2B       		.uleb128 0x2b
 4857 0c21 01       		.byte	0x1
 4858 0c22 B1070000 		.4byte	.LASF140
 4859 0c26 01       		.byte	0x1
 4860 0c27 5B02     		.2byte	0x25b
 4861 0c29 01       		.byte	0x1
 4862 0c2a D3000000 		.4byte	0xd3
 4863 0c2e 00000000 		.4byte	.LFB13
 4864 0c32 44000000 		.4byte	.LFE13
 4865 0c36 BC180000 		.4byte	.LLST26
 4866 0c3a 01       		.byte	0x1
 4867 0c3b B00C0000 		.4byte	0xcb0
 4868 0c3f 1B       		.uleb128 0x1b
 4869 0c40 4F070000 		.4byte	.LASF45
 4870 0c44 01       		.byte	0x1
 4871 0c45 5B02     		.2byte	0x25b
 4872 0c47 28020000 		.4byte	0x228
 4873 0c4b DC180000 		.4byte	.LLST27
 4874 0c4f 1B       		.uleb128 0x1b
 4875 0c50 7C020000 		.4byte	.LASF116
 4876 0c54 01       		.byte	0x1
 4877 0c55 5B02     		.2byte	0x25b
 4878 0c57 4F030000 		.4byte	0x34f
 4879 0c5b 16190000 		.4byte	.LLST28
 4880 0c5f 1B       		.uleb128 0x1b
 4881 0c60 89040000 		.4byte	.LASF138
 4882 0c64 01       		.byte	0x1
 4883 0c65 5C02     		.2byte	0x25c
 4884 0c67 B00C0000 		.4byte	0xcb0
 4885 0c6b 66190000 		.4byte	.LLST29
ARM GAS  C:\Users\jenny\AppData\Local\Temp\ccFzIZYt.s 			page 87


 4886 0c6f 1B       		.uleb128 0x1b
 4887 0c70 97060000 		.4byte	.LASF139
 4888 0c74 01       		.byte	0x1
 4889 0c75 5C02     		.2byte	0x25c
 4890 0c77 B60C0000 		.4byte	0xcb6
 4891 0c7b 9A190000 		.4byte	.LLST30
 4892 0c7f 1D       		.uleb128 0x1d
 4893 0c80 6900     		.ascii	"i\000"
 4894 0c82 01       		.byte	0x1
 4895 0c83 5E02     		.2byte	0x25e
 4896 0c85 D3000000 		.4byte	0xd3
 4897 0c89 CE190000 		.4byte	.LLST31
 4898 0c8d 1F       		.uleb128 0x1f
 4899 0c8e 14000000 		.4byte	.LVL231
 4900 0c92 84080000 		.4byte	0x884
 4901 0c96 A60C0000 		.4byte	0xca6
 4902 0c9a 20       		.uleb128 0x20
 4903 0c9b 01       		.byte	0x1
 4904 0c9c 51       		.byte	0x51
 4905 0c9d 01       		.byte	0x1
 4906 0c9e 32       		.byte	0x32
 4907 0c9f 20       		.uleb128 0x20
 4908 0ca0 01       		.byte	0x1
 4909 0ca1 50       		.byte	0x50
 4910 0ca2 02       		.byte	0x2
 4911 0ca3 75       		.byte	0x75
 4912 0ca4 00       		.sleb128 0
 4913 0ca5 00       		.byte	0
 4914 0ca6 19       		.uleb128 0x19
 4915 0ca7 3A000000 		.4byte	.LVL235
 4916 0cab 1A150000 		.4byte	0x151a
 4917 0caf 00       		.byte	0
 4918 0cb0 0D       		.uleb128 0xd
 4919 0cb1 04       		.byte	0x4
 4920 0cb2 170A0000 		.4byte	0xa17
 4921 0cb6 0D       		.uleb128 0xd
 4922 0cb7 04       		.byte	0x4
 4923 0cb8 4F030000 		.4byte	0x34f
 4924 0cbc 2B       		.uleb128 0x2b
 4925 0cbd 01       		.byte	0x1
 4926 0cbe 14060000 		.4byte	.LASF141
 4927 0cc2 01       		.byte	0x1
 4928 0cc3 EB04     		.2byte	0x4eb
 4929 0cc5 01       		.byte	0x1
 4930 0cc6 50010000 		.4byte	0x150
 4931 0cca 00000000 		.4byte	.LFB19
 4932 0cce D8000000 		.4byte	.LFE19
 4933 0cd2 E1190000 		.4byte	.LLST32
 4934 0cd6 01       		.byte	0x1
 4935 0cd7 F50D0000 		.4byte	0xdf5
 4936 0cdb 1B       		.uleb128 0x1b
 4937 0cdc 4F070000 		.4byte	.LASF45
 4938 0ce0 01       		.byte	0x1
 4939 0ce1 EB04     		.2byte	0x4eb
 4940 0ce3 28020000 		.4byte	0x228
 4941 0ce7 011A0000 		.4byte	.LLST33
 4942 0ceb 1B       		.uleb128 0x1b
ARM GAS  C:\Users\jenny\AppData\Local\Temp\ccFzIZYt.s 			page 88


 4943 0cec 7C020000 		.4byte	.LASF116
 4944 0cf0 01       		.byte	0x1
 4945 0cf1 EB04     		.2byte	0x4eb
 4946 0cf3 4F030000 		.4byte	0x34f
 4947 0cf7 351A0000 		.4byte	.LLST34
 4948 0cfb 2C       		.uleb128 0x2c
 4949 0cfc 8C070000 		.4byte	0x78c
 4950 0d00 10000000 		.4byte	.LBB16
 4951 0d04 78000000 		.4byte	.Ldebug_ranges0+0x78
 4952 0d08 01       		.byte	0x1
 4953 0d09 EE04     		.2byte	0x4ee
 4954 0d0b 2D       		.uleb128 0x2d
 4955 0d0c E6070000 		.4byte	0x7e6
 4956 0d10 691A0000 		.4byte	.LLST35
 4957 0d14 2E       		.uleb128 0x2e
 4958 0d15 CE070000 		.4byte	0x7ce
 4959 0d19 01       		.byte	0x1
 4960 0d1a 59       		.byte	0x59
 4961 0d1b 2E       		.uleb128 0x2e
 4962 0d1c C2070000 		.4byte	0x7c2
 4963 0d20 01       		.byte	0x1
 4964 0d21 57       		.byte	0x57
 4965 0d22 2E       		.uleb128 0x2e
 4966 0d23 AA070000 		.4byte	0x7aa
 4967 0d27 01       		.byte	0x1
 4968 0d28 57       		.byte	0x57
 4969 0d29 2D       		.uleb128 0x2d
 4970 0d2a 9E070000 		.4byte	0x79e
 4971 0d2e 9D1A0000 		.4byte	.LLST36
 4972 0d32 27       		.uleb128 0x27
 4973 0d33 90000000 		.4byte	.Ldebug_ranges0+0x90
 4974 0d37 2F       		.uleb128 0x2f
 4975 0d38 FE070000 		.4byte	0x7fe
 4976 0d3c D11A0000 		.4byte	.LLST37
 4977 0d40 2F       		.uleb128 0x2f
 4978 0d41 08080000 		.4byte	0x808
 4979 0d45 1B1B0000 		.4byte	.LLST38
 4980 0d49 2F       		.uleb128 0x2f
 4981 0d4a 14080000 		.4byte	0x814
 4982 0d4e 511B0000 		.4byte	.LLST39
 4983 0d52 2F       		.uleb128 0x2f
 4984 0d53 20080000 		.4byte	0x820
 4985 0d57 641B0000 		.4byte	.LLST40
 4986 0d5b 30       		.uleb128 0x30
 4987 0d5c F2070000 		.4byte	0x7f2
 4988 0d60 01       		.byte	0x1
 4989 0d61 2E       		.uleb128 0x2e
 4990 0d62 DA070000 		.4byte	0x7da
 4991 0d66 06       		.byte	0x6
 4992 0d67 03       		.byte	0x3
 4993 0d68 00000000 		.4byte	ethzero
 4994 0d6c 9F       		.byte	0x9f
 4995 0d6d 2E       		.uleb128 0x2e
 4996 0d6e B6070000 		.4byte	0x7b6
 4997 0d72 06       		.byte	0x6
 4998 0d73 03       		.byte	0x3
 4999 0d74 00000000 		.4byte	ethbroadcast
ARM GAS  C:\Users\jenny\AppData\Local\Temp\ccFzIZYt.s 			page 89


 5000 0d78 9F       		.byte	0x9f
 5001 0d79 1F       		.uleb128 0x1f
 5002 0d7a 1E000000 		.4byte	.LVL240
 5003 0d7e 25150000 		.4byte	0x1525
 5004 0d82 970D0000 		.4byte	0xd97
 5005 0d86 20       		.uleb128 0x20
 5006 0d87 01       		.byte	0x1
 5007 0d88 52       		.byte	0x52
 5008 0d89 01       		.byte	0x1
 5009 0d8a 30       		.byte	0x30
 5010 0d8b 20       		.uleb128 0x20
 5011 0d8c 01       		.byte	0x1
 5012 0d8d 51       		.byte	0x51
 5013 0d8e 02       		.byte	0x2
 5014 0d8f 08       		.byte	0x8
 5015 0d90 2A       		.byte	0x2a
 5016 0d91 20       		.uleb128 0x20
 5017 0d92 01       		.byte	0x1
 5018 0d93 50       		.byte	0x50
 5019 0d94 01       		.byte	0x1
 5020 0d95 33       		.byte	0x33
 5021 0d96 00       		.byte	0
 5022 0d97 1F       		.uleb128 0x1f
 5023 0d98 32000000 		.4byte	.LVL243
 5024 0d9c 47150000 		.4byte	0x1547
 5025 0da0 AA0D0000 		.4byte	0xdaa
 5026 0da4 20       		.uleb128 0x20
 5027 0da5 01       		.byte	0x1
 5028 0da6 50       		.byte	0x50
 5029 0da7 01       		.byte	0x1
 5030 0da8 31       		.byte	0x31
 5031 0da9 00       		.byte	0
 5032 0daa 19       		.uleb128 0x19
 5033 0dab 40000000 		.4byte	.LVL244
 5034 0daf 1A150000 		.4byte	0x151a
 5035 0db3 31       		.uleb128 0x31
 5036 0db4 9C000000 		.4byte	.LVL246
 5037 0db8 02       		.byte	0x2
 5038 0db9 74       		.byte	0x74
 5039 0dba 00       		.sleb128 0
 5040 0dbb CC0D0000 		.4byte	0xdcc
 5041 0dbf 20       		.uleb128 0x20
 5042 0dc0 01       		.byte	0x1
 5043 0dc1 51       		.byte	0x51
 5044 0dc2 02       		.byte	0x2
 5045 0dc3 76       		.byte	0x76
 5046 0dc4 00       		.sleb128 0
 5047 0dc5 20       		.uleb128 0x20
 5048 0dc6 01       		.byte	0x1
 5049 0dc7 50       		.byte	0x50
 5050 0dc8 02       		.byte	0x2
 5051 0dc9 75       		.byte	0x75
 5052 0dca 00       		.sleb128 0
 5053 0dcb 00       		.byte	0
 5054 0dcc 1F       		.uleb128 0x1f
 5055 0dcd AC000000 		.4byte	.LVL249
 5056 0dd1 02150000 		.4byte	0x1502
ARM GAS  C:\Users\jenny\AppData\Local\Temp\ccFzIZYt.s 			page 90


 5057 0dd5 E00D0000 		.4byte	0xde0
 5058 0dd9 20       		.uleb128 0x20
 5059 0dda 01       		.byte	0x1
 5060 0ddb 50       		.byte	0x50
 5061 0ddc 02       		.byte	0x2
 5062 0ddd 76       		.byte	0x76
 5063 0dde 00       		.sleb128 0
 5064 0ddf 00       		.byte	0
 5065 0de0 19       		.uleb128 0x19
 5066 0de1 B6000000 		.4byte	.LVL251
 5067 0de5 1A150000 		.4byte	0x151a
 5068 0de9 19       		.uleb128 0x19
 5069 0dea BC000000 		.4byte	.LVL253
 5070 0dee 1A150000 		.4byte	0x151a
 5071 0df2 00       		.byte	0
 5072 0df3 00       		.byte	0
 5073 0df4 00       		.byte	0
 5074 0df5 2B       		.uleb128 0x2b
 5075 0df6 01       		.byte	0x1
 5076 0df7 C6000000 		.4byte	.LASF142
 5077 0dfb 01       		.byte	0x1
 5078 0dfc F803     		.2byte	0x3f8
 5079 0dfe 01       		.byte	0x1
 5080 0dff 50010000 		.4byte	0x150
 5081 0e03 00000000 		.4byte	.LFB17
 5082 0e07 38010000 		.4byte	.LFE17
 5083 0e0b 791B0000 		.4byte	.LLST41
 5084 0e0f 01       		.byte	0x1
 5085 0e10 910F0000 		.4byte	0xf91
 5086 0e14 1B       		.uleb128 0x1b
 5087 0e15 4F070000 		.4byte	.LASF45
 5088 0e19 01       		.byte	0x1
 5089 0e1a F803     		.2byte	0x3f8
 5090 0e1c 28020000 		.4byte	0x228
 5091 0e20 991B0000 		.4byte	.LLST42
 5092 0e24 1B       		.uleb128 0x1b
 5093 0e25 7C020000 		.4byte	.LASF116
 5094 0e29 01       		.byte	0x1
 5095 0e2a F803     		.2byte	0x3f8
 5096 0e2c 4F030000 		.4byte	0x34f
 5097 0e30 C21B0000 		.4byte	.LLST43
 5098 0e34 22       		.uleb128 0x22
 5099 0e35 7100     		.ascii	"q\000"
 5100 0e37 01       		.byte	0x1
 5101 0e38 F803     		.2byte	0x3f8
 5102 0e3a 22020000 		.4byte	0x222
 5103 0e3e 201C0000 		.4byte	.LLST44
 5104 0e42 1C       		.uleb128 0x1c
 5105 0e43 D3030000 		.4byte	.LASF143
 5106 0e47 01       		.byte	0x1
 5107 0e48 FA03     		.2byte	0x3fa
 5108 0e4a 170A0000 		.4byte	0xa17
 5109 0e4e 3E1C0000 		.4byte	.LLST45
 5110 0e52 1C       		.uleb128 0x1c
 5111 0e53 DA010000 		.4byte	.LASF125
 5112 0e57 01       		.byte	0x1
 5113 0e58 FB03     		.2byte	0x3fb
ARM GAS  C:\Users\jenny\AppData\Local\Temp\ccFzIZYt.s 			page 91


 5114 0e5a 50010000 		.4byte	0x150
 5115 0e5e 6D1C0000 		.4byte	.LLST46
 5116 0e62 1D       		.uleb128 0x1d
 5117 0e63 6900     		.ascii	"i\000"
 5118 0e65 01       		.byte	0x1
 5119 0e66 FC03     		.2byte	0x3fc
 5120 0e68 D3000000 		.4byte	0xd3
 5121 0e6c C91C0000 		.4byte	.LLST47
 5122 0e70 32       		.uleb128 0x32
 5123 0e71 C2000000 		.4byte	.LBB24
 5124 0e75 38010000 		.4byte	.LBE24
 5125 0e79 040F0000 		.4byte	0xf04
 5126 0e7d 1D       		.uleb128 0x1d
 5127 0e7e 7000     		.ascii	"p\000"
 5128 0e80 01       		.byte	0x1
 5129 0e81 3704     		.2byte	0x437
 5130 0e83 22020000 		.4byte	0x222
 5131 0e87 E71C0000 		.4byte	.LLST48
 5132 0e8b 1C       		.uleb128 0x1c
 5133 0e8c 8B000000 		.4byte	.LASF144
 5134 0e90 01       		.byte	0x1
 5135 0e91 3804     		.2byte	0x438
 5136 0e93 29000000 		.4byte	0x29
 5137 0e97 321D0000 		.4byte	.LLST49
 5138 0e9b 19       		.uleb128 0x19
 5139 0e9c DE000000 		.4byte	.LVL275
 5140 0ea0 1A150000 		.4byte	0x151a
 5141 0ea4 1F       		.uleb128 0x1f
 5142 0ea5 EA000000 		.4byte	.LVL277
 5143 0ea9 25150000 		.4byte	0x1525
 5144 0ead BC0E0000 		.4byte	0xebc
 5145 0eb1 20       		.uleb128 0x20
 5146 0eb2 01       		.byte	0x1
 5147 0eb3 52       		.byte	0x52
 5148 0eb4 01       		.byte	0x1
 5149 0eb5 30       		.byte	0x30
 5150 0eb6 20       		.uleb128 0x20
 5151 0eb7 01       		.byte	0x1
 5152 0eb8 50       		.byte	0x50
 5153 0eb9 01       		.byte	0x1
 5154 0eba 33       		.byte	0x33
 5155 0ebb 00       		.byte	0
 5156 0ebc 1F       		.uleb128 0x1f
 5157 0ebd F4000000 		.4byte	.LVL278
 5158 0ec1 5F150000 		.4byte	0x155f
 5159 0ec5 D60E0000 		.4byte	0xed6
 5160 0ec9 20       		.uleb128 0x20
 5161 0eca 01       		.byte	0x1
 5162 0ecb 51       		.byte	0x51
 5163 0ecc 02       		.byte	0x2
 5164 0ecd 77       		.byte	0x77
 5165 0ece 00       		.sleb128 0
 5166 0ecf 20       		.uleb128 0x20
 5167 0ed0 01       		.byte	0x1
 5168 0ed1 50       		.byte	0x50
 5169 0ed2 02       		.byte	0x2
 5170 0ed3 74       		.byte	0x74
ARM GAS  C:\Users\jenny\AppData\Local\Temp\ccFzIZYt.s 			page 92


 5171 0ed4 00       		.sleb128 0
 5172 0ed5 00       		.byte	0
 5173 0ed6 19       		.uleb128 0x19
 5174 0ed7 04010000 		.4byte	.LVL280
 5175 0edb 02150000 		.4byte	0x1502
 5176 0edf 1F       		.uleb128 0x1f
 5177 0ee0 14010000 		.4byte	.LVL283
 5178 0ee4 7C150000 		.4byte	0x157c
 5179 0ee8 F30E0000 		.4byte	0xef3
 5180 0eec 20       		.uleb128 0x20
 5181 0eed 01       		.byte	0x1
 5182 0eee 50       		.byte	0x50
 5183 0eef 02       		.byte	0x2
 5184 0ef0 77       		.byte	0x77
 5185 0ef1 00       		.sleb128 0
 5186 0ef2 00       		.byte	0
 5187 0ef3 21       		.uleb128 0x21
 5188 0ef4 1E010000 		.4byte	.LVL285
 5189 0ef8 02150000 		.4byte	0x1502
 5190 0efc 20       		.uleb128 0x20
 5191 0efd 01       		.byte	0x1
 5192 0efe 50       		.byte	0x50
 5193 0eff 02       		.byte	0x2
 5194 0f00 74       		.byte	0x74
 5195 0f01 00       		.sleb128 0
 5196 0f02 00       		.byte	0
 5197 0f03 00       		.byte	0
 5198 0f04 1F       		.uleb128 0x1f
 5199 0f05 12000000 		.4byte	.LVL260
 5200 0f09 90150000 		.4byte	0x1590
 5201 0f0d 180F0000 		.4byte	0xf18
 5202 0f11 20       		.uleb128 0x20
 5203 0f12 01       		.byte	0x1
 5204 0f13 51       		.byte	0x51
 5205 0f14 02       		.byte	0x2
 5206 0f15 76       		.byte	0x76
 5207 0f16 00       		.sleb128 0
 5208 0f17 00       		.byte	0
 5209 0f18 1F       		.uleb128 0x1f
 5210 0f19 2C000000 		.4byte	.LVL261
 5211 0f1d 84080000 		.4byte	0x884
 5212 0f21 310F0000 		.4byte	0xf31
 5213 0f25 20       		.uleb128 0x20
 5214 0f26 01       		.byte	0x1
 5215 0f27 51       		.byte	0x51
 5216 0f28 01       		.byte	0x1
 5217 0f29 31       		.byte	0x31
 5218 0f2a 20       		.uleb128 0x20
 5219 0f2b 01       		.byte	0x1
 5220 0f2c 50       		.byte	0x50
 5221 0f2d 02       		.byte	0x2
 5222 0f2e 74       		.byte	0x74
 5223 0f2f 00       		.sleb128 0
 5224 0f30 00       		.byte	0
 5225 0f31 1F       		.uleb128 0x1f
 5226 0f32 62000000 		.4byte	.LVL263
 5227 0f36 BC0C0000 		.4byte	0xcbc
ARM GAS  C:\Users\jenny\AppData\Local\Temp\ccFzIZYt.s 			page 93


 5228 0f3a 4B0F0000 		.4byte	0xf4b
 5229 0f3e 20       		.uleb128 0x20
 5230 0f3f 01       		.byte	0x1
 5231 0f40 51       		.byte	0x51
 5232 0f41 02       		.byte	0x2
 5233 0f42 74       		.byte	0x74
 5234 0f43 00       		.sleb128 0
 5235 0f44 20       		.uleb128 0x20
 5236 0f45 01       		.byte	0x1
 5237 0f46 50       		.byte	0x50
 5238 0f47 02       		.byte	0x2
 5239 0f48 76       		.byte	0x76
 5240 0f49 00       		.sleb128 0
 5241 0f4a 00       		.byte	0
 5242 0f4b 29       		.uleb128 0x29
 5243 0f4c 8E000000 		.4byte	.LVL266
 5244 0f50 01       		.byte	0x1
 5245 0f51 91090000 		.4byte	0x991
 5246 0f55 790F0000 		.4byte	0xf79
 5247 0f59 20       		.uleb128 0x20
 5248 0f5a 01       		.byte	0x1
 5249 0f5b 53       		.byte	0x53
 5250 0f5c 09       		.byte	0x9
 5251 0f5d 78       		.byte	0x78
 5252 0f5e 00       		.sleb128 0
 5253 0f5f 32       		.byte	0x32
 5254 0f60 24       		.byte	0x24
 5255 0f61 79       		.byte	0x79
 5256 0f62 00       		.sleb128 0
 5257 0f63 22       		.byte	0x22
 5258 0f64 23       		.byte	0x23
 5259 0f65 0C       		.uleb128 0xc
 5260 0f66 20       		.uleb128 0x20
 5261 0f67 01       		.byte	0x1
 5262 0f68 52       		.byte	0x52
 5263 0f69 02       		.byte	0x2
 5264 0f6a 76       		.byte	0x76
 5265 0f6b 23       		.sleb128 35
 5266 0f6c 20       		.uleb128 0x20
 5267 0f6d 01       		.byte	0x1
 5268 0f6e 51       		.byte	0x51
 5269 0f6f 02       		.byte	0x2
 5270 0f70 77       		.byte	0x77
 5271 0f71 00       		.sleb128 0
 5272 0f72 20       		.uleb128 0x20
 5273 0f73 01       		.byte	0x1
 5274 0f74 50       		.byte	0x50
 5275 0f75 02       		.byte	0x2
 5276 0f76 76       		.byte	0x76
 5277 0f77 00       		.sleb128 0
 5278 0f78 00       		.byte	0
 5279 0f79 33       		.uleb128 0x33
 5280 0f7a BE000000 		.4byte	.LVL270
 5281 0f7e 01       		.byte	0x1
 5282 0f7f BC0C0000 		.4byte	0xcbc
 5283 0f83 20       		.uleb128 0x20
 5284 0f84 01       		.byte	0x1
ARM GAS  C:\Users\jenny\AppData\Local\Temp\ccFzIZYt.s 			page 94


 5285 0f85 51       		.byte	0x51
 5286 0f86 02       		.byte	0x2
 5287 0f87 74       		.byte	0x74
 5288 0f88 00       		.sleb128 0
 5289 0f89 20       		.uleb128 0x20
 5290 0f8a 01       		.byte	0x1
 5291 0f8b 50       		.byte	0x50
 5292 0f8c 02       		.byte	0x2
 5293 0f8d 76       		.byte	0x76
 5294 0f8e 00       		.sleb128 0
 5295 0f8f 00       		.byte	0
 5296 0f90 00       		.byte	0
 5297 0f91 1A       		.uleb128 0x1a
 5298 0f92 CF070000 		.4byte	.LASF145
 5299 0f96 01       		.byte	0x1
 5300 0f97 4A03     		.2byte	0x34a
 5301 0f99 01       		.byte	0x1
 5302 0f9a 50010000 		.4byte	0x150
 5303 0f9e 00000000 		.4byte	.LFB15
 5304 0fa2 70000000 		.4byte	.LFE15
 5305 0fa6 5E1D0000 		.4byte	.LLST50
 5306 0faa 01       		.byte	0x1
 5307 0fab 2F100000 		.4byte	0x102f
 5308 0faf 1B       		.uleb128 0x1b
 5309 0fb0 4F070000 		.4byte	.LASF45
 5310 0fb4 01       		.byte	0x1
 5311 0fb5 4A03     		.2byte	0x34a
 5312 0fb7 28020000 		.4byte	0x228
 5313 0fbb 7E1D0000 		.4byte	.LLST51
 5314 0fbf 22       		.uleb128 0x22
 5315 0fc0 7100     		.ascii	"q\000"
 5316 0fc2 01       		.byte	0x1
 5317 0fc3 4A03     		.2byte	0x34a
 5318 0fc5 22020000 		.4byte	0x222
 5319 0fc9 B21D0000 		.4byte	.LLST52
 5320 0fcd 1B       		.uleb128 0x1b
 5321 0fce 95050000 		.4byte	.LASF146
 5322 0fd2 01       		.byte	0x1
 5323 0fd3 4A03     		.2byte	0x34a
 5324 0fd5 C8000000 		.4byte	0xc8
 5325 0fd9 E61D0000 		.4byte	.LLST53
 5326 0fdd 29       		.uleb128 0x29
 5327 0fde 3C000000 		.4byte	.LVL290
 5328 0fe2 01       		.byte	0x1
 5329 0fe3 91090000 		.4byte	0x991
 5330 0fe7 0B100000 		.4byte	0x100b
 5331 0feb 20       		.uleb128 0x20
 5332 0fec 01       		.byte	0x1
 5333 0fed 53       		.byte	0x53
 5334 0fee 09       		.byte	0x9
 5335 0fef 74       		.byte	0x74
 5336 0ff0 00       		.sleb128 0
 5337 0ff1 32       		.byte	0x32
 5338 0ff2 24       		.byte	0x24
 5339 0ff3 75       		.byte	0x75
 5340 0ff4 00       		.sleb128 0
 5341 0ff5 22       		.byte	0x22
ARM GAS  C:\Users\jenny\AppData\Local\Temp\ccFzIZYt.s 			page 95


 5342 0ff6 23       		.byte	0x23
 5343 0ff7 0C       		.uleb128 0xc
 5344 0ff8 20       		.uleb128 0x20
 5345 0ff9 01       		.byte	0x1
 5346 0ffa 52       		.byte	0x52
 5347 0ffb 02       		.byte	0x2
 5348 0ffc 77       		.byte	0x77
 5349 0ffd 23       		.sleb128 35
 5350 0ffe 20       		.uleb128 0x20
 5351 0fff 01       		.byte	0x1
 5352 1000 51       		.byte	0x51
 5353 1001 02       		.byte	0x2
 5354 1002 79       		.byte	0x79
 5355 1003 00       		.sleb128 0
 5356 1004 20       		.uleb128 0x20
 5357 1005 01       		.byte	0x1
 5358 1006 50       		.byte	0x50
 5359 1007 02       		.byte	0x2
 5360 1008 77       		.byte	0x77
 5361 1009 00       		.sleb128 0
 5362 100a 00       		.byte	0
 5363 100b 1F       		.uleb128 0x1f
 5364 100c 54000000 		.4byte	.LVL291
 5365 1010 BC0C0000 		.4byte	0xcbc
 5366 1014 25100000 		.4byte	0x1025
 5367 1018 20       		.uleb128 0x20
 5368 1019 01       		.byte	0x1
 5369 101a 51       		.byte	0x51
 5370 101b 02       		.byte	0x2
 5371 101c 78       		.byte	0x78
 5372 101d 74       		.sleb128 -12
 5373 101e 20       		.uleb128 0x20
 5374 101f 01       		.byte	0x1
 5375 1020 50       		.byte	0x50
 5376 1021 02       		.byte	0x2
 5377 1022 77       		.byte	0x77
 5378 1023 00       		.sleb128 0
 5379 1024 00       		.byte	0
 5380 1025 19       		.uleb128 0x19
 5381 1026 64000000 		.4byte	.LVL293
 5382 102a 1A150000 		.4byte	0x151a
 5383 102e 00       		.byte	0
 5384 102f 2B       		.uleb128 0x2b
 5385 1030 01       		.byte	0x1
 5386 1031 61070000 		.4byte	.LASF147
 5387 1035 01       		.byte	0x1
 5388 1036 6F03     		.2byte	0x36f
 5389 1038 01       		.byte	0x1
 5390 1039 50010000 		.4byte	0x150
 5391 103d 00000000 		.4byte	.LFB16
 5392 1041 08020000 		.4byte	.LFE16
 5393 1045 071E0000 		.4byte	.LLST54
 5394 1049 01       		.byte	0x1
 5395 104a 77110000 		.4byte	0x1177
 5396 104e 1B       		.uleb128 0x1b
 5397 104f 4F070000 		.4byte	.LASF45
 5398 1053 01       		.byte	0x1
ARM GAS  C:\Users\jenny\AppData\Local\Temp\ccFzIZYt.s 			page 96


 5399 1054 6F03     		.2byte	0x36f
 5400 1056 28020000 		.4byte	0x228
 5401 105a 331E0000 		.4byte	.LLST55
 5402 105e 22       		.uleb128 0x22
 5403 105f 7100     		.ascii	"q\000"
 5404 1061 01       		.byte	0x1
 5405 1062 6F03     		.2byte	0x36f
 5406 1064 22020000 		.4byte	0x222
 5407 1068 A41E0000 		.4byte	.LLST56
 5408 106c 1B       		.uleb128 0x1b
 5409 106d 7C020000 		.4byte	.LASF116
 5410 1071 01       		.byte	0x1
 5411 1072 6F03     		.2byte	0x36f
 5412 1074 4F030000 		.4byte	0x34f
 5413 1078 D81E0000 		.4byte	.LLST57
 5414 107c 1C       		.uleb128 0x1c
 5415 107d C2070000 		.4byte	.LASF100
 5416 1081 01       		.byte	0x1
 5417 1082 7103     		.2byte	0x371
 5418 1084 170A0000 		.4byte	0xa17
 5419 1088 331F0000 		.4byte	.LLST58
 5420 108c 23       		.uleb128 0x23
 5421 108d E1060000 		.4byte	.LASF148
 5422 1091 01       		.byte	0x1
 5423 1092 7203     		.2byte	0x372
 5424 1094 2B060000 		.4byte	0x62b
 5425 1098 02       		.byte	0x2
 5426 1099 91       		.byte	0x91
 5427 109a 60       		.sleb128 -32
 5428 109b 1C       		.uleb128 0x1c
 5429 109c 6B020000 		.4byte	.LASF149
 5430 10a0 01       		.byte	0x1
 5431 10a1 7303     		.2byte	0x373
 5432 10a3 4F030000 		.4byte	0x34f
 5433 10a7 511F0000 		.4byte	.LLST59
 5434 10ab 1E       		.uleb128 0x1e
 5435 10ac C8000000 		.4byte	.Ldebug_ranges0+0xc8
 5436 10b0 0E110000 		.4byte	0x110e
 5437 10b4 1D       		.uleb128 0x1d
 5438 10b5 6900     		.ascii	"i\000"
 5439 10b7 01       		.byte	0x1
 5440 10b8 9603     		.2byte	0x396
 5441 10ba D3000000 		.4byte	0xd3
 5442 10be 14200000 		.4byte	.LLST60
 5443 10c2 1F       		.uleb128 0x1f
 5444 10c3 4E010000 		.4byte	.LVL311
 5445 10c7 F50D0000 		.4byte	0xdf5
 5446 10cb DC100000 		.4byte	0x10dc
 5447 10cf 20       		.uleb128 0x20
 5448 10d0 01       		.byte	0x1
 5449 10d1 52       		.byte	0x52
 5450 10d2 02       		.byte	0x2
 5451 10d3 76       		.byte	0x76
 5452 10d4 00       		.sleb128 0
 5453 10d5 20       		.uleb128 0x20
 5454 10d6 01       		.byte	0x1
 5455 10d7 50       		.byte	0x50
ARM GAS  C:\Users\jenny\AppData\Local\Temp\ccFzIZYt.s 			page 97


 5456 10d8 02       		.byte	0x2
 5457 10d9 74       		.byte	0x74
 5458 10da 00       		.sleb128 0
 5459 10db 00       		.byte	0
 5460 10dc 1F       		.uleb128 0x1f
 5461 10dd C0010000 		.4byte	.LVL323
 5462 10e1 910F0000 		.4byte	0xf91
 5463 10e5 F7100000 		.4byte	0x10f7
 5464 10e9 20       		.uleb128 0x20
 5465 10ea 01       		.byte	0x1
 5466 10eb 51       		.byte	0x51
 5467 10ec 02       		.byte	0x2
 5468 10ed 76       		.byte	0x76
 5469 10ee 00       		.sleb128 0
 5470 10ef 20       		.uleb128 0x20
 5471 10f0 01       		.byte	0x1
 5472 10f1 50       		.byte	0x50
 5473 10f2 03       		.byte	0x3
 5474 10f3 F3       		.byte	0xf3
 5475 10f4 01       		.uleb128 0x1
 5476 10f5 50       		.byte	0x50
 5477 10f6 00       		.byte	0
 5478 10f7 21       		.uleb128 0x21
 5479 10f8 D2010000 		.4byte	.LVL326
 5480 10fc 910F0000 		.4byte	0xf91
 5481 1100 20       		.uleb128 0x20
 5482 1101 01       		.byte	0x1
 5483 1102 51       		.byte	0x51
 5484 1103 02       		.byte	0x2
 5485 1104 76       		.byte	0x76
 5486 1105 00       		.sleb128 0
 5487 1106 20       		.uleb128 0x20
 5488 1107 01       		.byte	0x1
 5489 1108 50       		.byte	0x50
 5490 1109 02       		.byte	0x2
 5491 110a 74       		.byte	0x74
 5492 110b 00       		.sleb128 0
 5493 110c 00       		.byte	0
 5494 110d 00       		.byte	0
 5495 110e 1F       		.uleb128 0x1f
 5496 110f 24000000 		.4byte	.LVL297
 5497 1113 B8150000 		.4byte	0x15b8
 5498 1117 27110000 		.4byte	0x1127
 5499 111b 20       		.uleb128 0x20
 5500 111c 01       		.byte	0x1
 5501 111d 51       		.byte	0x51
 5502 111e 01       		.byte	0x1
 5503 111f 3E       		.byte	0x3e
 5504 1120 20       		.uleb128 0x20
 5505 1121 01       		.byte	0x1
 5506 1122 50       		.byte	0x50
 5507 1123 02       		.byte	0x2
 5508 1124 76       		.byte	0x76
 5509 1125 00       		.sleb128 0
 5510 1126 00       		.byte	0
 5511 1127 1F       		.uleb128 0x1f
 5512 1128 32000000 		.4byte	.LVL298
ARM GAS  C:\Users\jenny\AppData\Local\Temp\ccFzIZYt.s 			page 98


 5513 112c 90150000 		.4byte	0x1590
 5514 1130 3B110000 		.4byte	0x113b
 5515 1134 20       		.uleb128 0x20
 5516 1135 01       		.byte	0x1
 5517 1136 51       		.byte	0x51
 5518 1137 02       		.byte	0x2
 5519 1138 74       		.byte	0x74
 5520 1139 00       		.sleb128 0
 5521 113a 00       		.byte	0
 5522 113b 1F       		.uleb128 0x1f
 5523 113c 62010000 		.4byte	.LVL314
 5524 1140 91090000 		.4byte	0x991
 5525 1144 5B110000 		.4byte	0x115b
 5526 1148 20       		.uleb128 0x20
 5527 1149 01       		.byte	0x1
 5528 114a 52       		.byte	0x52
 5529 114b 02       		.byte	0x2
 5530 114c 74       		.byte	0x74
 5531 114d 23       		.sleb128 35
 5532 114e 20       		.uleb128 0x20
 5533 114f 01       		.byte	0x1
 5534 1150 51       		.byte	0x51
 5535 1151 02       		.byte	0x2
 5536 1152 76       		.byte	0x76
 5537 1153 00       		.sleb128 0
 5538 1154 20       		.uleb128 0x20
 5539 1155 01       		.byte	0x1
 5540 1156 50       		.byte	0x50
 5541 1157 02       		.byte	0x2
 5542 1158 74       		.byte	0x74
 5543 1159 00       		.sleb128 0
 5544 115a 00       		.byte	0
 5545 115b 19       		.uleb128 0x19
 5546 115c 92010000 		.4byte	.LVL317
 5547 1160 1A150000 		.4byte	0x151a
 5548 1164 19       		.uleb128 0x19
 5549 1165 9C010000 		.4byte	.LVL318
 5550 1169 1A150000 		.4byte	0x151a
 5551 116d 19       		.uleb128 0x19
 5552 116e AE010000 		.4byte	.LVL319
 5553 1172 1A150000 		.4byte	0x151a
 5554 1176 00       		.byte	0
 5555 1177 34       		.uleb128 0x34
 5556 1178 03060000 		.4byte	.LASF174
 5557 117c 01       		.byte	0x1
 5558 117d B002     		.2byte	0x2b0
 5559 117f 01       		.byte	0x1
 5560 1180 01       		.byte	0x1
 5561 1181 E4110000 		.4byte	0x11e4
 5562 1185 13       		.uleb128 0x13
 5563 1186 4F070000 		.4byte	.LASF45
 5564 118a 01       		.byte	0x1
 5565 118b B002     		.2byte	0x2b0
 5566 118d 28020000 		.4byte	0x228
 5567 1191 13       		.uleb128 0x13
 5568 1192 B0030000 		.4byte	.LASF117
 5569 1196 01       		.byte	0x1
ARM GAS  C:\Users\jenny\AppData\Local\Temp\ccFzIZYt.s 			page 99


 5570 1197 B002     		.2byte	0x2b0
 5571 1199 170A0000 		.4byte	0xa17
 5572 119d 35       		.uleb128 0x35
 5573 119e 7000     		.ascii	"p\000"
 5574 11a0 01       		.byte	0x1
 5575 11a1 B002     		.2byte	0x2b0
 5576 11a3 22020000 		.4byte	0x222
 5577 11a7 14       		.uleb128 0x14
 5578 11a8 68647200 		.ascii	"hdr\000"
 5579 11ac 01       		.byte	0x1
 5580 11ad B202     		.2byte	0x2b2
 5581 11af 4E080000 		.4byte	0x84e
 5582 11b3 15       		.uleb128 0x15
 5583 11b4 9D050000 		.4byte	.LASF126
 5584 11b8 01       		.byte	0x1
 5585 11b9 B302     		.2byte	0x2b3
 5586 11bb 48080000 		.4byte	0x848
 5587 11bf 15       		.uleb128 0x15
 5588 11c0 10040000 		.4byte	.LASF108
 5589 11c4 01       		.byte	0x1
 5590 11c5 B502     		.2byte	0x2b5
 5591 11c7 1A010000 		.4byte	0x11a
 5592 11cb 15       		.uleb128 0x15
 5593 11cc 9D000000 		.4byte	.LASF110
 5594 11d0 01       		.byte	0x1
 5595 11d1 B502     		.2byte	0x2b5
 5596 11d3 1A010000 		.4byte	0x11a
 5597 11d7 15       		.uleb128 0x15
 5598 11d8 C1060000 		.4byte	.LASF150
 5599 11dc 01       		.byte	0x1
 5600 11dd B602     		.2byte	0x2b6
 5601 11df C8000000 		.4byte	0xc8
 5602 11e3 00       		.byte	0
 5603 11e4 12       		.uleb128 0x12
 5604 11e5 8C010000 		.4byte	.LASF152
 5605 11e9 01       		.byte	0x1
 5606 11ea C001     		.2byte	0x1c0
 5607 11ec 01       		.byte	0x1
 5608 11ed 50010000 		.4byte	0x150
 5609 11f1 01       		.byte	0x1
 5610 11f2 3D120000 		.4byte	0x123d
 5611 11f6 13       		.uleb128 0x13
 5612 11f7 4F070000 		.4byte	.LASF45
 5613 11fb 01       		.byte	0x1
 5614 11fc C001     		.2byte	0x1c0
 5615 11fe 28020000 		.4byte	0x228
 5616 1202 13       		.uleb128 0x13
 5617 1203 7C020000 		.4byte	.LASF116
 5618 1207 01       		.byte	0x1
 5619 1208 C001     		.2byte	0x1c0
 5620 120a 4F030000 		.4byte	0x34f
 5621 120e 13       		.uleb128 0x13
 5622 120f B0030000 		.4byte	.LASF117
 5623 1213 01       		.byte	0x1
 5624 1214 C001     		.2byte	0x1c0
 5625 1216 170A0000 		.4byte	0xa17
 5626 121a 13       		.uleb128 0x13
ARM GAS  C:\Users\jenny\AppData\Local\Temp\ccFzIZYt.s 			page 100


 5627 121b D2020000 		.4byte	.LASF44
 5628 121f 01       		.byte	0x1
 5629 1220 C001     		.2byte	0x1c0
 5630 1222 C8000000 		.4byte	0xc8
 5631 1226 14       		.uleb128 0x14
 5632 1227 6900     		.ascii	"i\000"
 5633 1229 01       		.byte	0x1
 5634 122a C201     		.2byte	0x1c2
 5635 122c D3000000 		.4byte	0xd3
 5636 1230 36       		.uleb128 0x36
 5637 1231 14       		.uleb128 0x14
 5638 1232 7000     		.ascii	"p\000"
 5639 1234 01       		.byte	0x1
 5640 1235 F901     		.2byte	0x1f9
 5641 1237 22020000 		.4byte	0x222
 5642 123b 00       		.byte	0
 5643 123c 00       		.byte	0
 5644 123d 2B       		.uleb128 0x2b
 5645 123e 01       		.byte	0x1
 5646 123f 85030000 		.4byte	.LASF153
 5647 1243 01       		.byte	0x1
 5648 1244 FD04     		.2byte	0x4fd
 5649 1246 01       		.byte	0x1
 5650 1247 50010000 		.4byte	0x150
 5651 124b 00000000 		.4byte	.LFB20
 5652 124f 34020000 		.4byte	.LFE20
 5653 1253 00210000 		.4byte	.LLST61
 5654 1257 01       		.byte	0x1
 5655 1258 9F140000 		.4byte	0x149f
 5656 125c 22       		.uleb128 0x22
 5657 125d 7000     		.ascii	"p\000"
 5658 125f 01       		.byte	0x1
 5659 1260 FD04     		.2byte	0x4fd
 5660 1262 22020000 		.4byte	0x222
 5661 1266 2D210000 		.4byte	.LLST62
 5662 126a 1B       		.uleb128 0x1b
 5663 126b 4F070000 		.4byte	.LASF45
 5664 126f 01       		.byte	0x1
 5665 1270 FD04     		.2byte	0x4fd
 5666 1272 28020000 		.4byte	0x228
 5667 1276 61210000 		.4byte	.LLST63
 5668 127a 1C       		.uleb128 0x1c
 5669 127b 9D050000 		.4byte	.LASF126
 5670 127f 01       		.byte	0x1
 5671 1280 FF04     		.2byte	0x4ff
 5672 1282 48080000 		.4byte	0x848
 5673 1286 95210000 		.4byte	.LLST64
 5674 128a 15       		.uleb128 0x15
 5675 128b EB060000 		.4byte	.LASF43
 5676 128f 01       		.byte	0x1
 5677 1290 0005     		.2byte	0x500
 5678 1292 DE000000 		.4byte	0xde
 5679 1296 37       		.uleb128 0x37
 5680 1297 26070000 		.4byte	.LASF154
 5681 129b 01       		.byte	0x1
 5682 129c 0205     		.2byte	0x502
 5683 129e E9000000 		.4byte	0xe9
ARM GAS  C:\Users\jenny\AppData\Local\Temp\ccFzIZYt.s 			page 101


 5684 12a2 0E       		.byte	0xe
 5685 12a3 38       		.uleb128 0x38
 5686 12a4 3D040000 		.4byte	.LASF175
 5687 12a8 01       		.byte	0x1
 5688 12a9 7305     		.2byte	0x573
 5689 12ab 4E000000 		.4byte	.L461
 5690 12af 39       		.uleb128 0x39
 5691 12b0 77110000 		.4byte	0x1177
 5692 12b4 8A000000 		.4byte	.LBB32
 5693 12b8 E0000000 		.4byte	.Ldebug_ranges0+0xe0
 5694 12bc 01       		.byte	0x1
 5695 12bd 5C05     		.2byte	0x55c
 5696 12bf 2F140000 		.4byte	0x142f
 5697 12c3 2D       		.uleb128 0x2d
 5698 12c4 9D110000 		.4byte	0x119d
 5699 12c8 B3210000 		.4byte	.LLST65
 5700 12cc 2D       		.uleb128 0x2d
 5701 12cd 91110000 		.4byte	0x1191
 5702 12d1 D1210000 		.4byte	.LLST66
 5703 12d5 2D       		.uleb128 0x2d
 5704 12d6 85110000 		.4byte	0x1185
 5705 12da F3210000 		.4byte	.LLST67
 5706 12de 27       		.uleb128 0x27
 5707 12df 00010000 		.4byte	.Ldebug_ranges0+0x100
 5708 12e3 2F       		.uleb128 0x2f
 5709 12e4 A7110000 		.4byte	0x11a7
 5710 12e8 11220000 		.4byte	.LLST68
 5711 12ec 2F       		.uleb128 0x2f
 5712 12ed B3110000 		.4byte	0x11b3
 5713 12f1 33220000 		.4byte	.LLST69
 5714 12f5 3A       		.uleb128 0x3a
 5715 12f6 BF110000 		.4byte	0x11bf
 5716 12fa 02       		.byte	0x2
 5717 12fb 91       		.byte	0x91
 5718 12fc 50       		.sleb128 -48
 5719 12fd 3A       		.uleb128 0x3a
 5720 12fe CB110000 		.4byte	0x11cb
 5721 1302 02       		.byte	0x2
 5722 1303 91       		.byte	0x91
 5723 1304 54       		.sleb128 -44
 5724 1305 2F       		.uleb128 0x2f
 5725 1306 D7110000 		.4byte	0x11d7
 5726 130a 51220000 		.4byte	.LLST70
 5727 130e 39       		.uleb128 0x39
 5728 130f E4110000 		.4byte	0x11e4
 5729 1313 2C010000 		.4byte	.LBB34
 5730 1317 20010000 		.4byte	.Ldebug_ranges0+0x120
 5731 131b 01       		.byte	0x1
 5732 131c F902     		.2byte	0x2f9
 5733 131e D7130000 		.4byte	0x13d7
 5734 1322 2D       		.uleb128 0x2d
 5735 1323 1A120000 		.4byte	0x121a
 5736 1327 6A220000 		.4byte	.LLST71
 5737 132b 2D       		.uleb128 0x2d
 5738 132c 0E120000 		.4byte	0x120e
 5739 1330 7D220000 		.4byte	.LLST72
 5740 1334 2D       		.uleb128 0x2d
ARM GAS  C:\Users\jenny\AppData\Local\Temp\ccFzIZYt.s 			page 102


 5741 1335 02120000 		.4byte	0x1202
 5742 1339 9D220000 		.4byte	.LLST73
 5743 133d 2D       		.uleb128 0x2d
 5744 133e F6110000 		.4byte	0x11f6
 5745 1342 BF220000 		.4byte	.LLST74
 5746 1346 27       		.uleb128 0x27
 5747 1347 38010000 		.4byte	.Ldebug_ranges0+0x138
 5748 134b 2F       		.uleb128 0x2f
 5749 134c 26120000 		.4byte	0x1226
 5750 1350 DD220000 		.4byte	.LLST75
 5751 1354 32       		.uleb128 0x32
 5752 1355 8C010000 		.4byte	.LBB36
 5753 1359 A2010000 		.4byte	.LBE36
 5754 135d A2130000 		.4byte	0x13a2
 5755 1361 2F       		.uleb128 0x2f
 5756 1362 31120000 		.4byte	0x1231
 5757 1366 F0220000 		.4byte	.LLST76
 5758 136a 1F       		.uleb128 0x1f
 5759 136b 9C010000 		.4byte	.LVL375
 5760 136f 91090000 		.4byte	0x991
 5761 1373 91130000 		.4byte	0x1391
 5762 1377 20       		.uleb128 0x20
 5763 1378 01       		.byte	0x1
 5764 1379 53       		.byte	0x53
 5765 137a 03       		.byte	0x3
 5766 137b 91       		.byte	0x91
 5767 137c 44       		.sleb128 -60
 5768 137d 06       		.byte	0x6
 5769 137e 20       		.uleb128 0x20
 5770 137f 01       		.byte	0x1
 5771 1380 52       		.byte	0x52
 5772 1381 02       		.byte	0x2
 5773 1382 78       		.byte	0x78
 5774 1383 00       		.sleb128 0
 5775 1384 20       		.uleb128 0x20
 5776 1385 01       		.byte	0x1
 5777 1386 51       		.byte	0x51
 5778 1387 02       		.byte	0x2
 5779 1388 7B       		.byte	0x7b
 5780 1389 00       		.sleb128 0
 5781 138a 20       		.uleb128 0x20
 5782 138b 01       		.byte	0x1
 5783 138c 50       		.byte	0x50
 5784 138d 02       		.byte	0x2
 5785 138e 76       		.byte	0x76
 5786 138f 00       		.sleb128 0
 5787 1390 00       		.byte	0
 5788 1391 21       		.uleb128 0x21
 5789 1392 A2010000 		.4byte	.LVL376
 5790 1396 02150000 		.4byte	0x1502
 5791 139a 20       		.uleb128 0x20
 5792 139b 01       		.byte	0x1
 5793 139c 50       		.byte	0x50
 5794 139d 02       		.byte	0x2
 5795 139e 7B       		.byte	0x7b
 5796 139f 00       		.sleb128 0
 5797 13a0 00       		.byte	0
ARM GAS  C:\Users\jenny\AppData\Local\Temp\ccFzIZYt.s 			page 103


 5798 13a1 00       		.byte	0
 5799 13a2 19       		.uleb128 0x19
 5800 13a3 38010000 		.4byte	.LVL369
 5801 13a7 1A150000 		.4byte	0x151a
 5802 13ab 1F       		.uleb128 0x1f
 5803 13ac 46010000 		.4byte	.LVL370
 5804 13b0 90150000 		.4byte	0x1590
 5805 13b4 BF130000 		.4byte	0x13bf
 5806 13b8 20       		.uleb128 0x20
 5807 13b9 01       		.byte	0x1
 5808 13ba 51       		.byte	0x51
 5809 13bb 02       		.byte	0x2
 5810 13bc 76       		.byte	0x76
 5811 13bd 00       		.sleb128 0
 5812 13be 00       		.byte	0
 5813 13bf 21       		.uleb128 0x21
 5814 13c0 5C010000 		.4byte	.LVL371
 5815 13c4 84080000 		.4byte	0x884
 5816 13c8 20       		.uleb128 0x20
 5817 13c9 01       		.byte	0x1
 5818 13ca 51       		.byte	0x51
 5819 13cb 02       		.byte	0x2
 5820 13cc 7B       		.byte	0x7b
 5821 13cd 00       		.sleb128 0
 5822 13ce 20       		.uleb128 0x20
 5823 13cf 01       		.byte	0x1
 5824 13d0 50       		.byte	0x50
 5825 13d1 02       		.byte	0x2
 5826 13d2 91       		.byte	0x91
 5827 13d3 50       		.sleb128 -48
 5828 13d4 00       		.byte	0
 5829 13d5 00       		.byte	0
 5830 13d6 00       		.byte	0
 5831 13d7 1F       		.uleb128 0x1f
 5832 13d8 B0000000 		.4byte	.LVL358
 5833 13dc 02150000 		.4byte	0x1502
 5834 13e0 EB130000 		.4byte	0x13eb
 5835 13e4 20       		.uleb128 0x20
 5836 13e5 01       		.byte	0x1
 5837 13e6 50       		.byte	0x50
 5838 13e7 02       		.byte	0x2
 5839 13e8 74       		.byte	0x74
 5840 13e9 00       		.sleb128 0
 5841 13ea 00       		.byte	0
 5842 13eb 1F       		.uleb128 0x1f
 5843 13ec E6000000 		.4byte	.LVL365
 5844 13f0 02150000 		.4byte	0x1502
 5845 13f4 FF130000 		.4byte	0x13ff
 5846 13f8 20       		.uleb128 0x20
 5847 13f9 01       		.byte	0x1
 5848 13fa 50       		.byte	0x50
 5849 13fb 02       		.byte	0x2
 5850 13fc 74       		.byte	0x74
 5851 13fd 00       		.sleb128 0
 5852 13fe 00       		.byte	0
 5853 13ff 1F       		.uleb128 0x1f
 5854 1400 D6010000 		.4byte	.LVL379
ARM GAS  C:\Users\jenny\AppData\Local\Temp\ccFzIZYt.s 			page 104


 5855 1404 47150000 		.4byte	0x1547
 5856 1408 12140000 		.4byte	0x1412
 5857 140c 20       		.uleb128 0x20
 5858 140d 01       		.byte	0x1
 5859 140e 50       		.byte	0x50
 5860 140f 01       		.byte	0x1
 5861 1410 32       		.byte	0x32
 5862 1411 00       		.byte	0
 5863 1412 19       		.uleb128 0x19
 5864 1413 F0010000 		.4byte	.LVL380
 5865 1417 1A150000 		.4byte	0x151a
 5866 141b 24       		.uleb128 0x24
 5867 141c 24020000 		.4byte	.LVL381
 5868 1420 20       		.uleb128 0x20
 5869 1421 01       		.byte	0x1
 5870 1422 51       		.byte	0x51
 5871 1423 02       		.byte	0x2
 5872 1424 74       		.byte	0x74
 5873 1425 00       		.sleb128 0
 5874 1426 20       		.uleb128 0x20
 5875 1427 01       		.byte	0x1
 5876 1428 50       		.byte	0x50
 5877 1429 02       		.byte	0x2
 5878 142a 76       		.byte	0x76
 5879 142b 00       		.sleb128 0
 5880 142c 00       		.byte	0
 5881 142d 00       		.byte	0
 5882 142e 00       		.byte	0
 5883 142f 1F       		.uleb128 0x1f
 5884 1430 2A000000 		.4byte	.LVL350
 5885 1434 D5150000 		.4byte	0x15d5
 5886 1438 51140000 		.4byte	0x1451
 5887 143c 20       		.uleb128 0x20
 5888 143d 01       		.byte	0x1
 5889 143e 52       		.byte	0x52
 5890 143f 01       		.byte	0x1
 5891 1440 36       		.byte	0x36
 5892 1441 20       		.uleb128 0x20
 5893 1442 01       		.byte	0x1
 5894 1443 51       		.byte	0x51
 5895 1444 05       		.byte	0x5
 5896 1445 03       		.byte	0x3
 5897 1446 00000000 		.4byte	.LANCHOR2
 5898 144a 20       		.uleb128 0x20
 5899 144b 01       		.byte	0x1
 5900 144c 50       		.byte	0x50
 5901 144d 02       		.byte	0x2
 5902 144e 75       		.byte	0x75
 5903 144f 00       		.sleb128 0
 5904 1450 00       		.byte	0
 5905 1451 1F       		.uleb128 0x1f
 5906 1452 54000000 		.4byte	.LVL352
 5907 1456 02150000 		.4byte	0x1502
 5908 145a 65140000 		.4byte	0x1465
 5909 145e 20       		.uleb128 0x20
 5910 145f 01       		.byte	0x1
 5911 1460 50       		.byte	0x50
ARM GAS  C:\Users\jenny\AppData\Local\Temp\ccFzIZYt.s 			page 105


 5912 1461 02       		.byte	0x2
 5913 1462 74       		.byte	0x74
 5914 1463 00       		.sleb128 0
 5915 1464 00       		.byte	0
 5916 1465 1F       		.uleb128 0x1f
 5917 1466 74000000 		.4byte	.LVL354
 5918 146a B8150000 		.4byte	0x15b8
 5919 146e 7F140000 		.4byte	0x147f
 5920 1472 20       		.uleb128 0x20
 5921 1473 01       		.byte	0x1
 5922 1474 51       		.byte	0x51
 5923 1475 02       		.byte	0x2
 5924 1476 09       		.byte	0x9
 5925 1477 F2       		.byte	0xf2
 5926 1478 20       		.uleb128 0x20
 5927 1479 01       		.byte	0x1
 5928 147a 50       		.byte	0x50
 5929 147b 02       		.byte	0x2
 5930 147c 74       		.byte	0x74
 5931 147d 00       		.sleb128 0
 5932 147e 00       		.byte	0
 5933 147f 19       		.uleb128 0x19
 5934 1480 7A000000 		.4byte	.LVL355
 5935 1484 1A150000 		.4byte	0x151a
 5936 1488 21       		.uleb128 0x21
 5937 1489 D0000000 		.4byte	.LVL363
 5938 148d FE150000 		.4byte	0x15fe
 5939 1491 20       		.uleb128 0x20
 5940 1492 01       		.byte	0x1
 5941 1493 51       		.byte	0x51
 5942 1494 02       		.byte	0x2
 5943 1495 76       		.byte	0x76
 5944 1496 00       		.sleb128 0
 5945 1497 20       		.uleb128 0x20
 5946 1498 01       		.byte	0x1
 5947 1499 50       		.byte	0x50
 5948 149a 02       		.byte	0x2
 5949 149b 74       		.byte	0x74
 5950 149c 00       		.sleb128 0
 5951 149d 00       		.byte	0
 5952 149e 00       		.byte	0
 5953 149f 08       		.uleb128 0x8
 5954 14a0 2D070000 		.4byte	0x72d
 5955 14a4 AF140000 		.4byte	0x14af
 5956 14a8 09       		.uleb128 0x9
 5957 14a9 BA000000 		.4byte	0xba
 5958 14ad 09       		.byte	0x9
 5959 14ae 00       		.byte	0
 5960 14af 3B       		.uleb128 0x3b
 5961 14b0 40000000 		.4byte	.LASF155
 5962 14b4 01       		.byte	0x1
 5963 14b5 78       		.byte	0x78
 5964 14b6 9F140000 		.4byte	0x149f
 5965 14ba 05       		.byte	0x5
 5966 14bb 03       		.byte	0x3
 5967 14bc 00000000 		.4byte	arp_table
 5968 14c0 3B       		.uleb128 0x3b
ARM GAS  C:\Users\jenny\AppData\Local\Temp\ccFzIZYt.s 			page 106


 5969 14c1 BF030000 		.4byte	.LASF156
 5970 14c5 01       		.byte	0x1
 5971 14c6 7B       		.byte	0x7b
 5972 14c7 C8000000 		.4byte	0xc8
 5973 14cb 05       		.byte	0x5
 5974 14cc 03       		.byte	0x3
 5975 14cd 00000000 		.4byte	etharp_cached_entry
 5976 14d1 3C       		.uleb128 0x3c
 5977 14d2 1F010000 		.4byte	.LASF157
 5978 14d6 0B       		.byte	0xb
 5979 14d7 95       		.byte	0x95
 5980 14d8 7E050000 		.4byte	0x57e
 5981 14dc 01       		.byte	0x1
 5982 14dd 01       		.byte	0x1
 5983 14de 3D       		.uleb128 0x3d
 5984 14df 88050000 		.4byte	.LASF158
 5985 14e3 01       		.byte	0x1
 5986 14e4 41       		.byte	0x41
 5987 14e5 33080000 		.4byte	0x833
 5988 14e9 01       		.byte	0x1
 5989 14ea 05       		.byte	0x5
 5990 14eb 03       		.byte	0x3
 5991 14ec 00000000 		.4byte	ethbroadcast
 5992 14f0 3D       		.uleb128 0x3d
 5993 14f1 86060000 		.4byte	.LASF159
 5994 14f5 01       		.byte	0x1
 5995 14f6 42       		.byte	0x42
 5996 14f7 33080000 		.4byte	0x833
 5997 14fb 01       		.byte	0x1
 5998 14fc 05       		.byte	0x5
 5999 14fd 03       		.byte	0x3
 6000 14fe 00000000 		.4byte	ethzero
 6001 1502 3E       		.uleb128 0x3e
 6002 1503 01       		.byte	0x1
 6003 1504 33040000 		.4byte	.LASF160
 6004 1508 07       		.byte	0x7
 6005 1509 9B       		.byte	0x9b
 6006 150a 01       		.byte	0x1
 6007 150b C8000000 		.4byte	0xc8
 6008 150f 01       		.byte	0x1
 6009 1510 1A150000 		.4byte	0x151a
 6010 1514 0F       		.uleb128 0xf
 6011 1515 22020000 		.4byte	0x222
 6012 1519 00       		.byte	0
 6013 151a 3F       		.uleb128 0x3f
 6014 151b 01       		.byte	0x1
 6015 151c 30000000 		.4byte	.LASF176
 6016 1520 10       		.byte	0x10
 6017 1521 0102     		.2byte	0x201
 6018 1523 01       		.byte	0x1
 6019 1524 01       		.byte	0x1
 6020 1525 3E       		.uleb128 0x3e
 6021 1526 01       		.byte	0x1
 6022 1527 20040000 		.4byte	.LASF161
 6023 152b 07       		.byte	0x7
 6024 152c 92       		.byte	0x92
 6025 152d 01       		.byte	0x1
ARM GAS  C:\Users\jenny\AppData\Local\Temp\ccFzIZYt.s 			page 107


 6026 152e 22020000 		.4byte	0x222
 6027 1532 01       		.byte	0x1
 6028 1533 47150000 		.4byte	0x1547
 6029 1537 0F       		.uleb128 0xf
 6030 1538 7C010000 		.4byte	0x17c
 6031 153c 0F       		.uleb128 0xf
 6032 153d DE000000 		.4byte	0xde
 6033 1541 0F       		.uleb128 0xf
 6034 1542 A8010000 		.4byte	0x1a8
 6035 1546 00       		.byte	0
 6036 1547 3E       		.uleb128 0x3e
 6037 1548 01       		.byte	0x1
 6038 1549 05010000 		.4byte	.LASF162
 6039 154d 0D       		.byte	0xd
 6040 154e 63       		.byte	0x63
 6041 154f 01       		.byte	0x1
 6042 1550 DE000000 		.4byte	0xde
 6043 1554 01       		.byte	0x1
 6044 1555 5F150000 		.4byte	0x155f
 6045 1559 0F       		.uleb128 0xf
 6046 155a DE000000 		.4byte	0xde
 6047 155e 00       		.byte	0
 6048 155f 3E       		.uleb128 0x3e
 6049 1560 01       		.byte	0x1
 6050 1561 5A020000 		.4byte	.LASF163
 6051 1565 07       		.byte	0x7
 6052 1566 A0       		.byte	0xa0
 6053 1567 01       		.byte	0x1
 6054 1568 50010000 		.4byte	0x150
 6055 156c 01       		.byte	0x1
 6056 156d 7C150000 		.4byte	0x157c
 6057 1571 0F       		.uleb128 0xf
 6058 1572 22020000 		.4byte	0x222
 6059 1576 0F       		.uleb128 0xf
 6060 1577 22020000 		.4byte	0x222
 6061 157b 00       		.byte	0
 6062 157c 40       		.uleb128 0x40
 6063 157d 01       		.byte	0x1
 6064 157e 54060000 		.4byte	.LASF167
 6065 1582 07       		.byte	0x7
 6066 1583 9A       		.byte	0x9a
 6067 1584 01       		.byte	0x1
 6068 1585 01       		.byte	0x1
 6069 1586 90150000 		.4byte	0x1590
 6070 158a 0F       		.uleb128 0xf
 6071 158b 22020000 		.4byte	0x222
 6072 158f 00       		.byte	0
 6073 1590 3E       		.uleb128 0x3e
 6074 1591 01       		.byte	0x1
 6075 1592 63030000 		.4byte	.LASF164
 6076 1596 05       		.byte	0x5
 6077 1597 CB       		.byte	0xcb
 6078 1598 01       		.byte	0x1
 6079 1599 C8000000 		.4byte	0xc8
 6080 159d 01       		.byte	0x1
 6081 159e AD150000 		.4byte	0x15ad
 6082 15a2 0F       		.uleb128 0xf
ARM GAS  C:\Users\jenny\AppData\Local\Temp\ccFzIZYt.s 			page 108


 6083 15a3 F4000000 		.4byte	0xf4
 6084 15a7 0F       		.uleb128 0xf
 6085 15a8 AD150000 		.4byte	0x15ad
 6086 15ac 00       		.byte	0
 6087 15ad 0D       		.uleb128 0xd
 6088 15ae 04       		.byte	0x4
 6089 15af B3150000 		.4byte	0x15b3
 6090 15b3 16       		.uleb128 0x16
 6091 15b4 2E020000 		.4byte	0x22e
 6092 15b8 3E       		.uleb128 0x3e
 6093 15b9 01       		.byte	0x1
 6094 15ba E0030000 		.4byte	.LASF165
 6095 15be 07       		.byte	0x7
 6096 15bf 99       		.byte	0x99
 6097 15c0 01       		.byte	0x1
 6098 15c1 C8000000 		.4byte	0xc8
 6099 15c5 01       		.byte	0x1
 6100 15c6 D5150000 		.4byte	0x15d5
 6101 15ca 0F       		.uleb128 0xf
 6102 15cb 22020000 		.4byte	0x222
 6103 15cf 0F       		.uleb128 0xf
 6104 15d0 E9000000 		.4byte	0xe9
 6105 15d4 00       		.byte	0
 6106 15d5 3E       		.uleb128 0x3e
 6107 15d6 01       		.byte	0x1
 6108 15d7 DF050000 		.4byte	.LASF166
 6109 15db 0E       		.byte	0xe
 6110 15dc 17       		.byte	0x17
 6111 15dd 01       		.byte	0x1
 6112 15de 29000000 		.4byte	0x29
 6113 15e2 01       		.byte	0x1
 6114 15e3 F7150000 		.4byte	0x15f7
 6115 15e7 0F       		.uleb128 0xf
 6116 15e8 F7150000 		.4byte	0x15f7
 6117 15ec 0F       		.uleb128 0xf
 6118 15ed F7150000 		.4byte	0x15f7
 6119 15f1 0F       		.uleb128 0xf
 6120 15f2 30000000 		.4byte	0x30
 6121 15f6 00       		.byte	0
 6122 15f7 0D       		.uleb128 0xd
 6123 15f8 04       		.byte	0x4
 6124 15f9 FD150000 		.4byte	0x15fd
 6125 15fd 41       		.uleb128 0x41
 6126 15fe 42       		.uleb128 0x42
 6127 15ff 01       		.byte	0x1
 6128 1600 01050000 		.4byte	.LASF168
 6129 1604 0F       		.byte	0xf
 6130 1605 B0       		.byte	0xb0
 6131 1606 01       		.byte	0x1
 6132 1607 50010000 		.4byte	0x150
 6133 160b 01       		.byte	0x1
 6134 160c 0F       		.uleb128 0xf
 6135 160d 22020000 		.4byte	0x222
 6136 1611 0F       		.uleb128 0xf
 6137 1612 28020000 		.4byte	0x228
 6138 1616 00       		.byte	0
 6139 1617 00       		.byte	0
ARM GAS  C:\Users\jenny\AppData\Local\Temp\ccFzIZYt.s 			page 109


 6140              		.section	.debug_abbrev,"",%progbits
 6141              	.Ldebug_abbrev0:
 6142 0000 01       		.uleb128 0x1
 6143 0001 11       		.uleb128 0x11
 6144 0002 01       		.byte	0x1
 6145 0003 25       		.uleb128 0x25
 6146 0004 0E       		.uleb128 0xe
 6147 0005 13       		.uleb128 0x13
 6148 0006 0B       		.uleb128 0xb
 6149 0007 03       		.uleb128 0x3
 6150 0008 0E       		.uleb128 0xe
 6151 0009 1B       		.uleb128 0x1b
 6152 000a 0E       		.uleb128 0xe
 6153 000b 55       		.uleb128 0x55
 6154 000c 06       		.uleb128 0x6
 6155 000d 11       		.uleb128 0x11
 6156 000e 01       		.uleb128 0x1
 6157 000f 52       		.uleb128 0x52
 6158 0010 01       		.uleb128 0x1
 6159 0011 10       		.uleb128 0x10
 6160 0012 06       		.uleb128 0x6
 6161 0013 00       		.byte	0
 6162 0014 00       		.byte	0
 6163 0015 02       		.uleb128 0x2
 6164 0016 24       		.uleb128 0x24
 6165 0017 00       		.byte	0
 6166 0018 0B       		.uleb128 0xb
 6167 0019 0B       		.uleb128 0xb
 6168 001a 3E       		.uleb128 0x3e
 6169 001b 0B       		.uleb128 0xb
 6170 001c 03       		.uleb128 0x3
 6171 001d 08       		.uleb128 0x8
 6172 001e 00       		.byte	0
 6173 001f 00       		.byte	0
 6174 0020 03       		.uleb128 0x3
 6175 0021 16       		.uleb128 0x16
 6176 0022 00       		.byte	0
 6177 0023 03       		.uleb128 0x3
 6178 0024 0E       		.uleb128 0xe
 6179 0025 3A       		.uleb128 0x3a
 6180 0026 0B       		.uleb128 0xb
 6181 0027 3B       		.uleb128 0x3b
 6182 0028 0B       		.uleb128 0xb
 6183 0029 49       		.uleb128 0x49
 6184 002a 13       		.uleb128 0x13
 6185 002b 00       		.byte	0
 6186 002c 00       		.byte	0
 6187 002d 04       		.uleb128 0x4
 6188 002e 24       		.uleb128 0x24
 6189 002f 00       		.byte	0
 6190 0030 0B       		.uleb128 0xb
 6191 0031 0B       		.uleb128 0xb
 6192 0032 3E       		.uleb128 0x3e
 6193 0033 0B       		.uleb128 0xb
 6194 0034 03       		.uleb128 0x3
 6195 0035 0E       		.uleb128 0xe
 6196 0036 00       		.byte	0
ARM GAS  C:\Users\jenny\AppData\Local\Temp\ccFzIZYt.s 			page 110


 6197 0037 00       		.byte	0
 6198 0038 05       		.uleb128 0x5
 6199 0039 0F       		.uleb128 0xf
 6200 003a 00       		.byte	0
 6201 003b 0B       		.uleb128 0xb
 6202 003c 0B       		.uleb128 0xb
 6203 003d 00       		.byte	0
 6204 003e 00       		.byte	0
 6205 003f 06       		.uleb128 0x6
 6206 0040 13       		.uleb128 0x13
 6207 0041 01       		.byte	0x1
 6208 0042 03       		.uleb128 0x3
 6209 0043 0E       		.uleb128 0xe
 6210 0044 0B       		.uleb128 0xb
 6211 0045 0B       		.uleb128 0xb
 6212 0046 3A       		.uleb128 0x3a
 6213 0047 0B       		.uleb128 0xb
 6214 0048 3B       		.uleb128 0x3b
 6215 0049 0B       		.uleb128 0xb
 6216 004a 01       		.uleb128 0x1
 6217 004b 13       		.uleb128 0x13
 6218 004c 00       		.byte	0
 6219 004d 00       		.byte	0
 6220 004e 07       		.uleb128 0x7
 6221 004f 0D       		.uleb128 0xd
 6222 0050 00       		.byte	0
 6223 0051 03       		.uleb128 0x3
 6224 0052 0E       		.uleb128 0xe
 6225 0053 3A       		.uleb128 0x3a
 6226 0054 0B       		.uleb128 0xb
 6227 0055 3B       		.uleb128 0x3b
 6228 0056 0B       		.uleb128 0xb
 6229 0057 49       		.uleb128 0x49
 6230 0058 13       		.uleb128 0x13
 6231 0059 38       		.uleb128 0x38
 6232 005a 0A       		.uleb128 0xa
 6233 005b 00       		.byte	0
 6234 005c 00       		.byte	0
 6235 005d 08       		.uleb128 0x8
 6236 005e 01       		.uleb128 0x1
 6237 005f 01       		.byte	0x1
 6238 0060 49       		.uleb128 0x49
 6239 0061 13       		.uleb128 0x13
 6240 0062 01       		.uleb128 0x1
 6241 0063 13       		.uleb128 0x13
 6242 0064 00       		.byte	0
 6243 0065 00       		.byte	0
 6244 0066 09       		.uleb128 0x9
 6245 0067 21       		.uleb128 0x21
 6246 0068 00       		.byte	0
 6247 0069 49       		.uleb128 0x49
 6248 006a 13       		.uleb128 0x13
 6249 006b 2F       		.uleb128 0x2f
 6250 006c 0B       		.uleb128 0xb
 6251 006d 00       		.byte	0
 6252 006e 00       		.byte	0
 6253 006f 0A       		.uleb128 0xa
ARM GAS  C:\Users\jenny\AppData\Local\Temp\ccFzIZYt.s 			page 111


 6254 0070 04       		.uleb128 0x4
 6255 0071 01       		.byte	0x1
 6256 0072 0B       		.uleb128 0xb
 6257 0073 0B       		.uleb128 0xb
 6258 0074 3A       		.uleb128 0x3a
 6259 0075 0B       		.uleb128 0xb
 6260 0076 3B       		.uleb128 0x3b
 6261 0077 0B       		.uleb128 0xb
 6262 0078 01       		.uleb128 0x1
 6263 0079 13       		.uleb128 0x13
 6264 007a 00       		.byte	0
 6265 007b 00       		.byte	0
 6266 007c 0B       		.uleb128 0xb
 6267 007d 28       		.uleb128 0x28
 6268 007e 00       		.byte	0
 6269 007f 03       		.uleb128 0x3
 6270 0080 0E       		.uleb128 0xe
 6271 0081 1C       		.uleb128 0x1c
 6272 0082 0D       		.uleb128 0xd
 6273 0083 00       		.byte	0
 6274 0084 00       		.byte	0
 6275 0085 0C       		.uleb128 0xc
 6276 0086 0D       		.uleb128 0xd
 6277 0087 00       		.byte	0
 6278 0088 03       		.uleb128 0x3
 6279 0089 08       		.uleb128 0x8
 6280 008a 3A       		.uleb128 0x3a
 6281 008b 0B       		.uleb128 0xb
 6282 008c 3B       		.uleb128 0x3b
 6283 008d 0B       		.uleb128 0xb
 6284 008e 49       		.uleb128 0x49
 6285 008f 13       		.uleb128 0x13
 6286 0090 38       		.uleb128 0x38
 6287 0091 0A       		.uleb128 0xa
 6288 0092 00       		.byte	0
 6289 0093 00       		.byte	0
 6290 0094 0D       		.uleb128 0xd
 6291 0095 0F       		.uleb128 0xf
 6292 0096 00       		.byte	0
 6293 0097 0B       		.uleb128 0xb
 6294 0098 0B       		.uleb128 0xb
 6295 0099 49       		.uleb128 0x49
 6296 009a 13       		.uleb128 0x13
 6297 009b 00       		.byte	0
 6298 009c 00       		.byte	0
 6299 009d 0E       		.uleb128 0xe
 6300 009e 15       		.uleb128 0x15
 6301 009f 01       		.byte	0x1
 6302 00a0 27       		.uleb128 0x27
 6303 00a1 0C       		.uleb128 0xc
 6304 00a2 49       		.uleb128 0x49
 6305 00a3 13       		.uleb128 0x13
 6306 00a4 01       		.uleb128 0x1
 6307 00a5 13       		.uleb128 0x13
 6308 00a6 00       		.byte	0
 6309 00a7 00       		.byte	0
 6310 00a8 0F       		.uleb128 0xf
ARM GAS  C:\Users\jenny\AppData\Local\Temp\ccFzIZYt.s 			page 112


 6311 00a9 05       		.uleb128 0x5
 6312 00aa 00       		.byte	0
 6313 00ab 49       		.uleb128 0x49
 6314 00ac 13       		.uleb128 0x13
 6315 00ad 00       		.byte	0
 6316 00ae 00       		.byte	0
 6317 00af 10       		.uleb128 0x10
 6318 00b0 13       		.uleb128 0x13
 6319 00b1 01       		.byte	0x1
 6320 00b2 03       		.uleb128 0x3
 6321 00b3 0E       		.uleb128 0xe
 6322 00b4 0B       		.uleb128 0xb
 6323 00b5 05       		.uleb128 0x5
 6324 00b6 3A       		.uleb128 0x3a
 6325 00b7 0B       		.uleb128 0xb
 6326 00b8 3B       		.uleb128 0x3b
 6327 00b9 0B       		.uleb128 0xb
 6328 00ba 01       		.uleb128 0x1
 6329 00bb 13       		.uleb128 0x13
 6330 00bc 00       		.byte	0
 6331 00bd 00       		.byte	0
 6332 00be 11       		.uleb128 0x11
 6333 00bf 04       		.uleb128 0x4
 6334 00c0 01       		.byte	0x1
 6335 00c1 03       		.uleb128 0x3
 6336 00c2 0E       		.uleb128 0xe
 6337 00c3 0B       		.uleb128 0xb
 6338 00c4 0B       		.uleb128 0xb
 6339 00c5 3A       		.uleb128 0x3a
 6340 00c6 0B       		.uleb128 0xb
 6341 00c7 3B       		.uleb128 0x3b
 6342 00c8 0B       		.uleb128 0xb
 6343 00c9 01       		.uleb128 0x1
 6344 00ca 13       		.uleb128 0x13
 6345 00cb 00       		.byte	0
 6346 00cc 00       		.byte	0
 6347 00cd 12       		.uleb128 0x12
 6348 00ce 2E       		.uleb128 0x2e
 6349 00cf 01       		.byte	0x1
 6350 00d0 03       		.uleb128 0x3
 6351 00d1 0E       		.uleb128 0xe
 6352 00d2 3A       		.uleb128 0x3a
 6353 00d3 0B       		.uleb128 0xb
 6354 00d4 3B       		.uleb128 0x3b
 6355 00d5 05       		.uleb128 0x5
 6356 00d6 27       		.uleb128 0x27
 6357 00d7 0C       		.uleb128 0xc
 6358 00d8 49       		.uleb128 0x49
 6359 00d9 13       		.uleb128 0x13
 6360 00da 20       		.uleb128 0x20
 6361 00db 0B       		.uleb128 0xb
 6362 00dc 01       		.uleb128 0x1
 6363 00dd 13       		.uleb128 0x13
 6364 00de 00       		.byte	0
 6365 00df 00       		.byte	0
 6366 00e0 13       		.uleb128 0x13
 6367 00e1 05       		.uleb128 0x5
ARM GAS  C:\Users\jenny\AppData\Local\Temp\ccFzIZYt.s 			page 113


 6368 00e2 00       		.byte	0
 6369 00e3 03       		.uleb128 0x3
 6370 00e4 0E       		.uleb128 0xe
 6371 00e5 3A       		.uleb128 0x3a
 6372 00e6 0B       		.uleb128 0xb
 6373 00e7 3B       		.uleb128 0x3b
 6374 00e8 05       		.uleb128 0x5
 6375 00e9 49       		.uleb128 0x49
 6376 00ea 13       		.uleb128 0x13
 6377 00eb 00       		.byte	0
 6378 00ec 00       		.byte	0
 6379 00ed 14       		.uleb128 0x14
 6380 00ee 34       		.uleb128 0x34
 6381 00ef 00       		.byte	0
 6382 00f0 03       		.uleb128 0x3
 6383 00f1 08       		.uleb128 0x8
 6384 00f2 3A       		.uleb128 0x3a
 6385 00f3 0B       		.uleb128 0xb
 6386 00f4 3B       		.uleb128 0x3b
 6387 00f5 05       		.uleb128 0x5
 6388 00f6 49       		.uleb128 0x49
 6389 00f7 13       		.uleb128 0x13
 6390 00f8 00       		.byte	0
 6391 00f9 00       		.byte	0
 6392 00fa 15       		.uleb128 0x15
 6393 00fb 34       		.uleb128 0x34
 6394 00fc 00       		.byte	0
 6395 00fd 03       		.uleb128 0x3
 6396 00fe 0E       		.uleb128 0xe
 6397 00ff 3A       		.uleb128 0x3a
 6398 0100 0B       		.uleb128 0xb
 6399 0101 3B       		.uleb128 0x3b
 6400 0102 05       		.uleb128 0x5
 6401 0103 49       		.uleb128 0x49
 6402 0104 13       		.uleb128 0x13
 6403 0105 00       		.byte	0
 6404 0106 00       		.byte	0
 6405 0107 16       		.uleb128 0x16
 6406 0108 26       		.uleb128 0x26
 6407 0109 00       		.byte	0
 6408 010a 49       		.uleb128 0x49
 6409 010b 13       		.uleb128 0x13
 6410 010c 00       		.byte	0
 6411 010d 00       		.byte	0
 6412 010e 17       		.uleb128 0x17
 6413 010f 2E       		.uleb128 0x2e
 6414 0110 01       		.byte	0x1
 6415 0111 03       		.uleb128 0x3
 6416 0112 0E       		.uleb128 0xe
 6417 0113 3A       		.uleb128 0x3a
 6418 0114 0B       		.uleb128 0xb
 6419 0115 3B       		.uleb128 0x3b
 6420 0116 0B       		.uleb128 0xb
 6421 0117 27       		.uleb128 0x27
 6422 0118 0C       		.uleb128 0xc
 6423 0119 11       		.uleb128 0x11
 6424 011a 01       		.uleb128 0x1
ARM GAS  C:\Users\jenny\AppData\Local\Temp\ccFzIZYt.s 			page 114


 6425 011b 12       		.uleb128 0x12
 6426 011c 01       		.uleb128 0x1
 6427 011d 40       		.uleb128 0x40
 6428 011e 06       		.uleb128 0x6
 6429 011f 9742     		.uleb128 0x2117
 6430 0121 0C       		.uleb128 0xc
 6431 0122 01       		.uleb128 0x1
 6432 0123 13       		.uleb128 0x13
 6433 0124 00       		.byte	0
 6434 0125 00       		.byte	0
 6435 0126 18       		.uleb128 0x18
 6436 0127 05       		.uleb128 0x5
 6437 0128 00       		.byte	0
 6438 0129 03       		.uleb128 0x3
 6439 012a 08       		.uleb128 0x8
 6440 012b 3A       		.uleb128 0x3a
 6441 012c 0B       		.uleb128 0xb
 6442 012d 3B       		.uleb128 0x3b
 6443 012e 0B       		.uleb128 0xb
 6444 012f 49       		.uleb128 0x49
 6445 0130 13       		.uleb128 0x13
 6446 0131 02       		.uleb128 0x2
 6447 0132 06       		.uleb128 0x6
 6448 0133 00       		.byte	0
 6449 0134 00       		.byte	0
 6450 0135 19       		.uleb128 0x19
 6451 0136 898201   		.uleb128 0x4109
 6452 0139 00       		.byte	0
 6453 013a 11       		.uleb128 0x11
 6454 013b 01       		.uleb128 0x1
 6455 013c 31       		.uleb128 0x31
 6456 013d 13       		.uleb128 0x13
 6457 013e 00       		.byte	0
 6458 013f 00       		.byte	0
 6459 0140 1A       		.uleb128 0x1a
 6460 0141 2E       		.uleb128 0x2e
 6461 0142 01       		.byte	0x1
 6462 0143 03       		.uleb128 0x3
 6463 0144 0E       		.uleb128 0xe
 6464 0145 3A       		.uleb128 0x3a
 6465 0146 0B       		.uleb128 0xb
 6466 0147 3B       		.uleb128 0x3b
 6467 0148 05       		.uleb128 0x5
 6468 0149 27       		.uleb128 0x27
 6469 014a 0C       		.uleb128 0xc
 6470 014b 49       		.uleb128 0x49
 6471 014c 13       		.uleb128 0x13
 6472 014d 11       		.uleb128 0x11
 6473 014e 01       		.uleb128 0x1
 6474 014f 12       		.uleb128 0x12
 6475 0150 01       		.uleb128 0x1
 6476 0151 40       		.uleb128 0x40
 6477 0152 06       		.uleb128 0x6
 6478 0153 9742     		.uleb128 0x2117
 6479 0155 0C       		.uleb128 0xc
 6480 0156 01       		.uleb128 0x1
 6481 0157 13       		.uleb128 0x13
ARM GAS  C:\Users\jenny\AppData\Local\Temp\ccFzIZYt.s 			page 115


 6482 0158 00       		.byte	0
 6483 0159 00       		.byte	0
 6484 015a 1B       		.uleb128 0x1b
 6485 015b 05       		.uleb128 0x5
 6486 015c 00       		.byte	0
 6487 015d 03       		.uleb128 0x3
 6488 015e 0E       		.uleb128 0xe
 6489 015f 3A       		.uleb128 0x3a
 6490 0160 0B       		.uleb128 0xb
 6491 0161 3B       		.uleb128 0x3b
 6492 0162 05       		.uleb128 0x5
 6493 0163 49       		.uleb128 0x49
 6494 0164 13       		.uleb128 0x13
 6495 0165 02       		.uleb128 0x2
 6496 0166 06       		.uleb128 0x6
 6497 0167 00       		.byte	0
 6498 0168 00       		.byte	0
 6499 0169 1C       		.uleb128 0x1c
 6500 016a 34       		.uleb128 0x34
 6501 016b 00       		.byte	0
 6502 016c 03       		.uleb128 0x3
 6503 016d 0E       		.uleb128 0xe
 6504 016e 3A       		.uleb128 0x3a
 6505 016f 0B       		.uleb128 0xb
 6506 0170 3B       		.uleb128 0x3b
 6507 0171 05       		.uleb128 0x5
 6508 0172 49       		.uleb128 0x49
 6509 0173 13       		.uleb128 0x13
 6510 0174 02       		.uleb128 0x2
 6511 0175 06       		.uleb128 0x6
 6512 0176 00       		.byte	0
 6513 0177 00       		.byte	0
 6514 0178 1D       		.uleb128 0x1d
 6515 0179 34       		.uleb128 0x34
 6516 017a 00       		.byte	0
 6517 017b 03       		.uleb128 0x3
 6518 017c 08       		.uleb128 0x8
 6519 017d 3A       		.uleb128 0x3a
 6520 017e 0B       		.uleb128 0xb
 6521 017f 3B       		.uleb128 0x3b
 6522 0180 05       		.uleb128 0x5
 6523 0181 49       		.uleb128 0x49
 6524 0182 13       		.uleb128 0x13
 6525 0183 02       		.uleb128 0x2
 6526 0184 06       		.uleb128 0x6
 6527 0185 00       		.byte	0
 6528 0186 00       		.byte	0
 6529 0187 1E       		.uleb128 0x1e
 6530 0188 0B       		.uleb128 0xb
 6531 0189 01       		.byte	0x1
 6532 018a 55       		.uleb128 0x55
 6533 018b 06       		.uleb128 0x6
 6534 018c 01       		.uleb128 0x1
 6535 018d 13       		.uleb128 0x13
 6536 018e 00       		.byte	0
 6537 018f 00       		.byte	0
 6538 0190 1F       		.uleb128 0x1f
ARM GAS  C:\Users\jenny\AppData\Local\Temp\ccFzIZYt.s 			page 116


 6539 0191 898201   		.uleb128 0x4109
 6540 0194 01       		.byte	0x1
 6541 0195 11       		.uleb128 0x11
 6542 0196 01       		.uleb128 0x1
 6543 0197 31       		.uleb128 0x31
 6544 0198 13       		.uleb128 0x13
 6545 0199 01       		.uleb128 0x1
 6546 019a 13       		.uleb128 0x13
 6547 019b 00       		.byte	0
 6548 019c 00       		.byte	0
 6549 019d 20       		.uleb128 0x20
 6550 019e 8A8201   		.uleb128 0x410a
 6551 01a1 00       		.byte	0
 6552 01a2 02       		.uleb128 0x2
 6553 01a3 0A       		.uleb128 0xa
 6554 01a4 9142     		.uleb128 0x2111
 6555 01a6 0A       		.uleb128 0xa
 6556 01a7 00       		.byte	0
 6557 01a8 00       		.byte	0
 6558 01a9 21       		.uleb128 0x21
 6559 01aa 898201   		.uleb128 0x4109
 6560 01ad 01       		.byte	0x1
 6561 01ae 11       		.uleb128 0x11
 6562 01af 01       		.uleb128 0x1
 6563 01b0 31       		.uleb128 0x31
 6564 01b1 13       		.uleb128 0x13
 6565 01b2 00       		.byte	0
 6566 01b3 00       		.byte	0
 6567 01b4 22       		.uleb128 0x22
 6568 01b5 05       		.uleb128 0x5
 6569 01b6 00       		.byte	0
 6570 01b7 03       		.uleb128 0x3
 6571 01b8 08       		.uleb128 0x8
 6572 01b9 3A       		.uleb128 0x3a
 6573 01ba 0B       		.uleb128 0xb
 6574 01bb 3B       		.uleb128 0x3b
 6575 01bc 05       		.uleb128 0x5
 6576 01bd 49       		.uleb128 0x49
 6577 01be 13       		.uleb128 0x13
 6578 01bf 02       		.uleb128 0x2
 6579 01c0 06       		.uleb128 0x6
 6580 01c1 00       		.byte	0
 6581 01c2 00       		.byte	0
 6582 01c3 23       		.uleb128 0x23
 6583 01c4 34       		.uleb128 0x34
 6584 01c5 00       		.byte	0
 6585 01c6 03       		.uleb128 0x3
 6586 01c7 0E       		.uleb128 0xe
 6587 01c8 3A       		.uleb128 0x3a
 6588 01c9 0B       		.uleb128 0xb
 6589 01ca 3B       		.uleb128 0x3b
 6590 01cb 05       		.uleb128 0x5
 6591 01cc 49       		.uleb128 0x49
 6592 01cd 13       		.uleb128 0x13
 6593 01ce 02       		.uleb128 0x2
 6594 01cf 0A       		.uleb128 0xa
 6595 01d0 00       		.byte	0
ARM GAS  C:\Users\jenny\AppData\Local\Temp\ccFzIZYt.s 			page 117


 6596 01d1 00       		.byte	0
 6597 01d2 24       		.uleb128 0x24
 6598 01d3 898201   		.uleb128 0x4109
 6599 01d6 01       		.byte	0x1
 6600 01d7 11       		.uleb128 0x11
 6601 01d8 01       		.uleb128 0x1
 6602 01d9 00       		.byte	0
 6603 01da 00       		.byte	0
 6604 01db 25       		.uleb128 0x25
 6605 01dc 2E       		.uleb128 0x2e
 6606 01dd 01       		.byte	0x1
 6607 01de 3F       		.uleb128 0x3f
 6608 01df 0C       		.uleb128 0xc
 6609 01e0 03       		.uleb128 0x3
 6610 01e1 0E       		.uleb128 0xe
 6611 01e2 3A       		.uleb128 0x3a
 6612 01e3 0B       		.uleb128 0xb
 6613 01e4 3B       		.uleb128 0x3b
 6614 01e5 0B       		.uleb128 0xb
 6615 01e6 27       		.uleb128 0x27
 6616 01e7 0C       		.uleb128 0xc
 6617 01e8 11       		.uleb128 0x11
 6618 01e9 01       		.uleb128 0x1
 6619 01ea 12       		.uleb128 0x12
 6620 01eb 01       		.uleb128 0x1
 6621 01ec 40       		.uleb128 0x40
 6622 01ed 06       		.uleb128 0x6
 6623 01ee 9742     		.uleb128 0x2117
 6624 01f0 0C       		.uleb128 0xc
 6625 01f1 01       		.uleb128 0x1
 6626 01f2 13       		.uleb128 0x13
 6627 01f3 00       		.byte	0
 6628 01f4 00       		.byte	0
 6629 01f5 26       		.uleb128 0x26
 6630 01f6 34       		.uleb128 0x34
 6631 01f7 00       		.byte	0
 6632 01f8 03       		.uleb128 0x3
 6633 01f9 08       		.uleb128 0x8
 6634 01fa 3A       		.uleb128 0x3a
 6635 01fb 0B       		.uleb128 0xb
 6636 01fc 3B       		.uleb128 0x3b
 6637 01fd 0B       		.uleb128 0xb
 6638 01fe 49       		.uleb128 0x49
 6639 01ff 13       		.uleb128 0x13
 6640 0200 02       		.uleb128 0x2
 6641 0201 06       		.uleb128 0x6
 6642 0202 00       		.byte	0
 6643 0203 00       		.byte	0
 6644 0204 27       		.uleb128 0x27
 6645 0205 0B       		.uleb128 0xb
 6646 0206 01       		.byte	0x1
 6647 0207 55       		.uleb128 0x55
 6648 0208 06       		.uleb128 0x6
 6649 0209 00       		.byte	0
 6650 020a 00       		.byte	0
 6651 020b 28       		.uleb128 0x28
 6652 020c 34       		.uleb128 0x34
ARM GAS  C:\Users\jenny\AppData\Local\Temp\ccFzIZYt.s 			page 118


 6653 020d 00       		.byte	0
 6654 020e 03       		.uleb128 0x3
 6655 020f 0E       		.uleb128 0xe
 6656 0210 3A       		.uleb128 0x3a
 6657 0211 0B       		.uleb128 0xb
 6658 0212 3B       		.uleb128 0x3b
 6659 0213 0B       		.uleb128 0xb
 6660 0214 49       		.uleb128 0x49
 6661 0215 13       		.uleb128 0x13
 6662 0216 02       		.uleb128 0x2
 6663 0217 06       		.uleb128 0x6
 6664 0218 00       		.byte	0
 6665 0219 00       		.byte	0
 6666 021a 29       		.uleb128 0x29
 6667 021b 898201   		.uleb128 0x4109
 6668 021e 01       		.byte	0x1
 6669 021f 11       		.uleb128 0x11
 6670 0220 01       		.uleb128 0x1
 6671 0221 9542     		.uleb128 0x2115
 6672 0223 0C       		.uleb128 0xc
 6673 0224 31       		.uleb128 0x31
 6674 0225 13       		.uleb128 0x13
 6675 0226 01       		.uleb128 0x1
 6676 0227 13       		.uleb128 0x13
 6677 0228 00       		.byte	0
 6678 0229 00       		.byte	0
 6679 022a 2A       		.uleb128 0x2a
 6680 022b 2E       		.uleb128 0x2e
 6681 022c 01       		.byte	0x1
 6682 022d 3F       		.uleb128 0x3f
 6683 022e 0C       		.uleb128 0xc
 6684 022f 03       		.uleb128 0x3
 6685 0230 0E       		.uleb128 0xe
 6686 0231 3A       		.uleb128 0x3a
 6687 0232 0B       		.uleb128 0xb
 6688 0233 3B       		.uleb128 0x3b
 6689 0234 05       		.uleb128 0x5
 6690 0235 27       		.uleb128 0x27
 6691 0236 0C       		.uleb128 0xc
 6692 0237 11       		.uleb128 0x11
 6693 0238 01       		.uleb128 0x1
 6694 0239 12       		.uleb128 0x12
 6695 023a 01       		.uleb128 0x1
 6696 023b 40       		.uleb128 0x40
 6697 023c 06       		.uleb128 0x6
 6698 023d 9742     		.uleb128 0x2117
 6699 023f 0C       		.uleb128 0xc
 6700 0240 01       		.uleb128 0x1
 6701 0241 13       		.uleb128 0x13
 6702 0242 00       		.byte	0
 6703 0243 00       		.byte	0
 6704 0244 2B       		.uleb128 0x2b
 6705 0245 2E       		.uleb128 0x2e
 6706 0246 01       		.byte	0x1
 6707 0247 3F       		.uleb128 0x3f
 6708 0248 0C       		.uleb128 0xc
 6709 0249 03       		.uleb128 0x3
ARM GAS  C:\Users\jenny\AppData\Local\Temp\ccFzIZYt.s 			page 119


 6710 024a 0E       		.uleb128 0xe
 6711 024b 3A       		.uleb128 0x3a
 6712 024c 0B       		.uleb128 0xb
 6713 024d 3B       		.uleb128 0x3b
 6714 024e 05       		.uleb128 0x5
 6715 024f 27       		.uleb128 0x27
 6716 0250 0C       		.uleb128 0xc
 6717 0251 49       		.uleb128 0x49
 6718 0252 13       		.uleb128 0x13
 6719 0253 11       		.uleb128 0x11
 6720 0254 01       		.uleb128 0x1
 6721 0255 12       		.uleb128 0x12
 6722 0256 01       		.uleb128 0x1
 6723 0257 40       		.uleb128 0x40
 6724 0258 06       		.uleb128 0x6
 6725 0259 9742     		.uleb128 0x2117
 6726 025b 0C       		.uleb128 0xc
 6727 025c 01       		.uleb128 0x1
 6728 025d 13       		.uleb128 0x13
 6729 025e 00       		.byte	0
 6730 025f 00       		.byte	0
 6731 0260 2C       		.uleb128 0x2c
 6732 0261 1D       		.uleb128 0x1d
 6733 0262 01       		.byte	0x1
 6734 0263 31       		.uleb128 0x31
 6735 0264 13       		.uleb128 0x13
 6736 0265 52       		.uleb128 0x52
 6737 0266 01       		.uleb128 0x1
 6738 0267 55       		.uleb128 0x55
 6739 0268 06       		.uleb128 0x6
 6740 0269 58       		.uleb128 0x58
 6741 026a 0B       		.uleb128 0xb
 6742 026b 59       		.uleb128 0x59
 6743 026c 05       		.uleb128 0x5
 6744 026d 00       		.byte	0
 6745 026e 00       		.byte	0
 6746 026f 2D       		.uleb128 0x2d
 6747 0270 05       		.uleb128 0x5
 6748 0271 00       		.byte	0
 6749 0272 31       		.uleb128 0x31
 6750 0273 13       		.uleb128 0x13
 6751 0274 02       		.uleb128 0x2
 6752 0275 06       		.uleb128 0x6
 6753 0276 00       		.byte	0
 6754 0277 00       		.byte	0
 6755 0278 2E       		.uleb128 0x2e
 6756 0279 05       		.uleb128 0x5
 6757 027a 00       		.byte	0
 6758 027b 31       		.uleb128 0x31
 6759 027c 13       		.uleb128 0x13
 6760 027d 02       		.uleb128 0x2
 6761 027e 0A       		.uleb128 0xa
 6762 027f 00       		.byte	0
 6763 0280 00       		.byte	0
 6764 0281 2F       		.uleb128 0x2f
 6765 0282 34       		.uleb128 0x34
 6766 0283 00       		.byte	0
ARM GAS  C:\Users\jenny\AppData\Local\Temp\ccFzIZYt.s 			page 120


 6767 0284 31       		.uleb128 0x31
 6768 0285 13       		.uleb128 0x13
 6769 0286 02       		.uleb128 0x2
 6770 0287 06       		.uleb128 0x6
 6771 0288 00       		.byte	0
 6772 0289 00       		.byte	0
 6773 028a 30       		.uleb128 0x30
 6774 028b 05       		.uleb128 0x5
 6775 028c 00       		.byte	0
 6776 028d 31       		.uleb128 0x31
 6777 028e 13       		.uleb128 0x13
 6778 028f 1C       		.uleb128 0x1c
 6779 0290 0B       		.uleb128 0xb
 6780 0291 00       		.byte	0
 6781 0292 00       		.byte	0
 6782 0293 31       		.uleb128 0x31
 6783 0294 898201   		.uleb128 0x4109
 6784 0297 01       		.byte	0x1
 6785 0298 11       		.uleb128 0x11
 6786 0299 01       		.uleb128 0x1
 6787 029a 9342     		.uleb128 0x2113
 6788 029c 0A       		.uleb128 0xa
 6789 029d 01       		.uleb128 0x1
 6790 029e 13       		.uleb128 0x13
 6791 029f 00       		.byte	0
 6792 02a0 00       		.byte	0
 6793 02a1 32       		.uleb128 0x32
 6794 02a2 0B       		.uleb128 0xb
 6795 02a3 01       		.byte	0x1
 6796 02a4 11       		.uleb128 0x11
 6797 02a5 01       		.uleb128 0x1
 6798 02a6 12       		.uleb128 0x12
 6799 02a7 01       		.uleb128 0x1
 6800 02a8 01       		.uleb128 0x1
 6801 02a9 13       		.uleb128 0x13
 6802 02aa 00       		.byte	0
 6803 02ab 00       		.byte	0
 6804 02ac 33       		.uleb128 0x33
 6805 02ad 898201   		.uleb128 0x4109
 6806 02b0 01       		.byte	0x1
 6807 02b1 11       		.uleb128 0x11
 6808 02b2 01       		.uleb128 0x1
 6809 02b3 9542     		.uleb128 0x2115
 6810 02b5 0C       		.uleb128 0xc
 6811 02b6 31       		.uleb128 0x31
 6812 02b7 13       		.uleb128 0x13
 6813 02b8 00       		.byte	0
 6814 02b9 00       		.byte	0
 6815 02ba 34       		.uleb128 0x34
 6816 02bb 2E       		.uleb128 0x2e
 6817 02bc 01       		.byte	0x1
 6818 02bd 03       		.uleb128 0x3
 6819 02be 0E       		.uleb128 0xe
 6820 02bf 3A       		.uleb128 0x3a
 6821 02c0 0B       		.uleb128 0xb
 6822 02c1 3B       		.uleb128 0x3b
 6823 02c2 05       		.uleb128 0x5
ARM GAS  C:\Users\jenny\AppData\Local\Temp\ccFzIZYt.s 			page 121


 6824 02c3 27       		.uleb128 0x27
 6825 02c4 0C       		.uleb128 0xc
 6826 02c5 20       		.uleb128 0x20
 6827 02c6 0B       		.uleb128 0xb
 6828 02c7 01       		.uleb128 0x1
 6829 02c8 13       		.uleb128 0x13
 6830 02c9 00       		.byte	0
 6831 02ca 00       		.byte	0
 6832 02cb 35       		.uleb128 0x35
 6833 02cc 05       		.uleb128 0x5
 6834 02cd 00       		.byte	0
 6835 02ce 03       		.uleb128 0x3
 6836 02cf 08       		.uleb128 0x8
 6837 02d0 3A       		.uleb128 0x3a
 6838 02d1 0B       		.uleb128 0xb
 6839 02d2 3B       		.uleb128 0x3b
 6840 02d3 05       		.uleb128 0x5
 6841 02d4 49       		.uleb128 0x49
 6842 02d5 13       		.uleb128 0x13
 6843 02d6 00       		.byte	0
 6844 02d7 00       		.byte	0
 6845 02d8 36       		.uleb128 0x36
 6846 02d9 0B       		.uleb128 0xb
 6847 02da 01       		.byte	0x1
 6848 02db 00       		.byte	0
 6849 02dc 00       		.byte	0
 6850 02dd 37       		.uleb128 0x37
 6851 02de 34       		.uleb128 0x34
 6852 02df 00       		.byte	0
 6853 02e0 03       		.uleb128 0x3
 6854 02e1 0E       		.uleb128 0xe
 6855 02e2 3A       		.uleb128 0x3a
 6856 02e3 0B       		.uleb128 0xb
 6857 02e4 3B       		.uleb128 0x3b
 6858 02e5 05       		.uleb128 0x5
 6859 02e6 49       		.uleb128 0x49
 6860 02e7 13       		.uleb128 0x13
 6861 02e8 1C       		.uleb128 0x1c
 6862 02e9 0B       		.uleb128 0xb
 6863 02ea 00       		.byte	0
 6864 02eb 00       		.byte	0
 6865 02ec 38       		.uleb128 0x38
 6866 02ed 0A       		.uleb128 0xa
 6867 02ee 00       		.byte	0
 6868 02ef 03       		.uleb128 0x3
 6869 02f0 0E       		.uleb128 0xe
 6870 02f1 3A       		.uleb128 0x3a
 6871 02f2 0B       		.uleb128 0xb
 6872 02f3 3B       		.uleb128 0x3b
 6873 02f4 05       		.uleb128 0x5
 6874 02f5 11       		.uleb128 0x11
 6875 02f6 01       		.uleb128 0x1
 6876 02f7 00       		.byte	0
 6877 02f8 00       		.byte	0
 6878 02f9 39       		.uleb128 0x39
 6879 02fa 1D       		.uleb128 0x1d
 6880 02fb 01       		.byte	0x1
ARM GAS  C:\Users\jenny\AppData\Local\Temp\ccFzIZYt.s 			page 122


 6881 02fc 31       		.uleb128 0x31
 6882 02fd 13       		.uleb128 0x13
 6883 02fe 52       		.uleb128 0x52
 6884 02ff 01       		.uleb128 0x1
 6885 0300 55       		.uleb128 0x55
 6886 0301 06       		.uleb128 0x6
 6887 0302 58       		.uleb128 0x58
 6888 0303 0B       		.uleb128 0xb
 6889 0304 59       		.uleb128 0x59
 6890 0305 05       		.uleb128 0x5
 6891 0306 01       		.uleb128 0x1
 6892 0307 13       		.uleb128 0x13
 6893 0308 00       		.byte	0
 6894 0309 00       		.byte	0
 6895 030a 3A       		.uleb128 0x3a
 6896 030b 34       		.uleb128 0x34
 6897 030c 00       		.byte	0
 6898 030d 31       		.uleb128 0x31
 6899 030e 13       		.uleb128 0x13
 6900 030f 02       		.uleb128 0x2
 6901 0310 0A       		.uleb128 0xa
 6902 0311 00       		.byte	0
 6903 0312 00       		.byte	0
 6904 0313 3B       		.uleb128 0x3b
 6905 0314 34       		.uleb128 0x34
 6906 0315 00       		.byte	0
 6907 0316 03       		.uleb128 0x3
 6908 0317 0E       		.uleb128 0xe
 6909 0318 3A       		.uleb128 0x3a
 6910 0319 0B       		.uleb128 0xb
 6911 031a 3B       		.uleb128 0x3b
 6912 031b 0B       		.uleb128 0xb
 6913 031c 49       		.uleb128 0x49
 6914 031d 13       		.uleb128 0x13
 6915 031e 02       		.uleb128 0x2
 6916 031f 0A       		.uleb128 0xa
 6917 0320 00       		.byte	0
 6918 0321 00       		.byte	0
 6919 0322 3C       		.uleb128 0x3c
 6920 0323 34       		.uleb128 0x34
 6921 0324 00       		.byte	0
 6922 0325 03       		.uleb128 0x3
 6923 0326 0E       		.uleb128 0xe
 6924 0327 3A       		.uleb128 0x3a
 6925 0328 0B       		.uleb128 0xb
 6926 0329 3B       		.uleb128 0x3b
 6927 032a 0B       		.uleb128 0xb
 6928 032b 49       		.uleb128 0x49
 6929 032c 13       		.uleb128 0x13
 6930 032d 3F       		.uleb128 0x3f
 6931 032e 0C       		.uleb128 0xc
 6932 032f 3C       		.uleb128 0x3c
 6933 0330 0C       		.uleb128 0xc
 6934 0331 00       		.byte	0
 6935 0332 00       		.byte	0
 6936 0333 3D       		.uleb128 0x3d
 6937 0334 34       		.uleb128 0x34
ARM GAS  C:\Users\jenny\AppData\Local\Temp\ccFzIZYt.s 			page 123


 6938 0335 00       		.byte	0
 6939 0336 03       		.uleb128 0x3
 6940 0337 0E       		.uleb128 0xe
 6941 0338 3A       		.uleb128 0x3a
 6942 0339 0B       		.uleb128 0xb
 6943 033a 3B       		.uleb128 0x3b
 6944 033b 0B       		.uleb128 0xb
 6945 033c 49       		.uleb128 0x49
 6946 033d 13       		.uleb128 0x13
 6947 033e 3F       		.uleb128 0x3f
 6948 033f 0C       		.uleb128 0xc
 6949 0340 02       		.uleb128 0x2
 6950 0341 0A       		.uleb128 0xa
 6951 0342 00       		.byte	0
 6952 0343 00       		.byte	0
 6953 0344 3E       		.uleb128 0x3e
 6954 0345 2E       		.uleb128 0x2e
 6955 0346 01       		.byte	0x1
 6956 0347 3F       		.uleb128 0x3f
 6957 0348 0C       		.uleb128 0xc
 6958 0349 03       		.uleb128 0x3
 6959 034a 0E       		.uleb128 0xe
 6960 034b 3A       		.uleb128 0x3a
 6961 034c 0B       		.uleb128 0xb
 6962 034d 3B       		.uleb128 0x3b
 6963 034e 0B       		.uleb128 0xb
 6964 034f 27       		.uleb128 0x27
 6965 0350 0C       		.uleb128 0xc
 6966 0351 49       		.uleb128 0x49
 6967 0352 13       		.uleb128 0x13
 6968 0353 3C       		.uleb128 0x3c
 6969 0354 0C       		.uleb128 0xc
 6970 0355 01       		.uleb128 0x1
 6971 0356 13       		.uleb128 0x13
 6972 0357 00       		.byte	0
 6973 0358 00       		.byte	0
 6974 0359 3F       		.uleb128 0x3f
 6975 035a 2E       		.uleb128 0x2e
 6976 035b 00       		.byte	0
 6977 035c 3F       		.uleb128 0x3f
 6978 035d 0C       		.uleb128 0xc
 6979 035e 03       		.uleb128 0x3
 6980 035f 0E       		.uleb128 0xe
 6981 0360 3A       		.uleb128 0x3a
 6982 0361 0B       		.uleb128 0xb
 6983 0362 3B       		.uleb128 0x3b
 6984 0363 05       		.uleb128 0x5
 6985 0364 27       		.uleb128 0x27
 6986 0365 0C       		.uleb128 0xc
 6987 0366 3C       		.uleb128 0x3c
 6988 0367 0C       		.uleb128 0xc
 6989 0368 00       		.byte	0
 6990 0369 00       		.byte	0
 6991 036a 40       		.uleb128 0x40
 6992 036b 2E       		.uleb128 0x2e
 6993 036c 01       		.byte	0x1
 6994 036d 3F       		.uleb128 0x3f
ARM GAS  C:\Users\jenny\AppData\Local\Temp\ccFzIZYt.s 			page 124


 6995 036e 0C       		.uleb128 0xc
 6996 036f 03       		.uleb128 0x3
 6997 0370 0E       		.uleb128 0xe
 6998 0371 3A       		.uleb128 0x3a
 6999 0372 0B       		.uleb128 0xb
 7000 0373 3B       		.uleb128 0x3b
 7001 0374 0B       		.uleb128 0xb
 7002 0375 27       		.uleb128 0x27
 7003 0376 0C       		.uleb128 0xc
 7004 0377 3C       		.uleb128 0x3c
 7005 0378 0C       		.uleb128 0xc
 7006 0379 01       		.uleb128 0x1
 7007 037a 13       		.uleb128 0x13
 7008 037b 00       		.byte	0
 7009 037c 00       		.byte	0
 7010 037d 41       		.uleb128 0x41
 7011 037e 26       		.uleb128 0x26
 7012 037f 00       		.byte	0
 7013 0380 00       		.byte	0
 7014 0381 00       		.byte	0
 7015 0382 42       		.uleb128 0x42
 7016 0383 2E       		.uleb128 0x2e
 7017 0384 01       		.byte	0x1
 7018 0385 3F       		.uleb128 0x3f
 7019 0386 0C       		.uleb128 0xc
 7020 0387 03       		.uleb128 0x3
 7021 0388 0E       		.uleb128 0xe
 7022 0389 3A       		.uleb128 0x3a
 7023 038a 0B       		.uleb128 0xb
 7024 038b 3B       		.uleb128 0x3b
 7025 038c 0B       		.uleb128 0xb
 7026 038d 27       		.uleb128 0x27
 7027 038e 0C       		.uleb128 0xc
 7028 038f 49       		.uleb128 0x49
 7029 0390 13       		.uleb128 0x13
 7030 0391 3C       		.uleb128 0x3c
 7031 0392 0C       		.uleb128 0xc
 7032 0393 00       		.byte	0
 7033 0394 00       		.byte	0
 7034 0395 00       		.byte	0
 7035              		.section	.debug_loc,"",%progbits
 7036              	.Ldebug_loc0:
 7037              	.LLST0:
 7038 0000 00000000 		.4byte	.LFB7
 7039 0004 02000000 		.4byte	.LCFI0
 7040 0008 0200     		.2byte	0x2
 7041 000a 7D       		.byte	0x7d
 7042 000b 00       		.sleb128 0
 7043 000c 02000000 		.4byte	.LCFI0
 7044 0010 2C000000 		.4byte	.LFE7
 7045 0014 0200     		.2byte	0x2
 7046 0016 7D       		.byte	0x7d
 7047 0017 18       		.sleb128 24
 7048 0018 00000000 		.4byte	0
 7049 001c 00000000 		.4byte	0
 7050              	.LLST1:
 7051 0020 00000000 		.4byte	.LVL0
ARM GAS  C:\Users\jenny\AppData\Local\Temp\ccFzIZYt.s 			page 125


 7052 0024 0E000000 		.4byte	.LVL1
 7053 0028 0100     		.2byte	0x1
 7054 002a 50       		.byte	0x50
 7055 002b 0E000000 		.4byte	.LVL1
 7056 002f 1A000000 		.4byte	.LVL3
 7057 0033 0100     		.2byte	0x1
 7058 0035 54       		.byte	0x54
 7059 0036 1A000000 		.4byte	.LVL3
 7060 003a 2C000000 		.4byte	.LFE7
 7061 003e 0400     		.2byte	0x4
 7062 0040 F3       		.byte	0xf3
 7063 0041 01       		.uleb128 0x1
 7064 0042 50       		.byte	0x50
 7065 0043 9F       		.byte	0x9f
 7066 0044 00000000 		.4byte	0
 7067 0048 00000000 		.4byte	0
 7068              	.LLST2:
 7069 004c 00000000 		.4byte	.LFB9
 7070 0050 04000000 		.4byte	.LCFI1
 7071 0054 0200     		.2byte	0x2
 7072 0056 7D       		.byte	0x7d
 7073 0057 00       		.sleb128 0
 7074 0058 04000000 		.4byte	.LCFI1
 7075 005c 0A000000 		.4byte	.LCFI2
 7076 0060 0200     		.2byte	0x2
 7077 0062 7D       		.byte	0x7d
 7078 0063 24       		.sleb128 36
 7079 0064 0A000000 		.4byte	.LCFI2
 7080 0068 64050000 		.4byte	.LFE9
 7081 006c 0200     		.2byte	0x2
 7082 006e 7D       		.byte	0x7d
 7083 006f 30       		.sleb128 48
 7084 0070 00000000 		.4byte	0
 7085 0074 00000000 		.4byte	0
 7086              	.LLST3:
 7087 0078 00000000 		.4byte	.LVL4
 7088 007c 48000000 		.4byte	.LVL11
 7089 0080 0100     		.2byte	0x1
 7090 0082 50       		.byte	0x50
 7091 0083 48000000 		.4byte	.LVL11
 7092 0087 5E030000 		.4byte	.LVL99
 7093 008b 0100     		.2byte	0x1
 7094 008d 55       		.byte	0x55
 7095 008e 5E030000 		.4byte	.LVL99
 7096 0092 8A030000 		.4byte	.LVL103
 7097 0096 0100     		.2byte	0x1
 7098 0098 50       		.byte	0x50
 7099 0099 8A030000 		.4byte	.LVL103
 7100 009d 72040000 		.4byte	.LVL120
 7101 00a1 0100     		.2byte	0x1
 7102 00a3 55       		.byte	0x55
 7103 00a4 72040000 		.4byte	.LVL120
 7104 00a8 84040000 		.4byte	.LVL121
 7105 00ac 0100     		.2byte	0x1
 7106 00ae 50       		.byte	0x50
 7107 00af 84040000 		.4byte	.LVL121
 7108 00b3 88040000 		.4byte	.LVL122
ARM GAS  C:\Users\jenny\AppData\Local\Temp\ccFzIZYt.s 			page 126


 7109 00b7 0100     		.2byte	0x1
 7110 00b9 55       		.byte	0x55
 7111 00ba 88040000 		.4byte	.LVL122
 7112 00be 8A040000 		.4byte	.LVL123
 7113 00c2 0100     		.2byte	0x1
 7114 00c4 50       		.byte	0x50
 7115 00c5 8A040000 		.4byte	.LVL123
 7116 00c9 C2040000 		.4byte	.LVL130
 7117 00cd 0100     		.2byte	0x1
 7118 00cf 55       		.byte	0x55
 7119 00d0 C2040000 		.4byte	.LVL130
 7120 00d4 D4040000 		.4byte	.LVL132
 7121 00d8 0100     		.2byte	0x1
 7122 00da 50       		.byte	0x50
 7123 00db D4040000 		.4byte	.LVL132
 7124 00df 64050000 		.4byte	.LFE9
 7125 00e3 0100     		.2byte	0x1
 7126 00e5 55       		.byte	0x55
 7127 00e6 00000000 		.4byte	0
 7128 00ea 00000000 		.4byte	0
 7129              	.LLST4:
 7130 00ee 00000000 		.4byte	.LVL4
 7131 00f2 2C000000 		.4byte	.LVL8
 7132 00f6 0100     		.2byte	0x1
 7133 00f8 51       		.byte	0x51
 7134 00f9 2C000000 		.4byte	.LVL8
 7135 00fd 30000000 		.4byte	.LVL9
 7136 0101 0400     		.2byte	0x4
 7137 0103 F3       		.byte	0xf3
 7138 0104 01       		.uleb128 0x1
 7139 0105 51       		.byte	0x51
 7140 0106 9F       		.byte	0x9f
 7141 0107 30000000 		.4byte	.LVL9
 7142 010b 34000000 		.4byte	.LVL10
 7143 010f 0100     		.2byte	0x1
 7144 0111 51       		.byte	0x51
 7145 0112 34000000 		.4byte	.LVL10
 7146 0116 5E030000 		.4byte	.LVL99
 7147 011a 0400     		.2byte	0x4
 7148 011c F3       		.byte	0xf3
 7149 011d 01       		.uleb128 0x1
 7150 011e 51       		.byte	0x51
 7151 011f 9F       		.byte	0x9f
 7152 0120 5E030000 		.4byte	.LVL99
 7153 0124 60030000 		.4byte	.LVL100
 7154 0128 0100     		.2byte	0x1
 7155 012a 51       		.byte	0x51
 7156 012b 60030000 		.4byte	.LVL100
 7157 012f 64050000 		.4byte	.LFE9
 7158 0133 0400     		.2byte	0x4
 7159 0135 F3       		.byte	0xf3
 7160 0136 01       		.uleb128 0x1
 7161 0137 51       		.byte	0x51
 7162 0138 9F       		.byte	0x9f
 7163 0139 00000000 		.4byte	0
 7164 013d 00000000 		.4byte	0
 7165              	.LLST5:
ARM GAS  C:\Users\jenny\AppData\Local\Temp\ccFzIZYt.s 			page 127


 7166 0141 00000000 		.4byte	.LVL4
 7167 0145 56000000 		.4byte	.LVL13
 7168 0149 0200     		.2byte	0x2
 7169 014b 3A       		.byte	0x3a
 7170 014c 9F       		.byte	0x9f
 7171 014d 56000000 		.4byte	.LVL13
 7172 0151 68000000 		.4byte	.LVL16
 7173 0155 0100     		.2byte	0x1
 7174 0157 59       		.byte	0x59
 7175 0158 6C000000 		.4byte	.LVL17
 7176 015c 70000000 		.4byte	.LVL18
 7177 0160 0100     		.2byte	0x1
 7178 0162 59       		.byte	0x59
 7179 0163 74000000 		.4byte	.LVL19
 7180 0167 78000000 		.4byte	.LVL20
 7181 016b 0100     		.2byte	0x1
 7182 016d 59       		.byte	0x59
 7183 016e 7C000000 		.4byte	.LVL21
 7184 0172 80000000 		.4byte	.LVL22
 7185 0176 0100     		.2byte	0x1
 7186 0178 59       		.byte	0x59
 7187 0179 84000000 		.4byte	.LVL23
 7188 017d 88000000 		.4byte	.LVL24
 7189 0181 0100     		.2byte	0x1
 7190 0183 59       		.byte	0x59
 7191 0184 8E000000 		.4byte	.LVL25
 7192 0188 92000000 		.4byte	.LVL26
 7193 018c 0100     		.2byte	0x1
 7194 018e 59       		.byte	0x59
 7195 018f 98000000 		.4byte	.LVL27
 7196 0193 9C000000 		.4byte	.LVL28
 7197 0197 0100     		.2byte	0x1
 7198 0199 59       		.byte	0x59
 7199 019a A2000000 		.4byte	.LVL29
 7200 019e B6000000 		.4byte	.LVL31
 7201 01a2 0100     		.2byte	0x1
 7202 01a4 59       		.byte	0x59
 7203 01a5 DE000000 		.4byte	.LVL34
 7204 01a9 EE000000 		.4byte	.LVL36
 7205 01ad 0100     		.2byte	0x1
 7206 01af 59       		.byte	0x59
 7207 01b0 0C010000 		.4byte	.LVL37
 7208 01b4 1C010000 		.4byte	.LVL39
 7209 01b8 0100     		.2byte	0x1
 7210 01ba 59       		.byte	0x59
 7211 01bb 3A010000 		.4byte	.LVL40
 7212 01bf 4A010000 		.4byte	.LVL42
 7213 01c3 0100     		.2byte	0x1
 7214 01c5 59       		.byte	0x59
 7215 01c6 68010000 		.4byte	.LVL43
 7216 01ca 78010000 		.4byte	.LVL45
 7217 01ce 0100     		.2byte	0x1
 7218 01d0 59       		.byte	0x59
 7219 01d1 96010000 		.4byte	.LVL46
 7220 01d5 A8010000 		.4byte	.LVL48
 7221 01d9 0100     		.2byte	0x1
 7222 01db 59       		.byte	0x59
ARM GAS  C:\Users\jenny\AppData\Local\Temp\ccFzIZYt.s 			page 128


 7223 01dc C8010000 		.4byte	.LVL50
 7224 01e0 DA010000 		.4byte	.LVL52
 7225 01e4 0100     		.2byte	0x1
 7226 01e6 59       		.byte	0x59
 7227 01e7 FC010000 		.4byte	.LVL54
 7228 01eb 0E020000 		.4byte	.LVL56
 7229 01ef 0100     		.2byte	0x1
 7230 01f1 59       		.byte	0x59
 7231 01f2 36020000 		.4byte	.LVL58
 7232 01f6 6E020000 		.4byte	.LVL60
 7233 01fa 0100     		.2byte	0x1
 7234 01fc 59       		.byte	0x59
 7235 01fd B0020000 		.4byte	.LVL66
 7236 0201 DA020000 		.4byte	.LVL72
 7237 0205 0100     		.2byte	0x1
 7238 0207 59       		.byte	0x59
 7239 0208 02030000 		.4byte	.LVL74
 7240 020c 3A030000 		.4byte	.LVL92
 7241 0210 0100     		.2byte	0x1
 7242 0212 59       		.byte	0x59
 7243 0213 4C030000 		.4byte	.LVL95
 7244 0217 58030000 		.4byte	.LVL98
 7245 021b 0100     		.2byte	0x1
 7246 021d 59       		.byte	0x59
 7247 021e 5E030000 		.4byte	.LVL99
 7248 0222 8A030000 		.4byte	.LVL103
 7249 0226 0200     		.2byte	0x2
 7250 0228 3A       		.byte	0x3a
 7251 0229 9F       		.byte	0x9f
 7252 022a 58040000 		.4byte	.LVL117
 7253 022e 72040000 		.4byte	.LVL120
 7254 0232 0100     		.2byte	0x1
 7255 0234 59       		.byte	0x59
 7256 0235 72040000 		.4byte	.LVL120
 7257 0239 84040000 		.4byte	.LVL121
 7258 023d 0200     		.2byte	0x2
 7259 023f 3A       		.byte	0x3a
 7260 0240 9F       		.byte	0x9f
 7261 0241 88040000 		.4byte	.LVL122
 7262 0245 8A040000 		.4byte	.LVL123
 7263 0249 0200     		.2byte	0x2
 7264 024b 3A       		.byte	0x3a
 7265 024c 9F       		.byte	0x9f
 7266 024d 98040000 		.4byte	.LVL125
 7267 0251 A0040000 		.4byte	.LVL126
 7268 0255 0200     		.2byte	0x2
 7269 0257 33       		.byte	0x33
 7270 0258 9F       		.byte	0x9f
 7271 0259 AA040000 		.4byte	.LVL127
 7272 025d B2040000 		.4byte	.LVL128
 7273 0261 0200     		.2byte	0x2
 7274 0263 32       		.byte	0x32
 7275 0264 9F       		.byte	0x9f
 7276 0265 BC040000 		.4byte	.LVL129
 7277 0269 C2040000 		.4byte	.LVL130
 7278 026d 0200     		.2byte	0x2
 7279 026f 31       		.byte	0x31
ARM GAS  C:\Users\jenny\AppData\Local\Temp\ccFzIZYt.s 			page 129


 7280 0270 9F       		.byte	0x9f
 7281 0271 C2040000 		.4byte	.LVL130
 7282 0275 CC040000 		.4byte	.LVL131
 7283 0279 0200     		.2byte	0x2
 7284 027b 3A       		.byte	0x3a
 7285 027c 9F       		.byte	0x9f
 7286 027d CC040000 		.4byte	.LVL131
 7287 0281 D4040000 		.4byte	.LVL132
 7288 0285 0200     		.2byte	0x2
 7289 0287 30       		.byte	0x30
 7290 0288 9F       		.byte	0x9f
 7291 0289 DE040000 		.4byte	.LVL133
 7292 028d E6040000 		.4byte	.LVL134
 7293 0291 0200     		.2byte	0x2
 7294 0293 34       		.byte	0x34
 7295 0294 9F       		.byte	0x9f
 7296 0295 F0040000 		.4byte	.LVL135
 7297 0299 F8040000 		.4byte	.LVL136
 7298 029d 0200     		.2byte	0x2
 7299 029f 35       		.byte	0x35
 7300 02a0 9F       		.byte	0x9f
 7301 02a1 02050000 		.4byte	.LVL137
 7302 02a5 0A050000 		.4byte	.LVL138
 7303 02a9 0200     		.2byte	0x2
 7304 02ab 36       		.byte	0x36
 7305 02ac 9F       		.byte	0x9f
 7306 02ad 1E050000 		.4byte	.LVL143
 7307 02b1 2A050000 		.4byte	.LVL144
 7308 02b5 0100     		.2byte	0x1
 7309 02b7 59       		.byte	0x59
 7310 02b8 36050000 		.4byte	.LVL146
 7311 02bc 3E050000 		.4byte	.LVL147
 7312 02c0 0200     		.2byte	0x2
 7313 02c2 37       		.byte	0x37
 7314 02c3 9F       		.byte	0x9f
 7315 02c4 48050000 		.4byte	.LVL148
 7316 02c8 50050000 		.4byte	.LVL149
 7317 02cc 0200     		.2byte	0x2
 7318 02ce 38       		.byte	0x38
 7319 02cf 9F       		.byte	0x9f
 7320 02d0 58050000 		.4byte	.LVL151
 7321 02d4 5C050000 		.4byte	.LVL153
 7322 02d8 0100     		.2byte	0x1
 7323 02da 59       		.byte	0x59
 7324 02db 00000000 		.4byte	0
 7325 02df 00000000 		.4byte	0
 7326              	.LLST6:
 7327 02e3 00000000 		.4byte	.LVL4
 7328 02e7 4E000000 		.4byte	.LVL12
 7329 02eb 0200     		.2byte	0x2
 7330 02ed 3A       		.byte	0x3a
 7331 02ee 9F       		.byte	0x9f
 7332 02ef 4E000000 		.4byte	.LVL12
 7333 02f3 56000000 		.4byte	.LVL13
 7334 02f7 0200     		.2byte	0x2
 7335 02f9 30       		.byte	0x30
 7336 02fa 9F       		.byte	0x9f
ARM GAS  C:\Users\jenny\AppData\Local\Temp\ccFzIZYt.s 			page 130


 7337 02fb 56000000 		.4byte	.LVL13
 7338 02ff 68000000 		.4byte	.LVL16
 7339 0303 0100     		.2byte	0x1
 7340 0305 51       		.byte	0x51
 7341 0306 6C000000 		.4byte	.LVL17
 7342 030a 70000000 		.4byte	.LVL18
 7343 030e 0100     		.2byte	0x1
 7344 0310 51       		.byte	0x51
 7345 0311 74000000 		.4byte	.LVL19
 7346 0315 78000000 		.4byte	.LVL20
 7347 0319 0100     		.2byte	0x1
 7348 031b 51       		.byte	0x51
 7349 031c 7C000000 		.4byte	.LVL21
 7350 0320 80000000 		.4byte	.LVL22
 7351 0324 0100     		.2byte	0x1
 7352 0326 51       		.byte	0x51
 7353 0327 84000000 		.4byte	.LVL23
 7354 032b 88000000 		.4byte	.LVL24
 7355 032f 0100     		.2byte	0x1
 7356 0331 51       		.byte	0x51
 7357 0332 8E000000 		.4byte	.LVL25
 7358 0336 92000000 		.4byte	.LVL26
 7359 033a 0100     		.2byte	0x1
 7360 033c 51       		.byte	0x51
 7361 033d 98000000 		.4byte	.LVL27
 7362 0341 9C000000 		.4byte	.LVL28
 7363 0345 0100     		.2byte	0x1
 7364 0347 51       		.byte	0x51
 7365 0348 A2000000 		.4byte	.LVL29
 7366 034c B6000000 		.4byte	.LVL31
 7367 0350 0100     		.2byte	0x1
 7368 0352 51       		.byte	0x51
 7369 0353 DE000000 		.4byte	.LVL34
 7370 0357 EE000000 		.4byte	.LVL36
 7371 035b 0100     		.2byte	0x1
 7372 035d 51       		.byte	0x51
 7373 035e 0C010000 		.4byte	.LVL37
 7374 0362 1C010000 		.4byte	.LVL39
 7375 0366 0100     		.2byte	0x1
 7376 0368 51       		.byte	0x51
 7377 0369 3A010000 		.4byte	.LVL40
 7378 036d 4A010000 		.4byte	.LVL42
 7379 0371 0100     		.2byte	0x1
 7380 0373 51       		.byte	0x51
 7381 0374 68010000 		.4byte	.LVL43
 7382 0378 78010000 		.4byte	.LVL45
 7383 037c 0100     		.2byte	0x1
 7384 037e 51       		.byte	0x51
 7385 037f 96010000 		.4byte	.LVL46
 7386 0383 A8010000 		.4byte	.LVL48
 7387 0387 0100     		.2byte	0x1
 7388 0389 51       		.byte	0x51
 7389 038a C4010000 		.4byte	.LVL49
 7390 038e C8010000 		.4byte	.LVL50
 7391 0392 0200     		.2byte	0x2
 7392 0394 36       		.byte	0x36
 7393 0395 9F       		.byte	0x9f
ARM GAS  C:\Users\jenny\AppData\Local\Temp\ccFzIZYt.s 			page 131


 7394 0396 C8010000 		.4byte	.LVL50
 7395 039a DA010000 		.4byte	.LVL52
 7396 039e 0100     		.2byte	0x1
 7397 03a0 51       		.byte	0x51
 7398 03a1 F8010000 		.4byte	.LVL53
 7399 03a5 FC010000 		.4byte	.LVL54
 7400 03a9 0200     		.2byte	0x2
 7401 03ab 37       		.byte	0x37
 7402 03ac 9F       		.byte	0x9f
 7403 03ad FC010000 		.4byte	.LVL54
 7404 03b1 0E020000 		.4byte	.LVL56
 7405 03b5 0100     		.2byte	0x1
 7406 03b7 51       		.byte	0x51
 7407 03b8 30020000 		.4byte	.LVL57
 7408 03bc 36020000 		.4byte	.LVL58
 7409 03c0 0200     		.2byte	0x2
 7410 03c2 38       		.byte	0x38
 7411 03c3 9F       		.byte	0x9f
 7412 03c4 36020000 		.4byte	.LVL58
 7413 03c8 6E020000 		.4byte	.LVL60
 7414 03cc 0100     		.2byte	0x1
 7415 03ce 51       		.byte	0x51
 7416 03cf B0020000 		.4byte	.LVL66
 7417 03d3 CA020000 		.4byte	.LVL68
 7418 03d7 0100     		.2byte	0x1
 7419 03d9 51       		.byte	0x51
 7420 03da D8020000 		.4byte	.LVL71
 7421 03de DA020000 		.4byte	.LVL72
 7422 03e2 0100     		.2byte	0x1
 7423 03e4 51       		.byte	0x51
 7424 03e5 FC020000 		.4byte	.LVL73
 7425 03e9 02030000 		.4byte	.LVL74
 7426 03ed 0200     		.2byte	0x2
 7427 03ef 31       		.byte	0x31
 7428 03f0 9F       		.byte	0x9f
 7429 03f1 02030000 		.4byte	.LVL74
 7430 03f5 3A030000 		.4byte	.LVL92
 7431 03f9 0100     		.2byte	0x1
 7432 03fb 51       		.byte	0x51
 7433 03fc 3A030000 		.4byte	.LVL92
 7434 0400 40030000 		.4byte	.LVL93
 7435 0404 0200     		.2byte	0x2
 7436 0406 32       		.byte	0x32
 7437 0407 9F       		.byte	0x9f
 7438 0408 40030000 		.4byte	.LVL93
 7439 040c 46030000 		.4byte	.LVL94
 7440 0410 0200     		.2byte	0x2
 7441 0412 33       		.byte	0x33
 7442 0413 9F       		.byte	0x9f
 7443 0414 46030000 		.4byte	.LVL94
 7444 0418 4C030000 		.4byte	.LVL95
 7445 041c 0200     		.2byte	0x2
 7446 041e 34       		.byte	0x34
 7447 041f 9F       		.byte	0x9f
 7448 0420 4C030000 		.4byte	.LVL95
 7449 0424 55030000 		.4byte	.LVL97-1
 7450 0428 0100     		.2byte	0x1
ARM GAS  C:\Users\jenny\AppData\Local\Temp\ccFzIZYt.s 			page 132


 7451 042a 51       		.byte	0x51
 7452 042b 58030000 		.4byte	.LVL98
 7453 042f 5E030000 		.4byte	.LVL99
 7454 0433 0200     		.2byte	0x2
 7455 0435 35       		.byte	0x35
 7456 0436 9F       		.byte	0x9f
 7457 0437 5E030000 		.4byte	.LVL99
 7458 043b 8A030000 		.4byte	.LVL103
 7459 043f 0200     		.2byte	0x2
 7460 0441 3A       		.byte	0x3a
 7461 0442 9F       		.byte	0x9f
 7462 0443 58040000 		.4byte	.LVL117
 7463 0447 72040000 		.4byte	.LVL120
 7464 044b 0100     		.2byte	0x1
 7465 044d 51       		.byte	0x51
 7466 044e 72040000 		.4byte	.LVL120
 7467 0452 84040000 		.4byte	.LVL121
 7468 0456 0200     		.2byte	0x2
 7469 0458 3A       		.byte	0x3a
 7470 0459 9F       		.byte	0x9f
 7471 045a 88040000 		.4byte	.LVL122
 7472 045e 8A040000 		.4byte	.LVL123
 7473 0462 0200     		.2byte	0x2
 7474 0464 3A       		.byte	0x3a
 7475 0465 9F       		.byte	0x9f
 7476 0466 C2040000 		.4byte	.LVL130
 7477 046a D4040000 		.4byte	.LVL132
 7478 046e 0200     		.2byte	0x2
 7479 0470 3A       		.byte	0x3a
 7480 0471 9F       		.byte	0x9f
 7481 0472 1E050000 		.4byte	.LVL143
 7482 0476 2C050000 		.4byte	.LVL145
 7483 047a 0100     		.2byte	0x1
 7484 047c 51       		.byte	0x51
 7485 047d 58050000 		.4byte	.LVL151
 7486 0481 5C050000 		.4byte	.LVL153
 7487 0485 0100     		.2byte	0x1
 7488 0487 51       		.byte	0x51
 7489 0488 00000000 		.4byte	0
 7490 048c 00000000 		.4byte	0
 7491              	.LLST7:
 7492 0490 00000000 		.4byte	.LVL4
 7493 0494 10000000 		.4byte	.LVL6
 7494 0498 0200     		.2byte	0x2
 7495 049a 3A       		.byte	0x3a
 7496 049b 9F       		.byte	0x9f
 7497 049c 10000000 		.4byte	.LVL6
 7498 04a0 30000000 		.4byte	.LVL9
 7499 04a4 0200     		.2byte	0x2
 7500 04a6 30       		.byte	0x30
 7501 04a7 9F       		.byte	0x9f
 7502 04a8 30000000 		.4byte	.LVL9
 7503 04ac 64000000 		.4byte	.LVL15
 7504 04b0 0200     		.2byte	0x2
 7505 04b2 3A       		.byte	0x3a
 7506 04b3 9F       		.byte	0x9f
 7507 04b4 64000000 		.4byte	.LVL15
ARM GAS  C:\Users\jenny\AppData\Local\Temp\ccFzIZYt.s 			page 133


 7508 04b8 68000000 		.4byte	.LVL16
 7509 04bc 0100     		.2byte	0x1
 7510 04be 53       		.byte	0x53
 7511 04bf 6C000000 		.4byte	.LVL17
 7512 04c3 70000000 		.4byte	.LVL18
 7513 04c7 0100     		.2byte	0x1
 7514 04c9 53       		.byte	0x53
 7515 04ca 74000000 		.4byte	.LVL19
 7516 04ce 78000000 		.4byte	.LVL20
 7517 04d2 0100     		.2byte	0x1
 7518 04d4 53       		.byte	0x53
 7519 04d5 7C000000 		.4byte	.LVL21
 7520 04d9 80000000 		.4byte	.LVL22
 7521 04dd 0100     		.2byte	0x1
 7522 04df 53       		.byte	0x53
 7523 04e0 84000000 		.4byte	.LVL23
 7524 04e4 88000000 		.4byte	.LVL24
 7525 04e8 0100     		.2byte	0x1
 7526 04ea 53       		.byte	0x53
 7527 04eb 8E000000 		.4byte	.LVL25
 7528 04ef 92000000 		.4byte	.LVL26
 7529 04f3 0100     		.2byte	0x1
 7530 04f5 53       		.byte	0x53
 7531 04f6 98000000 		.4byte	.LVL27
 7532 04fa 9C000000 		.4byte	.LVL28
 7533 04fe 0100     		.2byte	0x1
 7534 0500 53       		.byte	0x53
 7535 0501 A2000000 		.4byte	.LVL29
 7536 0505 C6000000 		.4byte	.LVL32
 7537 0509 0100     		.2byte	0x1
 7538 050b 53       		.byte	0x53
 7539 050c DE000000 		.4byte	.LVL34
 7540 0510 EE000000 		.4byte	.LVL36
 7541 0514 0100     		.2byte	0x1
 7542 0516 53       		.byte	0x53
 7543 0517 0C010000 		.4byte	.LVL37
 7544 051b 1C010000 		.4byte	.LVL39
 7545 051f 0100     		.2byte	0x1
 7546 0521 53       		.byte	0x53
 7547 0522 3A010000 		.4byte	.LVL40
 7548 0526 4A010000 		.4byte	.LVL42
 7549 052a 0100     		.2byte	0x1
 7550 052c 53       		.byte	0x53
 7551 052d 68010000 		.4byte	.LVL43
 7552 0531 78010000 		.4byte	.LVL45
 7553 0535 0100     		.2byte	0x1
 7554 0537 53       		.byte	0x53
 7555 0538 96010000 		.4byte	.LVL46
 7556 053c A8010000 		.4byte	.LVL48
 7557 0540 0100     		.2byte	0x1
 7558 0542 53       		.byte	0x53
 7559 0543 C8010000 		.4byte	.LVL50
 7560 0547 DA010000 		.4byte	.LVL52
 7561 054b 0100     		.2byte	0x1
 7562 054d 53       		.byte	0x53
 7563 054e FC010000 		.4byte	.LVL54
 7564 0552 0E020000 		.4byte	.LVL56
ARM GAS  C:\Users\jenny\AppData\Local\Temp\ccFzIZYt.s 			page 134


 7565 0556 0100     		.2byte	0x1
 7566 0558 53       		.byte	0x53
 7567 0559 36020000 		.4byte	.LVL58
 7568 055d 6E020000 		.4byte	.LVL60
 7569 0561 0100     		.2byte	0x1
 7570 0563 53       		.byte	0x53
 7571 0564 B0020000 		.4byte	.LVL66
 7572 0568 CF020000 		.4byte	.LVL69-1
 7573 056c 0100     		.2byte	0x1
 7574 056e 53       		.byte	0x53
 7575 056f D8020000 		.4byte	.LVL71
 7576 0573 DA020000 		.4byte	.LVL72
 7577 0577 0200     		.2byte	0x2
 7578 0579 3A       		.byte	0x3a
 7579 057a 9F       		.byte	0x9f
 7580 057b 02030000 		.4byte	.LVL74
 7581 057f 1C030000 		.4byte	.LVL77
 7582 0583 0100     		.2byte	0x1
 7583 0585 53       		.byte	0x53
 7584 0586 1E030000 		.4byte	.LVL78
 7585 058a 20030000 		.4byte	.LVL79
 7586 058e 0100     		.2byte	0x1
 7587 0590 53       		.byte	0x53
 7588 0591 22030000 		.4byte	.LVL80
 7589 0595 24030000 		.4byte	.LVL81
 7590 0599 0100     		.2byte	0x1
 7591 059b 53       		.byte	0x53
 7592 059c 26030000 		.4byte	.LVL82
 7593 05a0 28030000 		.4byte	.LVL83
 7594 05a4 0100     		.2byte	0x1
 7595 05a6 53       		.byte	0x53
 7596 05a7 2A030000 		.4byte	.LVL84
 7597 05ab 2C030000 		.4byte	.LVL85
 7598 05af 0100     		.2byte	0x1
 7599 05b1 53       		.byte	0x53
 7600 05b2 2E030000 		.4byte	.LVL86
 7601 05b6 30030000 		.4byte	.LVL87
 7602 05ba 0100     		.2byte	0x1
 7603 05bc 53       		.byte	0x53
 7604 05bd 32030000 		.4byte	.LVL88
 7605 05c1 34030000 		.4byte	.LVL89
 7606 05c5 0100     		.2byte	0x1
 7607 05c7 53       		.byte	0x53
 7608 05c8 36030000 		.4byte	.LVL90
 7609 05cc 38030000 		.4byte	.LVL91
 7610 05d0 0100     		.2byte	0x1
 7611 05d2 53       		.byte	0x53
 7612 05d3 4C030000 		.4byte	.LVL95
 7613 05d7 55030000 		.4byte	.LVL97-1
 7614 05db 0100     		.2byte	0x1
 7615 05dd 53       		.byte	0x53
 7616 05de 5E030000 		.4byte	.LVL99
 7617 05e2 6E030000 		.4byte	.LVL101
 7618 05e6 0200     		.2byte	0x2
 7619 05e8 30       		.byte	0x30
 7620 05e9 9F       		.byte	0x9f
 7621 05ea 6E030000 		.4byte	.LVL101
ARM GAS  C:\Users\jenny\AppData\Local\Temp\ccFzIZYt.s 			page 135


 7622 05ee 8A030000 		.4byte	.LVL103
 7623 05f2 0200     		.2byte	0x2
 7624 05f4 3A       		.byte	0x3a
 7625 05f5 9F       		.byte	0x9f
 7626 05f6 58040000 		.4byte	.LVL117
 7627 05fa 72040000 		.4byte	.LVL120
 7628 05fe 0100     		.2byte	0x1
 7629 0600 53       		.byte	0x53
 7630 0601 72040000 		.4byte	.LVL120
 7631 0605 84040000 		.4byte	.LVL121
 7632 0609 0200     		.2byte	0x2
 7633 060b 3A       		.byte	0x3a
 7634 060c 9F       		.byte	0x9f
 7635 060d 88040000 		.4byte	.LVL122
 7636 0611 8A040000 		.4byte	.LVL123
 7637 0615 0200     		.2byte	0x2
 7638 0617 3A       		.byte	0x3a
 7639 0618 9F       		.byte	0x9f
 7640 0619 C2040000 		.4byte	.LVL130
 7641 061d D4040000 		.4byte	.LVL132
 7642 0621 0200     		.2byte	0x2
 7643 0623 3A       		.byte	0x3a
 7644 0624 9F       		.byte	0x9f
 7645 0625 1E050000 		.4byte	.LVL143
 7646 0629 2C050000 		.4byte	.LVL145
 7647 062d 0100     		.2byte	0x1
 7648 062f 53       		.byte	0x53
 7649 0630 58050000 		.4byte	.LVL151
 7650 0634 5A050000 		.4byte	.LVL152
 7651 0638 0100     		.2byte	0x1
 7652 063a 53       		.byte	0x53
 7653 063b 00000000 		.4byte	0
 7654 063f 00000000 		.4byte	0
 7655              	.LLST8:
 7656 0643 00000000 		.4byte	.LVL4
 7657 0647 10000000 		.4byte	.LVL6
 7658 064b 0200     		.2byte	0x2
 7659 064d 30       		.byte	0x30
 7660 064e 9F       		.byte	0x9f
 7661 064f 10000000 		.4byte	.LVL6
 7662 0653 30000000 		.4byte	.LVL9
 7663 0657 0200     		.2byte	0x2
 7664 0659 31       		.byte	0x31
 7665 065a 9F       		.byte	0x9f
 7666 065b 30000000 		.4byte	.LVL9
 7667 065f 56000000 		.4byte	.LVL13
 7668 0663 0200     		.2byte	0x2
 7669 0665 30       		.byte	0x30
 7670 0666 9F       		.byte	0x9f
 7671 0667 56000000 		.4byte	.LVL13
 7672 066b 64000000 		.4byte	.LVL15
 7673 066f 0200     		.2byte	0x2
 7674 0671 31       		.byte	0x31
 7675 0672 9F       		.byte	0x9f
 7676 0673 64000000 		.4byte	.LVL15
 7677 0677 6C000000 		.4byte	.LVL17
 7678 067b 0200     		.2byte	0x2
ARM GAS  C:\Users\jenny\AppData\Local\Temp\ccFzIZYt.s 			page 136


 7679 067d 32       		.byte	0x32
 7680 067e 9F       		.byte	0x9f
 7681 067f 6C000000 		.4byte	.LVL17
 7682 0683 74000000 		.4byte	.LVL19
 7683 0687 0200     		.2byte	0x2
 7684 0689 33       		.byte	0x33
 7685 068a 9F       		.byte	0x9f
 7686 068b 74000000 		.4byte	.LVL19
 7687 068f 7C000000 		.4byte	.LVL21
 7688 0693 0200     		.2byte	0x2
 7689 0695 34       		.byte	0x34
 7690 0696 9F       		.byte	0x9f
 7691 0697 7C000000 		.4byte	.LVL21
 7692 069b 84000000 		.4byte	.LVL23
 7693 069f 0200     		.2byte	0x2
 7694 06a1 35       		.byte	0x35
 7695 06a2 9F       		.byte	0x9f
 7696 06a3 84000000 		.4byte	.LVL23
 7697 06a7 8E000000 		.4byte	.LVL25
 7698 06ab 0200     		.2byte	0x2
 7699 06ad 36       		.byte	0x36
 7700 06ae 9F       		.byte	0x9f
 7701 06af 8E000000 		.4byte	.LVL25
 7702 06b3 98000000 		.4byte	.LVL27
 7703 06b7 0200     		.2byte	0x2
 7704 06b9 37       		.byte	0x37
 7705 06ba 9F       		.byte	0x9f
 7706 06bb 98000000 		.4byte	.LVL27
 7707 06bf A2000000 		.4byte	.LVL29
 7708 06c3 0200     		.2byte	0x2
 7709 06c5 38       		.byte	0x38
 7710 06c6 9F       		.byte	0x9f
 7711 06c7 A2000000 		.4byte	.LVL29
 7712 06cb B6000000 		.4byte	.LVL31
 7713 06cf 0200     		.2byte	0x2
 7714 06d1 39       		.byte	0x39
 7715 06d2 9F       		.byte	0x9f
 7716 06d3 B6000000 		.4byte	.LVL31
 7717 06d7 C6000000 		.4byte	.LVL32
 7718 06db 0200     		.2byte	0x2
 7719 06dd 3A       		.byte	0x3a
 7720 06de 9F       		.byte	0x9f
 7721 06df C6000000 		.4byte	.LVL32
 7722 06e3 DE000000 		.4byte	.LVL34
 7723 06e7 0200     		.2byte	0x2
 7724 06e9 31       		.byte	0x31
 7725 06ea 9F       		.byte	0x9f
 7726 06eb DE000000 		.4byte	.LVL34
 7727 06ef 0C010000 		.4byte	.LVL37
 7728 06f3 0200     		.2byte	0x2
 7729 06f5 32       		.byte	0x32
 7730 06f6 9F       		.byte	0x9f
 7731 06f7 0C010000 		.4byte	.LVL37
 7732 06fb 3A010000 		.4byte	.LVL40
 7733 06ff 0200     		.2byte	0x2
 7734 0701 33       		.byte	0x33
 7735 0702 9F       		.byte	0x9f
ARM GAS  C:\Users\jenny\AppData\Local\Temp\ccFzIZYt.s 			page 137


 7736 0703 3A010000 		.4byte	.LVL40
 7737 0707 68010000 		.4byte	.LVL43
 7738 070b 0200     		.2byte	0x2
 7739 070d 34       		.byte	0x34
 7740 070e 9F       		.byte	0x9f
 7741 070f 68010000 		.4byte	.LVL43
 7742 0713 96010000 		.4byte	.LVL46
 7743 0717 0200     		.2byte	0x2
 7744 0719 35       		.byte	0x35
 7745 071a 9F       		.byte	0x9f
 7746 071b 96010000 		.4byte	.LVL46
 7747 071f C8010000 		.4byte	.LVL50
 7748 0723 0200     		.2byte	0x2
 7749 0725 36       		.byte	0x36
 7750 0726 9F       		.byte	0x9f
 7751 0727 C8010000 		.4byte	.LVL50
 7752 072b FC010000 		.4byte	.LVL54
 7753 072f 0200     		.2byte	0x2
 7754 0731 37       		.byte	0x37
 7755 0732 9F       		.byte	0x9f
 7756 0733 FC010000 		.4byte	.LVL54
 7757 0737 36020000 		.4byte	.LVL58
 7758 073b 0200     		.2byte	0x2
 7759 073d 38       		.byte	0x38
 7760 073e 9F       		.byte	0x9f
 7761 073f 36020000 		.4byte	.LVL58
 7762 0743 5E020000 		.4byte	.LVL59
 7763 0747 0200     		.2byte	0x2
 7764 0749 39       		.byte	0x39
 7765 074a 9F       		.byte	0x9f
 7766 074b 5E020000 		.4byte	.LVL59
 7767 074f 72020000 		.4byte	.LVL61
 7768 0753 0200     		.2byte	0x2
 7769 0755 3A       		.byte	0x3a
 7770 0756 9F       		.byte	0x9f
 7771 0757 72020000 		.4byte	.LVL61
 7772 075b 74020000 		.4byte	.LVL62
 7773 075f 0100     		.2byte	0x1
 7774 0761 53       		.byte	0x53
 7775 0762 B0020000 		.4byte	.LVL66
 7776 0766 C6020000 		.4byte	.LVL67
 7777 076a 0200     		.2byte	0x2
 7778 076c 3A       		.byte	0x3a
 7779 076d 9F       		.byte	0x9f
 7780 076e C6020000 		.4byte	.LVL67
 7781 0772 CA020000 		.4byte	.LVL68
 7782 0776 0100     		.2byte	0x1
 7783 0778 51       		.byte	0x51
 7784 0779 CA020000 		.4byte	.LVL68
 7785 077d D8020000 		.4byte	.LVL71
 7786 0781 0100     		.2byte	0x1
 7787 0783 58       		.byte	0x58
 7788 0784 D8020000 		.4byte	.LVL71
 7789 0788 02030000 		.4byte	.LVL74
 7790 078c 0200     		.2byte	0x2
 7791 078e 31       		.byte	0x31
 7792 078f 9F       		.byte	0x9f
ARM GAS  C:\Users\jenny\AppData\Local\Temp\ccFzIZYt.s 			page 138


 7793 0790 02030000 		.4byte	.LVL74
 7794 0794 18030000 		.4byte	.LVL75
 7795 0798 0200     		.2byte	0x2
 7796 079a 3A       		.byte	0x3a
 7797 079b 9F       		.byte	0x9f
 7798 079c 18030000 		.4byte	.LVL75
 7799 07a0 1A030000 		.4byte	.LVL76
 7800 07a4 0100     		.2byte	0x1
 7801 07a6 58       		.byte	0x58
 7802 07a7 1A030000 		.4byte	.LVL76
 7803 07ab 1E030000 		.4byte	.LVL78
 7804 07af 0200     		.2byte	0x2
 7805 07b1 32       		.byte	0x32
 7806 07b2 9F       		.byte	0x9f
 7807 07b3 1E030000 		.4byte	.LVL78
 7808 07b7 22030000 		.4byte	.LVL80
 7809 07bb 0200     		.2byte	0x2
 7810 07bd 33       		.byte	0x33
 7811 07be 9F       		.byte	0x9f
 7812 07bf 22030000 		.4byte	.LVL80
 7813 07c3 26030000 		.4byte	.LVL82
 7814 07c7 0200     		.2byte	0x2
 7815 07c9 34       		.byte	0x34
 7816 07ca 9F       		.byte	0x9f
 7817 07cb 26030000 		.4byte	.LVL82
 7818 07cf 2A030000 		.4byte	.LVL84
 7819 07d3 0200     		.2byte	0x2
 7820 07d5 35       		.byte	0x35
 7821 07d6 9F       		.byte	0x9f
 7822 07d7 2A030000 		.4byte	.LVL84
 7823 07db 2E030000 		.4byte	.LVL86
 7824 07df 0200     		.2byte	0x2
 7825 07e1 36       		.byte	0x36
 7826 07e2 9F       		.byte	0x9f
 7827 07e3 2E030000 		.4byte	.LVL86
 7828 07e7 32030000 		.4byte	.LVL88
 7829 07eb 0200     		.2byte	0x2
 7830 07ed 37       		.byte	0x37
 7831 07ee 9F       		.byte	0x9f
 7832 07ef 32030000 		.4byte	.LVL88
 7833 07f3 36030000 		.4byte	.LVL90
 7834 07f7 0200     		.2byte	0x2
 7835 07f9 38       		.byte	0x38
 7836 07fa 9F       		.byte	0x9f
 7837 07fb 36030000 		.4byte	.LVL90
 7838 07ff 3A030000 		.4byte	.LVL92
 7839 0803 0200     		.2byte	0x2
 7840 0805 39       		.byte	0x39
 7841 0806 9F       		.byte	0x9f
 7842 0807 3A030000 		.4byte	.LVL92
 7843 080b 40030000 		.4byte	.LVL93
 7844 080f 0200     		.2byte	0x2
 7845 0811 32       		.byte	0x32
 7846 0812 9F       		.byte	0x9f
 7847 0813 40030000 		.4byte	.LVL93
 7848 0817 46030000 		.4byte	.LVL94
 7849 081b 0200     		.2byte	0x2
ARM GAS  C:\Users\jenny\AppData\Local\Temp\ccFzIZYt.s 			page 139


 7850 081d 33       		.byte	0x33
 7851 081e 9F       		.byte	0x9f
 7852 081f 46030000 		.4byte	.LVL94
 7853 0823 4C030000 		.4byte	.LVL95
 7854 0827 0200     		.2byte	0x2
 7855 0829 34       		.byte	0x34
 7856 082a 9F       		.byte	0x9f
 7857 082b 4C030000 		.4byte	.LVL95
 7858 082f 52030000 		.4byte	.LVL96
 7859 0833 0200     		.2byte	0x2
 7860 0835 3A       		.byte	0x3a
 7861 0836 9F       		.byte	0x9f
 7862 0837 52030000 		.4byte	.LVL96
 7863 083b 58030000 		.4byte	.LVL98
 7864 083f 0100     		.2byte	0x1
 7865 0841 59       		.byte	0x59
 7866 0842 58030000 		.4byte	.LVL98
 7867 0846 5E030000 		.4byte	.LVL99
 7868 084a 0200     		.2byte	0x2
 7869 084c 35       		.byte	0x35
 7870 084d 9F       		.byte	0x9f
 7871 084e 5E030000 		.4byte	.LVL99
 7872 0852 6E030000 		.4byte	.LVL101
 7873 0856 0200     		.2byte	0x2
 7874 0858 31       		.byte	0x31
 7875 0859 9F       		.byte	0x9f
 7876 085a 6E030000 		.4byte	.LVL101
 7877 085e 8A030000 		.4byte	.LVL103
 7878 0862 0200     		.2byte	0x2
 7879 0864 30       		.byte	0x30
 7880 0865 9F       		.byte	0x9f
 7881 0866 8A030000 		.4byte	.LVL103
 7882 086a A8030000 		.4byte	.LVL105
 7883 086e 0200     		.2byte	0x2
 7884 0870 32       		.byte	0x32
 7885 0871 9F       		.byte	0x9f
 7886 0872 A8030000 		.4byte	.LVL105
 7887 0876 C4030000 		.4byte	.LVL107
 7888 087a 0200     		.2byte	0x2
 7889 087c 33       		.byte	0x33
 7890 087d 9F       		.byte	0x9f
 7891 087e C4030000 		.4byte	.LVL107
 7892 0882 E2030000 		.4byte	.LVL109
 7893 0886 0200     		.2byte	0x2
 7894 0888 34       		.byte	0x34
 7895 0889 9F       		.byte	0x9f
 7896 088a E2030000 		.4byte	.LVL109
 7897 088e FE030000 		.4byte	.LVL111
 7898 0892 0200     		.2byte	0x2
 7899 0894 35       		.byte	0x35
 7900 0895 9F       		.byte	0x9f
 7901 0896 FE030000 		.4byte	.LVL111
 7902 089a 1A040000 		.4byte	.LVL113
 7903 089e 0200     		.2byte	0x2
 7904 08a0 36       		.byte	0x36
 7905 08a1 9F       		.byte	0x9f
 7906 08a2 1A040000 		.4byte	.LVL113
ARM GAS  C:\Users\jenny\AppData\Local\Temp\ccFzIZYt.s 			page 140


 7907 08a6 3A040000 		.4byte	.LVL115
 7908 08aa 0200     		.2byte	0x2
 7909 08ac 37       		.byte	0x37
 7910 08ad 9F       		.byte	0x9f
 7911 08ae 3A040000 		.4byte	.LVL115
 7912 08b2 58040000 		.4byte	.LVL117
 7913 08b6 0200     		.2byte	0x2
 7914 08b8 38       		.byte	0x38
 7915 08b9 9F       		.byte	0x9f
 7916 08ba 58040000 		.4byte	.LVL117
 7917 08be 72040000 		.4byte	.LVL120
 7918 08c2 0200     		.2byte	0x2
 7919 08c4 39       		.byte	0x39
 7920 08c5 9F       		.byte	0x9f
 7921 08c6 72040000 		.4byte	.LVL120
 7922 08ca 84040000 		.4byte	.LVL121
 7923 08ce 0200     		.2byte	0x2
 7924 08d0 30       		.byte	0x30
 7925 08d1 9F       		.byte	0x9f
 7926 08d2 84040000 		.4byte	.LVL121
 7927 08d6 88040000 		.4byte	.LVL122
 7928 08da 0200     		.2byte	0x2
 7929 08dc 3A       		.byte	0x3a
 7930 08dd 9F       		.byte	0x9f
 7931 08de 88040000 		.4byte	.LVL122
 7932 08e2 8A040000 		.4byte	.LVL123
 7933 08e6 0200     		.2byte	0x2
 7934 08e8 30       		.byte	0x30
 7935 08e9 9F       		.byte	0x9f
 7936 08ea 8E040000 		.4byte	.LVL124
 7937 08ee A0040000 		.4byte	.LVL126
 7938 08f2 0200     		.2byte	0x2
 7939 08f4 33       		.byte	0x33
 7940 08f5 9F       		.byte	0x9f
 7941 08f6 A0040000 		.4byte	.LVL126
 7942 08fa B2040000 		.4byte	.LVL128
 7943 08fe 0200     		.2byte	0x2
 7944 0900 32       		.byte	0x32
 7945 0901 9F       		.byte	0x9f
 7946 0902 B2040000 		.4byte	.LVL128
 7947 0906 C2040000 		.4byte	.LVL130
 7948 090a 0200     		.2byte	0x2
 7949 090c 31       		.byte	0x31
 7950 090d 9F       		.byte	0x9f
 7951 090e C2040000 		.4byte	.LVL130
 7952 0912 D4040000 		.4byte	.LVL132
 7953 0916 0200     		.2byte	0x2
 7954 0918 30       		.byte	0x30
 7955 0919 9F       		.byte	0x9f
 7956 091a D4040000 		.4byte	.LVL132
 7957 091e E6040000 		.4byte	.LVL134
 7958 0922 0200     		.2byte	0x2
 7959 0924 34       		.byte	0x34
 7960 0925 9F       		.byte	0x9f
 7961 0926 E6040000 		.4byte	.LVL134
 7962 092a F8040000 		.4byte	.LVL136
 7963 092e 0200     		.2byte	0x2
ARM GAS  C:\Users\jenny\AppData\Local\Temp\ccFzIZYt.s 			page 141


 7964 0930 35       		.byte	0x35
 7965 0931 9F       		.byte	0x9f
 7966 0932 F8040000 		.4byte	.LVL136
 7967 0936 0A050000 		.4byte	.LVL138
 7968 093a 0200     		.2byte	0x2
 7969 093c 36       		.byte	0x36
 7970 093d 9F       		.byte	0x9f
 7971 093e 0A050000 		.4byte	.LVL138
 7972 0942 0E050000 		.4byte	.LVL139
 7973 0946 0200     		.2byte	0x2
 7974 0948 32       		.byte	0x32
 7975 0949 9F       		.byte	0x9f
 7976 094a 0E050000 		.4byte	.LVL139
 7977 094e 12050000 		.4byte	.LVL140
 7978 0952 0200     		.2byte	0x2
 7979 0954 33       		.byte	0x33
 7980 0955 9F       		.byte	0x9f
 7981 0956 12050000 		.4byte	.LVL140
 7982 095a 16050000 		.4byte	.LVL141
 7983 095e 0200     		.2byte	0x2
 7984 0960 31       		.byte	0x31
 7985 0961 9F       		.byte	0x9f
 7986 0962 16050000 		.4byte	.LVL141
 7987 0966 1A050000 		.4byte	.LVL142
 7988 096a 0200     		.2byte	0x2
 7989 096c 35       		.byte	0x35
 7990 096d 9F       		.byte	0x9f
 7991 096e 1A050000 		.4byte	.LVL142
 7992 0972 1E050000 		.4byte	.LVL143
 7993 0976 0200     		.2byte	0x2
 7994 0978 34       		.byte	0x34
 7995 0979 9F       		.byte	0x9f
 7996 097a 1E050000 		.4byte	.LVL143
 7997 097e 2C050000 		.4byte	.LVL145
 7998 0982 0200     		.2byte	0x2
 7999 0984 39       		.byte	0x39
 8000 0985 9F       		.byte	0x9f
 8001 0986 2C050000 		.4byte	.LVL145
 8002 098a 3E050000 		.4byte	.LVL147
 8003 098e 0200     		.2byte	0x2
 8004 0990 37       		.byte	0x37
 8005 0991 9F       		.byte	0x9f
 8006 0992 3E050000 		.4byte	.LVL147
 8007 0996 50050000 		.4byte	.LVL149
 8008 099a 0200     		.2byte	0x2
 8009 099c 38       		.byte	0x38
 8010 099d 9F       		.byte	0x9f
 8011 099e 50050000 		.4byte	.LVL149
 8012 09a2 54050000 		.4byte	.LVL150
 8013 09a6 0200     		.2byte	0x2
 8014 09a8 37       		.byte	0x37
 8015 09a9 9F       		.byte	0x9f
 8016 09aa 54050000 		.4byte	.LVL150
 8017 09ae 58050000 		.4byte	.LVL151
 8018 09b2 0200     		.2byte	0x2
 8019 09b4 36       		.byte	0x36
 8020 09b5 9F       		.byte	0x9f
ARM GAS  C:\Users\jenny\AppData\Local\Temp\ccFzIZYt.s 			page 142


 8021 09b6 58050000 		.4byte	.LVL151
 8022 09ba 5C050000 		.4byte	.LVL153
 8023 09be 0200     		.2byte	0x2
 8024 09c0 39       		.byte	0x39
 8025 09c1 9F       		.byte	0x9f
 8026 09c2 5C050000 		.4byte	.LVL153
 8027 09c6 64050000 		.4byte	.LFE9
 8028 09ca 0200     		.2byte	0x2
 8029 09cc 38       		.byte	0x38
 8030 09cd 9F       		.byte	0x9f
 8031 09ce 00000000 		.4byte	0
 8032 09d2 00000000 		.4byte	0
 8033              	.LLST9:
 8034 09d6 00000000 		.4byte	.LVL4
 8035 09da 56000000 		.4byte	.LVL13
 8036 09de 0200     		.2byte	0x2
 8037 09e0 30       		.byte	0x30
 8038 09e1 9F       		.byte	0x9f
 8039 09e2 56000000 		.4byte	.LVL13
 8040 09e6 68000000 		.4byte	.LVL16
 8041 09ea 0100     		.2byte	0x1
 8042 09ec 5B       		.byte	0x5b
 8043 09ed 6C000000 		.4byte	.LVL17
 8044 09f1 70000000 		.4byte	.LVL18
 8045 09f5 0100     		.2byte	0x1
 8046 09f7 5B       		.byte	0x5b
 8047 09f8 74000000 		.4byte	.LVL19
 8048 09fc 78000000 		.4byte	.LVL20
 8049 0a00 0100     		.2byte	0x1
 8050 0a02 5B       		.byte	0x5b
 8051 0a03 7C000000 		.4byte	.LVL21
 8052 0a07 80000000 		.4byte	.LVL22
 8053 0a0b 0100     		.2byte	0x1
 8054 0a0d 5B       		.byte	0x5b
 8055 0a0e 84000000 		.4byte	.LVL23
 8056 0a12 88000000 		.4byte	.LVL24
 8057 0a16 0100     		.2byte	0x1
 8058 0a18 5B       		.byte	0x5b
 8059 0a19 8E000000 		.4byte	.LVL25
 8060 0a1d 92000000 		.4byte	.LVL26
 8061 0a21 0100     		.2byte	0x1
 8062 0a23 5B       		.byte	0x5b
 8063 0a24 98000000 		.4byte	.LVL27
 8064 0a28 9C000000 		.4byte	.LVL28
 8065 0a2c 0100     		.2byte	0x1
 8066 0a2e 5B       		.byte	0x5b
 8067 0a2f A2000000 		.4byte	.LVL29
 8068 0a33 B6000000 		.4byte	.LVL31
 8069 0a37 0100     		.2byte	0x1
 8070 0a39 5B       		.byte	0x5b
 8071 0a3a DE000000 		.4byte	.LVL34
 8072 0a3e EE000000 		.4byte	.LVL36
 8073 0a42 0100     		.2byte	0x1
 8074 0a44 5B       		.byte	0x5b
 8075 0a45 0C010000 		.4byte	.LVL37
 8076 0a49 1C010000 		.4byte	.LVL39
 8077 0a4d 0100     		.2byte	0x1
ARM GAS  C:\Users\jenny\AppData\Local\Temp\ccFzIZYt.s 			page 143


 8078 0a4f 5B       		.byte	0x5b
 8079 0a50 3A010000 		.4byte	.LVL40
 8080 0a54 4A010000 		.4byte	.LVL42
 8081 0a58 0100     		.2byte	0x1
 8082 0a5a 5B       		.byte	0x5b
 8083 0a5b 68010000 		.4byte	.LVL43
 8084 0a5f 78010000 		.4byte	.LVL45
 8085 0a63 0100     		.2byte	0x1
 8086 0a65 5B       		.byte	0x5b
 8087 0a66 96010000 		.4byte	.LVL46
 8088 0a6a A8010000 		.4byte	.LVL48
 8089 0a6e 0100     		.2byte	0x1
 8090 0a70 5B       		.byte	0x5b
 8091 0a71 C8010000 		.4byte	.LVL50
 8092 0a75 DA010000 		.4byte	.LVL52
 8093 0a79 0100     		.2byte	0x1
 8094 0a7b 5B       		.byte	0x5b
 8095 0a7c FC010000 		.4byte	.LVL54
 8096 0a80 0E020000 		.4byte	.LVL56
 8097 0a84 0100     		.2byte	0x1
 8098 0a86 5B       		.byte	0x5b
 8099 0a87 36020000 		.4byte	.LVL58
 8100 0a8b 5E020000 		.4byte	.LVL59
 8101 0a8f 0100     		.2byte	0x1
 8102 0a91 5B       		.byte	0x5b
 8103 0a92 D8020000 		.4byte	.LVL71
 8104 0a96 DA020000 		.4byte	.LVL72
 8105 0a9a 0100     		.2byte	0x1
 8106 0a9c 5B       		.byte	0x5b
 8107 0a9d 1A030000 		.4byte	.LVL76
 8108 0aa1 3A030000 		.4byte	.LVL92
 8109 0aa5 0100     		.2byte	0x1
 8110 0aa7 5B       		.byte	0x5b
 8111 0aa8 5E030000 		.4byte	.LVL99
 8112 0aac 8A030000 		.4byte	.LVL103
 8113 0ab0 0200     		.2byte	0x2
 8114 0ab2 30       		.byte	0x30
 8115 0ab3 9F       		.byte	0x9f
 8116 0ab4 58040000 		.4byte	.LVL117
 8117 0ab8 72040000 		.4byte	.LVL120
 8118 0abc 0100     		.2byte	0x1
 8119 0abe 5B       		.byte	0x5b
 8120 0abf 72040000 		.4byte	.LVL120
 8121 0ac3 84040000 		.4byte	.LVL121
 8122 0ac7 0200     		.2byte	0x2
 8123 0ac9 30       		.byte	0x30
 8124 0aca 9F       		.byte	0x9f
 8125 0acb 88040000 		.4byte	.LVL122
 8126 0acf 8A040000 		.4byte	.LVL123
 8127 0ad3 0200     		.2byte	0x2
 8128 0ad5 30       		.byte	0x30
 8129 0ad6 9F       		.byte	0x9f
 8130 0ad7 98040000 		.4byte	.LVL125
 8131 0adb A0040000 		.4byte	.LVL126
 8132 0adf 0500     		.2byte	0x5
 8133 0ae1 03       		.byte	0x3
 8134 0ae2 4F000000 		.4byte	arp_table+79
ARM GAS  C:\Users\jenny\AppData\Local\Temp\ccFzIZYt.s 			page 144


 8135 0ae6 AA040000 		.4byte	.LVL127
 8136 0aea B2040000 		.4byte	.LVL128
 8137 0aee 0500     		.2byte	0x5
 8138 0af0 03       		.byte	0x3
 8139 0af1 3B000000 		.4byte	arp_table+59
 8140 0af5 BC040000 		.4byte	.LVL129
 8141 0af9 C2040000 		.4byte	.LVL130
 8142 0afd 0500     		.2byte	0x5
 8143 0aff 03       		.byte	0x3
 8144 0b00 27000000 		.4byte	arp_table+39
 8145 0b04 C2040000 		.4byte	.LVL130
 8146 0b08 CC040000 		.4byte	.LVL131
 8147 0b0c 0200     		.2byte	0x2
 8148 0b0e 30       		.byte	0x30
 8149 0b0f 9F       		.byte	0x9f
 8150 0b10 CC040000 		.4byte	.LVL131
 8151 0b14 D4040000 		.4byte	.LVL132
 8152 0b18 0500     		.2byte	0x5
 8153 0b1a 03       		.byte	0x3
 8154 0b1b 13000000 		.4byte	arp_table+19
 8155 0b1f DE040000 		.4byte	.LVL133
 8156 0b23 E6040000 		.4byte	.LVL134
 8157 0b27 0500     		.2byte	0x5
 8158 0b29 03       		.byte	0x3
 8159 0b2a 63000000 		.4byte	arp_table+99
 8160 0b2e F0040000 		.4byte	.LVL135
 8161 0b32 F8040000 		.4byte	.LVL136
 8162 0b36 0500     		.2byte	0x5
 8163 0b38 03       		.byte	0x3
 8164 0b39 77000000 		.4byte	arp_table+119
 8165 0b3d 02050000 		.4byte	.LVL137
 8166 0b41 0A050000 		.4byte	.LVL138
 8167 0b45 0500     		.2byte	0x5
 8168 0b47 03       		.byte	0x3
 8169 0b48 8B000000 		.4byte	arp_table+139
 8170 0b4c 1E050000 		.4byte	.LVL143
 8171 0b50 2C050000 		.4byte	.LVL145
 8172 0b54 0100     		.2byte	0x1
 8173 0b56 5B       		.byte	0x5b
 8174 0b57 36050000 		.4byte	.LVL146
 8175 0b5b 3E050000 		.4byte	.LVL147
 8176 0b5f 0500     		.2byte	0x5
 8177 0b61 03       		.byte	0x3
 8178 0b62 9F000000 		.4byte	arp_table+159
 8179 0b66 48050000 		.4byte	.LVL148
 8180 0b6a 50050000 		.4byte	.LVL149
 8181 0b6e 0500     		.2byte	0x5
 8182 0b70 03       		.byte	0x3
 8183 0b71 B3000000 		.4byte	arp_table+179
 8184 0b75 58050000 		.4byte	.LVL151
 8185 0b79 5C050000 		.4byte	.LVL153
 8186 0b7d 0100     		.2byte	0x1
 8187 0b7f 5B       		.byte	0x5b
 8188 0b80 00000000 		.4byte	0
 8189 0b84 00000000 		.4byte	0
 8190              	.LLST10:
 8191 0b88 00000000 		.4byte	.LVL4
ARM GAS  C:\Users\jenny\AppData\Local\Temp\ccFzIZYt.s 			page 145


 8192 0b8c 4E000000 		.4byte	.LVL12
 8193 0b90 0200     		.2byte	0x2
 8194 0b92 30       		.byte	0x30
 8195 0b93 9F       		.byte	0x9f
 8196 0b94 4E000000 		.4byte	.LVL12
 8197 0b98 56000000 		.4byte	.LVL13
 8198 0b9c 0500     		.2byte	0x5
 8199 0b9e 03       		.byte	0x3
 8200 0b9f 13000000 		.4byte	arp_table+19
 8201 0ba3 56000000 		.4byte	.LVL13
 8202 0ba7 68000000 		.4byte	.LVL16
 8203 0bab 0100     		.2byte	0x1
 8204 0bad 52       		.byte	0x52
 8205 0bae 6C000000 		.4byte	.LVL17
 8206 0bb2 70000000 		.4byte	.LVL18
 8207 0bb6 0100     		.2byte	0x1
 8208 0bb8 52       		.byte	0x52
 8209 0bb9 74000000 		.4byte	.LVL19
 8210 0bbd 78000000 		.4byte	.LVL20
 8211 0bc1 0100     		.2byte	0x1
 8212 0bc3 52       		.byte	0x52
 8213 0bc4 7C000000 		.4byte	.LVL21
 8214 0bc8 80000000 		.4byte	.LVL22
 8215 0bcc 0100     		.2byte	0x1
 8216 0bce 52       		.byte	0x52
 8217 0bcf 84000000 		.4byte	.LVL23
 8218 0bd3 88000000 		.4byte	.LVL24
 8219 0bd7 0100     		.2byte	0x1
 8220 0bd9 52       		.byte	0x52
 8221 0bda 8E000000 		.4byte	.LVL25
 8222 0bde 92000000 		.4byte	.LVL26
 8223 0be2 0100     		.2byte	0x1
 8224 0be4 52       		.byte	0x52
 8225 0be5 98000000 		.4byte	.LVL27
 8226 0be9 9C000000 		.4byte	.LVL28
 8227 0bed 0100     		.2byte	0x1
 8228 0bef 52       		.byte	0x52
 8229 0bf0 A2000000 		.4byte	.LVL29
 8230 0bf4 B6000000 		.4byte	.LVL31
 8231 0bf8 0100     		.2byte	0x1
 8232 0bfa 52       		.byte	0x52
 8233 0bfb DE000000 		.4byte	.LVL34
 8234 0bff EE000000 		.4byte	.LVL36
 8235 0c03 0100     		.2byte	0x1
 8236 0c05 52       		.byte	0x52
 8237 0c06 0C010000 		.4byte	.LVL37
 8238 0c0a 1C010000 		.4byte	.LVL39
 8239 0c0e 0100     		.2byte	0x1
 8240 0c10 52       		.byte	0x52
 8241 0c11 3A010000 		.4byte	.LVL40
 8242 0c15 4A010000 		.4byte	.LVL42
 8243 0c19 0100     		.2byte	0x1
 8244 0c1b 52       		.byte	0x52
 8245 0c1c 68010000 		.4byte	.LVL43
 8246 0c20 78010000 		.4byte	.LVL45
 8247 0c24 0100     		.2byte	0x1
 8248 0c26 52       		.byte	0x52
ARM GAS  C:\Users\jenny\AppData\Local\Temp\ccFzIZYt.s 			page 146


 8249 0c27 96010000 		.4byte	.LVL46
 8250 0c2b A8010000 		.4byte	.LVL48
 8251 0c2f 0100     		.2byte	0x1
 8252 0c31 52       		.byte	0x52
 8253 0c32 C4010000 		.4byte	.LVL49
 8254 0c36 C8010000 		.4byte	.LVL50
 8255 0c3a 0500     		.2byte	0x5
 8256 0c3c 03       		.byte	0x3
 8257 0c3d 8B000000 		.4byte	arp_table+139
 8258 0c41 C8010000 		.4byte	.LVL50
 8259 0c45 DA010000 		.4byte	.LVL52
 8260 0c49 0100     		.2byte	0x1
 8261 0c4b 52       		.byte	0x52
 8262 0c4c F8010000 		.4byte	.LVL53
 8263 0c50 FC010000 		.4byte	.LVL54
 8264 0c54 0500     		.2byte	0x5
 8265 0c56 03       		.byte	0x3
 8266 0c57 9F000000 		.4byte	arp_table+159
 8267 0c5b FC010000 		.4byte	.LVL54
 8268 0c5f 0E020000 		.4byte	.LVL56
 8269 0c63 0100     		.2byte	0x1
 8270 0c65 52       		.byte	0x52
 8271 0c66 30020000 		.4byte	.LVL57
 8272 0c6a 36020000 		.4byte	.LVL58
 8273 0c6e 0500     		.2byte	0x5
 8274 0c70 03       		.byte	0x3
 8275 0c71 B3000000 		.4byte	arp_table+179
 8276 0c75 36020000 		.4byte	.LVL58
 8277 0c79 5E020000 		.4byte	.LVL59
 8278 0c7d 0100     		.2byte	0x1
 8279 0c7f 52       		.byte	0x52
 8280 0c80 D8020000 		.4byte	.LVL71
 8281 0c84 DA020000 		.4byte	.LVL72
 8282 0c88 0100     		.2byte	0x1
 8283 0c8a 52       		.byte	0x52
 8284 0c8b FC020000 		.4byte	.LVL73
 8285 0c8f 02030000 		.4byte	.LVL74
 8286 0c93 0500     		.2byte	0x5
 8287 0c95 03       		.byte	0x3
 8288 0c96 27000000 		.4byte	arp_table+39
 8289 0c9a 1A030000 		.4byte	.LVL76
 8290 0c9e 3A030000 		.4byte	.LVL92
 8291 0ca2 0100     		.2byte	0x1
 8292 0ca4 52       		.byte	0x52
 8293 0ca5 3A030000 		.4byte	.LVL92
 8294 0ca9 4C030000 		.4byte	.LVL95
 8295 0cad 0100     		.2byte	0x1
 8296 0caf 57       		.byte	0x57
 8297 0cb0 58030000 		.4byte	.LVL98
 8298 0cb4 5E030000 		.4byte	.LVL99
 8299 0cb8 0100     		.2byte	0x1
 8300 0cba 57       		.byte	0x57
 8301 0cbb 5E030000 		.4byte	.LVL99
 8302 0cbf 8A030000 		.4byte	.LVL103
 8303 0cc3 0200     		.2byte	0x2
 8304 0cc5 30       		.byte	0x30
 8305 0cc6 9F       		.byte	0x9f
ARM GAS  C:\Users\jenny\AppData\Local\Temp\ccFzIZYt.s 			page 147


 8306 0cc7 58040000 		.4byte	.LVL117
 8307 0ccb 5C040000 		.4byte	.LVL118
 8308 0ccf 0100     		.2byte	0x1
 8309 0cd1 52       		.byte	0x52
 8310 0cd2 72040000 		.4byte	.LVL120
 8311 0cd6 84040000 		.4byte	.LVL121
 8312 0cda 0200     		.2byte	0x2
 8313 0cdc 30       		.byte	0x30
 8314 0cdd 9F       		.byte	0x9f
 8315 0cde 88040000 		.4byte	.LVL122
 8316 0ce2 8A040000 		.4byte	.LVL123
 8317 0ce6 0200     		.2byte	0x2
 8318 0ce8 30       		.byte	0x30
 8319 0ce9 9F       		.byte	0x9f
 8320 0cea C2040000 		.4byte	.LVL130
 8321 0cee D4040000 		.4byte	.LVL132
 8322 0cf2 0200     		.2byte	0x2
 8323 0cf4 30       		.byte	0x30
 8324 0cf5 9F       		.byte	0x9f
 8325 0cf6 58050000 		.4byte	.LVL151
 8326 0cfa 5C050000 		.4byte	.LVL153
 8327 0cfe 0100     		.2byte	0x1
 8328 0d00 52       		.byte	0x52
 8329 0d01 00000000 		.4byte	0
 8330 0d05 00000000 		.4byte	0
 8331              	.LLST11:
 8332 0d09 00000000 		.4byte	.LVL4
 8333 0d0d 56000000 		.4byte	.LVL13
 8334 0d11 0200     		.2byte	0x2
 8335 0d13 3A       		.byte	0x3a
 8336 0d14 9F       		.byte	0x9f
 8337 0d15 56000000 		.4byte	.LVL13
 8338 0d19 68000000 		.4byte	.LVL16
 8339 0d1d 0100     		.2byte	0x1
 8340 0d1f 58       		.byte	0x58
 8341 0d20 6C000000 		.4byte	.LVL17
 8342 0d24 70000000 		.4byte	.LVL18
 8343 0d28 0100     		.2byte	0x1
 8344 0d2a 58       		.byte	0x58
 8345 0d2b 74000000 		.4byte	.LVL19
 8346 0d2f 78000000 		.4byte	.LVL20
 8347 0d33 0100     		.2byte	0x1
 8348 0d35 58       		.byte	0x58
 8349 0d36 7C000000 		.4byte	.LVL21
 8350 0d3a 80000000 		.4byte	.LVL22
 8351 0d3e 0100     		.2byte	0x1
 8352 0d40 58       		.byte	0x58
 8353 0d41 84000000 		.4byte	.LVL23
 8354 0d45 88000000 		.4byte	.LVL24
 8355 0d49 0100     		.2byte	0x1
 8356 0d4b 58       		.byte	0x58
 8357 0d4c 8E000000 		.4byte	.LVL25
 8358 0d50 92000000 		.4byte	.LVL26
 8359 0d54 0100     		.2byte	0x1
 8360 0d56 58       		.byte	0x58
 8361 0d57 98000000 		.4byte	.LVL27
 8362 0d5b 9C000000 		.4byte	.LVL28
ARM GAS  C:\Users\jenny\AppData\Local\Temp\ccFzIZYt.s 			page 148


 8363 0d5f 0100     		.2byte	0x1
 8364 0d61 58       		.byte	0x58
 8365 0d62 A2000000 		.4byte	.LVL29
 8366 0d66 B6000000 		.4byte	.LVL31
 8367 0d6a 0100     		.2byte	0x1
 8368 0d6c 58       		.byte	0x58
 8369 0d6d DA000000 		.4byte	.LVL33
 8370 0d71 DE000000 		.4byte	.LVL34
 8371 0d75 0200     		.2byte	0x2
 8372 0d77 31       		.byte	0x31
 8373 0d78 9F       		.byte	0x9f
 8374 0d79 DE000000 		.4byte	.LVL34
 8375 0d7d EE000000 		.4byte	.LVL36
 8376 0d81 0100     		.2byte	0x1
 8377 0d83 58       		.byte	0x58
 8378 0d84 0C010000 		.4byte	.LVL37
 8379 0d88 1C010000 		.4byte	.LVL39
 8380 0d8c 0100     		.2byte	0x1
 8381 0d8e 58       		.byte	0x58
 8382 0d8f 3A010000 		.4byte	.LVL40
 8383 0d93 4A010000 		.4byte	.LVL42
 8384 0d97 0100     		.2byte	0x1
 8385 0d99 58       		.byte	0x58
 8386 0d9a 68010000 		.4byte	.LVL43
 8387 0d9e 78010000 		.4byte	.LVL45
 8388 0da2 0100     		.2byte	0x1
 8389 0da4 58       		.byte	0x58
 8390 0da5 96010000 		.4byte	.LVL46
 8391 0da9 A8010000 		.4byte	.LVL48
 8392 0dad 0100     		.2byte	0x1
 8393 0daf 58       		.byte	0x58
 8394 0db0 C8010000 		.4byte	.LVL50
 8395 0db4 DA010000 		.4byte	.LVL52
 8396 0db8 0100     		.2byte	0x1
 8397 0dba 58       		.byte	0x58
 8398 0dbb FC010000 		.4byte	.LVL54
 8399 0dbf 0E020000 		.4byte	.LVL56
 8400 0dc3 0100     		.2byte	0x1
 8401 0dc5 58       		.byte	0x58
 8402 0dc6 36020000 		.4byte	.LVL58
 8403 0dca 6E020000 		.4byte	.LVL60
 8404 0dce 0100     		.2byte	0x1
 8405 0dd0 58       		.byte	0x58
 8406 0dd1 B0020000 		.4byte	.LVL66
 8407 0dd5 C6020000 		.4byte	.LVL67
 8408 0dd9 0100     		.2byte	0x1
 8409 0ddb 58       		.byte	0x58
 8410 0ddc D8020000 		.4byte	.LVL71
 8411 0de0 DA020000 		.4byte	.LVL72
 8412 0de4 0100     		.2byte	0x1
 8413 0de6 58       		.byte	0x58
 8414 0de7 02030000 		.4byte	.LVL74
 8415 0deb 18030000 		.4byte	.LVL75
 8416 0def 0100     		.2byte	0x1
 8417 0df1 58       		.byte	0x58
 8418 0df2 1A030000 		.4byte	.LVL76
 8419 0df6 3A030000 		.4byte	.LVL92
ARM GAS  C:\Users\jenny\AppData\Local\Temp\ccFzIZYt.s 			page 149


 8420 0dfa 0100     		.2byte	0x1
 8421 0dfc 58       		.byte	0x58
 8422 0dfd 4C030000 		.4byte	.LVL95
 8423 0e01 52030000 		.4byte	.LVL96
 8424 0e05 0100     		.2byte	0x1
 8425 0e07 58       		.byte	0x58
 8426 0e08 5E030000 		.4byte	.LVL99
 8427 0e0c 82030000 		.4byte	.LVL102
 8428 0e10 0200     		.2byte	0x2
 8429 0e12 3A       		.byte	0x3a
 8430 0e13 9F       		.byte	0x9f
 8431 0e14 82030000 		.4byte	.LVL102
 8432 0e18 8A030000 		.4byte	.LVL103
 8433 0e1c 0200     		.2byte	0x2
 8434 0e1e 30       		.byte	0x30
 8435 0e1f 9F       		.byte	0x9f
 8436 0e20 A0030000 		.4byte	.LVL104
 8437 0e24 A8030000 		.4byte	.LVL105
 8438 0e28 0200     		.2byte	0x2
 8439 0e2a 32       		.byte	0x32
 8440 0e2b 9F       		.byte	0x9f
 8441 0e2c BC030000 		.4byte	.LVL106
 8442 0e30 C4030000 		.4byte	.LVL107
 8443 0e34 0200     		.2byte	0x2
 8444 0e36 33       		.byte	0x33
 8445 0e37 9F       		.byte	0x9f
 8446 0e38 DA030000 		.4byte	.LVL108
 8447 0e3c E2030000 		.4byte	.LVL109
 8448 0e40 0200     		.2byte	0x2
 8449 0e42 34       		.byte	0x34
 8450 0e43 9F       		.byte	0x9f
 8451 0e44 F6030000 		.4byte	.LVL110
 8452 0e48 FE030000 		.4byte	.LVL111
 8453 0e4c 0200     		.2byte	0x2
 8454 0e4e 35       		.byte	0x35
 8455 0e4f 9F       		.byte	0x9f
 8456 0e50 12040000 		.4byte	.LVL112
 8457 0e54 1A040000 		.4byte	.LVL113
 8458 0e58 0200     		.2byte	0x2
 8459 0e5a 36       		.byte	0x36
 8460 0e5b 9F       		.byte	0x9f
 8461 0e5c 32040000 		.4byte	.LVL114
 8462 0e60 3A040000 		.4byte	.LVL115
 8463 0e64 0200     		.2byte	0x2
 8464 0e66 37       		.byte	0x37
 8465 0e67 9F       		.byte	0x9f
 8466 0e68 50040000 		.4byte	.LVL116
 8467 0e6c 58040000 		.4byte	.LVL117
 8468 0e70 0200     		.2byte	0x2
 8469 0e72 38       		.byte	0x38
 8470 0e73 9F       		.byte	0x9f
 8471 0e74 58040000 		.4byte	.LVL117
 8472 0e78 70040000 		.4byte	.LVL119
 8473 0e7c 0100     		.2byte	0x1
 8474 0e7e 58       		.byte	0x58
 8475 0e7f 72040000 		.4byte	.LVL120
 8476 0e83 84040000 		.4byte	.LVL121
ARM GAS  C:\Users\jenny\AppData\Local\Temp\ccFzIZYt.s 			page 150


 8477 0e87 0200     		.2byte	0x2
 8478 0e89 3A       		.byte	0x3a
 8479 0e8a 9F       		.byte	0x9f
 8480 0e8b 88040000 		.4byte	.LVL122
 8481 0e8f 8A040000 		.4byte	.LVL123
 8482 0e93 0200     		.2byte	0x2
 8483 0e95 3A       		.byte	0x3a
 8484 0e96 9F       		.byte	0x9f
 8485 0e97 C2040000 		.4byte	.LVL130
 8486 0e9b D4040000 		.4byte	.LVL132
 8487 0e9f 0200     		.2byte	0x2
 8488 0ea1 3A       		.byte	0x3a
 8489 0ea2 9F       		.byte	0x9f
 8490 0ea3 1E050000 		.4byte	.LVL143
 8491 0ea7 2C050000 		.4byte	.LVL145
 8492 0eab 0100     		.2byte	0x1
 8493 0ead 58       		.byte	0x58
 8494 0eae 58050000 		.4byte	.LVL151
 8495 0eb2 5C050000 		.4byte	.LVL153
 8496 0eb6 0100     		.2byte	0x1
 8497 0eb8 58       		.byte	0x58
 8498 0eb9 00000000 		.4byte	0
 8499 0ebd 00000000 		.4byte	0
 8500              	.LLST12:
 8501 0ec1 00000000 		.4byte	.LVL4
 8502 0ec5 56000000 		.4byte	.LVL13
 8503 0ec9 0200     		.2byte	0x2
 8504 0ecb 30       		.byte	0x30
 8505 0ecc 9F       		.byte	0x9f
 8506 0ecd 56000000 		.4byte	.LVL13
 8507 0ed1 B6000000 		.4byte	.LVL31
 8508 0ed5 0200     		.2byte	0x2
 8509 0ed7 91       		.byte	0x91
 8510 0ed8 54       		.sleb128 -44
 8511 0ed9 DA000000 		.4byte	.LVL33
 8512 0edd DE000000 		.4byte	.LVL34
 8513 0ee1 0500     		.2byte	0x5
 8514 0ee3 03       		.byte	0x3
 8515 0ee4 27000000 		.4byte	arp_table+39
 8516 0ee8 DE000000 		.4byte	.LVL34
 8517 0eec 5E020000 		.4byte	.LVL59
 8518 0ef0 0200     		.2byte	0x2
 8519 0ef2 91       		.byte	0x91
 8520 0ef3 54       		.sleb128 -44
 8521 0ef4 D8020000 		.4byte	.LVL71
 8522 0ef8 DA020000 		.4byte	.LVL72
 8523 0efc 0200     		.2byte	0x2
 8524 0efe 91       		.byte	0x91
 8525 0eff 54       		.sleb128 -44
 8526 0f00 1A030000 		.4byte	.LVL76
 8527 0f04 4C030000 		.4byte	.LVL95
 8528 0f08 0200     		.2byte	0x2
 8529 0f0a 91       		.byte	0x91
 8530 0f0b 54       		.sleb128 -44
 8531 0f0c 58030000 		.4byte	.LVL98
 8532 0f10 5E030000 		.4byte	.LVL99
 8533 0f14 0200     		.2byte	0x2
ARM GAS  C:\Users\jenny\AppData\Local\Temp\ccFzIZYt.s 			page 151


 8534 0f16 91       		.byte	0x91
 8535 0f17 54       		.sleb128 -44
 8536 0f18 5E030000 		.4byte	.LVL99
 8537 0f1c 82030000 		.4byte	.LVL102
 8538 0f20 0200     		.2byte	0x2
 8539 0f22 30       		.byte	0x30
 8540 0f23 9F       		.byte	0x9f
 8541 0f24 82030000 		.4byte	.LVL102
 8542 0f28 A0030000 		.4byte	.LVL104
 8543 0f2c 0200     		.2byte	0x2
 8544 0f2e 91       		.byte	0x91
 8545 0f2f 54       		.sleb128 -44
 8546 0f30 A0030000 		.4byte	.LVL104
 8547 0f34 A8030000 		.4byte	.LVL105
 8548 0f38 0500     		.2byte	0x5
 8549 0f3a 03       		.byte	0x3
 8550 0f3b 3B000000 		.4byte	arp_table+59
 8551 0f3f A8030000 		.4byte	.LVL105
 8552 0f43 BC030000 		.4byte	.LVL106
 8553 0f47 0200     		.2byte	0x2
 8554 0f49 91       		.byte	0x91
 8555 0f4a 54       		.sleb128 -44
 8556 0f4b BC030000 		.4byte	.LVL106
 8557 0f4f C4030000 		.4byte	.LVL107
 8558 0f53 0500     		.2byte	0x5
 8559 0f55 03       		.byte	0x3
 8560 0f56 4F000000 		.4byte	arp_table+79
 8561 0f5a C4030000 		.4byte	.LVL107
 8562 0f5e DA030000 		.4byte	.LVL108
 8563 0f62 0200     		.2byte	0x2
 8564 0f64 91       		.byte	0x91
 8565 0f65 54       		.sleb128 -44
 8566 0f66 DA030000 		.4byte	.LVL108
 8567 0f6a E2030000 		.4byte	.LVL109
 8568 0f6e 0500     		.2byte	0x5
 8569 0f70 03       		.byte	0x3
 8570 0f71 63000000 		.4byte	arp_table+99
 8571 0f75 E2030000 		.4byte	.LVL109
 8572 0f79 F6030000 		.4byte	.LVL110
 8573 0f7d 0200     		.2byte	0x2
 8574 0f7f 91       		.byte	0x91
 8575 0f80 54       		.sleb128 -44
 8576 0f81 F6030000 		.4byte	.LVL110
 8577 0f85 FE030000 		.4byte	.LVL111
 8578 0f89 0500     		.2byte	0x5
 8579 0f8b 03       		.byte	0x3
 8580 0f8c 77000000 		.4byte	arp_table+119
 8581 0f90 FE030000 		.4byte	.LVL111
 8582 0f94 12040000 		.4byte	.LVL112
 8583 0f98 0200     		.2byte	0x2
 8584 0f9a 91       		.byte	0x91
 8585 0f9b 54       		.sleb128 -44
 8586 0f9c 12040000 		.4byte	.LVL112
 8587 0fa0 1A040000 		.4byte	.LVL113
 8588 0fa4 0500     		.2byte	0x5
 8589 0fa6 03       		.byte	0x3
 8590 0fa7 8B000000 		.4byte	arp_table+139
ARM GAS  C:\Users\jenny\AppData\Local\Temp\ccFzIZYt.s 			page 152


 8591 0fab 1A040000 		.4byte	.LVL113
 8592 0faf 32040000 		.4byte	.LVL114
 8593 0fb3 0200     		.2byte	0x2
 8594 0fb5 91       		.byte	0x91
 8595 0fb6 54       		.sleb128 -44
 8596 0fb7 32040000 		.4byte	.LVL114
 8597 0fbb 3A040000 		.4byte	.LVL115
 8598 0fbf 0500     		.2byte	0x5
 8599 0fc1 03       		.byte	0x3
 8600 0fc2 9F000000 		.4byte	arp_table+159
 8601 0fc6 3A040000 		.4byte	.LVL115
 8602 0fca 50040000 		.4byte	.LVL116
 8603 0fce 0200     		.2byte	0x2
 8604 0fd0 91       		.byte	0x91
 8605 0fd1 54       		.sleb128 -44
 8606 0fd2 50040000 		.4byte	.LVL116
 8607 0fd6 58040000 		.4byte	.LVL117
 8608 0fda 0500     		.2byte	0x5
 8609 0fdc 03       		.byte	0x3
 8610 0fdd B3000000 		.4byte	arp_table+179
 8611 0fe1 58040000 		.4byte	.LVL117
 8612 0fe5 72040000 		.4byte	.LVL120
 8613 0fe9 0200     		.2byte	0x2
 8614 0feb 91       		.byte	0x91
 8615 0fec 54       		.sleb128 -44
 8616 0fed 72040000 		.4byte	.LVL120
 8617 0ff1 84040000 		.4byte	.LVL121
 8618 0ff5 0200     		.2byte	0x2
 8619 0ff7 30       		.byte	0x30
 8620 0ff8 9F       		.byte	0x9f
 8621 0ff9 88040000 		.4byte	.LVL122
 8622 0ffd 8A040000 		.4byte	.LVL123
 8623 1001 0200     		.2byte	0x2
 8624 1003 30       		.byte	0x30
 8625 1004 9F       		.byte	0x9f
 8626 1005 8E040000 		.4byte	.LVL124
 8627 1009 B2040000 		.4byte	.LVL128
 8628 100d 0200     		.2byte	0x2
 8629 100f 91       		.byte	0x91
 8630 1010 54       		.sleb128 -44
 8631 1011 C2040000 		.4byte	.LVL130
 8632 1015 D4040000 		.4byte	.LVL132
 8633 1019 0200     		.2byte	0x2
 8634 101b 30       		.byte	0x30
 8635 101c 9F       		.byte	0x9f
 8636 101d D4040000 		.4byte	.LVL132
 8637 1021 12050000 		.4byte	.LVL140
 8638 1025 0200     		.2byte	0x2
 8639 1027 91       		.byte	0x91
 8640 1028 54       		.sleb128 -44
 8641 1029 16050000 		.4byte	.LVL141
 8642 102d 64050000 		.4byte	.LFE9
 8643 1031 0200     		.2byte	0x2
 8644 1033 91       		.byte	0x91
 8645 1034 54       		.sleb128 -44
 8646 1035 00000000 		.4byte	0
 8647 1039 00000000 		.4byte	0
ARM GAS  C:\Users\jenny\AppData\Local\Temp\ccFzIZYt.s 			page 153


 8648              	.LLST13:
 8649 103d 08000000 		.4byte	.LVL5
 8650 1041 14000000 		.4byte	.LVL7
 8651 1045 0500     		.2byte	0x5
 8652 1047 03       		.byte	0x3
 8653 1048 12000000 		.4byte	arp_table+18
 8654 104c 14000000 		.4byte	.LVL7
 8655 1050 30000000 		.4byte	.LVL9
 8656 1054 0500     		.2byte	0x5
 8657 1056 03       		.byte	0x3
 8658 1057 26000000 		.4byte	arp_table+38
 8659 105b 30000000 		.4byte	.LVL9
 8660 105f 5A000000 		.4byte	.LVL14
 8661 1063 0500     		.2byte	0x5
 8662 1065 03       		.byte	0x3
 8663 1066 12000000 		.4byte	arp_table+18
 8664 106a 5A000000 		.4byte	.LVL14
 8665 106e 64000000 		.4byte	.LVL15
 8666 1072 0500     		.2byte	0x5
 8667 1074 03       		.byte	0x3
 8668 1075 26000000 		.4byte	arp_table+38
 8669 1079 AA000000 		.4byte	.LVL30
 8670 107d C6000000 		.4byte	.LVL32
 8671 1081 0500     		.2byte	0x5
 8672 1083 03       		.byte	0x3
 8673 1084 C6000000 		.4byte	arp_table+198
 8674 1088 E6000000 		.4byte	.LVL35
 8675 108c EE000000 		.4byte	.LVL36
 8676 1090 0500     		.2byte	0x5
 8677 1092 03       		.byte	0x3
 8678 1093 3A000000 		.4byte	arp_table+58
 8679 1097 14010000 		.4byte	.LVL38
 8680 109b 1C010000 		.4byte	.LVL39
 8681 109f 0500     		.2byte	0x5
 8682 10a1 03       		.byte	0x3
 8683 10a2 4E000000 		.4byte	arp_table+78
 8684 10a6 42010000 		.4byte	.LVL41
 8685 10aa 4A010000 		.4byte	.LVL42
 8686 10ae 0500     		.2byte	0x5
 8687 10b0 03       		.byte	0x3
 8688 10b1 62000000 		.4byte	arp_table+98
 8689 10b5 70010000 		.4byte	.LVL44
 8690 10b9 78010000 		.4byte	.LVL45
 8691 10bd 0500     		.2byte	0x5
 8692 10bf 03       		.byte	0x3
 8693 10c0 76000000 		.4byte	arp_table+118
 8694 10c4 9E010000 		.4byte	.LVL47
 8695 10c8 A8010000 		.4byte	.LVL48
 8696 10cc 0500     		.2byte	0x5
 8697 10ce 03       		.byte	0x3
 8698 10cf 8A000000 		.4byte	arp_table+138
 8699 10d3 D0010000 		.4byte	.LVL51
 8700 10d7 DA010000 		.4byte	.LVL52
 8701 10db 0500     		.2byte	0x5
 8702 10dd 03       		.byte	0x3
 8703 10de 9E000000 		.4byte	arp_table+158
 8704 10e2 04020000 		.4byte	.LVL55
ARM GAS  C:\Users\jenny\AppData\Local\Temp\ccFzIZYt.s 			page 154


 8705 10e6 0E020000 		.4byte	.LVL56
 8706 10ea 0500     		.2byte	0x5
 8707 10ec 03       		.byte	0x3
 8708 10ed B2000000 		.4byte	arp_table+178
 8709 10f1 36020000 		.4byte	.LVL58
 8710 10f5 74020000 		.4byte	.LVL62
 8711 10f9 0500     		.2byte	0x5
 8712 10fb 03       		.byte	0x3
 8713 10fc C6000000 		.4byte	arp_table+198
 8714 1100 74020000 		.4byte	.LVL62
 8715 1104 9C020000 		.4byte	.LVL63
 8716 1108 0100     		.2byte	0x1
 8717 110a 5A       		.byte	0x5a
 8718 110b A4020000 		.4byte	.LVL64
 8719 110f B0020000 		.4byte	.LVL66
 8720 1113 0100     		.2byte	0x1
 8721 1115 5A       		.byte	0x5a
 8722 1116 B0020000 		.4byte	.LVL66
 8723 111a CF020000 		.4byte	.LVL69-1
 8724 111e 0500     		.2byte	0x5
 8725 1120 03       		.byte	0x3
 8726 1121 C6000000 		.4byte	arp_table+198
 8727 1125 CF020000 		.4byte	.LVL69-1
 8728 1129 D8020000 		.4byte	.LVL71
 8729 112d 0100     		.2byte	0x1
 8730 112f 5A       		.byte	0x5a
 8731 1130 D8020000 		.4byte	.LVL71
 8732 1134 DA020000 		.4byte	.LVL72
 8733 1138 0500     		.2byte	0x5
 8734 113a 03       		.byte	0x3
 8735 113b 26000000 		.4byte	arp_table+38
 8736 113f 02030000 		.4byte	.LVL74
 8737 1143 1A030000 		.4byte	.LVL76
 8738 1147 0500     		.2byte	0x5
 8739 1149 03       		.byte	0x3
 8740 114a C6000000 		.4byte	arp_table+198
 8741 114e 1A030000 		.4byte	.LVL76
 8742 1152 1E030000 		.4byte	.LVL78
 8743 1156 0500     		.2byte	0x5
 8744 1158 03       		.byte	0x3
 8745 1159 3A000000 		.4byte	arp_table+58
 8746 115d 1E030000 		.4byte	.LVL78
 8747 1161 22030000 		.4byte	.LVL80
 8748 1165 0500     		.2byte	0x5
 8749 1167 03       		.byte	0x3
 8750 1168 4E000000 		.4byte	arp_table+78
 8751 116c 22030000 		.4byte	.LVL80
 8752 1170 26030000 		.4byte	.LVL82
 8753 1174 0500     		.2byte	0x5
 8754 1176 03       		.byte	0x3
 8755 1177 62000000 		.4byte	arp_table+98
 8756 117b 26030000 		.4byte	.LVL82
 8757 117f 2A030000 		.4byte	.LVL84
 8758 1183 0500     		.2byte	0x5
 8759 1185 03       		.byte	0x3
 8760 1186 76000000 		.4byte	arp_table+118
 8761 118a 2A030000 		.4byte	.LVL84
ARM GAS  C:\Users\jenny\AppData\Local\Temp\ccFzIZYt.s 			page 155


 8762 118e 2E030000 		.4byte	.LVL86
 8763 1192 0500     		.2byte	0x5
 8764 1194 03       		.byte	0x3
 8765 1195 8A000000 		.4byte	arp_table+138
 8766 1199 2E030000 		.4byte	.LVL86
 8767 119d 32030000 		.4byte	.LVL88
 8768 11a1 0500     		.2byte	0x5
 8769 11a3 03       		.byte	0x3
 8770 11a4 9E000000 		.4byte	arp_table+158
 8771 11a8 32030000 		.4byte	.LVL88
 8772 11ac 36030000 		.4byte	.LVL90
 8773 11b0 0500     		.2byte	0x5
 8774 11b2 03       		.byte	0x3
 8775 11b3 B2000000 		.4byte	arp_table+178
 8776 11b7 36030000 		.4byte	.LVL90
 8777 11bb 3A030000 		.4byte	.LVL92
 8778 11bf 0500     		.2byte	0x5
 8779 11c1 03       		.byte	0x3
 8780 11c2 C6000000 		.4byte	arp_table+198
 8781 11c6 4C030000 		.4byte	.LVL95
 8782 11ca 55030000 		.4byte	.LVL97-1
 8783 11ce 0500     		.2byte	0x5
 8784 11d0 03       		.byte	0x3
 8785 11d1 C6000000 		.4byte	arp_table+198
 8786 11d5 55030000 		.4byte	.LVL97-1
 8787 11d9 58030000 		.4byte	.LVL98
 8788 11dd 0100     		.2byte	0x1
 8789 11df 5A       		.byte	0x5a
 8790 11e0 5E030000 		.4byte	.LVL99
 8791 11e4 6E030000 		.4byte	.LVL101
 8792 11e8 0500     		.2byte	0x5
 8793 11ea 03       		.byte	0x3
 8794 11eb 26000000 		.4byte	arp_table+38
 8795 11ef 6E030000 		.4byte	.LVL101
 8796 11f3 8A030000 		.4byte	.LVL103
 8797 11f7 0500     		.2byte	0x5
 8798 11f9 03       		.byte	0x3
 8799 11fa 12000000 		.4byte	arp_table+18
 8800 11fe 58040000 		.4byte	.LVL117
 8801 1202 72040000 		.4byte	.LVL120
 8802 1206 0500     		.2byte	0x5
 8803 1208 03       		.byte	0x3
 8804 1209 C6000000 		.4byte	arp_table+198
 8805 120d 72040000 		.4byte	.LVL120
 8806 1211 84040000 		.4byte	.LVL121
 8807 1215 0500     		.2byte	0x5
 8808 1217 03       		.byte	0x3
 8809 1218 12000000 		.4byte	arp_table+18
 8810 121c 84040000 		.4byte	.LVL121
 8811 1220 88040000 		.4byte	.LVL122
 8812 1224 0500     		.2byte	0x5
 8813 1226 03       		.byte	0x3
 8814 1227 C6000000 		.4byte	arp_table+198
 8815 122b 88040000 		.4byte	.LVL122
 8816 122f 8A040000 		.4byte	.LVL123
 8817 1233 0500     		.2byte	0x5
 8818 1235 03       		.byte	0x3
ARM GAS  C:\Users\jenny\AppData\Local\Temp\ccFzIZYt.s 			page 156


 8819 1236 12000000 		.4byte	arp_table+18
 8820 123a C2040000 		.4byte	.LVL130
 8821 123e D4040000 		.4byte	.LVL132
 8822 1242 0500     		.2byte	0x5
 8823 1244 03       		.byte	0x3
 8824 1245 12000000 		.4byte	arp_table+18
 8825 1249 1E050000 		.4byte	.LVL143
 8826 124d 2C050000 		.4byte	.LVL145
 8827 1251 0500     		.2byte	0x5
 8828 1253 03       		.byte	0x3
 8829 1254 C6000000 		.4byte	arp_table+198
 8830 1258 58050000 		.4byte	.LVL151
 8831 125c 5C050000 		.4byte	.LVL153
 8832 1260 0500     		.2byte	0x5
 8833 1262 03       		.byte	0x3
 8834 1263 C6000000 		.4byte	arp_table+198
 8835 1267 00000000 		.4byte	0
 8836 126b 00000000 		.4byte	0
 8837              	.LLST14:
 8838 126f 00000000 		.4byte	.LFB10
 8839 1273 04000000 		.4byte	.LCFI3
 8840 1277 0200     		.2byte	0x2
 8841 1279 7D       		.byte	0x7d
 8842 127a 00       		.sleb128 0
 8843 127b 04000000 		.4byte	.LCFI3
 8844 127f 44000000 		.4byte	.LFE10
 8845 1283 0200     		.2byte	0x2
 8846 1285 7D       		.byte	0x7d
 8847 1286 18       		.sleb128 24
 8848 1287 00000000 		.4byte	0
 8849 128b 00000000 		.4byte	0
 8850              	.LLST15:
 8851 128f 00000000 		.4byte	.LVL154
 8852 1293 19000000 		.4byte	.LVL157-1
 8853 1297 0100     		.2byte	0x1
 8854 1299 50       		.byte	0x50
 8855 129a 19000000 		.4byte	.LVL157-1
 8856 129e 44000000 		.4byte	.LFE10
 8857 12a2 0100     		.2byte	0x1
 8858 12a4 55       		.byte	0x55
 8859 12a5 00000000 		.4byte	0
 8860 12a9 00000000 		.4byte	0
 8861              	.LLST16:
 8862 12ad 00000000 		.4byte	.LVL154
 8863 12b1 0A000000 		.4byte	.LVL155
 8864 12b5 0100     		.2byte	0x1
 8865 12b7 51       		.byte	0x51
 8866 12b8 0A000000 		.4byte	.LVL155
 8867 12bc 44000000 		.4byte	.LFE10
 8868 12c0 0100     		.2byte	0x1
 8869 12c2 56       		.byte	0x56
 8870 12c3 00000000 		.4byte	0
 8871 12c7 00000000 		.4byte	0
 8872              	.LLST17:
 8873 12cb 00000000 		.4byte	.LVL154
 8874 12cf 19000000 		.4byte	.LVL157-1
 8875 12d3 0100     		.2byte	0x1
ARM GAS  C:\Users\jenny\AppData\Local\Temp\ccFzIZYt.s 			page 157


 8876 12d5 52       		.byte	0x52
 8877 12d6 19000000 		.4byte	.LVL157-1
 8878 12da 44000000 		.4byte	.LFE10
 8879 12de 0100     		.2byte	0x1
 8880 12e0 57       		.byte	0x57
 8881 12e1 00000000 		.4byte	0
 8882 12e5 00000000 		.4byte	0
 8883              	.LLST18:
 8884 12e9 00000000 		.4byte	.LVL154
 8885 12ed 19000000 		.4byte	.LVL157-1
 8886 12f1 0100     		.2byte	0x1
 8887 12f3 53       		.byte	0x53
 8888 12f4 19000000 		.4byte	.LVL157-1
 8889 12f8 44000000 		.4byte	.LFE10
 8890 12fc 0100     		.2byte	0x1
 8891 12fe 58       		.byte	0x58
 8892 12ff 00000000 		.4byte	0
 8893 1303 00000000 		.4byte	0
 8894              	.LLST19:
 8895 1307 00000000 		.4byte	.LFB8
 8896 130b 02000000 		.4byte	.LCFI4
 8897 130f 0200     		.2byte	0x2
 8898 1311 7D       		.byte	0x7d
 8899 1312 00       		.sleb128 0
 8900 1313 02000000 		.4byte	.LCFI4
 8901 1317 38020000 		.4byte	.LFE8
 8902 131b 0200     		.2byte	0x2
 8903 131d 7D       		.byte	0x7d
 8904 131e 08       		.sleb128 8
 8905 131f 00000000 		.4byte	0
 8906 1323 00000000 		.4byte	0
 8907              	.LLST20:
 8908 1327 00000000 		.4byte	.LVL159
 8909 132b 22000000 		.4byte	.LVL160
 8910 132f 0200     		.2byte	0x2
 8911 1331 30       		.byte	0x30
 8912 1332 9F       		.byte	0x9f
 8913 1333 22000000 		.4byte	.LVL160
 8914 1337 48000000 		.4byte	.LVL161
 8915 133b 0200     		.2byte	0x2
 8916 133d 31       		.byte	0x31
 8917 133e 9F       		.byte	0x9f
 8918 133f 48000000 		.4byte	.LVL161
 8919 1343 6E000000 		.4byte	.LVL162
 8920 1347 0200     		.2byte	0x2
 8921 1349 32       		.byte	0x32
 8922 134a 9F       		.byte	0x9f
 8923 134b 6E000000 		.4byte	.LVL162
 8924 134f 94000000 		.4byte	.LVL163
 8925 1353 0200     		.2byte	0x2
 8926 1355 33       		.byte	0x33
 8927 1356 9F       		.byte	0x9f
 8928 1357 94000000 		.4byte	.LVL163
 8929 135b BA000000 		.4byte	.LVL164
 8930 135f 0200     		.2byte	0x2
 8931 1361 34       		.byte	0x34
 8932 1362 9F       		.byte	0x9f
ARM GAS  C:\Users\jenny\AppData\Local\Temp\ccFzIZYt.s 			page 158


 8933 1363 BA000000 		.4byte	.LVL164
 8934 1367 DC000000 		.4byte	.LVL165
 8935 136b 0200     		.2byte	0x2
 8936 136d 35       		.byte	0x35
 8937 136e 9F       		.byte	0x9f
 8938 136f DC000000 		.4byte	.LVL165
 8939 1373 FE000000 		.4byte	.LVL166
 8940 1377 0200     		.2byte	0x2
 8941 1379 36       		.byte	0x36
 8942 137a 9F       		.byte	0x9f
 8943 137b FE000000 		.4byte	.LVL166
 8944 137f 1E010000 		.4byte	.LVL167
 8945 1383 0200     		.2byte	0x2
 8946 1385 37       		.byte	0x37
 8947 1386 9F       		.byte	0x9f
 8948 1387 1E010000 		.4byte	.LVL167
 8949 138b 3E010000 		.4byte	.LVL168
 8950 138f 0200     		.2byte	0x2
 8951 1391 38       		.byte	0x38
 8952 1392 9F       		.byte	0x9f
 8953 1393 3E010000 		.4byte	.LVL168
 8954 1397 5E010000 		.4byte	.LVL169
 8955 139b 0200     		.2byte	0x2
 8956 139d 39       		.byte	0x39
 8957 139e 9F       		.byte	0x9f
 8958 139f 60010000 		.4byte	.LVL170
 8959 13a3 6E010000 		.4byte	.LVL172
 8960 13a7 0200     		.2byte	0x2
 8961 13a9 31       		.byte	0x31
 8962 13aa 9F       		.byte	0x9f
 8963 13ab 6E010000 		.4byte	.LVL172
 8964 13af 7C010000 		.4byte	.LVL174
 8965 13b3 0200     		.2byte	0x2
 8966 13b5 30       		.byte	0x30
 8967 13b6 9F       		.byte	0x9f
 8968 13b7 7C010000 		.4byte	.LVL174
 8969 13bb 88010000 		.4byte	.LVL176
 8970 13bf 0200     		.2byte	0x2
 8971 13c1 37       		.byte	0x37
 8972 13c2 9F       		.byte	0x9f
 8973 13c3 88010000 		.4byte	.LVL176
 8974 13c7 94010000 		.4byte	.LVL178
 8975 13cb 0200     		.2byte	0x2
 8976 13cd 36       		.byte	0x36
 8977 13ce 9F       		.byte	0x9f
 8978 13cf 94010000 		.4byte	.LVL178
 8979 13d3 A2010000 		.4byte	.LVL179
 8980 13d7 0200     		.2byte	0x2
 8981 13d9 39       		.byte	0x39
 8982 13da 9F       		.byte	0x9f
 8983 13db A2010000 		.4byte	.LVL179
 8984 13df AE010000 		.4byte	.LVL181
 8985 13e3 0200     		.2byte	0x2
 8986 13e5 38       		.byte	0x38
 8987 13e6 9F       		.byte	0x9f
 8988 13e7 AE010000 		.4byte	.LVL181
 8989 13eb BC010000 		.4byte	.LVL183
ARM GAS  C:\Users\jenny\AppData\Local\Temp\ccFzIZYt.s 			page 159


 8990 13ef 0200     		.2byte	0x2
 8991 13f1 33       		.byte	0x33
 8992 13f2 9F       		.byte	0x9f
 8993 13f3 BC010000 		.4byte	.LVL183
 8994 13f7 CA010000 		.4byte	.LVL185
 8995 13fb 0200     		.2byte	0x2
 8996 13fd 32       		.byte	0x32
 8997 13fe 9F       		.byte	0x9f
 8998 13ff CA010000 		.4byte	.LVL185
 8999 1403 D6010000 		.4byte	.LVL187
 9000 1407 0200     		.2byte	0x2
 9001 1409 35       		.byte	0x35
 9002 140a 9F       		.byte	0x9f
 9003 140b D6010000 		.4byte	.LVL187
 9004 140f E4010000 		.4byte	.LVL189
 9005 1413 0200     		.2byte	0x2
 9006 1415 34       		.byte	0x34
 9007 1416 9F       		.byte	0x9f
 9008 1417 E4010000 		.4byte	.LVL189
 9009 141b EA010000 		.4byte	.LVL190
 9010 141f 0200     		.2byte	0x2
 9011 1421 30       		.byte	0x30
 9012 1422 9F       		.byte	0x9f
 9013 1423 EA010000 		.4byte	.LVL190
 9014 1427 F2010000 		.4byte	.LVL191
 9015 142b 0200     		.2byte	0x2
 9016 142d 31       		.byte	0x31
 9017 142e 9F       		.byte	0x9f
 9018 142f F2010000 		.4byte	.LVL191
 9019 1433 FA010000 		.4byte	.LVL192
 9020 1437 0200     		.2byte	0x2
 9021 1439 32       		.byte	0x32
 9022 143a 9F       		.byte	0x9f
 9023 143b FA010000 		.4byte	.LVL192
 9024 143f 02020000 		.4byte	.LVL193
 9025 1443 0200     		.2byte	0x2
 9026 1445 33       		.byte	0x33
 9027 1446 9F       		.byte	0x9f
 9028 1447 02020000 		.4byte	.LVL193
 9029 144b 0A020000 		.4byte	.LVL194
 9030 144f 0200     		.2byte	0x2
 9031 1451 34       		.byte	0x34
 9032 1452 9F       		.byte	0x9f
 9033 1453 0A020000 		.4byte	.LVL194
 9034 1457 12020000 		.4byte	.LVL195
 9035 145b 0200     		.2byte	0x2
 9036 145d 35       		.byte	0x35
 9037 145e 9F       		.byte	0x9f
 9038 145f 12020000 		.4byte	.LVL195
 9039 1463 1A020000 		.4byte	.LVL196
 9040 1467 0200     		.2byte	0x2
 9041 1469 36       		.byte	0x36
 9042 146a 9F       		.byte	0x9f
 9043 146b 1A020000 		.4byte	.LVL196
 9044 146f 22020000 		.4byte	.LVL197
 9045 1473 0200     		.2byte	0x2
 9046 1475 37       		.byte	0x37
ARM GAS  C:\Users\jenny\AppData\Local\Temp\ccFzIZYt.s 			page 160


 9047 1476 9F       		.byte	0x9f
 9048 1477 22020000 		.4byte	.LVL197
 9049 147b 2A020000 		.4byte	.LVL198
 9050 147f 0200     		.2byte	0x2
 9051 1481 38       		.byte	0x38
 9052 1482 9F       		.byte	0x9f
 9053 1483 2A020000 		.4byte	.LVL198
 9054 1487 30020000 		.4byte	.LVL199
 9055 148b 0200     		.2byte	0x2
 9056 148d 39       		.byte	0x39
 9057 148e 9F       		.byte	0x9f
 9058 148f 30020000 		.4byte	.LVL199
 9059 1493 38020000 		.4byte	.LFE8
 9060 1497 0200     		.2byte	0x2
 9061 1499 3A       		.byte	0x3a
 9062 149a 9F       		.byte	0x9f
 9063 149b 00000000 		.4byte	0
 9064 149f 00000000 		.4byte	0
 9065              	.LLST21:
 9066 14a3 00000000 		.4byte	.LVL159
 9067 14a7 22000000 		.4byte	.LVL160
 9068 14ab 0500     		.2byte	0x5
 9069 14ad 03       		.byte	0x3
 9070 14ae 12000000 		.4byte	arp_table+18
 9071 14b2 22000000 		.4byte	.LVL160
 9072 14b6 48000000 		.4byte	.LVL161
 9073 14ba 0500     		.2byte	0x5
 9074 14bc 03       		.byte	0x3
 9075 14bd 26000000 		.4byte	arp_table+38
 9076 14c1 48000000 		.4byte	.LVL161
 9077 14c5 6E000000 		.4byte	.LVL162
 9078 14c9 0500     		.2byte	0x5
 9079 14cb 03       		.byte	0x3
 9080 14cc 3A000000 		.4byte	arp_table+58
 9081 14d0 6E000000 		.4byte	.LVL162
 9082 14d4 94000000 		.4byte	.LVL163
 9083 14d8 0500     		.2byte	0x5
 9084 14da 03       		.byte	0x3
 9085 14db 4E000000 		.4byte	arp_table+78
 9086 14df 94000000 		.4byte	.LVL163
 9087 14e3 BA000000 		.4byte	.LVL164
 9088 14e7 0500     		.2byte	0x5
 9089 14e9 03       		.byte	0x3
 9090 14ea 62000000 		.4byte	arp_table+98
 9091 14ee BA000000 		.4byte	.LVL164
 9092 14f2 DC000000 		.4byte	.LVL165
 9093 14f6 0500     		.2byte	0x5
 9094 14f8 03       		.byte	0x3
 9095 14f9 76000000 		.4byte	arp_table+118
 9096 14fd DC000000 		.4byte	.LVL165
 9097 1501 FE000000 		.4byte	.LVL166
 9098 1505 0500     		.2byte	0x5
 9099 1507 03       		.byte	0x3
 9100 1508 8A000000 		.4byte	arp_table+138
 9101 150c FE000000 		.4byte	.LVL166
 9102 1510 1E010000 		.4byte	.LVL167
 9103 1514 0500     		.2byte	0x5
ARM GAS  C:\Users\jenny\AppData\Local\Temp\ccFzIZYt.s 			page 161


 9104 1516 03       		.byte	0x3
 9105 1517 9E000000 		.4byte	arp_table+158
 9106 151b 1E010000 		.4byte	.LVL167
 9107 151f 3E010000 		.4byte	.LVL168
 9108 1523 0500     		.2byte	0x5
 9109 1525 03       		.byte	0x3
 9110 1526 B2000000 		.4byte	arp_table+178
 9111 152a 3E010000 		.4byte	.LVL168
 9112 152e 60010000 		.4byte	.LVL170
 9113 1532 0500     		.2byte	0x5
 9114 1534 03       		.byte	0x3
 9115 1535 C6000000 		.4byte	arp_table+198
 9116 1539 60010000 		.4byte	.LVL170
 9117 153d 6B010000 		.4byte	.LVL171-1
 9118 1541 0500     		.2byte	0x5
 9119 1543 03       		.byte	0x3
 9120 1544 26000000 		.4byte	arp_table+38
 9121 1548 6E010000 		.4byte	.LVL172
 9122 154c 79010000 		.4byte	.LVL173-1
 9123 1550 0500     		.2byte	0x5
 9124 1552 03       		.byte	0x3
 9125 1553 12000000 		.4byte	arp_table+18
 9126 1557 7C010000 		.4byte	.LVL174
 9127 155b 85010000 		.4byte	.LVL175-1
 9128 155f 0500     		.2byte	0x5
 9129 1561 03       		.byte	0x3
 9130 1562 9E000000 		.4byte	arp_table+158
 9131 1566 88010000 		.4byte	.LVL176
 9132 156a 91010000 		.4byte	.LVL177-1
 9133 156e 0500     		.2byte	0x5
 9134 1570 03       		.byte	0x3
 9135 1571 8A000000 		.4byte	arp_table+138
 9136 1575 94010000 		.4byte	.LVL178
 9137 1579 A1010000 		.4byte	.LVL179-1
 9138 157d 0500     		.2byte	0x5
 9139 157f 03       		.byte	0x3
 9140 1580 C6000000 		.4byte	arp_table+198
 9141 1584 A2010000 		.4byte	.LVL179
 9142 1588 AB010000 		.4byte	.LVL180-1
 9143 158c 0500     		.2byte	0x5
 9144 158e 03       		.byte	0x3
 9145 158f B2000000 		.4byte	arp_table+178
 9146 1593 AE010000 		.4byte	.LVL181
 9147 1597 B9010000 		.4byte	.LVL182-1
 9148 159b 0500     		.2byte	0x5
 9149 159d 03       		.byte	0x3
 9150 159e 4E000000 		.4byte	arp_table+78
 9151 15a2 BC010000 		.4byte	.LVL183
 9152 15a6 C7010000 		.4byte	.LVL184-1
 9153 15aa 0500     		.2byte	0x5
 9154 15ac 03       		.byte	0x3
 9155 15ad 3A000000 		.4byte	arp_table+58
 9156 15b1 CA010000 		.4byte	.LVL185
 9157 15b5 D3010000 		.4byte	.LVL186-1
 9158 15b9 0500     		.2byte	0x5
 9159 15bb 03       		.byte	0x3
 9160 15bc 76000000 		.4byte	arp_table+118
ARM GAS  C:\Users\jenny\AppData\Local\Temp\ccFzIZYt.s 			page 162


 9161 15c0 D6010000 		.4byte	.LVL187
 9162 15c4 E1010000 		.4byte	.LVL188-1
 9163 15c8 0500     		.2byte	0x5
 9164 15ca 03       		.byte	0x3
 9165 15cb 62000000 		.4byte	arp_table+98
 9166 15cf E4010000 		.4byte	.LVL189
 9167 15d3 EA010000 		.4byte	.LVL190
 9168 15d7 0500     		.2byte	0x5
 9169 15d9 03       		.byte	0x3
 9170 15da 12000000 		.4byte	arp_table+18
 9171 15de EA010000 		.4byte	.LVL190
 9172 15e2 F2010000 		.4byte	.LVL191
 9173 15e6 0500     		.2byte	0x5
 9174 15e8 03       		.byte	0x3
 9175 15e9 26000000 		.4byte	arp_table+38
 9176 15ed F2010000 		.4byte	.LVL191
 9177 15f1 FA010000 		.4byte	.LVL192
 9178 15f5 0500     		.2byte	0x5
 9179 15f7 03       		.byte	0x3
 9180 15f8 3A000000 		.4byte	arp_table+58
 9181 15fc FA010000 		.4byte	.LVL192
 9182 1600 02020000 		.4byte	.LVL193
 9183 1604 0500     		.2byte	0x5
 9184 1606 03       		.byte	0x3
 9185 1607 4E000000 		.4byte	arp_table+78
 9186 160b 02020000 		.4byte	.LVL193
 9187 160f 0A020000 		.4byte	.LVL194
 9188 1613 0500     		.2byte	0x5
 9189 1615 03       		.byte	0x3
 9190 1616 62000000 		.4byte	arp_table+98
 9191 161a 0A020000 		.4byte	.LVL194
 9192 161e 12020000 		.4byte	.LVL195
 9193 1622 0500     		.2byte	0x5
 9194 1624 03       		.byte	0x3
 9195 1625 76000000 		.4byte	arp_table+118
 9196 1629 12020000 		.4byte	.LVL195
 9197 162d 1A020000 		.4byte	.LVL196
 9198 1631 0500     		.2byte	0x5
 9199 1633 03       		.byte	0x3
 9200 1634 8A000000 		.4byte	arp_table+138
 9201 1638 1A020000 		.4byte	.LVL196
 9202 163c 22020000 		.4byte	.LVL197
 9203 1640 0500     		.2byte	0x5
 9204 1642 03       		.byte	0x3
 9205 1643 9E000000 		.4byte	arp_table+158
 9206 1647 22020000 		.4byte	.LVL197
 9207 164b 2A020000 		.4byte	.LVL198
 9208 164f 0500     		.2byte	0x5
 9209 1651 03       		.byte	0x3
 9210 1652 B2000000 		.4byte	arp_table+178
 9211 1656 2A020000 		.4byte	.LVL198
 9212 165a 38020000 		.4byte	.LFE8
 9213 165e 0500     		.2byte	0x5
 9214 1660 03       		.byte	0x3
 9215 1661 C6000000 		.4byte	arp_table+198
 9216 1665 00000000 		.4byte	0
 9217 1669 00000000 		.4byte	0
ARM GAS  C:\Users\jenny\AppData\Local\Temp\ccFzIZYt.s 			page 163


 9218              	.LLST22:
 9219 166d 00000000 		.4byte	.LFB12
 9220 1671 02000000 		.4byte	.LCFI5
 9221 1675 0200     		.2byte	0x2
 9222 1677 7D       		.byte	0x7d
 9223 1678 00       		.sleb128 0
 9224 1679 02000000 		.4byte	.LCFI5
 9225 167d F0000000 		.4byte	.LFE12
 9226 1681 0200     		.2byte	0x2
 9227 1683 7D       		.byte	0x7d
 9228 1684 10       		.sleb128 16
 9229 1685 00000000 		.4byte	0
 9230 1689 00000000 		.4byte	0
 9231              	.LLST23:
 9232 168d 00000000 		.4byte	.LVL200
 9233 1691 0C000000 		.4byte	.LVL201
 9234 1695 0100     		.2byte	0x1
 9235 1697 50       		.byte	0x50
 9236 1698 0C000000 		.4byte	.LVL201
 9237 169c F0000000 		.4byte	.LFE12
 9238 16a0 0100     		.2byte	0x1
 9239 16a2 55       		.byte	0x55
 9240 16a3 00000000 		.4byte	0
 9241 16a7 00000000 		.4byte	0
 9242              	.LLST24:
 9243 16ab 00000000 		.4byte	.LVL200
 9244 16af 10000000 		.4byte	.LVL202
 9245 16b3 0200     		.2byte	0x2
 9246 16b5 30       		.byte	0x30
 9247 16b6 9F       		.byte	0x9f
 9248 16b7 10000000 		.4byte	.LVL202
 9249 16bb 1E000000 		.4byte	.LVL203
 9250 16bf 0200     		.2byte	0x2
 9251 16c1 31       		.byte	0x31
 9252 16c2 9F       		.byte	0x9f
 9253 16c3 1E000000 		.4byte	.LVL203
 9254 16c7 2C000000 		.4byte	.LVL204
 9255 16cb 0200     		.2byte	0x2
 9256 16cd 32       		.byte	0x32
 9257 16ce 9F       		.byte	0x9f
 9258 16cf 2C000000 		.4byte	.LVL204
 9259 16d3 3A000000 		.4byte	.LVL205
 9260 16d7 0200     		.2byte	0x2
 9261 16d9 33       		.byte	0x33
 9262 16da 9F       		.byte	0x9f
 9263 16db 3A000000 		.4byte	.LVL205
 9264 16df 48000000 		.4byte	.LVL206
 9265 16e3 0200     		.2byte	0x2
 9266 16e5 34       		.byte	0x34
 9267 16e6 9F       		.byte	0x9f
 9268 16e7 48000000 		.4byte	.LVL206
 9269 16eb 56000000 		.4byte	.LVL207
 9270 16ef 0200     		.2byte	0x2
 9271 16f1 35       		.byte	0x35
 9272 16f2 9F       		.byte	0x9f
 9273 16f3 56000000 		.4byte	.LVL207
 9274 16f7 66000000 		.4byte	.LVL208
ARM GAS  C:\Users\jenny\AppData\Local\Temp\ccFzIZYt.s 			page 164


 9275 16fb 0200     		.2byte	0x2
 9276 16fd 36       		.byte	0x36
 9277 16fe 9F       		.byte	0x9f
 9278 16ff 66000000 		.4byte	.LVL208
 9279 1703 76000000 		.4byte	.LVL209
 9280 1707 0200     		.2byte	0x2
 9281 1709 37       		.byte	0x37
 9282 170a 9F       		.byte	0x9f
 9283 170b 76000000 		.4byte	.LVL209
 9284 170f 86000000 		.4byte	.LVL210
 9285 1713 0200     		.2byte	0x2
 9286 1715 38       		.byte	0x38
 9287 1716 9F       		.byte	0x9f
 9288 1717 86000000 		.4byte	.LVL210
 9289 171b A2000000 		.4byte	.LVL211
 9290 171f 0200     		.2byte	0x2
 9291 1721 39       		.byte	0x39
 9292 1722 9F       		.byte	0x9f
 9293 1723 A2000000 		.4byte	.LVL211
 9294 1727 AA000000 		.4byte	.LVL213
 9295 172b 0200     		.2byte	0x2
 9296 172d 38       		.byte	0x38
 9297 172e 9F       		.byte	0x9f
 9298 172f AA000000 		.4byte	.LVL213
 9299 1733 B2000000 		.4byte	.LVL215
 9300 1737 0200     		.2byte	0x2
 9301 1739 37       		.byte	0x37
 9302 173a 9F       		.byte	0x9f
 9303 173b B2000000 		.4byte	.LVL215
 9304 173f BA000000 		.4byte	.LVL217
 9305 1743 0200     		.2byte	0x2
 9306 1745 36       		.byte	0x36
 9307 1746 9F       		.byte	0x9f
 9308 1747 BA000000 		.4byte	.LVL217
 9309 174b C2000000 		.4byte	.LVL219
 9310 174f 0200     		.2byte	0x2
 9311 1751 35       		.byte	0x35
 9312 1752 9F       		.byte	0x9f
 9313 1753 C2000000 		.4byte	.LVL219
 9314 1757 CA000000 		.4byte	.LVL221
 9315 175b 0200     		.2byte	0x2
 9316 175d 34       		.byte	0x34
 9317 175e 9F       		.byte	0x9f
 9318 175f CA000000 		.4byte	.LVL221
 9319 1763 D2000000 		.4byte	.LVL223
 9320 1767 0200     		.2byte	0x2
 9321 1769 33       		.byte	0x33
 9322 176a 9F       		.byte	0x9f
 9323 176b D2000000 		.4byte	.LVL223
 9324 176f DA000000 		.4byte	.LVL225
 9325 1773 0200     		.2byte	0x2
 9326 1775 32       		.byte	0x32
 9327 1776 9F       		.byte	0x9f
 9328 1777 DA000000 		.4byte	.LVL225
 9329 177b E2000000 		.4byte	.LVL227
 9330 177f 0200     		.2byte	0x2
 9331 1781 31       		.byte	0x31
ARM GAS  C:\Users\jenny\AppData\Local\Temp\ccFzIZYt.s 			page 165


 9332 1782 9F       		.byte	0x9f
 9333 1783 E2000000 		.4byte	.LVL227
 9334 1787 F0000000 		.4byte	.LFE12
 9335 178b 0200     		.2byte	0x2
 9336 178d 30       		.byte	0x30
 9337 178e 9F       		.byte	0x9f
 9338 178f 00000000 		.4byte	0
 9339 1793 00000000 		.4byte	0
 9340              	.LLST25:
 9341 1797 00000000 		.4byte	.LVL200
 9342 179b 10000000 		.4byte	.LVL202
 9343 179f 0500     		.2byte	0x5
 9344 17a1 03       		.byte	0x3
 9345 17a2 12000000 		.4byte	arp_table+18
 9346 17a6 10000000 		.4byte	.LVL202
 9347 17aa 1E000000 		.4byte	.LVL203
 9348 17ae 0500     		.2byte	0x5
 9349 17b0 03       		.byte	0x3
 9350 17b1 26000000 		.4byte	arp_table+38
 9351 17b5 1E000000 		.4byte	.LVL203
 9352 17b9 2C000000 		.4byte	.LVL204
 9353 17bd 0500     		.2byte	0x5
 9354 17bf 03       		.byte	0x3
 9355 17c0 3A000000 		.4byte	arp_table+58
 9356 17c4 2C000000 		.4byte	.LVL204
 9357 17c8 3A000000 		.4byte	.LVL205
 9358 17cc 0500     		.2byte	0x5
 9359 17ce 03       		.byte	0x3
 9360 17cf 4E000000 		.4byte	arp_table+78
 9361 17d3 3A000000 		.4byte	.LVL205
 9362 17d7 48000000 		.4byte	.LVL206
 9363 17db 0500     		.2byte	0x5
 9364 17dd 03       		.byte	0x3
 9365 17de 62000000 		.4byte	arp_table+98
 9366 17e2 48000000 		.4byte	.LVL206
 9367 17e6 56000000 		.4byte	.LVL207
 9368 17ea 0500     		.2byte	0x5
 9369 17ec 03       		.byte	0x3
 9370 17ed 76000000 		.4byte	arp_table+118
 9371 17f1 56000000 		.4byte	.LVL207
 9372 17f5 66000000 		.4byte	.LVL208
 9373 17f9 0500     		.2byte	0x5
 9374 17fb 03       		.byte	0x3
 9375 17fc 8A000000 		.4byte	arp_table+138
 9376 1800 66000000 		.4byte	.LVL208
 9377 1804 76000000 		.4byte	.LVL209
 9378 1808 0500     		.2byte	0x5
 9379 180a 03       		.byte	0x3
 9380 180b 9E000000 		.4byte	arp_table+158
 9381 180f 76000000 		.4byte	.LVL209
 9382 1813 86000000 		.4byte	.LVL210
 9383 1817 0500     		.2byte	0x5
 9384 1819 03       		.byte	0x3
 9385 181a B2000000 		.4byte	arp_table+178
 9386 181e 86000000 		.4byte	.LVL210
 9387 1822 A1000000 		.4byte	.LVL211-1
 9388 1826 0500     		.2byte	0x5
ARM GAS  C:\Users\jenny\AppData\Local\Temp\ccFzIZYt.s 			page 166


 9389 1828 03       		.byte	0x3
 9390 1829 C6000000 		.4byte	arp_table+198
 9391 182d A2000000 		.4byte	.LVL211
 9392 1831 A7000000 		.4byte	.LVL212-1
 9393 1835 0500     		.2byte	0x5
 9394 1837 03       		.byte	0x3
 9395 1838 B2000000 		.4byte	arp_table+178
 9396 183c AA000000 		.4byte	.LVL213
 9397 1840 AF000000 		.4byte	.LVL214-1
 9398 1844 0500     		.2byte	0x5
 9399 1846 03       		.byte	0x3
 9400 1847 9E000000 		.4byte	arp_table+158
 9401 184b B2000000 		.4byte	.LVL215
 9402 184f B7000000 		.4byte	.LVL216-1
 9403 1853 0500     		.2byte	0x5
 9404 1855 03       		.byte	0x3
 9405 1856 8A000000 		.4byte	arp_table+138
 9406 185a BA000000 		.4byte	.LVL217
 9407 185e BF000000 		.4byte	.LVL218-1
 9408 1862 0500     		.2byte	0x5
 9409 1864 03       		.byte	0x3
 9410 1865 76000000 		.4byte	arp_table+118
 9411 1869 C2000000 		.4byte	.LVL219
 9412 186d C7000000 		.4byte	.LVL220-1
 9413 1871 0500     		.2byte	0x5
 9414 1873 03       		.byte	0x3
 9415 1874 62000000 		.4byte	arp_table+98
 9416 1878 CA000000 		.4byte	.LVL221
 9417 187c CF000000 		.4byte	.LVL222-1
 9418 1880 0500     		.2byte	0x5
 9419 1882 03       		.byte	0x3
 9420 1883 4E000000 		.4byte	arp_table+78
 9421 1887 D2000000 		.4byte	.LVL223
 9422 188b D7000000 		.4byte	.LVL224-1
 9423 188f 0500     		.2byte	0x5
 9424 1891 03       		.byte	0x3
 9425 1892 3A000000 		.4byte	arp_table+58
 9426 1896 DA000000 		.4byte	.LVL225
 9427 189a DF000000 		.4byte	.LVL226-1
 9428 189e 0500     		.2byte	0x5
 9429 18a0 03       		.byte	0x3
 9430 18a1 26000000 		.4byte	arp_table+38
 9431 18a5 E2000000 		.4byte	.LVL227
 9432 18a9 E7000000 		.4byte	.LVL228-1
 9433 18ad 0500     		.2byte	0x5
 9434 18af 03       		.byte	0x3
 9435 18b0 12000000 		.4byte	arp_table+18
 9436 18b4 00000000 		.4byte	0
 9437 18b8 00000000 		.4byte	0
 9438              	.LLST26:
 9439 18bc 00000000 		.4byte	.LFB13
 9440 18c0 02000000 		.4byte	.LCFI6
 9441 18c4 0200     		.2byte	0x2
 9442 18c6 7D       		.byte	0x7d
 9443 18c7 00       		.sleb128 0
 9444 18c8 02000000 		.4byte	.LCFI6
 9445 18cc 44000000 		.4byte	.LFE13
ARM GAS  C:\Users\jenny\AppData\Local\Temp\ccFzIZYt.s 			page 167


 9446 18d0 0200     		.2byte	0x2
 9447 18d2 7D       		.byte	0x7d
 9448 18d3 10       		.sleb128 16
 9449 18d4 00000000 		.4byte	0
 9450 18d8 00000000 		.4byte	0
 9451              	.LLST27:
 9452 18dc 00000000 		.4byte	.LVL229
 9453 18e0 0C000000 		.4byte	.LVL230
 9454 18e4 0100     		.2byte	0x1
 9455 18e6 50       		.byte	0x50
 9456 18e7 0C000000 		.4byte	.LVL230
 9457 18eb 36000000 		.4byte	.LVL234
 9458 18ef 0400     		.2byte	0x4
 9459 18f1 F3       		.byte	0xf3
 9460 18f2 01       		.uleb128 0x1
 9461 18f3 50       		.byte	0x50
 9462 18f4 9F       		.byte	0x9f
 9463 18f5 36000000 		.4byte	.LVL234
 9464 18f9 39000000 		.4byte	.LVL235-1
 9465 18fd 0100     		.2byte	0x1
 9466 18ff 50       		.byte	0x50
 9467 1900 39000000 		.4byte	.LVL235-1
 9468 1904 44000000 		.4byte	.LFE13
 9469 1908 0400     		.2byte	0x4
 9470 190a F3       		.byte	0xf3
 9471 190b 01       		.uleb128 0x1
 9472 190c 50       		.byte	0x50
 9473 190d 9F       		.byte	0x9f
 9474 190e 00000000 		.4byte	0
 9475 1912 00000000 		.4byte	0
 9476              	.LLST28:
 9477 1916 00000000 		.4byte	.LVL229
 9478 191a 0C000000 		.4byte	.LVL230
 9479 191e 0100     		.2byte	0x1
 9480 1920 51       		.byte	0x51
 9481 1921 0C000000 		.4byte	.LVL230
 9482 1925 1A000000 		.4byte	.LVL233
 9483 1929 0100     		.2byte	0x1
 9484 192b 55       		.byte	0x55
 9485 192c 1A000000 		.4byte	.LVL233
 9486 1930 36000000 		.4byte	.LVL234
 9487 1934 0400     		.2byte	0x4
 9488 1936 F3       		.byte	0xf3
 9489 1937 01       		.uleb128 0x1
 9490 1938 51       		.byte	0x51
 9491 1939 9F       		.byte	0x9f
 9492 193a 36000000 		.4byte	.LVL234
 9493 193e 39000000 		.4byte	.LVL235-1
 9494 1942 0100     		.2byte	0x1
 9495 1944 51       		.byte	0x51
 9496 1945 39000000 		.4byte	.LVL235-1
 9497 1949 3C000000 		.4byte	.LVL236
 9498 194d 0100     		.2byte	0x1
 9499 194f 55       		.byte	0x55
 9500 1950 3C000000 		.4byte	.LVL236
 9501 1954 44000000 		.4byte	.LFE13
 9502 1958 0400     		.2byte	0x4
ARM GAS  C:\Users\jenny\AppData\Local\Temp\ccFzIZYt.s 			page 168


 9503 195a F3       		.byte	0xf3
 9504 195b 01       		.uleb128 0x1
 9505 195c 51       		.byte	0x51
 9506 195d 9F       		.byte	0x9f
 9507 195e 00000000 		.4byte	0
 9508 1962 00000000 		.4byte	0
 9509              	.LLST29:
 9510 1966 00000000 		.4byte	.LVL229
 9511 196a 0C000000 		.4byte	.LVL230
 9512 196e 0100     		.2byte	0x1
 9513 1970 52       		.byte	0x52
 9514 1971 0C000000 		.4byte	.LVL230
 9515 1975 36000000 		.4byte	.LVL234
 9516 1979 0100     		.2byte	0x1
 9517 197b 54       		.byte	0x54
 9518 197c 36000000 		.4byte	.LVL234
 9519 1980 39000000 		.4byte	.LVL235-1
 9520 1984 0100     		.2byte	0x1
 9521 1986 52       		.byte	0x52
 9522 1987 39000000 		.4byte	.LVL235-1
 9523 198b 44000000 		.4byte	.LFE13
 9524 198f 0100     		.2byte	0x1
 9525 1991 54       		.byte	0x54
 9526 1992 00000000 		.4byte	0
 9527 1996 00000000 		.4byte	0
 9528              	.LLST30:
 9529 199a 00000000 		.4byte	.LVL229
 9530 199e 0C000000 		.4byte	.LVL230
 9531 19a2 0100     		.2byte	0x1
 9532 19a4 53       		.byte	0x53
 9533 19a5 0C000000 		.4byte	.LVL230
 9534 19a9 36000000 		.4byte	.LVL234
 9535 19ad 0100     		.2byte	0x1
 9536 19af 56       		.byte	0x56
 9537 19b0 36000000 		.4byte	.LVL234
 9538 19b4 39000000 		.4byte	.LVL235-1
 9539 19b8 0100     		.2byte	0x1
 9540 19ba 53       		.byte	0x53
 9541 19bb 39000000 		.4byte	.LVL235-1
 9542 19bf 44000000 		.4byte	.LFE13
 9543 19c3 0100     		.2byte	0x1
 9544 19c5 56       		.byte	0x56
 9545 19c6 00000000 		.4byte	0
 9546 19ca 00000000 		.4byte	0
 9547              	.LLST31:
 9548 19ce 14000000 		.4byte	.LVL231
 9549 19d2 16000000 		.4byte	.LVL232
 9550 19d6 0100     		.2byte	0x1
 9551 19d8 50       		.byte	0x50
 9552 19d9 00000000 		.4byte	0
 9553 19dd 00000000 		.4byte	0
 9554              	.LLST32:
 9555 19e1 00000000 		.4byte	.LFB19
 9556 19e5 04000000 		.4byte	.LCFI7
 9557 19e9 0200     		.2byte	0x2
 9558 19eb 7D       		.byte	0x7d
 9559 19ec 00       		.sleb128 0
ARM GAS  C:\Users\jenny\AppData\Local\Temp\ccFzIZYt.s 			page 169


 9560 19ed 04000000 		.4byte	.LCFI7
 9561 19f1 D8000000 		.4byte	.LFE19
 9562 19f5 0200     		.2byte	0x2
 9563 19f7 7D       		.byte	0x7d
 9564 19f8 20       		.sleb128 32
 9565 19f9 00000000 		.4byte	0
 9566 19fd 00000000 		.4byte	0
 9567              	.LLST33:
 9568 1a01 00000000 		.4byte	.LVL237
 9569 1a05 14000000 		.4byte	.LVL239
 9570 1a09 0100     		.2byte	0x1
 9571 1a0b 50       		.byte	0x50
 9572 1a0c 14000000 		.4byte	.LVL239
 9573 1a10 B8000000 		.4byte	.LVL252
 9574 1a14 0100     		.2byte	0x1
 9575 1a16 55       		.byte	0x55
 9576 1a17 B8000000 		.4byte	.LVL252
 9577 1a1b BB000000 		.4byte	.LVL253-1
 9578 1a1f 0100     		.2byte	0x1
 9579 1a21 50       		.byte	0x50
 9580 1a22 BB000000 		.4byte	.LVL253-1
 9581 1a26 D8000000 		.4byte	.LFE19
 9582 1a2a 0100     		.2byte	0x1
 9583 1a2c 55       		.byte	0x55
 9584 1a2d 00000000 		.4byte	0
 9585 1a31 00000000 		.4byte	0
 9586              	.LLST34:
 9587 1a35 00000000 		.4byte	.LVL237
 9588 1a39 14000000 		.4byte	.LVL239
 9589 1a3d 0100     		.2byte	0x1
 9590 1a3f 51       		.byte	0x51
 9591 1a40 14000000 		.4byte	.LVL239
 9592 1a44 B8000000 		.4byte	.LVL252
 9593 1a48 0100     		.2byte	0x1
 9594 1a4a 58       		.byte	0x58
 9595 1a4b B8000000 		.4byte	.LVL252
 9596 1a4f BB000000 		.4byte	.LVL253-1
 9597 1a53 0100     		.2byte	0x1
 9598 1a55 51       		.byte	0x51
 9599 1a56 BB000000 		.4byte	.LVL253-1
 9600 1a5a D8000000 		.4byte	.LFE19
 9601 1a5e 0100     		.2byte	0x1
 9602 1a60 58       		.byte	0x58
 9603 1a61 00000000 		.4byte	0
 9604 1a65 00000000 		.4byte	0
 9605              	.LLST35:
 9606 1a69 10000000 		.4byte	.LVL238
 9607 1a6d 14000000 		.4byte	.LVL239
 9608 1a71 0100     		.2byte	0x1
 9609 1a73 51       		.byte	0x51
 9610 1a74 14000000 		.4byte	.LVL239
 9611 1a78 B8000000 		.4byte	.LVL252
 9612 1a7c 0100     		.2byte	0x1
 9613 1a7e 58       		.byte	0x58
 9614 1a7f B8000000 		.4byte	.LVL252
 9615 1a83 BB000000 		.4byte	.LVL253-1
 9616 1a87 0100     		.2byte	0x1
ARM GAS  C:\Users\jenny\AppData\Local\Temp\ccFzIZYt.s 			page 170


 9617 1a89 51       		.byte	0x51
 9618 1a8a BB000000 		.4byte	.LVL253-1
 9619 1a8e D8000000 		.4byte	.LFE19
 9620 1a92 0100     		.2byte	0x1
 9621 1a94 58       		.byte	0x58
 9622 1a95 00000000 		.4byte	0
 9623 1a99 00000000 		.4byte	0
 9624              	.LLST36:
 9625 1a9d 10000000 		.4byte	.LVL238
 9626 1aa1 14000000 		.4byte	.LVL239
 9627 1aa5 0100     		.2byte	0x1
 9628 1aa7 50       		.byte	0x50
 9629 1aa8 14000000 		.4byte	.LVL239
 9630 1aac B8000000 		.4byte	.LVL252
 9631 1ab0 0100     		.2byte	0x1
 9632 1ab2 55       		.byte	0x55
 9633 1ab3 B8000000 		.4byte	.LVL252
 9634 1ab7 BB000000 		.4byte	.LVL253-1
 9635 1abb 0100     		.2byte	0x1
 9636 1abd 50       		.byte	0x50
 9637 1abe BB000000 		.4byte	.LVL253-1
 9638 1ac2 D8000000 		.4byte	.LFE19
 9639 1ac6 0100     		.2byte	0x1
 9640 1ac8 55       		.byte	0x55
 9641 1ac9 00000000 		.4byte	0
 9642 1acd 00000000 		.4byte	0
 9643              	.LLST37:
 9644 1ad1 1E000000 		.4byte	.LVL240
 9645 1ad5 2A000000 		.4byte	.LVL241
 9646 1ad9 0100     		.2byte	0x1
 9647 1adb 50       		.byte	0x50
 9648 1adc 2A000000 		.4byte	.LVL241
 9649 1ae0 AC000000 		.4byte	.LVL249
 9650 1ae4 0100     		.2byte	0x1
 9651 1ae6 56       		.byte	0x56
 9652 1ae7 B2000000 		.4byte	.LVL250
 9653 1aeb B5000000 		.4byte	.LVL251-1
 9654 1aef 0100     		.2byte	0x1
 9655 1af1 50       		.byte	0x50
 9656 1af2 B5000000 		.4byte	.LVL251-1
 9657 1af6 B8000000 		.4byte	.LVL252
 9658 1afa 0100     		.2byte	0x1
 9659 1afc 56       		.byte	0x56
 9660 1afd BE000000 		.4byte	.LVL254
 9661 1b01 C0000000 		.4byte	.LVL255
 9662 1b05 0100     		.2byte	0x1
 9663 1b07 50       		.byte	0x50
 9664 1b08 C0000000 		.4byte	.LVL255
 9665 1b0c D8000000 		.4byte	.LFE19
 9666 1b10 0100     		.2byte	0x1
 9667 1b12 56       		.byte	0x56
 9668 1b13 00000000 		.4byte	0
 9669 1b17 00000000 		.4byte	0
 9670              	.LLST38:
 9671 1b1b 10000000 		.4byte	.LVL238
 9672 1b1f A2000000 		.4byte	.LVL247
 9673 1b23 0200     		.2byte	0x2
ARM GAS  C:\Users\jenny\AppData\Local\Temp\ccFzIZYt.s 			page 171


 9674 1b25 30       		.byte	0x30
 9675 1b26 9F       		.byte	0x9f
 9676 1b27 A2000000 		.4byte	.LVL247
 9677 1b2b A6000000 		.4byte	.LVL248
 9678 1b2f 0100     		.2byte	0x1
 9679 1b31 50       		.byte	0x50
 9680 1b32 A6000000 		.4byte	.LVL248
 9681 1b36 AC000000 		.4byte	.LVL249
 9682 1b3a 0100     		.2byte	0x1
 9683 1b3c 54       		.byte	0x54
 9684 1b3d B2000000 		.4byte	.LVL250
 9685 1b41 D8000000 		.4byte	.LFE19
 9686 1b45 0200     		.2byte	0x2
 9687 1b47 30       		.byte	0x30
 9688 1b48 9F       		.byte	0x9f
 9689 1b49 00000000 		.4byte	0
 9690 1b4d 00000000 		.4byte	0
 9691              	.LLST39:
 9692 1b51 2E000000 		.4byte	.LVL242
 9693 1b55 96000000 		.4byte	.LVL245
 9694 1b59 0100     		.2byte	0x1
 9695 1b5b 54       		.byte	0x54
 9696 1b5c 00000000 		.4byte	0
 9697 1b60 00000000 		.4byte	0
 9698              	.LLST40:
 9699 1b64 2E000000 		.4byte	.LVL242
 9700 1b68 96000000 		.4byte	.LVL245
 9701 1b6c 0300     		.2byte	0x3
 9702 1b6e 74       		.byte	0x74
 9703 1b6f 0E       		.sleb128 14
 9704 1b70 9F       		.byte	0x9f
 9705 1b71 00000000 		.4byte	0
 9706 1b75 00000000 		.4byte	0
 9707              	.LLST41:
 9708 1b79 00000000 		.4byte	.LFB17
 9709 1b7d 04000000 		.4byte	.LCFI8
 9710 1b81 0200     		.2byte	0x2
 9711 1b83 7D       		.byte	0x7d
 9712 1b84 00       		.sleb128 0
 9713 1b85 04000000 		.4byte	.LCFI8
 9714 1b89 38010000 		.4byte	.LFE17
 9715 1b8d 0200     		.2byte	0x2
 9716 1b8f 7D       		.byte	0x7d
 9717 1b90 20       		.sleb128 32
 9718 1b91 00000000 		.4byte	0
 9719 1b95 00000000 		.4byte	0
 9720              	.LLST42:
 9721 1b99 00000000 		.4byte	.LVL256
 9722 1b9d 0C000000 		.4byte	.LVL259
 9723 1ba1 0100     		.2byte	0x1
 9724 1ba3 50       		.byte	0x50
 9725 1ba4 0C000000 		.4byte	.LVL259
 9726 1ba8 11000000 		.4byte	.LVL260-1
 9727 1bac 0100     		.2byte	0x1
 9728 1bae 51       		.byte	0x51
 9729 1baf 11000000 		.4byte	.LVL260-1
 9730 1bb3 38010000 		.4byte	.LFE17
ARM GAS  C:\Users\jenny\AppData\Local\Temp\ccFzIZYt.s 			page 172


 9731 1bb7 0100     		.2byte	0x1
 9732 1bb9 56       		.byte	0x56
 9733 1bba 00000000 		.4byte	0
 9734 1bbe 00000000 		.4byte	0
 9735              	.LLST43:
 9736 1bc2 00000000 		.4byte	.LVL256
 9737 1bc6 0A000000 		.4byte	.LVL258
 9738 1bca 0100     		.2byte	0x1
 9739 1bcc 51       		.byte	0x51
 9740 1bcd 0A000000 		.4byte	.LVL258
 9741 1bd1 7A000000 		.4byte	.LVL265
 9742 1bd5 0100     		.2byte	0x1
 9743 1bd7 54       		.byte	0x54
 9744 1bd8 7A000000 		.4byte	.LVL265
 9745 1bdc 8E000000 		.4byte	.LVL266
 9746 1be0 0400     		.2byte	0x4
 9747 1be2 F3       		.byte	0xf3
 9748 1be3 01       		.uleb128 0x1
 9749 1be4 51       		.byte	0x51
 9750 1be5 9F       		.byte	0x9f
 9751 1be6 8E000000 		.4byte	.LVL266
 9752 1bea 92000000 		.4byte	.LVL267
 9753 1bee 0100     		.2byte	0x1
 9754 1bf0 54       		.byte	0x54
 9755 1bf1 92000000 		.4byte	.LVL267
 9756 1bf5 98000000 		.4byte	.LVL268
 9757 1bf9 0400     		.2byte	0x4
 9758 1bfb F3       		.byte	0xf3
 9759 1bfc 01       		.uleb128 0x1
 9760 1bfd 51       		.byte	0x51
 9761 1bfe 9F       		.byte	0x9f
 9762 1bff 98000000 		.4byte	.LVL268
 9763 1c03 C0000000 		.4byte	.LVL271
 9764 1c07 0100     		.2byte	0x1
 9765 1c09 54       		.byte	0x54
 9766 1c0a C0000000 		.4byte	.LVL271
 9767 1c0e 38010000 		.4byte	.LFE17
 9768 1c12 0400     		.2byte	0x4
 9769 1c14 F3       		.byte	0xf3
 9770 1c15 01       		.uleb128 0x1
 9771 1c16 51       		.byte	0x51
 9772 1c17 9F       		.byte	0x9f
 9773 1c18 00000000 		.4byte	0
 9774 1c1c 00000000 		.4byte	0
 9775              	.LLST44:
 9776 1c20 00000000 		.4byte	.LVL256
 9777 1c24 11000000 		.4byte	.LVL260-1
 9778 1c28 0100     		.2byte	0x1
 9779 1c2a 52       		.byte	0x52
 9780 1c2b 11000000 		.4byte	.LVL260-1
 9781 1c2f 38010000 		.4byte	.LFE17
 9782 1c33 0100     		.2byte	0x1
 9783 1c35 57       		.byte	0x57
 9784 1c36 00000000 		.4byte	0
 9785 1c3a 00000000 		.4byte	0
 9786              	.LLST45:
 9787 1c3e 08000000 		.4byte	.LVL257
ARM GAS  C:\Users\jenny\AppData\Local\Temp\ccFzIZYt.s 			page 173


 9788 1c42 0C000000 		.4byte	.LVL259
 9789 1c46 0300     		.2byte	0x3
 9790 1c48 70       		.byte	0x70
 9791 1c49 23       		.sleb128 35
 9792 1c4a 9F       		.byte	0x9f
 9793 1c4b 0C000000 		.4byte	.LVL259
 9794 1c4f 11000000 		.4byte	.LVL260-1
 9795 1c53 0300     		.2byte	0x3
 9796 1c55 71       		.byte	0x71
 9797 1c56 23       		.sleb128 35
 9798 1c57 9F       		.byte	0x9f
 9799 1c58 11000000 		.4byte	.LVL260-1
 9800 1c5c 38010000 		.4byte	.LFE17
 9801 1c60 0300     		.2byte	0x3
 9802 1c62 76       		.byte	0x76
 9803 1c63 23       		.sleb128 35
 9804 1c64 9F       		.byte	0x9f
 9805 1c65 00000000 		.4byte	0
 9806 1c69 00000000 		.4byte	0
 9807              	.LLST46:
 9808 1c6d 08000000 		.4byte	.LVL257
 9809 1c71 62000000 		.4byte	.LVL263
 9810 1c75 0300     		.2byte	0x3
 9811 1c77 09       		.byte	0x9
 9812 1c78 FF       		.byte	0xff
 9813 1c79 9F       		.byte	0x9f
 9814 1c7a 62000000 		.4byte	.LVL263
 9815 1c7e 72000000 		.4byte	.LVL264
 9816 1c82 0100     		.2byte	0x1
 9817 1c84 50       		.byte	0x50
 9818 1c85 8E000000 		.4byte	.LVL266
 9819 1c89 92000000 		.4byte	.LVL267
 9820 1c8d 0100     		.2byte	0x1
 9821 1c8f 50       		.byte	0x50
 9822 1c90 98000000 		.4byte	.LVL268
 9823 1c94 BE000000 		.4byte	.LVL270
 9824 1c98 0300     		.2byte	0x3
 9825 1c9a 09       		.byte	0x9
 9826 1c9b FF       		.byte	0xff
 9827 1c9c 9F       		.byte	0x9f
 9828 1c9d BE000000 		.4byte	.LVL270
 9829 1ca1 C2000000 		.4byte	.LVL272
 9830 1ca5 0100     		.2byte	0x1
 9831 1ca7 50       		.byte	0x50
 9832 1ca8 0C010000 		.4byte	.LVL281
 9833 1cac 0E010000 		.4byte	.LVL282
 9834 1cb0 0200     		.2byte	0x2
 9835 1cb2 30       		.byte	0x30
 9836 1cb3 9F       		.byte	0x9f
 9837 1cb4 26010000 		.4byte	.LVL286
 9838 1cb8 38010000 		.4byte	.LFE17
 9839 1cbc 0300     		.2byte	0x3
 9840 1cbe 09       		.byte	0x9
 9841 1cbf FF       		.byte	0xff
 9842 1cc0 9F       		.byte	0x9f
 9843 1cc1 00000000 		.4byte	0
 9844 1cc5 00000000 		.4byte	0
ARM GAS  C:\Users\jenny\AppData\Local\Temp\ccFzIZYt.s 			page 174


 9845              	.LLST47:
 9846 1cc9 2C000000 		.4byte	.LVL261
 9847 1ccd 3C000000 		.4byte	.LVL262
 9848 1cd1 0100     		.2byte	0x1
 9849 1cd3 50       		.byte	0x50
 9850 1cd4 98000000 		.4byte	.LVL268
 9851 1cd8 9E000000 		.4byte	.LVL269
 9852 1cdc 0100     		.2byte	0x1
 9853 1cde 50       		.byte	0x50
 9854 1cdf 00000000 		.4byte	0
 9855 1ce3 00000000 		.4byte	0
 9856              	.LLST48:
 9857 1ce7 CA000000 		.4byte	.LVL273
 9858 1ceb CC000000 		.4byte	.LVL274
 9859 1cef 0100     		.2byte	0x1
 9860 1cf1 54       		.byte	0x54
 9861 1cf2 EA000000 		.4byte	.LVL277
 9862 1cf6 F3000000 		.4byte	.LVL278-1
 9863 1cfa 0100     		.2byte	0x1
 9864 1cfc 50       		.byte	0x50
 9865 1cfd F3000000 		.4byte	.LVL278-1
 9866 1d01 0E010000 		.4byte	.LVL282
 9867 1d05 0100     		.2byte	0x1
 9868 1d07 54       		.byte	0x54
 9869 1d08 0E010000 		.4byte	.LVL282
 9870 1d0c 18010000 		.4byte	.LVL284
 9871 1d10 0100     		.2byte	0x1
 9872 1d12 57       		.byte	0x57
 9873 1d13 18010000 		.4byte	.LVL284
 9874 1d17 1E010000 		.4byte	.LVL285
 9875 1d1b 0100     		.2byte	0x1
 9876 1d1d 54       		.byte	0x54
 9877 1d1e 1E010000 		.4byte	.LVL285
 9878 1d22 38010000 		.4byte	.LFE17
 9879 1d26 0200     		.2byte	0x2
 9880 1d28 30       		.byte	0x30
 9881 1d29 9F       		.byte	0x9f
 9882 1d2a 00000000 		.4byte	0
 9883 1d2e 00000000 		.4byte	0
 9884              	.LLST49:
 9885 1d32 E0000000 		.4byte	.LVL276
 9886 1d36 F6000000 		.4byte	.LVL279
 9887 1d3a 0200     		.2byte	0x2
 9888 1d3c 31       		.byte	0x31
 9889 1d3d 9F       		.byte	0x9f
 9890 1d3e 0E010000 		.4byte	.LVL282
 9891 1d42 18010000 		.4byte	.LVL284
 9892 1d46 0200     		.2byte	0x2
 9893 1d48 30       		.byte	0x30
 9894 1d49 9F       		.byte	0x9f
 9895 1d4a 18010000 		.4byte	.LVL284
 9896 1d4e 38010000 		.4byte	.LFE17
 9897 1d52 0200     		.2byte	0x2
 9898 1d54 31       		.byte	0x31
 9899 1d55 9F       		.byte	0x9f
 9900 1d56 00000000 		.4byte	0
 9901 1d5a 00000000 		.4byte	0
ARM GAS  C:\Users\jenny\AppData\Local\Temp\ccFzIZYt.s 			page 175


 9902              	.LLST50:
 9903 1d5e 00000000 		.4byte	.LFB15
 9904 1d62 04000000 		.4byte	.LCFI9
 9905 1d66 0200     		.2byte	0x2
 9906 1d68 7D       		.byte	0x7d
 9907 1d69 00       		.sleb128 0
 9908 1d6a 04000000 		.4byte	.LCFI9
 9909 1d6e 70000000 		.4byte	.LFE15
 9910 1d72 0200     		.2byte	0x2
 9911 1d74 7D       		.byte	0x7d
 9912 1d75 20       		.sleb128 32
 9913 1d76 00000000 		.4byte	0
 9914 1d7a 00000000 		.4byte	0
 9915              	.LLST51:
 9916 1d7e 00000000 		.4byte	.LVL287
 9917 1d82 20000000 		.4byte	.LVL289
 9918 1d86 0100     		.2byte	0x1
 9919 1d88 50       		.byte	0x50
 9920 1d89 20000000 		.4byte	.LVL289
 9921 1d8d 60000000 		.4byte	.LVL292
 9922 1d91 0100     		.2byte	0x1
 9923 1d93 57       		.byte	0x57
 9924 1d94 60000000 		.4byte	.LVL292
 9925 1d98 63000000 		.4byte	.LVL293-1
 9926 1d9c 0100     		.2byte	0x1
 9927 1d9e 50       		.byte	0x50
 9928 1d9f 63000000 		.4byte	.LVL293-1
 9929 1da3 70000000 		.4byte	.LFE15
 9930 1da7 0100     		.2byte	0x1
 9931 1da9 57       		.byte	0x57
 9932 1daa 00000000 		.4byte	0
 9933 1dae 00000000 		.4byte	0
 9934              	.LLST52:
 9935 1db2 00000000 		.4byte	.LVL287
 9936 1db6 20000000 		.4byte	.LVL289
 9937 1dba 0100     		.2byte	0x1
 9938 1dbc 51       		.byte	0x51
 9939 1dbd 20000000 		.4byte	.LVL289
 9940 1dc1 60000000 		.4byte	.LVL292
 9941 1dc5 0100     		.2byte	0x1
 9942 1dc7 59       		.byte	0x59
 9943 1dc8 60000000 		.4byte	.LVL292
 9944 1dcc 63000000 		.4byte	.LVL293-1
 9945 1dd0 0100     		.2byte	0x1
 9946 1dd2 51       		.byte	0x51
 9947 1dd3 63000000 		.4byte	.LVL293-1
 9948 1dd7 70000000 		.4byte	.LFE15
 9949 1ddb 0100     		.2byte	0x1
 9950 1ddd 59       		.byte	0x59
 9951 1dde 00000000 		.4byte	0
 9952 1de2 00000000 		.4byte	0
 9953              	.LLST53:
 9954 1de6 00000000 		.4byte	.LVL287
 9955 1dea 12000000 		.4byte	.LVL288
 9956 1dee 0100     		.2byte	0x1
 9957 1df0 52       		.byte	0x52
 9958 1df1 12000000 		.4byte	.LVL288
ARM GAS  C:\Users\jenny\AppData\Local\Temp\ccFzIZYt.s 			page 176


 9959 1df5 70000000 		.4byte	.LFE15
 9960 1df9 0400     		.2byte	0x4
 9961 1dfb F3       		.byte	0xf3
 9962 1dfc 01       		.uleb128 0x1
 9963 1dfd 52       		.byte	0x52
 9964 1dfe 9F       		.byte	0x9f
 9965 1dff 00000000 		.4byte	0
 9966 1e03 00000000 		.4byte	0
 9967              	.LLST54:
 9968 1e07 00000000 		.4byte	.LFB16
 9969 1e0b 02000000 		.4byte	.LCFI10
 9970 1e0f 0200     		.2byte	0x2
 9971 1e11 7D       		.byte	0x7d
 9972 1e12 00       		.sleb128 0
 9973 1e13 02000000 		.4byte	.LCFI10
 9974 1e17 06000000 		.4byte	.LCFI11
 9975 1e1b 0200     		.2byte	0x2
 9976 1e1d 7D       		.byte	0x7d
 9977 1e1e 14       		.sleb128 20
 9978 1e1f 06000000 		.4byte	.LCFI11
 9979 1e23 08020000 		.4byte	.LFE16
 9980 1e27 0200     		.2byte	0x2
 9981 1e29 7D       		.byte	0x7d
 9982 1e2a 20       		.sleb128 32
 9983 1e2b 00000000 		.4byte	0
 9984 1e2f 00000000 		.4byte	0
 9985              	.LLST55:
 9986 1e33 00000000 		.4byte	.LVL294
 9987 1e37 16000000 		.4byte	.LVL296
 9988 1e3b 0100     		.2byte	0x1
 9989 1e3d 50       		.byte	0x50
 9990 1e3e 16000000 		.4byte	.LVL296
 9991 1e42 4E010000 		.4byte	.LVL311
 9992 1e46 0100     		.2byte	0x1
 9993 1e48 54       		.byte	0x54
 9994 1e49 4E010000 		.4byte	.LVL311
 9995 1e4d 54010000 		.4byte	.LVL312
 9996 1e51 0400     		.2byte	0x4
 9997 1e53 F3       		.byte	0xf3
 9998 1e54 01       		.uleb128 0x1
 9999 1e55 50       		.byte	0x50
 10000 1e56 9F       		.byte	0x9f
 10001 1e57 54010000 		.4byte	.LVL312
 10002 1e5b 8E010000 		.4byte	.LVL316
 10003 1e5f 0100     		.2byte	0x1
 10004 1e61 54       		.byte	0x54
 10005 1e62 8E010000 		.4byte	.LVL316
 10006 1e66 91010000 		.4byte	.LVL317-1
 10007 1e6a 0100     		.2byte	0x1
 10008 1e6c 50       		.byte	0x50
 10009 1e6d 91010000 		.4byte	.LVL317-1
 10010 1e71 B8010000 		.4byte	.LVL322
 10011 1e75 0100     		.2byte	0x1
 10012 1e77 54       		.byte	0x54
 10013 1e78 B8010000 		.4byte	.LVL322
 10014 1e7c BF010000 		.4byte	.LVL323-1
 10015 1e80 0100     		.2byte	0x1
ARM GAS  C:\Users\jenny\AppData\Local\Temp\ccFzIZYt.s 			page 177


 10016 1e82 50       		.byte	0x50
 10017 1e83 BF010000 		.4byte	.LVL323-1
 10018 1e87 C2010000 		.4byte	.LVL324
 10019 1e8b 0400     		.2byte	0x4
 10020 1e8d F3       		.byte	0xf3
 10021 1e8e 01       		.uleb128 0x1
 10022 1e8f 50       		.byte	0x50
 10023 1e90 9F       		.byte	0x9f
 10024 1e91 C2010000 		.4byte	.LVL324
 10025 1e95 08020000 		.4byte	.LFE16
 10026 1e99 0100     		.2byte	0x1
 10027 1e9b 54       		.byte	0x54
 10028 1e9c 00000000 		.4byte	0
 10029 1ea0 00000000 		.4byte	0
 10030              	.LLST56:
 10031 1ea4 00000000 		.4byte	.LVL294
 10032 1ea8 16000000 		.4byte	.LVL296
 10033 1eac 0100     		.2byte	0x1
 10034 1eae 51       		.byte	0x51
 10035 1eaf 16000000 		.4byte	.LVL296
 10036 1eb3 8E010000 		.4byte	.LVL316
 10037 1eb7 0100     		.2byte	0x1
 10038 1eb9 56       		.byte	0x56
 10039 1eba 8E010000 		.4byte	.LVL316
 10040 1ebe 91010000 		.4byte	.LVL317-1
 10041 1ec2 0100     		.2byte	0x1
 10042 1ec4 51       		.byte	0x51
 10043 1ec5 91010000 		.4byte	.LVL317-1
 10044 1ec9 08020000 		.4byte	.LFE16
 10045 1ecd 0100     		.2byte	0x1
 10046 1ecf 56       		.byte	0x56
 10047 1ed0 00000000 		.4byte	0
 10048 1ed4 00000000 		.4byte	0
 10049              	.LLST57:
 10050 1ed8 00000000 		.4byte	.LVL294
 10051 1edc 16000000 		.4byte	.LVL296
 10052 1ee0 0100     		.2byte	0x1
 10053 1ee2 52       		.byte	0x52
 10054 1ee3 16000000 		.4byte	.LVL296
 10055 1ee7 6A000000 		.4byte	.LVL300
 10056 1eeb 0100     		.2byte	0x1
 10057 1eed 55       		.byte	0x55
 10058 1eee 6A000000 		.4byte	.LVL300
 10059 1ef2 54010000 		.4byte	.LVL312
 10060 1ef6 0400     		.2byte	0x4
 10061 1ef8 F3       		.byte	0xf3
 10062 1ef9 01       		.uleb128 0x1
 10063 1efa 52       		.byte	0x52
 10064 1efb 9F       		.byte	0x9f
 10065 1efc 54010000 		.4byte	.LVL312
 10066 1f00 8E010000 		.4byte	.LVL316
 10067 1f04 0100     		.2byte	0x1
 10068 1f06 55       		.byte	0x55
 10069 1f07 8E010000 		.4byte	.LVL316
 10070 1f0b 91010000 		.4byte	.LVL317-1
 10071 1f0f 0100     		.2byte	0x1
 10072 1f11 52       		.byte	0x52
ARM GAS  C:\Users\jenny\AppData\Local\Temp\ccFzIZYt.s 			page 178


 10073 1f12 91010000 		.4byte	.LVL317-1
 10074 1f16 B0010000 		.4byte	.LVL320
 10075 1f1a 0100     		.2byte	0x1
 10076 1f1c 55       		.byte	0x55
 10077 1f1d B0010000 		.4byte	.LVL320
 10078 1f21 08020000 		.4byte	.LFE16
 10079 1f25 0400     		.2byte	0x4
 10080 1f27 F3       		.byte	0xf3
 10081 1f28 01       		.uleb128 0x1
 10082 1f29 52       		.byte	0x52
 10083 1f2a 9F       		.byte	0x9f
 10084 1f2b 00000000 		.4byte	0
 10085 1f2f 00000000 		.4byte	0
 10086              	.LLST58:
 10087 1f33 56010000 		.4byte	.LVL313
 10088 1f37 61010000 		.4byte	.LVL314-1
 10089 1f3b 0100     		.2byte	0x1
 10090 1f3d 53       		.byte	0x53
 10091 1f3e 7E010000 		.4byte	.LVL315
 10092 1f42 8E010000 		.4byte	.LVL316
 10093 1f46 0100     		.2byte	0x1
 10094 1f48 5D       		.byte	0x5d
 10095 1f49 00000000 		.4byte	0
 10096 1f4d 00000000 		.4byte	0
 10097              	.LLST59:
 10098 1f51 0A000000 		.4byte	.LVL295
 10099 1f55 16000000 		.4byte	.LVL296
 10100 1f59 0100     		.2byte	0x1
 10101 1f5b 52       		.byte	0x52
 10102 1f5c 16000000 		.4byte	.LVL296
 10103 1f60 68000000 		.4byte	.LVL299
 10104 1f64 0100     		.2byte	0x1
 10105 1f66 55       		.byte	0x55
 10106 1f67 68000000 		.4byte	.LVL299
 10107 1f6b 4D010000 		.4byte	.LVL311-1
 10108 1f6f 0100     		.2byte	0x1
 10109 1f71 51       		.byte	0x51
 10110 1f72 54010000 		.4byte	.LVL312
 10111 1f76 8E010000 		.4byte	.LVL316
 10112 1f7a 0100     		.2byte	0x1
 10113 1f7c 55       		.byte	0x55
 10114 1f7d 8E010000 		.4byte	.LVL316
 10115 1f81 91010000 		.4byte	.LVL317-1
 10116 1f85 0100     		.2byte	0x1
 10117 1f87 52       		.byte	0x52
 10118 1f88 91010000 		.4byte	.LVL317-1
 10119 1f8c B0010000 		.4byte	.LVL320
 10120 1f90 0100     		.2byte	0x1
 10121 1f92 55       		.byte	0x55
 10122 1f93 B0010000 		.4byte	.LVL320
 10123 1f97 B4010000 		.4byte	.LVL321
 10124 1f9b 0100     		.2byte	0x1
 10125 1f9d 51       		.byte	0x51
 10126 1f9e C2010000 		.4byte	.LVL324
 10127 1fa2 C4010000 		.4byte	.LVL325
 10128 1fa6 0100     		.2byte	0x1
 10129 1fa8 51       		.byte	0x51
ARM GAS  C:\Users\jenny\AppData\Local\Temp\ccFzIZYt.s 			page 179


 10130 1fa9 D4010000 		.4byte	.LVL327
 10131 1fad D6010000 		.4byte	.LVL328
 10132 1fb1 0100     		.2byte	0x1
 10133 1fb3 51       		.byte	0x51
 10134 1fb4 D8010000 		.4byte	.LVL329
 10135 1fb8 DA010000 		.4byte	.LVL330
 10136 1fbc 0100     		.2byte	0x1
 10137 1fbe 51       		.byte	0x51
 10138 1fbf DC010000 		.4byte	.LVL331
 10139 1fc3 DE010000 		.4byte	.LVL332
 10140 1fc7 0100     		.2byte	0x1
 10141 1fc9 51       		.byte	0x51
 10142 1fca E0010000 		.4byte	.LVL333
 10143 1fce E2010000 		.4byte	.LVL334
 10144 1fd2 0100     		.2byte	0x1
 10145 1fd4 51       		.byte	0x51
 10146 1fd5 E4010000 		.4byte	.LVL335
 10147 1fd9 E6010000 		.4byte	.LVL336
 10148 1fdd 0100     		.2byte	0x1
 10149 1fdf 51       		.byte	0x51
 10150 1fe0 E8010000 		.4byte	.LVL337
 10151 1fe4 EA010000 		.4byte	.LVL338
 10152 1fe8 0100     		.2byte	0x1
 10153 1fea 51       		.byte	0x51
 10154 1feb EC010000 		.4byte	.LVL339
 10155 1fef EE010000 		.4byte	.LVL340
 10156 1ff3 0100     		.2byte	0x1
 10157 1ff5 51       		.byte	0x51
 10158 1ff6 F0010000 		.4byte	.LVL341
 10159 1ffa F2010000 		.4byte	.LVL342
 10160 1ffe 0100     		.2byte	0x1
 10161 2000 51       		.byte	0x51
 10162 2001 F4010000 		.4byte	.LVL343
 10163 2005 F6010000 		.4byte	.LVL344
 10164 2009 0100     		.2byte	0x1
 10165 200b 51       		.byte	0x51
 10166 200c 00000000 		.4byte	0
 10167 2010 00000000 		.4byte	0
 10168              	.LLST60:
 10169 2014 98000000 		.4byte	.LVL301
 10170 2018 AC000000 		.4byte	.LVL302
 10171 201c 0200     		.2byte	0x2
 10172 201e 31       		.byte	0x31
 10173 201f 9F       		.byte	0x9f
 10174 2020 AC000000 		.4byte	.LVL302
 10175 2024 C0000000 		.4byte	.LVL303
 10176 2028 0200     		.2byte	0x2
 10177 202a 32       		.byte	0x32
 10178 202b 9F       		.byte	0x9f
 10179 202c C0000000 		.4byte	.LVL303
 10180 2030 D4000000 		.4byte	.LVL304
 10181 2034 0200     		.2byte	0x2
 10182 2036 33       		.byte	0x33
 10183 2037 9F       		.byte	0x9f
 10184 2038 D4000000 		.4byte	.LVL304
 10185 203c E6000000 		.4byte	.LVL305
 10186 2040 0200     		.2byte	0x2
ARM GAS  C:\Users\jenny\AppData\Local\Temp\ccFzIZYt.s 			page 180


 10187 2042 34       		.byte	0x34
 10188 2043 9F       		.byte	0x9f
 10189 2044 E6000000 		.4byte	.LVL305
 10190 2048 F8000000 		.4byte	.LVL306
 10191 204c 0200     		.2byte	0x2
 10192 204e 35       		.byte	0x35
 10193 204f 9F       		.byte	0x9f
 10194 2050 F8000000 		.4byte	.LVL306
 10195 2054 0A010000 		.4byte	.LVL307
 10196 2058 0200     		.2byte	0x2
 10197 205a 36       		.byte	0x36
 10198 205b 9F       		.byte	0x9f
 10199 205c 0A010000 		.4byte	.LVL307
 10200 2060 1E010000 		.4byte	.LVL308
 10201 2064 0200     		.2byte	0x2
 10202 2066 37       		.byte	0x37
 10203 2067 9F       		.byte	0x9f
 10204 2068 1E010000 		.4byte	.LVL308
 10205 206c 32010000 		.4byte	.LVL309
 10206 2070 0200     		.2byte	0x2
 10207 2072 38       		.byte	0x38
 10208 2073 9F       		.byte	0x9f
 10209 2074 32010000 		.4byte	.LVL309
 10210 2078 46010000 		.4byte	.LVL310
 10211 207c 0200     		.2byte	0x2
 10212 207e 39       		.byte	0x39
 10213 207f 9F       		.byte	0x9f
 10214 2080 46010000 		.4byte	.LVL310
 10215 2084 4E010000 		.4byte	.LVL311
 10216 2088 0200     		.2byte	0x2
 10217 208a 3A       		.byte	0x3a
 10218 208b 9F       		.byte	0x9f
 10219 208c D4010000 		.4byte	.LVL327
 10220 2090 D8010000 		.4byte	.LVL329
 10221 2094 0200     		.2byte	0x2
 10222 2096 31       		.byte	0x31
 10223 2097 9F       		.byte	0x9f
 10224 2098 D8010000 		.4byte	.LVL329
 10225 209c DC010000 		.4byte	.LVL331
 10226 20a0 0200     		.2byte	0x2
 10227 20a2 32       		.byte	0x32
 10228 20a3 9F       		.byte	0x9f
 10229 20a4 DC010000 		.4byte	.LVL331
 10230 20a8 E0010000 		.4byte	.LVL333
 10231 20ac 0200     		.2byte	0x2
 10232 20ae 33       		.byte	0x33
 10233 20af 9F       		.byte	0x9f
 10234 20b0 E0010000 		.4byte	.LVL333
 10235 20b4 E4010000 		.4byte	.LVL335
 10236 20b8 0200     		.2byte	0x2
 10237 20ba 34       		.byte	0x34
 10238 20bb 9F       		.byte	0x9f
 10239 20bc E4010000 		.4byte	.LVL335
 10240 20c0 E8010000 		.4byte	.LVL337
 10241 20c4 0200     		.2byte	0x2
 10242 20c6 35       		.byte	0x35
 10243 20c7 9F       		.byte	0x9f
ARM GAS  C:\Users\jenny\AppData\Local\Temp\ccFzIZYt.s 			page 181


 10244 20c8 E8010000 		.4byte	.LVL337
 10245 20cc EC010000 		.4byte	.LVL339
 10246 20d0 0200     		.2byte	0x2
 10247 20d2 36       		.byte	0x36
 10248 20d3 9F       		.byte	0x9f
 10249 20d4 EC010000 		.4byte	.LVL339
 10250 20d8 F0010000 		.4byte	.LVL341
 10251 20dc 0200     		.2byte	0x2
 10252 20de 37       		.byte	0x37
 10253 20df 9F       		.byte	0x9f
 10254 20e0 F0010000 		.4byte	.LVL341
 10255 20e4 F4010000 		.4byte	.LVL343
 10256 20e8 0200     		.2byte	0x2
 10257 20ea 38       		.byte	0x38
 10258 20eb 9F       		.byte	0x9f
 10259 20ec F4010000 		.4byte	.LVL343
 10260 20f0 08020000 		.4byte	.LFE16
 10261 20f4 0200     		.2byte	0x2
 10262 20f6 39       		.byte	0x39
 10263 20f7 9F       		.byte	0x9f
 10264 20f8 00000000 		.4byte	0
 10265 20fc 00000000 		.4byte	0
 10266              	.LLST61:
 10267 2100 00000000 		.4byte	.LFB20
 10268 2104 04000000 		.4byte	.LCFI12
 10269 2108 0200     		.2byte	0x2
 10270 210a 7D       		.byte	0x7d
 10271 210b 00       		.sleb128 0
 10272 210c 04000000 		.4byte	.LCFI12
 10273 2110 0A000000 		.4byte	.LCFI13
 10274 2114 0200     		.2byte	0x2
 10275 2116 7D       		.byte	0x7d
 10276 2117 24       		.sleb128 36
 10277 2118 0A000000 		.4byte	.LCFI13
 10278 211c 34020000 		.4byte	.LFE20
 10279 2120 0300     		.2byte	0x3
 10280 2122 7D       		.byte	0x7d
 10281 2123 C000     		.sleb128 64
 10282 2125 00000000 		.4byte	0
 10283 2129 00000000 		.4byte	0
 10284              	.LLST62:
 10285 212d 00000000 		.4byte	.LVL345
 10286 2131 22000000 		.4byte	.LVL348
 10287 2135 0100     		.2byte	0x1
 10288 2137 50       		.byte	0x50
 10289 2138 22000000 		.4byte	.LVL348
 10290 213c B2000000 		.4byte	.LVL359
 10291 2140 0100     		.2byte	0x1
 10292 2142 54       		.byte	0x54
 10293 2143 B2000000 		.4byte	.LVL359
 10294 2147 C0000000 		.4byte	.LVL360
 10295 214b 0100     		.2byte	0x1
 10296 214d 50       		.byte	0x50
 10297 214e C0000000 		.4byte	.LVL360
 10298 2152 34020000 		.4byte	.LFE20
 10299 2156 0100     		.2byte	0x1
 10300 2158 54       		.byte	0x54
ARM GAS  C:\Users\jenny\AppData\Local\Temp\ccFzIZYt.s 			page 182


 10301 2159 00000000 		.4byte	0
 10302 215d 00000000 		.4byte	0
 10303              	.LLST63:
 10304 2161 00000000 		.4byte	.LVL345
 10305 2165 24000000 		.4byte	.LVL349
 10306 2169 0100     		.2byte	0x1
 10307 216b 51       		.byte	0x51
 10308 216c 24000000 		.4byte	.LVL349
 10309 2170 B2000000 		.4byte	.LVL359
 10310 2174 0100     		.2byte	0x1
 10311 2176 56       		.byte	0x56
 10312 2177 B2000000 		.4byte	.LVL359
 10313 217b C4000000 		.4byte	.LVL361
 10314 217f 0100     		.2byte	0x1
 10315 2181 51       		.byte	0x51
 10316 2182 C4000000 		.4byte	.LVL361
 10317 2186 34020000 		.4byte	.LFE20
 10318 218a 0100     		.2byte	0x1
 10319 218c 56       		.byte	0x56
 10320 218d 00000000 		.4byte	0
 10321 2191 00000000 		.4byte	0
 10322              	.LLST64:
 10323 2195 12000000 		.4byte	.LVL346
 10324 2199 40000000 		.4byte	.LVL351
 10325 219d 0100     		.2byte	0x1
 10326 219f 55       		.byte	0x55
 10327 21a0 5C000000 		.4byte	.LVL353
 10328 21a4 34020000 		.4byte	.LFE20
 10329 21a8 0100     		.2byte	0x1
 10330 21aa 55       		.byte	0x55
 10331 21ab 00000000 		.4byte	0
 10332 21af 00000000 		.4byte	0
 10333              	.LLST65:
 10334 21b3 8A000000 		.4byte	.LVL356
 10335 21b7 B2000000 		.4byte	.LVL359
 10336 21bb 0100     		.2byte	0x1
 10337 21bd 54       		.byte	0x54
 10338 21be D2000000 		.4byte	.LVL364
 10339 21c2 34020000 		.4byte	.LFE20
 10340 21c6 0100     		.2byte	0x1
 10341 21c8 54       		.byte	0x54
 10342 21c9 00000000 		.4byte	0
 10343 21cd 00000000 		.4byte	0
 10344              	.LLST66:
 10345 21d1 8A000000 		.4byte	.LVL356
 10346 21d5 B2000000 		.4byte	.LVL359
 10347 21d9 0300     		.2byte	0x3
 10348 21db 76       		.byte	0x76
 10349 21dc 23       		.sleb128 35
 10350 21dd 9F       		.byte	0x9f
 10351 21de D2000000 		.4byte	.LVL364
 10352 21e2 34020000 		.4byte	.LFE20
 10353 21e6 0300     		.2byte	0x3
 10354 21e8 76       		.byte	0x76
 10355 21e9 23       		.sleb128 35
 10356 21ea 9F       		.byte	0x9f
 10357 21eb 00000000 		.4byte	0
ARM GAS  C:\Users\jenny\AppData\Local\Temp\ccFzIZYt.s 			page 183


 10358 21ef 00000000 		.4byte	0
 10359              	.LLST67:
 10360 21f3 8A000000 		.4byte	.LVL356
 10361 21f7 B2000000 		.4byte	.LVL359
 10362 21fb 0100     		.2byte	0x1
 10363 21fd 56       		.byte	0x56
 10364 21fe D2000000 		.4byte	.LVL364
 10365 2202 34020000 		.4byte	.LFE20
 10366 2206 0100     		.2byte	0x1
 10367 2208 56       		.byte	0x56
 10368 2209 00000000 		.4byte	0
 10369 220d 00000000 		.4byte	0
 10370              	.LLST68:
 10371 2211 8E000000 		.4byte	.LVL357
 10372 2215 B2000000 		.4byte	.LVL359
 10373 2219 0300     		.2byte	0x3
 10374 221b 75       		.byte	0x75
 10375 221c 0E       		.sleb128 14
 10376 221d 9F       		.byte	0x9f
 10377 221e E8000000 		.4byte	.LVL366
 10378 2222 34020000 		.4byte	.LFE20
 10379 2226 0300     		.2byte	0x3
 10380 2228 75       		.byte	0x75
 10381 2229 0E       		.sleb128 14
 10382 222a 9F       		.byte	0x9f
 10383 222b 00000000 		.4byte	0
 10384 222f 00000000 		.4byte	0
 10385              	.LLST69:
 10386 2233 8E000000 		.4byte	.LVL357
 10387 2237 B2000000 		.4byte	.LVL359
 10388 223b 0100     		.2byte	0x1
 10389 223d 55       		.byte	0x55
 10390 223e E8000000 		.4byte	.LVL366
 10391 2242 34020000 		.4byte	.LFE20
 10392 2246 0100     		.2byte	0x1
 10393 2248 55       		.byte	0x55
 10394 2249 00000000 		.4byte	0
 10395 224d 00000000 		.4byte	0
 10396              	.LLST70:
 10397 2251 20010000 		.4byte	.LVL367
 10398 2255 2C010000 		.4byte	.LVL368
 10399 2259 0700     		.2byte	0x7
 10400 225b 71       		.byte	0x71
 10401 225c 00       		.sleb128 0
 10402 225d 91       		.byte	0x91
 10403 225e 4C       		.sleb128 -52
 10404 225f 06       		.byte	0x6
 10405 2260 29       		.byte	0x29
 10406 2261 9F       		.byte	0x9f
 10407 2262 00000000 		.4byte	0
 10408 2266 00000000 		.4byte	0
 10409              	.LLST71:
 10410 226a 2C010000 		.4byte	.LVL368
 10411 226e 82010000 		.4byte	.LVL373
 10412 2272 0100     		.2byte	0x1
 10413 2274 5B       		.byte	0x5b
 10414 2275 00000000 		.4byte	0
ARM GAS  C:\Users\jenny\AppData\Local\Temp\ccFzIZYt.s 			page 184


 10415 2279 00000000 		.4byte	0
 10416              	.LLST72:
 10417 227d 2C010000 		.4byte	.LVL368
 10418 2281 BE010000 		.4byte	.LVL377
 10419 2285 0200     		.2byte	0x2
 10420 2287 91       		.byte	0x91
 10421 2288 44       		.sleb128 -60
 10422 2289 C8010000 		.4byte	.LVL378
 10423 228d 34020000 		.4byte	.LFE20
 10424 2291 0200     		.2byte	0x2
 10425 2293 91       		.byte	0x91
 10426 2294 44       		.sleb128 -60
 10427 2295 00000000 		.4byte	0
 10428 2299 00000000 		.4byte	0
 10429              	.LLST73:
 10430 229d 2C010000 		.4byte	.LVL368
 10431 22a1 BE010000 		.4byte	.LVL377
 10432 22a5 0300     		.2byte	0x3
 10433 22a7 91       		.byte	0x91
 10434 22a8 48       		.sleb128 -56
 10435 22a9 9F       		.byte	0x9f
 10436 22aa C8010000 		.4byte	.LVL378
 10437 22ae 34020000 		.4byte	.LFE20
 10438 22b2 0300     		.2byte	0x3
 10439 22b4 91       		.byte	0x91
 10440 22b5 48       		.sleb128 -56
 10441 22b6 9F       		.byte	0x9f
 10442 22b7 00000000 		.4byte	0
 10443 22bb 00000000 		.4byte	0
 10444              	.LLST74:
 10445 22bf 2C010000 		.4byte	.LVL368
 10446 22c3 BE010000 		.4byte	.LVL377
 10447 22c7 0100     		.2byte	0x1
 10448 22c9 56       		.byte	0x56
 10449 22ca C8010000 		.4byte	.LVL378
 10450 22ce 34020000 		.4byte	.LFE20
 10451 22d2 0100     		.2byte	0x1
 10452 22d4 56       		.byte	0x56
 10453 22d5 00000000 		.4byte	0
 10454 22d9 00000000 		.4byte	0
 10455              	.LLST75:
 10456 22dd 5C010000 		.4byte	.LVL371
 10457 22e1 5E010000 		.4byte	.LVL372
 10458 22e5 0100     		.2byte	0x1
 10459 22e7 50       		.byte	0x50
 10460 22e8 00000000 		.4byte	0
 10461 22ec 00000000 		.4byte	0
 10462              	.LLST76:
 10463 22f0 8C010000 		.4byte	.LVL374
 10464 22f4 A2010000 		.4byte	.LVL376
 10465 22f8 0100     		.2byte	0x1
 10466 22fa 5B       		.byte	0x5b
 10467 22fb 00000000 		.4byte	0
 10468 22ff 00000000 		.4byte	0
 10469              		.section	.debug_aranges,"",%progbits
 10470 0000 6C000000 		.4byte	0x6c
 10471 0004 0200     		.2byte	0x2
ARM GAS  C:\Users\jenny\AppData\Local\Temp\ccFzIZYt.s 			page 185


 10472 0006 00000000 		.4byte	.Ldebug_info0
 10473 000a 04       		.byte	0x4
 10474 000b 00       		.byte	0
 10475 000c 0000     		.2byte	0
 10476 000e 0000     		.2byte	0
 10477 0010 00000000 		.4byte	.LFB7
 10478 0014 2C000000 		.4byte	.LFE7-.LFB7
 10479 0018 00000000 		.4byte	.LFB9
 10480 001c 64050000 		.4byte	.LFE9-.LFB9
 10481 0020 00000000 		.4byte	.LFB10
 10482 0024 44000000 		.4byte	.LFE10-.LFB10
 10483 0028 00000000 		.4byte	.LFB8
 10484 002c 38020000 		.4byte	.LFE8-.LFB8
 10485 0030 00000000 		.4byte	.LFB12
 10486 0034 F0000000 		.4byte	.LFE12-.LFB12
 10487 0038 00000000 		.4byte	.LFB13
 10488 003c 44000000 		.4byte	.LFE13-.LFB13
 10489 0040 00000000 		.4byte	.LFB19
 10490 0044 D8000000 		.4byte	.LFE19-.LFB19
 10491 0048 00000000 		.4byte	.LFB17
 10492 004c 38010000 		.4byte	.LFE17-.LFB17
 10493 0050 00000000 		.4byte	.LFB15
 10494 0054 70000000 		.4byte	.LFE15-.LFB15
 10495 0058 00000000 		.4byte	.LFB16
 10496 005c 08020000 		.4byte	.LFE16-.LFB16
 10497 0060 00000000 		.4byte	.LFB20
 10498 0064 34020000 		.4byte	.LFE20-.LFB20
 10499 0068 00000000 		.4byte	0
 10500 006c 00000000 		.4byte	0
 10501              		.section	.debug_ranges,"",%progbits
 10502              	.Ldebug_ranges0:
 10503 0000 04000000 		.4byte	.LBB2
 10504 0004 08000000 		.4byte	.LBE2
 10505 0008 0E000000 		.4byte	.LBB3
 10506 000c B6000000 		.4byte	.LBE3
 10507 0010 C6000000 		.4byte	.LBB4
 10508 0014 5E020000 		.4byte	.LBE4
 10509 0018 D8020000 		.4byte	.LBB5
 10510 001c 02030000 		.4byte	.LBE5
 10511 0020 1A030000 		.4byte	.LBB6
 10512 0024 4C030000 		.4byte	.LBE6
 10513 0028 58030000 		.4byte	.LBB7
 10514 002c 84040000 		.4byte	.LBE7
 10515 0030 88040000 		.4byte	.LBB8
 10516 0034 64050000 		.4byte	.LBE8
 10517 0038 00000000 		.4byte	0
 10518 003c 00000000 		.4byte	0
 10519 0040 02000000 		.4byte	.LBB9
 10520 0044 9A010000 		.4byte	.LBE9
 10521 0048 9E010000 		.4byte	.LBB10
 10522 004c 38020000 		.4byte	.LBE10
 10523 0050 00000000 		.4byte	0
 10524 0054 00000000 		.4byte	0
 10525 0058 02000000 		.4byte	.LBB11
 10526 005c 06000000 		.4byte	.LBE11
 10527 0060 08000000 		.4byte	.LBB12
 10528 0064 9A000000 		.4byte	.LBE12
ARM GAS  C:\Users\jenny\AppData\Local\Temp\ccFzIZYt.s 			page 186


 10529 0068 9E000000 		.4byte	.LBB13
 10530 006c F0000000 		.4byte	.LBE13
 10531 0070 00000000 		.4byte	0
 10532 0074 00000000 		.4byte	0
 10533 0078 10000000 		.4byte	.LBB16
 10534 007c AC000000 		.4byte	.LBE16
 10535 0080 B2000000 		.4byte	.LBB23
 10536 0084 D8000000 		.4byte	.LBE23
 10537 0088 00000000 		.4byte	0
 10538 008c 00000000 		.4byte	0
 10539 0090 10000000 		.4byte	.LBB17
 10540 0094 40000000 		.4byte	.LBE17
 10541 0098 42000000 		.4byte	.LBB18
 10542 009c 44000000 		.4byte	.LBE18
 10543 00a0 48000000 		.4byte	.LBB19
 10544 00a4 50000000 		.4byte	.LBE19
 10545 00a8 58000000 		.4byte	.LBB20
 10546 00ac 5C000000 		.4byte	.LBE20
 10547 00b0 62000000 		.4byte	.LBB21
 10548 00b4 AC000000 		.4byte	.LBE21
 10549 00b8 B2000000 		.4byte	.LBB22
 10550 00bc D8000000 		.4byte	.LBE22
 10551 00c0 00000000 		.4byte	0
 10552 00c4 00000000 		.4byte	0
 10553 00c8 44000000 		.4byte	.LBB25
 10554 00cc 4E010000 		.4byte	.LBE25
 10555 00d0 B0010000 		.4byte	.LBB26
 10556 00d4 08020000 		.4byte	.LBE26
 10557 00d8 00000000 		.4byte	0
 10558 00dc 00000000 		.4byte	0
 10559 00e0 8A000000 		.4byte	.LBB32
 10560 00e4 B2000000 		.4byte	.LBE32
 10561 00e8 D2000000 		.4byte	.LBB41
 10562 00ec 3A010000 		.4byte	.LBE41
 10563 00f0 3E010000 		.4byte	.LBB42
 10564 00f4 34020000 		.4byte	.LBE42
 10565 00f8 00000000 		.4byte	0
 10566 00fc 00000000 		.4byte	0
 10567 0100 8A000000 		.4byte	.LBB33
 10568 0104 B2000000 		.4byte	.LBE33
 10569 0108 D2000000 		.4byte	.LBB39
 10570 010c 3A010000 		.4byte	.LBE39
 10571 0110 3E010000 		.4byte	.LBB40
 10572 0114 34020000 		.4byte	.LBE40
 10573 0118 00000000 		.4byte	0
 10574 011c 00000000 		.4byte	0
 10575 0120 2C010000 		.4byte	.LBB34
 10576 0124 3A010000 		.4byte	.LBE34
 10577 0128 3E010000 		.4byte	.LBB38
 10578 012c A2010000 		.4byte	.LBE38
 10579 0130 00000000 		.4byte	0
 10580 0134 00000000 		.4byte	0
 10581 0138 2C010000 		.4byte	.LBB35
 10582 013c 3A010000 		.4byte	.LBE35
 10583 0140 3E010000 		.4byte	.LBB37
 10584 0144 A2010000 		.4byte	.LBE37
 10585 0148 00000000 		.4byte	0
ARM GAS  C:\Users\jenny\AppData\Local\Temp\ccFzIZYt.s 			page 187


 10586 014c 00000000 		.4byte	0
 10587 0150 00000000 		.4byte	.LFB7
 10588 0154 2C000000 		.4byte	.LFE7
 10589 0158 00000000 		.4byte	.LFB9
 10590 015c 64050000 		.4byte	.LFE9
 10591 0160 00000000 		.4byte	.LFB10
 10592 0164 44000000 		.4byte	.LFE10
 10593 0168 00000000 		.4byte	.LFB8
 10594 016c 38020000 		.4byte	.LFE8
 10595 0170 00000000 		.4byte	.LFB12
 10596 0174 F0000000 		.4byte	.LFE12
 10597 0178 00000000 		.4byte	.LFB13
 10598 017c 44000000 		.4byte	.LFE13
 10599 0180 00000000 		.4byte	.LFB19
 10600 0184 D8000000 		.4byte	.LFE19
 10601 0188 00000000 		.4byte	.LFB17
 10602 018c 38010000 		.4byte	.LFE17
 10603 0190 00000000 		.4byte	.LFB15
 10604 0194 70000000 		.4byte	.LFE15
 10605 0198 00000000 		.4byte	.LFB16
 10606 019c 08020000 		.4byte	.LFE16
 10607 01a0 00000000 		.4byte	.LFB20
 10608 01a4 34020000 		.4byte	.LFE20
 10609 01a8 00000000 		.4byte	0
 10610 01ac 00000000 		.4byte	0
 10611              		.section	.debug_line,"",%progbits
 10612              	.Ldebug_line0:
 10613 0000 66070000 		.section	.debug_str,"MS",%progbits,1
 10613      02000E02 
 10613      00000201 
 10613      FB0E0D00 
 10613      01010101 
 10614              	.LASF98:
 10615 0000 6574685F 		.ascii	"eth_addr\000"
 10615      61646472 
 10615      00
 10616              	.LASF109:
 10617 0009 64687761 		.ascii	"dhwaddr\000"
 10617      64647200 
 10618              	.LASF101:
 10619 0011 65746861 		.ascii	"etharp_hdr\000"
 10619      72705F68 
 10619      647200
 10620              	.LASF61:
 10621 001c 4D454D50 		.ascii	"MEMP_TCP_PCB_LISTEN\000"
 10621      5F544350 
 10621      5F504342 
 10621      5F4C4953 
 10621      54454E00 
 10622              	.LASF176:
 10623 0030 706F7274 		.ascii	"port_halt\000"
 10623      5F68616C 
 10623      7400
 10624              	.LASF47:
 10625 003a 696E7075 		.ascii	"input\000"
 10625      7400
 10626              	.LASF155:
ARM GAS  C:\Users\jenny\AppData\Local\Temp\ccFzIZYt.s 			page 188


 10627 0040 6172705F 		.ascii	"arp_table\000"
 10627      7461626C 
 10627      6500
 10628              	.LASF133:
 10629 004a 6167655F 		.ascii	"age_queue\000"
 10629      71756575 
 10629      6500
 10630              	.LASF105:
 10631 0054 70726F74 		.ascii	"protolen\000"
 10631      6F6C656E 
 10631      00
 10632              	.LASF34:
 10633 005d 50425546 		.ascii	"PBUF_RAM\000"
 10633      5F52414D 
 10633      00
 10634              	.LASF32:
 10635 0066 50425546 		.ascii	"PBUF_RAW\000"
 10635      5F524157 
 10635      00
 10636              	.LASF38:
 10637 006f 70627566 		.ascii	"pbuf_type\000"
 10637      5F747970 
 10637      6500
 10638              	.LASF0:
 10639 0079 756E7369 		.ascii	"unsigned int\000"
 10639      676E6564 
 10639      20696E74 
 10639      00
 10640              	.LASF40:
 10641 0086 6E657874 		.ascii	"next\000"
 10641      00
 10642              	.LASF144:
 10643 008b 636F7079 		.ascii	"copy_needed\000"
 10643      5F6E6565 
 10643      64656400 
 10644              	.LASF28:
 10645 0097 6572725F 		.ascii	"err_t\000"
 10645      7400
 10646              	.LASF110:
 10647 009d 64697061 		.ascii	"dipaddr\000"
 10647      64647200 
 10648              	.LASF49:
 10649 00a5 6C696E6B 		.ascii	"linkoutput\000"
 10649      6F757470 
 10649      757400
 10650              	.LASF27:
 10651 00b0 61646472 		.ascii	"addrw\000"
 10651      7700
 10652              	.LASF20:
 10653 00b6 7531365F 		.ascii	"u16_t\000"
 10653      7400
 10654              	.LASF84:
 10655 00bc 73746174 		.ascii	"stats_mem\000"
 10655      735F6D65 
 10655      6D00
 10656              	.LASF142:
 10657 00c6 65746861 		.ascii	"etharp_query\000"
ARM GAS  C:\Users\jenny\AppData\Local\Temp\ccFzIZYt.s 			page 189


 10657      72705F71 
 10657      75657279 
 10657      00
 10658              	.LASF170:
 10659 00d3 2E2E2F2E 		.ascii	"../../ext/lwip/src/netif/etharp.c\000"
 10659      2E2F6578 
 10659      742F6C77 
 10659      69702F73 
 10659      72632F6E 
 10660              	.LASF55:
 10661 00f5 6E657469 		.ascii	"netif_output_fn\000"
 10661      665F6F75 
 10661      74707574 
 10661      5F666E00 
 10662              	.LASF162:
 10663 0105 6C776970 		.ascii	"lwip_htons\000"
 10663      5F68746F 
 10663      6E7300
 10664              	.LASF71:
 10665 0110 4D454D50 		.ascii	"MEMP_PBUF_POOL\000"
 10665      5F504255 
 10665      465F504F 
 10665      4F4C00
 10666              	.LASF157:
 10667 011f 6C776970 		.ascii	"lwip_stats\000"
 10667      5F737461 
 10667      747300
 10668              	.LASF119:
 10669 012a 65746873 		.ascii	"ethsrc_addr\000"
 10669      72635F61 
 10669      64647200 
 10670              	.LASF29:
 10671 0136 50425546 		.ascii	"PBUF_TRANSPORT\000"
 10671      5F545241 
 10671      4E53504F 
 10671      525400
 10672              	.LASF88:
 10673 0145 73746174 		.ascii	"stats_syselem\000"
 10673      735F7379 
 10673      73656C65 
 10673      6D00
 10674              	.LASF54:
 10675 0153 6E657469 		.ascii	"netif_input_fn\000"
 10675      665F696E 
 10675      7075745F 
 10675      666E00
 10676              	.LASF11:
 10677 0162 75696E74 		.ascii	"uint32_t\000"
 10677      33325F74 
 10677      00
 10678              	.LASF2:
 10679 016b 696E7438 		.ascii	"int8_t\000"
 10679      5F7400
 10680              	.LASF67:
 10681 0172 4D454D50 		.ascii	"MEMP_TCPIP_MSG_API\000"
 10681      5F544350 
 10681      49505F4D 
ARM GAS  C:\Users\jenny\AppData\Local\Temp\ccFzIZYt.s 			page 190


 10681      53475F41 
 10681      504900
 10682              	.LASF82:
 10683 0185 6F707465 		.ascii	"opterr\000"
 10683      727200
 10684              	.LASF152:
 10685 018c 65746861 		.ascii	"etharp_update_arp_entry\000"
 10685      72705F75 
 10685      70646174 
 10685      655F6172 
 10685      705F656E 
 10686              	.LASF90:
 10687 01a4 6D757465 		.ascii	"mutex\000"
 10687      7800
 10688              	.LASF124:
 10689 01aa 69706473 		.ascii	"ipdst_addr\000"
 10689      745F6164 
 10689      647200
 10690              	.LASF95:
 10691 01b5 69705F66 		.ascii	"ip_frag\000"
 10691      72616700 
 10692              	.LASF87:
 10693 01bd 696C6C65 		.ascii	"illegal\000"
 10693      67616C00 
 10694              	.LASF6:
 10695 01c5 696E7431 		.ascii	"int16_t\000"
 10695      365F7400 
 10696              	.LASF115:
 10697 01cd 65746861 		.ascii	"etharp_entry\000"
 10697      72705F65 
 10697      6E747279 
 10697      00
 10698              	.LASF125:
 10699 01da 72657375 		.ascii	"result\000"
 10699      6C7400
 10700              	.LASF52:
 10701 01e1 68776164 		.ascii	"hwaddr\000"
 10701      647200
 10702              	.LASF94:
 10703 01e8 65746861 		.ascii	"etharp\000"
 10703      727000
 10704              	.LASF14:
 10705 01ef 6C6F6E67 		.ascii	"long long unsigned int\000"
 10705      206C6F6E 
 10705      6720756E 
 10705      7369676E 
 10705      65642069 
 10706              	.LASF111:
 10707 0206 45544841 		.ascii	"ETHARP_STATE_EMPTY\000"
 10707      52505F53 
 10707      54415445 
 10707      5F454D50 
 10707      545900
 10708              	.LASF118:
 10709 0219 6374696D 		.ascii	"ctime\000"
 10709      6500
 10710              	.LASF51:
ARM GAS  C:\Users\jenny\AppData\Local\Temp\ccFzIZYt.s 			page 191


 10711 021f 68776164 		.ascii	"hwaddr_len\000"
 10711      64725F6C 
 10711      656E00
 10712              	.LASF173:
 10713 022a 65746861 		.ascii	"etharp_free_entry\000"
 10713      72705F66 
 10713      7265655F 
 10713      656E7472 
 10713      7900
 10714              	.LASF68:
 10715 023c 4D454D50 		.ascii	"MEMP_TCPIP_MSG_INPKT\000"
 10715      5F544350 
 10715      49505F4D 
 10715      53475F49 
 10715      4E504B54 
 10716              	.LASF36:
 10717 0251 50425546 		.ascii	"PBUF_REF\000"
 10717      5F524546 
 10717      00
 10718              	.LASF163:
 10719 025a 70627566 		.ascii	"pbuf_copy\000"
 10719      5F636F70 
 10719      7900
 10720              	.LASF92:
 10721 0264 73746174 		.ascii	"stats_\000"
 10721      735F00
 10722              	.LASF149:
 10723 026b 6473745F 		.ascii	"dst_addr\000"
 10723      61646472 
 10723      00
 10724              	.LASF42:
 10725 0274 746F745F 		.ascii	"tot_len\000"
 10725      6C656E00 
 10726              	.LASF116:
 10727 027c 69706164 		.ascii	"ipaddr\000"
 10727      647200
 10728              	.LASF1:
 10729 0283 73697A65 		.ascii	"size_t\000"
 10729      5F7400
 10730              	.LASF41:
 10731 028a 7061796C 		.ascii	"payload\000"
 10731      6F616400 
 10732              	.LASF137:
 10733 0292 65746861 		.ascii	"etharp_cleanup_netif\000"
 10733      72705F63 
 10733      6C65616E 
 10733      75705F6E 
 10733      65746966 
 10734              	.LASF30:
 10735 02a7 50425546 		.ascii	"PBUF_IP\000"
 10735      5F495000 
 10736              	.LASF48:
 10737 02af 6F757470 		.ascii	"output\000"
 10737      757400
 10738              	.LASF15:
 10739 02b6 5F426F6F 		.ascii	"_Bool\000"
 10739      6C00
ARM GAS  C:\Users\jenny\AppData\Local\Temp\ccFzIZYt.s 			page 192


 10740              	.LASF127:
 10741 02bc 6F6C645F 		.ascii	"old_pending\000"
 10741      70656E64 
 10741      696E6700 
 10742              	.LASF37:
 10743 02c8 50425546 		.ascii	"PBUF_POOL\000"
 10743      5F504F4F 
 10743      4C00
 10744              	.LASF44:
 10745 02d2 666C6167 		.ascii	"flags\000"
 10745      7300
 10746              	.LASF72:
 10747 02d8 4D454D50 		.ascii	"MEMP_MAX\000"
 10747      5F4D4158 
 10747      00
 10748              	.LASF19:
 10749 02e1 73385F74 		.ascii	"s8_t\000"
 10749      00
 10750              	.LASF132:
 10751 02e6 6F6C645F 		.ascii	"old_queue\000"
 10751      71756575 
 10751      6500
 10752              	.LASF107:
 10753 02f0 73687761 		.ascii	"shwaddr\000"
 10753      64647200 
 10754              	.LASF136:
 10755 02f8 65746861 		.ascii	"etharp_tmr\000"
 10755      72705F74 
 10755      6D7200
 10756              	.LASF171:
 10757 0303 443A5C6A 		.ascii	"D:\\jenny\\dev\\probe\\chibios\\chibios.workspace\\"
 10757      656E6E79 
 10757      5C646576 
 10757      5C70726F 
 10757      62655C63 
 10758 0330 64656D6F 		.ascii	"demos\\ARMCM4-STM32F407-LWIP-FATFS-USB\000"
 10758      735C4152 
 10758      4D434D34 
 10758      2D53544D 
 10758      33324634 
 10759              	.LASF66:
 10760 0356 4D454D50 		.ascii	"MEMP_NETCONN\000"
 10760      5F4E4554 
 10760      434F4E4E 
 10760      00
 10761              	.LASF164:
 10762 0363 6970345F 		.ascii	"ip4_addr_isbroadcast\000"
 10762      61646472 
 10762      5F697362 
 10762      726F6164 
 10762      63617374 
 10763              	.LASF172:
 10764 0378 65746861 		.ascii	"etharp_state\000"
 10764      72705F73 
 10764      74617465 
 10764      00
 10765              	.LASF153:
ARM GAS  C:\Users\jenny\AppData\Local\Temp\ccFzIZYt.s 			page 193


 10766 0385 65746865 		.ascii	"ethernet_input\000"
 10766      726E6574 
 10766      5F696E70 
 10766      757400
 10767              	.LASF134:
 10768 0394 65746861 		.ascii	"etharp_find_entry\000"
 10768      72705F66 
 10768      696E645F 
 10768      656E7472 
 10768      7900
 10769              	.LASF70:
 10770 03a6 4D454D50 		.ascii	"MEMP_PBUF\000"
 10770      5F504255 
 10770      4600
 10771              	.LASF117:
 10772 03b0 65746861 		.ascii	"ethaddr\000"
 10772      64647200 
 10773              	.LASF102:
 10774 03b8 68777479 		.ascii	"hwtype\000"
 10774      706500
 10775              	.LASF156:
 10776 03bf 65746861 		.ascii	"etharp_cached_entry\000"
 10776      72705F63 
 10776      61636865 
 10776      645F656E 
 10776      74727900 
 10777              	.LASF143:
 10778 03d3 73726361 		.ascii	"srcaddr\000"
 10778      64647200 
 10779              	.LASF17:
 10780 03db 63686172 		.ascii	"char\000"
 10780      00
 10781              	.LASF165:
 10782 03e0 70627566 		.ascii	"pbuf_header\000"
 10782      5F686561 
 10782      64657200 
 10783              	.LASF57:
 10784 03ec 6D656D5F 		.ascii	"mem_size_t\000"
 10784      73697A65 
 10784      5F7400
 10785              	.LASF73:
 10786 03f7 73746174 		.ascii	"stats_proto\000"
 10786      735F7072 
 10786      6F746F00 
 10787              	.LASF103:
 10788 0403 70726F74 		.ascii	"proto\000"
 10788      6F00
 10789              	.LASF106:
 10790 0409 6F70636F 		.ascii	"opcode\000"
 10790      646500
 10791              	.LASF108:
 10792 0410 73697061 		.ascii	"sipaddr\000"
 10792      64647200 
 10793              	.LASF4:
 10794 0418 75696E74 		.ascii	"uint8_t\000"
 10794      385F7400 
 10795              	.LASF161:
ARM GAS  C:\Users\jenny\AppData\Local\Temp\ccFzIZYt.s 			page 194


 10796 0420 70627566 		.ascii	"pbuf_alloc\000"
 10796      5F616C6C 
 10796      6F6300
 10797              	.LASF99:
 10798 042b 6574685F 		.ascii	"eth_hdr\000"
 10798      68647200 
 10799              	.LASF160:
 10800 0433 70627566 		.ascii	"pbuf_free\000"
 10800      5F667265 
 10800      6500
 10801              	.LASF175:
 10802 043d 66726565 		.ascii	"free_and_return\000"
 10802      5F616E64 
 10802      5F726574 
 10802      75726E00 
 10803              	.LASF65:
 10804 044d 4D454D50 		.ascii	"MEMP_NETBUF\000"
 10804      5F4E4554 
 10804      42554600 
 10805              	.LASF46:
 10806 0459 6E65746D 		.ascii	"netmask\000"
 10806      61736B00 
 10807              	.LASF13:
 10808 0461 6C6F6E67 		.ascii	"long long int\000"
 10808      206C6F6E 
 10808      6720696E 
 10808      7400
 10809              	.LASF135:
 10810 046f 65746861 		.ascii	"etharp_send_ip\000"
 10810      72705F73 
 10810      656E645F 
 10810      697000
 10811              	.LASF121:
 10812 047e 68777372 		.ascii	"hwsrc_addr\000"
 10812      635F6164 
 10812      647200
 10813              	.LASF138:
 10814 0489 6574685F 		.ascii	"eth_ret\000"
 10814      72657400 
 10815              	.LASF60:
 10816 0491 4D454D50 		.ascii	"MEMP_TCP_PCB\000"
 10816      5F544350 
 10816      5F504342 
 10816      00
 10817              	.LASF97:
 10818 049e 6D656D70 		.ascii	"memp\000"
 10818      00
 10819              	.LASF18:
 10820 04a3 75385F74 		.ascii	"u8_t\000"
 10820      00
 10821              	.LASF120:
 10822 04a8 65746864 		.ascii	"ethdst_addr\000"
 10822      73745F61 
 10822      64647200 
 10823              	.LASF86:
 10824 04b4 75736564 		.ascii	"used\000"
 10824      00
ARM GAS  C:\Users\jenny\AppData\Local\Temp\ccFzIZYt.s 			page 195


 10825              	.LASF77:
 10826 04b9 63686B65 		.ascii	"chkerr\000"
 10826      727200
 10827              	.LASF128:
 10828 04c0 6F6C645F 		.ascii	"old_stable\000"
 10828      73746162 
 10828      6C6500
 10829              	.LASF63:
 10830 04cb 4D454D50 		.ascii	"MEMP_REASSDATA\000"
 10830      5F524541 
 10830      53534441 
 10830      544100
 10831              	.LASF31:
 10832 04da 50425546 		.ascii	"PBUF_LINK\000"
 10832      5F4C494E 
 10832      4B00
 10833              	.LASF113:
 10834 04e4 45544841 		.ascii	"ETHARP_STATE_STABLE\000"
 10834      52505F53 
 10834      54415445 
 10834      5F535441 
 10834      424C4500 
 10835              	.LASF25:
 10836 04f8 69705F61 		.ascii	"ip_addr2\000"
 10836      64647232 
 10836      00
 10837              	.LASF168:
 10838 0501 69705F69 		.ascii	"ip_input\000"
 10838      6E707574 
 10838      00
 10839              	.LASF169:
 10840 050a 474E5520 		.ascii	"GNU C 4.7.4 20130913 (release) [ARM/embedded-4_7-br"
 10840      4320342E 
 10840      372E3420 
 10840      32303133 
 10840      30393133 
 10841 053d 616E6368 		.ascii	"anch revision 202601]\000"
 10841      20726576 
 10841      6973696F 
 10841      6E203230 
 10841      32363031 
 10842              	.LASF8:
 10843 0553 75696E74 		.ascii	"uint16_t\000"
 10843      31365F74 
 10843      00
 10844              	.LASF114:
 10845 055c 45544841 		.ascii	"ETHARP_STATE_STABLE_REREQUESTING\000"
 10845      52505F53 
 10845      54415445 
 10845      5F535441 
 10845      424C455F 
 10846              	.LASF131:
 10847 057d 6167655F 		.ascii	"age_stable\000"
 10847      73746162 
 10847      6C6500
 10848              	.LASF158:
 10849 0588 65746862 		.ascii	"ethbroadcast\000"
ARM GAS  C:\Users\jenny\AppData\Local\Temp\ccFzIZYt.s 			page 196


 10849      726F6164 
 10849      63617374 
 10849      00
 10850              	.LASF146:
 10851 0595 6172705F 		.ascii	"arp_idx\000"
 10851      69647800 
 10852              	.LASF126:
 10853 059d 65746868 		.ascii	"ethhdr\000"
 10853      647200
 10854              	.LASF22:
 10855 05a4 7533325F 		.ascii	"u32_t\000"
 10855      7400
 10856              	.LASF7:
 10857 05aa 73686F72 		.ascii	"short int\000"
 10857      7420696E 
 10857      7400
 10858              	.LASF96:
 10859 05b4 69636D70 		.ascii	"icmp\000"
 10859      00
 10860              	.LASF10:
 10861 05b9 6C6F6E67 		.ascii	"long int\000"
 10861      20696E74 
 10861      00
 10862              	.LASF80:
 10863 05c2 72746572 		.ascii	"rterr\000"
 10863      7200
 10864              	.LASF85:
 10865 05c8 61766169 		.ascii	"avail\000"
 10865      6C00
 10866              	.LASF69:
 10867 05ce 4D454D50 		.ascii	"MEMP_SYS_TIMEOUT\000"
 10867      5F535953 
 10867      5F54494D 
 10867      454F5554 
 10867      00
 10868              	.LASF166:
 10869 05df 6D656D63 		.ascii	"memcmp\000"
 10869      6D7000
 10870              	.LASF59:
 10871 05e6 4D454D50 		.ascii	"MEMP_UDP_PCB\000"
 10871      5F554450 
 10871      5F504342 
 10871      00
 10872              	.LASF91:
 10873 05f3 6D626F78 		.ascii	"mbox\000"
 10873      00
 10874              	.LASF122:
 10875 05f8 69707372 		.ascii	"ipsrc_addr\000"
 10875      635F6164 
 10875      647200
 10876              	.LASF174:
 10877 0603 65746861 		.ascii	"etharp_arp_input\000"
 10877      72705F61 
 10877      72705F69 
 10877      6E707574 
 10877      00
 10878              	.LASF141:
ARM GAS  C:\Users\jenny\AppData\Local\Temp\ccFzIZYt.s 			page 197


 10879 0614 65746861 		.ascii	"etharp_request\000"
 10879      72705F72 
 10879      65717565 
 10879      737400
 10880              	.LASF83:
 10881 0623 63616368 		.ascii	"cachehit\000"
 10881      65686974 
 10881      00
 10882              	.LASF53:
 10883 062c 6E616D65 		.ascii	"name\000"
 10883      00
 10884              	.LASF56:
 10885 0631 6E657469 		.ascii	"netif_linkoutput_fn\000"
 10885      665F6C69 
 10885      6E6B6F75 
 10885      74707574 
 10885      5F666E00 
 10886              	.LASF64:
 10887 0645 4D454D50 		.ascii	"MEMP_FRAG_PBUF\000"
 10887      5F465241 
 10887      475F5042 
 10887      554600
 10888              	.LASF167:
 10889 0654 70627566 		.ascii	"pbuf_ref\000"
 10889      5F726566 
 10889      00
 10890              	.LASF112:
 10891 065d 45544841 		.ascii	"ETHARP_STATE_PENDING\000"
 10891      52505F53 
 10891      54415445 
 10891      5F50454E 
 10891      44494E47 
 10892              	.LASF58:
 10893 0672 4D454D50 		.ascii	"MEMP_RAW_PCB\000"
 10893      5F524157 
 10893      5F504342 
 10893      00
 10894              	.LASF78:
 10895 067f 6C656E65 		.ascii	"lenerr\000"
 10895      727200
 10896              	.LASF159:
 10897 0686 6574687A 		.ascii	"ethzero\000"
 10897      65726F00 
 10898              	.LASF16:
 10899 068e 73697A65 		.ascii	"sizetype\000"
 10899      74797065 
 10899      00
 10900              	.LASF139:
 10901 0697 69705F72 		.ascii	"ip_ret\000"
 10901      657400
 10902              	.LASF12:
 10903 069e 6C6F6E67 		.ascii	"long unsigned int\000"
 10903      20756E73 
 10903      69676E65 
 10903      6420696E 
 10903      7400
 10904              	.LASF129:
ARM GAS  C:\Users\jenny\AppData\Local\Temp\ccFzIZYt.s 			page 198


 10905 06b0 656D7074 		.ascii	"empty\000"
 10905      7900
 10906              	.LASF151:
 10907 06b6 65746861 		.ascii	"etharp_raw\000"
 10907      72705F72 
 10907      617700
 10908              	.LASF150:
 10909 06c1 666F725F 		.ascii	"for_us\000"
 10909      757300
 10910              	.LASF21:
 10911 06c8 7331365F 		.ascii	"s16_t\000"
 10911      7400
 10912              	.LASF33:
 10913 06ce 70627566 		.ascii	"pbuf_layer\000"
 10913      5F6C6179 
 10913      657200
 10914              	.LASF81:
 10915 06d9 70726F74 		.ascii	"proterr\000"
 10915      65727200 
 10916              	.LASF148:
 10917 06e1 6D636173 		.ascii	"mcastaddr\000"
 10917      74616464 
 10917      7200
 10918              	.LASF43:
 10919 06eb 74797065 		.ascii	"type\000"
 10919      00
 10920              	.LASF89:
 10921 06f0 73746174 		.ascii	"stats_sys\000"
 10921      735F7379 
 10921      7300
 10922              	.LASF5:
 10923 06fa 756E7369 		.ascii	"unsigned char\000"
 10923      676E6564 
 10923      20636861 
 10923      7200
 10924              	.LASF79:
 10925 0708 6D656D65 		.ascii	"memerr\000"
 10925      727200
 10926              	.LASF62:
 10927 070f 4D454D50 		.ascii	"MEMP_TCP_SEG\000"
 10927      5F544350 
 10927      5F534547 
 10927      00
 10928              	.LASF93:
 10929 071c 6C696E6B 		.ascii	"link\000"
 10929      00
 10930              	.LASF39:
 10931 0721 70627566 		.ascii	"pbuf\000"
 10931      00
 10932              	.LASF154:
 10933 0726 69705F68 		.ascii	"ip_hdr_offset\000"
 10933      64725F6F 
 10933      66667365 
 10933      7400
 10934              	.LASF26:
 10935 0734 61646472 		.ascii	"addr\000"
 10935      00
ARM GAS  C:\Users\jenny\AppData\Local\Temp\ccFzIZYt.s 			page 199


 10936              	.LASF76:
 10937 0739 64726F70 		.ascii	"drop\000"
 10937      00
 10938              	.LASF50:
 10939 073e 73746174 		.ascii	"state\000"
 10939      6500
 10940              	.LASF123:
 10941 0744 68776473 		.ascii	"hwdst_addr\000"
 10941      745F6164 
 10941      647200
 10942              	.LASF45:
 10943 074f 6E657469 		.ascii	"netif\000"
 10943      6600
 10944              	.LASF130:
 10945 0755 6167655F 		.ascii	"age_pending\000"
 10945      70656E64 
 10945      696E6700 
 10946              	.LASF147:
 10947 0761 65746861 		.ascii	"etharp_output\000"
 10947      72705F6F 
 10947      75747075 
 10947      7400
 10948              	.LASF75:
 10949 076f 72656376 		.ascii	"recv\000"
 10949      00
 10950              	.LASF3:
 10951 0774 7369676E 		.ascii	"signed char\000"
 10951      65642063 
 10951      68617200 
 10952              	.LASF9:
 10953 0780 73686F72 		.ascii	"short unsigned int\000"
 10953      7420756E 
 10953      7369676E 
 10953      65642069 
 10953      6E7400
 10954              	.LASF74:
 10955 0793 786D6974 		.ascii	"xmit\000"
 10955      00
 10956              	.LASF104:
 10957 0798 68776C65 		.ascii	"hwlen\000"
 10957      6E00
 10958              	.LASF23:
 10959 079e 69705F61 		.ascii	"ip_addr_t\000"
 10959      6464725F 
 10959      7400
 10960              	.LASF35:
 10961 07a8 50425546 		.ascii	"PBUF_ROM\000"
 10961      5F524F4D 
 10961      00
 10962              	.LASF140:
 10963 07b1 65746861 		.ascii	"etharp_find_addr\000"
 10963      72705F66 
 10963      696E645F 
 10963      61646472 
 10963      00
 10964              	.LASF100:
 10965 07c2 64657374 		.ascii	"dest\000"
ARM GAS  C:\Users\jenny\AppData\Local\Temp\ccFzIZYt.s 			page 200


 10965      00
 10966              	.LASF24:
 10967 07c7 69705F61 		.ascii	"ip_addr\000"
 10967      64647200 
 10968              	.LASF145:
 10969 07cf 65746861 		.ascii	"etharp_output_to_arp_index\000"
 10969      72705F6F 
 10969      75747075 
 10969      745F746F 
 10969      5F617270 
 10970              		.ident	"GCC: (GNU Tools for ARM Embedded Processors) 4.7.4 20130913 (release) [ARM/embedded-4_7-br
ARM GAS  C:\Users\jenny\AppData\Local\Temp\ccFzIZYt.s 			page 201


DEFINED SYMBOLS
                            *ABS*:00000000 etharp.c
C:\Users\jenny\AppData\Local\Temp\ccFzIZYt.s:20     .text.etharp_free_entry:00000000 $t
C:\Users\jenny\AppData\Local\Temp\ccFzIZYt.s:25     .text.etharp_free_entry:00000000 etharp_free_entry
C:\Users\jenny\AppData\Local\Temp\ccFzIZYt.s:71     .text.etharp_free_entry:00000028 $d
C:\Users\jenny\AppData\Local\Temp\ccFzIZYt.s:76     .text.etharp_find_entry:00000000 $t
C:\Users\jenny\AppData\Local\Temp\ccFzIZYt.s:81     .text.etharp_find_entry:00000000 etharp_find_entry
C:\Users\jenny\AppData\Local\Temp\ccFzIZYt.s:587    .text.etharp_find_entry:000002ac $d
C:\Users\jenny\AppData\Local\Temp\ccFzIZYt.s:591    .text.etharp_find_entry:000002b0 $t
C:\Users\jenny\AppData\Local\Temp\ccFzIZYt.s:1104   .text.etharp_find_entry:00000560 $d
C:\Users\jenny\AppData\Local\Temp\ccFzIZYt.s:1110   .text.etharp_send_ip:00000000 $t
C:\Users\jenny\AppData\Local\Temp\ccFzIZYt.s:1115   .text.etharp_send_ip:00000000 etharp_send_ip
C:\Users\jenny\AppData\Local\Temp\ccFzIZYt.s:1180   .text.etharp_tmr:00000000 $t
C:\Users\jenny\AppData\Local\Temp\ccFzIZYt.s:1186   .text.etharp_tmr:00000000 etharp_tmr
C:\Users\jenny\AppData\Local\Temp\ccFzIZYt.s:1598   .text.etharp_tmr:00000234 $d
C:\Users\jenny\AppData\Local\Temp\ccFzIZYt.s:1604   .text.etharp_cleanup_netif:00000000 $t
C:\Users\jenny\AppData\Local\Temp\ccFzIZYt.s:1610   .text.etharp_cleanup_netif:00000000 etharp_cleanup_netif
C:\Users\jenny\AppData\Local\Temp\ccFzIZYt.s:1780   .text.etharp_cleanup_netif:000000ec $d
C:\Users\jenny\AppData\Local\Temp\ccFzIZYt.s:1786   .text.etharp_find_addr:00000000 $t
C:\Users\jenny\AppData\Local\Temp\ccFzIZYt.s:1792   .text.etharp_find_addr:00000000 etharp_find_addr
C:\Users\jenny\AppData\Local\Temp\ccFzIZYt.s:1862   .text.etharp_find_addr:00000040 $d
C:\Users\jenny\AppData\Local\Temp\ccFzIZYt.s:1867   .text.etharp_request:00000000 $t
C:\Users\jenny\AppData\Local\Temp\ccFzIZYt.s:1873   .text.etharp_request:00000000 etharp_request
C:\Users\jenny\AppData\Local\Temp\ccFzIZYt.s:2064   .text.etharp_request:000000cc $d
C:\Users\jenny\AppData\Local\Temp\ccFzIZYt.s:2073   .text.etharp_query:00000000 $t
C:\Users\jenny\AppData\Local\Temp\ccFzIZYt.s:2079   .text.etharp_query:00000000 etharp_query
C:\Users\jenny\AppData\Local\Temp\ccFzIZYt.s:2319   .text.etharp_query:0000012c $d
C:\Users\jenny\AppData\Local\Temp\ccFzIZYt.s:2327   .text.etharp_output_to_arp_index:00000000 $t
C:\Users\jenny\AppData\Local\Temp\ccFzIZYt.s:2332   .text.etharp_output_to_arp_index:00000000 etharp_output_to_arp_index
C:\Users\jenny\AppData\Local\Temp\ccFzIZYt.s:2417   .text.etharp_output_to_arp_index:0000006c $d
C:\Users\jenny\AppData\Local\Temp\ccFzIZYt.s:2422   .text.etharp_output:00000000 $t
C:\Users\jenny\AppData\Local\Temp\ccFzIZYt.s:2428   .text.etharp_output:00000000 etharp_output
C:\Users\jenny\AppData\Local\Temp\ccFzIZYt.s:2794   .text.etharp_output:000001f8 $d
C:\Users\jenny\AppData\Local\Temp\ccFzIZYt.s:2803   .text.ethernet_input:00000000 $t
C:\Users\jenny\AppData\Local\Temp\ccFzIZYt.s:2809   .text.ethernet_input:00000000 ethernet_input
C:\Users\jenny\AppData\Local\Temp\ccFzIZYt.s:3221   .text.ethernet_input:00000228 $d
C:\Users\jenny\AppData\Local\Temp\ccFzIZYt.s:3261   .rodata.ethzero:00000000 ethzero
C:\Users\jenny\AppData\Local\Temp\ccFzIZYt.s:3249   .rodata.ethbroadcast:00000000 ethbroadcast
C:\Users\jenny\AppData\Local\Temp\ccFzIZYt.s:3235   .bss.etharp_cached_entry:00000000 etharp_cached_entry
C:\Users\jenny\AppData\Local\Temp\ccFzIZYt.s:3236   .bss.etharp_cached_entry:00000000 $d
C:\Users\jenny\AppData\Local\Temp\ccFzIZYt.s:3238   .bss.arp_table:00000000 $d
C:\Users\jenny\AppData\Local\Temp\ccFzIZYt.s:3242   .bss.arp_table:00000000 arp_table
C:\Users\jenny\AppData\Local\Temp\ccFzIZYt.s:3245   .rodata.ethbroadcast:00000000 $d
C:\Users\jenny\AppData\Local\Temp\ccFzIZYt.s:3257   .rodata.ethzero:00000000 $d
                     .debug_frame:00000010 $d
C:\Users\jenny\AppData\Local\Temp\ccFzIZYt.s:75     .text.etharp_free_entry:0000002c $t
C:\Users\jenny\AppData\Local\Temp\ccFzIZYt.s:1109   .text.etharp_find_entry:00000564 $t
C:\Users\jenny\AppData\Local\Temp\ccFzIZYt.s:1603   .text.etharp_tmr:00000238 $t
C:\Users\jenny\AppData\Local\Temp\ccFzIZYt.s:1866   .text.etharp_find_addr:00000044 $t
C:\Users\jenny\AppData\Local\Temp\ccFzIZYt.s:2072   .text.etharp_request:000000d8 $t
C:\Users\jenny\AppData\Local\Temp\ccFzIZYt.s:2326   .text.etharp_query:00000138 $t
C:\Users\jenny\AppData\Local\Temp\ccFzIZYt.s:2802   .text.etharp_output:00000208 $t
C:\Users\jenny\AppData\Local\Temp\ccFzIZYt.s:3231   .text.ethernet_input:00000234 $t

UNDEFINED SYMBOLS
pbuf_free
port_halt
ARM GAS  C:\Users\jenny\AppData\Local\Temp\ccFzIZYt.s 			page 202


pbuf_alloc
lwip_htons
lwip_stats
ip4_addr_isbroadcast
pbuf_copy
pbuf_ref
pbuf_header
memcmp
ip_input
