ARM GAS  C:\Users\jenny\AppData\Local\Temp\cchzpR6c.s 			page 1


   1              		.syntax unified
   2              		.cpu cortex-m4
   3              		.eabi_attribute 27, 3
   4              		.fpu fpv4-sp-d16
   5              		.eabi_attribute 20, 1
   6              		.eabi_attribute 21, 1
   7              		.eabi_attribute 23, 3
   8              		.eabi_attribute 24, 1
   9              		.eabi_attribute 25, 1
  10              		.eabi_attribute 26, 1
  11              		.eabi_attribute 30, 2
  12              		.eabi_attribute 34, 1
  13              		.eabi_attribute 18, 4
  14              		.thumb
  15              		.file	"evtimer.c"
  16              		.text
  17              	.Ltext0:
  18              		.cfi_sections	.debug_frame
  19              		.section	.text.tmrcb,"ax",%progbits
  20              		.align	2
  21              		.p2align 4,,15
  22              		.thumb
  23              		.thumb_func
  24              		.type	tmrcb, %function
  25              	tmrcb:
  26              	.LFB7:
  27              		.file 1 "../../os/various/evtimer.c"
  28              		.loc 1 28 0
  29              		.cfi_startproc
  30              		@ args = 0, pretend = 0, frame = 0
  31              		@ frame_needed = 0, uses_anonymous_args = 0
  32              	.LVL0:
  33 0000 10B5     		push	{r4, lr}
  34              	.LCFI0:
  35              		.cfi_def_cfa_offset 8
  36              		.cfi_offset 4, -8
  37              		.cfi_offset 14, -4
  38              	.LBB2:
  39              		.loc 1 31 0
  40 0002 2023     		movs	r3, #32
  41              	.LVL1:
  42              	.LBE2:
  43              		.loc 1 28 0
  44 0004 0446     		mov	r4, r0
  45              	.LVL2:
  46              	.LBB3:
  47              		.loc 1 31 0
  48              	@ 31 "../../os/various/evtimer.c" 1
  49 0006 83F31188 		msr     BASEPRI, r3
  50              	@ 0 "" 2
  51              	.LVL3:
  52              		.thumb
  53              	.LBE3:
  54              		.loc 1 32 0
  55 000a 0021     		movs	r1, #0
  56 000c 00F11400 		add	r0, r0, #20
  57              	.LVL4:
ARM GAS  C:\Users\jenny\AppData\Local\Temp\cchzpR6c.s 			page 2


  58 0010 FFF7FEFF 		bl	chEvtBroadcastFlagsI
  59              	.LVL5:
  60              		.loc 1 33 0
  61 0014 40F20002 		movw	r2, #:lower16:tmrcb
  62 0018 2346     		mov	r3, r4
  63 001a 2046     		mov	r0, r4
  64 001c A169     		ldr	r1, [r4, #24]
  65 001e C0F20002 		movt	r2, #:upper16:tmrcb
  66 0022 FFF7FEFF 		bl	chVTSetI
  67              	.LVL6:
  68              	.LBB4:
  69              		.loc 1 34 0
  70 0026 0023     		movs	r3, #0
  71              	.LVL7:
  72              	@ 34 "../../os/various/evtimer.c" 1
  73 0028 83F31188 		msr     BASEPRI, r3
  74              	@ 0 "" 2
  75              	.LVL8:
  76              		.thumb
  77 002c 10BD     		pop	{r4, pc}
  78              	.LBE4:
  79              		.cfi_endproc
  80              	.LFE7:
  81              		.size	tmrcb, .-tmrcb
  82 002e 00BF     		.section	.text.evtStart,"ax",%progbits
  83              		.align	2
  84              		.p2align 4,,15
  85              		.global	evtStart
  86              		.thumb
  87              		.thumb_func
  88              		.type	evtStart, %function
  89              	evtStart:
  90              	.LFB8:
  91              		.loc 1 43 0
  92              		.cfi_startproc
  93              		@ args = 0, pretend = 0, frame = 0
  94              		@ frame_needed = 0, uses_anonymous_args = 0
  95              	.LVL9:
  96 0000 10B5     		push	{r4, lr}
  97              	.LCFI1:
  98              		.cfi_def_cfa_offset 8
  99              		.cfi_offset 4, -8
 100              		.cfi_offset 14, -4
 101              	.LBB5:
 102              		.loc 1 45 0
 103 0002 2023     		movs	r3, #32
 104              	.LVL10:
 105              	.LBE5:
 106              		.loc 1 43 0
 107 0004 0446     		mov	r4, r0
 108              	.LBB6:
 109              		.loc 1 45 0
 110              	@ 45 "../../os/various/evtimer.c" 1
 111 0006 83F31188 		msr     BASEPRI, r3
 112              	@ 0 "" 2
 113              	.LVL11:
 114              		.thumb
ARM GAS  C:\Users\jenny\AppData\Local\Temp\cchzpR6c.s 			page 3


 115              	.LBE6:
 116              		.loc 1 47 0
 117 000a C368     		ldr	r3, [r0, #12]
 118              	.LVL12:
 119 000c 1BB1     		cbz	r3, .L5
 120              	.LVL13:
 121              	.L3:
 122              	.LBB7:
 123              		.loc 1 50 0
 124 000e 0023     		movs	r3, #0
 125              	.LVL14:
 126              	@ 50 "../../os/various/evtimer.c" 1
 127 0010 83F31188 		msr     BASEPRI, r3
 128              	@ 0 "" 2
 129              	.LVL15:
 130              		.thumb
 131 0014 10BD     		pop	{r4, pc}
 132              	.LVL16:
 133              	.L5:
 134              	.LBE7:
 135              		.loc 1 48 0
 136 0016 8169     		ldr	r1, [r0, #24]
 137 0018 024A     		ldr	r2, .L6
 138 001a 0346     		mov	r3, r0
 139 001c FFF7FEFF 		bl	chVTSetI
 140              	.LVL17:
 141 0020 F5E7     		b	.L3
 142              	.L7:
 143 0022 00BF     		.align	2
 144              	.L6:
 145 0024 00000000 		.word	tmrcb
 146              		.cfi_endproc
 147              	.LFE8:
 148              		.size	evtStart, .-evtStart
 149 0028 AFF30080 		.section	.text.evtStop,"ax",%progbits
 149      AFF30080 
 150              		.align	2
 151              		.p2align 4,,15
 152              		.global	evtStop
 153              		.thumb
 154              		.thumb_func
 155              		.type	evtStop, %function
 156              	evtStop:
 157              	.LFB9:
 158              		.loc 1 59 0
 159              		.cfi_startproc
 160              		@ args = 0, pretend = 0, frame = 0
 161              		@ frame_needed = 0, uses_anonymous_args = 0
 162              	.LVL18:
 163 0000 08B5     		push	{r3, lr}
 164              	.LCFI2:
 165              		.cfi_def_cfa_offset 8
 166              		.cfi_offset 3, -8
 167              		.cfi_offset 14, -4
 168              	.LBB8:
 169              		.loc 1 61 0
 170 0002 2023     		movs	r3, #32
ARM GAS  C:\Users\jenny\AppData\Local\Temp\cchzpR6c.s 			page 4


 171              	.LVL19:
 172              	@ 61 "../../os/various/evtimer.c" 1
 173 0004 83F31188 		msr     BASEPRI, r3
 174              	@ 0 "" 2
 175              	.LVL20:
 176              		.thumb
 177              	.LBE8:
 178 0008 C368     		ldr	r3, [r0, #12]
 179              	.LVL21:
 180 000a 0BB1     		cbz	r3, .L9
 181              		.loc 1 61 0 is_stmt 0 discriminator 1
 182 000c FFF7FEFF 		bl	chVTResetI
 183              	.LVL22:
 184              	.L9:
 185              	.LBB9:
 186              		.loc 1 61 0 discriminator 2
 187 0010 0023     		movs	r3, #0
 188              	.LVL23:
 189              	@ 61 "../../os/various/evtimer.c" 1
 190 0012 83F31188 		msr     BASEPRI, r3
 191              	@ 0 "" 2
 192              	.LVL24:
 193              		.thumb
 194 0016 08BD     		pop	{r3, pc}
 195              	.LBE9:
 196              		.cfi_endproc
 197              	.LFE9:
 198              		.size	evtStop, .-evtStop
 199 0018 AFF30080 		.text
 199      AFF30080 
 200              	.Letext0:
 201              		.file 2 "c:\\fbin\\yagarto\\bin\\../lib/gcc/arm-none-eabi/4.7.4/../../../../arm-none-eabi/include/
 202              		.file 3 "../../os/ports/GCC/ARMCMx/chtypes.h"
 203              		.file 4 "../../os/kernel/include/chlists.h"
 204              		.file 5 "../../os/kernel/include/chthreads.h"
 205              		.file 6 "../../os/ports/GCC/ARMCMx/chcore_v7m.h"
 206              		.file 7 "../../os/kernel/include/chvt.h"
 207              		.file 8 "../../os/kernel/include/chmtx.h"
 208              		.file 9 "../../os/kernel/include/chevents.h"
 209              		.file 10 "../../os/various/evtimer.h"
 210              		.section	.debug_info,"",%progbits
 211              	.Ldebug_info0:
 212 0000 F9070000 		.4byte	0x7f9
 213 0004 0200     		.2byte	0x2
 214 0006 00000000 		.4byte	.Ldebug_abbrev0
 215 000a 04       		.byte	0x4
 216 000b 01       		.uleb128 0x1
 217 000c 7C000000 		.4byte	.LASF79
 218 0010 01       		.byte	0x1
 219 0011 94030000 		.4byte	.LASF80
 220 0015 FF020000 		.4byte	.LASF81
 221 0019 30000000 		.4byte	.Ldebug_ranges0+0x30
 222 001d 00000000 		.4byte	0
 223 0021 00000000 		.4byte	0
 224 0025 00000000 		.4byte	.Ldebug_line0
 225 0029 02       		.uleb128 0x2
 226 002a 04       		.byte	0x4
ARM GAS  C:\Users\jenny\AppData\Local\Temp\cchzpR6c.s 			page 5


 227 002b 05       		.byte	0x5
 228 002c 696E7400 		.ascii	"int\000"
 229 0030 03       		.uleb128 0x3
 230 0031 04       		.byte	0x4
 231 0032 07       		.byte	0x7
 232 0033 1A010000 		.4byte	.LASF0
 233 0037 03       		.uleb128 0x3
 234 0038 01       		.byte	0x1
 235 0039 06       		.byte	0x6
 236 003a 4E000000 		.4byte	.LASF1
 237 003e 04       		.uleb128 0x4
 238 003f F7020000 		.4byte	.LASF5
 239 0043 02       		.byte	0x2
 240 0044 2A       		.byte	0x2a
 241 0045 49000000 		.4byte	0x49
 242 0049 03       		.uleb128 0x3
 243 004a 01       		.byte	0x1
 244 004b 08       		.byte	0x8
 245 004c 07020000 		.4byte	.LASF2
 246 0050 03       		.uleb128 0x3
 247 0051 02       		.byte	0x2
 248 0052 05       		.byte	0x5
 249 0053 34020000 		.4byte	.LASF3
 250 0057 03       		.uleb128 0x3
 251 0058 02       		.byte	0x2
 252 0059 07       		.byte	0x7
 253 005a 56010000 		.4byte	.LASF4
 254 005e 04       		.uleb128 0x4
 255 005f FF010000 		.4byte	.LASF6
 256 0063 02       		.byte	0x2
 257 0064 4F       		.byte	0x4f
 258 0065 69000000 		.4byte	0x69
 259 0069 03       		.uleb128 0x3
 260 006a 04       		.byte	0x4
 261 006b 05       		.byte	0x5
 262 006c C5000000 		.4byte	.LASF7
 263 0070 04       		.uleb128 0x4
 264 0071 83020000 		.4byte	.LASF8
 265 0075 02       		.byte	0x2
 266 0076 50       		.byte	0x50
 267 0077 7B000000 		.4byte	0x7b
 268 007b 03       		.uleb128 0x3
 269 007c 04       		.byte	0x4
 270 007d 07       		.byte	0x7
 271 007e 2F010000 		.4byte	.LASF9
 272 0082 03       		.uleb128 0x3
 273 0083 08       		.byte	0x8
 274 0084 05       		.byte	0x5
 275 0085 40000000 		.4byte	.LASF10
 276 0089 03       		.uleb128 0x3
 277 008a 08       		.byte	0x8
 278 008b 07       		.byte	0x7
 279 008c 19000000 		.4byte	.LASF11
 280 0090 03       		.uleb128 0x3
 281 0091 01       		.byte	0x1
 282 0092 02       		.byte	0x2
 283 0093 F9010000 		.4byte	.LASF12
ARM GAS  C:\Users\jenny\AppData\Local\Temp\cchzpR6c.s 			page 6


 284 0097 04       		.uleb128 0x4
 285 0098 77010000 		.4byte	.LASF13
 286 009c 03       		.byte	0x3
 287 009d 2C       		.byte	0x2c
 288 009e 3E000000 		.4byte	0x3e
 289 00a2 04       		.uleb128 0x4
 290 00a3 CE000000 		.4byte	.LASF14
 291 00a7 03       		.byte	0x3
 292 00a8 2D       		.byte	0x2d
 293 00a9 3E000000 		.4byte	0x3e
 294 00ad 04       		.uleb128 0x4
 295 00ae E2010000 		.4byte	.LASF15
 296 00b2 03       		.byte	0x3
 297 00b3 2E       		.byte	0x2e
 298 00b4 3E000000 		.4byte	0x3e
 299 00b8 04       		.uleb128 0x4
 300 00b9 72000000 		.4byte	.LASF16
 301 00bd 03       		.byte	0x3
 302 00be 2F       		.byte	0x2f
 303 00bf 3E000000 		.4byte	0x3e
 304 00c3 04       		.uleb128 0x4
 305 00c4 F1010000 		.4byte	.LASF17
 306 00c8 03       		.byte	0x3
 307 00c9 30       		.byte	0x30
 308 00ca 70000000 		.4byte	0x70
 309 00ce 04       		.uleb128 0x4
 310 00cf 69010000 		.4byte	.LASF18
 311 00d3 03       		.byte	0x3
 312 00d4 31       		.byte	0x31
 313 00d5 5E000000 		.4byte	0x5e
 314 00d9 04       		.uleb128 0x4
 315 00da 8B010000 		.4byte	.LASF19
 316 00de 03       		.byte	0x3
 317 00df 33       		.byte	0x33
 318 00e0 70000000 		.4byte	0x70
 319 00e4 04       		.uleb128 0x4
 320 00e5 E4020000 		.4byte	.LASF20
 321 00e9 03       		.byte	0x3
 322 00ea 34       		.byte	0x34
 323 00eb 70000000 		.4byte	0x70
 324 00ef 04       		.uleb128 0x4
 325 00f0 9E020000 		.4byte	.LASF21
 326 00f4 03       		.byte	0x3
 327 00f5 35       		.byte	0x35
 328 00f6 70000000 		.4byte	0x70
 329 00fa 04       		.uleb128 0x4
 330 00fb 66020000 		.4byte	.LASF22
 331 00ff 04       		.byte	0x4
 332 0100 2A       		.byte	0x2a
 333 0101 05010000 		.4byte	0x105
 334 0105 05       		.uleb128 0x5
 335 0106 66020000 		.4byte	.LASF22
 336 010a 48       		.byte	0x48
 337 010b 05       		.byte	0x5
 338 010c 5E       		.byte	0x5e
 339 010d 2A020000 		.4byte	0x22a
 340 0111 06       		.uleb128 0x6
ARM GAS  C:\Users\jenny\AppData\Local\Temp\cchzpR6c.s 			page 7


 341 0112 57020000 		.4byte	.LASF23
 342 0116 05       		.byte	0x5
 343 0117 5F       		.byte	0x5f
 344 0118 4F020000 		.4byte	0x24f
 345 011c 02       		.byte	0x2
 346 011d 23       		.byte	0x23
 347 011e 00       		.uleb128 0
 348 011f 06       		.uleb128 0x6
 349 0120 EA010000 		.4byte	.LASF24
 350 0124 05       		.byte	0x5
 351 0125 61       		.byte	0x61
 352 0126 4F020000 		.4byte	0x24f
 353 012a 02       		.byte	0x2
 354 012b 23       		.byte	0x23
 355 012c 04       		.uleb128 0x4
 356 012d 06       		.uleb128 0x6
 357 012e 39000000 		.4byte	.LASF25
 358 0132 05       		.byte	0x5
 359 0133 63       		.byte	0x63
 360 0134 C3000000 		.4byte	0xc3
 361 0138 02       		.byte	0x2
 362 0139 23       		.byte	0x23
 363 013a 08       		.uleb128 0x8
 364 013b 06       		.uleb128 0x6
 365 013c 84030000 		.4byte	.LASF26
 366 0140 05       		.byte	0x5
 367 0141 64       		.byte	0x64
 368 0142 0D040000 		.4byte	0x40d
 369 0146 02       		.byte	0x2
 370 0147 23       		.byte	0x23
 371 0148 0C       		.uleb128 0xc
 372 0149 06       		.uleb128 0x6
 373 014a EC000000 		.4byte	.LASF27
 374 014e 05       		.byte	0x5
 375 014f 66       		.byte	0x66
 376 0150 4F020000 		.4byte	0x24f
 377 0154 02       		.byte	0x2
 378 0155 23       		.byte	0x23
 379 0156 10       		.uleb128 0x10
 380 0157 06       		.uleb128 0x6
 381 0158 C5010000 		.4byte	.LASF28
 382 015c 05       		.byte	0x5
 383 015d 67       		.byte	0x67
 384 015e 4F020000 		.4byte	0x24f
 385 0162 02       		.byte	0x2
 386 0163 23       		.byte	0x23
 387 0164 14       		.uleb128 0x14
 388 0165 06       		.uleb128 0x6
 389 0166 67030000 		.4byte	.LASF29
 390 016a 05       		.byte	0x5
 391 016b 6E       		.byte	0x6e
 392 016c B6050000 		.4byte	0x5b6
 393 0170 02       		.byte	0x2
 394 0171 23       		.byte	0x23
 395 0172 18       		.uleb128 0x18
 396 0173 06       		.uleb128 0x6
 397 0174 3E020000 		.4byte	.LASF30
ARM GAS  C:\Users\jenny\AppData\Local\Temp\cchzpR6c.s 			page 8


 398 0178 05       		.byte	0x5
 399 0179 79       		.byte	0x79
 400 017a A2000000 		.4byte	0xa2
 401 017e 02       		.byte	0x2
 402 017f 23       		.byte	0x23
 403 0180 1C       		.uleb128 0x1c
 404 0181 06       		.uleb128 0x6
 405 0182 5E020000 		.4byte	.LASF31
 406 0186 05       		.byte	0x5
 407 0187 7D       		.byte	0x7d
 408 0188 97000000 		.4byte	0x97
 409 018c 02       		.byte	0x2
 410 018d 23       		.byte	0x23
 411 018e 1D       		.uleb128 0x1d
 412 018f 06       		.uleb128 0x6
 413 0190 F0020000 		.4byte	.LASF32
 414 0194 05       		.byte	0x5
 415 0195 82       		.byte	0x82
 416 0196 AD000000 		.4byte	0xad
 417 019a 02       		.byte	0x2
 418 019b 23       		.byte	0x23
 419 019c 1E       		.uleb128 0x1e
 420 019d 06       		.uleb128 0x6
 421 019e 46020000 		.4byte	.LASF33
 422 01a2 05       		.byte	0x5
 423 01a3 88       		.byte	0x88
 424 01a4 B8000000 		.4byte	0xb8
 425 01a8 02       		.byte	0x2
 426 01a9 23       		.byte	0x23
 427 01aa 1F       		.uleb128 0x1f
 428 01ab 06       		.uleb128 0x6
 429 01ac C4020000 		.4byte	.LASF34
 430 01b0 05       		.byte	0x5
 431 01b1 8F       		.byte	0x8f
 432 01b2 B8040000 		.4byte	0x4b8
 433 01b6 02       		.byte	0x2
 434 01b7 23       		.byte	0x23
 435 01b8 20       		.uleb128 0x20
 436 01b9 07       		.uleb128 0x7
 437 01ba 705F7500 		.ascii	"p_u\000"
 438 01be 05       		.byte	0x5
 439 01bf B4       		.byte	0xb4
 440 01c0 81050000 		.4byte	0x581
 441 01c4 02       		.byte	0x2
 442 01c5 23       		.byte	0x23
 443 01c6 24       		.uleb128 0x24
 444 01c7 06       		.uleb128 0x6
 445 01c8 8A030000 		.4byte	.LASF35
 446 01cc 05       		.byte	0x5
 447 01cd B9       		.byte	0xb9
 448 01ce 77020000 		.4byte	0x277
 449 01d2 02       		.byte	0x2
 450 01d3 23       		.byte	0x23
 451 01d4 28       		.uleb128 0x28
 452 01d5 06       		.uleb128 0x6
 453 01d6 D2020000 		.4byte	.LASF36
 454 01da 05       		.byte	0x5
ARM GAS  C:\Users\jenny\AppData\Local\Temp\cchzpR6c.s 			page 9


 455 01db BF       		.byte	0xbf
 456 01dc 55020000 		.4byte	0x255
 457 01e0 02       		.byte	0x2
 458 01e1 23       		.byte	0x23
 459 01e2 2C       		.uleb128 0x2c
 460 01e3 06       		.uleb128 0x6
 461 01e4 0C000000 		.4byte	.LASF37
 462 01e8 05       		.byte	0x5
 463 01e9 C3       		.byte	0xc3
 464 01ea CE000000 		.4byte	0xce
 465 01ee 02       		.byte	0x2
 466 01ef 23       		.byte	0x23
 467 01f0 34       		.uleb128 0x34
 468 01f1 06       		.uleb128 0x6
 469 01f2 78020000 		.4byte	.LASF38
 470 01f6 05       		.byte	0x5
 471 01f7 C9       		.byte	0xc9
 472 01f8 D9000000 		.4byte	0xd9
 473 01fc 02       		.byte	0x2
 474 01fd 23       		.byte	0x23
 475 01fe 38       		.uleb128 0x38
 476 01ff 06       		.uleb128 0x6
 477 0200 2A020000 		.4byte	.LASF39
 478 0204 05       		.byte	0x5
 479 0205 D0       		.byte	0xd0
 480 0206 C8050000 		.4byte	0x5c8
 481 020a 02       		.byte	0x2
 482 020b 23       		.byte	0x23
 483 020c 3C       		.uleb128 0x3c
 484 020d 06       		.uleb128 0x6
 485 020e A8020000 		.4byte	.LASF40
 486 0212 05       		.byte	0x5
 487 0213 D4       		.byte	0xd4
 488 0214 C3000000 		.4byte	0xc3
 489 0218 02       		.byte	0x2
 490 0219 23       		.byte	0x23
 491 021a 40       		.uleb128 0x40
 492 021b 06       		.uleb128 0x6
 493 021c 62000000 		.4byte	.LASF41
 494 0220 05       		.byte	0x5
 495 0221 DA       		.byte	0xda
 496 0222 8D020000 		.4byte	0x28d
 497 0226 02       		.byte	0x2
 498 0227 23       		.byte	0x23
 499 0228 44       		.uleb128 0x44
 500 0229 00       		.byte	0
 501 022a 08       		.uleb128 0x8
 502 022b 08       		.byte	0x8
 503 022c 04       		.byte	0x4
 504 022d 61       		.byte	0x61
 505 022e 4F020000 		.4byte	0x24f
 506 0232 06       		.uleb128 0x6
 507 0233 57020000 		.4byte	.LASF23
 508 0237 04       		.byte	0x4
 509 0238 62       		.byte	0x62
 510 0239 4F020000 		.4byte	0x24f
 511 023d 02       		.byte	0x2
ARM GAS  C:\Users\jenny\AppData\Local\Temp\cchzpR6c.s 			page 10


 512 023e 23       		.byte	0x23
 513 023f 00       		.uleb128 0
 514 0240 06       		.uleb128 0x6
 515 0241 EA010000 		.4byte	.LASF24
 516 0245 04       		.byte	0x4
 517 0246 64       		.byte	0x64
 518 0247 4F020000 		.4byte	0x24f
 519 024b 02       		.byte	0x2
 520 024c 23       		.byte	0x23
 521 024d 04       		.uleb128 0x4
 522 024e 00       		.byte	0
 523 024f 09       		.uleb128 0x9
 524 0250 04       		.byte	0x4
 525 0251 FA000000 		.4byte	0xfa
 526 0255 04       		.uleb128 0x4
 527 0256 CD010000 		.4byte	.LASF42
 528 025a 04       		.byte	0x4
 529 025b 66       		.byte	0x66
 530 025c 2A020000 		.4byte	0x22a
 531 0260 08       		.uleb128 0x8
 532 0261 04       		.byte	0x4
 533 0262 04       		.byte	0x4
 534 0263 6B       		.byte	0x6b
 535 0264 77020000 		.4byte	0x277
 536 0268 06       		.uleb128 0x6
 537 0269 57020000 		.4byte	.LASF23
 538 026d 04       		.byte	0x4
 539 026e 6D       		.byte	0x6d
 540 026f 4F020000 		.4byte	0x24f
 541 0273 02       		.byte	0x2
 542 0274 23       		.byte	0x23
 543 0275 00       		.uleb128 0
 544 0276 00       		.byte	0
 545 0277 04       		.uleb128 0x4
 546 0278 7F010000 		.4byte	.LASF43
 547 027c 04       		.byte	0x4
 548 027d 70       		.byte	0x70
 549 027e 60020000 		.4byte	0x260
 550 0282 04       		.uleb128 0x4
 551 0283 FD000000 		.4byte	.LASF44
 552 0287 06       		.byte	0x6
 553 0288 E5       		.byte	0xe5
 554 0289 8D020000 		.4byte	0x28d
 555 028d 0A       		.uleb128 0xa
 556 028e 04       		.byte	0x4
 557 028f 0B       		.uleb128 0xb
 558 0290 CB020000 		.4byte	.LASF45
 559 0294 64       		.byte	0x64
 560 0295 06       		.byte	0x6
 561 0296 0C01     		.2byte	0x10c
 562 0298 0D040000 		.4byte	0x40d
 563 029c 0C       		.uleb128 0xc
 564 029d 73313600 		.ascii	"s16\000"
 565 02a1 06       		.byte	0x6
 566 02a2 0E01     		.2byte	0x10e
 567 02a4 82020000 		.4byte	0x282
 568 02a8 02       		.byte	0x2
ARM GAS  C:\Users\jenny\AppData\Local\Temp\cchzpR6c.s 			page 11


 569 02a9 23       		.byte	0x23
 570 02aa 00       		.uleb128 0
 571 02ab 0C       		.uleb128 0xc
 572 02ac 73313700 		.ascii	"s17\000"
 573 02b0 06       		.byte	0x6
 574 02b1 0F01     		.2byte	0x10f
 575 02b3 82020000 		.4byte	0x282
 576 02b7 02       		.byte	0x2
 577 02b8 23       		.byte	0x23
 578 02b9 04       		.uleb128 0x4
 579 02ba 0C       		.uleb128 0xc
 580 02bb 73313800 		.ascii	"s18\000"
 581 02bf 06       		.byte	0x6
 582 02c0 1001     		.2byte	0x110
 583 02c2 82020000 		.4byte	0x282
 584 02c6 02       		.byte	0x2
 585 02c7 23       		.byte	0x23
 586 02c8 08       		.uleb128 0x8
 587 02c9 0C       		.uleb128 0xc
 588 02ca 73313900 		.ascii	"s19\000"
 589 02ce 06       		.byte	0x6
 590 02cf 1101     		.2byte	0x111
 591 02d1 82020000 		.4byte	0x282
 592 02d5 02       		.byte	0x2
 593 02d6 23       		.byte	0x23
 594 02d7 0C       		.uleb128 0xc
 595 02d8 0C       		.uleb128 0xc
 596 02d9 73323000 		.ascii	"s20\000"
 597 02dd 06       		.byte	0x6
 598 02de 1201     		.2byte	0x112
 599 02e0 82020000 		.4byte	0x282
 600 02e4 02       		.byte	0x2
 601 02e5 23       		.byte	0x23
 602 02e6 10       		.uleb128 0x10
 603 02e7 0C       		.uleb128 0xc
 604 02e8 73323100 		.ascii	"s21\000"
 605 02ec 06       		.byte	0x6
 606 02ed 1301     		.2byte	0x113
 607 02ef 82020000 		.4byte	0x282
 608 02f3 02       		.byte	0x2
 609 02f4 23       		.byte	0x23
 610 02f5 14       		.uleb128 0x14
 611 02f6 0C       		.uleb128 0xc
 612 02f7 73323200 		.ascii	"s22\000"
 613 02fb 06       		.byte	0x6
 614 02fc 1401     		.2byte	0x114
 615 02fe 82020000 		.4byte	0x282
 616 0302 02       		.byte	0x2
 617 0303 23       		.byte	0x23
 618 0304 18       		.uleb128 0x18
 619 0305 0C       		.uleb128 0xc
 620 0306 73323300 		.ascii	"s23\000"
 621 030a 06       		.byte	0x6
 622 030b 1501     		.2byte	0x115
 623 030d 82020000 		.4byte	0x282
 624 0311 02       		.byte	0x2
 625 0312 23       		.byte	0x23
ARM GAS  C:\Users\jenny\AppData\Local\Temp\cchzpR6c.s 			page 12


 626 0313 1C       		.uleb128 0x1c
 627 0314 0C       		.uleb128 0xc
 628 0315 73323400 		.ascii	"s24\000"
 629 0319 06       		.byte	0x6
 630 031a 1601     		.2byte	0x116
 631 031c 82020000 		.4byte	0x282
 632 0320 02       		.byte	0x2
 633 0321 23       		.byte	0x23
 634 0322 20       		.uleb128 0x20
 635 0323 0C       		.uleb128 0xc
 636 0324 73323500 		.ascii	"s25\000"
 637 0328 06       		.byte	0x6
 638 0329 1701     		.2byte	0x117
 639 032b 82020000 		.4byte	0x282
 640 032f 02       		.byte	0x2
 641 0330 23       		.byte	0x23
 642 0331 24       		.uleb128 0x24
 643 0332 0C       		.uleb128 0xc
 644 0333 73323600 		.ascii	"s26\000"
 645 0337 06       		.byte	0x6
 646 0338 1801     		.2byte	0x118
 647 033a 82020000 		.4byte	0x282
 648 033e 02       		.byte	0x2
 649 033f 23       		.byte	0x23
 650 0340 28       		.uleb128 0x28
 651 0341 0C       		.uleb128 0xc
 652 0342 73323700 		.ascii	"s27\000"
 653 0346 06       		.byte	0x6
 654 0347 1901     		.2byte	0x119
 655 0349 82020000 		.4byte	0x282
 656 034d 02       		.byte	0x2
 657 034e 23       		.byte	0x23
 658 034f 2C       		.uleb128 0x2c
 659 0350 0C       		.uleb128 0xc
 660 0351 73323800 		.ascii	"s28\000"
 661 0355 06       		.byte	0x6
 662 0356 1A01     		.2byte	0x11a
 663 0358 82020000 		.4byte	0x282
 664 035c 02       		.byte	0x2
 665 035d 23       		.byte	0x23
 666 035e 30       		.uleb128 0x30
 667 035f 0C       		.uleb128 0xc
 668 0360 73323900 		.ascii	"s29\000"
 669 0364 06       		.byte	0x6
 670 0365 1B01     		.2byte	0x11b
 671 0367 82020000 		.4byte	0x282
 672 036b 02       		.byte	0x2
 673 036c 23       		.byte	0x23
 674 036d 34       		.uleb128 0x34
 675 036e 0C       		.uleb128 0xc
 676 036f 73333000 		.ascii	"s30\000"
 677 0373 06       		.byte	0x6
 678 0374 1C01     		.2byte	0x11c
 679 0376 82020000 		.4byte	0x282
 680 037a 02       		.byte	0x2
 681 037b 23       		.byte	0x23
 682 037c 38       		.uleb128 0x38
ARM GAS  C:\Users\jenny\AppData\Local\Temp\cchzpR6c.s 			page 13


 683 037d 0C       		.uleb128 0xc
 684 037e 73333100 		.ascii	"s31\000"
 685 0382 06       		.byte	0x6
 686 0383 1D01     		.2byte	0x11d
 687 0385 82020000 		.4byte	0x282
 688 0389 02       		.byte	0x2
 689 038a 23       		.byte	0x23
 690 038b 3C       		.uleb128 0x3c
 691 038c 0C       		.uleb128 0xc
 692 038d 723400   		.ascii	"r4\000"
 693 0390 06       		.byte	0x6
 694 0391 1F01     		.2byte	0x11f
 695 0393 82020000 		.4byte	0x282
 696 0397 02       		.byte	0x2
 697 0398 23       		.byte	0x23
 698 0399 40       		.uleb128 0x40
 699 039a 0C       		.uleb128 0xc
 700 039b 723500   		.ascii	"r5\000"
 701 039e 06       		.byte	0x6
 702 039f 2001     		.2byte	0x120
 703 03a1 82020000 		.4byte	0x282
 704 03a5 02       		.byte	0x2
 705 03a6 23       		.byte	0x23
 706 03a7 44       		.uleb128 0x44
 707 03a8 0C       		.uleb128 0xc
 708 03a9 723600   		.ascii	"r6\000"
 709 03ac 06       		.byte	0x6
 710 03ad 2101     		.2byte	0x121
 711 03af 82020000 		.4byte	0x282
 712 03b3 02       		.byte	0x2
 713 03b4 23       		.byte	0x23
 714 03b5 48       		.uleb128 0x48
 715 03b6 0C       		.uleb128 0xc
 716 03b7 723700   		.ascii	"r7\000"
 717 03ba 06       		.byte	0x6
 718 03bb 2201     		.2byte	0x122
 719 03bd 82020000 		.4byte	0x282
 720 03c1 02       		.byte	0x2
 721 03c2 23       		.byte	0x23
 722 03c3 4C       		.uleb128 0x4c
 723 03c4 0C       		.uleb128 0xc
 724 03c5 723800   		.ascii	"r8\000"
 725 03c8 06       		.byte	0x6
 726 03c9 2301     		.2byte	0x123
 727 03cb 82020000 		.4byte	0x282
 728 03cf 02       		.byte	0x2
 729 03d0 23       		.byte	0x23
 730 03d1 50       		.uleb128 0x50
 731 03d2 0C       		.uleb128 0xc
 732 03d3 723900   		.ascii	"r9\000"
 733 03d6 06       		.byte	0x6
 734 03d7 2401     		.2byte	0x124
 735 03d9 82020000 		.4byte	0x282
 736 03dd 02       		.byte	0x2
 737 03de 23       		.byte	0x23
 738 03df 54       		.uleb128 0x54
 739 03e0 0C       		.uleb128 0xc
ARM GAS  C:\Users\jenny\AppData\Local\Temp\cchzpR6c.s 			page 14


 740 03e1 72313000 		.ascii	"r10\000"
 741 03e5 06       		.byte	0x6
 742 03e6 2501     		.2byte	0x125
 743 03e8 82020000 		.4byte	0x282
 744 03ec 02       		.byte	0x2
 745 03ed 23       		.byte	0x23
 746 03ee 58       		.uleb128 0x58
 747 03ef 0C       		.uleb128 0xc
 748 03f0 72313100 		.ascii	"r11\000"
 749 03f4 06       		.byte	0x6
 750 03f5 2601     		.2byte	0x126
 751 03f7 82020000 		.4byte	0x282
 752 03fb 02       		.byte	0x2
 753 03fc 23       		.byte	0x23
 754 03fd 5C       		.uleb128 0x5c
 755 03fe 0C       		.uleb128 0xc
 756 03ff 6C7200   		.ascii	"lr\000"
 757 0402 06       		.byte	0x6
 758 0403 2701     		.2byte	0x127
 759 0405 82020000 		.4byte	0x282
 760 0409 02       		.byte	0x2
 761 040a 23       		.byte	0x23
 762 040b 60       		.uleb128 0x60
 763 040c 00       		.byte	0
 764 040d 0B       		.uleb128 0xb
 765 040e 4E010000 		.4byte	.LASF46
 766 0412 04       		.byte	0x4
 767 0413 06       		.byte	0x6
 768 0414 3101     		.2byte	0x131
 769 0416 2A040000 		.4byte	0x42a
 770 041a 0C       		.uleb128 0xc
 771 041b 72313300 		.ascii	"r13\000"
 772 041f 06       		.byte	0x6
 773 0420 3201     		.2byte	0x132
 774 0422 2A040000 		.4byte	0x42a
 775 0426 02       		.byte	0x2
 776 0427 23       		.byte	0x23
 777 0428 00       		.uleb128 0
 778 0429 00       		.byte	0
 779 042a 09       		.uleb128 0x9
 780 042b 04       		.byte	0x4
 781 042c 8F020000 		.4byte	0x28f
 782 0430 03       		.uleb128 0x3
 783 0431 04       		.byte	0x4
 784 0432 07       		.byte	0x7
 785 0433 AB010000 		.4byte	.LASF47
 786 0437 04       		.uleb128 0x4
 787 0438 B3020000 		.4byte	.LASF48
 788 043c 07       		.byte	0x7
 789 043d 58       		.byte	0x58
 790 043e 42040000 		.4byte	0x442
 791 0442 09       		.uleb128 0x9
 792 0443 04       		.byte	0x4
 793 0444 48040000 		.4byte	0x448
 794 0448 0D       		.uleb128 0xd
 795 0449 01       		.byte	0x1
 796 044a 54040000 		.4byte	0x454
ARM GAS  C:\Users\jenny\AppData\Local\Temp\cchzpR6c.s 			page 15


 797 044e 0E       		.uleb128 0xe
 798 044f 8D020000 		.4byte	0x28d
 799 0453 00       		.byte	0
 800 0454 04       		.uleb128 0x4
 801 0455 41010000 		.4byte	.LASF49
 802 0459 07       		.byte	0x7
 803 045a 5D       		.byte	0x5d
 804 045b 5F040000 		.4byte	0x45f
 805 045f 05       		.uleb128 0x5
 806 0460 41010000 		.4byte	.LASF49
 807 0464 14       		.byte	0x14
 808 0465 07       		.byte	0x7
 809 0466 64       		.byte	0x64
 810 0467 B2040000 		.4byte	0x4b2
 811 046b 06       		.uleb128 0x6
 812 046c 27010000 		.4byte	.LASF50
 813 0470 07       		.byte	0x7
 814 0471 65       		.byte	0x65
 815 0472 B2040000 		.4byte	0x4b2
 816 0476 02       		.byte	0x2
 817 0477 23       		.byte	0x23
 818 0478 00       		.uleb128 0
 819 0479 06       		.uleb128 0x6
 820 047a 06010000 		.4byte	.LASF51
 821 047e 07       		.byte	0x7
 822 047f 67       		.byte	0x67
 823 0480 B2040000 		.4byte	0x4b2
 824 0484 02       		.byte	0x2
 825 0485 23       		.byte	0x23
 826 0486 04       		.uleb128 0x4
 827 0487 06       		.uleb128 0x6
 828 0488 9D010000 		.4byte	.LASF52
 829 048c 07       		.byte	0x7
 830 048d 69       		.byte	0x69
 831 048e EF000000 		.4byte	0xef
 832 0492 02       		.byte	0x2
 833 0493 23       		.byte	0x23
 834 0494 08       		.uleb128 0x8
 835 0495 06       		.uleb128 0x6
 836 0496 B4010000 		.4byte	.LASF53
 837 049a 07       		.byte	0x7
 838 049b 6A       		.byte	0x6a
 839 049c 37040000 		.4byte	0x437
 840 04a0 02       		.byte	0x2
 841 04a1 23       		.byte	0x23
 842 04a2 0C       		.uleb128 0xc
 843 04a3 06       		.uleb128 0x6
 844 04a4 DD020000 		.4byte	.LASF54
 845 04a8 07       		.byte	0x7
 846 04a9 6C       		.byte	0x6c
 847 04aa 8D020000 		.4byte	0x28d
 848 04ae 02       		.byte	0x2
 849 04af 23       		.byte	0x23
 850 04b0 10       		.uleb128 0x10
 851 04b1 00       		.byte	0
 852 04b2 09       		.uleb128 0x9
 853 04b3 04       		.byte	0x4
ARM GAS  C:\Users\jenny\AppData\Local\Temp\cchzpR6c.s 			page 16


 854 04b4 54040000 		.4byte	0x454
 855 04b8 0F       		.uleb128 0xf
 856 04b9 EF000000 		.4byte	0xef
 857 04bd 05       		.uleb128 0x5
 858 04be 97010000 		.4byte	.LASF55
 859 04c2 10       		.byte	0x10
 860 04c3 08       		.byte	0x8
 861 04c4 2C       		.byte	0x2c
 862 04c5 F4040000 		.4byte	0x4f4
 863 04c9 06       		.uleb128 0x6
 864 04ca 6A000000 		.4byte	.LASF56
 865 04ce 08       		.byte	0x8
 866 04cf 2D       		.byte	0x2d
 867 04d0 55020000 		.4byte	0x255
 868 04d4 02       		.byte	0x2
 869 04d5 23       		.byte	0x23
 870 04d6 00       		.uleb128 0
 871 04d7 06       		.uleb128 0x6
 872 04d8 7C030000 		.4byte	.LASF57
 873 04dc 08       		.byte	0x8
 874 04dd 2F       		.byte	0x2f
 875 04de 4F020000 		.4byte	0x24f
 876 04e2 02       		.byte	0x2
 877 04e3 23       		.byte	0x23
 878 04e4 08       		.uleb128 0x8
 879 04e5 06       		.uleb128 0x6
 880 04e6 97020000 		.4byte	.LASF58
 881 04ea 08       		.byte	0x8
 882 04eb 31       		.byte	0x31
 883 04ec F4040000 		.4byte	0x4f4
 884 04f0 02       		.byte	0x2
 885 04f1 23       		.byte	0x23
 886 04f2 0C       		.uleb128 0xc
 887 04f3 00       		.byte	0
 888 04f4 09       		.uleb128 0x9
 889 04f5 04       		.byte	0x4
 890 04f6 BD040000 		.4byte	0x4bd
 891 04fa 04       		.uleb128 0x4
 892 04fb 97010000 		.4byte	.LASF55
 893 04ff 08       		.byte	0x8
 894 0500 33       		.byte	0x33
 895 0501 BD040000 		.4byte	0x4bd
 896 0505 04       		.uleb128 0x4
 897 0506 52030000 		.4byte	.LASF59
 898 050a 09       		.byte	0x9
 899 050b 2C       		.byte	0x2c
 900 050c 10050000 		.4byte	0x510
 901 0510 05       		.uleb128 0x5
 902 0511 52030000 		.4byte	.LASF59
 903 0515 10       		.byte	0x10
 904 0516 09       		.byte	0x9
 905 0517 31       		.byte	0x31
 906 0518 55050000 		.4byte	0x555
 907 051c 06       		.uleb128 0x6
 908 051d 6F010000 		.4byte	.LASF60
 909 0521 09       		.byte	0x9
 910 0522 32       		.byte	0x32
ARM GAS  C:\Users\jenny\AppData\Local\Temp\cchzpR6c.s 			page 17


 911 0523 55050000 		.4byte	0x555
 912 0527 02       		.byte	0x2
 913 0528 23       		.byte	0x23
 914 0529 00       		.uleb128 0
 915 052a 06       		.uleb128 0x6
 916 052b 15020000 		.4byte	.LASF61
 917 052f 09       		.byte	0x9
 918 0530 35       		.byte	0x35
 919 0531 4F020000 		.4byte	0x24f
 920 0535 02       		.byte	0x2
 921 0536 23       		.byte	0x23
 922 0537 04       		.uleb128 0x4
 923 0538 06       		.uleb128 0x6
 924 0539 DA010000 		.4byte	.LASF62
 925 053d 09       		.byte	0x9
 926 053e 37       		.byte	0x37
 927 053f D9000000 		.4byte	0xd9
 928 0543 02       		.byte	0x2
 929 0544 23       		.byte	0x23
 930 0545 08       		.uleb128 0x8
 931 0546 06       		.uleb128 0x6
 932 0547 21020000 		.4byte	.LASF63
 933 054b 09       		.byte	0x9
 934 054c 3A       		.byte	0x3a
 935 054d E4000000 		.4byte	0xe4
 936 0551 02       		.byte	0x2
 937 0552 23       		.byte	0x23
 938 0553 0C       		.uleb128 0xc
 939 0554 00       		.byte	0
 940 0555 09       		.uleb128 0x9
 941 0556 04       		.byte	0x4
 942 0557 05050000 		.4byte	0x505
 943 055b 05       		.uleb128 0x5
 944 055c 0E010000 		.4byte	.LASF64
 945 0560 04       		.byte	0x4
 946 0561 09       		.byte	0x9
 947 0562 41       		.byte	0x41
 948 0563 76050000 		.4byte	0x576
 949 0567 06       		.uleb128 0x6
 950 0568 6E030000 		.4byte	.LASF65
 951 056c 09       		.byte	0x9
 952 056d 42       		.byte	0x42
 953 056e 55050000 		.4byte	0x555
 954 0572 02       		.byte	0x2
 955 0573 23       		.byte	0x23
 956 0574 00       		.uleb128 0
 957 0575 00       		.byte	0
 958 0576 04       		.uleb128 0x4
 959 0577 0E010000 		.4byte	.LASF64
 960 057b 09       		.byte	0x9
 961 057c 45       		.byte	0x45
 962 057d 5B050000 		.4byte	0x55b
 963 0581 10       		.uleb128 0x10
 964 0582 04       		.byte	0x4
 965 0583 05       		.byte	0x5
 966 0584 96       		.byte	0x96
 967 0585 B6050000 		.4byte	0x5b6
ARM GAS  C:\Users\jenny\AppData\Local\Temp\cchzpR6c.s 			page 18


 968 0589 11       		.uleb128 0x11
 969 058a 12000000 		.4byte	.LASF66
 970 058e 05       		.byte	0x5
 971 058f 9D       		.byte	0x9d
 972 0590 CE000000 		.4byte	0xce
 973 0594 11       		.uleb128 0x11
 974 0595 F4000000 		.4byte	.LASF67
 975 0599 05       		.byte	0x5
 976 059a A4       		.byte	0xa4
 977 059b CE000000 		.4byte	0xce
 978 059f 11       		.uleb128 0x11
 979 05a0 60030000 		.4byte	.LASF68
 980 05a4 05       		.byte	0x5
 981 05a5 AB       		.byte	0xab
 982 05a6 8D020000 		.4byte	0x28d
 983 05aa 11       		.uleb128 0x11
 984 05ab 50020000 		.4byte	.LASF69
 985 05af 05       		.byte	0x5
 986 05b0 B2       		.byte	0xb2
 987 05b1 D9000000 		.4byte	0xd9
 988 05b5 00       		.byte	0
 989 05b6 09       		.uleb128 0x9
 990 05b7 04       		.byte	0x4
 991 05b8 BC050000 		.4byte	0x5bc
 992 05bc 12       		.uleb128 0x12
 993 05bd C1050000 		.4byte	0x5c1
 994 05c1 03       		.uleb128 0x3
 995 05c2 01       		.byte	0x1
 996 05c3 08       		.byte	0x8
 997 05c4 8C020000 		.4byte	.LASF70
 998 05c8 09       		.uleb128 0x9
 999 05c9 04       		.byte	0x4
 1000 05ca FA040000 		.4byte	0x4fa
 1001 05ce 08       		.uleb128 0x8
 1002 05cf 1C       		.byte	0x1c
 1003 05d0 0A       		.byte	0xa
 1004 05d1 27       		.byte	0x27
 1005 05d2 01060000 		.4byte	0x601
 1006 05d6 06       		.uleb128 0x6
 1007 05d7 76030000 		.4byte	.LASF71
 1008 05db 0A       		.byte	0xa
 1009 05dc 28       		.byte	0x28
 1010 05dd 54040000 		.4byte	0x454
 1011 05e1 02       		.byte	0x2
 1012 05e2 23       		.byte	0x23
 1013 05e3 00       		.uleb128 0
 1014 05e4 06       		.uleb128 0x6
 1015 05e5 A5010000 		.4byte	.LASF72
 1016 05e9 0A       		.byte	0xa
 1017 05ea 29       		.byte	0x29
 1018 05eb 76050000 		.4byte	0x576
 1019 05ef 02       		.byte	0x2
 1020 05f0 23       		.byte	0x23
 1021 05f1 14       		.uleb128 0x14
 1022 05f2 06       		.uleb128 0x6
 1023 05f3 00000000 		.4byte	.LASF73
 1024 05f7 0A       		.byte	0xa
ARM GAS  C:\Users\jenny\AppData\Local\Temp\cchzpR6c.s 			page 19


 1025 05f8 2A       		.byte	0x2a
 1026 05f9 EF000000 		.4byte	0xef
 1027 05fd 02       		.byte	0x2
 1028 05fe 23       		.byte	0x23
 1029 05ff 18       		.uleb128 0x18
 1030 0600 00       		.byte	0
 1031 0601 04       		.uleb128 0x4
 1032 0602 5A000000 		.4byte	.LASF74
 1033 0606 0A       		.byte	0xa
 1034 0607 2B       		.byte	0x2b
 1035 0608 CE050000 		.4byte	0x5ce
 1036 060c 13       		.uleb128 0x13
 1037 060d 91020000 		.4byte	.LASF82
 1038 0611 01       		.byte	0x1
 1039 0612 1C       		.byte	0x1c
 1040 0613 01       		.byte	0x1
 1041 0614 00000000 		.4byte	.LFB7
 1042 0618 2E000000 		.4byte	.LFE7
 1043 061c 00000000 		.4byte	.LLST0
 1044 0620 01       		.byte	0x1
 1045 0621 B0060000 		.4byte	0x6b0
 1046 0625 14       		.uleb128 0x14
 1047 0626 7000     		.ascii	"p\000"
 1048 0628 01       		.byte	0x1
 1049 0629 1C       		.byte	0x1c
 1050 062a 8D020000 		.4byte	0x28d
 1051 062e 20000000 		.4byte	.LLST1
 1052 0632 15       		.uleb128 0x15
 1053 0633 65747000 		.ascii	"etp\000"
 1054 0637 01       		.byte	0x1
 1055 0638 1D       		.byte	0x1d
 1056 0639 B0060000 		.4byte	0x6b0
 1057 063d 3E000000 		.4byte	.LLST2
 1058 0641 16       		.uleb128 0x16
 1059 0642 00000000 		.4byte	.Ldebug_ranges0+0
 1060 0646 5A060000 		.4byte	0x65a
 1061 064a 15       		.uleb128 0x15
 1062 064b 746D7000 		.ascii	"tmp\000"
 1063 064f 01       		.byte	0x1
 1064 0650 1F       		.byte	0x1f
 1065 0651 70000000 		.4byte	0x70
 1066 0655 5C000000 		.4byte	.LLST3
 1067 0659 00       		.byte	0
 1068 065a 17       		.uleb128 0x17
 1069 065b 26000000 		.4byte	.LBB4
 1070 065f 2E000000 		.4byte	.LBE4
 1071 0663 77060000 		.4byte	0x677
 1072 0667 15       		.uleb128 0x15
 1073 0668 746D7000 		.ascii	"tmp\000"
 1074 066c 01       		.byte	0x1
 1075 066d 22       		.byte	0x22
 1076 066e 70000000 		.4byte	0x70
 1077 0672 6F000000 		.4byte	.LLST4
 1078 0676 00       		.byte	0
 1079 0677 18       		.uleb128 0x18
 1080 0678 14000000 		.4byte	.LVL5
 1081 067c AA070000 		.4byte	0x7aa
ARM GAS  C:\Users\jenny\AppData\Local\Temp\cchzpR6c.s 			page 20


 1082 0680 90060000 		.4byte	0x690
 1083 0684 19       		.uleb128 0x19
 1084 0685 01       		.byte	0x1
 1085 0686 51       		.byte	0x51
 1086 0687 01       		.byte	0x1
 1087 0688 30       		.byte	0x30
 1088 0689 19       		.uleb128 0x19
 1089 068a 01       		.byte	0x1
 1090 068b 50       		.byte	0x50
 1091 068c 02       		.byte	0x2
 1092 068d 74       		.byte	0x74
 1093 068e 14       		.sleb128 20
 1094 068f 00       		.byte	0
 1095 0690 1A       		.uleb128 0x1a
 1096 0691 26000000 		.4byte	.LVL6
 1097 0695 C9070000 		.4byte	0x7c9
 1098 0699 19       		.uleb128 0x19
 1099 069a 01       		.byte	0x1
 1100 069b 53       		.byte	0x53
 1101 069c 02       		.byte	0x2
 1102 069d 74       		.byte	0x74
 1103 069e 00       		.sleb128 0
 1104 069f 19       		.uleb128 0x19
 1105 06a0 01       		.byte	0x1
 1106 06a1 52       		.byte	0x52
 1107 06a2 05       		.byte	0x5
 1108 06a3 03       		.byte	0x3
 1109 06a4 00000000 		.4byte	tmrcb
 1110 06a8 19       		.uleb128 0x19
 1111 06a9 01       		.byte	0x1
 1112 06aa 50       		.byte	0x50
 1113 06ab 02       		.byte	0x2
 1114 06ac 74       		.byte	0x74
 1115 06ad 00       		.sleb128 0
 1116 06ae 00       		.byte	0
 1117 06af 00       		.byte	0
 1118 06b0 09       		.uleb128 0x9
 1119 06b1 04       		.byte	0x4
 1120 06b2 01060000 		.4byte	0x601
 1121 06b6 1B       		.uleb128 0x1b
 1122 06b7 01       		.byte	0x1
 1123 06b8 30000000 		.4byte	.LASF75
 1124 06bc 01       		.byte	0x1
 1125 06bd 2B       		.byte	0x2b
 1126 06be 01       		.byte	0x1
 1127 06bf 00000000 		.4byte	.LFB8
 1128 06c3 28000000 		.4byte	.LFE8
 1129 06c7 82000000 		.4byte	.LLST5
 1130 06cb 01       		.byte	0x1
 1131 06cc 35070000 		.4byte	0x735
 1132 06d0 14       		.uleb128 0x14
 1133 06d1 65747000 		.ascii	"etp\000"
 1134 06d5 01       		.byte	0x1
 1135 06d6 2B       		.byte	0x2b
 1136 06d7 B0060000 		.4byte	0x6b0
 1137 06db A2000000 		.4byte	.LLST6
 1138 06df 16       		.uleb128 0x16
ARM GAS  C:\Users\jenny\AppData\Local\Temp\cchzpR6c.s 			page 21


 1139 06e0 18000000 		.4byte	.Ldebug_ranges0+0x18
 1140 06e4 F8060000 		.4byte	0x6f8
 1141 06e8 15       		.uleb128 0x15
 1142 06e9 746D7000 		.ascii	"tmp\000"
 1143 06ed 01       		.byte	0x1
 1144 06ee 2D       		.byte	0x2d
 1145 06ef 70000000 		.4byte	0x70
 1146 06f3 D6000000 		.4byte	.LLST7
 1147 06f7 00       		.byte	0
 1148 06f8 17       		.uleb128 0x17
 1149 06f9 0E000000 		.4byte	.LBB7
 1150 06fd 16000000 		.4byte	.LBE7
 1151 0701 15070000 		.4byte	0x715
 1152 0705 15       		.uleb128 0x15
 1153 0706 746D7000 		.ascii	"tmp\000"
 1154 070a 01       		.byte	0x1
 1155 070b 32       		.byte	0x32
 1156 070c 70000000 		.4byte	0x70
 1157 0710 E9000000 		.4byte	.LLST8
 1158 0714 00       		.byte	0
 1159 0715 1A       		.uleb128 0x1a
 1160 0716 20000000 		.4byte	.LVL17
 1161 071a C9070000 		.4byte	0x7c9
 1162 071e 19       		.uleb128 0x19
 1163 071f 01       		.byte	0x1
 1164 0720 53       		.byte	0x53
 1165 0721 02       		.byte	0x2
 1166 0722 74       		.byte	0x74
 1167 0723 00       		.sleb128 0
 1168 0724 19       		.uleb128 0x19
 1169 0725 01       		.byte	0x1
 1170 0726 52       		.byte	0x52
 1171 0727 05       		.byte	0x5
 1172 0728 03       		.byte	0x3
 1173 0729 00000000 		.4byte	tmrcb
 1174 072d 19       		.uleb128 0x19
 1175 072e 01       		.byte	0x1
 1176 072f 50       		.byte	0x50
 1177 0730 02       		.byte	0x2
 1178 0731 74       		.byte	0x74
 1179 0732 00       		.sleb128 0
 1180 0733 00       		.byte	0
 1181 0734 00       		.byte	0
 1182 0735 1B       		.uleb128 0x1b
 1183 0736 01       		.byte	0x1
 1184 0737 BC020000 		.4byte	.LASF76
 1185 073b 01       		.byte	0x1
 1186 073c 3B       		.byte	0x3b
 1187 073d 01       		.byte	0x1
 1188 073e 00000000 		.4byte	.LFB9
 1189 0742 18000000 		.4byte	.LFE9
 1190 0746 FC000000 		.4byte	.LLST9
 1191 074a 01       		.byte	0x1
 1192 074b AA070000 		.4byte	0x7aa
 1193 074f 14       		.uleb128 0x14
 1194 0750 65747000 		.ascii	"etp\000"
 1195 0754 01       		.byte	0x1
ARM GAS  C:\Users\jenny\AppData\Local\Temp\cchzpR6c.s 			page 22


 1196 0755 3B       		.byte	0x3b
 1197 0756 B0060000 		.4byte	0x6b0
 1198 075a 1C010000 		.4byte	.LLST10
 1199 075e 17       		.uleb128 0x17
 1200 075f 02000000 		.4byte	.LBB8
 1201 0763 08000000 		.4byte	.LBE8
 1202 0767 7B070000 		.4byte	0x77b
 1203 076b 15       		.uleb128 0x15
 1204 076c 746D7000 		.ascii	"tmp\000"
 1205 0770 01       		.byte	0x1
 1206 0771 3D       		.byte	0x3d
 1207 0772 70000000 		.4byte	0x70
 1208 0776 3D010000 		.4byte	.LLST11
 1209 077a 00       		.byte	0
 1210 077b 17       		.uleb128 0x17
 1211 077c 10000000 		.4byte	.LBB9
 1212 0780 18000000 		.4byte	.LBE9
 1213 0784 98070000 		.4byte	0x798
 1214 0788 15       		.uleb128 0x15
 1215 0789 746D7000 		.ascii	"tmp\000"
 1216 078d 01       		.byte	0x1
 1217 078e 3D       		.byte	0x3d
 1218 078f 70000000 		.4byte	0x70
 1219 0793 50010000 		.4byte	.LLST12
 1220 0797 00       		.byte	0
 1221 0798 1A       		.uleb128 0x1a
 1222 0799 10000000 		.4byte	.LVL22
 1223 079d EC070000 		.4byte	0x7ec
 1224 07a1 19       		.uleb128 0x19
 1225 07a2 01       		.byte	0x1
 1226 07a3 50       		.byte	0x50
 1227 07a4 03       		.byte	0x3
 1228 07a5 F3       		.byte	0xf3
 1229 07a6 01       		.uleb128 0x1
 1230 07a7 50       		.byte	0x50
 1231 07a8 00       		.byte	0
 1232 07a9 00       		.byte	0
 1233 07aa 1C       		.uleb128 0x1c
 1234 07ab 01       		.byte	0x1
 1235 07ac D7000000 		.4byte	.LASF77
 1236 07b0 09       		.byte	0x9
 1237 07b1 BA       		.byte	0xba
 1238 07b2 01       		.byte	0x1
 1239 07b3 01       		.byte	0x1
 1240 07b4 C3070000 		.4byte	0x7c3
 1241 07b8 0E       		.uleb128 0xe
 1242 07b9 C3070000 		.4byte	0x7c3
 1243 07bd 0E       		.uleb128 0xe
 1244 07be E4000000 		.4byte	0xe4
 1245 07c2 00       		.byte	0
 1246 07c3 09       		.uleb128 0x9
 1247 07c4 04       		.byte	0x4
 1248 07c5 76050000 		.4byte	0x576
 1249 07c9 1C       		.uleb128 0x1c
 1250 07ca 01       		.byte	0x1
 1251 07cb BC010000 		.4byte	.LASF78
 1252 07cf 07       		.byte	0x7
ARM GAS  C:\Users\jenny\AppData\Local\Temp\cchzpR6c.s 			page 23


 1253 07d0 E4       		.byte	0xe4
 1254 07d1 01       		.byte	0x1
 1255 07d2 01       		.byte	0x1
 1256 07d3 EC070000 		.4byte	0x7ec
 1257 07d7 0E       		.uleb128 0xe
 1258 07d8 B2040000 		.4byte	0x4b2
 1259 07dc 0E       		.uleb128 0xe
 1260 07dd EF000000 		.4byte	0xef
 1261 07e1 0E       		.uleb128 0xe
 1262 07e2 37040000 		.4byte	0x437
 1263 07e6 0E       		.uleb128 0xe
 1264 07e7 8D020000 		.4byte	0x28d
 1265 07eb 00       		.byte	0
 1266 07ec 1D       		.uleb128 0x1d
 1267 07ed 01       		.byte	0x1
 1268 07ee 6D020000 		.4byte	.LASF83
 1269 07f2 07       		.byte	0x7
 1270 07f3 E5       		.byte	0xe5
 1271 07f4 01       		.byte	0x1
 1272 07f5 01       		.byte	0x1
 1273 07f6 0E       		.uleb128 0xe
 1274 07f7 B2040000 		.4byte	0x4b2
 1275 07fb 00       		.byte	0
 1276 07fc 00       		.byte	0
 1277              		.section	.debug_abbrev,"",%progbits
 1278              	.Ldebug_abbrev0:
 1279 0000 01       		.uleb128 0x1
 1280 0001 11       		.uleb128 0x11
 1281 0002 01       		.byte	0x1
 1282 0003 25       		.uleb128 0x25
 1283 0004 0E       		.uleb128 0xe
 1284 0005 13       		.uleb128 0x13
 1285 0006 0B       		.uleb128 0xb
 1286 0007 03       		.uleb128 0x3
 1287 0008 0E       		.uleb128 0xe
 1288 0009 1B       		.uleb128 0x1b
 1289 000a 0E       		.uleb128 0xe
 1290 000b 55       		.uleb128 0x55
 1291 000c 06       		.uleb128 0x6
 1292 000d 11       		.uleb128 0x11
 1293 000e 01       		.uleb128 0x1
 1294 000f 52       		.uleb128 0x52
 1295 0010 01       		.uleb128 0x1
 1296 0011 10       		.uleb128 0x10
 1297 0012 06       		.uleb128 0x6
 1298 0013 00       		.byte	0
 1299 0014 00       		.byte	0
 1300 0015 02       		.uleb128 0x2
 1301 0016 24       		.uleb128 0x24
 1302 0017 00       		.byte	0
 1303 0018 0B       		.uleb128 0xb
 1304 0019 0B       		.uleb128 0xb
 1305 001a 3E       		.uleb128 0x3e
 1306 001b 0B       		.uleb128 0xb
 1307 001c 03       		.uleb128 0x3
 1308 001d 08       		.uleb128 0x8
 1309 001e 00       		.byte	0
ARM GAS  C:\Users\jenny\AppData\Local\Temp\cchzpR6c.s 			page 24


 1310 001f 00       		.byte	0
 1311 0020 03       		.uleb128 0x3
 1312 0021 24       		.uleb128 0x24
 1313 0022 00       		.byte	0
 1314 0023 0B       		.uleb128 0xb
 1315 0024 0B       		.uleb128 0xb
 1316 0025 3E       		.uleb128 0x3e
 1317 0026 0B       		.uleb128 0xb
 1318 0027 03       		.uleb128 0x3
 1319 0028 0E       		.uleb128 0xe
 1320 0029 00       		.byte	0
 1321 002a 00       		.byte	0
 1322 002b 04       		.uleb128 0x4
 1323 002c 16       		.uleb128 0x16
 1324 002d 00       		.byte	0
 1325 002e 03       		.uleb128 0x3
 1326 002f 0E       		.uleb128 0xe
 1327 0030 3A       		.uleb128 0x3a
 1328 0031 0B       		.uleb128 0xb
 1329 0032 3B       		.uleb128 0x3b
 1330 0033 0B       		.uleb128 0xb
 1331 0034 49       		.uleb128 0x49
 1332 0035 13       		.uleb128 0x13
 1333 0036 00       		.byte	0
 1334 0037 00       		.byte	0
 1335 0038 05       		.uleb128 0x5
 1336 0039 13       		.uleb128 0x13
 1337 003a 01       		.byte	0x1
 1338 003b 03       		.uleb128 0x3
 1339 003c 0E       		.uleb128 0xe
 1340 003d 0B       		.uleb128 0xb
 1341 003e 0B       		.uleb128 0xb
 1342 003f 3A       		.uleb128 0x3a
 1343 0040 0B       		.uleb128 0xb
 1344 0041 3B       		.uleb128 0x3b
 1345 0042 0B       		.uleb128 0xb
 1346 0043 01       		.uleb128 0x1
 1347 0044 13       		.uleb128 0x13
 1348 0045 00       		.byte	0
 1349 0046 00       		.byte	0
 1350 0047 06       		.uleb128 0x6
 1351 0048 0D       		.uleb128 0xd
 1352 0049 00       		.byte	0
 1353 004a 03       		.uleb128 0x3
 1354 004b 0E       		.uleb128 0xe
 1355 004c 3A       		.uleb128 0x3a
 1356 004d 0B       		.uleb128 0xb
 1357 004e 3B       		.uleb128 0x3b
 1358 004f 0B       		.uleb128 0xb
 1359 0050 49       		.uleb128 0x49
 1360 0051 13       		.uleb128 0x13
 1361 0052 38       		.uleb128 0x38
 1362 0053 0A       		.uleb128 0xa
 1363 0054 00       		.byte	0
 1364 0055 00       		.byte	0
 1365 0056 07       		.uleb128 0x7
 1366 0057 0D       		.uleb128 0xd
ARM GAS  C:\Users\jenny\AppData\Local\Temp\cchzpR6c.s 			page 25


 1367 0058 00       		.byte	0
 1368 0059 03       		.uleb128 0x3
 1369 005a 08       		.uleb128 0x8
 1370 005b 3A       		.uleb128 0x3a
 1371 005c 0B       		.uleb128 0xb
 1372 005d 3B       		.uleb128 0x3b
 1373 005e 0B       		.uleb128 0xb
 1374 005f 49       		.uleb128 0x49
 1375 0060 13       		.uleb128 0x13
 1376 0061 38       		.uleb128 0x38
 1377 0062 0A       		.uleb128 0xa
 1378 0063 00       		.byte	0
 1379 0064 00       		.byte	0
 1380 0065 08       		.uleb128 0x8
 1381 0066 13       		.uleb128 0x13
 1382 0067 01       		.byte	0x1
 1383 0068 0B       		.uleb128 0xb
 1384 0069 0B       		.uleb128 0xb
 1385 006a 3A       		.uleb128 0x3a
 1386 006b 0B       		.uleb128 0xb
 1387 006c 3B       		.uleb128 0x3b
 1388 006d 0B       		.uleb128 0xb
 1389 006e 01       		.uleb128 0x1
 1390 006f 13       		.uleb128 0x13
 1391 0070 00       		.byte	0
 1392 0071 00       		.byte	0
 1393 0072 09       		.uleb128 0x9
 1394 0073 0F       		.uleb128 0xf
 1395 0074 00       		.byte	0
 1396 0075 0B       		.uleb128 0xb
 1397 0076 0B       		.uleb128 0xb
 1398 0077 49       		.uleb128 0x49
 1399 0078 13       		.uleb128 0x13
 1400 0079 00       		.byte	0
 1401 007a 00       		.byte	0
 1402 007b 0A       		.uleb128 0xa
 1403 007c 0F       		.uleb128 0xf
 1404 007d 00       		.byte	0
 1405 007e 0B       		.uleb128 0xb
 1406 007f 0B       		.uleb128 0xb
 1407 0080 00       		.byte	0
 1408 0081 00       		.byte	0
 1409 0082 0B       		.uleb128 0xb
 1410 0083 13       		.uleb128 0x13
 1411 0084 01       		.byte	0x1
 1412 0085 03       		.uleb128 0x3
 1413 0086 0E       		.uleb128 0xe
 1414 0087 0B       		.uleb128 0xb
 1415 0088 0B       		.uleb128 0xb
 1416 0089 3A       		.uleb128 0x3a
 1417 008a 0B       		.uleb128 0xb
 1418 008b 3B       		.uleb128 0x3b
 1419 008c 05       		.uleb128 0x5
 1420 008d 01       		.uleb128 0x1
 1421 008e 13       		.uleb128 0x13
 1422 008f 00       		.byte	0
 1423 0090 00       		.byte	0
ARM GAS  C:\Users\jenny\AppData\Local\Temp\cchzpR6c.s 			page 26


 1424 0091 0C       		.uleb128 0xc
 1425 0092 0D       		.uleb128 0xd
 1426 0093 00       		.byte	0
 1427 0094 03       		.uleb128 0x3
 1428 0095 08       		.uleb128 0x8
 1429 0096 3A       		.uleb128 0x3a
 1430 0097 0B       		.uleb128 0xb
 1431 0098 3B       		.uleb128 0x3b
 1432 0099 05       		.uleb128 0x5
 1433 009a 49       		.uleb128 0x49
 1434 009b 13       		.uleb128 0x13
 1435 009c 38       		.uleb128 0x38
 1436 009d 0A       		.uleb128 0xa
 1437 009e 00       		.byte	0
 1438 009f 00       		.byte	0
 1439 00a0 0D       		.uleb128 0xd
 1440 00a1 15       		.uleb128 0x15
 1441 00a2 01       		.byte	0x1
 1442 00a3 27       		.uleb128 0x27
 1443 00a4 0C       		.uleb128 0xc
 1444 00a5 01       		.uleb128 0x1
 1445 00a6 13       		.uleb128 0x13
 1446 00a7 00       		.byte	0
 1447 00a8 00       		.byte	0
 1448 00a9 0E       		.uleb128 0xe
 1449 00aa 05       		.uleb128 0x5
 1450 00ab 00       		.byte	0
 1451 00ac 49       		.uleb128 0x49
 1452 00ad 13       		.uleb128 0x13
 1453 00ae 00       		.byte	0
 1454 00af 00       		.byte	0
 1455 00b0 0F       		.uleb128 0xf
 1456 00b1 35       		.uleb128 0x35
 1457 00b2 00       		.byte	0
 1458 00b3 49       		.uleb128 0x49
 1459 00b4 13       		.uleb128 0x13
 1460 00b5 00       		.byte	0
 1461 00b6 00       		.byte	0
 1462 00b7 10       		.uleb128 0x10
 1463 00b8 17       		.uleb128 0x17
 1464 00b9 01       		.byte	0x1
 1465 00ba 0B       		.uleb128 0xb
 1466 00bb 0B       		.uleb128 0xb
 1467 00bc 3A       		.uleb128 0x3a
 1468 00bd 0B       		.uleb128 0xb
 1469 00be 3B       		.uleb128 0x3b
 1470 00bf 0B       		.uleb128 0xb
 1471 00c0 01       		.uleb128 0x1
 1472 00c1 13       		.uleb128 0x13
 1473 00c2 00       		.byte	0
 1474 00c3 00       		.byte	0
 1475 00c4 11       		.uleb128 0x11
 1476 00c5 0D       		.uleb128 0xd
 1477 00c6 00       		.byte	0
 1478 00c7 03       		.uleb128 0x3
 1479 00c8 0E       		.uleb128 0xe
 1480 00c9 3A       		.uleb128 0x3a
ARM GAS  C:\Users\jenny\AppData\Local\Temp\cchzpR6c.s 			page 27


 1481 00ca 0B       		.uleb128 0xb
 1482 00cb 3B       		.uleb128 0x3b
 1483 00cc 0B       		.uleb128 0xb
 1484 00cd 49       		.uleb128 0x49
 1485 00ce 13       		.uleb128 0x13
 1486 00cf 00       		.byte	0
 1487 00d0 00       		.byte	0
 1488 00d1 12       		.uleb128 0x12
 1489 00d2 26       		.uleb128 0x26
 1490 00d3 00       		.byte	0
 1491 00d4 49       		.uleb128 0x49
 1492 00d5 13       		.uleb128 0x13
 1493 00d6 00       		.byte	0
 1494 00d7 00       		.byte	0
 1495 00d8 13       		.uleb128 0x13
 1496 00d9 2E       		.uleb128 0x2e
 1497 00da 01       		.byte	0x1
 1498 00db 03       		.uleb128 0x3
 1499 00dc 0E       		.uleb128 0xe
 1500 00dd 3A       		.uleb128 0x3a
 1501 00de 0B       		.uleb128 0xb
 1502 00df 3B       		.uleb128 0x3b
 1503 00e0 0B       		.uleb128 0xb
 1504 00e1 27       		.uleb128 0x27
 1505 00e2 0C       		.uleb128 0xc
 1506 00e3 11       		.uleb128 0x11
 1507 00e4 01       		.uleb128 0x1
 1508 00e5 12       		.uleb128 0x12
 1509 00e6 01       		.uleb128 0x1
 1510 00e7 40       		.uleb128 0x40
 1511 00e8 06       		.uleb128 0x6
 1512 00e9 9742     		.uleb128 0x2117
 1513 00eb 0C       		.uleb128 0xc
 1514 00ec 01       		.uleb128 0x1
 1515 00ed 13       		.uleb128 0x13
 1516 00ee 00       		.byte	0
 1517 00ef 00       		.byte	0
 1518 00f0 14       		.uleb128 0x14
 1519 00f1 05       		.uleb128 0x5
 1520 00f2 00       		.byte	0
 1521 00f3 03       		.uleb128 0x3
 1522 00f4 08       		.uleb128 0x8
 1523 00f5 3A       		.uleb128 0x3a
 1524 00f6 0B       		.uleb128 0xb
 1525 00f7 3B       		.uleb128 0x3b
 1526 00f8 0B       		.uleb128 0xb
 1527 00f9 49       		.uleb128 0x49
 1528 00fa 13       		.uleb128 0x13
 1529 00fb 02       		.uleb128 0x2
 1530 00fc 06       		.uleb128 0x6
 1531 00fd 00       		.byte	0
 1532 00fe 00       		.byte	0
 1533 00ff 15       		.uleb128 0x15
 1534 0100 34       		.uleb128 0x34
 1535 0101 00       		.byte	0
 1536 0102 03       		.uleb128 0x3
 1537 0103 08       		.uleb128 0x8
ARM GAS  C:\Users\jenny\AppData\Local\Temp\cchzpR6c.s 			page 28


 1538 0104 3A       		.uleb128 0x3a
 1539 0105 0B       		.uleb128 0xb
 1540 0106 3B       		.uleb128 0x3b
 1541 0107 0B       		.uleb128 0xb
 1542 0108 49       		.uleb128 0x49
 1543 0109 13       		.uleb128 0x13
 1544 010a 02       		.uleb128 0x2
 1545 010b 06       		.uleb128 0x6
 1546 010c 00       		.byte	0
 1547 010d 00       		.byte	0
 1548 010e 16       		.uleb128 0x16
 1549 010f 0B       		.uleb128 0xb
 1550 0110 01       		.byte	0x1
 1551 0111 55       		.uleb128 0x55
 1552 0112 06       		.uleb128 0x6
 1553 0113 01       		.uleb128 0x1
 1554 0114 13       		.uleb128 0x13
 1555 0115 00       		.byte	0
 1556 0116 00       		.byte	0
 1557 0117 17       		.uleb128 0x17
 1558 0118 0B       		.uleb128 0xb
 1559 0119 01       		.byte	0x1
 1560 011a 11       		.uleb128 0x11
 1561 011b 01       		.uleb128 0x1
 1562 011c 12       		.uleb128 0x12
 1563 011d 01       		.uleb128 0x1
 1564 011e 01       		.uleb128 0x1
 1565 011f 13       		.uleb128 0x13
 1566 0120 00       		.byte	0
 1567 0121 00       		.byte	0
 1568 0122 18       		.uleb128 0x18
 1569 0123 898201   		.uleb128 0x4109
 1570 0126 01       		.byte	0x1
 1571 0127 11       		.uleb128 0x11
 1572 0128 01       		.uleb128 0x1
 1573 0129 31       		.uleb128 0x31
 1574 012a 13       		.uleb128 0x13
 1575 012b 01       		.uleb128 0x1
 1576 012c 13       		.uleb128 0x13
 1577 012d 00       		.byte	0
 1578 012e 00       		.byte	0
 1579 012f 19       		.uleb128 0x19
 1580 0130 8A8201   		.uleb128 0x410a
 1581 0133 00       		.byte	0
 1582 0134 02       		.uleb128 0x2
 1583 0135 0A       		.uleb128 0xa
 1584 0136 9142     		.uleb128 0x2111
 1585 0138 0A       		.uleb128 0xa
 1586 0139 00       		.byte	0
 1587 013a 00       		.byte	0
 1588 013b 1A       		.uleb128 0x1a
 1589 013c 898201   		.uleb128 0x4109
 1590 013f 01       		.byte	0x1
 1591 0140 11       		.uleb128 0x11
 1592 0141 01       		.uleb128 0x1
 1593 0142 31       		.uleb128 0x31
 1594 0143 13       		.uleb128 0x13
ARM GAS  C:\Users\jenny\AppData\Local\Temp\cchzpR6c.s 			page 29


 1595 0144 00       		.byte	0
 1596 0145 00       		.byte	0
 1597 0146 1B       		.uleb128 0x1b
 1598 0147 2E       		.uleb128 0x2e
 1599 0148 01       		.byte	0x1
 1600 0149 3F       		.uleb128 0x3f
 1601 014a 0C       		.uleb128 0xc
 1602 014b 03       		.uleb128 0x3
 1603 014c 0E       		.uleb128 0xe
 1604 014d 3A       		.uleb128 0x3a
 1605 014e 0B       		.uleb128 0xb
 1606 014f 3B       		.uleb128 0x3b
 1607 0150 0B       		.uleb128 0xb
 1608 0151 27       		.uleb128 0x27
 1609 0152 0C       		.uleb128 0xc
 1610 0153 11       		.uleb128 0x11
 1611 0154 01       		.uleb128 0x1
 1612 0155 12       		.uleb128 0x12
 1613 0156 01       		.uleb128 0x1
 1614 0157 40       		.uleb128 0x40
 1615 0158 06       		.uleb128 0x6
 1616 0159 9742     		.uleb128 0x2117
 1617 015b 0C       		.uleb128 0xc
 1618 015c 01       		.uleb128 0x1
 1619 015d 13       		.uleb128 0x13
 1620 015e 00       		.byte	0
 1621 015f 00       		.byte	0
 1622 0160 1C       		.uleb128 0x1c
 1623 0161 2E       		.uleb128 0x2e
 1624 0162 01       		.byte	0x1
 1625 0163 3F       		.uleb128 0x3f
 1626 0164 0C       		.uleb128 0xc
 1627 0165 03       		.uleb128 0x3
 1628 0166 0E       		.uleb128 0xe
 1629 0167 3A       		.uleb128 0x3a
 1630 0168 0B       		.uleb128 0xb
 1631 0169 3B       		.uleb128 0x3b
 1632 016a 0B       		.uleb128 0xb
 1633 016b 27       		.uleb128 0x27
 1634 016c 0C       		.uleb128 0xc
 1635 016d 3C       		.uleb128 0x3c
 1636 016e 0C       		.uleb128 0xc
 1637 016f 01       		.uleb128 0x1
 1638 0170 13       		.uleb128 0x13
 1639 0171 00       		.byte	0
 1640 0172 00       		.byte	0
 1641 0173 1D       		.uleb128 0x1d
 1642 0174 2E       		.uleb128 0x2e
 1643 0175 01       		.byte	0x1
 1644 0176 3F       		.uleb128 0x3f
 1645 0177 0C       		.uleb128 0xc
 1646 0178 03       		.uleb128 0x3
 1647 0179 0E       		.uleb128 0xe
 1648 017a 3A       		.uleb128 0x3a
 1649 017b 0B       		.uleb128 0xb
 1650 017c 3B       		.uleb128 0x3b
 1651 017d 0B       		.uleb128 0xb
ARM GAS  C:\Users\jenny\AppData\Local\Temp\cchzpR6c.s 			page 30


 1652 017e 27       		.uleb128 0x27
 1653 017f 0C       		.uleb128 0xc
 1654 0180 3C       		.uleb128 0x3c
 1655 0181 0C       		.uleb128 0xc
 1656 0182 00       		.byte	0
 1657 0183 00       		.byte	0
 1658 0184 00       		.byte	0
 1659              		.section	.debug_loc,"",%progbits
 1660              	.Ldebug_loc0:
 1661              	.LLST0:
 1662 0000 00000000 		.4byte	.LFB7
 1663 0004 02000000 		.4byte	.LCFI0
 1664 0008 0200     		.2byte	0x2
 1665 000a 7D       		.byte	0x7d
 1666 000b 00       		.sleb128 0
 1667 000c 02000000 		.4byte	.LCFI0
 1668 0010 2E000000 		.4byte	.LFE7
 1669 0014 0200     		.2byte	0x2
 1670 0016 7D       		.byte	0x7d
 1671 0017 08       		.sleb128 8
 1672 0018 00000000 		.4byte	0
 1673 001c 00000000 		.4byte	0
 1674              	.LLST1:
 1675 0020 00000000 		.4byte	.LVL0
 1676 0024 10000000 		.4byte	.LVL4
 1677 0028 0100     		.2byte	0x1
 1678 002a 50       		.byte	0x50
 1679 002b 10000000 		.4byte	.LVL4
 1680 002f 2E000000 		.4byte	.LFE7
 1681 0033 0100     		.2byte	0x1
 1682 0035 54       		.byte	0x54
 1683 0036 00000000 		.4byte	0
 1684 003a 00000000 		.4byte	0
 1685              	.LLST2:
 1686 003e 06000000 		.4byte	.LVL2
 1687 0042 10000000 		.4byte	.LVL4
 1688 0046 0100     		.2byte	0x1
 1689 0048 50       		.byte	0x50
 1690 0049 10000000 		.4byte	.LVL4
 1691 004d 2E000000 		.4byte	.LFE7
 1692 0051 0100     		.2byte	0x1
 1693 0053 54       		.byte	0x54
 1694 0054 00000000 		.4byte	0
 1695 0058 00000000 		.4byte	0
 1696              	.LLST3:
 1697 005c 0A000000 		.4byte	.LVL3
 1698 0060 13000000 		.4byte	.LVL5-1
 1699 0064 0100     		.2byte	0x1
 1700 0066 53       		.byte	0x53
 1701 0067 00000000 		.4byte	0
 1702 006b 00000000 		.4byte	0
 1703              	.LLST4:
 1704 006f 2C000000 		.4byte	.LVL8
 1705 0073 2E000000 		.4byte	.LFE7
 1706 0077 0100     		.2byte	0x1
 1707 0079 53       		.byte	0x53
 1708 007a 00000000 		.4byte	0
ARM GAS  C:\Users\jenny\AppData\Local\Temp\cchzpR6c.s 			page 31


 1709 007e 00000000 		.4byte	0
 1710              	.LLST5:
 1711 0082 00000000 		.4byte	.LFB8
 1712 0086 02000000 		.4byte	.LCFI1
 1713 008a 0200     		.2byte	0x2
 1714 008c 7D       		.byte	0x7d
 1715 008d 00       		.sleb128 0
 1716 008e 02000000 		.4byte	.LCFI1
 1717 0092 28000000 		.4byte	.LFE8
 1718 0096 0200     		.2byte	0x2
 1719 0098 7D       		.byte	0x7d
 1720 0099 08       		.sleb128 8
 1721 009a 00000000 		.4byte	0
 1722 009e 00000000 		.4byte	0
 1723              	.LLST6:
 1724 00a2 00000000 		.4byte	.LVL9
 1725 00a6 0E000000 		.4byte	.LVL13
 1726 00aa 0100     		.2byte	0x1
 1727 00ac 50       		.byte	0x50
 1728 00ad 0E000000 		.4byte	.LVL13
 1729 00b1 16000000 		.4byte	.LVL16
 1730 00b5 0100     		.2byte	0x1
 1731 00b7 54       		.byte	0x54
 1732 00b8 16000000 		.4byte	.LVL16
 1733 00bc 1F000000 		.4byte	.LVL17-1
 1734 00c0 0100     		.2byte	0x1
 1735 00c2 50       		.byte	0x50
 1736 00c3 1F000000 		.4byte	.LVL17-1
 1737 00c7 28000000 		.4byte	.LFE8
 1738 00cb 0100     		.2byte	0x1
 1739 00cd 54       		.byte	0x54
 1740 00ce 00000000 		.4byte	0
 1741 00d2 00000000 		.4byte	0
 1742              	.LLST7:
 1743 00d6 0A000000 		.4byte	.LVL11
 1744 00da 0C000000 		.4byte	.LVL12
 1745 00de 0100     		.2byte	0x1
 1746 00e0 53       		.byte	0x53
 1747 00e1 00000000 		.4byte	0
 1748 00e5 00000000 		.4byte	0
 1749              	.LLST8:
 1750 00e9 14000000 		.4byte	.LVL15
 1751 00ed 16000000 		.4byte	.LVL16
 1752 00f1 0100     		.2byte	0x1
 1753 00f3 53       		.byte	0x53
 1754 00f4 00000000 		.4byte	0
 1755 00f8 00000000 		.4byte	0
 1756              	.LLST9:
 1757 00fc 00000000 		.4byte	.LFB9
 1758 0100 02000000 		.4byte	.LCFI2
 1759 0104 0200     		.2byte	0x2
 1760 0106 7D       		.byte	0x7d
 1761 0107 00       		.sleb128 0
 1762 0108 02000000 		.4byte	.LCFI2
 1763 010c 18000000 		.4byte	.LFE9
 1764 0110 0200     		.2byte	0x2
 1765 0112 7D       		.byte	0x7d
ARM GAS  C:\Users\jenny\AppData\Local\Temp\cchzpR6c.s 			page 32


 1766 0113 08       		.sleb128 8
 1767 0114 00000000 		.4byte	0
 1768 0118 00000000 		.4byte	0
 1769              	.LLST10:
 1770 011c 00000000 		.4byte	.LVL18
 1771 0120 0F000000 		.4byte	.LVL22-1
 1772 0124 0100     		.2byte	0x1
 1773 0126 50       		.byte	0x50
 1774 0127 0F000000 		.4byte	.LVL22-1
 1775 012b 18000000 		.4byte	.LFE9
 1776 012f 0400     		.2byte	0x4
 1777 0131 F3       		.byte	0xf3
 1778 0132 01       		.uleb128 0x1
 1779 0133 50       		.byte	0x50
 1780 0134 9F       		.byte	0x9f
 1781 0135 00000000 		.4byte	0
 1782 0139 00000000 		.4byte	0
 1783              	.LLST11:
 1784 013d 08000000 		.4byte	.LVL20
 1785 0141 0A000000 		.4byte	.LVL21
 1786 0145 0100     		.2byte	0x1
 1787 0147 53       		.byte	0x53
 1788 0148 00000000 		.4byte	0
 1789 014c 00000000 		.4byte	0
 1790              	.LLST12:
 1791 0150 16000000 		.4byte	.LVL24
 1792 0154 18000000 		.4byte	.LFE9
 1793 0158 0100     		.2byte	0x1
 1794 015a 53       		.byte	0x53
 1795 015b 00000000 		.4byte	0
 1796 015f 00000000 		.4byte	0
 1797              		.section	.debug_aranges,"",%progbits
 1798 0000 2C000000 		.4byte	0x2c
 1799 0004 0200     		.2byte	0x2
 1800 0006 00000000 		.4byte	.Ldebug_info0
 1801 000a 04       		.byte	0x4
 1802 000b 00       		.byte	0
 1803 000c 0000     		.2byte	0
 1804 000e 0000     		.2byte	0
 1805 0010 00000000 		.4byte	.LFB7
 1806 0014 2E000000 		.4byte	.LFE7-.LFB7
 1807 0018 00000000 		.4byte	.LFB8
 1808 001c 28000000 		.4byte	.LFE8-.LFB8
 1809 0020 00000000 		.4byte	.LFB9
 1810 0024 18000000 		.4byte	.LFE9-.LFB9
 1811 0028 00000000 		.4byte	0
 1812 002c 00000000 		.4byte	0
 1813              		.section	.debug_ranges,"",%progbits
 1814              	.Ldebug_ranges0:
 1815 0000 02000000 		.4byte	.LBB2
 1816 0004 04000000 		.4byte	.LBE2
 1817 0008 06000000 		.4byte	.LBB3
 1818 000c 0A000000 		.4byte	.LBE3
 1819 0010 00000000 		.4byte	0
 1820 0014 00000000 		.4byte	0
 1821 0018 02000000 		.4byte	.LBB5
 1822 001c 04000000 		.4byte	.LBE5
ARM GAS  C:\Users\jenny\AppData\Local\Temp\cchzpR6c.s 			page 33


 1823 0020 06000000 		.4byte	.LBB6
 1824 0024 0A000000 		.4byte	.LBE6
 1825 0028 00000000 		.4byte	0
 1826 002c 00000000 		.4byte	0
 1827 0030 00000000 		.4byte	.LFB7
 1828 0034 2E000000 		.4byte	.LFE7
 1829 0038 00000000 		.4byte	.LFB8
 1830 003c 28000000 		.4byte	.LFE8
 1831 0040 00000000 		.4byte	.LFB9
 1832 0044 18000000 		.4byte	.LFE9
 1833 0048 00000000 		.4byte	0
 1834 004c 00000000 		.4byte	0
 1835              		.section	.debug_line,"",%progbits
 1836              	.Ldebug_line0:
 1837 0000 78010000 		.section	.debug_str,"MS",%progbits,1
 1837      02002D01 
 1837      00000201 
 1837      FB0E0D00 
 1837      01010101 
 1838              	.LASF73:
 1839 0000 65745F69 		.ascii	"et_interval\000"
 1839      6E746572 
 1839      76616C00 
 1840              	.LASF37:
 1841 000c 705F6D73 		.ascii	"p_msg\000"
 1841      6700
 1842              	.LASF66:
 1843 0012 7264796D 		.ascii	"rdymsg\000"
 1843      736700
 1844              	.LASF11:
 1845 0019 6C6F6E67 		.ascii	"long long unsigned int\000"
 1845      206C6F6E 
 1845      6720756E 
 1845      7369676E 
 1845      65642069 
 1846              	.LASF75:
 1847 0030 65767453 		.ascii	"evtStart\000"
 1847      74617274 
 1847      00
 1848              	.LASF25:
 1849 0039 705F7072 		.ascii	"p_prio\000"
 1849      696F00
 1850              	.LASF10:
 1851 0040 6C6F6E67 		.ascii	"long long int\000"
 1851      206C6F6E 
 1851      6720696E 
 1851      7400
 1852              	.LASF1:
 1853 004e 7369676E 		.ascii	"signed char\000"
 1853      65642063 
 1853      68617200 
 1854              	.LASF74:
 1855 005a 45765469 		.ascii	"EvTimer\000"
 1855      6D657200 
 1856              	.LASF41:
 1857 0062 705F6D70 		.ascii	"p_mpool\000"
 1857      6F6F6C00 
ARM GAS  C:\Users\jenny\AppData\Local\Temp\cchzpR6c.s 			page 34


 1858              	.LASF56:
 1859 006a 6D5F7175 		.ascii	"m_queue\000"
 1859      65756500 
 1860              	.LASF16:
 1861 0072 74736C69 		.ascii	"tslices_t\000"
 1861      6365735F 
 1861      7400
 1862              	.LASF79:
 1863 007c 474E5520 		.ascii	"GNU C 4.7.4 20130913 (release) [ARM/embedded-4_7-br"
 1863      4320342E 
 1863      372E3420 
 1863      32303133 
 1863      30393133 
 1864 00af 616E6368 		.ascii	"anch revision 202601]\000"
 1864      20726576 
 1864      6973696F 
 1864      6E203230 
 1864      32363031 
 1865              	.LASF7:
 1866 00c5 6C6F6E67 		.ascii	"long int\000"
 1866      20696E74 
 1866      00
 1867              	.LASF14:
 1868 00ce 74737461 		.ascii	"tstate_t\000"
 1868      74655F74 
 1868      00
 1869              	.LASF77:
 1870 00d7 63684576 		.ascii	"chEvtBroadcastFlagsI\000"
 1870      7442726F 
 1870      61646361 
 1870      7374466C 
 1870      61677349 
 1871              	.LASF27:
 1872 00ec 705F6E65 		.ascii	"p_newer\000"
 1872      77657200 
 1873              	.LASF67:
 1874 00f4 65786974 		.ascii	"exitcode\000"
 1874      636F6465 
 1874      00
 1875              	.LASF44:
 1876 00fd 72656761 		.ascii	"regarm_t\000"
 1876      726D5F74 
 1876      00
 1877              	.LASF51:
 1878 0106 76745F70 		.ascii	"vt_prev\000"
 1878      72657600 
 1879              	.LASF64:
 1880 010e 4576656E 		.ascii	"EventSource\000"
 1880      74536F75 
 1880      72636500 
 1881              	.LASF0:
 1882 011a 756E7369 		.ascii	"unsigned int\000"
 1882      676E6564 
 1882      20696E74 
 1882      00
 1883              	.LASF50:
 1884 0127 76745F6E 		.ascii	"vt_next\000"
ARM GAS  C:\Users\jenny\AppData\Local\Temp\cchzpR6c.s 			page 35


 1884      65787400 
 1885              	.LASF9:
 1886 012f 6C6F6E67 		.ascii	"long unsigned int\000"
 1886      20756E73 
 1886      69676E65 
 1886      6420696E 
 1886      7400
 1887              	.LASF49:
 1888 0141 56697274 		.ascii	"VirtualTimer\000"
 1888      75616C54 
 1888      696D6572 
 1888      00
 1889              	.LASF46:
 1890 014e 636F6E74 		.ascii	"context\000"
 1890      65787400 
 1891              	.LASF4:
 1892 0156 73686F72 		.ascii	"short unsigned int\000"
 1892      7420756E 
 1892      7369676E 
 1892      65642069 
 1892      6E7400
 1893              	.LASF18:
 1894 0169 6D73675F 		.ascii	"msg_t\000"
 1894      7400
 1895              	.LASF60:
 1896 016f 656C5F6E 		.ascii	"el_next\000"
 1896      65787400 
 1897              	.LASF13:
 1898 0177 746D6F64 		.ascii	"tmode_t\000"
 1898      655F7400 
 1899              	.LASF43:
 1900 017f 54687265 		.ascii	"ThreadsList\000"
 1900      6164734C 
 1900      69737400 
 1901              	.LASF19:
 1902 018b 6576656E 		.ascii	"eventmask_t\000"
 1902      746D6173 
 1902      6B5F7400 
 1903              	.LASF55:
 1904 0197 4D757465 		.ascii	"Mutex\000"
 1904      7800
 1905              	.LASF52:
 1906 019d 76745F74 		.ascii	"vt_time\000"
 1906      696D6500 
 1907              	.LASF72:
 1908 01a5 65745F65 		.ascii	"et_es\000"
 1908      7300
 1909              	.LASF47:
 1910 01ab 73697A65 		.ascii	"sizetype\000"
 1910      74797065 
 1910      00
 1911              	.LASF53:
 1912 01b4 76745F66 		.ascii	"vt_func\000"
 1912      756E6300 
 1913              	.LASF78:
 1914 01bc 63685654 		.ascii	"chVTSetI\000"
 1914      53657449 
ARM GAS  C:\Users\jenny\AppData\Local\Temp\cchzpR6c.s 			page 36


 1914      00
 1915              	.LASF28:
 1916 01c5 705F6F6C 		.ascii	"p_older\000"
 1916      64657200 
 1917              	.LASF42:
 1918 01cd 54687265 		.ascii	"ThreadsQueue\000"
 1918      61647351 
 1918      75657565 
 1918      00
 1919              	.LASF62:
 1920 01da 656C5F6D 		.ascii	"el_mask\000"
 1920      61736B00 
 1921              	.LASF15:
 1922 01e2 74726566 		.ascii	"trefs_t\000"
 1922      735F7400 
 1923              	.LASF24:
 1924 01ea 705F7072 		.ascii	"p_prev\000"
 1924      657600
 1925              	.LASF17:
 1926 01f1 74707269 		.ascii	"tprio_t\000"
 1926      6F5F7400 
 1927              	.LASF12:
 1928 01f9 5F426F6F 		.ascii	"_Bool\000"
 1928      6C00
 1929              	.LASF6:
 1930 01ff 696E7433 		.ascii	"int32_t\000"
 1930      325F7400 
 1931              	.LASF2:
 1932 0207 756E7369 		.ascii	"unsigned char\000"
 1932      676E6564 
 1932      20636861 
 1932      7200
 1933              	.LASF61:
 1934 0215 656C5F6C 		.ascii	"el_listener\000"
 1934      69737465 
 1934      6E657200 
 1935              	.LASF63:
 1936 0221 656C5F66 		.ascii	"el_flags\000"
 1936      6C616773 
 1936      00
 1937              	.LASF39:
 1938 022a 705F6D74 		.ascii	"p_mtxlist\000"
 1938      786C6973 
 1938      7400
 1939              	.LASF3:
 1940 0234 73686F72 		.ascii	"short int\000"
 1940      7420696E 
 1940      7400
 1941              	.LASF30:
 1942 023e 705F7374 		.ascii	"p_state\000"
 1942      61746500 
 1943              	.LASF33:
 1944 0246 705F7072 		.ascii	"p_preempt\000"
 1944      65656D70 
 1944      7400
 1945              	.LASF69:
 1946 0250 65776D61 		.ascii	"ewmask\000"
ARM GAS  C:\Users\jenny\AppData\Local\Temp\cchzpR6c.s 			page 37


 1946      736B00
 1947              	.LASF23:
 1948 0257 705F6E65 		.ascii	"p_next\000"
 1948      787400
 1949              	.LASF31:
 1950 025e 705F666C 		.ascii	"p_flags\000"
 1950      61677300 
 1951              	.LASF22:
 1952 0266 54687265 		.ascii	"Thread\000"
 1952      616400
 1953              	.LASF83:
 1954 026d 63685654 		.ascii	"chVTResetI\000"
 1954      52657365 
 1954      744900
 1955              	.LASF38:
 1956 0278 705F6570 		.ascii	"p_epending\000"
 1956      656E6469 
 1956      6E6700
 1957              	.LASF8:
 1958 0283 75696E74 		.ascii	"uint32_t\000"
 1958      33325F74 
 1958      00
 1959              	.LASF70:
 1960 028c 63686172 		.ascii	"char\000"
 1960      00
 1961              	.LASF82:
 1962 0291 746D7263 		.ascii	"tmrcb\000"
 1962      6200
 1963              	.LASF58:
 1964 0297 6D5F6E65 		.ascii	"m_next\000"
 1964      787400
 1965              	.LASF21:
 1966 029e 73797374 		.ascii	"systime_t\000"
 1966      696D655F 
 1966      7400
 1967              	.LASF40:
 1968 02a8 705F7265 		.ascii	"p_realprio\000"
 1968      616C7072 
 1968      696F00
 1969              	.LASF48:
 1970 02b3 76746675 		.ascii	"vtfunc_t\000"
 1970      6E635F74 
 1970      00
 1971              	.LASF76:
 1972 02bc 65767453 		.ascii	"evtStop\000"
 1972      746F7000 
 1973              	.LASF34:
 1974 02c4 705F7469 		.ascii	"p_time\000"
 1974      6D6500
 1975              	.LASF45:
 1976 02cb 696E7463 		.ascii	"intctx\000"
 1976      747800
 1977              	.LASF36:
 1978 02d2 705F6D73 		.ascii	"p_msgqueue\000"
 1978      67717565 
 1978      756500
 1979              	.LASF54:
ARM GAS  C:\Users\jenny\AppData\Local\Temp\cchzpR6c.s 			page 38


 1980 02dd 76745F70 		.ascii	"vt_par\000"
 1980      617200
 1981              	.LASF20:
 1982 02e4 666C6167 		.ascii	"flagsmask_t\000"
 1982      736D6173 
 1982      6B5F7400 
 1983              	.LASF32:
 1984 02f0 705F7265 		.ascii	"p_refs\000"
 1984      667300
 1985              	.LASF5:
 1986 02f7 75696E74 		.ascii	"uint8_t\000"
 1986      385F7400 
 1987              	.LASF81:
 1988 02ff 443A5C6A 		.ascii	"D:\\jenny\\dev\\probe\\chibios\\chibios.workspace\\"
 1988      656E6E79 
 1988      5C646576 
 1988      5C70726F 
 1988      62655C63 
 1989 032c 64656D6F 		.ascii	"demos\\ARMCM4-STM32F407-LWIP-FATFS-USB\000"
 1989      735C4152 
 1989      4D434D34 
 1989      2D53544D 
 1989      33324634 
 1990              	.LASF59:
 1991 0352 4576656E 		.ascii	"EventListener\000"
 1991      744C6973 
 1991      74656E65 
 1991      7200
 1992              	.LASF68:
 1993 0360 77746F62 		.ascii	"wtobjp\000"
 1993      6A7000
 1994              	.LASF29:
 1995 0367 705F6E61 		.ascii	"p_name\000"
 1995      6D6500
 1996              	.LASF65:
 1997 036e 65735F6E 		.ascii	"es_next\000"
 1997      65787400 
 1998              	.LASF71:
 1999 0376 65745F76 		.ascii	"et_vt\000"
 1999      7400
 2000              	.LASF57:
 2001 037c 6D5F6F77 		.ascii	"m_owner\000"
 2001      6E657200 
 2002              	.LASF26:
 2003 0384 705F6374 		.ascii	"p_ctx\000"
 2003      7800
 2004              	.LASF35:
 2005 038a 705F7761 		.ascii	"p_waiting\000"
 2005      6974696E 
 2005      6700
 2006              	.LASF80:
 2007 0394 2E2E2F2E 		.ascii	"../../os/various/evtimer.c\000"
 2007      2E2F6F73 
 2007      2F766172 
 2007      696F7573 
 2007      2F657674 
 2008              		.ident	"GCC: (GNU Tools for ARM Embedded Processors) 4.7.4 20130913 (release) [ARM/embedded-4_7-br
ARM GAS  C:\Users\jenny\AppData\Local\Temp\cchzpR6c.s 			page 39


ARM GAS  C:\Users\jenny\AppData\Local\Temp\cchzpR6c.s 			page 40


DEFINED SYMBOLS
                            *ABS*:00000000 evtimer.c
C:\Users\jenny\AppData\Local\Temp\cchzpR6c.s:20     .text.tmrcb:00000000 $t
C:\Users\jenny\AppData\Local\Temp\cchzpR6c.s:25     .text.tmrcb:00000000 tmrcb
C:\Users\jenny\AppData\Local\Temp\cchzpR6c.s:83     .text.evtStart:00000000 $t
C:\Users\jenny\AppData\Local\Temp\cchzpR6c.s:89     .text.evtStart:00000000 evtStart
C:\Users\jenny\AppData\Local\Temp\cchzpR6c.s:145    .text.evtStart:00000024 $d
C:\Users\jenny\AppData\Local\Temp\cchzpR6c.s:150    .text.evtStop:00000000 $t
C:\Users\jenny\AppData\Local\Temp\cchzpR6c.s:156    .text.evtStop:00000000 evtStop
                     .debug_frame:00000010 $d
C:\Users\jenny\AppData\Local\Temp\cchzpR6c.s:149    .text.evtStart:00000028 $t

UNDEFINED SYMBOLS
chEvtBroadcastFlagsI
chVTSetI
chVTResetI
