ARM GAS  C:\Users\jenny\AppData\Local\Temp\cchzpR6c.s 			page 1


   1              		.syntax unified
   2              		.cpu cortex-m4
   3              		.eabi_attribute 27, 3
   4              		.fpu fpv4-sp-d16
   5              		.eabi_attribute 20, 1
   6              		.eabi_attribute 21, 1
   7              		.eabi_attribute 23, 3
   8              		.eabi_attribute 24, 1
   9              		.eabi_attribute 25, 1
  10              		.eabi_attribute 26, 1
  11              		.eabi_attribute 30, 2
  12              		.eabi_attribute 34, 1
  13              		.eabi_attribute 18, 4
  14              		.thumb
  15              		.file	"evtimer.c"
  16              		.text
  17              	.Ltext0:
  18              		.cfi_sections	.debug_frame
  19              		.section	.text.tmrcb,"ax",%progbits
  20              		.align	2
  21              		.p2align 4,,15
  22              		.thumb
  23              		.thumb_func
  24              		.type	tmrcb, %function
  25              	tmrcb:
  26              	.LFB7:
  27              		.file 1 "../../os/various/evtimer.c"
  28              		.loc 1 28 0
  29              		.cfi_startproc
  30              		@ args = 0, pretend = 0, frame = 0
  31              		@ frame_needed = 0, uses_anonymous_args = 0
  32              	.LVL0:
  33 0000 10B5     		push	{r4, lr}
  34              	.LCFI0:
  35              		.cfi_def_cfa_offset 8
  36              		.cfi_offset 4, -8
  37              		.cfi_offset 14, -4
  38              	.LBB2:
  39              		.loc 1 31 0
  40 0002 2023     		movs	r3, #32
  41              	.LVL1:
  42              	.LBE2:
  43              		.loc 1 28 0
  44 0004 0446     		mov	r4, r0
  45              	.LVL2:
  46              	.LBB3:
  47              		.loc 1 31 0
  48              	@ 31 "../../os/various/evtimer.c" 1
  49 0006 83F31188 		msr     BASEPRI, r3
  50              	@ 0 "" 2
  51              	.LVL3:
  52              		.thumb
  53              	.LBE3:
  54              		.loc 1 32 0
  55 000a 0021     		movs	r1, #0
  56 000c 00F11400 		add	r0, r0, #20
  57              	.LVL4:
ARM GAS  C:\Users\jenny\AppData\Local\Temp\cchzpR6c.s 			page 2


  58 0010 FFF7FEFF 		bl	chEvtBroadcastFlagsI
  59              	.LVL5:
  60              		.loc 1 33 0
  61 0014 40F20002 		movw	r2, #:lower16:tmrcb
  62 0018 2346     		mov	r3, r4
  63 001a 2046     		mov	r0, r4
  64 001c A169     		ldr	r1, [r4, #24]
  65 001e C0F20002 		movt	r2, #:upper16:tmrcb
  66 0022 FFF7FEFF 		bl	chVTSetI
  67              	.LVL6:
  68              	.LBB4:
  69              		.loc 1 34 0
  70 0026 0023     		movs	r3, #0
  71              	.LVL7:
  72              	@ 34 "../../os/various/evtimer.c" 1
  73 0028 83F31188 		msr     BASEPRI, r3
  74              	@ 0 "" 2
  75              	.LVL8:
  76              		.thumb
  77 002c 10BD     		pop	{r4, pc}
  78              	.LBE4:
  79              		.cfi_endproc
  80              	.LFE7:
  81              		.size	tmrcb, .-tmrcb
  82 002e 00BF     		.section	.text.evtStart,"ax",%progbits
  83              		.align	2
  84              		.p2align 4,,15
  85              		.global	evtStart
  86              		.thumb
  87              		.thumb_func
  88              		.type	evtStart, %function
  89              	evtStart:
  90              	.LFB8:
  91              		.loc 1 43 0
  92              		.cfi_startproc
  93              		@ args = 0, pretend = 0, frame = 0
  94              		@ frame_needed = 0, uses_anonymous_args = 0
  95              	.LVL9:
  96 0000 10B5     		push	{r4, lr}
  97              	.LCFI1:
  98              		.cfi_def_cfa_offset 8
  99              		.cfi_offset 4, -8
 100              		.cfi_offset 14, -4
 101              	.LBB5:
 102              		.loc 1 45 0
 103 0002 2023     		movs	r3, #32
 104              	.LVL10:
 105              	.LBE5:
 106              		.loc 1 43 0
 107 0004 0446     		mov	r4, r0
 108              	.LBB6:
 109              		.loc 1 45 0
 110              	@ 45 "../../os/various/evtimer.c" 1
 111 0006 83F31188 		msr     BASEPRI, r3
 112              	@ 0 "" 2
 113              	.LVL11:
 114              		.thumb
ARM GAS  C:\Users\jenny\AppData\Local\Temp\cchzpR6c.s 			page 3


 115              	.LBE6:
 116              		.loc 1 47 0
 117 000a C368     		ldr	r3, [r0, #12]
 118              	.LVL12:
 119 000c 1BB1     		cbz	r3, .L5
 120              	.LVL13:
 121              	.L3:
 122              	.LBB7:
 123              		.loc 1 50 0
 124 000e 0023     		movs	r3, #0
 125              	.LVL14:
 126              	@ 50 "../../os/various/evtimer.c" 1
 127 0010 83F31188 		msr     BASEPRI, r3
 128              	@ 0 "" 2
 129              	.LVL15:
 130              		.thumb
 131 0014 10BD     		pop	{r4, pc}
 132              	.LVL16:
 133              	.L5:
 134              	.LBE7:
 135              		.loc 1 48 0
 136 0016 8169     		ldr	r1, [r0, #24]
 137 0018 024A     		ldr	r2, .L6
 138 001a 0346     		mov	r3, r0
 139 001c FFF7FEFF 		bl	chVTSetI
 140              	.LVL17:
 141 0020 F5E7     		b	.L3
 142              	.L7:
 143 0022 00BF     		.align	2
 144              	.L6:
 145 0024 00000000 		.word	tmrcb
 146              		.cfi_endproc
 147              	.LFE8:
 148              		.size	evtStart, .-evtStart
 149 0028 AFF30080 		.section	.text.evtStop,"ax",%progbits
 149      AFF30080 
 150              		.align	2
 151              		.p2align 4,,15
 152              		.global	evtStop
 153              		.thumb
 154              		.thumb_func
 155              		.type	evtStop, %function
 156              	evtStop:
 157              	.LFB9:
 158              		.loc 1 59 0
 159              		.cfi_startproc
 160              		@ args = 0, pretend = 0, frame = 0
 161              		@ frame_needed = 0, uses_anonymous_args = 0
 162              	.LVL18:
 163 0000 08B5     		push	{r3, lr}
 164              	.LCFI2:
 165              		.cfi_def_cfa_offset 8
 166              		.cfi_offset 3, -8
 167              		.cfi_offset 14, -4
 168              	.LBB8:
 169              		.loc 1 61 0
 170 0002 2023     		movs	r3, #32
ARM GAS  C:\Users\jenny\AppData\Local\Temp\cchzpR6c.s 			page 4


 171              	.LVL19:
 172              	@ 61 "../../os/various/evtimer.c" 1
 173 0004 83F31188 		msr     BASEPRI, r3
 174              	@ 0 "" 2
 175              	.LVL20:
 176              		.thumb
 177              	.LBE8:
 178 0008 C368     		ldr	r3, [r0, #12]
 179              	.LVL21:
 180 000a 0BB1     		cbz	r3, .L9
 181              		.loc 1 61 0 is_stmt 0 discriminator 1
 182 000c FFF7FEFF 		bl	chVTResetI
 183              	.LVL22:
 184              	.L9:
 185              	.LBB9:
 186              		.loc 1 61 0 discriminator 2
 187 0010 0023     		movs	r3, #0
 188              	.LVL23:
 189              	@ 61 "../../os/various/evtimer.c" 1
 190 0012 83F31188 		msr     BASEPRI, r3
 191              	@ 0 "" 2
 192              	.LVL24:
 193              		.thumb
 194 0016 08BD     		pop	{r3, pc}
 195              	.LBE9:
 196              		.cfi_endproc
 197              	.LFE9:
 198              		.size	evtStop, .-evtStop
 199 0018 AFF30080 		.text
 199      AFF30080 
 200              	.Letext0:
 201              		.file 2 "c:\\fbin\\yagarto\\bin\\../lib/gcc/arm-none-eabi/4.7.4/../../../../arm-none-eabi/include/
 202              		.file 3 "../../os/ports/GCC/ARMCMx/chtypes.h"
 203              		.file 4 "../../os/kernel/include/chlists.h"
 204              		.file 5 "../../os/kernel/include/chthreads.h"
 205              		.file 6 "../../os/ports/GCC/ARMCMx/chcore_v7m.h"
 206              		.file 7 "../../os/kernel/include/chvt.h"
 207              		.file 8 "../../os/kernel/include/chmtx.h"
 208              		.file 9 "../../os/kernel/include/chevents.h"
 209              		.file 10 "../../os/various/evtimer.h"