ARM GAS  C:\Users\jenny\AppData\Local\Temp\ccRvr1QA.s 			page 1


   1              		.syntax unified
   2              		.cpu cortex-m4
   3              		.eabi_attribute 27, 3
   4              		.fpu fpv4-sp-d16
   5              		.eabi_attribute 20, 1
   6              		.eabi_attribute 21, 1
   7              		.eabi_attribute 23, 3
   8              		.eabi_attribute 24, 1
   9              		.eabi_attribute 25, 1
  10              		.eabi_attribute 26, 1
  11              		.eabi_attribute 30, 2
  12              		.eabi_attribute 34, 1
  13              		.eabi_attribute 18, 4
  14              		.thumb
  15              		.file	"hal.c"
  16              		.text
  17              	.Ltext0:
  18              		.cfi_sections	.debug_frame
  19              		.section	.text.halInit,"ax",%progbits
  20              		.align	2
  21              		.p2align 4,,15
  22              		.global	halInit
  23              		.thumb
  24              		.thumb_func
  25              		.type	halInit, %function
  26              	halInit:
  27              	.LFB118:
  28              		.file 1 "../../os/hal/src/hal.c"
  29              		.loc 1 68 0
  30              		.cfi_startproc
  31              		@ args = 0, pretend = 0, frame = 0
  32              		@ frame_needed = 0, uses_anonymous_args = 0
  33 0000 08B5     		push	{r3, lr}
  34              	.LCFI0:
  35              		.cfi_def_cfa_offset 8
  36              		.cfi_offset 3, -8
  37              		.cfi_offset 14, -4
  38              		.loc 1 70 0
  39 0002 FFF7FEFF 		bl	hal_lld_init
  40              	.LVL0:
  41              		.loc 1 73 0
  42 0006 FFF7FEFF 		bl	tmInit
  43              	.LVL1:
  44              		.loc 1 76 0
  45 000a 40F20000 		movw	r0, #:lower16:pal_default_config
  46 000e C0F20000 		movt	r0, #:upper16:pal_default_config
  47 0012 FFF7FEFF 		bl	_pal_lld_init
  48              	.LVL2:
  49              		.loc 1 97 0
  50 0016 FFF7FEFF 		bl	macInit
  51              	.LVL3:
  52              		.loc 1 103 0
  53 001a FFF7FEFF 		bl	sdInit
  54              	.LVL4:
  55              		.loc 1 106 0
  56 001e FFF7FEFF 		bl	sdcInit
  57              	.LVL5:
ARM GAS  C:\Users\jenny\AppData\Local\Temp\ccRvr1QA.s 			page 2


  58              		.loc 1 115 0
  59 0022 FFF7FEFF 		bl	usbInit
  60              	.LVL6:
  61              		.loc 1 121 0
  62 0026 FFF7FEFF 		bl	sduInit
  63              	.LVL7:
  64              		.loc 1 128 0
  65 002a BDE80840 		pop	{r3, lr}
  66              		.loc 1 127 0
  67 002e FFF7FEBF 		b	boardInit
  68              	.LVL8:
  69              		.cfi_endproc
  70              	.LFE118:
  71              		.size	halInit, .-halInit
  72 0032 00BFAFF3 		.section	.text.halIsCounterWithin,"ax",%progbits
  72      0080AFF3 
  72      0080AFF3 
  72      0080
  73              		.align	2
  74              		.p2align 4,,15
  75              		.global	halIsCounterWithin
  76              		.thumb
  77              		.thumb_func
  78              		.type	halIsCounterWithin, %function
  79              	halIsCounterWithin:
  80              	.LFB119:
  81              		.loc 1 174 0
  82              		.cfi_startproc
  83              		@ args = 0, pretend = 0, frame = 0
  84              		@ frame_needed = 0, uses_anonymous_args = 0
  85              		@ link register save eliminated.
  86              	.LVL9:
  87              		.loc 1 175 0
  88 0000 4FF48053 		mov	r3, #4096
  89 0004 CEF20003 		movt	r3, 57344
  90              		.loc 1 177 0
  91 0008 8142     		cmp	r1, r0
  92              		.loc 1 175 0
  93 000a 5A68     		ldr	r2, [r3, #4]
  94              	.LVL10:
  95              		.loc 1 177 0
  96 000c 06D9     		bls	.L3
  97              		.loc 1 177 0 is_stmt 0 discriminator 1
  98 000e 8242     		cmp	r2, r0
  99 0010 08D3     		bcc	.L7
 100              	.L9:
 101              		.loc 1 178 0 is_stmt 1 discriminator 2
 102 0012 8A42     		cmp	r2, r1
 103 0014 2CBF     		ite	cs
 104 0016 0020     		movcs	r0, #0
 105              	.LVL11:
 106 0018 0120     		movcc	r0, #1
 107 001a 7047     		bx	lr
 108              	.LVL12:
 109              	.L3:
 110              		.loc 1 178 0 is_stmt 0
 111 001c 8242     		cmp	r2, r0
ARM GAS  C:\Users\jenny\AppData\Local\Temp\ccRvr1QA.s 			page 3


 112 001e F8D3     		bcc	.L9
 113 0020 0120     		movs	r0, #1
 114              	.LVL13:
 115              		.loc 1 179 0 is_stmt 1
 116 0022 7047     		bx	lr
 117              	.LVL14:
 118              	.L7:
 119              		.loc 1 177 0
 120 0024 0020     		movs	r0, #0
 121              	.LVL15:
 122 0026 7047     		bx	lr
 123              		.cfi_endproc
 124              	.LFE119:
 125              		.size	halIsCounterWithin, .-halIsCounterWithin
 126 0028 AFF30080 		.section	.text.halPolledDelay,"ax",%progbits
 126      AFF30080 
 127              		.align	2
 128              		.p2align 4,,15
 129              		.global	halPolledDelay
 130              		.thumb
 131              		.thumb_func
 132              		.type	halPolledDelay, %function
 133              	halPolledDelay:
 134              	.LFB120:
 135              		.loc 1 193 0
 136              		.cfi_startproc
 137              		@ args = 0, pretend = 0, frame = 0
 138              		@ frame_needed = 0, uses_anonymous_args = 0
 139              		@ link register save eliminated.
 140              	.LVL16:
 141              		.loc 1 194 0
 142 0000 4FF48053 		mov	r3, #4096
 143 0004 CEF20003 		movt	r3, 57344
 144              	.LBB4:
 145              	.LBB5:
 146              		.loc 1 175 0
 147 0008 1946     		mov	r1, r3
 148              	.LBE5:
 149              	.LBE4:
 150              		.loc 1 194 0
 151 000a 5A68     		ldr	r2, [r3, #4]
 152              	.LVL17:
 153              		.loc 1 195 0
 154 000c 8018     		adds	r0, r0, r2
 155              	.LVL18:
 156              	.L21:
 157              	.LBB7:
 158              	.LBB6:
 159              		.loc 1 177 0 discriminator 1
 160 000e 8242     		cmp	r2, r0
 161              		.loc 1 175 0 discriminator 1
 162 0010 4B68     		ldr	r3, [r1, #4]
 163              	.LVL19:
 164              		.loc 1 177 0 discriminator 1
 165 0012 02D2     		bcs	.L12
 166              		.loc 1 177 0 is_stmt 0
 167 0014 9A42     		cmp	r2, r3
ARM GAS  C:\Users\jenny\AppData\Local\Temp\ccRvr1QA.s 			page 4


 168 0016 02D9     		bls	.L22
 169 0018 7047     		bx	lr
 170              	.L12:
 171              		.loc 1 178 0 is_stmt 1
 172 001a 9A42     		cmp	r2, r3
 173 001c F7D9     		bls	.L21
 174              	.L22:
 175 001e 9842     		cmp	r0, r3
 176 0020 94BF     		ite	ls
 177 0022 0023     		movls	r3, #0
 178              	.LVL20:
 179 0024 0123     		movhi	r3, #1
 180              	.LBE6:
 181              	.LBE7:
 182              		.loc 1 196 0
 183 0026 002B     		cmp	r3, #0
 184 0028 F1D1     		bne	.L21
 185 002a 7047     		bx	lr
 186              		.cfi_endproc
 187              	.LFE120:
 188              		.size	halPolledDelay, .-halPolledDelay
 189 002c AFF30080 		.text
 190              	.Letext0:
 191              		.file 2 "c:\\fbin\\yagarto\\bin\\../lib/gcc/arm-none-eabi/4.7.4/../../../../arm-none-eabi/include/
 192              		.file 3 "../../os/ports/GCC/ARMCMx/chtypes.h"
 193              		.file 4 "../../os/ports/common/ARMCMx/nvic.h"
 194              		.file 5 "../../os/hal/platforms/STM32F4xx/hal_lld.h"
 195              		.file 6 "../../os/hal/platforms/STM32/GPIOv2/pal_lld.h"
 196              		.file 7 "../../os/ports/common/ARMCMx/CMSIS/include/core_cm4.h"
 197              		.file 8 "../../os/hal/include/tm.h"
 198              		.file 9 "../../os/hal/include/mac.h"
 199              		.file 10 "../../os/hal/include/serial.h"
 200              		.file 11 "../../os/hal/include/sdc.h"
 201              		.file 12 "../../os/hal/include/usb.h"
 202              		.file 13 "../../os/hal/include/serial_usb.h"
 203              		.file 14 "../../boards/OLIMEX_STM32_E407/board.h"