ARM GAS  C:\Users\jenny\AppData\Local\Temp\ccnPE0kb.s 			page 1


   1              		.syntax unified
   2              		.cpu cortex-m4
   3              		.eabi_attribute 27, 3
   4              		.fpu fpv4-sp-d16
   5              		.eabi_attribute 20, 1
   6              		.eabi_attribute 21, 1
   7              		.eabi_attribute 23, 3
   8              		.eabi_attribute 24, 1
   9              		.eabi_attribute 25, 1
  10              		.eabi_attribute 26, 1
  11              		.eabi_attribute 30, 2
  12              		.eabi_attribute 34, 1
  13              		.eabi_attribute 18, 4
  14              		.thumb
  15              		.file	"ip_addr.c"
  16              		.text
  17              	.Ltext0:
  18              		.cfi_sections	.debug_frame
  19              		.section	.text.ip4_addr_isbroadcast,"ax",%progbits
  20              		.align	2
  21              		.p2align 4,,15
  22              		.global	ip4_addr_isbroadcast
  23              		.thumb
  24              		.thumb_func
  25              		.type	ip4_addr_isbroadcast, %function
  26              	ip4_addr_isbroadcast:
  27              	.LFB7:
  28              		.file 1 "../../ext/lwip/src/core/ipv4/ip_addr.c"
  29              		.loc 1 56 0
  30              		.cfi_startproc
  31              		@ args = 0, pretend = 0, frame = 0
  32              		@ frame_needed = 0, uses_anonymous_args = 0
  33              		@ link register save eliminated.
  34              	.LVL0:
  35              		.loc 1 61 0
  36 0000 431E     		subs	r3, r0, #1
  37 0002 0333     		adds	r3, r3, #3
  38 0004 13D8     		bhi	.L5
  39              		.loc 1 65 0
  40 0006 91F82920 		ldrb	r2, [r1, #41]	@ zero_extendqisi2
  41 000a 02F00203 		and	r3, r2, #2
  42 000e DAB2     		uxtb	r2, r3
  43 0010 5AB1     		cbz	r2, .L7
  44              		.loc 1 70 0
  45 0012 4B68     		ldr	r3, [r1, #4]
  46 0014 8342     		cmp	r3, r0
  47 0016 08D0     		beq	.L7
  48              		.loc 1 73 0
  49 0018 8968     		ldr	r1, [r1, #8]
  50              	.LVL1:
  51 001a 80EA0302 		eor	r2, r0, r3
  52 001e 0A42     		tst	r2, r1
  53 0020 03D1     		bne	.L7
  54              		.loc 1 75 0
  55 0022 CB43     		mvns	r3, r1
  56 0024 1840     		ands	r0, r0, r3
  57              	.LVL2:
ARM GAS  C:\Users\jenny\AppData\Local\Temp\ccnPE0kb.s 			page 2


  58 0026 8342     		cmp	r3, r0
  59 0028 01D0     		beq	.L5
  60              	.L7:
  61              		.loc 1 68 0
  62 002a 0020     		movs	r0, #0
  63              		.loc 1 82 0
  64 002c 7047     		bx	lr
  65              	.L5:
  66              		.loc 1 63 0
  67 002e 0120     		movs	r0, #1
  68 0030 7047     		bx	lr
  69              		.cfi_endproc
  70              	.LFE7:
  71              		.size	ip4_addr_isbroadcast, .-ip4_addr_isbroadcast
  72 0032 00BFAFF3 		.section	.text.ip4_addr_netmask_valid,"ax",%progbits
  72      0080AFF3 
  72      0080AFF3 
  72      0080
  73              		.align	2
  74              		.p2align 4,,15
  75              		.global	ip4_addr_netmask_valid
  76              		.thumb
  77              		.thumb_func
  78              		.type	ip4_addr_netmask_valid, %function
  79              	ip4_addr_netmask_valid:
  80              	.LFB8:
  81              		.loc 1 91 0
  82              		.cfi_startproc
  83              		@ args = 0, pretend = 0, frame = 0
  84              		@ frame_needed = 0, uses_anonymous_args = 0
  85              	.LVL3:
  86 0000 08B5     		push	{r3, lr}
  87              	.LCFI0:
  88              		.cfi_def_cfa_offset 8
  89              		.cfi_offset 3, -8
  90              		.cfi_offset 14, -4
  91              		.loc 1 93 0
  92 0002 FFF7FEFF 		bl	lwip_htonl
  93              	.LVL4:
  94 0006 2021     		movs	r1, #32
  95              		.loc 1 96 0
  96 0008 4FF00043 		mov	r3, #-2147483648
  97 000c 05E0     		b	.L13
  98              	.LVL5:
  99              	.L10:
 100 000e 5B08     		lsrs	r3, r3, #1
 101              	.LVL6:
 102              		.loc 1 97 0
 103 0010 0342     		tst	r3, r0
 104 0012 06D0     		beq	.L21
 105              		.loc 1 96 0
 106 0014 5B08     		lsrs	r3, r3, #1
 107              	.LVL7:
 108 0016 511E     		subs	r1, r2, #1
 109 0018 09D0     		beq	.L23
 110              	.LVL8:
 111              	.L13:
ARM GAS  C:\Users\jenny\AppData\Local\Temp\ccnPE0kb.s 			page 3


 112              		.loc 1 97 0
 113 001a 0342     		tst	r3, r0
 114 001c 01F1FF32 		add	r2, r1, #-1
 115 0020 F5D1     		bne	.L10
 116              	.L21:
 117              	.LVL9:
 118              		.loc 1 102 0 discriminator 1
 119 0022 13B9     		cbnz	r3, .L20
 120 0024 03E0     		b	.L23
 121              	.L15:
 122              		.loc 1 103 0
 123 0026 1842     		tst	r0, r3
 124 0028 03D1     		bne	.L16
 125              	.L20:
 126              	.LVL10:
 127              		.loc 1 102 0
 128 002a 5B08     		lsrs	r3, r3, #1
 129              	.LVL11:
 130 002c FBD1     		bne	.L15
 131              	.L23:
 132              		.loc 1 109 0
 133 002e 0120     		movs	r0, #1
 134              	.LVL12:
 135 0030 08BD     		pop	{r3, pc}
 136              	.LVL13:
 137              	.L16:
 138              		.loc 1 105 0
 139 0032 0020     		movs	r0, #0
 140              	.LVL14:
 141              		.loc 1 110 0
 142 0034 08BD     		pop	{r3, pc}
 143              		.cfi_endproc
 144              	.LFE8:
 145              		.size	ip4_addr_netmask_valid, .-ip4_addr_netmask_valid
 146 0036 00BFAFF3 		.section	.text.ipaddr_aton,"ax",%progbits
 146      0080AFF3 
 146      0080
 147              		.align	2
 148              		.p2align 4,,15
 149              		.global	ipaddr_aton
 150              		.thumb
 151              		.thumb_func
 152              		.type	ipaddr_aton, %function
 153              	ipaddr_aton:
 154              	.LFB10:
 155              		.loc 1 153 0
 156              		.cfi_startproc
 157              		@ args = 0, pretend = 0, frame = 16
 158              		@ frame_needed = 0, uses_anonymous_args = 0
 159              	.LVL15:
 160 0000 2DE9F041 		push	{r4, r5, r6, r7, r8, lr}
 161              	.LCFI1:
 162              		.cfi_def_cfa_offset 24
 163              		.cfi_offset 4, -24
 164              		.cfi_offset 5, -20
 165              		.cfi_offset 6, -16
 166              		.cfi_offset 7, -12
ARM GAS  C:\Users\jenny\AppData\Local\Temp\ccnPE0kb.s 			page 4


 167              		.cfi_offset 8, -8
 168              		.cfi_offset 14, -4
 169              		.loc 1 160 0
 170 0004 0378     		ldrb	r3, [r0, #0]	@ zero_extendqisi2
 171              		.loc 1 167 0
 172 0006 A3F13004 		sub	r4, r3, #48
 173              		.loc 1 153 0
 174 000a 8846     		mov	r8, r1
 175              		.loc 1 167 0
 176 000c E1B2     		uxtb	r1, r4
 177              	.LVL16:
 178 000e 0929     		cmp	r1, #9
 179              		.loc 1 153 0
 180 0010 84B0     		sub	sp, sp, #16
 181              	.LCFI2:
 182              		.cfi_def_cfa_offset 40
 183              	.LVL17:
 184              		.loc 1 153 0
 185 0012 0246     		mov	r2, r0
 186              		.loc 1 167 0
 187 0014 37D8     		bhi	.L50
 188              		.loc 1 158 0
 189 0016 6946     		mov	r1, sp
 190 0018 6F46     		mov	r7, sp
 191              		.loc 1 152 0
 192 001a 0DF10C0C 		add	ip, sp, #12
 193              	.LVL18:
 194              	.L25:
 195              		.loc 1 171 0
 196 001e 302B     		cmp	r3, #48
 197 0020 36D0     		beq	.L78
 198              		.loc 1 170 0
 199 0022 0A26     		movs	r6, #10
 200              	.LVL19:
 201              	.L27:
 202              		.loc 1 174 0
 203 0024 0025     		movs	r5, #0
 204 0026 06E0     		b	.L29
 205              	.LVL20:
 206              	.L79:
 207              		.loc 1 181 0
 208 0028 06FB0535 		mla	r5, r6, r5, r3
 209              	.LVL21:
 210              		.loc 1 182 0
 211 002c 5378     		ldrb	r3, [r2, #1]	@ zero_extendqisi2
 212              	.LVL22:
 213              		.loc 1 181 0
 214 002e 303D     		subs	r5, r5, #48
 215              	.LVL23:
 216              	.L31:
 217 0030 0132     		adds	r2, r2, #1
 218 0032 A3F13004 		sub	r4, r3, #48
 219              	.LVL24:
 220              	.L29:
 221              		.loc 1 180 0
 222 0036 E4B2     		uxtb	r4, r4
 223 0038 092C     		cmp	r4, #9
ARM GAS  C:\Users\jenny\AppData\Local\Temp\ccnPE0kb.s 			page 5


 224 003a F5D9     		bls	.L79
 225              		.loc 1 183 0
 226 003c 102E     		cmp	r6, #16
 227 003e 15D1     		bne	.L32
 228              		.loc 1 183 0 is_stmt 0 discriminator 1
 229 0040 A3F16100 		sub	r0, r3, #97
 230 0044 C0B2     		uxtb	r0, r0
 231 0046 0528     		cmp	r0, #5
 232 0048 0CD9     		bls	.L33
 233 004a A3F14104 		sub	r4, r3, #65
 234 004e 052C     		cmp	r4, #5
 235 0050 0CD8     		bhi	.L32
 236              		.loc 1 184 0 is_stmt 1
 237 0052 2D01     		lsls	r5, r5, #4
 238              	.LVL25:
 239 0054 0A33     		adds	r3, r3, #10
 240              	.LVL26:
 241 0056 1928     		cmp	r0, #25
 242 0058 06D9     		bls	.L44
 243 005a 4124     		movs	r4, #65
 244              	.LVL27:
 245              	.L34:
 246              		.loc 1 184 0 is_stmt 0 discriminator 3
 247 005c 1B1B     		subs	r3, r3, r4
 248 005e 1D43     		orrs	r5, r5, r3
 249              	.LVL28:
 250              		.loc 1 185 0 is_stmt 1 discriminator 3
 251 0060 5378     		ldrb	r3, [r2, #1]	@ zero_extendqisi2
 252              	.LVL29:
 253 0062 E5E7     		b	.L31
 254              	.LVL30:
 255              	.L33:
 256              		.loc 1 184 0
 257 0064 2D01     		lsls	r5, r5, #4
 258              	.LVL31:
 259 0066 0A33     		adds	r3, r3, #10
 260              	.LVL32:
 261              	.L44:
 262 0068 6124     		movs	r4, #97
 263 006a F7E7     		b	.L34
 264              	.LVL33:
 265              	.L32:
 266              		.loc 1 189 0
 267 006c 2E2B     		cmp	r3, #46
 268 006e 1FD1     		bne	.L35
 269              		.loc 1 196 0
 270 0070 6745     		cmp	r7, ip
 271 0072 08D0     		beq	.L50
 272              		.loc 1 200 0
 273 0074 5378     		ldrb	r3, [r2, #1]	@ zero_extendqisi2
 274              	.LVL34:
 275              		.loc 1 199 0
 276 0076 47F8045B 		str	r5, [r7], #4
 277              	.LVL35:
 278              		.loc 1 167 0
 279 007a A3F13004 		sub	r4, r3, #48
 280 007e E0B2     		uxtb	r0, r4
ARM GAS  C:\Users\jenny\AppData\Local\Temp\ccnPE0kb.s 			page 6


 281              		.loc 1 200 0
 282 0080 0132     		adds	r2, r2, #1
 283              	.LVL36:
 284              		.loc 1 167 0
 285 0082 0928     		cmp	r0, #9
 286 0084 CBD9     		bls	.L25
 287              	.LVL37:
 288              	.L50:
 289              		.loc 1 217 0
 290 0086 0021     		movs	r1, #0
 291              	.L77:
 292              		.loc 1 250 0
 293 0088 0846     		mov	r0, r1
 294 008a 04B0     		add	sp, sp, #16
 295 008c BDE8F081 		pop	{r4, r5, r6, r7, r8, pc}
 296              	.LVL38:
 297              	.L78:
 298              		.loc 1 172 0
 299 0090 5378     		ldrb	r3, [r2, #1]	@ zero_extendqisi2
 300              	.LVL39:
 301              		.loc 1 173 0
 302 0092 782B     		cmp	r3, #120
 303 0094 06D0     		beq	.L28
 304              		.loc 1 173 0 is_stmt 0 discriminator 1
 305 0096 582B     		cmp	r3, #88
 306 0098 04D0     		beq	.L28
 307              		.loc 1 172 0 is_stmt 1
 308 009a 0132     		adds	r2, r2, #1
 309              	.LVL40:
 310              		.loc 1 177 0
 311 009c 0826     		movs	r6, #8
 312 009e A3F13004 		sub	r4, r3, #48
 313 00a2 BFE7     		b	.L27
 314              	.LVL41:
 315              	.L28:
 316              		.loc 1 175 0
 317 00a4 9378     		ldrb	r3, [r2, #2]	@ zero_extendqisi2
 318              	.LVL42:
 319              		.loc 1 174 0
 320 00a6 1026     		movs	r6, #16
 321              		.loc 1 175 0
 322 00a8 0232     		adds	r2, r2, #2
 323              	.LVL43:
 324 00aa A3F13004 		sub	r4, r3, #48
 325 00ae B9E7     		b	.L27
 326              	.LVL44:
 327              	.L35:
 328              		.loc 1 207 0
 329 00b0 5BB1     		cbz	r3, .L37
 330              		.loc 1 207 0 is_stmt 0 discriminator 1
 331 00b2 202B     		cmp	r3, #32
 332 00b4 09D0     		beq	.L37
 333 00b6 0C2B     		cmp	r3, #12
 334 00b8 07D0     		beq	.L37
 335 00ba 0A2B     		cmp	r3, #10
 336 00bc 05D0     		beq	.L37
 337              		.loc 1 207 0 discriminator 2
ARM GAS  C:\Users\jenny\AppData\Local\Temp\ccnPE0kb.s 			page 7


 338 00be 0D2B     		cmp	r3, #13
 339 00c0 03D0     		beq	.L37
 340              		.loc 1 207 0 discriminator 3
 341 00c2 092B     		cmp	r3, #9
 342 00c4 01D0     		beq	.L37
 343              		.loc 1 207 0 discriminator 4
 344 00c6 0B2B     		cmp	r3, #11
 345 00c8 DDD1     		bne	.L50
 346              	.L37:
 347              		.loc 1 214 0 is_stmt 1
 348 00ca 7B1A     		subs	r3, r7, r1
 349              	.LVL45:
 350 00cc 9A10     		asrs	r2, r3, #2
 351              	.LVL46:
 352 00ce 511C     		adds	r1, r2, #1
 353 00d0 0429     		cmp	r1, #4
 354 00d2 33D8     		bhi	.L38
 355 00d4 01A2     		adr	r2, .L43
 356 00d6 52F821F0 		ldr	pc, [r2, r1, lsl #2]
 357 00da 00BF     		.align	2
 358              	.L43:
 359 00dc 87000000 		.word	.L50+1
 360 00e0 FD000000 		.word	.L39+1
 361 00e4 F1000000 		.word	.L40+1
 362 00e8 29010000 		.word	.L41+1
 363 00ec 11010000 		.word	.L42+1
 364              	.L40:
 365              		.loc 1 223 0
 366 00f0 B5F1807F 		cmp	r5, #16777216
 367 00f4 C7D2     		bcs	.L50
 368              		.loc 1 226 0
 369 00f6 009B     		ldr	r3, [sp, #0]
 370 00f8 45EA0365 		orr	r5, r5, r3, lsl #24
 371              	.LVL47:
 372              	.L39:
 373              		.loc 1 246 0
 374 00fc B8F1000F 		cmp	r8, #0
 375 0100 1FD0     		beq	.L51
 376              		.loc 1 247 0
 377 0102 2846     		mov	r0, r5
 378 0104 FFF7FEFF 		bl	lwip_htonl
 379              	.LVL48:
 380              		.loc 1 249 0
 381 0108 0121     		movs	r1, #1
 382              		.loc 1 247 0
 383 010a C8F80000 		str	r0, [r8, #0]
 384 010e BBE7     		b	.L77
 385              	.L42:
 386              		.loc 1 237 0
 387 0110 FF2D     		cmp	r5, #255
 388 0112 B8D8     		bhi	.L50
 389              		.loc 1 240 0
 390 0114 0098     		ldr	r0, [sp, #0]
 391 0116 019B     		ldr	r3, [sp, #4]
 392 0118 0206     		lsls	r2, r0, #24
 393 011a 0298     		ldr	r0, [sp, #8]
 394 011c 42EA0341 		orr	r1, r2, r3, lsl #16
ARM GAS  C:\Users\jenny\AppData\Local\Temp\ccnPE0kb.s 			page 8


 395 0120 41EA0022 		orr	r2, r1, r0, lsl #8
 396 0124 1543     		orrs	r5, r5, r2
 397              	.LVL49:
 398              		.loc 1 241 0
 399 0126 E9E7     		b	.L39
 400              	.L41:
 401              		.loc 1 230 0
 402 0128 B5F5803F 		cmp	r5, #65536
 403 012c ABD2     		bcs	.L50
 404              		.loc 1 233 0
 405 012e 009B     		ldr	r3, [sp, #0]
 406 0130 0198     		ldr	r0, [sp, #4]
 407 0132 1906     		lsls	r1, r3, #24
 408 0134 41EA0042 		orr	r2, r1, r0, lsl #16
 409 0138 1543     		orrs	r5, r5, r2
 410              	.LVL50:
 411              		.loc 1 234 0
 412 013a DFE7     		b	.L39
 413              	.L38:
 414              		.loc 1 243 0 discriminator 1
 415 013c FFF7FEFF 		bl	port_halt
 416              	.LVL51:
 417              		.loc 1 244 0 discriminator 1
 418 0140 DCE7     		b	.L39
 419              	.L51:
 420              		.loc 1 249 0
 421 0142 0121     		movs	r1, #1
 422 0144 A0E7     		b	.L77
 423              		.cfi_endproc
 424              	.LFE10:
 425              		.size	ipaddr_aton, .-ipaddr_aton
 426 0146 00BFAFF3 		.section	.text.ipaddr_addr,"ax",%progbits
 426      0080AFF3 
 426      0080
 427              		.align	2
 428              		.p2align 4,,15
 429              		.global	ipaddr_addr
 430              		.thumb
 431              		.thumb_func
 432              		.type	ipaddr_addr, %function
 433              	ipaddr_addr:
 434              	.LFB9:
 435              		.loc 1 131 0
 436              		.cfi_startproc
 437              		@ args = 0, pretend = 0, frame = 8
 438              		@ frame_needed = 0, uses_anonymous_args = 0
 439              	.LVL52:
 440 0000 00B5     		push	{lr}
 441              	.LCFI3:
 442              		.cfi_def_cfa_offset 4
 443              		.cfi_offset 14, -4
 444 0002 83B0     		sub	sp, sp, #12
 445              	.LCFI4:
 446              		.cfi_def_cfa_offset 16
 447              		.loc 1 134 0
 448 0004 01A9     		add	r1, sp, #4
 449 0006 FFF7FEFF 		bl	ipaddr_aton
ARM GAS  C:\Users\jenny\AppData\Local\Temp\ccnPE0kb.s 			page 9


 450              	.LVL53:
 451 000a 18B9     		cbnz	r0, .L83
 452              		.loc 1 137 0
 453 000c 4FF0FF30 		mov	r0, #-1
 454              	.L81:
 455              		.loc 1 138 0
 456 0010 03B0     		add	sp, sp, #12
 457 0012 00BD     		pop	{pc}
 458              	.L83:
 459              		.loc 1 135 0
 460 0014 0198     		ldr	r0, [sp, #4]
 461 0016 FBE7     		b	.L81
 462              		.cfi_endproc
 463              	.LFE9:
 464              		.size	ipaddr_addr, .-ipaddr_addr
 465 0018 AFF30080 		.section	.text.ipaddr_ntoa_r,"ax",%progbits
 465      AFF30080 
 466              		.align	2
 467              		.p2align 4,,15
 468              		.global	ipaddr_ntoa_r
 469              		.thumb
 470              		.thumb_func
 471              		.type	ipaddr_ntoa_r, %function
 472              	ipaddr_ntoa_r:
 473              	.LFB12:
 474              		.loc 1 277 0
 475              		.cfi_startproc
 476              		@ args = 0, pretend = 0, frame = 8
 477              		@ frame_needed = 0, uses_anonymous_args = 0
 478              		@ link register save eliminated.
 479              	.LVL54:
 480 0000 2DE9F00F 		push	{r4, r5, r6, r7, r8, r9, sl, fp}
 481              	.LCFI5:
 482              		.cfi_def_cfa_offset 32
 483              		.cfi_offset 4, -32
 484              		.cfi_offset 5, -28
 485              		.cfi_offset 6, -24
 486              		.cfi_offset 7, -20
 487              		.cfi_offset 8, -16
 488              		.cfi_offset 9, -12
 489              		.cfi_offset 10, -8
 490              		.cfi_offset 11, -4
 491              		.loc 1 287 0
 492 0004 0368     		ldr	r3, [r0, #0]
 493              		.loc 1 277 0
 494 0006 82B0     		sub	sp, sp, #8
 495              	.LCFI6:
 496              		.cfi_def_cfa_offset 40
 497              		.loc 1 294 0
 498 0008 4CF6CD48 		movw	r8, #52429
 499              		.loc 1 287 0
 500 000c 0193     		str	r3, [sp, #4]
 501              	.LVL55:
 502              		.loc 1 276 0
 503 000e 0DF1030A 		add	sl, sp, #3
 504 0012 0DF10700 		add	r0, sp, #7
 505              	.LVL56:
ARM GAS  C:\Users\jenny\AppData\Local\Temp\ccnPE0kb.s 			page 10


 506              		.loc 1 289 0
 507 0016 0F46     		mov	r7, r1
 508              		.loc 1 285 0
 509 0018 4FF0000C 		mov	ip, #0
 510              		.loc 1 294 0
 511 001c CCF6CC48 		movt	r8, 52428
 512              		.loc 1 276 0
 513 0020 02F10109 		add	r9, r2, #1
 514              	.LVL57:
 515              	.L91:
 516 0024 9AF80140 		ldrb	r4, [sl, #1]	@ zero_extendqisi2
 517              		.loc 1 276 0 is_stmt 0 discriminator 1
 518 0028 0026     		movs	r6, #0
 519 002a 00E0     		b	.L85
 520              	.LVL58:
 521              	.L92:
 522              		.loc 1 296 0 is_stmt 1
 523 002c 5E46     		mov	r6, fp
 524              	.LVL59:
 525              	.L85:
 526              		.loc 1 294 0 discriminator 1
 527 002e A8FB0453 		umull	r5, r3, r8, r4
 528 0032 DB08     		lsrs	r3, r3, #3
 529 0034 03EB8305 		add	r5, r3, r3, lsl #2
 530 0038 A4EB4505 		sub	r5, r4, r5, lsl #1
 531              	.LVL60:
 532              		.loc 1 296 0 discriminator 1
 533 003c 0DF1080B 		add	fp, sp, #8
 534 0040 0BEB0604 		add	r4, fp, r6
 535 0044 3035     		adds	r5, r5, #48
 536              	.LVL61:
 537 0046 06F1010B 		add	fp, r6, #1
 538 004a 05F0FF05 		and	r5, r5, #255
 539              	.LVL62:
 540 004e 04F8085C 		strb	r5, [r4, #-8]
 541 0052 5FFA8BFB 		uxtb	fp, fp
 542              	.LVL63:
 543              		.loc 1 297 0 discriminator 1
 544 0056 03F0FF04 		and	r4, r3, #255
 545 005a 002B     		cmp	r3, #0
 546 005c E6D1     		bne	.L92
 547 005e 0AF8014F 		strb	r4, [sl, #1]!
 548              	.LVL64:
 549              		.loc 1 298 0
 550 0062 BBF1000F 		cmp	fp, #0
 551 0066 4DD0     		beq	.L93
 552              		.loc 1 299 0
 553 0068 6245     		cmp	r2, ip
 554 006a 0CF10103 		add	r3, ip, #1
 555              	.LVL65:
 556 006e 43DD     		ble	.L87
 557 0070 6FEA030C 		mvn	ip, r3
 558 0074 CC44     		add	ip, ip, r9
 559 0076 013E     		subs	r6, r6, #1
 560              	.LVL66:
 561 0078 1CF0010F 		tst	ip, #1
 562 007c F6B2     		uxtb	r6, r6
ARM GAS  C:\Users\jenny\AppData\Local\Temp\ccnPE0kb.s 			page 11


 563              	.LVL67:
 564 007e 3C46     		mov	r4, r7
 565 0080 1FD0     		beq	.L88
 566              		.loc 1 302 0
 567 0082 3D70     		strb	r5, [r7, #0]
 568 0084 0137     		adds	r7, r7, #1
 569              	.LVL68:
 570              		.loc 1 298 0
 571 0086 FF2E     		cmp	r6, #255
 572              		.loc 1 302 0
 573 0088 3C46     		mov	r4, r7
 574              	.LVL69:
 575              		.loc 1 298 0
 576 008a 27D0     		beq	.L86
 577 008c 02AF     		add	r7, sp, #8
 578 008e BD19     		adds	r5, r7, r6
 579 0090 013E     		subs	r6, r6, #1
 580              	.LVL70:
 581              		.loc 1 299 0
 582 0092 0133     		adds	r3, r3, #1
 583              	.LVL71:
 584 0094 15F8085C 		ldrb	r5, [r5, #-8]	@ zero_extendqisi2
 585 0098 F6B2     		uxtb	r6, r6
 586              	.LVL72:
 587 009a 12E0     		b	.L88
 588              	.LVL73:
 589              	.L90:
 590 009c 0133     		adds	r3, r3, #1
 591              	.LVL74:
 592 009e 4B45     		cmp	r3, r9
 593 00a0 2AD0     		beq	.L87
 594 00a2 1BF8085C 		ldrb	r5, [fp, #-8]	@ zero_extendqisi2
 595              		.loc 1 302 0
 596 00a6 04F8015B 		strb	r5, [r4], #1
 597              	.LVL75:
 598              		.loc 1 298 0
 599 00aa FF2E     		cmp	r6, #255
 600              		.loc 1 302 0
 601 00ac 2746     		mov	r7, r4
 602              	.LVL76:
 603              		.loc 1 298 0
 604 00ae 15D0     		beq	.L86
 605 00b0 0DF1080B 		add	fp, sp, #8
 606 00b4 0BEB0605 		add	r5, fp, r6
 607 00b8 013E     		subs	r6, r6, #1
 608 00ba 15F8085C 		ldrb	r5, [r5, #-8]	@ zero_extendqisi2
 609              		.loc 1 299 0
 610 00be 0133     		adds	r3, r3, #1
 611              	.LVL77:
 612 00c0 F6B2     		uxtb	r6, r6
 613              	.LVL78:
 614              	.L88:
 615 00c2 02AF     		add	r7, sp, #8
 616 00c4 07EB060B 		add	fp, r7, r6
 617              		.loc 1 302 0
 618 00c8 2746     		mov	r7, r4
 619 00ca 06F1FF3C 		add	ip, r6, #-1
ARM GAS  C:\Users\jenny\AppData\Local\Temp\ccnPE0kb.s 			page 12


 620 00ce 07F8015B 		strb	r5, [r7], #1
 621              		.loc 1 298 0
 622 00d2 FF2E     		cmp	r6, #255
 623              		.loc 1 302 0
 624 00d4 3C46     		mov	r4, r7
 625              	.LVL79:
 626 00d6 5FFA8CF6 		uxtb	r6, ip
 627              	.LVL80:
 628              		.loc 1 298 0
 629 00da DFD1     		bne	.L90
 630              	.LVL81:
 631              	.L86:
 632              		.loc 1 304 0
 633 00dc 9A42     		cmp	r2, r3
 634 00de 03F1010C 		add	ip, r3, #1
 635              	.LVL82:
 636 00e2 09DD     		ble	.L87
 637              		.loc 1 307 0
 638 00e4 4FF02E0B 		mov	fp, #46
 639              		.loc 1 291 0
 640 00e8 8245     		cmp	sl, r0
 641              		.loc 1 307 0
 642 00ea 07F801BB 		strb	fp, [r7], #1
 643              	.LVL83:
 644              		.loc 1 291 0
 645 00ee 99D1     		bne	.L91
 646              	.LVL84:
 647              		.loc 1 310 0
 648 00f0 0020     		movs	r0, #0
 649 00f2 07F8010C 		strb	r0, [r7, #-1]
 650 00f6 00E0     		b	.L89
 651              	.LVL85:
 652              	.L87:
 653              		.loc 1 300 0
 654 00f8 0021     		movs	r1, #0
 655              	.LVL86:
 656              	.L89:
 657              		.loc 1 312 0
 658 00fa 0846     		mov	r0, r1
 659 00fc 02B0     		add	sp, sp, #8
 660 00fe BDE8F00F 		pop	{r4, r5, r6, r7, r8, r9, sl, fp}
 661 0102 7047     		bx	lr
 662              	.LVL87:
 663              	.L93:
 664              		.loc 1 298 0
 665 0104 6346     		mov	r3, ip
 666 0106 E9E7     		b	.L86
 667              		.cfi_endproc
 668              	.LFE12:
 669              		.size	ipaddr_ntoa_r, .-ipaddr_ntoa_r
 670 0108 AFF30080 		.section	.text.ipaddr_ntoa,"ax",%progbits
 670      AFF30080 
 671              		.align	2
 672              		.p2align 4,,15
 673              		.global	ipaddr_ntoa
 674              		.thumb
 675              		.thumb_func
ARM GAS  C:\Users\jenny\AppData\Local\Temp\ccnPE0kb.s 			page 13


 676              		.type	ipaddr_ntoa, %function
 677              	ipaddr_ntoa:
 678              	.LFB11:
 679              		.loc 1 262 0
 680              		.cfi_startproc
 681              		@ args = 0, pretend = 0, frame = 0
 682              		@ frame_needed = 0, uses_anonymous_args = 0
 683              		@ link register save eliminated.
 684              	.LVL88:
 685              		.loc 1 264 0
 686 0000 40F20001 		movw	r1, #:lower16:.LANCHOR0
 687 0004 C0F20001 		movt	r1, #:upper16:.LANCHOR0
 688 0008 1022     		movs	r2, #16
 689              		.loc 1 265 0
 690              		.loc 1 264 0
 691 000a FFF7FEBF 		b	ipaddr_ntoa_r
 692              	.LVL89:
 693              		.cfi_endproc
 694              	.LFE11:
 695              		.size	ipaddr_ntoa, .-ipaddr_ntoa
 696              		.global	ip_addr_broadcast
 697              		.global	ip_addr_any
 698 000e 00BF     		.section	.rodata.ip_addr_broadcast,"a",%progbits
 699              		.align	2
 700              		.type	ip_addr_broadcast, %object
 701              		.size	ip_addr_broadcast, 4
 702              	ip_addr_broadcast:
 703 0000 FFFFFFFF 		.word	-1
 704              		.section	.bss.str.5050,"aw",%nobits
 705              		.align	2
 706              		.set	.LANCHOR0,. + 0
 707              		.type	str.5050, %object
 708              		.size	str.5050, 16
 709              	str.5050:
 710 0000 00000000 		.space	16
 710      00000000 
 710      00000000 
 710      00000000 
 711              		.section	.rodata.ip_addr_any,"a",%progbits
 712              		.align	2
 713              		.type	ip_addr_any, %object
 714              		.size	ip_addr_any, 4
 715              	ip_addr_any:
 716 0000 00000000 		.space	4
 717              		.text
 718              	.Letext0:
 719              		.file 2 "c:\\fbin\\yagarto\\bin\\../lib/gcc/arm-none-eabi/4.7.4/../../../../arm-none-eabi/include/
 720              		.file 3 "../../os/various/lwip_bindings/arch/cc.h"
 721              		.file 4 "../../ext/lwip/src/include/ipv4/lwip/ip_addr.h"
 722              		.file 5 "../../ext/lwip/src/include/lwip/err.h"
 723              		.file 6 "../../ext/lwip/src/include/lwip/pbuf.h"
 724              		.file 7 "../../ext/lwip/src/include/lwip/netif.h"
 725              		.file 8 "../../ext/lwip/src/include/lwip/def.h"
 726              		.file 9 "../../os/ports/GCC/ARMCMx/chcore_v7m.h"
 727              		.section	.debug_info,"",%progbits
 728              	.Ldebug_info0:
 729 0000 5F060000 		.4byte	0x65f
ARM GAS  C:\Users\jenny\AppData\Local\Temp\ccnPE0kb.s 			page 14


 730 0004 0200     		.2byte	0x2
 731 0006 00000000 		.4byte	.Ldebug_abbrev0
 732 000a 04       		.byte	0x4
 733 000b 01       		.uleb128 0x1
 734 000c E3010000 		.4byte	.LASF57
 735 0010 01       		.byte	0x1
 736 0011 6B000000 		.4byte	.LASF58
 737 0015 5D010000 		.4byte	.LASF59
 738 0019 00000000 		.4byte	.Ldebug_ranges0+0
 739 001d 00000000 		.4byte	0
 740 0021 00000000 		.4byte	0
 741 0025 00000000 		.4byte	.Ldebug_line0
 742 0029 02       		.uleb128 0x2
 743 002a 04       		.byte	0x4
 744 002b 05       		.byte	0x5
 745 002c 696E7400 		.ascii	"int\000"
 746 0030 03       		.uleb128 0x3
 747 0031 04       		.byte	0x4
 748 0032 07       		.byte	0x7
 749 0033 D6010000 		.4byte	.LASF0
 750 0037 04       		.uleb128 0x4
 751 0038 14000000 		.4byte	.LASF2
 752 003c 02       		.byte	0x2
 753 003d 29       		.byte	0x29
 754 003e 42000000 		.4byte	0x42
 755 0042 03       		.uleb128 0x3
 756 0043 01       		.byte	0x1
 757 0044 06       		.byte	0x6
 758 0045 BB000000 		.4byte	.LASF1
 759 0049 04       		.uleb128 0x4
 760 004a B3000000 		.4byte	.LASF3
 761 004e 02       		.byte	0x2
 762 004f 2A       		.byte	0x2a
 763 0050 54000000 		.4byte	0x54
 764 0054 03       		.uleb128 0x3
 765 0055 01       		.byte	0x1
 766 0056 08       		.byte	0x8
 767 0057 4F010000 		.4byte	.LASF4
 768 005b 03       		.uleb128 0x3
 769 005c 02       		.byte	0x2
 770 005d 05       		.byte	0x5
 771 005e 38000000 		.4byte	.LASF5
 772 0062 04       		.uleb128 0x4
 773 0063 55020000 		.4byte	.LASF6
 774 0067 02       		.byte	0x2
 775 0068 36       		.byte	0x36
 776 0069 6D000000 		.4byte	0x6d
 777 006d 03       		.uleb128 0x3
 778 006e 02       		.byte	0x2
 779 006f 07       		.byte	0x7
 780 0070 37020000 		.4byte	.LASF7
 781 0074 03       		.uleb128 0x3
 782 0075 04       		.byte	0x4
 783 0076 05       		.byte	0x5
 784 0077 10010000 		.4byte	.LASF8
 785 007b 04       		.uleb128 0x4
 786 007c CD010000 		.4byte	.LASF9
ARM GAS  C:\Users\jenny\AppData\Local\Temp\ccnPE0kb.s 			page 15


 787 0080 02       		.byte	0x2
 788 0081 50       		.byte	0x50
 789 0082 86000000 		.4byte	0x86
 790 0086 03       		.uleb128 0x3
 791 0087 04       		.byte	0x4
 792 0088 07       		.byte	0x7
 793 0089 7E020000 		.4byte	.LASF10
 794 008d 03       		.uleb128 0x3
 795 008e 08       		.byte	0x8
 796 008f 05       		.byte	0x5
 797 0090 D7000000 		.4byte	.LASF11
 798 0094 03       		.uleb128 0x3
 799 0095 08       		.byte	0x8
 800 0096 07       		.byte	0x7
 801 0097 B6010000 		.4byte	.LASF12
 802 009b 03       		.uleb128 0x3
 803 009c 01       		.byte	0x1
 804 009d 02       		.byte	0x2
 805 009e 63020000 		.4byte	.LASF13
 806 00a2 05       		.uleb128 0x5
 807 00a3 04       		.byte	0x4
 808 00a4 03       		.uleb128 0x3
 809 00a5 04       		.byte	0x4
 810 00a6 07       		.byte	0x7
 811 00a7 48000000 		.4byte	.LASF14
 812 00ab 06       		.uleb128 0x6
 813 00ac 04       		.byte	0x4
 814 00ad B1000000 		.4byte	0xb1
 815 00b1 07       		.uleb128 0x7
 816 00b2 B6000000 		.4byte	0xb6
 817 00b6 03       		.uleb128 0x3
 818 00b7 01       		.byte	0x1
 819 00b8 08       		.byte	0x8
 820 00b9 50020000 		.4byte	.LASF15
 821 00bd 04       		.uleb128 0x4
 822 00be DC020000 		.4byte	.LASF16
 823 00c2 03       		.byte	0x3
 824 00c3 38       		.byte	0x38
 825 00c4 49000000 		.4byte	0x49
 826 00c8 04       		.uleb128 0x4
 827 00c9 D2000000 		.4byte	.LASF17
 828 00cd 03       		.byte	0x3
 829 00ce 39       		.byte	0x39
 830 00cf 37000000 		.4byte	0x37
 831 00d3 04       		.uleb128 0x4
 832 00d4 B5020000 		.4byte	.LASF18
 833 00d8 03       		.byte	0x3
 834 00d9 3A       		.byte	0x3a
 835 00da 62000000 		.4byte	0x62
 836 00de 04       		.uleb128 0x4
 837 00df A3020000 		.4byte	.LASF19
 838 00e3 03       		.byte	0x3
 839 00e4 3C       		.byte	0x3c
 840 00e5 7B000000 		.4byte	0x7b
 841 00e9 08       		.uleb128 0x8
 842 00ea E6020000 		.4byte	.LASF22
 843 00ee 04       		.byte	0x4
ARM GAS  C:\Users\jenny\AppData\Local\Temp\ccnPE0kb.s 			page 16


 844 00ef 04       		.byte	0x4
 845 00f0 2C       		.byte	0x2c
 846 00f1 04010000 		.4byte	0x104
 847 00f5 09       		.uleb128 0x9
 848 00f6 23010000 		.4byte	.LASF24
 849 00fa 04       		.byte	0x4
 850 00fb 2D       		.byte	0x2d
 851 00fc DE000000 		.4byte	0xde
 852 0100 02       		.byte	0x2
 853 0101 23       		.byte	0x23
 854 0102 00       		.uleb128 0
 855 0103 00       		.byte	0
 856 0104 04       		.uleb128 0x4
 857 0105 19010000 		.4byte	.LASF20
 858 0109 04       		.byte	0x4
 859 010a 40       		.byte	0x40
 860 010b E9000000 		.4byte	0xe9
 861 010f 04       		.uleb128 0x4
 862 0110 4A020000 		.4byte	.LASF21
 863 0114 05       		.byte	0x5
 864 0115 2F       		.byte	0x2f
 865 0116 C8000000 		.4byte	0xc8
 866 011a 08       		.uleb128 0x8
 867 011b 08030000 		.4byte	.LASF23
 868 011f 10       		.byte	0x10
 869 0120 06       		.byte	0x6
 870 0121 4F       		.byte	0x4f
 871 0122 89010000 		.4byte	0x189
 872 0126 09       		.uleb128 0x9
 873 0127 03030000 		.4byte	.LASF25
 874 012b 06       		.byte	0x6
 875 012c 51       		.byte	0x51
 876 012d 89010000 		.4byte	0x189
 877 0131 02       		.byte	0x2
 878 0132 23       		.byte	0x23
 879 0133 00       		.uleb128 0
 880 0134 09       		.uleb128 0x9
 881 0135 FB020000 		.4byte	.LASF26
 882 0139 06       		.byte	0x6
 883 013a 54       		.byte	0x54
 884 013b A2000000 		.4byte	0xa2
 885 013f 02       		.byte	0x2
 886 0140 23       		.byte	0x23
 887 0141 04       		.uleb128 0x4
 888 0142 09       		.uleb128 0x9
 889 0143 51000000 		.4byte	.LASF27
 890 0147 06       		.byte	0x6
 891 0148 5D       		.byte	0x5d
 892 0149 D3000000 		.4byte	0xd3
 893 014d 02       		.byte	0x2
 894 014e 23       		.byte	0x23
 895 014f 08       		.uleb128 0x8
 896 0150 0A       		.uleb128 0xa
 897 0151 6C656E00 		.ascii	"len\000"
 898 0155 06       		.byte	0x6
 899 0156 60       		.byte	0x60
 900 0157 D3000000 		.4byte	0xd3
ARM GAS  C:\Users\jenny\AppData\Local\Temp\ccnPE0kb.s 			page 17


 901 015b 02       		.byte	0x2
 902 015c 23       		.byte	0x23
 903 015d 0A       		.uleb128 0xa
 904 015e 09       		.uleb128 0x9
 905 015f 5E020000 		.4byte	.LASF28
 906 0163 06       		.byte	0x6
 907 0164 63       		.byte	0x63
 908 0165 BD000000 		.4byte	0xbd
 909 0169 02       		.byte	0x2
 910 016a 23       		.byte	0x23
 911 016b 0C       		.uleb128 0xc
 912 016c 09       		.uleb128 0x9
 913 016d B0010000 		.4byte	.LASF29
 914 0171 06       		.byte	0x6
 915 0172 66       		.byte	0x66
 916 0173 BD000000 		.4byte	0xbd
 917 0177 02       		.byte	0x2
 918 0178 23       		.byte	0x23
 919 0179 0D       		.uleb128 0xd
 920 017a 0A       		.uleb128 0xa
 921 017b 72656600 		.ascii	"ref\000"
 922 017f 06       		.byte	0x6
 923 0180 6D       		.byte	0x6d
 924 0181 D3000000 		.4byte	0xd3
 925 0185 02       		.byte	0x2
 926 0186 23       		.byte	0x23
 927 0187 0E       		.uleb128 0xe
 928 0188 00       		.byte	0
 929 0189 06       		.uleb128 0x6
 930 018a 04       		.byte	0x4
 931 018b 1A010000 		.4byte	0x11a
 932 018f 06       		.uleb128 0x6
 933 0190 04       		.byte	0x4
 934 0191 95010000 		.4byte	0x195
 935 0195 08       		.uleb128 0x8
 936 0196 90020000 		.4byte	.LASF30
 937 019a 30       		.byte	0x30
 938 019b 07       		.byte	0x7
 939 019c 88       		.byte	0x88
 940 019d 65020000 		.4byte	0x265
 941 01a1 09       		.uleb128 0x9
 942 01a2 03030000 		.4byte	.LASF25
 943 01a6 07       		.byte	0x7
 944 01a7 8A       		.byte	0x8a
 945 01a8 8F010000 		.4byte	0x18f
 946 01ac 02       		.byte	0x2
 947 01ad 23       		.byte	0x23
 948 01ae 00       		.uleb128 0
 949 01af 09       		.uleb128 0x9
 950 01b0 E6020000 		.4byte	.LASF22
 951 01b4 07       		.byte	0x7
 952 01b5 8D       		.byte	0x8d
 953 01b6 04010000 		.4byte	0x104
 954 01ba 02       		.byte	0x2
 955 01bb 23       		.byte	0x23
 956 01bc 04       		.uleb128 0x4
 957 01bd 09       		.uleb128 0x9
ARM GAS  C:\Users\jenny\AppData\Local\Temp\ccnPE0kb.s 			page 18


 958 01be 9B020000 		.4byte	.LASF31
 959 01c2 07       		.byte	0x7
 960 01c3 8E       		.byte	0x8e
 961 01c4 04010000 		.4byte	0x104
 962 01c8 02       		.byte	0x2
 963 01c9 23       		.byte	0x23
 964 01ca 08       		.uleb128 0x8
 965 01cb 0A       		.uleb128 0xa
 966 01cc 677700   		.ascii	"gw\000"
 967 01cf 07       		.byte	0x7
 968 01d0 8F       		.byte	0x8f
 969 01d1 04010000 		.4byte	0x104
 970 01d5 02       		.byte	0x2
 971 01d6 23       		.byte	0x23
 972 01d7 0C       		.uleb128 0xc
 973 01d8 09       		.uleb128 0x9
 974 01d9 42000000 		.4byte	.LASF32
 975 01dd 07       		.byte	0x7
 976 01de 93       		.byte	0x93
 977 01df 65020000 		.4byte	0x265
 978 01e3 02       		.byte	0x2
 979 01e4 23       		.byte	0x23
 980 01e5 10       		.uleb128 0x10
 981 01e6 09       		.uleb128 0x9
 982 01e7 C9020000 		.4byte	.LASF33
 983 01eb 07       		.byte	0x7
 984 01ec 97       		.byte	0x97
 985 01ed 8B020000 		.4byte	0x28b
 986 01f1 02       		.byte	0x2
 987 01f2 23       		.byte	0x23
 988 01f3 14       		.uleb128 0x14
 989 01f4 09       		.uleb128 0x9
 990 01f5 C7000000 		.4byte	.LASF34
 991 01f9 07       		.byte	0x7
 992 01fa 9B       		.byte	0x9b
 993 01fb BC020000 		.4byte	0x2bc
 994 01ff 02       		.byte	0x2
 995 0200 23       		.byte	0x23
 996 0201 18       		.uleb128 0x18
 997 0202 09       		.uleb128 0x9
 998 0203 1B000000 		.4byte	.LASF35
 999 0207 07       		.byte	0x7
 1000 0208 AC       		.byte	0xac
 1001 0209 A2000000 		.4byte	0xa2
 1002 020d 02       		.byte	0x2
 1003 020e 23       		.byte	0x23
 1004 020f 1C       		.uleb128 0x1c
 1005 0210 0A       		.uleb128 0xa
 1006 0211 6D747500 		.ascii	"mtu\000"
 1007 0215 07       		.byte	0x7
 1008 0216 BA       		.byte	0xba
 1009 0217 D3000000 		.4byte	0xd3
 1010 021b 02       		.byte	0x2
 1011 021c 23       		.byte	0x23
 1012 021d 20       		.uleb128 0x20
 1013 021e 09       		.uleb128 0x9
 1014 021f 9C000000 		.4byte	.LASF36
ARM GAS  C:\Users\jenny\AppData\Local\Temp\ccnPE0kb.s 			page 19


 1015 0223 07       		.byte	0x7
 1016 0224 BC       		.byte	0xbc
 1017 0225 BD000000 		.4byte	0xbd
 1018 0229 02       		.byte	0x2
 1019 022a 23       		.byte	0x23
 1020 022b 22       		.uleb128 0x22
 1021 022c 09       		.uleb128 0x9
 1022 022d 0D000000 		.4byte	.LASF37
 1023 0231 07       		.byte	0x7
 1024 0232 BE       		.byte	0xbe
 1025 0233 E2020000 		.4byte	0x2e2
 1026 0237 02       		.byte	0x2
 1027 0238 23       		.byte	0x23
 1028 0239 23       		.uleb128 0x23
 1029 023a 09       		.uleb128 0x9
 1030 023b B0010000 		.4byte	.LASF29
 1031 023f 07       		.byte	0x7
 1032 0240 C0       		.byte	0xc0
 1033 0241 BD000000 		.4byte	0xbd
 1034 0245 02       		.byte	0x2
 1035 0246 23       		.byte	0x23
 1036 0247 29       		.uleb128 0x29
 1037 0248 09       		.uleb128 0x9
 1038 0249 2F010000 		.4byte	.LASF38
 1039 024d 07       		.byte	0x7
 1040 024e C2       		.byte	0xc2
 1041 024f F2020000 		.4byte	0x2f2
 1042 0253 02       		.byte	0x2
 1043 0254 23       		.byte	0x23
 1044 0255 2A       		.uleb128 0x2a
 1045 0256 0A       		.uleb128 0xa
 1046 0257 6E756D00 		.ascii	"num\000"
 1047 025b 07       		.byte	0x7
 1048 025c C4       		.byte	0xc4
 1049 025d BD000000 		.4byte	0xbd
 1050 0261 02       		.byte	0x2
 1051 0262 23       		.byte	0x23
 1052 0263 2C       		.uleb128 0x2c
 1053 0264 00       		.byte	0
 1054 0265 04       		.uleb128 0x4
 1055 0266 40010000 		.4byte	.LASF39
 1056 026a 07       		.byte	0x7
 1057 026b 6D       		.byte	0x6d
 1058 026c 70020000 		.4byte	0x270
 1059 0270 06       		.uleb128 0x6
 1060 0271 04       		.byte	0x4
 1061 0272 76020000 		.4byte	0x276
 1062 0276 0B       		.uleb128 0xb
 1063 0277 01       		.byte	0x1
 1064 0278 0F010000 		.4byte	0x10f
 1065 027c 8B020000 		.4byte	0x28b
 1066 0280 0C       		.uleb128 0xc
 1067 0281 89010000 		.4byte	0x189
 1068 0285 0C       		.uleb128 0xc
 1069 0286 8F010000 		.4byte	0x18f
 1070 028a 00       		.byte	0
 1071 028b 04       		.uleb128 0x4
ARM GAS  C:\Users\jenny\AppData\Local\Temp\ccnPE0kb.s 			page 20


 1072 028c 21000000 		.4byte	.LASF40
 1073 0290 07       		.byte	0x7
 1074 0291 76       		.byte	0x76
 1075 0292 96020000 		.4byte	0x296
 1076 0296 06       		.uleb128 0x6
 1077 0297 04       		.byte	0x4
 1078 0298 9C020000 		.4byte	0x29c
 1079 029c 0B       		.uleb128 0xb
 1080 029d 01       		.byte	0x1
 1081 029e 0F010000 		.4byte	0x10f
 1082 02a2 B6020000 		.4byte	0x2b6
 1083 02a6 0C       		.uleb128 0xc
 1084 02a7 8F010000 		.4byte	0x18f
 1085 02ab 0C       		.uleb128 0xc
 1086 02ac 89010000 		.4byte	0x189
 1087 02b0 0C       		.uleb128 0xc
 1088 02b1 B6020000 		.4byte	0x2b6
 1089 02b5 00       		.byte	0
 1090 02b6 06       		.uleb128 0x6
 1091 02b7 04       		.byte	0x4
 1092 02b8 04010000 		.4byte	0x104
 1093 02bc 04       		.uleb128 0x4
 1094 02bd E5000000 		.4byte	.LASF41
 1095 02c1 07       		.byte	0x7
 1096 02c2 7E       		.byte	0x7e
 1097 02c3 C7020000 		.4byte	0x2c7
 1098 02c7 06       		.uleb128 0x6
 1099 02c8 04       		.byte	0x4
 1100 02c9 CD020000 		.4byte	0x2cd
 1101 02cd 0B       		.uleb128 0xb
 1102 02ce 01       		.byte	0x1
 1103 02cf 0F010000 		.4byte	0x10f
 1104 02d3 E2020000 		.4byte	0x2e2
 1105 02d7 0C       		.uleb128 0xc
 1106 02d8 8F010000 		.4byte	0x18f
 1107 02dc 0C       		.uleb128 0xc
 1108 02dd 89010000 		.4byte	0x189
 1109 02e1 00       		.byte	0
 1110 02e2 0D       		.uleb128 0xd
 1111 02e3 BD000000 		.4byte	0xbd
 1112 02e7 F2020000 		.4byte	0x2f2
 1113 02eb 0E       		.uleb128 0xe
 1114 02ec A4000000 		.4byte	0xa4
 1115 02f0 05       		.byte	0x5
 1116 02f1 00       		.byte	0
 1117 02f2 0D       		.uleb128 0xd
 1118 02f3 B6000000 		.4byte	0xb6
 1119 02f7 02030000 		.4byte	0x302
 1120 02fb 0E       		.uleb128 0xe
 1121 02fc A4000000 		.4byte	0xa4
 1122 0300 01       		.byte	0x1
 1123 0301 00       		.byte	0
 1124 0302 0F       		.uleb128 0xf
 1125 0303 01       		.byte	0x1
 1126 0304 69020000 		.4byte	.LASF42
 1127 0308 01       		.byte	0x1
 1128 0309 37       		.byte	0x37
ARM GAS  C:\Users\jenny\AppData\Local\Temp\ccnPE0kb.s 			page 21


 1129 030a 01       		.byte	0x1
 1130 030b BD000000 		.4byte	0xbd
 1131 030f 00000000 		.4byte	.LFB7
 1132 0313 32000000 		.4byte	.LFE7
 1133 0317 02       		.byte	0x2
 1134 0318 7D       		.byte	0x7d
 1135 0319 00       		.sleb128 0
 1136 031a 01       		.byte	0x1
 1137 031b 4D030000 		.4byte	0x34d
 1138 031f 10       		.uleb128 0x10
 1139 0320 23010000 		.4byte	.LASF24
 1140 0324 01       		.byte	0x1
 1141 0325 37       		.byte	0x37
 1142 0326 DE000000 		.4byte	0xde
 1143 032a 00000000 		.4byte	.LLST0
 1144 032e 10       		.uleb128 0x10
 1145 032f 90020000 		.4byte	.LASF30
 1146 0333 01       		.byte	0x1
 1147 0334 37       		.byte	0x37
 1148 0335 4D030000 		.4byte	0x34d
 1149 0339 21000000 		.4byte	.LLST1
 1150 033d 11       		.uleb128 0x11
 1151 033e 31000000 		.4byte	.LASF44
 1152 0342 01       		.byte	0x1
 1153 0343 39       		.byte	0x39
 1154 0344 04010000 		.4byte	0x104
 1155 0348 42000000 		.4byte	.LLST2
 1156 034c 00       		.byte	0
 1157 034d 06       		.uleb128 0x6
 1158 034e 04       		.byte	0x4
 1159 034f 53030000 		.4byte	0x353
 1160 0353 07       		.uleb128 0x7
 1161 0354 95010000 		.4byte	0x195
 1162 0358 12       		.uleb128 0x12
 1163 0359 01       		.byte	0x1
 1164 035a F9000000 		.4byte	.LASF43
 1165 035e 01       		.byte	0x1
 1166 035f 5A       		.byte	0x5a
 1167 0360 01       		.byte	0x1
 1168 0361 BD000000 		.4byte	0xbd
 1169 0365 00000000 		.4byte	.LFB8
 1170 0369 36000000 		.4byte	.LFE8
 1171 036d 67000000 		.4byte	.LLST3
 1172 0371 01       		.byte	0x1
 1173 0372 B5030000 		.4byte	0x3b5
 1174 0376 10       		.uleb128 0x10
 1175 0377 9B020000 		.4byte	.LASF31
 1176 037b 01       		.byte	0x1
 1177 037c 5A       		.byte	0x5a
 1178 037d DE000000 		.4byte	0xde
 1179 0381 87000000 		.4byte	.LLST4
 1180 0385 11       		.uleb128 0x11
 1181 0386 96020000 		.4byte	.LASF45
 1182 038a 01       		.byte	0x1
 1183 038b 5C       		.byte	0x5c
 1184 038c DE000000 		.4byte	0xde
 1185 0390 A8000000 		.4byte	.LLST5
ARM GAS  C:\Users\jenny\AppData\Local\Temp\ccnPE0kb.s 			page 22


 1186 0394 11       		.uleb128 0x11
 1187 0395 EE020000 		.4byte	.LASF46
 1188 0399 01       		.byte	0x1
 1189 039a 5D       		.byte	0x5d
 1190 039b DE000000 		.4byte	0xde
 1191 039f EF000000 		.4byte	.LLST6
 1192 03a3 13       		.uleb128 0x13
 1193 03a4 06000000 		.4byte	.LVL4
 1194 03a8 3F060000 		.4byte	0x63f
 1195 03ac 14       		.uleb128 0x14
 1196 03ad 01       		.byte	0x1
 1197 03ae 50       		.byte	0x50
 1198 03af 03       		.byte	0x3
 1199 03b0 F3       		.byte	0xf3
 1200 03b1 01       		.uleb128 0x1
 1201 03b2 50       		.byte	0x50
 1202 03b3 00       		.byte	0
 1203 03b4 00       		.byte	0
 1204 03b5 12       		.uleb128 0x12
 1205 03b6 01       		.byte	0x1
 1206 03b7 D0020000 		.4byte	.LASF47
 1207 03bb 01       		.byte	0x1
 1208 03bc 98       		.byte	0x98
 1209 03bd 01       		.byte	0x1
 1210 03be 29000000 		.4byte	0x29
 1211 03c2 00000000 		.4byte	.LFB10
 1212 03c6 46010000 		.4byte	.LFE10
 1213 03ca 0D010000 		.4byte	.LLST7
 1214 03ce 01       		.byte	0x1
 1215 03cf 55040000 		.4byte	0x455
 1216 03d3 15       		.uleb128 0x15
 1217 03d4 637000   		.ascii	"cp\000"
 1218 03d7 01       		.byte	0x1
 1219 03d8 98       		.byte	0x98
 1220 03d9 AB000000 		.4byte	0xab
 1221 03dd 39010000 		.4byte	.LLST8
 1222 03e1 10       		.uleb128 0x10
 1223 03e2 23010000 		.4byte	.LASF24
 1224 03e6 01       		.byte	0x1
 1225 03e7 98       		.byte	0x98
 1226 03e8 B6020000 		.4byte	0x2b6
 1227 03ec 9D010000 		.4byte	.LLST9
 1228 03f0 16       		.uleb128 0x16
 1229 03f1 76616C00 		.ascii	"val\000"
 1230 03f5 01       		.byte	0x1
 1231 03f6 9A       		.byte	0x9a
 1232 03f7 DE000000 		.4byte	0xde
 1233 03fb BB010000 		.4byte	.LLST10
 1234 03ff 11       		.uleb128 0x11
 1235 0400 E1020000 		.4byte	.LASF48
 1236 0404 01       		.byte	0x1
 1237 0405 9B       		.byte	0x9b
 1238 0406 BD000000 		.4byte	0xbd
 1239 040a 12020000 		.4byte	.LLST11
 1240 040e 16       		.uleb128 0x16
 1241 040f 6300     		.ascii	"c\000"
 1242 0411 01       		.byte	0x1
ARM GAS  C:\Users\jenny\AppData\Local\Temp\ccnPE0kb.s 			page 23


 1243 0412 9C       		.byte	0x9c
 1244 0413 B6000000 		.4byte	0xb6
 1245 0417 3E020000 		.4byte	.LLST12
 1246 041b 17       		.uleb128 0x17
 1247 041c 00000000 		.4byte	.LASF49
 1248 0420 01       		.byte	0x1
 1249 0421 9D       		.byte	0x9d
 1250 0422 55040000 		.4byte	0x455
 1251 0426 02       		.byte	0x2
 1252 0427 91       		.byte	0x91
 1253 0428 58       		.sleb128 -40
 1254 0429 16       		.uleb128 0x16
 1255 042a 707000   		.ascii	"pp\000"
 1256 042d 01       		.byte	0x1
 1257 042e 9E       		.byte	0x9e
 1258 042f 65040000 		.4byte	0x465
 1259 0433 EA020000 		.4byte	.LLST13
 1260 0437 18       		.uleb128 0x18
 1261 0438 08010000 		.4byte	.LVL48
 1262 043c 3F060000 		.4byte	0x63f
 1263 0440 4B040000 		.4byte	0x44b
 1264 0444 14       		.uleb128 0x14
 1265 0445 01       		.byte	0x1
 1266 0446 50       		.byte	0x50
 1267 0447 02       		.byte	0x2
 1268 0448 75       		.byte	0x75
 1269 0449 00       		.sleb128 0
 1270 044a 00       		.byte	0
 1271 044b 19       		.uleb128 0x19
 1272 044c 40010000 		.4byte	.LVL51
 1273 0450 57060000 		.4byte	0x657
 1274 0454 00       		.byte	0
 1275 0455 0D       		.uleb128 0xd
 1276 0456 DE000000 		.4byte	0xde
 1277 045a 65040000 		.4byte	0x465
 1278 045e 0E       		.uleb128 0xe
 1279 045f A4000000 		.4byte	0xa4
 1280 0463 03       		.byte	0x3
 1281 0464 00       		.byte	0
 1282 0465 06       		.uleb128 0x6
 1283 0466 04       		.byte	0x4
 1284 0467 DE000000 		.4byte	0xde
 1285 046b 12       		.uleb128 0x12
 1286 046c 01       		.byte	0x1
 1287 046d A9020000 		.4byte	.LASF50
 1288 0471 01       		.byte	0x1
 1289 0472 82       		.byte	0x82
 1290 0473 01       		.byte	0x1
 1291 0474 DE000000 		.4byte	0xde
 1292 0478 00000000 		.4byte	.LFB9
 1293 047c 18000000 		.4byte	.LFE9
 1294 0480 13030000 		.4byte	.LLST14
 1295 0484 01       		.byte	0x1
 1296 0485 BD040000 		.4byte	0x4bd
 1297 0489 15       		.uleb128 0x15
 1298 048a 637000   		.ascii	"cp\000"
 1299 048d 01       		.byte	0x1
ARM GAS  C:\Users\jenny\AppData\Local\Temp\ccnPE0kb.s 			page 24


 1300 048e 82       		.byte	0x82
 1301 048f AB000000 		.4byte	0xab
 1302 0493 3F030000 		.4byte	.LLST15
 1303 0497 1A       		.uleb128 0x1a
 1304 0498 76616C00 		.ascii	"val\000"
 1305 049c 01       		.byte	0x1
 1306 049d 84       		.byte	0x84
 1307 049e 04010000 		.4byte	0x104
 1308 04a2 02       		.byte	0x2
 1309 04a3 91       		.byte	0x91
 1310 04a4 74       		.sleb128 -12
 1311 04a5 13       		.uleb128 0x13
 1312 04a6 0A000000 		.4byte	.LVL53
 1313 04aa B5030000 		.4byte	0x3b5
 1314 04ae 14       		.uleb128 0x14
 1315 04af 01       		.byte	0x1
 1316 04b0 51       		.byte	0x51
 1317 04b1 02       		.byte	0x2
 1318 04b2 91       		.byte	0x91
 1319 04b3 74       		.sleb128 -12
 1320 04b4 14       		.uleb128 0x14
 1321 04b5 01       		.byte	0x1
 1322 04b6 50       		.byte	0x50
 1323 04b7 03       		.byte	0x3
 1324 04b8 F3       		.byte	0xf3
 1325 04b9 01       		.uleb128 0x1
 1326 04ba 50       		.byte	0x50
 1327 04bb 00       		.byte	0
 1328 04bc 00       		.byte	0
 1329 04bd 1B       		.uleb128 0x1b
 1330 04be 01       		.byte	0x1
 1331 04bf BB020000 		.4byte	.LASF51
 1332 04c3 01       		.byte	0x1
 1333 04c4 1401     		.2byte	0x114
 1334 04c6 01       		.byte	0x1
 1335 04c7 83050000 		.4byte	0x583
 1336 04cb 00000000 		.4byte	.LFB12
 1337 04cf 08010000 		.4byte	.LFE12
 1338 04d3 60030000 		.4byte	.LLST16
 1339 04d7 01       		.byte	0x1
 1340 04d8 83050000 		.4byte	0x583
 1341 04dc 1C       		.uleb128 0x1c
 1342 04dd 23010000 		.4byte	.LASF24
 1343 04e1 01       		.byte	0x1
 1344 04e2 1401     		.2byte	0x114
 1345 04e4 89050000 		.4byte	0x589
 1346 04e8 8C030000 		.4byte	.LLST17
 1347 04ec 1D       		.uleb128 0x1d
 1348 04ed 62756600 		.ascii	"buf\000"
 1349 04f1 01       		.byte	0x1
 1350 04f2 1401     		.2byte	0x114
 1351 04f4 83050000 		.4byte	0x583
 1352 04f8 AD030000 		.4byte	.LLST18
 1353 04fc 1E       		.uleb128 0x1e
 1354 04fd 06000000 		.4byte	.LASF52
 1355 0501 01       		.byte	0x1
 1356 0502 1401     		.2byte	0x114
ARM GAS  C:\Users\jenny\AppData\Local\Temp\ccnPE0kb.s 			page 25


 1357 0504 29000000 		.4byte	0x29
 1358 0508 01       		.byte	0x1
 1359 0509 52       		.byte	0x52
 1360 050a 1F       		.uleb128 0x1f
 1361 050b 28010000 		.4byte	.LASF53
 1362 050f 01       		.byte	0x1
 1363 0510 1601     		.2byte	0x116
 1364 0512 DE000000 		.4byte	0xde
 1365 0516 02       		.byte	0x2
 1366 0517 91       		.byte	0x91
 1367 0518 5C       		.sleb128 -36
 1368 0519 20       		.uleb128 0x20
 1369 051a 696E7600 		.ascii	"inv\000"
 1370 051e 01       		.byte	0x1
 1371 051f 1701     		.2byte	0x117
 1372 0521 94050000 		.4byte	0x594
 1373 0525 02       		.byte	0x2
 1374 0526 91       		.byte	0x91
 1375 0527 58       		.sleb128 -40
 1376 0528 21       		.uleb128 0x21
 1377 0529 727000   		.ascii	"rp\000"
 1378 052c 01       		.byte	0x1
 1379 052d 1801     		.2byte	0x118
 1380 052f 83050000 		.4byte	0x583
 1381 0533 D9030000 		.4byte	.LLST19
 1382 0537 21       		.uleb128 0x21
 1383 0538 617000   		.ascii	"ap\000"
 1384 053b 01       		.byte	0x1
 1385 053c 1901     		.2byte	0x119
 1386 053e A4050000 		.4byte	0x5a4
 1387 0542 57040000 		.4byte	.LLST20
 1388 0546 21       		.uleb128 0x21
 1389 0547 72656D00 		.ascii	"rem\000"
 1390 054b 01       		.byte	0x1
 1391 054c 1A01     		.2byte	0x11a
 1392 054e BD000000 		.4byte	0xbd
 1393 0552 6C040000 		.4byte	.LLST21
 1394 0556 21       		.uleb128 0x21
 1395 0557 6E00     		.ascii	"n\000"
 1396 0559 01       		.byte	0x1
 1397 055a 1B01     		.2byte	0x11b
 1398 055c BD000000 		.4byte	0xbd
 1399 0560 8C040000 		.4byte	.LLST22
 1400 0564 21       		.uleb128 0x21
 1401 0565 6900     		.ascii	"i\000"
 1402 0567 01       		.byte	0x1
 1403 0568 1C01     		.2byte	0x11c
 1404 056a BD000000 		.4byte	0xbd
 1405 056e A0040000 		.4byte	.LLST23
 1406 0572 21       		.uleb128 0x21
 1407 0573 6C656E00 		.ascii	"len\000"
 1408 0577 01       		.byte	0x1
 1409 0578 1D01     		.2byte	0x11d
 1410 057a 29000000 		.4byte	0x29
 1411 057e 29050000 		.4byte	.LLST24
 1412 0582 00       		.byte	0
 1413 0583 06       		.uleb128 0x6
ARM GAS  C:\Users\jenny\AppData\Local\Temp\ccnPE0kb.s 			page 26


 1414 0584 04       		.byte	0x4
 1415 0585 B6000000 		.4byte	0xb6
 1416 0589 06       		.uleb128 0x6
 1417 058a 04       		.byte	0x4
 1418 058b 8F050000 		.4byte	0x58f
 1419 058f 07       		.uleb128 0x7
 1420 0590 04010000 		.4byte	0x104
 1421 0594 0D       		.uleb128 0xd
 1422 0595 B6000000 		.4byte	0xb6
 1423 0599 A4050000 		.4byte	0x5a4
 1424 059d 0E       		.uleb128 0xe
 1425 059e A4000000 		.4byte	0xa4
 1426 05a2 02       		.byte	0x2
 1427 05a3 00       		.byte	0
 1428 05a4 06       		.uleb128 0x6
 1429 05a5 04       		.byte	0x4
 1430 05a6 BD000000 		.4byte	0xbd
 1431 05aa 22       		.uleb128 0x22
 1432 05ab 01       		.byte	0x1
 1433 05ac A7000000 		.4byte	.LASF54
 1434 05b0 01       		.byte	0x1
 1435 05b1 0501     		.2byte	0x105
 1436 05b3 01       		.byte	0x1
 1437 05b4 83050000 		.4byte	0x583
 1438 05b8 00000000 		.4byte	.LFB11
 1439 05bc 0E000000 		.4byte	.LFE11
 1440 05c0 02       		.byte	0x2
 1441 05c1 7D       		.byte	0x7d
 1442 05c2 00       		.sleb128 0
 1443 05c3 01       		.byte	0x1
 1444 05c4 0B060000 		.4byte	0x60b
 1445 05c8 1C       		.uleb128 0x1c
 1446 05c9 23010000 		.4byte	.LASF24
 1447 05cd 01       		.byte	0x1
 1448 05ce 0501     		.2byte	0x105
 1449 05d0 89050000 		.4byte	0x589
 1450 05d4 74050000 		.4byte	.LLST25
 1451 05d8 20       		.uleb128 0x20
 1452 05d9 73747200 		.ascii	"str\000"
 1453 05dd 01       		.byte	0x1
 1454 05de 0701     		.2byte	0x107
 1455 05e0 0B060000 		.4byte	0x60b
 1456 05e4 05       		.byte	0x5
 1457 05e5 03       		.byte	0x3
 1458 05e6 00000000 		.4byte	str.5050
 1459 05ea 23       		.uleb128 0x23
 1460 05eb 0E000000 		.4byte	.LVL89
 1461 05ef 01       		.byte	0x1
 1462 05f0 BD040000 		.4byte	0x4bd
 1463 05f4 14       		.uleb128 0x14
 1464 05f5 01       		.byte	0x1
 1465 05f6 52       		.byte	0x52
 1466 05f7 01       		.byte	0x1
 1467 05f8 40       		.byte	0x40
 1468 05f9 14       		.uleb128 0x14
 1469 05fa 01       		.byte	0x1
 1470 05fb 51       		.byte	0x51
ARM GAS  C:\Users\jenny\AppData\Local\Temp\ccnPE0kb.s 			page 27


 1471 05fc 05       		.byte	0x5
 1472 05fd 03       		.byte	0x3
 1473 05fe 00000000 		.4byte	.LANCHOR0
 1474 0602 14       		.uleb128 0x14
 1475 0603 01       		.byte	0x1
 1476 0604 50       		.byte	0x50
 1477 0605 03       		.byte	0x3
 1478 0606 F3       		.byte	0xf3
 1479 0607 01       		.uleb128 0x1
 1480 0608 50       		.byte	0x50
 1481 0609 00       		.byte	0
 1482 060a 00       		.byte	0
 1483 060b 0D       		.uleb128 0xd
 1484 060c B6000000 		.4byte	0xb6
 1485 0610 1B060000 		.4byte	0x61b
 1486 0614 0E       		.uleb128 0xe
 1487 0615 A4000000 		.4byte	0xa4
 1488 0619 0F       		.byte	0xf
 1489 061a 00       		.byte	0
 1490 061b 24       		.uleb128 0x24
 1491 061c 34010000 		.4byte	.LASF55
 1492 0620 01       		.byte	0x1
 1493 0621 2C       		.byte	0x2c
 1494 0622 8F050000 		.4byte	0x58f
 1495 0626 01       		.byte	0x1
 1496 0627 05       		.byte	0x5
 1497 0628 03       		.byte	0x3
 1498 0629 00000000 		.4byte	ip_addr_any
 1499 062d 24       		.uleb128 0x24
 1500 062e 59000000 		.4byte	.LASF56
 1501 0632 01       		.byte	0x1
 1502 0633 2D       		.byte	0x2d
 1503 0634 8F050000 		.4byte	0x58f
 1504 0638 01       		.byte	0x1
 1505 0639 05       		.byte	0x5
 1506 063a 03       		.byte	0x3
 1507 063b 00000000 		.4byte	ip_addr_broadcast
 1508 063f 25       		.uleb128 0x25
 1509 0640 01       		.byte	0x1
 1510 0641 2C020000 		.4byte	.LASF60
 1511 0645 08       		.byte	0x8
 1512 0646 65       		.byte	0x65
 1513 0647 01       		.byte	0x1
 1514 0648 DE000000 		.4byte	0xde
 1515 064c 01       		.byte	0x1
 1516 064d 57060000 		.4byte	0x657
 1517 0651 0C       		.uleb128 0xc
 1518 0652 DE000000 		.4byte	0xde
 1519 0656 00       		.byte	0
 1520 0657 26       		.uleb128 0x26
 1521 0658 01       		.byte	0x1
 1522 0659 92000000 		.4byte	.LASF61
 1523 065d 09       		.byte	0x9
 1524 065e 0102     		.2byte	0x201
 1525 0660 01       		.byte	0x1
 1526 0661 01       		.byte	0x1
 1527 0662 00       		.byte	0
ARM GAS  C:\Users\jenny\AppData\Local\Temp\ccnPE0kb.s 			page 28


 1528              		.section	.debug_abbrev,"",%progbits
 1529              	.Ldebug_abbrev0:
 1530 0000 01       		.uleb128 0x1
 1531 0001 11       		.uleb128 0x11
 1532 0002 01       		.byte	0x1
 1533 0003 25       		.uleb128 0x25
 1534 0004 0E       		.uleb128 0xe
 1535 0005 13       		.uleb128 0x13
 1536 0006 0B       		.uleb128 0xb
 1537 0007 03       		.uleb128 0x3
 1538 0008 0E       		.uleb128 0xe
 1539 0009 1B       		.uleb128 0x1b
 1540 000a 0E       		.uleb128 0xe
 1541 000b 55       		.uleb128 0x55
 1542 000c 06       		.uleb128 0x6
 1543 000d 11       		.uleb128 0x11
 1544 000e 01       		.uleb128 0x1
 1545 000f 52       		.uleb128 0x52
 1546 0010 01       		.uleb128 0x1
 1547 0011 10       		.uleb128 0x10
 1548 0012 06       		.uleb128 0x6
 1549 0013 00       		.byte	0
 1550 0014 00       		.byte	0
 1551 0015 02       		.uleb128 0x2
 1552 0016 24       		.uleb128 0x24
 1553 0017 00       		.byte	0
 1554 0018 0B       		.uleb128 0xb
 1555 0019 0B       		.uleb128 0xb
 1556 001a 3E       		.uleb128 0x3e
 1557 001b 0B       		.uleb128 0xb
 1558 001c 03       		.uleb128 0x3
 1559 001d 08       		.uleb128 0x8
 1560 001e 00       		.byte	0
 1561 001f 00       		.byte	0
 1562 0020 03       		.uleb128 0x3
 1563 0021 24       		.uleb128 0x24
 1564 0022 00       		.byte	0
 1565 0023 0B       		.uleb128 0xb
 1566 0024 0B       		.uleb128 0xb
 1567 0025 3E       		.uleb128 0x3e
 1568 0026 0B       		.uleb128 0xb
 1569 0027 03       		.uleb128 0x3
 1570 0028 0E       		.uleb128 0xe
 1571 0029 00       		.byte	0
 1572 002a 00       		.byte	0
 1573 002b 04       		.uleb128 0x4
 1574 002c 16       		.uleb128 0x16
 1575 002d 00       		.byte	0
 1576 002e 03       		.uleb128 0x3
 1577 002f 0E       		.uleb128 0xe
 1578 0030 3A       		.uleb128 0x3a
 1579 0031 0B       		.uleb128 0xb
 1580 0032 3B       		.uleb128 0x3b
 1581 0033 0B       		.uleb128 0xb
 1582 0034 49       		.uleb128 0x49
 1583 0035 13       		.uleb128 0x13
 1584 0036 00       		.byte	0
ARM GAS  C:\Users\jenny\AppData\Local\Temp\ccnPE0kb.s 			page 29


 1585 0037 00       		.byte	0
 1586 0038 05       		.uleb128 0x5
 1587 0039 0F       		.uleb128 0xf
 1588 003a 00       		.byte	0
 1589 003b 0B       		.uleb128 0xb
 1590 003c 0B       		.uleb128 0xb
 1591 003d 00       		.byte	0
 1592 003e 00       		.byte	0
 1593 003f 06       		.uleb128 0x6
 1594 0040 0F       		.uleb128 0xf
 1595 0041 00       		.byte	0
 1596 0042 0B       		.uleb128 0xb
 1597 0043 0B       		.uleb128 0xb
 1598 0044 49       		.uleb128 0x49
 1599 0045 13       		.uleb128 0x13
 1600 0046 00       		.byte	0
 1601 0047 00       		.byte	0
 1602 0048 07       		.uleb128 0x7
 1603 0049 26       		.uleb128 0x26
 1604 004a 00       		.byte	0
 1605 004b 49       		.uleb128 0x49
 1606 004c 13       		.uleb128 0x13
 1607 004d 00       		.byte	0
 1608 004e 00       		.byte	0
 1609 004f 08       		.uleb128 0x8
 1610 0050 13       		.uleb128 0x13
 1611 0051 01       		.byte	0x1
 1612 0052 03       		.uleb128 0x3
 1613 0053 0E       		.uleb128 0xe
 1614 0054 0B       		.uleb128 0xb
 1615 0055 0B       		.uleb128 0xb
 1616 0056 3A       		.uleb128 0x3a
 1617 0057 0B       		.uleb128 0xb
 1618 0058 3B       		.uleb128 0x3b
 1619 0059 0B       		.uleb128 0xb
 1620 005a 01       		.uleb128 0x1
 1621 005b 13       		.uleb128 0x13
 1622 005c 00       		.byte	0
 1623 005d 00       		.byte	0
 1624 005e 09       		.uleb128 0x9
 1625 005f 0D       		.uleb128 0xd
 1626 0060 00       		.byte	0
 1627 0061 03       		.uleb128 0x3
 1628 0062 0E       		.uleb128 0xe
 1629 0063 3A       		.uleb128 0x3a
 1630 0064 0B       		.uleb128 0xb
 1631 0065 3B       		.uleb128 0x3b
 1632 0066 0B       		.uleb128 0xb
 1633 0067 49       		.uleb128 0x49
 1634 0068 13       		.uleb128 0x13
 1635 0069 38       		.uleb128 0x38
 1636 006a 0A       		.uleb128 0xa
 1637 006b 00       		.byte	0
 1638 006c 00       		.byte	0
 1639 006d 0A       		.uleb128 0xa
 1640 006e 0D       		.uleb128 0xd
 1641 006f 00       		.byte	0
ARM GAS  C:\Users\jenny\AppData\Local\Temp\ccnPE0kb.s 			page 30


 1642 0070 03       		.uleb128 0x3
 1643 0071 08       		.uleb128 0x8
 1644 0072 3A       		.uleb128 0x3a
 1645 0073 0B       		.uleb128 0xb
 1646 0074 3B       		.uleb128 0x3b
 1647 0075 0B       		.uleb128 0xb
 1648 0076 49       		.uleb128 0x49
 1649 0077 13       		.uleb128 0x13
 1650 0078 38       		.uleb128 0x38
 1651 0079 0A       		.uleb128 0xa
 1652 007a 00       		.byte	0
 1653 007b 00       		.byte	0
 1654 007c 0B       		.uleb128 0xb
 1655 007d 15       		.uleb128 0x15
 1656 007e 01       		.byte	0x1
 1657 007f 27       		.uleb128 0x27
 1658 0080 0C       		.uleb128 0xc
 1659 0081 49       		.uleb128 0x49
 1660 0082 13       		.uleb128 0x13
 1661 0083 01       		.uleb128 0x1
 1662 0084 13       		.uleb128 0x13
 1663 0085 00       		.byte	0
 1664 0086 00       		.byte	0
 1665 0087 0C       		.uleb128 0xc
 1666 0088 05       		.uleb128 0x5
 1667 0089 00       		.byte	0
 1668 008a 49       		.uleb128 0x49
 1669 008b 13       		.uleb128 0x13
 1670 008c 00       		.byte	0
 1671 008d 00       		.byte	0
 1672 008e 0D       		.uleb128 0xd
 1673 008f 01       		.uleb128 0x1
 1674 0090 01       		.byte	0x1
 1675 0091 49       		.uleb128 0x49
 1676 0092 13       		.uleb128 0x13
 1677 0093 01       		.uleb128 0x1
 1678 0094 13       		.uleb128 0x13
 1679 0095 00       		.byte	0
 1680 0096 00       		.byte	0
 1681 0097 0E       		.uleb128 0xe
 1682 0098 21       		.uleb128 0x21
 1683 0099 00       		.byte	0
 1684 009a 49       		.uleb128 0x49
 1685 009b 13       		.uleb128 0x13
 1686 009c 2F       		.uleb128 0x2f
 1687 009d 0B       		.uleb128 0xb
 1688 009e 00       		.byte	0
 1689 009f 00       		.byte	0
 1690 00a0 0F       		.uleb128 0xf
 1691 00a1 2E       		.uleb128 0x2e
 1692 00a2 01       		.byte	0x1
 1693 00a3 3F       		.uleb128 0x3f
 1694 00a4 0C       		.uleb128 0xc
 1695 00a5 03       		.uleb128 0x3
 1696 00a6 0E       		.uleb128 0xe
 1697 00a7 3A       		.uleb128 0x3a
 1698 00a8 0B       		.uleb128 0xb
ARM GAS  C:\Users\jenny\AppData\Local\Temp\ccnPE0kb.s 			page 31


 1699 00a9 3B       		.uleb128 0x3b
 1700 00aa 0B       		.uleb128 0xb
 1701 00ab 27       		.uleb128 0x27
 1702 00ac 0C       		.uleb128 0xc
 1703 00ad 49       		.uleb128 0x49
 1704 00ae 13       		.uleb128 0x13
 1705 00af 11       		.uleb128 0x11
 1706 00b0 01       		.uleb128 0x1
 1707 00b1 12       		.uleb128 0x12
 1708 00b2 01       		.uleb128 0x1
 1709 00b3 40       		.uleb128 0x40
 1710 00b4 0A       		.uleb128 0xa
 1711 00b5 9742     		.uleb128 0x2117
 1712 00b7 0C       		.uleb128 0xc
 1713 00b8 01       		.uleb128 0x1
 1714 00b9 13       		.uleb128 0x13
 1715 00ba 00       		.byte	0
 1716 00bb 00       		.byte	0
 1717 00bc 10       		.uleb128 0x10
 1718 00bd 05       		.uleb128 0x5
 1719 00be 00       		.byte	0
 1720 00bf 03       		.uleb128 0x3
 1721 00c0 0E       		.uleb128 0xe
 1722 00c1 3A       		.uleb128 0x3a
 1723 00c2 0B       		.uleb128 0xb
 1724 00c3 3B       		.uleb128 0x3b
 1725 00c4 0B       		.uleb128 0xb
 1726 00c5 49       		.uleb128 0x49
 1727 00c6 13       		.uleb128 0x13
 1728 00c7 02       		.uleb128 0x2
 1729 00c8 06       		.uleb128 0x6
 1730 00c9 00       		.byte	0
 1731 00ca 00       		.byte	0
 1732 00cb 11       		.uleb128 0x11
 1733 00cc 34       		.uleb128 0x34
 1734 00cd 00       		.byte	0
 1735 00ce 03       		.uleb128 0x3
 1736 00cf 0E       		.uleb128 0xe
 1737 00d0 3A       		.uleb128 0x3a
 1738 00d1 0B       		.uleb128 0xb
 1739 00d2 3B       		.uleb128 0x3b
 1740 00d3 0B       		.uleb128 0xb
 1741 00d4 49       		.uleb128 0x49
 1742 00d5 13       		.uleb128 0x13
 1743 00d6 02       		.uleb128 0x2
 1744 00d7 06       		.uleb128 0x6
 1745 00d8 00       		.byte	0
 1746 00d9 00       		.byte	0
 1747 00da 12       		.uleb128 0x12
 1748 00db 2E       		.uleb128 0x2e
 1749 00dc 01       		.byte	0x1
 1750 00dd 3F       		.uleb128 0x3f
 1751 00de 0C       		.uleb128 0xc
 1752 00df 03       		.uleb128 0x3
 1753 00e0 0E       		.uleb128 0xe
 1754 00e1 3A       		.uleb128 0x3a
 1755 00e2 0B       		.uleb128 0xb
ARM GAS  C:\Users\jenny\AppData\Local\Temp\ccnPE0kb.s 			page 32


 1756 00e3 3B       		.uleb128 0x3b
 1757 00e4 0B       		.uleb128 0xb
 1758 00e5 27       		.uleb128 0x27
 1759 00e6 0C       		.uleb128 0xc
 1760 00e7 49       		.uleb128 0x49
 1761 00e8 13       		.uleb128 0x13
 1762 00e9 11       		.uleb128 0x11
 1763 00ea 01       		.uleb128 0x1
 1764 00eb 12       		.uleb128 0x12
 1765 00ec 01       		.uleb128 0x1
 1766 00ed 40       		.uleb128 0x40
 1767 00ee 06       		.uleb128 0x6
 1768 00ef 9742     		.uleb128 0x2117
 1769 00f1 0C       		.uleb128 0xc
 1770 00f2 01       		.uleb128 0x1
 1771 00f3 13       		.uleb128 0x13
 1772 00f4 00       		.byte	0
 1773 00f5 00       		.byte	0
 1774 00f6 13       		.uleb128 0x13
 1775 00f7 898201   		.uleb128 0x4109
 1776 00fa 01       		.byte	0x1
 1777 00fb 11       		.uleb128 0x11
 1778 00fc 01       		.uleb128 0x1
 1779 00fd 31       		.uleb128 0x31
 1780 00fe 13       		.uleb128 0x13
 1781 00ff 00       		.byte	0
 1782 0100 00       		.byte	0
 1783 0101 14       		.uleb128 0x14
 1784 0102 8A8201   		.uleb128 0x410a
 1785 0105 00       		.byte	0
 1786 0106 02       		.uleb128 0x2
 1787 0107 0A       		.uleb128 0xa
 1788 0108 9142     		.uleb128 0x2111
 1789 010a 0A       		.uleb128 0xa
 1790 010b 00       		.byte	0
 1791 010c 00       		.byte	0
 1792 010d 15       		.uleb128 0x15
 1793 010e 05       		.uleb128 0x5
 1794 010f 00       		.byte	0
 1795 0110 03       		.uleb128 0x3
 1796 0111 08       		.uleb128 0x8
 1797 0112 3A       		.uleb128 0x3a
 1798 0113 0B       		.uleb128 0xb
 1799 0114 3B       		.uleb128 0x3b
 1800 0115 0B       		.uleb128 0xb
 1801 0116 49       		.uleb128 0x49
 1802 0117 13       		.uleb128 0x13
 1803 0118 02       		.uleb128 0x2
 1804 0119 06       		.uleb128 0x6
 1805 011a 00       		.byte	0
 1806 011b 00       		.byte	0
 1807 011c 16       		.uleb128 0x16
 1808 011d 34       		.uleb128 0x34
 1809 011e 00       		.byte	0
 1810 011f 03       		.uleb128 0x3
 1811 0120 08       		.uleb128 0x8
 1812 0121 3A       		.uleb128 0x3a
ARM GAS  C:\Users\jenny\AppData\Local\Temp\ccnPE0kb.s 			page 33


 1813 0122 0B       		.uleb128 0xb
 1814 0123 3B       		.uleb128 0x3b
 1815 0124 0B       		.uleb128 0xb
 1816 0125 49       		.uleb128 0x49
 1817 0126 13       		.uleb128 0x13
 1818 0127 02       		.uleb128 0x2
 1819 0128 06       		.uleb128 0x6
 1820 0129 00       		.byte	0
 1821 012a 00       		.byte	0
 1822 012b 17       		.uleb128 0x17
 1823 012c 34       		.uleb128 0x34
 1824 012d 00       		.byte	0
 1825 012e 03       		.uleb128 0x3
 1826 012f 0E       		.uleb128 0xe
 1827 0130 3A       		.uleb128 0x3a
 1828 0131 0B       		.uleb128 0xb
 1829 0132 3B       		.uleb128 0x3b
 1830 0133 0B       		.uleb128 0xb
 1831 0134 49       		.uleb128 0x49
 1832 0135 13       		.uleb128 0x13
 1833 0136 02       		.uleb128 0x2
 1834 0137 0A       		.uleb128 0xa
 1835 0138 00       		.byte	0
 1836 0139 00       		.byte	0
 1837 013a 18       		.uleb128 0x18
 1838 013b 898201   		.uleb128 0x4109
 1839 013e 01       		.byte	0x1
 1840 013f 11       		.uleb128 0x11
 1841 0140 01       		.uleb128 0x1
 1842 0141 31       		.uleb128 0x31
 1843 0142 13       		.uleb128 0x13
 1844 0143 01       		.uleb128 0x1
 1845 0144 13       		.uleb128 0x13
 1846 0145 00       		.byte	0
 1847 0146 00       		.byte	0
 1848 0147 19       		.uleb128 0x19
 1849 0148 898201   		.uleb128 0x4109
 1850 014b 00       		.byte	0
 1851 014c 11       		.uleb128 0x11
 1852 014d 01       		.uleb128 0x1
 1853 014e 31       		.uleb128 0x31
 1854 014f 13       		.uleb128 0x13
 1855 0150 00       		.byte	0
 1856 0151 00       		.byte	0
 1857 0152 1A       		.uleb128 0x1a
 1858 0153 34       		.uleb128 0x34
 1859 0154 00       		.byte	0
 1860 0155 03       		.uleb128 0x3
 1861 0156 08       		.uleb128 0x8
 1862 0157 3A       		.uleb128 0x3a
 1863 0158 0B       		.uleb128 0xb
 1864 0159 3B       		.uleb128 0x3b
 1865 015a 0B       		.uleb128 0xb
 1866 015b 49       		.uleb128 0x49
 1867 015c 13       		.uleb128 0x13
 1868 015d 02       		.uleb128 0x2
 1869 015e 0A       		.uleb128 0xa
ARM GAS  C:\Users\jenny\AppData\Local\Temp\ccnPE0kb.s 			page 34


 1870 015f 00       		.byte	0
 1871 0160 00       		.byte	0
 1872 0161 1B       		.uleb128 0x1b
 1873 0162 2E       		.uleb128 0x2e
 1874 0163 01       		.byte	0x1
 1875 0164 3F       		.uleb128 0x3f
 1876 0165 0C       		.uleb128 0xc
 1877 0166 03       		.uleb128 0x3
 1878 0167 0E       		.uleb128 0xe
 1879 0168 3A       		.uleb128 0x3a
 1880 0169 0B       		.uleb128 0xb
 1881 016a 3B       		.uleb128 0x3b
 1882 016b 05       		.uleb128 0x5
 1883 016c 27       		.uleb128 0x27
 1884 016d 0C       		.uleb128 0xc
 1885 016e 49       		.uleb128 0x49
 1886 016f 13       		.uleb128 0x13
 1887 0170 11       		.uleb128 0x11
 1888 0171 01       		.uleb128 0x1
 1889 0172 12       		.uleb128 0x12
 1890 0173 01       		.uleb128 0x1
 1891 0174 40       		.uleb128 0x40
 1892 0175 06       		.uleb128 0x6
 1893 0176 9742     		.uleb128 0x2117
 1894 0178 0C       		.uleb128 0xc
 1895 0179 01       		.uleb128 0x1
 1896 017a 13       		.uleb128 0x13
 1897 017b 00       		.byte	0
 1898 017c 00       		.byte	0
 1899 017d 1C       		.uleb128 0x1c
 1900 017e 05       		.uleb128 0x5
 1901 017f 00       		.byte	0
 1902 0180 03       		.uleb128 0x3
 1903 0181 0E       		.uleb128 0xe
 1904 0182 3A       		.uleb128 0x3a
 1905 0183 0B       		.uleb128 0xb
 1906 0184 3B       		.uleb128 0x3b
 1907 0185 05       		.uleb128 0x5
 1908 0186 49       		.uleb128 0x49
 1909 0187 13       		.uleb128 0x13
 1910 0188 02       		.uleb128 0x2
 1911 0189 06       		.uleb128 0x6
 1912 018a 00       		.byte	0
 1913 018b 00       		.byte	0
 1914 018c 1D       		.uleb128 0x1d
 1915 018d 05       		.uleb128 0x5
 1916 018e 00       		.byte	0
 1917 018f 03       		.uleb128 0x3
 1918 0190 08       		.uleb128 0x8
 1919 0191 3A       		.uleb128 0x3a
 1920 0192 0B       		.uleb128 0xb
 1921 0193 3B       		.uleb128 0x3b
 1922 0194 05       		.uleb128 0x5
 1923 0195 49       		.uleb128 0x49
 1924 0196 13       		.uleb128 0x13
 1925 0197 02       		.uleb128 0x2
 1926 0198 06       		.uleb128 0x6
ARM GAS  C:\Users\jenny\AppData\Local\Temp\ccnPE0kb.s 			page 35


 1927 0199 00       		.byte	0
 1928 019a 00       		.byte	0
 1929 019b 1E       		.uleb128 0x1e
 1930 019c 05       		.uleb128 0x5
 1931 019d 00       		.byte	0
 1932 019e 03       		.uleb128 0x3
 1933 019f 0E       		.uleb128 0xe
 1934 01a0 3A       		.uleb128 0x3a
 1935 01a1 0B       		.uleb128 0xb
 1936 01a2 3B       		.uleb128 0x3b
 1937 01a3 05       		.uleb128 0x5
 1938 01a4 49       		.uleb128 0x49
 1939 01a5 13       		.uleb128 0x13
 1940 01a6 02       		.uleb128 0x2
 1941 01a7 0A       		.uleb128 0xa
 1942 01a8 00       		.byte	0
 1943 01a9 00       		.byte	0
 1944 01aa 1F       		.uleb128 0x1f
 1945 01ab 34       		.uleb128 0x34
 1946 01ac 00       		.byte	0
 1947 01ad 03       		.uleb128 0x3
 1948 01ae 0E       		.uleb128 0xe
 1949 01af 3A       		.uleb128 0x3a
 1950 01b0 0B       		.uleb128 0xb
 1951 01b1 3B       		.uleb128 0x3b
 1952 01b2 05       		.uleb128 0x5
 1953 01b3 49       		.uleb128 0x49
 1954 01b4 13       		.uleb128 0x13
 1955 01b5 02       		.uleb128 0x2
 1956 01b6 0A       		.uleb128 0xa
 1957 01b7 00       		.byte	0
 1958 01b8 00       		.byte	0
 1959 01b9 20       		.uleb128 0x20
 1960 01ba 34       		.uleb128 0x34
 1961 01bb 00       		.byte	0
 1962 01bc 03       		.uleb128 0x3
 1963 01bd 08       		.uleb128 0x8
 1964 01be 3A       		.uleb128 0x3a
 1965 01bf 0B       		.uleb128 0xb
 1966 01c0 3B       		.uleb128 0x3b
 1967 01c1 05       		.uleb128 0x5
 1968 01c2 49       		.uleb128 0x49
 1969 01c3 13       		.uleb128 0x13
 1970 01c4 02       		.uleb128 0x2
 1971 01c5 0A       		.uleb128 0xa
 1972 01c6 00       		.byte	0
 1973 01c7 00       		.byte	0
 1974 01c8 21       		.uleb128 0x21
 1975 01c9 34       		.uleb128 0x34
 1976 01ca 00       		.byte	0
 1977 01cb 03       		.uleb128 0x3
 1978 01cc 08       		.uleb128 0x8
 1979 01cd 3A       		.uleb128 0x3a
 1980 01ce 0B       		.uleb128 0xb
 1981 01cf 3B       		.uleb128 0x3b
 1982 01d0 05       		.uleb128 0x5
 1983 01d1 49       		.uleb128 0x49
ARM GAS  C:\Users\jenny\AppData\Local\Temp\ccnPE0kb.s 			page 36


 1984 01d2 13       		.uleb128 0x13
 1985 01d3 02       		.uleb128 0x2
 1986 01d4 06       		.uleb128 0x6
 1987 01d5 00       		.byte	0
 1988 01d6 00       		.byte	0
 1989 01d7 22       		.uleb128 0x22
 1990 01d8 2E       		.uleb128 0x2e
 1991 01d9 01       		.byte	0x1
 1992 01da 3F       		.uleb128 0x3f
 1993 01db 0C       		.uleb128 0xc
 1994 01dc 03       		.uleb128 0x3
 1995 01dd 0E       		.uleb128 0xe
 1996 01de 3A       		.uleb128 0x3a
 1997 01df 0B       		.uleb128 0xb
 1998 01e0 3B       		.uleb128 0x3b
 1999 01e1 05       		.uleb128 0x5
 2000 01e2 27       		.uleb128 0x27
 2001 01e3 0C       		.uleb128 0xc
 2002 01e4 49       		.uleb128 0x49
 2003 01e5 13       		.uleb128 0x13
 2004 01e6 11       		.uleb128 0x11
 2005 01e7 01       		.uleb128 0x1
 2006 01e8 12       		.uleb128 0x12
 2007 01e9 01       		.uleb128 0x1
 2008 01ea 40       		.uleb128 0x40
 2009 01eb 0A       		.uleb128 0xa
 2010 01ec 9742     		.uleb128 0x2117
 2011 01ee 0C       		.uleb128 0xc
 2012 01ef 01       		.uleb128 0x1
 2013 01f0 13       		.uleb128 0x13
 2014 01f1 00       		.byte	0
 2015 01f2 00       		.byte	0
 2016 01f3 23       		.uleb128 0x23
 2017 01f4 898201   		.uleb128 0x4109
 2018 01f7 01       		.byte	0x1
 2019 01f8 11       		.uleb128 0x11
 2020 01f9 01       		.uleb128 0x1
 2021 01fa 9542     		.uleb128 0x2115
 2022 01fc 0C       		.uleb128 0xc
 2023 01fd 31       		.uleb128 0x31
 2024 01fe 13       		.uleb128 0x13
 2025 01ff 00       		.byte	0
 2026 0200 00       		.byte	0
 2027 0201 24       		.uleb128 0x24
 2028 0202 34       		.uleb128 0x34
 2029 0203 00       		.byte	0
 2030 0204 03       		.uleb128 0x3
 2031 0205 0E       		.uleb128 0xe
 2032 0206 3A       		.uleb128 0x3a
 2033 0207 0B       		.uleb128 0xb
 2034 0208 3B       		.uleb128 0x3b
 2035 0209 0B       		.uleb128 0xb
 2036 020a 49       		.uleb128 0x49
 2037 020b 13       		.uleb128 0x13
 2038 020c 3F       		.uleb128 0x3f
 2039 020d 0C       		.uleb128 0xc
 2040 020e 02       		.uleb128 0x2
ARM GAS  C:\Users\jenny\AppData\Local\Temp\ccnPE0kb.s 			page 37


 2041 020f 0A       		.uleb128 0xa
 2042 0210 00       		.byte	0
 2043 0211 00       		.byte	0
 2044 0212 25       		.uleb128 0x25
 2045 0213 2E       		.uleb128 0x2e
 2046 0214 01       		.byte	0x1
 2047 0215 3F       		.uleb128 0x3f
 2048 0216 0C       		.uleb128 0xc
 2049 0217 03       		.uleb128 0x3
 2050 0218 0E       		.uleb128 0xe
 2051 0219 3A       		.uleb128 0x3a
 2052 021a 0B       		.uleb128 0xb
 2053 021b 3B       		.uleb128 0x3b
 2054 021c 0B       		.uleb128 0xb
 2055 021d 27       		.uleb128 0x27
 2056 021e 0C       		.uleb128 0xc
 2057 021f 49       		.uleb128 0x49
 2058 0220 13       		.uleb128 0x13
 2059 0221 3C       		.uleb128 0x3c
 2060 0222 0C       		.uleb128 0xc
 2061 0223 01       		.uleb128 0x1
 2062 0224 13       		.uleb128 0x13
 2063 0225 00       		.byte	0
 2064 0226 00       		.byte	0
 2065 0227 26       		.uleb128 0x26
 2066 0228 2E       		.uleb128 0x2e
 2067 0229 00       		.byte	0
 2068 022a 3F       		.uleb128 0x3f
 2069 022b 0C       		.uleb128 0xc
 2070 022c 03       		.uleb128 0x3
 2071 022d 0E       		.uleb128 0xe
 2072 022e 3A       		.uleb128 0x3a
 2073 022f 0B       		.uleb128 0xb
 2074 0230 3B       		.uleb128 0x3b
 2075 0231 05       		.uleb128 0x5
 2076 0232 27       		.uleb128 0x27
 2077 0233 0C       		.uleb128 0xc
 2078 0234 3C       		.uleb128 0x3c
 2079 0235 0C       		.uleb128 0xc
 2080 0236 00       		.byte	0
 2081 0237 00       		.byte	0
 2082 0238 00       		.byte	0
 2083              		.section	.debug_loc,"",%progbits
 2084              	.Ldebug_loc0:
 2085              	.LLST0:
 2086 0000 00000000 		.4byte	.LVL0
 2087 0004 26000000 		.4byte	.LVL2
 2088 0008 0100     		.2byte	0x1
 2089 000a 50       		.byte	0x50
 2090 000b 26000000 		.4byte	.LVL2
 2091 000f 32000000 		.4byte	.LFE7
 2092 0013 0400     		.2byte	0x4
 2093 0015 F3       		.byte	0xf3
 2094 0016 01       		.uleb128 0x1
 2095 0017 50       		.byte	0x50
 2096 0018 9F       		.byte	0x9f
 2097 0019 00000000 		.4byte	0
ARM GAS  C:\Users\jenny\AppData\Local\Temp\ccnPE0kb.s 			page 38


 2098 001d 00000000 		.4byte	0
 2099              	.LLST1:
 2100 0021 00000000 		.4byte	.LVL0
 2101 0025 1A000000 		.4byte	.LVL1
 2102 0029 0100     		.2byte	0x1
 2103 002b 51       		.byte	0x51
 2104 002c 1A000000 		.4byte	.LVL1
 2105 0030 32000000 		.4byte	.LFE7
 2106 0034 0400     		.2byte	0x4
 2107 0036 F3       		.byte	0xf3
 2108 0037 01       		.uleb128 0x1
 2109 0038 51       		.byte	0x51
 2110 0039 9F       		.byte	0x9f
 2111 003a 00000000 		.4byte	0
 2112 003e 00000000 		.4byte	0
 2113              	.LLST2:
 2114 0042 00000000 		.4byte	.LVL0
 2115 0046 26000000 		.4byte	.LVL2
 2116 004a 0300     		.2byte	0x3
 2117 004c 50       		.byte	0x50
 2118 004d 93       		.byte	0x93
 2119 004e 04       		.uleb128 0x4
 2120 004f 26000000 		.4byte	.LVL2
 2121 0053 32000000 		.4byte	.LFE7
 2122 0057 0600     		.2byte	0x6
 2123 0059 F3       		.byte	0xf3
 2124 005a 01       		.uleb128 0x1
 2125 005b 50       		.byte	0x50
 2126 005c 9F       		.byte	0x9f
 2127 005d 93       		.byte	0x93
 2128 005e 04       		.uleb128 0x4
 2129 005f 00000000 		.4byte	0
 2130 0063 00000000 		.4byte	0
 2131              	.LLST3:
 2132 0067 00000000 		.4byte	.LFB8
 2133 006b 02000000 		.4byte	.LCFI0
 2134 006f 0200     		.2byte	0x2
 2135 0071 7D       		.byte	0x7d
 2136 0072 00       		.sleb128 0
 2137 0073 02000000 		.4byte	.LCFI0
 2138 0077 36000000 		.4byte	.LFE8
 2139 007b 0200     		.2byte	0x2
 2140 007d 7D       		.byte	0x7d
 2141 007e 08       		.sleb128 8
 2142 007f 00000000 		.4byte	0
 2143 0083 00000000 		.4byte	0
 2144              	.LLST4:
 2145 0087 00000000 		.4byte	.LVL3
 2146 008b 05000000 		.4byte	.LVL4-1
 2147 008f 0100     		.2byte	0x1
 2148 0091 50       		.byte	0x50
 2149 0092 05000000 		.4byte	.LVL4-1
 2150 0096 36000000 		.4byte	.LFE8
 2151 009a 0400     		.2byte	0x4
 2152 009c F3       		.byte	0xf3
 2153 009d 01       		.uleb128 0x1
 2154 009e 50       		.byte	0x50
ARM GAS  C:\Users\jenny\AppData\Local\Temp\ccnPE0kb.s 			page 39


 2155 009f 9F       		.byte	0x9f
 2156 00a0 00000000 		.4byte	0
 2157 00a4 00000000 		.4byte	0
 2158              	.LLST5:
 2159 00a8 06000000 		.4byte	.LVL4
 2160 00ac 0E000000 		.4byte	.LVL5
 2161 00b0 0500     		.2byte	0x5
 2162 00b2 40       		.byte	0x40
 2163 00b3 4B       		.byte	0x4b
 2164 00b4 24       		.byte	0x24
 2165 00b5 1F       		.byte	0x1f
 2166 00b6 9F       		.byte	0x9f
 2167 00b7 10000000 		.4byte	.LVL6
 2168 00bb 1A000000 		.4byte	.LVL8
 2169 00bf 0100     		.2byte	0x1
 2170 00c1 53       		.byte	0x53
 2171 00c2 22000000 		.4byte	.LVL9
 2172 00c6 2A000000 		.4byte	.LVL10
 2173 00ca 0100     		.2byte	0x1
 2174 00cc 53       		.byte	0x53
 2175 00cd 2A000000 		.4byte	.LVL10
 2176 00d1 2C000000 		.4byte	.LVL11
 2177 00d5 0500     		.2byte	0x5
 2178 00d7 73       		.byte	0x73
 2179 00d8 00       		.sleb128 0
 2180 00d9 31       		.byte	0x31
 2181 00da 25       		.byte	0x25
 2182 00db 9F       		.byte	0x9f
 2183 00dc 2C000000 		.4byte	.LVL11
 2184 00e0 36000000 		.4byte	.LFE8
 2185 00e4 0100     		.2byte	0x1
 2186 00e6 53       		.byte	0x53
 2187 00e7 00000000 		.4byte	0
 2188 00eb 00000000 		.4byte	0
 2189              	.LLST6:
 2190 00ef 06000000 		.4byte	.LVL4
 2191 00f3 30000000 		.4byte	.LVL12
 2192 00f7 0100     		.2byte	0x1
 2193 00f9 50       		.byte	0x50
 2194 00fa 32000000 		.4byte	.LVL13
 2195 00fe 34000000 		.4byte	.LVL14
 2196 0102 0100     		.2byte	0x1
 2197 0104 50       		.byte	0x50
 2198 0105 00000000 		.4byte	0
 2199 0109 00000000 		.4byte	0
 2200              	.LLST7:
 2201 010d 00000000 		.4byte	.LFB10
 2202 0111 04000000 		.4byte	.LCFI1
 2203 0115 0200     		.2byte	0x2
 2204 0117 7D       		.byte	0x7d
 2205 0118 00       		.sleb128 0
 2206 0119 04000000 		.4byte	.LCFI1
 2207 011d 12000000 		.4byte	.LCFI2
 2208 0121 0200     		.2byte	0x2
 2209 0123 7D       		.byte	0x7d
 2210 0124 18       		.sleb128 24
 2211 0125 12000000 		.4byte	.LCFI2
ARM GAS  C:\Users\jenny\AppData\Local\Temp\ccnPE0kb.s 			page 40


 2212 0129 46010000 		.4byte	.LFE10
 2213 012d 0200     		.2byte	0x2
 2214 012f 7D       		.byte	0x7d
 2215 0130 28       		.sleb128 40
 2216 0131 00000000 		.4byte	0
 2217 0135 00000000 		.4byte	0
 2218              	.LLST8:
 2219 0139 00000000 		.4byte	.LVL15
 2220 013d 1E000000 		.4byte	.LVL18
 2221 0141 0100     		.2byte	0x1
 2222 0143 50       		.byte	0x50
 2223 0144 1E000000 		.4byte	.LVL18
 2224 0148 30000000 		.4byte	.LVL23
 2225 014c 0100     		.2byte	0x1
 2226 014e 52       		.byte	0x52
 2227 014f 36000000 		.4byte	.LVL24
 2228 0153 60000000 		.4byte	.LVL28
 2229 0157 0100     		.2byte	0x1
 2230 0159 52       		.byte	0x52
 2231 015a 64000000 		.4byte	.LVL30
 2232 015e 86000000 		.4byte	.LVL37
 2233 0162 0100     		.2byte	0x1
 2234 0164 52       		.byte	0x52
 2235 0165 90000000 		.4byte	.LVL38
 2236 0169 9C000000 		.4byte	.LVL40
 2237 016d 0300     		.2byte	0x3
 2238 016f 72       		.byte	0x72
 2239 0170 01       		.sleb128 1
 2240 0171 9F       		.byte	0x9f
 2241 0172 9C000000 		.4byte	.LVL40
 2242 0176 A4000000 		.4byte	.LVL41
 2243 017a 0100     		.2byte	0x1
 2244 017c 52       		.byte	0x52
 2245 017d A4000000 		.4byte	.LVL41
 2246 0181 AA000000 		.4byte	.LVL43
 2247 0185 0300     		.2byte	0x3
 2248 0187 72       		.byte	0x72
 2249 0188 02       		.sleb128 2
 2250 0189 9F       		.byte	0x9f
 2251 018a AA000000 		.4byte	.LVL43
 2252 018e CE000000 		.4byte	.LVL46
 2253 0192 0100     		.2byte	0x1
 2254 0194 52       		.byte	0x52
 2255 0195 00000000 		.4byte	0
 2256 0199 00000000 		.4byte	0
 2257              	.LLST9:
 2258 019d 00000000 		.4byte	.LVL15
 2259 01a1 0E000000 		.4byte	.LVL16
 2260 01a5 0100     		.2byte	0x1
 2261 01a7 51       		.byte	0x51
 2262 01a8 0E000000 		.4byte	.LVL16
 2263 01ac 46010000 		.4byte	.LFE10
 2264 01b0 0100     		.2byte	0x1
 2265 01b2 58       		.byte	0x58
 2266 01b3 00000000 		.4byte	0
 2267 01b7 00000000 		.4byte	0
 2268              	.LLST10:
ARM GAS  C:\Users\jenny\AppData\Local\Temp\ccnPE0kb.s 			page 41


 2269 01bb 1E000000 		.4byte	.LVL18
 2270 01bf 28000000 		.4byte	.LVL20
 2271 01c3 0200     		.2byte	0x2
 2272 01c5 30       		.byte	0x30
 2273 01c6 9F       		.byte	0x9f
 2274 01c7 28000000 		.4byte	.LVL20
 2275 01cb 2C000000 		.4byte	.LVL21
 2276 01cf 0100     		.2byte	0x1
 2277 01d1 55       		.byte	0x55
 2278 01d2 30000000 		.4byte	.LVL23
 2279 01d6 54000000 		.4byte	.LVL25
 2280 01da 0100     		.2byte	0x1
 2281 01dc 55       		.byte	0x55
 2282 01dd 60000000 		.4byte	.LVL28
 2283 01e1 66000000 		.4byte	.LVL31
 2284 01e5 0100     		.2byte	0x1
 2285 01e7 55       		.byte	0x55
 2286 01e8 6C000000 		.4byte	.LVL33
 2287 01ec 86000000 		.4byte	.LVL37
 2288 01f0 0100     		.2byte	0x1
 2289 01f2 55       		.byte	0x55
 2290 01f3 90000000 		.4byte	.LVL38
 2291 01f7 B0000000 		.4byte	.LVL44
 2292 01fb 0200     		.2byte	0x2
 2293 01fd 30       		.byte	0x30
 2294 01fe 9F       		.byte	0x9f
 2295 01ff B0000000 		.4byte	.LVL44
 2296 0203 46010000 		.4byte	.LFE10
 2297 0207 0100     		.2byte	0x1
 2298 0209 55       		.byte	0x55
 2299 020a 00000000 		.4byte	0
 2300 020e 00000000 		.4byte	0
 2301              	.LLST11:
 2302 0212 1E000000 		.4byte	.LVL18
 2303 0216 24000000 		.4byte	.LVL19
 2304 021a 0200     		.2byte	0x2
 2305 021c 3A       		.byte	0x3a
 2306 021d 9F       		.byte	0x9f
 2307 021e 90000000 		.4byte	.LVL38
 2308 0222 A4000000 		.4byte	.LVL41
 2309 0226 0200     		.2byte	0x2
 2310 0228 3A       		.byte	0x3a
 2311 0229 9F       		.byte	0x9f
 2312 022a A4000000 		.4byte	.LVL41
 2313 022e B0000000 		.4byte	.LVL44
 2314 0232 0200     		.2byte	0x2
 2315 0234 40       		.byte	0x40
 2316 0235 9F       		.byte	0x9f
 2317 0236 00000000 		.4byte	0
 2318 023a 00000000 		.4byte	0
 2319              	.LLST12:
 2320 023e 12000000 		.4byte	.LVL17
 2321 0242 1E000000 		.4byte	.LVL18
 2322 0246 0200     		.2byte	0x2
 2323 0248 70       		.byte	0x70
 2324 0249 00       		.sleb128 0
 2325 024a 28000000 		.4byte	.LVL20
ARM GAS  C:\Users\jenny\AppData\Local\Temp\ccnPE0kb.s 			page 42


 2326 024e 2E000000 		.4byte	.LVL22
 2327 0252 0100     		.2byte	0x1
 2328 0254 53       		.byte	0x53
 2329 0255 36000000 		.4byte	.LVL24
 2330 0259 56000000 		.4byte	.LVL26
 2331 025d 0100     		.2byte	0x1
 2332 025f 53       		.byte	0x53
 2333 0260 56000000 		.4byte	.LVL26
 2334 0264 5C000000 		.4byte	.LVL27
 2335 0268 0300     		.2byte	0x3
 2336 026a 73       		.byte	0x73
 2337 026b 76       		.sleb128 -10
 2338 026c 9F       		.byte	0x9f
 2339 026d 62000000 		.4byte	.LVL29
 2340 0271 64000000 		.4byte	.LVL30
 2341 0275 0200     		.2byte	0x2
 2342 0277 72       		.byte	0x72
 2343 0278 01       		.sleb128 1
 2344 0279 64000000 		.4byte	.LVL30
 2345 027d 68000000 		.4byte	.LVL32
 2346 0281 0100     		.2byte	0x1
 2347 0283 53       		.byte	0x53
 2348 0284 6C000000 		.4byte	.LVL33
 2349 0288 76000000 		.4byte	.LVL34
 2350 028c 0100     		.2byte	0x1
 2351 028e 53       		.byte	0x53
 2352 028f 82000000 		.4byte	.LVL36
 2353 0293 86000000 		.4byte	.LVL37
 2354 0297 0200     		.2byte	0x2
 2355 0299 72       		.byte	0x72
 2356 029a 00       		.sleb128 0
 2357 029b 92000000 		.4byte	.LVL39
 2358 029f 9C000000 		.4byte	.LVL40
 2359 02a3 0200     		.2byte	0x2
 2360 02a5 72       		.byte	0x72
 2361 02a6 01       		.sleb128 1
 2362 02a7 9C000000 		.4byte	.LVL40
 2363 02ab A4000000 		.4byte	.LVL41
 2364 02af 0200     		.2byte	0x2
 2365 02b1 72       		.byte	0x72
 2366 02b2 00       		.sleb128 0
 2367 02b3 A4000000 		.4byte	.LVL41
 2368 02b7 A6000000 		.4byte	.LVL42
 2369 02bb 0200     		.2byte	0x2
 2370 02bd 72       		.byte	0x72
 2371 02be 01       		.sleb128 1
 2372 02bf A6000000 		.4byte	.LVL42
 2373 02c3 AA000000 		.4byte	.LVL43
 2374 02c7 0200     		.2byte	0x2
 2375 02c9 72       		.byte	0x72
 2376 02ca 02       		.sleb128 2
 2377 02cb AA000000 		.4byte	.LVL43
 2378 02cf B0000000 		.4byte	.LVL44
 2379 02d3 0200     		.2byte	0x2
 2380 02d5 72       		.byte	0x72
 2381 02d6 00       		.sleb128 0
 2382 02d7 B0000000 		.4byte	.LVL44
ARM GAS  C:\Users\jenny\AppData\Local\Temp\ccnPE0kb.s 			page 43


 2383 02db CC000000 		.4byte	.LVL45
 2384 02df 0100     		.2byte	0x1
 2385 02e1 53       		.byte	0x53
 2386 02e2 00000000 		.4byte	0
 2387 02e6 00000000 		.4byte	0
 2388              	.LLST13:
 2389 02ea 12000000 		.4byte	.LVL17
 2390 02ee 1E000000 		.4byte	.LVL18
 2391 02f2 0100     		.2byte	0x1
 2392 02f4 5D       		.byte	0x5d
 2393 02f5 1E000000 		.4byte	.LVL18
 2394 02f9 86000000 		.4byte	.LVL37
 2395 02fd 0100     		.2byte	0x1
 2396 02ff 57       		.byte	0x57
 2397 0300 90000000 		.4byte	.LVL38
 2398 0304 46010000 		.4byte	.LFE10
 2399 0308 0100     		.2byte	0x1
 2400 030a 57       		.byte	0x57
 2401 030b 00000000 		.4byte	0
 2402 030f 00000000 		.4byte	0
 2403              	.LLST14:
 2404 0313 00000000 		.4byte	.LFB9
 2405 0317 02000000 		.4byte	.LCFI3
 2406 031b 0200     		.2byte	0x2
 2407 031d 7D       		.byte	0x7d
 2408 031e 00       		.sleb128 0
 2409 031f 02000000 		.4byte	.LCFI3
 2410 0323 04000000 		.4byte	.LCFI4
 2411 0327 0200     		.2byte	0x2
 2412 0329 7D       		.byte	0x7d
 2413 032a 04       		.sleb128 4
 2414 032b 04000000 		.4byte	.LCFI4
 2415 032f 18000000 		.4byte	.LFE9
 2416 0333 0200     		.2byte	0x2
 2417 0335 7D       		.byte	0x7d
 2418 0336 10       		.sleb128 16
 2419 0337 00000000 		.4byte	0
 2420 033b 00000000 		.4byte	0
 2421              	.LLST15:
 2422 033f 00000000 		.4byte	.LVL52
 2423 0343 09000000 		.4byte	.LVL53-1
 2424 0347 0100     		.2byte	0x1
 2425 0349 50       		.byte	0x50
 2426 034a 09000000 		.4byte	.LVL53-1
 2427 034e 18000000 		.4byte	.LFE9
 2428 0352 0400     		.2byte	0x4
 2429 0354 F3       		.byte	0xf3
 2430 0355 01       		.uleb128 0x1
 2431 0356 50       		.byte	0x50
 2432 0357 9F       		.byte	0x9f
 2433 0358 00000000 		.4byte	0
 2434 035c 00000000 		.4byte	0
 2435              	.LLST16:
 2436 0360 00000000 		.4byte	.LFB12
 2437 0364 04000000 		.4byte	.LCFI5
 2438 0368 0200     		.2byte	0x2
 2439 036a 7D       		.byte	0x7d
ARM GAS  C:\Users\jenny\AppData\Local\Temp\ccnPE0kb.s 			page 44


 2440 036b 00       		.sleb128 0
 2441 036c 04000000 		.4byte	.LCFI5
 2442 0370 08000000 		.4byte	.LCFI6
 2443 0374 0200     		.2byte	0x2
 2444 0376 7D       		.byte	0x7d
 2445 0377 20       		.sleb128 32
 2446 0378 08000000 		.4byte	.LCFI6
 2447 037c 08010000 		.4byte	.LFE12
 2448 0380 0200     		.2byte	0x2
 2449 0382 7D       		.byte	0x7d
 2450 0383 28       		.sleb128 40
 2451 0384 00000000 		.4byte	0
 2452 0388 00000000 		.4byte	0
 2453              	.LLST17:
 2454 038c 00000000 		.4byte	.LVL54
 2455 0390 16000000 		.4byte	.LVL56
 2456 0394 0100     		.2byte	0x1
 2457 0396 50       		.byte	0x50
 2458 0397 16000000 		.4byte	.LVL56
 2459 039b 08010000 		.4byte	.LFE12
 2460 039f 0400     		.2byte	0x4
 2461 03a1 F3       		.byte	0xf3
 2462 03a2 01       		.uleb128 0x1
 2463 03a3 50       		.byte	0x50
 2464 03a4 9F       		.byte	0x9f
 2465 03a5 00000000 		.4byte	0
 2466 03a9 00000000 		.4byte	0
 2467              	.LLST18:
 2468 03ad 00000000 		.4byte	.LVL54
 2469 03b1 FA000000 		.4byte	.LVL86
 2470 03b5 0100     		.2byte	0x1
 2471 03b7 51       		.byte	0x51
 2472 03b8 FA000000 		.4byte	.LVL86
 2473 03bc 04010000 		.4byte	.LVL87
 2474 03c0 0400     		.2byte	0x4
 2475 03c2 F3       		.byte	0xf3
 2476 03c3 01       		.uleb128 0x1
 2477 03c4 51       		.byte	0x51
 2478 03c5 9F       		.byte	0x9f
 2479 03c6 04010000 		.4byte	.LVL87
 2480 03ca 08010000 		.4byte	.LFE12
 2481 03ce 0100     		.2byte	0x1
 2482 03d0 51       		.byte	0x51
 2483 03d1 00000000 		.4byte	0
 2484 03d5 00000000 		.4byte	0
 2485              	.LLST19:
 2486 03d9 0E000000 		.4byte	.LVL55
 2487 03dd 24000000 		.4byte	.LVL57
 2488 03e1 0100     		.2byte	0x1
 2489 03e3 51       		.byte	0x51
 2490 03e4 24000000 		.4byte	.LVL57
 2491 03e8 86000000 		.4byte	.LVL68
 2492 03ec 0100     		.2byte	0x1
 2493 03ee 57       		.byte	0x57
 2494 03ef 86000000 		.4byte	.LVL68
 2495 03f3 9C000000 		.4byte	.LVL73
 2496 03f7 0100     		.2byte	0x1
ARM GAS  C:\Users\jenny\AppData\Local\Temp\ccnPE0kb.s 			page 45


 2497 03f9 54       		.byte	0x54
 2498 03fa 9C000000 		.4byte	.LVL73
 2499 03fe AA000000 		.4byte	.LVL75
 2500 0402 0300     		.2byte	0x3
 2501 0404 74       		.byte	0x74
 2502 0405 7F       		.sleb128 -1
 2503 0406 9F       		.byte	0x9f
 2504 0407 AA000000 		.4byte	.LVL75
 2505 040b AE000000 		.4byte	.LVL76
 2506 040f 0300     		.2byte	0x3
 2507 0411 77       		.byte	0x77
 2508 0412 7F       		.sleb128 -1
 2509 0413 9F       		.byte	0x9f
 2510 0414 AE000000 		.4byte	.LVL76
 2511 0418 D6000000 		.4byte	.LVL79
 2512 041c 0100     		.2byte	0x1
 2513 041e 54       		.byte	0x54
 2514 041f D6000000 		.4byte	.LVL79
 2515 0423 DC000000 		.4byte	.LVL81
 2516 0427 0300     		.2byte	0x3
 2517 0429 74       		.byte	0x74
 2518 042a 7F       		.sleb128 -1
 2519 042b 9F       		.byte	0x9f
 2520 042c EE000000 		.4byte	.LVL83
 2521 0430 F0000000 		.4byte	.LVL84
 2522 0434 0100     		.2byte	0x1
 2523 0436 57       		.byte	0x57
 2524 0437 F0000000 		.4byte	.LVL84
 2525 043b F8000000 		.4byte	.LVL85
 2526 043f 0300     		.2byte	0x3
 2527 0441 77       		.byte	0x77
 2528 0442 7F       		.sleb128 -1
 2529 0443 9F       		.byte	0x9f
 2530 0444 04010000 		.4byte	.LVL87
 2531 0448 08010000 		.4byte	.LFE12
 2532 044c 0100     		.2byte	0x1
 2533 044e 57       		.byte	0x57
 2534 044f 00000000 		.4byte	0
 2535 0453 00000000 		.4byte	0
 2536              	.LLST20:
 2537 0457 0E000000 		.4byte	.LVL55
 2538 045b 24000000 		.4byte	.LVL57
 2539 045f 0300     		.2byte	0x3
 2540 0461 91       		.byte	0x91
 2541 0462 5C       		.sleb128 -36
 2542 0463 9F       		.byte	0x9f
 2543 0464 00000000 		.4byte	0
 2544 0468 00000000 		.4byte	0
 2545              	.LLST21:
 2546 046c 3C000000 		.4byte	.LVL60
 2547 0470 46000000 		.4byte	.LVL61
 2548 0474 0100     		.2byte	0x1
 2549 0476 55       		.byte	0x55
 2550 0477 46000000 		.4byte	.LVL61
 2551 047b 4E000000 		.4byte	.LVL62
 2552 047f 0300     		.2byte	0x3
 2553 0481 75       		.byte	0x75
ARM GAS  C:\Users\jenny\AppData\Local\Temp\ccnPE0kb.s 			page 46


 2554 0482 50       		.sleb128 -48
 2555 0483 9F       		.byte	0x9f
 2556 0484 00000000 		.4byte	0
 2557 0488 00000000 		.4byte	0
 2558              	.LLST22:
 2559 048c 0E000000 		.4byte	.LVL55
 2560 0490 24000000 		.4byte	.LVL57
 2561 0494 0200     		.2byte	0x2
 2562 0496 30       		.byte	0x30
 2563 0497 9F       		.byte	0x9f
 2564 0498 00000000 		.4byte	0
 2565 049c 00000000 		.4byte	0
 2566              	.LLST23:
 2567 04a0 2C000000 		.4byte	.LVL58
 2568 04a4 2E000000 		.4byte	.LVL59
 2569 04a8 0100     		.2byte	0x1
 2570 04aa 5B       		.byte	0x5b
 2571 04ab 2E000000 		.4byte	.LVL59
 2572 04af 56000000 		.4byte	.LVL63
 2573 04b3 0100     		.2byte	0x1
 2574 04b5 56       		.byte	0x56
 2575 04b6 56000000 		.4byte	.LVL63
 2576 04ba 62000000 		.4byte	.LVL64
 2577 04be 0100     		.2byte	0x1
 2578 04c0 5B       		.byte	0x5b
 2579 04c1 62000000 		.4byte	.LVL64
 2580 04c5 78000000 		.4byte	.LVL66
 2581 04c9 0100     		.2byte	0x1
 2582 04cb 56       		.byte	0x56
 2583 04cc 78000000 		.4byte	.LVL66
 2584 04d0 7E000000 		.4byte	.LVL67
 2585 04d4 0300     		.2byte	0x3
 2586 04d6 76       		.byte	0x76
 2587 04d7 01       		.sleb128 1
 2588 04d8 9F       		.byte	0x9f
 2589 04d9 8A000000 		.4byte	.LVL69
 2590 04dd 92000000 		.4byte	.LVL70
 2591 04e1 0100     		.2byte	0x1
 2592 04e3 56       		.byte	0x56
 2593 04e4 92000000 		.4byte	.LVL70
 2594 04e8 9A000000 		.4byte	.LVL72
 2595 04ec 0300     		.2byte	0x3
 2596 04ee 76       		.byte	0x76
 2597 04ef 01       		.sleb128 1
 2598 04f0 9F       		.byte	0x9f
 2599 04f1 9C000000 		.4byte	.LVL73
 2600 04f5 C2000000 		.4byte	.LVL78
 2601 04f9 0300     		.2byte	0x3
 2602 04fb 7C       		.byte	0x7c
 2603 04fc 01       		.sleb128 1
 2604 04fd 9F       		.byte	0x9f
 2605 04fe D6000000 		.4byte	.LVL79
 2606 0502 DA000000 		.4byte	.LVL80
 2607 0506 0100     		.2byte	0x1
 2608 0508 56       		.byte	0x56
 2609 0509 DA000000 		.4byte	.LVL80
 2610 050d DC000000 		.4byte	.LVL81
ARM GAS  C:\Users\jenny\AppData\Local\Temp\ccnPE0kb.s 			page 47


 2611 0511 0300     		.2byte	0x3
 2612 0513 7C       		.byte	0x7c
 2613 0514 01       		.sleb128 1
 2614 0515 9F       		.byte	0x9f
 2615 0516 04010000 		.4byte	.LVL87
 2616 051a 08010000 		.4byte	.LFE12
 2617 051e 0100     		.2byte	0x1
 2618 0520 56       		.byte	0x56
 2619 0521 00000000 		.4byte	0
 2620 0525 00000000 		.4byte	0
 2621              	.LLST24:
 2622 0529 00000000 		.4byte	.LVL54
 2623 052d 24000000 		.4byte	.LVL57
 2624 0531 0200     		.2byte	0x2
 2625 0533 30       		.byte	0x30
 2626 0534 9F       		.byte	0x9f
 2627 0535 62000000 		.4byte	.LVL64
 2628 0539 6E000000 		.4byte	.LVL65
 2629 053d 0100     		.2byte	0x1
 2630 053f 5C       		.byte	0x5c
 2631 0540 6E000000 		.4byte	.LVL65
 2632 0544 AE000000 		.4byte	.LVL76
 2633 0548 0100     		.2byte	0x1
 2634 054a 53       		.byte	0x53
 2635 054b C0000000 		.4byte	.LVL77
 2636 054f DC000000 		.4byte	.LVL81
 2637 0553 0100     		.2byte	0x1
 2638 0555 53       		.byte	0x53
 2639 0556 E2000000 		.4byte	.LVL82
 2640 055a F8000000 		.4byte	.LVL85
 2641 055e 0100     		.2byte	0x1
 2642 0560 5C       		.byte	0x5c
 2643 0561 04010000 		.4byte	.LVL87
 2644 0565 08010000 		.4byte	.LFE12
 2645 0569 0100     		.2byte	0x1
 2646 056b 5C       		.byte	0x5c
 2647 056c 00000000 		.4byte	0
 2648 0570 00000000 		.4byte	0
 2649              	.LLST25:
 2650 0574 00000000 		.4byte	.LVL88
 2651 0578 0D000000 		.4byte	.LVL89-1
 2652 057c 0100     		.2byte	0x1
 2653 057e 50       		.byte	0x50
 2654 057f 0D000000 		.4byte	.LVL89-1
 2655 0583 0E000000 		.4byte	.LFE11
 2656 0587 0400     		.2byte	0x4
 2657 0589 F3       		.byte	0xf3
 2658 058a 01       		.uleb128 0x1
 2659 058b 50       		.byte	0x50
 2660 058c 9F       		.byte	0x9f
 2661 058d 00000000 		.4byte	0
 2662 0591 00000000 		.4byte	0
 2663              		.section	.debug_aranges,"",%progbits
 2664 0000 44000000 		.4byte	0x44
 2665 0004 0200     		.2byte	0x2
 2666 0006 00000000 		.4byte	.Ldebug_info0
 2667 000a 04       		.byte	0x4
ARM GAS  C:\Users\jenny\AppData\Local\Temp\ccnPE0kb.s 			page 48


 2668 000b 00       		.byte	0
 2669 000c 0000     		.2byte	0
 2670 000e 0000     		.2byte	0
 2671 0010 00000000 		.4byte	.LFB7
 2672 0014 32000000 		.4byte	.LFE7-.LFB7
 2673 0018 00000000 		.4byte	.LFB8
 2674 001c 36000000 		.4byte	.LFE8-.LFB8
 2675 0020 00000000 		.4byte	.LFB10
 2676 0024 46010000 		.4byte	.LFE10-.LFB10
 2677 0028 00000000 		.4byte	.LFB9
 2678 002c 18000000 		.4byte	.LFE9-.LFB9
 2679 0030 00000000 		.4byte	.LFB12
 2680 0034 08010000 		.4byte	.LFE12-.LFB12
 2681 0038 00000000 		.4byte	.LFB11
 2682 003c 0E000000 		.4byte	.LFE11-.LFB11
 2683 0040 00000000 		.4byte	0
 2684 0044 00000000 		.4byte	0
 2685              		.section	.debug_ranges,"",%progbits
 2686              	.Ldebug_ranges0:
 2687 0000 00000000 		.4byte	.LFB7
 2688 0004 32000000 		.4byte	.LFE7
 2689 0008 00000000 		.4byte	.LFB8
 2690 000c 36000000 		.4byte	.LFE8
 2691 0010 00000000 		.4byte	.LFB10
 2692 0014 46010000 		.4byte	.LFE10
 2693 0018 00000000 		.4byte	.LFB9
 2694 001c 18000000 		.4byte	.LFE9
 2695 0020 00000000 		.4byte	.LFB12
 2696 0024 08010000 		.4byte	.LFE12
 2697 0028 00000000 		.4byte	.LFB11
 2698 002c 0E000000 		.4byte	.LFE11
 2699 0030 00000000 		.4byte	0
 2700 0034 00000000 		.4byte	0
 2701              		.section	.debug_line,"",%progbits
 2702              	.Ldebug_line0:
 2703 0000 E3020000 		.section	.debug_str,"MS",%progbits,1
 2703      02006D01 
 2703      00000201 
 2703      FB0E0D00 
 2703      01010101 
 2704              	.LASF49:
 2705 0000 70617274 		.ascii	"parts\000"
 2705      7300
 2706              	.LASF52:
 2707 0006 6275666C 		.ascii	"buflen\000"
 2707      656E00
 2708              	.LASF37:
 2709 000d 68776164 		.ascii	"hwaddr\000"
 2709      647200
 2710              	.LASF2:
 2711 0014 696E7438 		.ascii	"int8_t\000"
 2711      5F7400
 2712              	.LASF35:
 2713 001b 73746174 		.ascii	"state\000"
 2713      6500
 2714              	.LASF40:
 2715 0021 6E657469 		.ascii	"netif_output_fn\000"
ARM GAS  C:\Users\jenny\AppData\Local\Temp\ccnPE0kb.s 			page 49


 2715      665F6F75 
 2715      74707574 
 2715      5F666E00 
 2716              	.LASF44:
 2717 0031 69706164 		.ascii	"ipaddr\000"
 2717      647200
 2718              	.LASF5:
 2719 0038 73686F72 		.ascii	"short int\000"
 2719      7420696E 
 2719      7400
 2720              	.LASF32:
 2721 0042 696E7075 		.ascii	"input\000"
 2721      7400
 2722              	.LASF14:
 2723 0048 73697A65 		.ascii	"sizetype\000"
 2723      74797065 
 2723      00
 2724              	.LASF27:
 2725 0051 746F745F 		.ascii	"tot_len\000"
 2725      6C656E00 
 2726              	.LASF56:
 2727 0059 69705F61 		.ascii	"ip_addr_broadcast\000"
 2727      6464725F 
 2727      62726F61 
 2727      64636173 
 2727      7400
 2728              	.LASF58:
 2729 006b 2E2E2F2E 		.ascii	"../../ext/lwip/src/core/ipv4/ip_addr.c\000"
 2729      2E2F6578 
 2729      742F6C77 
 2729      69702F73 
 2729      72632F63 
 2730              	.LASF61:
 2731 0092 706F7274 		.ascii	"port_halt\000"
 2731      5F68616C 
 2731      7400
 2732              	.LASF36:
 2733 009c 68776164 		.ascii	"hwaddr_len\000"
 2733      64725F6C 
 2733      656E00
 2734              	.LASF54:
 2735 00a7 69706164 		.ascii	"ipaddr_ntoa\000"
 2735      64725F6E 
 2735      746F6100 
 2736              	.LASF3:
 2737 00b3 75696E74 		.ascii	"uint8_t\000"
 2737      385F7400 
 2738              	.LASF1:
 2739 00bb 7369676E 		.ascii	"signed char\000"
 2739      65642063 
 2739      68617200 
 2740              	.LASF34:
 2741 00c7 6C696E6B 		.ascii	"linkoutput\000"
 2741      6F757470 
 2741      757400
 2742              	.LASF17:
 2743 00d2 73385F74 		.ascii	"s8_t\000"
ARM GAS  C:\Users\jenny\AppData\Local\Temp\ccnPE0kb.s 			page 50


 2743      00
 2744              	.LASF11:
 2745 00d7 6C6F6E67 		.ascii	"long long int\000"
 2745      206C6F6E 
 2745      6720696E 
 2745      7400
 2746              	.LASF41:
 2747 00e5 6E657469 		.ascii	"netif_linkoutput_fn\000"
 2747      665F6C69 
 2747      6E6B6F75 
 2747      74707574 
 2747      5F666E00 
 2748              	.LASF43:
 2749 00f9 6970345F 		.ascii	"ip4_addr_netmask_valid\000"
 2749      61646472 
 2749      5F6E6574 
 2749      6D61736B 
 2749      5F76616C 
 2750              	.LASF8:
 2751 0110 6C6F6E67 		.ascii	"long int\000"
 2751      20696E74 
 2751      00
 2752              	.LASF20:
 2753 0119 69705F61 		.ascii	"ip_addr_t\000"
 2753      6464725F 
 2753      7400
 2754              	.LASF24:
 2755 0123 61646472 		.ascii	"addr\000"
 2755      00
 2756              	.LASF53:
 2757 0128 735F6164 		.ascii	"s_addr\000"
 2757      647200
 2758              	.LASF38:
 2759 012f 6E616D65 		.ascii	"name\000"
 2759      00
 2760              	.LASF55:
 2761 0134 69705F61 		.ascii	"ip_addr_any\000"
 2761      6464725F 
 2761      616E7900 
 2762              	.LASF39:
 2763 0140 6E657469 		.ascii	"netif_input_fn\000"
 2763      665F696E 
 2763      7075745F 
 2763      666E00
 2764              	.LASF4:
 2765 014f 756E7369 		.ascii	"unsigned char\000"
 2765      676E6564 
 2765      20636861 
 2765      7200
 2766              	.LASF59:
 2767 015d 443A5C6A 		.ascii	"D:\\jenny\\dev\\probe\\chibios\\chibios.workspace\\"
 2767      656E6E79 
 2767      5C646576 
 2767      5C70726F 
 2767      62655C63 
 2768 018a 64656D6F 		.ascii	"demos\\ARMCM4-STM32F407-LWIP-FATFS-USB\000"
 2768      735C4152 
ARM GAS  C:\Users\jenny\AppData\Local\Temp\ccnPE0kb.s 			page 51


 2768      4D434D34 
 2768      2D53544D 
 2768      33324634 
 2769              	.LASF29:
 2770 01b0 666C6167 		.ascii	"flags\000"
 2770      7300
 2771              	.LASF12:
 2772 01b6 6C6F6E67 		.ascii	"long long unsigned int\000"
 2772      206C6F6E 
 2772      6720756E 
 2772      7369676E 
 2772      65642069 
 2773              	.LASF9:
 2774 01cd 75696E74 		.ascii	"uint32_t\000"
 2774      33325F74 
 2774      00
 2775              	.LASF0:
 2776 01d6 756E7369 		.ascii	"unsigned int\000"
 2776      676E6564 
 2776      20696E74 
 2776      00
 2777              	.LASF57:
 2778 01e3 474E5520 		.ascii	"GNU C 4.7.4 20130913 (release) [ARM/embedded-4_7-br"
 2778      4320342E 
 2778      372E3420 
 2778      32303133 
 2778      30393133 
 2779 0216 616E6368 		.ascii	"anch revision 202601]\000"
 2779      20726576 
 2779      6973696F 
 2779      6E203230 
 2779      32363031 
 2780              	.LASF60:
 2781 022c 6C776970 		.ascii	"lwip_htonl\000"
 2781      5F68746F 
 2781      6E6C00
 2782              	.LASF7:
 2783 0237 73686F72 		.ascii	"short unsigned int\000"
 2783      7420756E 
 2783      7369676E 
 2783      65642069 
 2783      6E7400
 2784              	.LASF21:
 2785 024a 6572725F 		.ascii	"err_t\000"
 2785      7400
 2786              	.LASF15:
 2787 0250 63686172 		.ascii	"char\000"
 2787      00
 2788              	.LASF6:
 2789 0255 75696E74 		.ascii	"uint16_t\000"
 2789      31365F74 
 2789      00
 2790              	.LASF28:
 2791 025e 74797065 		.ascii	"type\000"
 2791      00
 2792              	.LASF13:
 2793 0263 5F426F6F 		.ascii	"_Bool\000"
ARM GAS  C:\Users\jenny\AppData\Local\Temp\ccnPE0kb.s 			page 52


 2793      6C00
 2794              	.LASF42:
 2795 0269 6970345F 		.ascii	"ip4_addr_isbroadcast\000"
 2795      61646472 
 2795      5F697362 
 2795      726F6164 
 2795      63617374 
 2796              	.LASF10:
 2797 027e 6C6F6E67 		.ascii	"long unsigned int\000"
 2797      20756E73 
 2797      69676E65 
 2797      6420696E 
 2797      7400
 2798              	.LASF30:
 2799 0290 6E657469 		.ascii	"netif\000"
 2799      6600
 2800              	.LASF45:
 2801 0296 6D61736B 		.ascii	"mask\000"
 2801      00
 2802              	.LASF31:
 2803 029b 6E65746D 		.ascii	"netmask\000"
 2803      61736B00 
 2804              	.LASF19:
 2805 02a3 7533325F 		.ascii	"u32_t\000"
 2805      7400
 2806              	.LASF50:
 2807 02a9 69706164 		.ascii	"ipaddr_addr\000"
 2807      64725F61 
 2807      64647200 
 2808              	.LASF18:
 2809 02b5 7531365F 		.ascii	"u16_t\000"
 2809      7400
 2810              	.LASF51:
 2811 02bb 69706164 		.ascii	"ipaddr_ntoa_r\000"
 2811      64725F6E 
 2811      746F615F 
 2811      7200
 2812              	.LASF33:
 2813 02c9 6F757470 		.ascii	"output\000"
 2813      757400
 2814              	.LASF47:
 2815 02d0 69706164 		.ascii	"ipaddr_aton\000"
 2815      64725F61 
 2815      746F6E00 
 2816              	.LASF16:
 2817 02dc 75385F74 		.ascii	"u8_t\000"
 2817      00
 2818              	.LASF48:
 2819 02e1 62617365 		.ascii	"base\000"
 2819      00
 2820              	.LASF22:
 2821 02e6 69705F61 		.ascii	"ip_addr\000"
 2821      64647200 
 2822              	.LASF46:
 2823 02ee 6E6D5F68 		.ascii	"nm_hostorder\000"
 2823      6F73746F 
 2823      72646572 
ARM GAS  C:\Users\jenny\AppData\Local\Temp\ccnPE0kb.s 			page 53


 2823      00
 2824              	.LASF26:
 2825 02fb 7061796C 		.ascii	"payload\000"
 2825      6F616400 
 2826              	.LASF25:
 2827 0303 6E657874 		.ascii	"next\000"
 2827      00
 2828              	.LASF23:
 2829 0308 70627566 		.ascii	"pbuf\000"
 2829      00
 2830              		.ident	"GCC: (GNU Tools for ARM Embedded Processors) 4.7.4 20130913 (release) [ARM/embedded-4_7-br
ARM GAS  C:\Users\jenny\AppData\Local\Temp\ccnPE0kb.s 			page 54


DEFINED SYMBOLS
                            *ABS*:00000000 ip_addr.c
C:\Users\jenny\AppData\Local\Temp\ccnPE0kb.s:20     .text.ip4_addr_isbroadcast:00000000 $t
C:\Users\jenny\AppData\Local\Temp\ccnPE0kb.s:26     .text.ip4_addr_isbroadcast:00000000 ip4_addr_isbroadcast
C:\Users\jenny\AppData\Local\Temp\ccnPE0kb.s:73     .text.ip4_addr_netmask_valid:00000000 $t
C:\Users\jenny\AppData\Local\Temp\ccnPE0kb.s:79     .text.ip4_addr_netmask_valid:00000000 ip4_addr_netmask_valid
C:\Users\jenny\AppData\Local\Temp\ccnPE0kb.s:147    .text.ipaddr_aton:00000000 $t
C:\Users\jenny\AppData\Local\Temp\ccnPE0kb.s:153    .text.ipaddr_aton:00000000 ipaddr_aton
C:\Users\jenny\AppData\Local\Temp\ccnPE0kb.s:359    .text.ipaddr_aton:000000dc $d
C:\Users\jenny\AppData\Local\Temp\ccnPE0kb.s:366    .text.ipaddr_aton:000000f0 $t
C:\Users\jenny\AppData\Local\Temp\ccnPE0kb.s:427    .text.ipaddr_addr:00000000 $t
C:\Users\jenny\AppData\Local\Temp\ccnPE0kb.s:433    .text.ipaddr_addr:00000000 ipaddr_addr
C:\Users\jenny\AppData\Local\Temp\ccnPE0kb.s:466    .text.ipaddr_ntoa_r:00000000 $t
C:\Users\jenny\AppData\Local\Temp\ccnPE0kb.s:472    .text.ipaddr_ntoa_r:00000000 ipaddr_ntoa_r
C:\Users\jenny\AppData\Local\Temp\ccnPE0kb.s:671    .text.ipaddr_ntoa:00000000 $t
C:\Users\jenny\AppData\Local\Temp\ccnPE0kb.s:677    .text.ipaddr_ntoa:00000000 ipaddr_ntoa
C:\Users\jenny\AppData\Local\Temp\ccnPE0kb.s:706    .bss.str.5050:00000000 .LANCHOR0
C:\Users\jenny\AppData\Local\Temp\ccnPE0kb.s:702    .rodata.ip_addr_broadcast:00000000 ip_addr_broadcast
C:\Users\jenny\AppData\Local\Temp\ccnPE0kb.s:715    .rodata.ip_addr_any:00000000 ip_addr_any
C:\Users\jenny\AppData\Local\Temp\ccnPE0kb.s:699    .rodata.ip_addr_broadcast:00000000 $d
C:\Users\jenny\AppData\Local\Temp\ccnPE0kb.s:705    .bss.str.5050:00000000 $d
C:\Users\jenny\AppData\Local\Temp\ccnPE0kb.s:709    .bss.str.5050:00000000 str.5050
C:\Users\jenny\AppData\Local\Temp\ccnPE0kb.s:712    .rodata.ip_addr_any:00000000 $d
                     .debug_frame:00000010 $d

UNDEFINED SYMBOLS
lwip_htonl
port_halt
