ARM GAS  C:\Users\jenny\AppData\Local\Temp\ccnPE0kb.s 			page 1


   1              		.syntax unified
   2              		.cpu cortex-m4
   3              		.eabi_attribute 27, 3
   4              		.fpu fpv4-sp-d16
   5              		.eabi_attribute 20, 1
   6              		.eabi_attribute 21, 1
   7              		.eabi_attribute 23, 3
   8              		.eabi_attribute 24, 1
   9              		.eabi_attribute 25, 1
  10              		.eabi_attribute 26, 1
  11              		.eabi_attribute 30, 2
  12              		.eabi_attribute 34, 1
  13              		.eabi_attribute 18, 4
  14              		.thumb
  15              		.file	"ip_addr.c"
  16              		.text
  17              	.Ltext0:
  18              		.cfi_sections	.debug_frame
  19              		.section	.text.ip4_addr_isbroadcast,"ax",%progbits
  20              		.align	2
  21              		.p2align 4,,15
  22              		.global	ip4_addr_isbroadcast
  23              		.thumb
  24              		.thumb_func
  25              		.type	ip4_addr_isbroadcast, %function
  26              	ip4_addr_isbroadcast:
  27              	.LFB7:
  28              		.file 1 "../../ext/lwip/src/core/ipv4/ip_addr.c"
  29              		.loc 1 56 0
  30              		.cfi_startproc
  31              		@ args = 0, pretend = 0, frame = 0
  32              		@ frame_needed = 0, uses_anonymous_args = 0
  33              		@ link register save eliminated.
  34              	.LVL0:
  35              		.loc 1 61 0
  36 0000 431E     		subs	r3, r0, #1
  37 0002 0333     		adds	r3, r3, #3
  38 0004 13D8     		bhi	.L5
  39              		.loc 1 65 0
  40 0006 91F82920 		ldrb	r2, [r1, #41]	@ zero_extendqisi2
  41 000a 02F00203 		and	r3, r2, #2
  42 000e DAB2     		uxtb	r2, r3
  43 0010 5AB1     		cbz	r2, .L7
  44              		.loc 1 70 0
  45 0012 4B68     		ldr	r3, [r1, #4]
  46 0014 8342     		cmp	r3, r0
  47 0016 08D0     		beq	.L7
  48              		.loc 1 73 0
  49 0018 8968     		ldr	r1, [r1, #8]
  50              	.LVL1:
  51 001a 80EA0302 		eor	r2, r0, r3
  52 001e 0A42     		tst	r2, r1
  53 0020 03D1     		bne	.L7
  54              		.loc 1 75 0
  55 0022 CB43     		mvns	r3, r1
  56 0024 1840     		ands	r0, r0, r3
  57              	.LVL2:
ARM GAS  C:\Users\jenny\AppData\Local\Temp\ccnPE0kb.s 			page 2


  58 0026 8342     		cmp	r3, r0
  59 0028 01D0     		beq	.L5
  60              	.L7:
  61              		.loc 1 68 0
  62 002a 0020     		movs	r0, #0
  63              		.loc 1 82 0
  64 002c 7047     		bx	lr
  65              	.L5:
  66              		.loc 1 63 0
  67 002e 0120     		movs	r0, #1
  68 0030 7047     		bx	lr
  69              		.cfi_endproc
  70              	.LFE7:
  71              		.size	ip4_addr_isbroadcast, .-ip4_addr_isbroadcast
  72 0032 00BFAFF3 		.section	.text.ip4_addr_netmask_valid,"ax",%progbits
  72      0080AFF3 
  72      0080AFF3 
  72      0080
  73              		.align	2
  74              		.p2align 4,,15
  75              		.global	ip4_addr_netmask_valid
  76              		.thumb
  77              		.thumb_func
  78              		.type	ip4_addr_netmask_valid, %function
  79              	ip4_addr_netmask_valid:
  80              	.LFB8:
  81              		.loc 1 91 0
  82              		.cfi_startproc
  83              		@ args = 0, pretend = 0, frame = 0
  84              		@ frame_needed = 0, uses_anonymous_args = 0
  85              	.LVL3:
  86 0000 08B5     		push	{r3, lr}
  87              	.LCFI0:
  88              		.cfi_def_cfa_offset 8
  89              		.cfi_offset 3, -8
  90              		.cfi_offset 14, -4
  91              		.loc 1 93 0
  92 0002 FFF7FEFF 		bl	lwip_htonl
  93              	.LVL4:
  94 0006 2021     		movs	r1, #32
  95              		.loc 1 96 0
  96 0008 4FF00043 		mov	r3, #-2147483648
  97 000c 05E0     		b	.L13
  98              	.LVL5:
  99              	.L10:
 100 000e 5B08     		lsrs	r3, r3, #1
 101              	.LVL6:
 102              		.loc 1 97 0
 103 0010 0342     		tst	r3, r0
 104 0012 06D0     		beq	.L21
 105              		.loc 1 96 0
 106 0014 5B08     		lsrs	r3, r3, #1
 107              	.LVL7:
 108 0016 511E     		subs	r1, r2, #1
 109 0018 09D0     		beq	.L23
 110              	.LVL8:
 111              	.L13:
ARM GAS  C:\Users\jenny\AppData\Local\Temp\ccnPE0kb.s 			page 3


 112              		.loc 1 97 0
 113 001a 0342     		tst	r3, r0
 114 001c 01F1FF32 		add	r2, r1, #-1
 115 0020 F5D1     		bne	.L10
 116              	.L21:
 117              	.LVL9:
 118              		.loc 1 102 0 discriminator 1
 119 0022 13B9     		cbnz	r3, .L20
 120 0024 03E0     		b	.L23
 121              	.L15:
 122              		.loc 1 103 0
 123 0026 1842     		tst	r0, r3
 124 0028 03D1     		bne	.L16
 125              	.L20:
 126              	.LVL10:
 127              		.loc 1 102 0
 128 002a 5B08     		lsrs	r3, r3, #1
 129              	.LVL11:
 130 002c FBD1     		bne	.L15
 131              	.L23:
 132              		.loc 1 109 0
 133 002e 0120     		movs	r0, #1
 134              	.LVL12:
 135 0030 08BD     		pop	{r3, pc}
 136              	.LVL13:
 137              	.L16:
 138              		.loc 1 105 0
 139 0032 0020     		movs	r0, #0
 140              	.LVL14:
 141              		.loc 1 110 0
 142 0034 08BD     		pop	{r3, pc}
 143              		.cfi_endproc
 144              	.LFE8:
 145              		.size	ip4_addr_netmask_valid, .-ip4_addr_netmask_valid
 146 0036 00BFAFF3 		.section	.text.ipaddr_aton,"ax",%progbits
 146      0080AFF3 
 146      0080
 147              		.align	2
 148              		.p2align 4,,15
 149              		.global	ipaddr_aton
 150              		.thumb
 151              		.thumb_func
 152              		.type	ipaddr_aton, %function
 153              	ipaddr_aton:
 154              	.LFB10:
 155              		.loc 1 153 0
 156              		.cfi_startproc
 157              		@ args = 0, pretend = 0, frame = 16
 158              		@ frame_needed = 0, uses_anonymous_args = 0
 159              	.LVL15:
 160 0000 2DE9F041 		push	{r4, r5, r6, r7, r8, lr}
 161              	.LCFI1:
 162              		.cfi_def_cfa_offset 24
 163              		.cfi_offset 4, -24
 164              		.cfi_offset 5, -20
 165              		.cfi_offset 6, -16
 166              		.cfi_offset 7, -12
ARM GAS  C:\Users\jenny\AppData\Local\Temp\ccnPE0kb.s 			page 4


 167              		.cfi_offset 8, -8
 168              		.cfi_offset 14, -4
 169              		.loc 1 160 0
 170 0004 0378     		ldrb	r3, [r0, #0]	@ zero_extendqisi2
 171              		.loc 1 167 0
 172 0006 A3F13004 		sub	r4, r3, #48
 173              		.loc 1 153 0
 174 000a 8846     		mov	r8, r1
 175              		.loc 1 167 0
 176 000c E1B2     		uxtb	r1, r4
 177              	.LVL16:
 178 000e 0929     		cmp	r1, #9
 179              		.loc 1 153 0
 180 0010 84B0     		sub	sp, sp, #16
 181              	.LCFI2:
 182              		.cfi_def_cfa_offset 40
 183              	.LVL17:
 184              		.loc 1 153 0
 185 0012 0246     		mov	r2, r0
 186              		.loc 1 167 0
 187 0014 37D8     		bhi	.L50
 188              		.loc 1 158 0
 189 0016 6946     		mov	r1, sp
 190 0018 6F46     		mov	r7, sp
 191              		.loc 1 152 0
 192 001a 0DF10C0C 		add	ip, sp, #12
 193              	.LVL18:
 194              	.L25:
 195              		.loc 1 171 0
 196 001e 302B     		cmp	r3, #48
 197 0020 36D0     		beq	.L78
 198              		.loc 1 170 0
 199 0022 0A26     		movs	r6, #10
 200              	.LVL19:
 201              	.L27:
 202              		.loc 1 174 0
 203 0024 0025     		movs	r5, #0
 204 0026 06E0     		b	.L29
 205              	.LVL20:
 206              	.L79:
 207              		.loc 1 181 0
 208 0028 06FB0535 		mla	r5, r6, r5, r3
 209              	.LVL21:
 210              		.loc 1 182 0
 211 002c 5378     		ldrb	r3, [r2, #1]	@ zero_extendqisi2
 212              	.LVL22:
 213              		.loc 1 181 0
 214 002e 303D     		subs	r5, r5, #48
 215              	.LVL23:
 216              	.L31:
 217 0030 0132     		adds	r2, r2, #1
 218 0032 A3F13004 		sub	r4, r3, #48
 219              	.LVL24:
 220              	.L29:
 221              		.loc 1 180 0
 222 0036 E4B2     		uxtb	r4, r4
 223 0038 092C     		cmp	r4, #9
ARM GAS  C:\Users\jenny\AppData\Local\Temp\ccnPE0kb.s 			page 5


 224 003a F5D9     		bls	.L79
 225              		.loc 1 183 0
 226 003c 102E     		cmp	r6, #16
 227 003e 15D1     		bne	.L32
 228              		.loc 1 183 0 is_stmt 0 discriminator 1
 229 0040 A3F16100 		sub	r0, r3, #97
 230 0044 C0B2     		uxtb	r0, r0
 231 0046 0528     		cmp	r0, #5
 232 0048 0CD9     		bls	.L33
 233 004a A3F14104 		sub	r4, r3, #65
 234 004e 052C     		cmp	r4, #5
 235 0050 0CD8     		bhi	.L32
 236              		.loc 1 184 0 is_stmt 1
 237 0052 2D01     		lsls	r5, r5, #4
 238              	.LVL25:
 239 0054 0A33     		adds	r3, r3, #10
 240              	.LVL26:
 241 0056 1928     		cmp	r0, #25
 242 0058 06D9     		bls	.L44
 243 005a 4124     		movs	r4, #65
 244              	.LVL27:
 245              	.L34:
 246              		.loc 1 184 0 is_stmt 0 discriminator 3
 247 005c 1B1B     		subs	r3, r3, r4
 248 005e 1D43     		orrs	r5, r5, r3
 249              	.LVL28:
 250              		.loc 1 185 0 is_stmt 1 discriminator 3
 251 0060 5378     		ldrb	r3, [r2, #1]	@ zero_extendqisi2
 252              	.LVL29:
 253 0062 E5E7     		b	.L31
 254              	.LVL30:
 255              	.L33:
 256              		.loc 1 184 0
 257 0064 2D01     		lsls	r5, r5, #4
 258              	.LVL31:
 259 0066 0A33     		adds	r3, r3, #10
 260              	.LVL32:
 261              	.L44:
 262 0068 6124     		movs	r4, #97
 263 006a F7E7     		b	.L34
 264              	.LVL33:
 265              	.L32:
 266              		.loc 1 189 0
 267 006c 2E2B     		cmp	r3, #46
 268 006e 1FD1     		bne	.L35
 269              		.loc 1 196 0
 270 0070 6745     		cmp	r7, ip
 271 0072 08D0     		beq	.L50
 272              		.loc 1 200 0
 273 0074 5378     		ldrb	r3, [r2, #1]	@ zero_extendqisi2
 274              	.LVL34:
 275              		.loc 1 199 0
 276 0076 47F8045B 		str	r5, [r7], #4
 277              	.LVL35:
 278              		.loc 1 167 0
 279 007a A3F13004 		sub	r4, r3, #48
 280 007e E0B2     		uxtb	r0, r4
ARM GAS  C:\Users\jenny\AppData\Local\Temp\ccnPE0kb.s 			page 6


 281              		.loc 1 200 0
 282 0080 0132     		adds	r2, r2, #1
 283              	.LVL36:
 284              		.loc 1 167 0
 285 0082 0928     		cmp	r0, #9
 286 0084 CBD9     		bls	.L25
 287              	.LVL37:
 288              	.L50:
 289              		.loc 1 217 0
 290 0086 0021     		movs	r1, #0
 291              	.L77:
 292              		.loc 1 250 0
 293 0088 0846     		mov	r0, r1
 294 008a 04B0     		add	sp, sp, #16
 295 008c BDE8F081 		pop	{r4, r5, r6, r7, r8, pc}
 296              	.LVL38:
 297              	.L78:
 298              		.loc 1 172 0
 299 0090 5378     		ldrb	r3, [r2, #1]	@ zero_extendqisi2
 300              	.LVL39:
 301              		.loc 1 173 0
 302 0092 782B     		cmp	r3, #120
 303 0094 06D0     		beq	.L28
 304              		.loc 1 173 0 is_stmt 0 discriminator 1
 305 0096 582B     		cmp	r3, #88
 306 0098 04D0     		beq	.L28
 307              		.loc 1 172 0 is_stmt 1
 308 009a 0132     		adds	r2, r2, #1
 309              	.LVL40:
 310              		.loc 1 177 0
 311 009c 0826     		movs	r6, #8
 312 009e A3F13004 		sub	r4, r3, #48
 313 00a2 BFE7     		b	.L27
 314              	.LVL41:
 315              	.L28:
 316              		.loc 1 175 0
 317 00a4 9378     		ldrb	r3, [r2, #2]	@ zero_extendqisi2
 318              	.LVL42:
 319              		.loc 1 174 0
 320 00a6 1026     		movs	r6, #16
 321              		.loc 1 175 0
 322 00a8 0232     		adds	r2, r2, #2
 323              	.LVL43:
 324 00aa A3F13004 		sub	r4, r3, #48
 325 00ae B9E7     		b	.L27
 326              	.LVL44:
 327              	.L35:
 328              		.loc 1 207 0
 329 00b0 5BB1     		cbz	r3, .L37
 330              		.loc 1 207 0 is_stmt 0 discriminator 1
 331 00b2 202B     		cmp	r3, #32
 332 00b4 09D0     		beq	.L37
 333 00b6 0C2B     		cmp	r3, #12
 334 00b8 07D0     		beq	.L37
 335 00ba 0A2B     		cmp	r3, #10
 336 00bc 05D0     		beq	.L37
 337              		.loc 1 207 0 discriminator 2
ARM GAS  C:\Users\jenny\AppData\Local\Temp\ccnPE0kb.s 			page 7


 338 00be 0D2B     		cmp	r3, #13
 339 00c0 03D0     		beq	.L37
 340              		.loc 1 207 0 discriminator 3
 341 00c2 092B     		cmp	r3, #9
 342 00c4 01D0     		beq	.L37
 343              		.loc 1 207 0 discriminator 4
 344 00c6 0B2B     		cmp	r3, #11
 345 00c8 DDD1     		bne	.L50
 346              	.L37:
 347              		.loc 1 214 0 is_stmt 1
 348 00ca 7B1A     		subs	r3, r7, r1
 349              	.LVL45:
 350 00cc 9A10     		asrs	r2, r3, #2
 351              	.LVL46:
 352 00ce 511C     		adds	r1, r2, #1
 353 00d0 0429     		cmp	r1, #4
 354 00d2 33D8     		bhi	.L38
 355 00d4 01A2     		adr	r2, .L43
 356 00d6 52F821F0 		ldr	pc, [r2, r1, lsl #2]
 357 00da 00BF     		.align	2
 358              	.L43:
 359 00dc 87000000 		.word	.L50+1
 360 00e0 FD000000 		.word	.L39+1
 361 00e4 F1000000 		.word	.L40+1
 362 00e8 29010000 		.word	.L41+1
 363 00ec 11010000 		.word	.L42+1
 364              	.L40:
 365              		.loc 1 223 0
 366 00f0 B5F1807F 		cmp	r5, #16777216
 367 00f4 C7D2     		bcs	.L50
 368              		.loc 1 226 0
 369 00f6 009B     		ldr	r3, [sp, #0]
 370 00f8 45EA0365 		orr	r5, r5, r3, lsl #24
 371              	.LVL47:
 372              	.L39:
 373              		.loc 1 246 0
 374 00fc B8F1000F 		cmp	r8, #0
 375 0100 1FD0     		beq	.L51
 376              		.loc 1 247 0
 377 0102 2846     		mov	r0, r5
 378 0104 FFF7FEFF 		bl	lwip_htonl
 379              	.LVL48:
 380              		.loc 1 249 0
 381 0108 0121     		movs	r1, #1
 382              		.loc 1 247 0
 383 010a C8F80000 		str	r0, [r8, #0]
 384 010e BBE7     		b	.L77
 385              	.L42:
 386              		.loc 1 237 0
 387 0110 FF2D     		cmp	r5, #255
 388 0112 B8D8     		bhi	.L50
 389              		.loc 1 240 0
 390 0114 0098     		ldr	r0, [sp, #0]
 391 0116 019B     		ldr	r3, [sp, #4]
 392 0118 0206     		lsls	r2, r0, #24
 393 011a 0298     		ldr	r0, [sp, #8]
 394 011c 42EA0341 		orr	r1, r2, r3, lsl #16
ARM GAS  C:\Users\jenny\AppData\Local\Temp\ccnPE0kb.s 			page 8


 395 0120 41EA0022 		orr	r2, r1, r0, lsl #8
 396 0124 1543     		orrs	r5, r5, r2
 397              	.LVL49:
 398              		.loc 1 241 0
 399 0126 E9E7     		b	.L39
 400              	.L41:
 401              		.loc 1 230 0
 402 0128 B5F5803F 		cmp	r5, #65536
 403 012c ABD2     		bcs	.L50
 404              		.loc 1 233 0
 405 012e 009B     		ldr	r3, [sp, #0]
 406 0130 0198     		ldr	r0, [sp, #4]
 407 0132 1906     		lsls	r1, r3, #24
 408 0134 41EA0042 		orr	r2, r1, r0, lsl #16
 409 0138 1543     		orrs	r5, r5, r2
 410              	.LVL50:
 411              		.loc 1 234 0
 412 013a DFE7     		b	.L39
 413              	.L38:
 414              		.loc 1 243 0 discriminator 1
 415 013c FFF7FEFF 		bl	port_halt
 416              	.LVL51:
 417              		.loc 1 244 0 discriminator 1
 418 0140 DCE7     		b	.L39
 419              	.L51:
 420              		.loc 1 249 0
 421 0142 0121     		movs	r1, #1
 422 0144 A0E7     		b	.L77
 423              		.cfi_endproc
 424              	.LFE10:
 425              		.size	ipaddr_aton, .-ipaddr_aton
 426 0146 00BFAFF3 		.section	.text.ipaddr_addr,"ax",%progbits
 426      0080AFF3 
 426      0080
 427              		.align	2
 428              		.p2align 4,,15
 429              		.global	ipaddr_addr
 430              		.thumb
 431              		.thumb_func
 432              		.type	ipaddr_addr, %function
 433              	ipaddr_addr:
 434              	.LFB9:
 435              		.loc 1 131 0
 436              		.cfi_startproc
 437              		@ args = 0, pretend = 0, frame = 8
 438              		@ frame_needed = 0, uses_anonymous_args = 0
 439              	.LVL52:
 440 0000 00B5     		push	{lr}
 441              	.LCFI3:
 442              		.cfi_def_cfa_offset 4
 443              		.cfi_offset 14, -4
 444 0002 83B0     		sub	sp, sp, #12
 445              	.LCFI4:
 446              		.cfi_def_cfa_offset 16
 447              		.loc 1 134 0
 448 0004 01A9     		add	r1, sp, #4
 449 0006 FFF7FEFF 		bl	ipaddr_aton
ARM GAS  C:\Users\jenny\AppData\Local\Temp\ccnPE0kb.s 			page 9


 450              	.LVL53:
 451 000a 18B9     		cbnz	r0, .L83
 452              		.loc 1 137 0
 453 000c 4FF0FF30 		mov	r0, #-1
 454              	.L81:
 455              		.loc 1 138 0
 456 0010 03B0     		add	sp, sp, #12
 457 0012 00BD     		pop	{pc}
 458              	.L83:
 459              		.loc 1 135 0
 460 0014 0198     		ldr	r0, [sp, #4]
 461 0016 FBE7     		b	.L81
 462              		.cfi_endproc
 463              	.LFE9:
 464              		.size	ipaddr_addr, .-ipaddr_addr
 465 0018 AFF30080 		.section	.text.ipaddr_ntoa_r,"ax",%progbits
 465      AFF30080 
 466              		.align	2
 467              		.p2align 4,,15
 468              		.global	ipaddr_ntoa_r
 469              		.thumb
 470              		.thumb_func
 471              		.type	ipaddr_ntoa_r, %function
 472              	ipaddr_ntoa_r:
 473              	.LFB12:
 474              		.loc 1 277 0
 475              		.cfi_startproc
 476              		@ args = 0, pretend = 0, frame = 8
 477              		@ frame_needed = 0, uses_anonymous_args = 0
 478              		@ link register save eliminated.
 479              	.LVL54:
 480 0000 2DE9F00F 		push	{r4, r5, r6, r7, r8, r9, sl, fp}
 481              	.LCFI5:
 482              		.cfi_def_cfa_offset 32
 483              		.cfi_offset 4, -32
 484              		.cfi_offset 5, -28
 485              		.cfi_offset 6, -24
 486              		.cfi_offset 7, -20
 487              		.cfi_offset 8, -16
 488              		.cfi_offset 9, -12
 489              		.cfi_offset 10, -8
 490              		.cfi_offset 11, -4
 491              		.loc 1 287 0
 492 0004 0368     		ldr	r3, [r0, #0]
 493              		.loc 1 277 0
 494 0006 82B0     		sub	sp, sp, #8
 495              	.LCFI6:
 496              		.cfi_def_cfa_offset 40
 497              		.loc 1 294 0
 498 0008 4CF6CD48 		movw	r8, #52429
 499              		.loc 1 287 0
 500 000c 0193     		str	r3, [sp, #4]
 501              	.LVL55:
 502              		.loc 1 276 0
 503 000e 0DF1030A 		add	sl, sp, #3
 504 0012 0DF10700 		add	r0, sp, #7
 505              	.LVL56:
ARM GAS  C:\Users\jenny\AppData\Local\Temp\ccnPE0kb.s 			page 10


 506              		.loc 1 289 0
 507 0016 0F46     		mov	r7, r1
 508              		.loc 1 285 0
 509 0018 4FF0000C 		mov	ip, #0
 510              		.loc 1 294 0
 511 001c CCF6CC48 		movt	r8, 52428
 512              		.loc 1 276 0
 513 0020 02F10109 		add	r9, r2, #1
 514              	.LVL57:
 515              	.L91:
 516 0024 9AF80140 		ldrb	r4, [sl, #1]	@ zero_extendqisi2
 517              		.loc 1 276 0 is_stmt 0 discriminator 1
 518 0028 0026     		movs	r6, #0
 519 002a 00E0     		b	.L85
 520              	.LVL58:
 521              	.L92:
 522              		.loc 1 296 0 is_stmt 1
 523 002c 5E46     		mov	r6, fp
 524              	.LVL59:
 525              	.L85:
 526              		.loc 1 294 0 discriminator 1
 527 002e A8FB0453 		umull	r5, r3, r8, r4
 528 0032 DB08     		lsrs	r3, r3, #3
 529 0034 03EB8305 		add	r5, r3, r3, lsl #2
 530 0038 A4EB4505 		sub	r5, r4, r5, lsl #1
 531              	.LVL60:
 532              		.loc 1 296 0 discriminator 1
 533 003c 0DF1080B 		add	fp, sp, #8
 534 0040 0BEB0604 		add	r4, fp, r6
 535 0044 3035     		adds	r5, r5, #48
 536              	.LVL61:
 537 0046 06F1010B 		add	fp, r6, #1
 538 004a 05F0FF05 		and	r5, r5, #255
 539              	.LVL62:
 540 004e 04F8085C 		strb	r5, [r4, #-8]
 541 0052 5FFA8BFB 		uxtb	fp, fp
 542              	.LVL63:
 543              		.loc 1 297 0 discriminator 1
 544 0056 03F0FF04 		and	r4, r3, #255
 545 005a 002B     		cmp	r3, #0
 546 005c E6D1     		bne	.L92
 547 005e 0AF8014F 		strb	r4, [sl, #1]!
 548              	.LVL64:
 549              		.loc 1 298 0
 550 0062 BBF1000F 		cmp	fp, #0
 551 0066 4DD0     		beq	.L93
 552              		.loc 1 299 0
 553 0068 6245     		cmp	r2, ip
 554 006a 0CF10103 		add	r3, ip, #1
 555              	.LVL65:
 556 006e 43DD     		ble	.L87
 557 0070 6FEA030C 		mvn	ip, r3
 558 0074 CC44     		add	ip, ip, r9
 559 0076 013E     		subs	r6, r6, #1
 560              	.LVL66:
 561 0078 1CF0010F 		tst	ip, #1
 562 007c F6B2     		uxtb	r6, r6
ARM GAS  C:\Users\jenny\AppData\Local\Temp\ccnPE0kb.s 			page 11


 563              	.LVL67:
 564 007e 3C46     		mov	r4, r7
 565 0080 1FD0     		beq	.L88
 566              		.loc 1 302 0
 567 0082 3D70     		strb	r5, [r7, #0]
 568 0084 0137     		adds	r7, r7, #1
 569              	.LVL68:
 570              		.loc 1 298 0
 571 0086 FF2E     		cmp	r6, #255
 572              		.loc 1 302 0
 573 0088 3C46     		mov	r4, r7
 574              	.LVL69:
 575              		.loc 1 298 0
 576 008a 27D0     		beq	.L86
 577 008c 02AF     		add	r7, sp, #8
 578 008e BD19     		adds	r5, r7, r6
 579 0090 013E     		subs	r6, r6, #1
 580              	.LVL70:
 581              		.loc 1 299 0
 582 0092 0133     		adds	r3, r3, #1
 583              	.LVL71:
 584 0094 15F8085C 		ldrb	r5, [r5, #-8]	@ zero_extendqisi2
 585 0098 F6B2     		uxtb	r6, r6
 586              	.LVL72:
 587 009a 12E0     		b	.L88
 588              	.LVL73:
 589              	.L90:
 590 009c 0133     		adds	r3, r3, #1
 591              	.LVL74:
 592 009e 4B45     		cmp	r3, r9
 593 00a0 2AD0     		beq	.L87
 594 00a2 1BF8085C 		ldrb	r5, [fp, #-8]	@ zero_extendqisi2
 595              		.loc 1 302 0
 596 00a6 04F8015B 		strb	r5, [r4], #1
 597              	.LVL75:
 598              		.loc 1 298 0
 599 00aa FF2E     		cmp	r6, #255
 600              		.loc 1 302 0
 601 00ac 2746     		mov	r7, r4
 602              	.LVL76:
 603              		.loc 1 298 0
 604 00ae 15D0     		beq	.L86
 605 00b0 0DF1080B 		add	fp, sp, #8
 606 00b4 0BEB0605 		add	r5, fp, r6
 607 00b8 013E     		subs	r6, r6, #1
 608 00ba 15F8085C 		ldrb	r5, [r5, #-8]	@ zero_extendqisi2
 609              		.loc 1 299 0
 610 00be 0133     		adds	r3, r3, #1
 611              	.LVL77:
 612 00c0 F6B2     		uxtb	r6, r6
 613              	.LVL78:
 614              	.L88:
 615 00c2 02AF     		add	r7, sp, #8
 616 00c4 07EB060B 		add	fp, r7, r6
 617              		.loc 1 302 0
 618 00c8 2746     		mov	r7, r4
 619 00ca 06F1FF3C 		add	ip, r6, #-1
ARM GAS  C:\Users\jenny\AppData\Local\Temp\ccnPE0kb.s 			page 12


 620 00ce 07F8015B 		strb	r5, [r7], #1
 621              		.loc 1 298 0
 622 00d2 FF2E     		cmp	r6, #255
 623              		.loc 1 302 0
 624 00d4 3C46     		mov	r4, r7
 625              	.LVL79:
 626 00d6 5FFA8CF6 		uxtb	r6, ip
 627              	.LVL80:
 628              		.loc 1 298 0
 629 00da DFD1     		bne	.L90
 630              	.LVL81:
 631              	.L86:
 632              		.loc 1 304 0
 633 00dc 9A42     		cmp	r2, r3
 634 00de 03F1010C 		add	ip, r3, #1
 635              	.LVL82:
 636 00e2 09DD     		ble	.L87
 637              		.loc 1 307 0
 638 00e4 4FF02E0B 		mov	fp, #46
 639              		.loc 1 291 0
 640 00e8 8245     		cmp	sl, r0
 641              		.loc 1 307 0
 642 00ea 07F801BB 		strb	fp, [r7], #1
 643              	.LVL83:
 644              		.loc 1 291 0
 645 00ee 99D1     		bne	.L91
 646              	.LVL84:
 647              		.loc 1 310 0
 648 00f0 0020     		movs	r0, #0
 649 00f2 07F8010C 		strb	r0, [r7, #-1]
 650 00f6 00E0     		b	.L89
 651              	.LVL85:
 652              	.L87:
 653              		.loc 1 300 0
 654 00f8 0021     		movs	r1, #0
 655              	.LVL86:
 656              	.L89:
 657              		.loc 1 312 0
 658 00fa 0846     		mov	r0, r1
 659 00fc 02B0     		add	sp, sp, #8
 660 00fe BDE8F00F 		pop	{r4, r5, r6, r7, r8, r9, sl, fp}
 661 0102 7047     		bx	lr
 662              	.LVL87:
 663              	.L93:
 664              		.loc 1 298 0
 665 0104 6346     		mov	r3, ip
 666 0106 E9E7     		b	.L86
 667              		.cfi_endproc
 668              	.LFE12:
 669              		.size	ipaddr_ntoa_r, .-ipaddr_ntoa_r
 670 0108 AFF30080 		.section	.text.ipaddr_ntoa,"ax",%progbits
 670      AFF30080 
 671              		.align	2
 672              		.p2align 4,,15
 673              		.global	ipaddr_ntoa
 674              		.thumb
 675              		.thumb_func
ARM GAS  C:\Users\jenny\AppData\Local\Temp\ccnPE0kb.s 			page 13


 676              		.type	ipaddr_ntoa, %function
 677              	ipaddr_ntoa:
 678              	.LFB11:
 679              		.loc 1 262 0
 680              		.cfi_startproc
 681              		@ args = 0, pretend = 0, frame = 0
 682              		@ frame_needed = 0, uses_anonymous_args = 0
 683              		@ link register save eliminated.
 684              	.LVL88:
 685              		.loc 1 264 0
 686 0000 40F20001 		movw	r1, #:lower16:.LANCHOR0
 687 0004 C0F20001 		movt	r1, #:upper16:.LANCHOR0
 688 0008 1022     		movs	r2, #16
 689              		.loc 1 265 0
 690              		.loc 1 264 0
 691 000a FFF7FEBF 		b	ipaddr_ntoa_r
 692              	.LVL89:
 693              		.cfi_endproc
 694              	.LFE11:
 695              		.size	ipaddr_ntoa, .-ipaddr_ntoa
 696              		.global	ip_addr_broadcast
 697              		.global	ip_addr_any
 698 000e 00BF     		.section	.rodata.ip_addr_broadcast,"a",%progbits
 699              		.align	2
 700              		.type	ip_addr_broadcast, %object
 701              		.size	ip_addr_broadcast, 4
 702              	ip_addr_broadcast:
 703 0000 FFFFFFFF 		.word	-1
 704              		.section	.bss.str.5050,"aw",%nobits
 705              		.align	2
 706              		.set	.LANCHOR0,. + 0
 707              		.type	str.5050, %object
 708              		.size	str.5050, 16
 709              	str.5050:
 710 0000 00000000 		.space	16
 710      00000000 
 710      00000000 
 710      00000000 
 711              		.section	.rodata.ip_addr_any,"a",%progbits
 712              		.align	2
 713              		.type	ip_addr_any, %object
 714              		.size	ip_addr_any, 4
 715              	ip_addr_any:
 716 0000 00000000 		.space	4
 717              		.text
 718              	.Letext0:
 719              		.file 2 "c:\\fbin\\yagarto\\bin\\../lib/gcc/arm-none-eabi/4.7.4/../../../../arm-none-eabi/include/
 720              		.file 3 "../../os/various/lwip_bindings/arch/cc.h"
 721              		.file 4 "../../ext/lwip/src/include/ipv4/lwip/ip_addr.h"
 722              		.file 5 "../../ext/lwip/src/include/lwip/err.h"
 723              		.file 6 "../../ext/lwip/src/include/lwip/pbuf.h"
 724              		.file 7 "../../ext/lwip/src/include/lwip/netif.h"
 725              		.file 8 "../../ext/lwip/src/include/lwip/def.h"
 726              		.file 9 "../../os/ports/GCC/ARMCMx/chcore_v7m.h"