ARM GAS  C:\Users\jenny\AppData\Local\Temp\cceNBsfM.s 			page 1


   1              		.syntax unified
   2              		.cpu cortex-m4
   3              		.eabi_attribute 27, 3
   4              		.fpu fpv4-sp-d16
   5              		.eabi_attribute 20, 1
   6              		.eabi_attribute 21, 1
   7              		.eabi_attribute 23, 3
   8              		.eabi_attribute 24, 1
   9              		.eabi_attribute 25, 1
  10              		.eabi_attribute 26, 1
  11              		.eabi_attribute 30, 2
  12              		.eabi_attribute 34, 1
  13              		.eabi_attribute 18, 4
  14              		.thumb
  15              		.file	"main.c"
  16              		.text
  17              	.Ltext0:
  18              		.cfi_sections	.debug_frame
  19              		.section	.text.get_descriptor,"ax",%progbits
  20              		.align	2
  21              		.p2align 4,,15
  22              		.thumb
  23              		.thumb_func
  24              		.type	get_descriptor, %function
  25              	get_descriptor:
  26              	.LFB121:
  27              		.file 1 "main.c"
  28              		.loc 1 340 0
  29              		.cfi_startproc
  30              		@ args = 0, pretend = 0, frame = 0
  31              		@ frame_needed = 0, uses_anonymous_args = 0
  32              		@ link register save eliminated.
  33              	.LVL0:
  34              		.loc 1 344 0
  35 0000 0229     		cmp	r1, #2
  36 0002 06D0     		beq	.L6
  37 0004 0329     		cmp	r1, #3
  38 0006 06D0     		beq	.L5
  39              		.loc 1 353 0
  40 0008 0748     		ldr	r0, .L9
  41              	.LVL1:
  42 000a 0129     		cmp	r1, #1
  43 000c 18BF     		it	ne
  44 000e 0020     		movne	r0, #0
  45 0010 7047     		bx	lr
  46              	.LVL2:
  47              	.L6:
  48              		.loc 1 348 0
  49 0012 0648     		ldr	r0, .L9+4
  50              	.LVL3:
  51 0014 7047     		bx	lr
  52              	.LVL4:
  53              	.L5:
  54              		.loc 1 350 0
  55 0016 032A     		cmp	r2, #3
  56 0018 03D8     		bhi	.L7
  57              		.loc 1 351 0
ARM GAS  C:\Users\jenny\AppData\Local\Temp\cceNBsfM.s 			page 2


  58 001a 0548     		ldr	r0, .L9+8
  59              	.LVL5:
  60 001c 00EBC200 		add	r0, r0, r2, lsl #3
  61 0020 7047     		bx	lr
  62              	.LVL6:
  63              	.L7:
  64              		.loc 1 353 0
  65 0022 0020     		movs	r0, #0
  66              	.LVL7:
  67              		.loc 1 354 0
  68 0024 7047     		bx	lr
  69              	.L10:
  70 0026 00BF     		.align	2
  71              	.L9:
  72 0028 00000000 		.word	.LANCHOR0
  73 002c 00000000 		.word	.LANCHOR1
  74 0030 00000000 		.word	.LANCHOR2
  75              		.cfi_endproc
  76              	.LFE121:
  77              		.size	get_descriptor, .-get_descriptor
  78 0034 AFF30080 		.section	.text.Thread1,"ax",%progbits
  78      AFF30080 
  78      AFF30080 
  79              		.align	2
  80              		.p2align 4,,15
  81              		.thumb
  82              		.thumb_func
  83              		.type	Thread1, %function
  84              	Thread1:
  85              	.LFB129:
  86              		.loc 1 594 0
  87              		.cfi_startproc
  88              		@ args = 0, pretend = 0, frame = 0
  89              		@ frame_needed = 0, uses_anonymous_args = 0
  90              	.LVL8:
  91 0000 38B5     		push	{r3, r4, r5, lr}
  92              	.LCFI0:
  93              		.cfi_def_cfa_offset 16
  94              		.cfi_offset 3, -16
  95              		.cfi_offset 4, -12
  96              		.cfi_offset 5, -8
  97              		.cfi_offset 14, -4
  98              		.loc 1 597 0
  99 0002 0B4B     		ldr	r3, .L15
 100 0004 0B4A     		ldr	r2, .L15+4
 101 0006 9869     		ldr	r0, [r3, #24]
 102              	.LVL9:
 103 0008 0B4D     		ldr	r5, .L15+8
 104 000a 8261     		str	r2, [r0, #24]
 105              		.loc 1 599 0
 106 000c 4FF40064 		mov	r4, #2048
 107 0010 C4F20204 		movt	r4, 16386
 108              	.L13:
 109 0014 6169     		ldr	r1, [r4, #20]
 110              		.loc 1 600 0
 111 0016 2878     		ldrb	r0, [r5, #0]	@ zero_extendqisi2
 112              		.loc 1 599 0
ARM GAS  C:\Users\jenny\AppData\Local\Temp\cceNBsfM.s 			page 3


 113 0018 81F40053 		eor	r3, r1, #8192
 114 001c 6361     		str	r3, [r4, #20]
 115              		.loc 1 600 0
 116 001e 0028     		cmp	r0, #0
 117 0020 0CBF     		ite	eq
 118 0022 4FF4FA70 		moveq	r0, #500
 119 0026 7D20     		movne	r0, #125
 120 0028 FFF7FEFF 		bl	chThdSleep
 121              	.LVL10:
 122              		.loc 1 601 0
 123 002c F2E7     		b	.L13
 124              	.L16:
 125 002e 00BF     		.align	2
 126              	.L15:
 127 0030 00000000 		.word	rlist
 128 0034 00000000 		.word	.LC0
 129 0038 00000000 		.word	.LANCHOR3
 130              		.cfi_endproc
 131              	.LFE129:
 132              		.size	Thread1, .-Thread1
 133 003c AFF30080 		.section	.text.RemoveHandler,"ax",%progbits
 134              		.align	2
 135              		.p2align 4,,15
 136              		.thumb
 137              		.thumb_func
 138              		.type	RemoveHandler, %function
 139              	RemoveHandler:
 140              	.LFB128:
 141              		.loc 1 583 0
 142              		.cfi_startproc
 143              		@ args = 0, pretend = 0, frame = 0
 144              		@ frame_needed = 0, uses_anonymous_args = 0
 145              	.LVL11:
 146              		.loc 1 586 0
 147 0000 40F20000 		movw	r0, #:lower16:SDCD1
 148              	.LVL12:
 149              		.loc 1 583 0
 150 0004 08B5     		push	{r3, lr}
 151              	.LCFI1:
 152              		.cfi_def_cfa_offset 8
 153              		.cfi_offset 3, -8
 154              		.cfi_offset 14, -4
 155              		.loc 1 586 0
 156 0006 C0F20000 		movt	r0, #:upper16:SDCD1
 157 000a FFF7FEFF 		bl	sdcDisconnect
 158              	.LVL13:
 159              		.loc 1 587 0
 160 000e 40F20003 		movw	r3, #:lower16:.LANCHOR3
 161 0012 C0F20003 		movt	r3, #:upper16:.LANCHOR3
 162 0016 0022     		movs	r2, #0
 163 0018 1A70     		strb	r2, [r3, #0]
 164 001a 08BD     		pop	{r3, pc}
 165              		.cfi_endproc
 166              	.LFE128:
 167              		.size	RemoveHandler, .-RemoveHandler
 168 001c AFF30080 		.section	.text.tmrfunc,"ax",%progbits
 169              		.align	2
ARM GAS  C:\Users\jenny\AppData\Local\Temp\cceNBsfM.s 			page 4


 170              		.p2align 4,,15
 171              		.thumb
 172              		.thumb_func
 173              		.type	tmrfunc, %function
 174              	tmrfunc:
 175              	.LFB118:
 176              		.loc 1 61 0
 177              		.cfi_startproc
 178              		@ args = 0, pretend = 0, frame = 0
 179              		@ frame_needed = 0, uses_anonymous_args = 0
 180              	.LVL14:
 181 0000 38B5     		push	{r3, r4, r5, lr}
 182              	.LCFI2:
 183              		.cfi_def_cfa_offset 16
 184              		.cfi_offset 3, -16
 185              		.cfi_offset 4, -12
 186              		.cfi_offset 5, -8
 187              		.cfi_offset 14, -4
 188              		.loc 1 61 0
 189 0002 0446     		mov	r4, r0
 190              	.LVL15:
 191              	.LBB6:
 192              		.loc 1 64 0
 193 0004 2023     		movs	r3, #32
 194              	.LVL16:
 195              	@ 64 "main.c" 1
 196 0006 83F31188 		msr     BASEPRI, r3
 197              	@ 0 "" 2
 198              	.LVL17:
 199              		.thumb
 200              	.LBE6:
 201              		.loc 1 65 0
 202 000a 144D     		ldr	r5, .L25
 203 000c 2B68     		ldr	r3, [r5, #0]
 204              	.LVL18:
 205 000e 8BB1     		cbz	r3, .L19
 206              		.loc 1 66 0
 207 0010 0168     		ldr	r1, [r0, #0]
 208 0012 0A68     		ldr	r2, [r1, #0]
 209 0014 9047     		blx	r2
 210              	.LVL19:
 211 0016 C8B1     		cbz	r0, .L20
 212              		.loc 1 67 0
 213 0018 2B68     		ldr	r3, [r5, #0]
 214 001a 591E     		subs	r1, r3, #1
 215 001c 2960     		str	r1, [r5, #0]
 216 001e C1B1     		cbz	r1, .L24
 217              	.L22:
 218              		.loc 1 80 0
 219 0020 2346     		mov	r3, r4
 220 0022 0F48     		ldr	r0, .L25+4
 221 0024 0F4A     		ldr	r2, .L25+8
 222 0026 0A21     		movs	r1, #10
 223 0028 FFF7FEFF 		bl	chVTSetI
 224              	.LVL20:
 225              	.LBB7:
 226              		.loc 1 81 0
ARM GAS  C:\Users\jenny\AppData\Local\Temp\cceNBsfM.s 			page 5


 227 002c 0023     		movs	r3, #0
 228              	.LVL21:
 229              	@ 81 "main.c" 1
 230 002e 83F31188 		msr     BASEPRI, r3
 231              	@ 0 "" 2
 232              	.LVL22:
 233              		.thumb
 234 0032 38BD     		pop	{r3, r4, r5, pc}
 235              	.LVL23:
 236              	.L19:
 237              	.LBE7:
 238              		.loc 1 75 0
 239 0034 0168     		ldr	r1, [r0, #0]
 240 0036 0A68     		ldr	r2, [r1, #0]
 241 0038 9047     		blx	r2
 242              	.LVL24:
 243 003a 0146     		mov	r1, r0
 244 003c 0028     		cmp	r0, #0
 245 003e EFD1     		bne	.L22
 246              		.loc 1 76 0
 247 0040 0A23     		movs	r3, #10
 248              		.loc 1 77 0
 249 0042 0948     		ldr	r0, .L25+12
 250              		.loc 1 76 0
 251 0044 2B60     		str	r3, [r5, #0]
 252              		.loc 1 77 0
 253 0046 FFF7FEFF 		bl	chEvtBroadcastFlagsI
 254              	.LVL25:
 255 004a E9E7     		b	.L22
 256              	.L20:
 257              		.loc 1 72 0
 258 004c 0A20     		movs	r0, #10
 259 004e 2860     		str	r0, [r5, #0]
 260 0050 E6E7     		b	.L22
 261              	.L24:
 262              		.loc 1 68 0
 263 0052 0648     		ldr	r0, .L25+16
 264 0054 FFF7FEFF 		bl	chEvtBroadcastFlagsI
 265              	.LVL26:
 266 0058 E2E7     		b	.L22
 267              	.L26:
 268 005a 00BF     		.align	2
 269              	.L25:
 270 005c 00000000 		.word	.LANCHOR4
 271 0060 00000000 		.word	.LANCHOR7
 272 0064 00000000 		.word	tmrfunc
 273 0068 00000000 		.word	.LANCHOR6
 274 006c 00000000 		.word	.LANCHOR5
 275              		.cfi_endproc
 276              	.LFE118:
 277              		.size	tmrfunc, .-tmrfunc
 278              		.section	.text.cmd_test,"ax",%progbits
 279              		.align	2
 280              		.p2align 4,,15
 281              		.thumb
 282              		.thumb_func
 283              		.type	cmd_test, %function
ARM GAS  C:\Users\jenny\AppData\Local\Temp\cceNBsfM.s 			page 6


 284              	cmd_test:
 285              	.LFB125:
 286              		.loc 1 498 0
 287              		.cfi_startproc
 288              		@ args = 0, pretend = 0, frame = 0
 289              		@ frame_needed = 0, uses_anonymous_args = 0
 290              	.LVL27:
 291 0000 10B5     		push	{r4, lr}
 292              	.LCFI3:
 293              		.cfi_def_cfa_offset 8
 294              		.cfi_offset 4, -8
 295              		.cfi_offset 14, -4
 296              		.loc 1 502 0
 297 0002 0029     		cmp	r1, #0
 298              		.loc 1 498 0
 299 0004 82B0     		sub	sp, sp, #8
 300              	.LCFI4:
 301              		.cfi_def_cfa_offset 16
 302              		.loc 1 498 0
 303 0006 0446     		mov	r4, r0
 304              		.loc 1 502 0
 305 0008 05DD     		ble	.L28
 306              		.loc 1 503 0
 307 000a 0E49     		ldr	r1, .L31
 308              	.LVL28:
 309              		.loc 1 513 0
 310 000c 02B0     		add	sp, sp, #8
 311 000e BDE81040 		pop	{r4, lr}
 312              		.loc 1 503 0
 313 0012 FFF7FEBF 		b	chprintf
 314              	.LVL29:
 315              	.L28:
 316              	.LBB10:
 317              	.LBB11:
 318              		.loc 1 506 0
 319 0016 0C4A     		ldr	r2, .L31+4
 320              	.LVL30:
 321 0018 0C4B     		ldr	r3, .L31+8
 322 001a 9069     		ldr	r0, [r2, #24]
 323              	.LVL31:
 324 001c 4FF40E71 		mov	r1, #568
 325              	.LVL32:
 326 0020 8268     		ldr	r2, [r0, #8]
 327 0022 0094     		str	r4, [sp, #0]
 328 0024 0020     		movs	r0, #0
 329 0026 FFF7FEFF 		bl	chThdCreateFromHeap
 330              	.LVL33:
 331              		.loc 1 508 0
 332 002a 20B1     		cbz	r0, .L30
 333              	.LBE11:
 334              	.LBE10:
 335              		.loc 1 513 0
 336 002c 02B0     		add	sp, sp, #8
 337 002e BDE81040 		pop	{r4, lr}
 338              	.LBB14:
 339              	.LBB12:
 340              		.loc 1 512 0
ARM GAS  C:\Users\jenny\AppData\Local\Temp\cceNBsfM.s 			page 7


 341 0032 FFF7FEBF 		b	chThdWait
 342              	.LVL34:
 343              	.L30:
 344              		.loc 1 509 0
 345 0036 0649     		ldr	r1, .L31+12
 346 0038 2046     		mov	r0, r4
 347              	.LVL35:
 348              	.LBE12:
 349              	.LBE14:
 350              		.loc 1 513 0
 351 003a 02B0     		add	sp, sp, #8
 352 003c BDE81040 		pop	{r4, lr}
 353              	.LBB15:
 354              	.LBB13:
 355              		.loc 1 509 0
 356 0040 FFF7FEBF 		b	chprintf
 357              	.LVL36:
 358              	.L32:
 359              		.align	2
 360              	.L31:
 361 0044 08000000 		.word	.LC1
 362 0048 00000000 		.word	rlist
 363 004c 00000000 		.word	TestThread
 364 0050 18000000 		.word	.LC2
 365              	.LBE13:
 366              	.LBE15:
 367              		.cfi_endproc
 368              	.LFE125:
 369              		.size	cmd_test, .-cmd_test
 370 0054 AFF30080 		.section	.text.cmd_threads,"ax",%progbits
 370      AFF30080 
 370      AFF30080 
 371              		.align	2
 372              		.p2align 4,,15
 373              		.thumb
 374              		.thumb_func
 375              		.type	cmd_threads, %function
 376              	cmd_threads:
 377              	.LFB124:
 378              		.loc 1 478 0
 379              		.cfi_startproc
 380              		@ args = 0, pretend = 0, frame = 0
 381              		@ frame_needed = 0, uses_anonymous_args = 0
 382              	.LVL37:
 383 0000 F0B5     		push	{r4, r5, r6, r7, lr}
 384              	.LCFI5:
 385              		.cfi_def_cfa_offset 20
 386              		.cfi_offset 4, -20
 387              		.cfi_offset 5, -16
 388              		.cfi_offset 6, -12
 389              		.cfi_offset 7, -8
 390              		.cfi_offset 14, -4
 391              		.loc 1 483 0
 392 0002 0029     		cmp	r1, #0
 393              		.loc 1 478 0
 394 0004 85B0     		sub	sp, sp, #20
 395              	.LCFI6:
ARM GAS  C:\Users\jenny\AppData\Local\Temp\cceNBsfM.s 			page 8


 396              		.cfi_def_cfa_offset 40
 397              		.loc 1 478 0
 398 0006 0646     		mov	r6, r0
 399              		.loc 1 483 0
 400 0008 05DD     		ble	.L34
 401              		.loc 1 484 0
 402 000a 1349     		ldr	r1, .L37
 403              	.LVL38:
 404              		.loc 1 496 0
 405 000c 05B0     		add	sp, sp, #20
 406 000e BDE8F040 		pop	{r4, r5, r6, r7, lr}
 407              		.loc 1 484 0
 408 0012 FFF7FEBF 		b	chprintf
 409              	.LVL39:
 410              	.L34:
 411              	.LBB18:
 412              	.LBB19:
 413              		.loc 1 487 0
 414 0016 1149     		ldr	r1, .L37+4
 415              	.LVL40:
 416 0018 114F     		ldr	r7, .L37+8
 417 001a FFF7FEFF 		bl	chprintf
 418              	.LVL41:
 419              		.loc 1 488 0
 420 001e FFF7FEFF 		bl	chRegFirstThread
 421              	.LVL42:
 422 0022 0446     		mov	r4, r0
 423              	.LVL43:
 424              	.L35:
 425              		.loc 1 490 0
 426 0024 A268     		ldr	r2, [r4, #8]
 427 0026 E368     		ldr	r3, [r4, #12]
 428 0028 256A     		ldr	r5, [r4, #32]
 429 002a 0092     		str	r2, [sp, #0]
 430              		.loc 1 492 0
 431 002c A07F     		ldrb	r0, [r4, #30]	@ zero_extendqisi2
 432              	.LVL44:
 433              		.loc 1 490 0
 434 002e 0D49     		ldr	r1, .L37+12
 435              		.loc 1 492 0
 436 0030 421E     		subs	r2, r0, #1
 437              		.loc 1 490 0
 438 0032 0192     		str	r2, [sp, #4]
 439 0034 207F     		ldrb	r0, [r4, #28]	@ zero_extendqisi2
 440 0036 0395     		str	r5, [sp, #12]
 441 0038 57F82050 		ldr	r5, [r7, r0, lsl #2]
 442 003c 2246     		mov	r2, r4
 443 003e 3046     		mov	r0, r6
 444 0040 0295     		str	r5, [sp, #8]
 445 0042 FFF7FEFF 		bl	chprintf
 446              	.LVL45:
 447              		.loc 1 494 0
 448 0046 2046     		mov	r0, r4
 449 0048 FFF7FEFF 		bl	chRegNextThread
 450              	.LVL46:
 451              		.loc 1 495 0
 452 004c 0446     		mov	r4, r0
ARM GAS  C:\Users\jenny\AppData\Local\Temp\cceNBsfM.s 			page 9


 453 004e 0028     		cmp	r0, #0
 454 0050 E8D1     		bne	.L35
 455              	.LBE19:
 456              	.LBE18:
 457              		.loc 1 496 0
 458 0052 05B0     		add	sp, sp, #20
 459 0054 F0BD     		pop	{r4, r5, r6, r7, pc}
 460              	.L38:
 461 0056 00BF     		.align	2
 462              	.L37:
 463 0058 28000000 		.word	.LC3
 464 005c 3C000000 		.word	.LC4
 465 0060 00000000 		.word	.LANCHOR8
 466 0064 6C000000 		.word	.LC5
 467              		.cfi_endproc
 468              	.LFE124:
 469              		.size	cmd_threads, .-cmd_threads
 470 0068 AFF30080 		.section	.text.cmd_mem,"ax",%progbits
 470      AFF30080 
 471              		.align	2
 472              		.p2align 4,,15
 473              		.thumb
 474              		.thumb_func
 475              		.type	cmd_mem, %function
 476              	cmd_mem:
 477              	.LFB123:
 478              		.loc 1 464 0
 479              		.cfi_startproc
 480              		@ args = 0, pretend = 0, frame = 8
 481              		@ frame_needed = 0, uses_anonymous_args = 0
 482              	.LVL47:
 483 0000 30B5     		push	{r4, r5, lr}
 484              	.LCFI7:
 485              		.cfi_def_cfa_offset 12
 486              		.cfi_offset 4, -12
 487              		.cfi_offset 5, -8
 488              		.cfi_offset 14, -4
 489              		.loc 1 468 0
 490 0002 0029     		cmp	r1, #0
 491              		.loc 1 464 0
 492 0004 83B0     		sub	sp, sp, #12
 493              	.LCFI8:
 494              		.cfi_def_cfa_offset 24
 495              		.loc 1 464 0
 496 0006 0446     		mov	r4, r0
 497              		.loc 1 468 0
 498 0008 04DD     		ble	.L40
 499              		.loc 1 469 0
 500 000a 0E49     		ldr	r1, .L42
 501              	.LVL48:
 502 000c FFF7FEFF 		bl	chprintf
 503              	.LVL49:
 504              	.L39:
 505              		.loc 1 476 0
 506 0010 03B0     		add	sp, sp, #12
 507 0012 30BD     		pop	{r4, r5, pc}
 508              	.LVL50:
ARM GAS  C:\Users\jenny\AppData\Local\Temp\cceNBsfM.s 			page 10


 509              	.L40:
 510              	.LBB22:
 511              	.LBB23:
 512              		.loc 1 472 0
 513 0014 01A9     		add	r1, sp, #4
 514              	.LVL51:
 515 0016 0020     		movs	r0, #0
 516              	.LVL52:
 517 0018 FFF7FEFF 		bl	chHeapStatus
 518              	.LVL53:
 519 001c 0546     		mov	r5, r0
 520              	.LVL54:
 521              		.loc 1 473 0
 522 001e FFF7FEFF 		bl	chCoreStatus
 523              	.LVL55:
 524 0022 0949     		ldr	r1, .L42+4
 525 0024 0246     		mov	r2, r0
 526 0026 2046     		mov	r0, r4
 527 0028 FFF7FEFF 		bl	chprintf
 528              	.LVL56:
 529              		.loc 1 474 0
 530 002c 2046     		mov	r0, r4
 531 002e 2A46     		mov	r2, r5
 532 0030 0649     		ldr	r1, .L42+8
 533 0032 FFF7FEFF 		bl	chprintf
 534              	.LVL57:
 535              		.loc 1 475 0
 536 0036 2046     		mov	r0, r4
 537 0038 0549     		ldr	r1, .L42+12
 538              	.LVL58:
 539 003a 019A     		ldr	r2, [sp, #4]
 540 003c FFF7FEFF 		bl	chprintf
 541              	.LVL59:
 542 0040 E6E7     		b	.L39
 543              	.L43:
 544 0042 00BF     		.align	2
 545              	.L42:
 546 0044 8C000000 		.word	.LC6
 547 0048 9C000000 		.word	.LC7
 548 004c BC000000 		.word	.LC8
 549 0050 D4000000 		.word	.LC9
 550              	.LBE23:
 551              	.LBE22:
 552              		.cfi_endproc
 553              	.LFE123:
 554              		.size	cmd_mem, .-cmd_mem
 555 0054 AFF30080 		.section	.text.InsertHandler,"ax",%progbits
 555      AFF30080 
 555      AFF30080 
 556              		.align	2
 557              		.p2align 4,,15
 558              		.thumb
 559              		.thumb_func
 560              		.type	InsertHandler, %function
 561              	InsertHandler:
 562              	.LFB127:
 563              		.loc 1 562 0
ARM GAS  C:\Users\jenny\AppData\Local\Temp\cceNBsfM.s 			page 11


 564              		.cfi_startproc
 565              		@ args = 0, pretend = 0, frame = 0
 566              		@ frame_needed = 0, uses_anonymous_args = 0
 567              	.LVL60:
 568 0000 08B5     		push	{r3, lr}
 569              	.LCFI9:
 570              		.cfi_def_cfa_offset 8
 571              		.cfi_offset 3, -8
 572              		.cfi_offset 14, -4
 573              		.loc 1 569 0
 574 0002 0948     		ldr	r0, .L49
 575              	.LVL61:
 576 0004 FFF7FEFF 		bl	sdcConnect
 577              	.LVL62:
 578 0008 00B1     		cbz	r0, .L47
 579 000a 08BD     		pop	{r3, pc}
 580              	.L47:
 581              	.LBB26:
 582              	.LBB27:
 583              		.loc 1 572 0
 584 000c 0749     		ldr	r1, .L49+4
 585 000e FFF7FEFF 		bl	f_mount
 586              	.LVL63:
 587              		.loc 1 573 0
 588 0012 18B9     		cbnz	r0, .L48
 589              		.loc 1 577 0
 590 0014 064B     		ldr	r3, .L49+8
 591 0016 0122     		movs	r2, #1
 592 0018 1A70     		strb	r2, [r3, #0]
 593 001a 08BD     		pop	{r3, pc}
 594              	.L48:
 595              		.loc 1 574 0
 596 001c 0248     		ldr	r0, .L49
 597              	.LVL64:
 598              	.LBE27:
 599              	.LBE26:
 600              		.loc 1 578 0
 601 001e BDE80840 		pop	{r3, lr}
 602              	.LBB29:
 603              	.LBB28:
 604              		.loc 1 574 0
 605 0022 FFF7FEBF 		b	sdcDisconnect
 606              	.LVL65:
 607              	.L50:
 608 0026 00BF     		.align	2
 609              	.L49:
 610 0028 00000000 		.word	SDCD1
 611 002c 00000000 		.word	.LANCHOR9
 612 0030 00000000 		.word	.LANCHOR3
 613              	.LBE28:
 614              	.LBE29:
 615              		.cfi_endproc
 616              	.LFE127:
 617              		.size	InsertHandler, .-InsertHandler
 618 0034 AFF30080 		.section	.text.usb_event,"ax",%progbits
 618      AFF30080 
 618      AFF30080 
ARM GAS  C:\Users\jenny\AppData\Local\Temp\cceNBsfM.s 			page 12


 619              		.align	2
 620              		.p2align 4,,15
 621              		.thumb
 622              		.thumb_func
 623              		.type	usb_event, %function
 624              	usb_event:
 625              	.LFB122:
 626              		.loc 1 406 0
 627              		.cfi_startproc
 628              		@ args = 0, pretend = 0, frame = 0
 629              		@ frame_needed = 0, uses_anonymous_args = 0
 630              	.LVL66:
 631              		.loc 1 408 0
 632 0000 0229     		cmp	r1, #2
 633              		.loc 1 406 0
 634 0002 38B5     		push	{r3, r4, r5, lr}
 635              	.LCFI10:
 636              		.cfi_def_cfa_offset 16
 637              		.cfi_offset 3, -16
 638              		.cfi_offset 4, -12
 639              		.cfi_offset 5, -8
 640              		.cfi_offset 14, -4
 641              		.loc 1 406 0
 642 0004 0C46     		mov	r4, r1
 643 0006 0546     		mov	r5, r0
 644              		.loc 1 408 0
 645 0008 11D1     		bne	.L51
 646              	.LVL67:
 647              	.LBB34:
 648              	.LBB35:
 649              	.LBB36:
 650              		.loc 1 414 0
 651 000a 2023     		movs	r3, #32
 652              	.LVL68:
 653              	@ 414 "main.c" 1
 654 000c 83F31188 		msr     BASEPRI, r3
 655              	@ 0 "" 2
 656              	.LVL69:
 657              		.thumb
 658              	.LBE36:
 659              		.loc 1 419 0
 660 0010 0121     		movs	r1, #1
 661              	.LVL70:
 662 0012 074A     		ldr	r2, .L54
 663 0014 FFF7FEFF 		bl	usbInitEndpointI
 664              	.LVL71:
 665              		.loc 1 420 0
 666 0018 2846     		mov	r0, r5
 667 001a 2146     		mov	r1, r4
 668 001c 054A     		ldr	r2, .L54+4
 669 001e FFF7FEFF 		bl	usbInitEndpointI
 670              	.LVL72:
 671              		.loc 1 423 0
 672 0022 0548     		ldr	r0, .L54+8
 673 0024 FFF7FEFF 		bl	sduConfigureHookI
 674              	.LVL73:
 675              	.LBB37:
ARM GAS  C:\Users\jenny\AppData\Local\Temp\cceNBsfM.s 			page 13


 676              		.loc 1 425 0
 677 0028 0023     		movs	r3, #0
 678              	.LVL74:
 679              	@ 425 "main.c" 1
 680 002a 83F31188 		msr     BASEPRI, r3
 681              	@ 0 "" 2
 682              	.LVL75:
 683              		.thumb
 684              	.L51:
 685 002e 38BD     		pop	{r3, r4, r5, pc}
 686              	.L55:
 687              		.align	2
 688              	.L54:
 689 0030 00000000 		.word	.LANCHOR10
 690 0034 00000000 		.word	.LANCHOR11
 691 0038 00000000 		.word	.LANCHOR12
 692              	.LBE37:
 693              	.LBE35:
 694              	.LBE34:
 695              		.cfi_endproc
 696              	.LFE122:
 697              		.size	usb_event, .-usb_event
 698 003c AFF30080 		.section	.text.scan_files.constprop.5,"ax",%progbits
 699              		.align	2
 700              		.p2align 4,,15
 701              		.thumb
 702              		.thumb_func
 703              		.type	scan_files.constprop.5, %function
 704              	scan_files.constprop.5:
 705              	.LFB137:
 706              		.loc 1 116 0
 707              		.cfi_startproc
 708              		@ args = 0, pretend = 0, frame = 72
 709              		@ frame_needed = 0, uses_anonymous_args = 0
 710              	.LVL76:
 711 0000 F0B5     		push	{r4, r5, r6, r7, lr}
 712              	.LCFI11:
 713              		.cfi_def_cfa_offset 20
 714              		.cfi_offset 4, -20
 715              		.cfi_offset 5, -16
 716              		.cfi_offset 6, -12
 717              		.cfi_offset 7, -8
 718              		.cfi_offset 14, -4
 719              		.loc 1 539 0
 720 0002 1E4C     		ldr	r4, .L72
 721              		.loc 1 116 0
 722 0004 93B0     		sub	sp, sp, #76
 723              	.LCFI12:
 724              		.cfi_def_cfa_offset 96
 725              		.loc 1 124 0
 726 0006 0023     		movs	r3, #0
 727              		.loc 1 116 0
 728 0008 0546     		mov	r5, r0
 729              		.loc 1 127 0
 730 000a 2146     		mov	r1, r4
 731 000c 09A8     		add	r0, sp, #36
 732              	.LVL77:
ARM GAS  C:\Users\jenny\AppData\Local\Temp\cceNBsfM.s 			page 14


 733              		.loc 1 124 0
 734 000e 0793     		str	r3, [sp, #28]
 735              		.loc 1 125 0
 736 0010 0893     		str	r3, [sp, #32]
 737              		.loc 1 127 0
 738 0012 FFF7FEFF 		bl	f_opendir
 739              	.LVL78:
 740              		.loc 1 128 0
 741 0016 58BB     		cbnz	r0, .L57
 742              		.loc 1 129 0
 743 0018 2046     		mov	r0, r4
 744              	.LVL79:
 745 001a FFF7FEFF 		bl	strlen
 746              	.LVL80:
 747              		.loc 1 138 0
 748 001e 461C     		adds	r6, r0, #1
 749 0020 2718     		adds	r7, r4, r0
 750              		.loc 1 139 0
 751 0022 A619     		adds	r6, r4, r6
 752              	.LVL81:
 753              	.L70:
 754              		.loc 1 131 0
 755 0024 01A9     		add	r1, sp, #4
 756 0026 09A8     		add	r0, sp, #36
 757 0028 FFF7FEFF 		bl	f_readdir
 758              	.LVL82:
 759              		.loc 1 132 0
 760 002c 00BB     		cbnz	r0, .L57
 761              	.L71:
 762 002e 9DF80D10 		ldrb	r1, [sp, #13]	@ zero_extendqisi2
 763 0032 E9B1     		cbz	r1, .L57
 764              		.loc 1 134 0
 765 0034 2E29     		cmp	r1, #46
 766 0036 F5D0     		beq	.L70
 767              		.loc 1 137 0
 768 0038 9DF80C40 		ldrb	r4, [sp, #12]	@ zero_extendqisi2
 769              		.loc 1 146 0
 770 003c 1049     		ldr	r1, .L72+4
 771 003e 0F4A     		ldr	r2, .L72
 772              		.loc 1 137 0
 773 0040 04F01003 		and	r3, r4, #16
 774 0044 DCB2     		uxtb	r4, r3
 775              		.loc 1 139 0
 776 0046 3046     		mov	r0, r6
 777              	.LVL83:
 778              		.loc 1 146 0
 779 0048 0DF10D03 		add	r3, sp, #13
 780              	.LVL84:
 781              		.loc 1 137 0
 782 004c 94B1     		cbz	r4, .L60
 783              		.loc 1 138 0
 784 004e 2F22     		movs	r2, #47
 785              		.loc 1 139 0
 786 0050 1946     		mov	r1, r3
 787              		.loc 1 138 0
 788 0052 3A70     		strb	r2, [r7, #0]
 789              		.loc 1 139 0
ARM GAS  C:\Users\jenny\AppData\Local\Temp\cceNBsfM.s 			page 15


 790 0054 FFF7FEFF 		bl	strcpy
 791              	.LVL85:
 792              		.loc 1 140 0
 793 0058 2846     		mov	r0, r5
 794 005a FFF7D1FF 		bl	scan_files.constprop.5
 795              	.LVL86:
 796 005e 0146     		mov	r1, r0
 797              	.LVL87:
 798              		.loc 1 141 0
 799 0060 31B9     		cbnz	r1, .L57
 800              		.loc 1 143 0
 801 0062 3970     		strb	r1, [r7, #0]
 802              		.loc 1 131 0
 803 0064 09A8     		add	r0, sp, #36
 804              	.LVL88:
 805 0066 01A9     		add	r1, sp, #4
 806              	.LVL89:
 807 0068 FFF7FEFF 		bl	f_readdir
 808              	.LVL90:
 809              		.loc 1 132 0
 810 006c 0028     		cmp	r0, #0
 811 006e DED0     		beq	.L71
 812              	.LVL91:
 813              	.L57:
 814              		.loc 1 151 0
 815 0070 13B0     		add	sp, sp, #76
 816 0072 F0BD     		pop	{r4, r5, r6, r7, pc}
 817              	.LVL92:
 818              	.L60:
 819              		.loc 1 146 0
 820 0074 2846     		mov	r0, r5
 821 0076 FFF7FEFF 		bl	chprintf
 822              	.LVL93:
 823 007a D3E7     		b	.L70
 824              	.L73:
 825              		.align	2
 826              	.L72:
 827 007c 00000000 		.word	.LANCHOR13
 828 0080 F4000000 		.word	.LC10
 829              		.cfi_endproc
 830              	.LFE137:
 831              		.size	scan_files.constprop.5, .-scan_files.constprop.5
 832 0084 AFF30080 		.section	.text.cmd_tree,"ax",%progbits
 832      AFF30080 
 832      AFF30080 
 833              		.align	2
 834              		.p2align 4,,15
 835              		.thumb
 836              		.thumb_func
 837              		.type	cmd_tree, %function
 838              	cmd_tree:
 839              	.LFB126:
 840              		.loc 1 515 0
 841              		.cfi_startproc
 842              		@ args = 0, pretend = 0, frame = 8
 843              		@ frame_needed = 0, uses_anonymous_args = 0
 844              	.LVL94:
ARM GAS  C:\Users\jenny\AppData\Local\Temp\cceNBsfM.s 			page 16


 845 0000 70B5     		push	{r4, r5, r6, lr}
 846              	.LCFI13:
 847              		.cfi_def_cfa_offset 16
 848              		.cfi_offset 4, -16
 849              		.cfi_offset 5, -12
 850              		.cfi_offset 6, -8
 851              		.cfi_offset 14, -4
 852              		.loc 1 521 0
 853 0002 0029     		cmp	r1, #0
 854              		.loc 1 515 0
 855 0004 84B0     		sub	sp, sp, #16
 856              	.LCFI14:
 857              		.cfi_def_cfa_offset 32
 858              		.loc 1 515 0
 859 0006 0446     		mov	r4, r0
 860              		.loc 1 521 0
 861 0008 04DD     		ble	.L75
 862              		.loc 1 522 0
 863 000a 1449     		ldr	r1, .L80
 864              	.LVL95:
 865 000c FFF7FEFF 		bl	chprintf
 866              	.LVL96:
 867              	.L74:
 868              		.loc 1 540 0
 869 0010 04B0     		add	sp, sp, #16
 870 0012 70BD     		pop	{r4, r5, r6, pc}
 871              	.LVL97:
 872              	.L75:
 873              		.loc 1 525 0
 874 0014 124B     		ldr	r3, .L80+4
 875 0016 1978     		ldrb	r1, [r3, #0]	@ zero_extendqisi2
 876              	.LVL98:
 877 0018 19B9     		cbnz	r1, .L77
 878              		.loc 1 526 0
 879 001a 1249     		ldr	r1, .L80+8
 880 001c FFF7FEFF 		bl	chprintf
 881              	.LVL99:
 882 0020 F6E7     		b	.L74
 883              	.LVL100:
 884              	.L77:
 885              		.loc 1 529 0
 886 0022 1148     		ldr	r0, .L80+12
 887              	.LVL101:
 888 0024 02A9     		add	r1, sp, #8
 889 0026 03AA     		add	r2, sp, #12
 890              	.LVL102:
 891 0028 FFF7FEFF 		bl	f_getfree
 892              	.LVL103:
 893              		.loc 1 530 0
 894 002c 0546     		mov	r5, r0
 895 002e 20B1     		cbz	r0, .L78
 896              		.loc 1 531 0
 897 0030 2046     		mov	r0, r4
 898              	.LVL104:
 899 0032 0E49     		ldr	r1, .L80+16
 900 0034 FFF7FEFF 		bl	chprintf
 901              	.LVL105:
ARM GAS  C:\Users\jenny\AppData\Local\Temp\cceNBsfM.s 			page 17


 902 0038 EAE7     		b	.L74
 903              	.LVL106:
 904              	.L78:
 905              		.loc 1 537 0
 906 003a 0D48     		ldr	r0, .L80+20
 907              	.LVL107:
 908 003c 029A     		ldr	r2, [sp, #8]
 909 003e 8378     		ldrb	r3, [r0, #2]	@ zero_extendqisi2
 910              		.loc 1 534 0
 911 0040 0C49     		ldr	r1, .L80+24
 912              		.loc 1 537 0
 913 0042 5602     		lsls	r6, r2, #9
 914              		.loc 1 534 0
 915 0044 03FB06F6 		mul	r6, r3, r6
 916 0048 2046     		mov	r0, r4
 917 004a 0096     		str	r6, [sp, #0]
 918 004c FFF7FEFF 		bl	chprintf
 919              	.LVL108:
 920              		.loc 1 538 0
 921 0050 094A     		ldr	r2, .L80+28
 922              		.loc 1 539 0
 923 0052 2046     		mov	r0, r4
 924              		.loc 1 538 0
 925 0054 1570     		strb	r5, [r2, #0]
 926              		.loc 1 539 0
 927 0056 FFF7FEFF 		bl	scan_files.constprop.5
 928              	.LVL109:
 929 005a D9E7     		b	.L74
 930              	.L81:
 931              		.align	2
 932              	.L80:
 933 005c FC000000 		.word	.LC11
 934 0060 00000000 		.word	.LANCHOR3
 935 0064 0C010000 		.word	.LC12
 936 0068 28010000 		.word	.LC13
 937 006c 2C010000 		.word	.LC14
 938 0070 00000000 		.word	.LANCHOR9
 939 0074 48010000 		.word	.LC15
 940 0078 00000000 		.word	.LANCHOR13
 941              		.cfi_endproc
 942              	.LFE126:
 943              		.size	cmd_tree, .-cmd_tree
 944 007c AFF30080 		.section	.text.startup.main,"ax",%progbits
 945              		.align	2
 946              		.p2align 4,,15
 947              		.global	main
 948              		.thumb
 949              		.thumb_func
 950              		.type	main, %function
 951              	main:
 952              	.LFB130:
 953              		.loc 1 608 0
 954              		.cfi_startproc
 955              		@ args = 0, pretend = 0, frame = 32
 956              		@ frame_needed = 0, uses_anonymous_args = 0
 957 0000 2DE9F041 		push	{r4, r5, r6, r7, r8, lr}
 958              	.LCFI15:
ARM GAS  C:\Users\jenny\AppData\Local\Temp\cceNBsfM.s 			page 18


 959              		.cfi_def_cfa_offset 24
 960              		.cfi_offset 4, -24
 961              		.cfi_offset 5, -20
 962              		.cfi_offset 6, -16
 963              		.cfi_offset 7, -12
 964              		.cfi_offset 8, -8
 965              		.cfi_offset 14, -4
 966 0004 8AB0     		sub	sp, sp, #40
 967              	.LCFI16:
 968              		.cfi_def_cfa_offset 64
 969              		.loc 1 623 0
 970 0006 FFF7FEFF 		bl	halInit
 971              	.LVL110:
 972              		.loc 1 637 0
 973 000a 444C     		ldr	r4, .L87
 974              	.LBB42:
 975              	.LBB43:
 976              		.loc 1 93 0
 977 000c DFF85881 		ldr	r8, .L87+76
 978              		.loc 1 94 0
 979 0010 434D     		ldr	r5, .L87+4
 980              	.LBE43:
 981              	.LBE42:
 982              		.loc 1 624 0
 983 0012 FFF7FEFF 		bl	chSysInit
 984              	.LVL111:
 985              		.loc 1 629 0
 986 0016 4348     		ldr	r0, .L87+8
 987 0018 FFF7FEFF 		bl	sduObjectInit
 988              	.LVL112:
 989              		.loc 1 630 0
 990 001c 4249     		ldr	r1, .L87+12
 991 001e 4148     		ldr	r0, .L87+8
 992 0020 FFF7FEFF 		bl	sduStart
 993              	.LVL113:
 994              		.loc 1 637 0
 995 0024 A36E     		ldr	r3, [r4, #104]
 996 0026 9A6B     		ldr	r2, [r3, #56]
 997 0028 22F40020 		bic	r0, r2, #524288
 998 002c 9863     		str	r0, [r3, #56]
 999              		.loc 1 638 0
 1000 002e 40F2DC50 		movw	r0, #1500
 1001 0032 FFF7FEFF 		bl	chThdSleep
 1002              	.LVL114:
 1003              		.loc 1 639 0
 1004 0036 2046     		mov	r0, r4
 1005 0038 3C49     		ldr	r1, .L87+16
 1006 003a FFF7FEFF 		bl	usbStart
 1007              	.LVL115:
 1008              		.loc 1 640 0
 1009 003e A16E     		ldr	r1, [r4, #104]
 1010 0040 8E6B     		ldr	r6, [r1, #56]
 1011 0042 46F40027 		orr	r7, r6, #524288
 1012 0046 8F63     		str	r7, [r1, #56]
 1013              		.loc 1 645 0
 1014 0048 FFF7FEFF 		bl	shellInit
 1015              	.LVL116:
ARM GAS  C:\Users\jenny\AppData\Local\Temp\cceNBsfM.s 			page 19


 1016              		.loc 1 651 0
 1017 004c 0021     		movs	r1, #0
 1018 004e 3848     		ldr	r0, .L87+20
 1019 0050 FFF7FEFF 		bl	sdStart
 1020              	.LVL117:
 1021              		.loc 1 652 0
 1022 0054 3748     		ldr	r0, .L87+24
 1023 0056 0021     		movs	r1, #0
 1024 0058 FFF7FEFF 		bl	sdcStart
 1025              	.LVL118:
 1026              	.LBB47:
 1027              	.LBB46:
 1028              		.loc 1 93 0
 1029 005c C8F80080 		str	r8, [r8, #0]
 1030              		.loc 1 94 0
 1031 0060 2D60     		str	r5, [r5, #0]
 1032              	.LBB44:
 1033              		.loc 1 95 0
 1034 0062 2023     		movs	r3, #32
 1035              	.LVL119:
 1036              	@ 95 "main.c" 1
 1037 0064 83F31188 		msr     BASEPRI, r3
 1038              	@ 0 "" 2
 1039              	.LVL120:
 1040              		.thumb
 1041              	.LBE44:
 1042              		.loc 1 96 0
 1043 0068 334C     		ldr	r4, .L87+28
 1044              		.loc 1 97 0
 1045 006a 3448     		ldr	r0, .L87+32
 1046 006c 344A     		ldr	r2, .L87+36
 1047 006e 314B     		ldr	r3, .L87+24
 1048              	.LVL121:
 1049              		.loc 1 96 0
 1050 0070 0A21     		movs	r1, #10
 1051 0072 2160     		str	r1, [r4, #0]
 1052              		.loc 1 97 0
 1053 0074 FFF7FEFF 		bl	chVTSetI
 1054              	.LVL122:
 1055              	.LBB45:
 1056              		.loc 1 98 0
 1057 0078 0023     		movs	r3, #0
 1058              	.LVL123:
 1059              	@ 98 "main.c" 1
 1060 007a 83F31188 		msr     BASEPRI, r3
 1061              	@ 0 "" 2
 1062              	.LVL124:
 1063              		.thumb
 1064              	.LBE45:
 1065              	.LBE46:
 1066              	.LBE47:
 1067              		.loc 1 662 0
 1068 007e 1F46     		mov	r7, r3
 1069 0080 4FF4DC71 		mov	r1, #440
 1070 0084 4022     		movs	r2, #64
 1071 0086 2F4B     		ldr	r3, .L87+40
 1072              	.LVL125:
ARM GAS  C:\Users\jenny\AppData\Local\Temp\cceNBsfM.s 			page 20


 1073 0088 0097     		str	r7, [sp, #0]
 1074 008a 2F48     		ldr	r0, .L87+44
 1075 008c 2F4C     		ldr	r4, .L87+48
 1076 008e 254E     		ldr	r6, .L87+8
 1077 0090 FFF7FEFF 		bl	chThdCreateStatic
 1078              	.LVL126:
 1079              		.loc 1 667 0
 1080 0094 4FF40071 		mov	r1, #512
 1081 0098 4222     		movs	r2, #66
 1082 009a 2D4B     		ldr	r3, .L87+52
 1083 009c 0097     		str	r7, [sp, #0]
 1084 009e 2D48     		ldr	r0, .L87+56
 1085 00a0 FFF7FEFF 		bl	chThdCreateStatic
 1086              	.LVL127:
 1087              		.loc 1 673 0
 1088 00a4 2C4B     		ldr	r3, .L87+60
 1089 00a6 0097     		str	r7, [sp, #0]
 1090 00a8 4FF4A761 		mov	r1, #1336
 1091 00ac 4122     		movs	r2, #65
 1092 00ae 2B48     		ldr	r0, .L87+64
 1093 00b0 FFF7FEFF 		bl	chThdCreateStatic
 1094              	.LVL128:
 1095              		.loc 1 680 0
 1096 00b4 4046     		mov	r0, r8
 1097 00b6 02A9     		add	r1, sp, #8
 1098 00b8 0122     		movs	r2, #1
 1099 00ba FFF7FEFF 		bl	chEvtRegisterMask
 1100              	.LVL129:
 1101              		.loc 1 681 0
 1102 00be 2846     		mov	r0, r5
 1103 00c0 06A9     		add	r1, sp, #24
 1104 00c2 0222     		movs	r2, #2
 1105              		.loc 1 689 0
 1106 00c4 3D46     		mov	r5, r7
 1107              		.loc 1 681 0
 1108 00c6 FFF7FEFF 		bl	chEvtRegisterMask
 1109              	.LVL130:
 1110              		.loc 1 683 0
 1111 00ca A046     		mov	r8, r4
 1112              		.loc 1 689 0
 1113 00cc C4F20205 		movt	r5, 16386
 1114 00d0 0DE0     		b	.L85
 1115              	.L83:
 1116              		.loc 1 685 0
 1117 00d2 037F     		ldrb	r3, [r0, #28]	@ zero_extendqisi2
 1118 00d4 0E2B     		cmp	r3, #14
 1119 00d6 1CD0     		beq	.L86
 1120              	.L84:
 1121              		.loc 1 691 0
 1122 00d8 4FF4FA71 		mov	r1, #500
 1123 00dc 4FF0FF30 		mov	r0, #-1
 1124              		.loc 1 689 0
 1125 00e0 2B69     		ldr	r3, [r5, #16]
 1126              		.loc 1 691 0
 1127 00e2 FFF7FEFF 		bl	chEvtWaitOneTimeout
 1128              	.LVL131:
 1129 00e6 0146     		mov	r1, r0
ARM GAS  C:\Users\jenny\AppData\Local\Temp\cceNBsfM.s 			page 21


 1130 00e8 1D48     		ldr	r0, .L87+68
 1131 00ea FFF7FEFF 		bl	chEvtDispatch
 1132              	.LVL132:
 1133              	.L85:
 1134              		.loc 1 683 0
 1135 00ee 2068     		ldr	r0, [r4, #0]
 1136 00f0 0028     		cmp	r0, #0
 1137 00f2 EED1     		bne	.L83
 1138              		.loc 1 683 0 is_stmt 0 discriminator 1
 1139 00f4 D6F85432 		ldr	r3, [r6, #596]
 1140 00f8 1A68     		ldr	r2, [r3, #0]
 1141 00fa 1178     		ldrb	r1, [r2, #0]	@ zero_extendqisi2
 1142 00fc 0429     		cmp	r1, #4
 1143 00fe E8D1     		bne	.L83
 1144              		.loc 1 684 0 is_stmt 1
 1145 0100 1848     		ldr	r0, .L87+72
 1146 0102 40F63811 		movw	r1, #2360
 1147 0106 4022     		movs	r2, #64
 1148 0108 FFF7FEFF 		bl	shellCreate
 1149              	.LVL133:
 1150 010c C8F80000 		str	r0, [r8, #0]
 1151 0110 E2E7     		b	.L84
 1152              	.L86:
 1153              		.loc 1 686 0
 1154 0112 FFF7FEFF 		bl	chThdRelease
 1155              	.LVL134:
 1156              		.loc 1 687 0
 1157 0116 2760     		str	r7, [r4, #0]
 1158 0118 DEE7     		b	.L84
 1159              	.L88:
 1160 011a 00BF     		.align	2
 1161              	.L87:
 1162 011c 00000000 		.word	USBD1
 1163 0120 00000000 		.word	.LANCHOR6
 1164 0124 00000000 		.word	.LANCHOR12
 1165 0128 00000000 		.word	.LANCHOR14
 1166 012c 00000000 		.word	.LANCHOR15
 1167 0130 00000000 		.word	SD6
 1168 0134 00000000 		.word	SDCD1
 1169 0138 00000000 		.word	.LANCHOR4
 1170 013c 00000000 		.word	.LANCHOR7
 1171 0140 00000000 		.word	tmrfunc
 1172 0144 00000000 		.word	Thread1
 1173 0148 00000000 		.word	.LANCHOR16
 1174 014c 00000000 		.word	.LANCHOR17
 1175 0150 00000000 		.word	lwip_thread
 1176 0154 00000000 		.word	wa_lwip_thread
 1177 0158 00000000 		.word	http_server
 1178 015c 00000000 		.word	wa_http_server
 1179 0160 00000000 		.word	.LANCHOR19
 1180 0164 00000000 		.word	.LANCHOR18
 1181 0168 00000000 		.word	.LANCHOR5
 1182              		.cfi_endproc
 1183              	.LFE130:
 1184              		.size	main, .-main
 1185 016c AFF30080 		.section	.bss.shelltp.8542,"aw",%nobits
 1186              		.align	2
ARM GAS  C:\Users\jenny\AppData\Local\Temp\cceNBsfM.s 			page 22


 1187              		.set	.LANCHOR17,. + 0
 1188              		.type	shelltp.8542, %object
 1189              		.size	shelltp.8542, 4
 1190              	shelltp.8542:
 1191 0000 00000000 		.space	4
 1192              		.section	.rodata.vcom_configuration_descriptor_data,"a",%progbits
 1193              		.align	2
 1194              		.type	vcom_configuration_descriptor_data, %object
 1195              		.size	vcom_configuration_descriptor_data, 67
 1196              	vcom_configuration_descriptor_data:
 1197 0000 09       		.byte	9
 1198 0001 02       		.byte	2
 1199 0002 43       		.byte	67
 1200 0003 00       		.byte	0
 1201 0004 02       		.byte	2
 1202 0005 01       		.byte	1
 1203 0006 00       		.byte	0
 1204 0007 C0       		.byte	-64
 1205 0008 32       		.byte	50
 1206 0009 09       		.byte	9
 1207 000a 04       		.byte	4
 1208 000b 00       		.byte	0
 1209 000c 00       		.byte	0
 1210 000d 01       		.byte	1
 1211 000e 02       		.byte	2
 1212 000f 02       		.byte	2
 1213 0010 01       		.byte	1
 1214 0011 00       		.byte	0
 1215 0012 05       		.byte	5
 1216 0013 24       		.byte	36
 1217 0014 00       		.byte	0
 1218 0015 10       		.byte	16
 1219 0016 01       		.byte	1
 1220 0017 05       		.byte	5
 1221 0018 24       		.byte	36
 1222 0019 01       		.byte	1
 1223 001a 00       		.byte	0
 1224 001b 01       		.byte	1
 1225 001c 04       		.byte	4
 1226 001d 24       		.byte	36
 1227 001e 02       		.byte	2
 1228 001f 02       		.byte	2
 1229 0020 05       		.byte	5
 1230 0021 24       		.byte	36
 1231 0022 06       		.byte	6
 1232 0023 00       		.byte	0
 1233 0024 01       		.byte	1
 1234 0025 07       		.byte	7
 1235 0026 05       		.byte	5
 1236 0027 82       		.byte	-126
 1237 0028 03       		.byte	3
 1238 0029 08       		.byte	8
 1239 002a 00       		.byte	0
 1240 002b FF       		.byte	-1
 1241 002c 09       		.byte	9
 1242 002d 04       		.byte	4
 1243 002e 01       		.byte	1
ARM GAS  C:\Users\jenny\AppData\Local\Temp\cceNBsfM.s 			page 23


 1244 002f 00       		.byte	0
 1245 0030 02       		.byte	2
 1246 0031 0A       		.byte	10
 1247 0032 00       		.byte	0
 1248 0033 00       		.byte	0
 1249 0034 00       		.byte	0
 1250 0035 07       		.byte	7
 1251 0036 05       		.byte	5
 1252 0037 01       		.byte	1
 1253 0038 02       		.byte	2
 1254 0039 40       		.byte	64
 1255 003a 00       		.byte	0
 1256 003b 00       		.byte	0
 1257 003c 07       		.byte	7
 1258 003d 05       		.byte	5
 1259 003e 81       		.byte	-127
 1260 003f 02       		.byte	2
 1261 0040 40       		.byte	64
 1262 0041 00       		.byte	0
 1263 0042 00       		.byte	0
 1264 0043 00       		.section	.rodata.usbcfg,"a",%progbits
 1265              		.align	2
 1266              		.set	.LANCHOR15,. + 0
 1267              		.type	usbcfg, %object
 1268              		.size	usbcfg, 16
 1269              	usbcfg:
 1270 0000 00000000 		.word	usb_event
 1271 0004 00000000 		.word	get_descriptor
 1272 0008 00000000 		.word	sduRequestsHook
 1273 000c 00000000 		.word	0
 1274              		.section	.rodata.ep2config,"a",%progbits
 1275              		.align	2
 1276              		.set	.LANCHOR11,. + 0
 1277              		.type	ep2config, %object
 1278              		.size	ep2config, 36
 1279              	ep2config:
 1280 0000 03000000 		.word	3
 1281 0004 00000000 		.word	0
 1282 0008 00000000 		.word	sduInterruptTransmitted
 1283 000c 00000000 		.word	0
 1284 0010 1000     		.short	16
 1285 0012 0000     		.short	0
 1286 0014 00000000 		.word	ep2instate
 1287 0018 00000000 		.word	0
 1288 001c 0100     		.short	1
 1289 001e 0000     		.space	2
 1290 0020 00000000 		.word	0
 1291              		.section	.rodata.vcom_string0,"a",%progbits
 1292              		.align	2
 1293              		.type	vcom_string0, %object
 1294              		.size	vcom_string0, 4
 1295              	vcom_string0:
 1296 0000 04       		.byte	4
 1297 0001 03       		.byte	3
 1298 0002 09       		.byte	9
 1299 0003 04       		.byte	4
 1300              		.section	.rodata.vcom_string3,"a",%progbits
ARM GAS  C:\Users\jenny\AppData\Local\Temp\cceNBsfM.s 			page 24


 1301              		.align	2
 1302              		.type	vcom_string3, %object
 1303              		.size	vcom_string3, 8
 1304              	vcom_string3:
 1305 0000 08       		.byte	8
 1306 0001 03       		.byte	3
 1307 0002 32       		.byte	50
 1308 0003 00       		.byte	0
 1309 0004 36       		.byte	54
 1310 0005 00       		.byte	0
 1311 0006 31       		.byte	49
 1312 0007 00       		.byte	0
 1313              		.section	.rodata.vcom_string1,"a",%progbits
 1314              		.align	2
 1315              		.type	vcom_string1, %object
 1316              		.size	vcom_string1, 38
 1317              	vcom_string1:
 1318 0000 26       		.byte	38
 1319 0001 03       		.byte	3
 1320 0002 53       		.byte	83
 1321 0003 00       		.byte	0
 1322 0004 54       		.byte	84
 1323 0005 00       		.byte	0
 1324 0006 4D       		.byte	77
 1325 0007 00       		.byte	0
 1326 0008 69       		.byte	105
 1327 0009 00       		.byte	0
 1328 000a 63       		.byte	99
 1329 000b 00       		.byte	0
 1330 000c 72       		.byte	114
 1331 000d 00       		.byte	0
 1332 000e 6F       		.byte	111
 1333 000f 00       		.byte	0
 1334 0010 65       		.byte	101
 1335 0011 00       		.byte	0
 1336 0012 6C       		.byte	108
 1337 0013 00       		.byte	0
 1338 0014 65       		.byte	101
 1339 0015 00       		.byte	0
 1340 0016 63       		.byte	99
 1341 0017 00       		.byte	0
 1342 0018 74       		.byte	116
 1343 0019 00       		.byte	0
 1344 001a 72       		.byte	114
 1345 001b 00       		.byte	0
 1346 001c 6F       		.byte	111
 1347 001d 00       		.byte	0
 1348 001e 6E       		.byte	110
 1349 001f 00       		.byte	0
 1350 0020 69       		.byte	105
 1351 0021 00       		.byte	0
 1352 0022 63       		.byte	99
 1353 0023 00       		.byte	0
 1354 0024 73       		.byte	115
 1355 0025 00       		.byte	0
 1356 0026 0000     		.section	.rodata.vcom_strings,"a",%progbits
 1357              		.align	2
ARM GAS  C:\Users\jenny\AppData\Local\Temp\cceNBsfM.s 			page 25


 1358              		.set	.LANCHOR2,. + 0
 1359              		.type	vcom_strings, %object
 1360              		.size	vcom_strings, 32
 1361              	vcom_strings:
 1362 0000 04000000 		.word	4
 1363 0004 00000000 		.word	vcom_string0
 1364 0008 26000000 		.word	38
 1365 000c 00000000 		.word	vcom_string1
 1366 0010 38000000 		.word	56
 1367 0014 00000000 		.word	vcom_string2
 1368 0018 08000000 		.word	8
 1369 001c 00000000 		.word	vcom_string3
 1370              		.section	.bss.fs_ready,"aw",%nobits
 1371              		.set	.LANCHOR3,. + 0
 1372              		.type	fs_ready, %object
 1373              		.size	fs_ready, 1
 1374              	fs_ready:
 1375 0000 00       		.space	1
 1376              		.section	.rodata.vcom_device_descriptor,"a",%progbits
 1377              		.align	2
 1378              		.set	.LANCHOR0,. + 0
 1379              		.type	vcom_device_descriptor, %object
 1380              		.size	vcom_device_descriptor, 8
 1381              	vcom_device_descriptor:
 1382 0000 12000000 		.word	18
 1383 0004 00000000 		.word	vcom_device_descriptor_data
 1384              		.section	.rodata.vcom_string2,"a",%progbits
 1385              		.align	2
 1386              		.type	vcom_string2, %object
 1387              		.size	vcom_string2, 56
 1388              	vcom_string2:
 1389 0000 38       		.byte	56
 1390 0001 03       		.byte	3
 1391 0002 43       		.byte	67
 1392 0003 00       		.byte	0
 1393 0004 68       		.byte	104
 1394 0005 00       		.byte	0
 1395 0006 69       		.byte	105
 1396 0007 00       		.byte	0
 1397 0008 62       		.byte	98
 1398 0009 00       		.byte	0
 1399 000a 69       		.byte	105
 1400 000b 00       		.byte	0
 1401 000c 4F       		.byte	79
 1402 000d 00       		.byte	0
 1403 000e 53       		.byte	83
 1404 000f 00       		.byte	0
 1405 0010 2F       		.byte	47
 1406 0011 00       		.byte	0
 1407 0012 52       		.byte	82
 1408 0013 00       		.byte	0
 1409 0014 54       		.byte	84
 1410 0015 00       		.byte	0
 1411 0016 20       		.byte	32
 1412 0017 00       		.byte	0
 1413 0018 56       		.byte	86
 1414 0019 00       		.byte	0
ARM GAS  C:\Users\jenny\AppData\Local\Temp\cceNBsfM.s 			page 26


 1415 001a 69       		.byte	105
 1416 001b 00       		.byte	0
 1417 001c 72       		.byte	114
 1418 001d 00       		.byte	0
 1419 001e 74       		.byte	116
 1420 001f 00       		.byte	0
 1421 0020 75       		.byte	117
 1422 0021 00       		.byte	0
 1423 0022 61       		.byte	97
 1424 0023 00       		.byte	0
 1425 0024 6C       		.byte	108
 1426 0025 00       		.byte	0
 1427 0026 20       		.byte	32
 1428 0027 00       		.byte	0
 1429 0028 43       		.byte	67
 1430 0029 00       		.byte	0
 1431 002a 4F       		.byte	79
 1432 002b 00       		.byte	0
 1433 002c 4D       		.byte	77
 1434 002d 00       		.byte	0
 1435 002e 20       		.byte	32
 1436 002f 00       		.byte	0
 1437 0030 50       		.byte	80
 1438 0031 00       		.byte	0
 1439 0032 6F       		.byte	111
 1440 0033 00       		.byte	0
 1441 0034 72       		.byte	114
 1442 0035 00       		.byte	0
 1443 0036 74       		.byte	116
 1444 0037 00       		.byte	0
 1445              		.section	.bss.removed_event,"aw",%nobits
 1446              		.align	2
 1447              		.set	.LANCHOR6,. + 0
 1448              		.type	removed_event, %object
 1449              		.size	removed_event, 4
 1450              	removed_event:
 1451 0000 00000000 		.space	4
 1452              		.section	.bss.SDU1,"aw",%nobits
 1453              		.align	2
 1454              		.set	.LANCHOR12,. + 0
 1455              		.type	SDU1, %object
 1456              		.size	SDU1, 600
 1457              	SDU1:
 1458 0000 00000000 		.space	600
 1458      00000000 
 1458      00000000 
 1458      00000000 
 1458      00000000 
 1459              		.section	.rodata.serusbcfg,"a",%progbits
 1460              		.align	2
 1461              		.set	.LANCHOR14,. + 0
 1462              		.type	serusbcfg, %object
 1463              		.size	serusbcfg, 8
 1464              	serusbcfg:
 1465 0000 00000000 		.word	USBD1
 1466 0004 01       		.byte	1
 1467 0005 01       		.byte	1
ARM GAS  C:\Users\jenny\AppData\Local\Temp\cceNBsfM.s 			page 27


 1468 0006 02       		.byte	2
 1469 0007 00       		.space	1
 1470              		.section	.rodata.states.8507,"a",%progbits
 1471              		.align	2
 1472              		.set	.LANCHOR8,. + 0
 1473              		.type	states.8507, %object
 1474              		.size	states.8507, 60
 1475              	states.8507:
 1476 0000 8C010000 		.word	.LC16
 1477 0004 94010000 		.word	.LC17
 1478 0008 9C010000 		.word	.LC18
 1479 000c A8010000 		.word	.LC19
 1480 0010 B0010000 		.word	.LC20
 1481 0014 B8010000 		.word	.LC21
 1482 0018 C0010000 		.word	.LC22
 1483 001c CC010000 		.word	.LC23
 1484 0020 D4010000 		.word	.LC24
 1485 0024 DC010000 		.word	.LC25
 1486 0028 E8010000 		.word	.LC26
 1487 002c F0010000 		.word	.LC27
 1488 0030 F8010000 		.word	.LC28
 1489 0034 00020000 		.word	.LC29
 1490 0038 08020000 		.word	.LC30
 1491              		.section	.rodata.vcom_device_descriptor_data,"a",%progbits
 1492              		.align	2
 1493              		.type	vcom_device_descriptor_data, %object
 1494              		.size	vcom_device_descriptor_data, 18
 1495              	vcom_device_descriptor_data:
 1496 0000 12       		.byte	18
 1497 0001 01       		.byte	1
 1498 0002 10       		.byte	16
 1499 0003 01       		.byte	1
 1500 0004 02       		.byte	2
 1501 0005 00       		.byte	0
 1502 0006 00       		.byte	0
 1503 0007 40       		.byte	64
 1504 0008 83       		.byte	-125
 1505 0009 04       		.byte	4
 1506 000a 40       		.byte	64
 1507 000b 57       		.byte	87
 1508 000c 00       		.byte	0
 1509 000d 02       		.byte	2
 1510 000e 01       		.byte	1
 1511 000f 02       		.byte	2
 1512 0010 03       		.byte	3
 1513 0011 01       		.byte	1
 1514 0012 0000     		.section	.rodata.evhndl.8543,"a",%progbits
 1515              		.align	2
 1516              		.set	.LANCHOR19,. + 0
 1517              		.type	evhndl.8543, %object
 1518              		.size	evhndl.8543, 8
 1519              	evhndl.8543:
 1520 0000 00000000 		.word	InsertHandler
 1521 0004 00000000 		.word	RemoveHandler
 1522              		.section	.rodata.vcom_configuration_descriptor,"a",%progbits
 1523              		.align	2
 1524              		.set	.LANCHOR1,. + 0
ARM GAS  C:\Users\jenny\AppData\Local\Temp\cceNBsfM.s 			page 28


 1525              		.type	vcom_configuration_descriptor, %object
 1526              		.size	vcom_configuration_descriptor, 8
 1527              	vcom_configuration_descriptor:
 1528 0000 43000000 		.word	67
 1529 0004 00000000 		.word	vcom_configuration_descriptor_data
 1530              		.section	.bss.inserted_event,"aw",%nobits
 1531              		.align	2
 1532              		.set	.LANCHOR5,. + 0
 1533              		.type	inserted_event, %object
 1534              		.size	inserted_event, 4
 1535              	inserted_event:
 1536 0000 00000000 		.space	4
 1537              		.section	.bss.ep2instate,"aw",%nobits
 1538              		.align	2
 1539              		.type	ep2instate, %object
 1540              		.size	ep2instate, 16
 1541              	ep2instate:
 1542 0000 00000000 		.space	16
 1542      00000000 
 1542      00000000 
 1542      00000000 
 1543              		.section	.bss.fbuff,"aw",%nobits
 1544              		.align	2
 1545              		.set	.LANCHOR13,. + 0
 1546              		.type	fbuff, %object
 1547              		.size	fbuff, 1024
 1548              	fbuff:
 1549 0000 00000000 		.space	1024
 1549      00000000 
 1549      00000000 
 1549      00000000 
 1549      00000000 
 1550              		.section	.bss.tmr,"aw",%nobits
 1551              		.align	2
 1552              		.set	.LANCHOR7,. + 0
 1553              		.type	tmr, %object
 1554              		.size	tmr, 20
 1555              	tmr:
 1556 0000 00000000 		.space	20
 1556      00000000 
 1556      00000000 
 1556      00000000 
 1556      00000000 
 1557              		.section	.rodata.commands,"a",%progbits
 1558              		.align	2
 1559              		.type	commands, %object
 1560              		.size	commands, 40
 1561              	commands:
 1562 0000 10020000 		.word	.LC31
 1563 0004 00000000 		.word	cmd_mem
 1564 0008 14020000 		.word	.LC32
 1565 000c 00000000 		.word	cmd_threads
 1566 0010 1C020000 		.word	.LC33
 1567 0014 00000000 		.word	cmd_test
 1568 0018 24020000 		.word	.LC34
 1569 001c 00000000 		.word	cmd_tree
 1570 0020 00000000 		.word	0
ARM GAS  C:\Users\jenny\AppData\Local\Temp\cceNBsfM.s 			page 29


 1571 0024 00000000 		.word	0
 1572              		.section	.bss.ep1outstate,"aw",%nobits
 1573              		.align	2
 1574              		.type	ep1outstate, %object
 1575              		.size	ep1outstate, 16
 1576              	ep1outstate:
 1577 0000 00000000 		.space	16
 1577      00000000 
 1577      00000000 
 1577      00000000 
 1578              		.section	.bss.cnt,"aw",%nobits
 1579              		.align	2
 1580              		.set	.LANCHOR4,. + 0
 1581              		.type	cnt, %object
 1582              		.size	cnt, 4
 1583              	cnt:
 1584 0000 00000000 		.space	4
 1585              		.section	.bss.SDC_FS,"aw",%nobits
 1586              		.align	2
 1587              		.set	.LANCHOR9,. + 0
 1588              		.type	SDC_FS, %object
 1589              		.size	SDC_FS, 564
 1590              	SDC_FS:
 1591 0000 00000000 		.space	564
 1591      00000000 
 1591      00000000 
 1591      00000000 
 1591      00000000 
 1592              		.section	.rodata.shell_cfg1,"a",%progbits
 1593              		.align	2
 1594              		.set	.LANCHOR18,. + 0
 1595              		.type	shell_cfg1, %object
 1596              		.size	shell_cfg1, 8
 1597              	shell_cfg1:
 1598 0000 00000000 		.word	SDU1
 1599 0004 00000000 		.word	commands
 1600              		.section	.rodata.ep1config,"a",%progbits
 1601              		.align	2
 1602              		.set	.LANCHOR10,. + 0
 1603              		.type	ep1config, %object
 1604              		.size	ep1config, 36
 1605              	ep1config:
 1606 0000 02000000 		.word	2
 1607 0004 00000000 		.word	0
 1608 0008 00000000 		.word	sduDataTransmitted
 1609 000c 00000000 		.word	sduDataReceived
 1610 0010 4000     		.short	64
 1611 0012 4000     		.short	64
 1612 0014 00000000 		.word	ep1instate
 1613 0018 00000000 		.word	ep1outstate
 1614 001c 0200     		.short	2
 1615 001e 0000     		.space	2
 1616 0020 00000000 		.word	0
 1617              		.section	.bss.ep1instate,"aw",%nobits
 1618              		.align	2
 1619              		.type	ep1instate, %object
 1620              		.size	ep1instate, 16
ARM GAS  C:\Users\jenny\AppData\Local\Temp\cceNBsfM.s 			page 30


 1621              	ep1instate:
 1622 0000 00000000 		.space	16
 1622      00000000 
 1622      00000000 
 1622      00000000 
 1623              		.section	.bss.waThread1,"aw",%nobits
 1624              		.align	3
 1625              		.set	.LANCHOR16,. + 0
 1626              		.type	waThread1, %object
 1627              		.size	waThread1, 440
 1628              	waThread1:
 1629 0000 00000000 		.space	440
 1629      00000000 
 1629      00000000 
 1629      00000000 
 1629      00000000 
 1630              		.section	.rodata.str1.4,"aMS",%progbits,1
 1631              		.align	2
 1632              	.LC0:
 1633 0000 626C696E 		.ascii	"blinker\000"
 1633      6B657200 
 1634              	.LC1:
 1635 0008 55736167 		.ascii	"Usage: test\015\012\000"
 1635      653A2074 
 1635      6573740D 
 1635      0A00
 1636 0016 0000     		.space	2
 1637              	.LC2:
 1638 0018 6F757420 		.ascii	"out of memory\015\012\000"
 1638      6F66206D 
 1638      656D6F72 
 1638      790D0A00 
 1639              	.LC3:
 1640 0028 55736167 		.ascii	"Usage: threads\015\012\000"
 1640      653A2074 
 1640      68726561 
 1640      64730D0A 
 1640      00
 1641 0039 000000   		.space	3
 1642              	.LC4:
 1643 003c 20202020 		.ascii	"    addr    stack prio refs     state time\015\012\000"
 1643      61646472 
 1643      20202020 
 1643      73746163 
 1643      6B207072 
 1644 0069 000000   		.space	3
 1645              	.LC5:
 1646 006c 252E386C 		.ascii	"%.8lx %.8lx %4lu %4lu %9s %lu\015\012\000"
 1646      7820252E 
 1646      386C7820 
 1646      25346C75 
 1646      2025346C 
 1647              	.LC6:
 1648 008c 55736167 		.ascii	"Usage: mem\015\012\000"
 1648      653A206D 
 1648      656D0D0A 
 1648      00
ARM GAS  C:\Users\jenny\AppData\Local\Temp\cceNBsfM.s 			page 31


 1649 0099 000000   		.space	3
 1650              	.LC7:
 1651 009c 636F7265 		.ascii	"core free memory : %u bytes\015\012\000"
 1651      20667265 
 1651      65206D65 
 1651      6D6F7279 
 1651      203A2025 
 1652 00ba 0000     		.space	2
 1653              	.LC8:
 1654 00bc 68656170 		.ascii	"heap fragments   : %u\015\012\000"
 1654      20667261 
 1654      676D656E 
 1654      74732020 
 1654      203A2025 
 1655              	.LC9:
 1656 00d4 68656170 		.ascii	"heap free total  : %u bytes\015\012\000"
 1656      20667265 
 1656      6520746F 
 1656      74616C20 
 1656      203A2025 
 1657 00f2 0000     		.space	2
 1658              	.LC10:
 1659 00f4 25732F25 		.ascii	"%s/%s\015\012\000"
 1659      730D0A00 
 1660              	.LC11:
 1661 00fc 55736167 		.ascii	"Usage: tree\015\012\000"
 1661      653A2074 
 1661      7265650D 
 1661      0A00
 1662 010a 0000     		.space	2
 1663              	.LC12:
 1664 010c 46696C65 		.ascii	"File System not mounted\015\012\000"
 1664      20537973 
 1664      74656D20 
 1664      6E6F7420 
 1664      6D6F756E 
 1665 0126 0000     		.space	2
 1666              	.LC13:
 1667 0128 2F00     		.ascii	"/\000"
 1668 012a 0000     		.space	2
 1669              	.LC14:
 1670 012c 46533A20 		.ascii	"FS: f_getfree() failed\015\012\000"
 1670      665F6765 
 1670      74667265 
 1670      65282920 
 1670      6661696C 
 1671 0145 000000   		.space	3
 1672              	.LC15:
 1673 0148 46533A20 		.ascii	"FS: %lu free clusters, %lu sectors per cluster, %lu"
 1673      256C7520 
 1673      66726565 
 1673      20636C75 
 1673      73746572 
 1674 017b 20627974 		.ascii	" bytes free\015\012\000"
 1674      65732066 
 1674      7265650D 
 1674      0A00
ARM GAS  C:\Users\jenny\AppData\Local\Temp\cceNBsfM.s 			page 32


 1675 0189 000000   		.space	3
 1676              	.LC16:
 1677 018c 52454144 		.ascii	"READY\000"
 1677      5900
 1678 0192 0000     		.space	2
 1679              	.LC17:
 1680 0194 43555252 		.ascii	"CURRENT\000"
 1680      454E5400 
 1681              	.LC18:
 1682 019c 53555350 		.ascii	"SUSPENDED\000"
 1682      454E4445 
 1682      4400
 1683 01a6 0000     		.space	2
 1684              	.LC19:
 1685 01a8 57545345 		.ascii	"WTSEM\000"
 1685      4D00
 1686 01ae 0000     		.space	2
 1687              	.LC20:
 1688 01b0 57544D54 		.ascii	"WTMTX\000"
 1688      5800
 1689 01b6 0000     		.space	2
 1690              	.LC21:
 1691 01b8 5754434F 		.ascii	"WTCOND\000"
 1691      4E4400
 1692 01bf 00       		.space	1
 1693              	.LC22:
 1694 01c0 534C4545 		.ascii	"SLEEPING\000"
 1694      50494E47 
 1694      00
 1695 01c9 000000   		.space	3
 1696              	.LC23:
 1697 01cc 57544558 		.ascii	"WTEXIT\000"
 1697      495400
 1698 01d3 00       		.space	1
 1699              	.LC24:
 1700 01d4 57544F52 		.ascii	"WTOREVT\000"
 1700      45565400 
 1701              	.LC25:
 1702 01dc 5754414E 		.ascii	"WTANDEVT\000"
 1702      44455654 
 1702      00
 1703 01e5 000000   		.space	3
 1704              	.LC26:
 1705 01e8 534E444D 		.ascii	"SNDMSGQ\000"
 1705      53475100 
 1706              	.LC27:
 1707 01f0 534E444D 		.ascii	"SNDMSG\000"
 1707      534700
 1708 01f7 00       		.space	1
 1709              	.LC28:
 1710 01f8 57544D53 		.ascii	"WTMSG\000"
 1710      4700
 1711 01fe 0000     		.space	2
 1712              	.LC29:
 1713 0200 57545155 		.ascii	"WTQUEUE\000"
 1713      45554500 
 1714              	.LC30:
ARM GAS  C:\Users\jenny\AppData\Local\Temp\cceNBsfM.s 			page 33


 1715 0208 46494E41 		.ascii	"FINAL\000"
 1715      4C00
 1716 020e 0000     		.space	2
 1717              	.LC31:
 1718 0210 6D656D00 		.ascii	"mem\000"
 1719              	.LC32:
 1720 0214 74687265 		.ascii	"threads\000"
 1720      61647300 
 1721              	.LC33:
 1722 021c 74657374 		.ascii	"test\000"
 1722      00
 1723 0221 000000   		.space	3
 1724              	.LC34:
 1725 0224 74726565 		.ascii	"tree\000"
 1725      00
 1726 0229 000000   		.text
 1727              	.Letext0:
 1728              		.file 2 "c:\\fbin\\yagarto\\bin\\../lib/gcc/arm-none-eabi/4.7.4/include/stddef.h"
 1729              		.file 3 "c:\\fbin\\yagarto\\bin\\../lib/gcc/arm-none-eabi/4.7.4/../../../../arm-none-eabi/include/
 1730              		.file 4 "../../os/ports/GCC/ARMCMx/chtypes.h"
 1731              		.file 5 "../../os/kernel/include/chlists.h"
 1732              		.file 6 "../../os/kernel/include/chthreads.h"
 1733              		.file 7 "../../os/ports/GCC/ARMCMx/chcore_v7m.h"
 1734              		.file 8 "../../os/kernel/include/chvt.h"
 1735              		.file 9 "../../os/kernel/include/chschd.h"
 1736              		.file 10 "../../os/kernel/include/chsem.h"
 1737              		.file 11 "../../os/kernel/include/chmtx.h"
 1738              		.file 12 "../../os/kernel/include/chevents.h"
 1739              		.file 13 "../../os/kernel/include/chmemcore.h"
 1740              		.file 14 "../../os/kernel/include/chheap.h"
 1741              		.file 15 "../../os/kernel/include/chqueues.h"
 1742              		.file 16 "../../os/kernel/include/chstreams.h"
 1743              		.file 17 "../../os/hal/platforms/STM32F4xx/stm32f4xx.h"
 1744              		.file 18 "../../os/hal/platforms/STM32F4xx/stm32_dma.h"
 1745              		.file 19 "../../os/hal/include/io_block.h"
 1746              		.file 20 "../../os/hal/platforms/STM32/GPIOv2/pal_lld.h"
 1747              		.file 21 "../../os/hal/include/serial.h"
 1748              		.file 22 "../../os/hal/platforms/STM32/USARTv1/serial_lld.h"
 1749              		.file 23 "../../os/hal/platforms/STM32/sdc_lld.h"
 1750              		.file 24 "../../os/hal/include/usb.h"
 1751              		.file 25 "../../os/hal/platforms/STM32/OTGv1/usb_lld.h"
 1752              		.file 26 "../../os/hal/platforms/STM32/OTGv1/stm32_otg.h"
 1753              		.file 27 "../../os/hal/include/serial_usb.h"
 1754              		.file 28 "../../os/various/shell.h"
 1755              		.file 29 "../../ext/fatfs/src/integer.h"
 1756              		.file 30 "../../ext/fatfs/src/ff.h"
 1757              		.file 31 "../../os/ports/common/ARMCMx/CMSIS/include/core_cm4.h"
 1758              		.file 32 "../../os/various/lwip_bindings/lwipthread.h"
 1759              		.file 33 "web/web.h"
 1760              		.file 34 "../../os/hal/include/sdc.h"
 1761              		.file 35 "../../os/kernel/include/chdynamic.h"
 1762              		.file 36 "../../os/various/chprintf.h"
 1763              		.file 37 "../../os/kernel/include/chregistry.h"
 1764              		.file 38 "c:\\fbin\\yagarto\\bin\\../lib/gcc/arm-none-eabi/4.7.4/../../../../arm-none-eabi/include
 1765              		.file 39 "../../os/hal/include/hal.h"
 1766              		.file 40 "../../os/kernel/include/chsys.h"