ARM GAS  C:\Users\jenny\AppData\Local\Temp\ccjexqIY.s 			page 1


   1              		.syntax unified
   2              		.cpu cortex-m4
   3              		.eabi_attribute 27, 3
   4              		.fpu fpv4-sp-d16
   5              		.eabi_attribute 20, 1
   6              		.eabi_attribute 21, 1
   7              		.eabi_attribute 23, 3
   8              		.eabi_attribute 24, 1
   9              		.eabi_attribute 25, 1
  10              		.eabi_attribute 26, 1
  11              		.eabi_attribute 30, 2
  12              		.eabi_attribute 34, 1
  13              		.eabi_attribute 18, 4
  14              		.thumb
  15              		.file	"mem.c"
  16              		.text
  17              	.Ltext0:
  18              		.cfi_sections	.debug_frame
  19              		.section	.text.mem_init,"ax",%progbits
  20              		.align	2
  21              		.p2align 4,,15
  22              		.global	mem_init
  23              		.thumb
  24              		.thumb_func
  25              		.type	mem_init, %function
  26              	mem_init:
  27              	.LFB8:
  28              		.file 1 "../../ext/lwip/src/core/mem.c"
  29              		.loc 1 275 0
  30              		.cfi_startproc
  31              		@ args = 0, pretend = 0, frame = 0
  32              		@ frame_needed = 0, uses_anonymous_args = 0
  33 0000 F8B5     		push	{r3, r4, r5, r6, r7, lr}
  34              	.LCFI0:
  35              		.cfi_def_cfa_offset 24
  36              		.cfi_offset 3, -24
  37              		.cfi_offset 4, -20
  38              		.cfi_offset 5, -16
  39              		.cfi_offset 6, -12
  40              		.cfi_offset 7, -8
  41              		.cfi_offset 14, -4
  42              		.loc 1 282 0
  43 0002 134B     		ldr	r3, .L5
  44 0004 DFF85CE0 		ldr	lr, .L5+20
  45              		.loc 1 299 0
  46 0008 1248     		ldr	r0, .L5+4
  47              		.loc 1 282 0
  48 000a 23F00303 		bic	r3, r3, #3
  49              		.loc 1 290 0
  50 000e 0124     		movs	r4, #1
  51 0010 83F84446 		strb	r4, [r3, #1604]
  52              		.loc 1 299 0
  53 0014 2146     		mov	r1, r4
  54              		.loc 1 295 0
  55 0016 104C     		ldr	r4, .L5+8
  56              		.loc 1 282 0
  57 0018 CEF80030 		str	r3, [lr, #0]
ARM GAS  C:\Users\jenny\AppData\Local\Temp\ccjexqIY.s 			page 2


  58              	.LVL0:
  59              		.loc 1 285 0
  60 001c 4FF4C862 		mov	r2, #1600
  61              		.loc 1 286 0
  62 0020 0025     		movs	r5, #0
  63              		.loc 1 289 0
  64 0022 9E18     		adds	r6, r3, r2
  65              		.loc 1 286 0
  66 0024 5D80     		strh	r5, [r3, #2]	@ movhi
  67              		.loc 1 287 0
  68 0026 1D71     		strb	r5, [r3, #4]
  69              		.loc 1 286 0
  70 0028 2F46     		mov	r7, r5	@ movhi
  71              		.loc 1 285 0
  72 002a 1A80     		strh	r2, [r3, #0]	@ movhi
  73              		.loc 1 289 0
  74 002c 0B4D     		ldr	r5, .L5+12
  75              		.loc 1 291 0
  76 002e A3F84026 		strh	r2, [r3, #1600]	@ movhi
  77              		.loc 1 292 0
  78 0032 A3F84226 		strh	r2, [r3, #1602]	@ movhi
  79              		.loc 1 295 0
  80 0036 2360     		str	r3, [r4, #0]
  81              		.loc 1 297 0
  82 0038 094B     		ldr	r3, .L5+16
  83              	.LVL1:
  84              		.loc 1 289 0
  85 003a 2E60     		str	r6, [r5, #0]
  86              		.loc 1 297 0
  87 003c A3F8A820 		strh	r2, [r3, #168]	@ movhi
  88              		.loc 1 299 0
  89 0040 FFF7FEFF 		bl	sys_sem_new
  90              	.LVL2:
  91 0044 00B9     		cbnz	r0, .L4
  92 0046 F8BD     		pop	{r3, r4, r5, r6, r7, pc}
  93              	.L4:
  94              		.loc 1 302 0 discriminator 1
  95 0048 BDE8F840 		pop	{r3, r4, r5, r6, r7, lr}
  96              		.loc 1 300 0 discriminator 1
  97 004c FFF7FEBF 		b	port_halt
  98              	.LVL3:
  99              	.L6:
 100              		.align	2
 101              	.L5:
 102 0050 03000000 		.word	.LANCHOR0+3
 103 0054 00000000 		.word	.LANCHOR4
 104 0058 00000000 		.word	.LANCHOR3
 105 005c 00000000 		.word	.LANCHOR2
 106 0060 00000000 		.word	lwip_stats
 107 0064 00000000 		.word	.LANCHOR1
 108              		.cfi_endproc
 109              	.LFE8:
 110              		.size	mem_init, .-mem_init
 111 0068 AFF30080 		.section	.text.mem_free,"ax",%progbits
 111      AFF30080 
 112              		.align	2
 113              		.p2align 4,,15
ARM GAS  C:\Users\jenny\AppData\Local\Temp\ccjexqIY.s 			page 3


 114              		.global	mem_free
 115              		.thumb
 116              		.thumb_func
 117              		.type	mem_free, %function
 118              	mem_free:
 119              	.LFB9:
 120              		.loc 1 312 0
 121              		.cfi_startproc
 122              		@ args = 0, pretend = 0, frame = 0
 123              		@ frame_needed = 0, uses_anonymous_args = 0
 124              	.LVL4:
 125 0000 2DE9F041 		push	{r4, r5, r6, r7, r8, lr}
 126              	.LCFI1:
 127              		.cfi_def_cfa_offset 24
 128              		.cfi_offset 4, -24
 129              		.cfi_offset 5, -20
 130              		.cfi_offset 6, -16
 131              		.cfi_offset 7, -12
 132              		.cfi_offset 8, -8
 133              		.cfi_offset 14, -4
 134              		.loc 1 316 0
 135 0004 0446     		mov	r4, r0
 136 0006 B0B1     		cbz	r0, .L7
 137              		.loc 1 320 0
 138 0008 8307     		lsls	r3, r0, #30
 139 000a 7AD1     		bne	.L33
 140              	.LVL5:
 141              	.L9:
 142              		.loc 1 322 0
 143 000c 474D     		ldr	r5, .L39
 144 000e 2B68     		ldr	r3, [r5, #0]
 145 0010 9C42     		cmp	r4, r3
 146 0012 03D3     		bcc	.L10
 147              		.loc 1 322 0 is_stmt 0 discriminator 2
 148 0014 464E     		ldr	r6, .L39+4
 149 0016 3068     		ldr	r0, [r6, #0]
 150 0018 8442     		cmp	r4, r0
 151 001a 12D3     		bcc	.L11
 152              	.L10:
 153              		.loc 1 322 0 discriminator 1
 154 001c FFF7FEFF 		bl	port_halt
 155              	.LVL6:
 156              		.loc 1 325 0 is_stmt 1 discriminator 1
 157 0020 2968     		ldr	r1, [r5, #0]
 158 0022 8C42     		cmp	r4, r1
 159 0024 09D2     		bcs	.L12
 160              	.L13:
 161              		.loc 1 330 0
 162 0026 4349     		ldr	r1, .L39+8
 163 0028 B1F8B020 		ldrh	r2, [r1, #176]
 164 002c 501C     		adds	r0, r2, #1
 165 002e A1F8B000 		strh	r0, [r1, #176]	@ movhi
 166              		.loc 1 332 0
 167 0032 BDE8F081 		pop	{r4, r5, r6, r7, r8, pc}
 168              	.LVL7:
 169              	.L7:
 170 0036 BDE8F081 		pop	{r4, r5, r6, r7, r8, pc}
ARM GAS  C:\Users\jenny\AppData\Local\Temp\ccjexqIY.s 			page 4


 171              	.LVL8:
 172              	.L12:
 173              		.loc 1 325 0
 174 003a 3D4E     		ldr	r6, .L39+4
 175 003c 3268     		ldr	r2, [r6, #0]
 176 003e 9442     		cmp	r4, r2
 177 0040 F1D2     		bcs	.L13
 178              	.L11:
 179              		.loc 1 335 0
 180 0042 3D48     		ldr	r0, .L39+12
 181 0044 0021     		movs	r1, #0
 182 0046 FFF7FEFF 		bl	sys_arch_sem_wait
 183              	.LVL9:
 184              		.loc 1 339 0
 185 004a 14F8043C 		ldrb	r3, [r4, #-4]	@ zero_extendqisi2
 186              		.loc 1 337 0
 187 004e A4F10807 		sub	r7, r4, #8
 188              	.LVL10:
 189              		.loc 1 339 0
 190 0052 002B     		cmp	r3, #0
 191 0054 66D0     		beq	.L34
 192              	.L14:
 193              		.loc 1 343 0
 194 0056 DFF8E480 		ldr	r8, .L39+16
 195              		.loc 1 348 0
 196 005a 364A     		ldr	r2, .L39+8
 197              		.loc 1 343 0
 198 005c D8F80000 		ldr	r0, [r8, #0]
 199              		.loc 1 348 0
 200 0060 2B68     		ldr	r3, [r5, #0]
 201              		.loc 1 341 0
 202 0062 0021     		movs	r1, #0
 203 0064 04F8041C 		strb	r1, [r4, #-4]
 204              		.loc 1 343 0
 205 0068 8742     		cmp	r7, r0
 206              		.loc 1 348 0
 207 006a 34F8081C 		ldrh	r1, [r4, #-8]
 208 006e B2F8AA00 		ldrh	r0, [r2, #170]
 209              		.loc 1 345 0
 210 0072 38BF     		it	cc
 211 0074 C8F80070 		strcc	r7, [r8, #0]
 212              		.loc 1 348 0
 213 0078 411A     		subs	r1, r0, r1
 214 007a F81A     		subs	r0, r7, r3
 215 007c 0918     		adds	r1, r1, r0
 216              	.LBB4:
 217              	.LBB5:
 218              		.loc 1 241 0
 219 007e 9F42     		cmp	r7, r3
 220              	.LBE5:
 221              	.LBE4:
 222              		.loc 1 348 0
 223 0080 A2F8AA10 		strh	r1, [r2, #170]	@ movhi
 224              	.LVL11:
 225              	.LBB8:
 226              	.LBB6:
 227              		.loc 1 241 0
ARM GAS  C:\Users\jenny\AppData\Local\Temp\ccjexqIY.s 			page 5


 228 0084 4BD3     		bcc	.L35
 229              	.L16:
 230              		.loc 1 242 0
 231 0086 3268     		ldr	r2, [r6, #0]
 232 0088 9742     		cmp	r7, r2
 233 008a 45D2     		bcs	.L36
 234              	.L17:
 235              		.loc 1 243 0
 236 008c 14F8043C 		ldrb	r3, [r4, #-4]	@ zero_extendqisi2
 237 0090 002B     		cmp	r3, #0
 238 0092 3ED1     		bne	.L37
 239              	.L18:
 240              		.loc 1 246 0
 241 0094 34F8080C 		ldrh	r0, [r4, #-8]
 242 0098 B0F5C86F 		cmp	r0, #1600
 243 009c 34D8     		bhi	.L38
 244              	.L19:
 245              		.loc 1 248 0
 246 009e 2B68     		ldr	r3, [r5, #0]
 247 00a0 1A18     		adds	r2, r3, r0
 248              	.LVL12:
 249              		.loc 1 249 0
 250 00a2 9742     		cmp	r7, r2
 251 00a4 13D0     		beq	.L20
 252 00a6 1179     		ldrb	r1, [r2, #4]	@ zero_extendqisi2
 253 00a8 89B9     		cbnz	r1, .L20
 254 00aa 3068     		ldr	r0, [r6, #0]
 255 00ac 8242     		cmp	r2, r0
 256 00ae 0ED0     		beq	.L20
 257              		.loc 1 254 0
 258 00b0 1088     		ldrh	r0, [r2, #0]
 259              		.loc 1 251 0
 260 00b2 D8F80010 		ldr	r1, [r8, #0]
 261              		.loc 1 254 0
 262 00b6 24F8080C 		strh	r0, [r4, #-8]	@ movhi
 263              		.loc 1 251 0
 264 00ba 8A42     		cmp	r2, r1
 265              		.loc 1 255 0
 266 00bc 1288     		ldrh	r2, [r2, #0]
 267              	.LVL13:
 268              		.loc 1 252 0
 269 00be 08BF     		it	eq
 270 00c0 1E49     		ldreq	r1, .L39+16
 271              		.loc 1 255 0
 272 00c2 03EB0200 		add	r0, r3, r2
 273              		.loc 1 252 0
 274 00c6 08BF     		it	eq
 275 00c8 0F60     		streq	r7, [r1, #0]
 276              		.loc 1 255 0
 277 00ca F91A     		subs	r1, r7, r3
 278 00cc 4180     		strh	r1, [r0, #2]	@ movhi
 279              	.L20:
 280              		.loc 1 259 0
 281 00ce 34F8061C 		ldrh	r1, [r4, #-6]
 282 00d2 5A18     		adds	r2, r3, r1
 283              	.LVL14:
 284              		.loc 1 260 0
ARM GAS  C:\Users\jenny\AppData\Local\Temp\ccjexqIY.s 			page 6


 285 00d4 9742     		cmp	r7, r2
 286 00d6 0FD0     		beq	.L22
 287 00d8 1079     		ldrb	r0, [r2, #4]	@ zero_extendqisi2
 288 00da 68B9     		cbnz	r0, .L22
 289              		.loc 1 262 0
 290 00dc D8F80000 		ldr	r0, [r8, #0]
 291 00e0 8742     		cmp	r7, r0
 292              		.loc 1 263 0
 293 00e2 04BF     		itt	eq
 294 00e4 1548     		ldreq	r0, .L39+16
 295 00e6 0260     		streq	r2, [r0, #0]
 296              		.loc 1 265 0
 297 00e8 34F8080C 		ldrh	r0, [r4, #-8]
 298 00ec 5852     		strh	r0, [r3, r1]	@ movhi
 299              		.loc 1 266 0
 300 00ee 34F8081C 		ldrh	r1, [r4, #-8]
 301 00f2 5818     		adds	r0, r3, r1
 302 00f4 D31A     		subs	r3, r2, r3
 303 00f6 4380     		strh	r3, [r0, #2]	@ movhi
 304              	.L22:
 305              	.LBE6:
 306              	.LBE8:
 307              		.loc 1 355 0
 308 00f8 0F48     		ldr	r0, .L39+12
 309              		.loc 1 356 0
 310 00fa BDE8F041 		pop	{r4, r5, r6, r7, r8, lr}
 311              		.loc 1 355 0
 312 00fe FFF7FEBF 		b	sys_sem_signal
 313              	.LVL15:
 314              	.L33:
 315              		.loc 1 320 0 discriminator 1
 316 0102 FFF7FEFF 		bl	port_halt
 317              	.LVL16:
 318 0106 81E7     		b	.L9
 319              	.LVL17:
 320              	.L38:
 321              	.LBB9:
 322              	.LBB7:
 323              		.loc 1 246 0
 324 0108 FFF7FEFF 		bl	port_halt
 325              	.LVL18:
 326 010c 34F8080C 		ldrh	r0, [r4, #-8]
 327 0110 C5E7     		b	.L19
 328              	.L37:
 329              		.loc 1 243 0
 330 0112 FFF7FEFF 		bl	port_halt
 331              	.LVL19:
 332 0116 BDE7     		b	.L18
 333              	.L36:
 334              		.loc 1 242 0
 335 0118 FFF7FEFF 		bl	port_halt
 336              	.LVL20:
 337 011c B6E7     		b	.L17
 338              	.L35:
 339              		.loc 1 241 0
 340 011e FFF7FEFF 		bl	port_halt
 341              	.LVL21:
ARM GAS  C:\Users\jenny\AppData\Local\Temp\ccjexqIY.s 			page 7


 342 0122 B0E7     		b	.L16
 343              	.LVL22:
 344              	.L34:
 345              	.LBE7:
 346              	.LBE9:
 347              		.loc 1 339 0 discriminator 1
 348 0124 FFF7FEFF 		bl	port_halt
 349              	.LVL23:
 350 0128 95E7     		b	.L14
 351              	.L40:
 352 012a 00BF     		.align	2
 353              	.L39:
 354 012c 00000000 		.word	.LANCHOR1
 355 0130 00000000 		.word	.LANCHOR2
 356 0134 00000000 		.word	lwip_stats
 357 0138 00000000 		.word	.LANCHOR4
 358 013c 00000000 		.word	.LANCHOR3
 359              		.cfi_endproc
 360              	.LFE9:
 361              		.size	mem_free, .-mem_free
 362              		.section	.text.mem_trim,"ax",%progbits
 363              		.align	2
 364              		.p2align 4,,15
 365              		.global	mem_trim
 366              		.thumb
 367              		.thumb_func
 368              		.type	mem_trim, %function
 369              	mem_trim:
 370              	.LFB10:
 371              		.loc 1 370 0
 372              		.cfi_startproc
 373              		@ args = 0, pretend = 0, frame = 0
 374              		@ frame_needed = 0, uses_anonymous_args = 0
 375              	.LVL24:
 376 0000 2DE9F041 		push	{r4, r5, r6, r7, r8, lr}
 377              	.LCFI2:
 378              		.cfi_def_cfa_offset 24
 379              		.cfi_offset 4, -24
 380              		.cfi_offset 5, -20
 381              		.cfi_offset 6, -16
 382              		.cfi_offset 7, -12
 383              		.cfi_offset 8, -8
 384              		.cfi_offset 14, -4
 385              		.loc 1 379 0
 386 0004 0331     		adds	r1, r1, #3
 387              	.LVL25:
 388 0006 4FF6FC75 		movw	r5, #65532
 389 000a 0D40     		ands	r5, r5, r1
 390              	.LVL26:
 391              		.loc 1 381 0
 392 000c 0B2D     		cmp	r5, #11
 393              		.loc 1 370 0
 394 000e 0446     		mov	r4, r0
 395              		.loc 1 381 0
 396 0010 5BD9     		bls	.L57
 397              		.loc 1 386 0
 398 0012 B5F5C86F 		cmp	r5, #1600
ARM GAS  C:\Users\jenny\AppData\Local\Temp\ccjexqIY.s 			page 8


 399 0016 5FD8     		bhi	.L67
 400              	.LVL27:
 401              	.L42:
 402              		.loc 1 390 0
 403 0018 444E     		ldr	r6, .L69
 404 001a 3368     		ldr	r3, [r6, #0]
 405 001c A342     		cmp	r3, r4
 406 001e 46D8     		bhi	.L44
 407              		.loc 1 390 0 is_stmt 0 discriminator 2
 408 0020 434A     		ldr	r2, .L69+4
 409 0022 1068     		ldr	r0, [r2, #0]
 410              	.LVL28:
 411 0024 8442     		cmp	r4, r0
 412 0026 42D2     		bcs	.L44
 413              	.LVL29:
 414              	.L45:
 415              		.loc 1 403 0 is_stmt 1
 416 0028 A4F10808 		sub	r8, r4, #8
 417              	.LVL30:
 418              		.loc 1 407 0
 419 002c 34F8087C 		ldrh	r7, [r4, #-8]
 420              		.loc 1 405 0
 421 0030 C3EB0800 		rsb	r0, r3, r8
 422              		.loc 1 407 0
 423 0034 083F     		subs	r7, r7, #8
 424              		.loc 1 405 0
 425 0036 1FFA80F8 		uxth	r8, r0
 426              	.LVL31:
 427              		.loc 1 407 0
 428 003a C8EB0703 		rsb	r3, r8, r7
 429 003e 9FB2     		uxth	r7, r3
 430              	.LVL32:
 431              		.loc 1 408 0
 432 0040 AF42     		cmp	r7, r5
 433 0042 4DD3     		bcc	.L68
 434              		.loc 1 413 0
 435 0044 BD42     		cmp	r5, r7
 436 0046 3DD0     		beq	.L61
 437              		.loc 1 419 0
 438 0048 0021     		movs	r1, #0
 439 004a 3A48     		ldr	r0, .L69+8
 440              	.LVL33:
 441 004c FFF7FEFF 		bl	sys_arch_sem_wait
 442              	.LVL34:
 443              		.loc 1 421 0
 444 0050 3368     		ldr	r3, [r6, #0]
 445 0052 34F8082C 		ldrh	r2, [r4, #-8]
 446 0056 9918     		adds	r1, r3, r2
 447              	.LVL35:
 448              		.loc 1 422 0
 449 0058 0879     		ldrb	r0, [r1, #4]	@ zero_extendqisi2
 450 005a 0028     		cmp	r0, #0
 451 005c 44D1     		bne	.L49
 452              	.LBB10:
 453              		.loc 1 429 0
 454 005e 364E     		ldr	r6, .L69+12
 455              		.loc 1 426 0
ARM GAS  C:\Users\jenny\AppData\Local\Temp\ccjexqIY.s 			page 9


 456 0060 33F802C0 		ldrh	ip, [r3, r2]
 457              	.LVL36:
 458              		.loc 1 429 0
 459 0064 3268     		ldr	r2, [r6, #0]
 460              		.loc 1 428 0
 461 0066 05F10800 		add	r0, r5, #8
 462 006a 4044     		add	r0, r8, r0
 463 006c 80B2     		uxth	r0, r0
 464              	.LVL37:
 465              		.loc 1 429 0
 466 006e 8A42     		cmp	r2, r1
 467              		.loc 1 430 0
 468 0070 03EB0002 		add	r2, r3, r0
 469 0074 08BF     		it	eq
 470 0076 3260     		streq	r2, [r6, #0]
 471              	.LVL38:
 472              		.loc 1 435 0
 473 0078 A2F800C0 		strh	ip, [r2, #0]	@ movhi
 474              		.loc 1 439 0
 475 007c 24F8080C 		strh	r0, [r4, #-8]	@ movhi
 476              		.loc 1 443 0
 477 0080 1188     		ldrh	r1, [r2, #0]
 478              	.LVL39:
 479              		.loc 1 437 0
 480 0082 A2F80280 		strh	r8, [r2, #2]	@ movhi
 481              		.loc 1 433 0
 482 0086 0026     		movs	r6, #0
 483              		.loc 1 443 0
 484 0088 B1F5C86F 		cmp	r1, #1600
 485              		.loc 1 433 0
 486 008c 1671     		strb	r6, [r2, #4]
 487              		.loc 1 443 0
 488 008e 01D0     		beq	.L55
 489              		.loc 1 444 0
 490 0090 5B18     		adds	r3, r3, r1
 491              	.LVL40:
 492 0092 5880     		strh	r0, [r3, #2]	@ movhi
 493              	.LVL41:
 494              	.L55:
 495              	.LBE10:
 496              		.loc 1 468 0
 497 0094 2948     		ldr	r0, .L69+16
 498 0096 B0F8AA20 		ldrh	r2, [r0, #170]
 499 009a AD18     		adds	r5, r5, r2
 500 009c EF1B     		subs	r7, r5, r7
 501              	.LVL42:
 502 009e A0F8AA70 		strh	r7, [r0, #170]	@ movhi
 503              	.L53:
 504              		.loc 1 480 0
 505 00a2 2448     		ldr	r0, .L69+8
 506 00a4 FFF7FEFF 		bl	sys_sem_signal
 507              	.LVL43:
 508              		.loc 1 482 0
 509 00a8 2046     		mov	r0, r4
 510 00aa BDE8F081 		pop	{r4, r5, r6, r7, r8, pc}
 511              	.LVL44:
 512              	.L44:
ARM GAS  C:\Users\jenny\AppData\Local\Temp\ccjexqIY.s 			page 10


 513              		.loc 1 390 0 discriminator 1
 514 00ae FFF7FEFF 		bl	port_halt
 515              	.LVL45:
 516              		.loc 1 393 0 discriminator 1
 517 00b2 3368     		ldr	r3, [r6, #0]
 518 00b4 9C42     		cmp	r4, r3
 519 00b6 0AD2     		bcs	.L46
 520              	.L47:
 521              		.loc 1 398 0
 522 00b8 2049     		ldr	r1, .L69+16
 523 00ba B1F8B030 		ldrh	r3, [r1, #176]
 524 00be 581C     		adds	r0, r3, #1
 525 00c0 A1F8B000 		strh	r0, [r1, #176]	@ movhi
 526              	.LVL46:
 527              	.L61:
 528              		.loc 1 482 0
 529 00c4 2046     		mov	r0, r4
 530 00c6 BDE8F081 		pop	{r4, r5, r6, r7, r8, pc}
 531              	.LVL47:
 532              	.L57:
 533              		.loc 1 383 0
 534 00ca 0C25     		movs	r5, #12
 535              	.LVL48:
 536 00cc A4E7     		b	.L42
 537              	.LVL49:
 538              	.L46:
 539              		.loc 1 393 0
 540 00ce 1849     		ldr	r1, .L69+4
 541 00d0 0A68     		ldr	r2, [r1, #0]
 542 00d2 9442     		cmp	r4, r2
 543 00d4 F0D2     		bcs	.L47
 544 00d6 A7E7     		b	.L45
 545              	.LVL50:
 546              	.L67:
 547              		.loc 1 387 0
 548 00d8 0024     		movs	r4, #0
 549              		.loc 1 482 0
 550 00da 2046     		mov	r0, r4
 551              	.LVL51:
 552 00dc BDE8F081 		pop	{r4, r5, r6, r7, r8, pc}
 553              	.LVL52:
 554              	.L68:
 555              		.loc 1 408 0 discriminator 1
 556 00e0 FFF7FEFF 		bl	port_halt
 557              	.LVL53:
 558              		.loc 1 411 0 discriminator 1
 559 00e4 0024     		movs	r4, #0
 560              	.LVL54:
 561 00e6 EDE7     		b	.L61
 562              	.LVL55:
 563              	.L49:
 564              		.loc 1 448 0
 565 00e8 05F11401 		add	r1, r5, #20
 566              	.LVL56:
 567 00ec B942     		cmp	r1, r7
 568 00ee D8D8     		bhi	.L53
 569              		.loc 1 456 0
ARM GAS  C:\Users\jenny\AppData\Local\Temp\ccjexqIY.s 			page 11


 570 00f0 05F10806 		add	r6, r5, #8
 571 00f4 08EB0600 		add	r0, r8, r6
 572 00f8 81B2     		uxth	r1, r0
 573              	.LVL57:
 574              		.loc 1 458 0
 575 00fa DFF83CE0 		ldr	lr, .L69+12
 576              		.loc 1 462 0
 577 00fe 5A52     		strh	r2, [r3, r1]	@ movhi
 578              		.loc 1 458 0
 579 0100 DEF80000 		ldr	r0, [lr, #0]
 580              	.LVL58:
 581              		.loc 1 464 0
 582 0104 24F8081C 		strh	r1, [r4, #-8]	@ movhi
 583              		.loc 1 457 0
 584 0108 5E18     		adds	r6, r3, r1
 585              	.LVL59:
 586              		.loc 1 465 0
 587 010a 5A5A     		ldrh	r2, [r3, r1]
 588              		.loc 1 463 0
 589 010c A6F80280 		strh	r8, [r6, #2]	@ movhi
 590              		.loc 1 458 0
 591 0110 8642     		cmp	r6, r0
 592              		.loc 1 459 0
 593 0112 38BF     		it	cc
 594 0114 CEF80060 		strcc	r6, [lr, #0]
 595              		.loc 1 461 0
 596 0118 0020     		movs	r0, #0
 597              		.loc 1 465 0
 598 011a B2F5C86F 		cmp	r2, #1600
 599              		.loc 1 466 0
 600 011e 18BF     		it	ne
 601 0120 9B18     		addne	r3, r3, r2
 602              		.loc 1 461 0
 603 0122 3071     		strb	r0, [r6, #4]
 604              		.loc 1 466 0
 605 0124 18BF     		it	ne
 606 0126 5980     		strhne	r1, [r3, #2]	@ movhi
 607 0128 B4E7     		b	.L55
 608              	.L70:
 609 012a 00BF     		.align	2
 610              	.L69:
 611 012c 00000000 		.word	.LANCHOR1
 612 0130 00000000 		.word	.LANCHOR2
 613 0134 00000000 		.word	.LANCHOR4
 614 0138 00000000 		.word	.LANCHOR3
 615 013c 00000000 		.word	lwip_stats
 616              		.cfi_endproc
 617              	.LFE10:
 618              		.size	mem_trim, .-mem_trim
 619              		.section	.text.mem_malloc,"ax",%progbits
 620              		.align	2
 621              		.p2align 4,,15
 622              		.global	mem_malloc
 623              		.thumb
 624              		.thumb_func
 625              		.type	mem_malloc, %function
 626              	mem_malloc:
ARM GAS  C:\Users\jenny\AppData\Local\Temp\ccjexqIY.s 			page 12


 627              	.LFB11:
 628              		.loc 1 495 0
 629              		.cfi_startproc
 630              		@ args = 0, pretend = 0, frame = 0
 631              		@ frame_needed = 0, uses_anonymous_args = 0
 632              	.LVL60:
 633 0000 2DE9F843 		push	{r3, r4, r5, r6, r7, r8, r9, lr}
 634              	.LCFI3:
 635              		.cfi_def_cfa_offset 32
 636              		.cfi_offset 3, -32
 637              		.cfi_offset 4, -28
 638              		.cfi_offset 5, -24
 639              		.cfi_offset 6, -20
 640              		.cfi_offset 7, -16
 641              		.cfi_offset 8, -12
 642              		.cfi_offset 9, -8
 643              		.cfi_offset 14, -4
 644              		.loc 1 503 0
 645 0004 0028     		cmp	r0, #0
 646 0006 3AD0     		beq	.L112
 647              		.loc 1 509 0
 648 0008 0330     		adds	r0, r0, #3
 649              	.LVL61:
 650 000a 4FF6FC77 		movw	r7, #65532
 651 000e 0740     		ands	r7, r7, r0
 652              	.LVL62:
 653              		.loc 1 511 0
 654 0010 0B2F     		cmp	r7, #11
 655 0012 36D9     		bls	.L92
 656              		.loc 1 516 0
 657 0014 B7F5C86F 		cmp	r7, #1600
 658 0018 00F28280 		bhi	.L93
 659 001c C7F5C865 		rsb	r5, r7, #1600
 660              	.LVL63:
 661              	.L73:
 662              		.loc 1 521 0
 663 0020 0021     		movs	r1, #0
 664 0022 5048     		ldr	r0, .L120
 665              	.LVL64:
 666              		.loc 1 532 0
 667 0024 DFF84881 		ldr	r8, .L120+12
 668              		.loc 1 521 0
 669 0028 FFF7FEFF 		bl	sys_arch_sem_wait
 670              	.LVL65:
 671              		.loc 1 532 0
 672 002c DFF844C1 		ldr	ip, .L120+16
 673 0030 D8F800E0 		ldr	lr, [r8, #0]
 674 0034 DCF80020 		ldr	r2, [ip, #0]
 675 0038 C2EB0E03 		rsb	r3, r2, lr
 676 003c 99B2     		uxth	r1, r3
 677 003e A942     		cmp	r1, r5
 678 0040 0B46     		mov	r3, r1
 679              	.LVL66:
 680 0042 09DB     		blt	.L104
 681 0044 0FE0     		b	.L74
 682              	.LVL67:
 683              	.L115:
ARM GAS  C:\Users\jenny\AppData\Local\Temp\ccjexqIY.s 			page 13


 684              		.loc 1 549 0 discriminator 1
 685 0046 D05A     		ldrh	r0, [r2, r3]
 686 0048 A0F10806 		sub	r6, r0, #8
 687 004c F61A     		subs	r6, r6, r3
 688              		.loc 1 548 0 discriminator 1
 689 004e BE42     		cmp	r6, r7
 690 0050 1BD2     		bcs	.L114
 691              		.loc 1 549 0
 692 0052 0346     		mov	r3, r0
 693              	.LVL68:
 694              		.loc 1 532 0
 695 0054 AB42     		cmp	r3, r5
 696 0056 06DA     		bge	.L74
 697              	.LVL69:
 698              	.L104:
 699              		.loc 1 534 0
 700 0058 D418     		adds	r4, r2, r3
 701              	.LVL70:
 702              		.loc 1 548 0
 703 005a 2179     		ldrb	r1, [r4, #4]	@ zero_extendqisi2
 704 005c 0029     		cmp	r1, #0
 705 005e F2D0     		beq	.L115
 706 0060 D35A     		ldrh	r3, [r2, r3]
 707              	.LVL71:
 708              		.loc 1 532 0
 709 0062 AB42     		cmp	r3, r5
 710 0064 F8DB     		blt	.L104
 711              	.LVL72:
 712              	.L74:
 713              		.loc 1 629 0
 714 0066 4049     		ldr	r1, .L120+4
 715              		.loc 1 631 0
 716 0068 3E48     		ldr	r0, .L120
 717              		.loc 1 629 0
 718 006a B1F8AE20 		ldrh	r2, [r1, #174]
 719 006e 531C     		adds	r3, r2, #1
 720 0070 A1F8AE30 		strh	r3, [r1, #174]	@ movhi
 721              		.loc 1 631 0
 722 0074 FFF7FEFF 		bl	sys_sem_signal
 723              	.LVL73:
 724              		.loc 1 632 0
 725 0078 0020     		movs	r0, #0
 726 007a BDE8F883 		pop	{r3, r4, r5, r6, r7, r8, r9, pc}
 727              	.LVL74:
 728              	.L112:
 729              		.loc 1 633 0
 730 007e BDE8F883 		pop	{r3, r4, r5, r6, r7, r8, r9, pc}
 731              	.LVL75:
 732              	.L92:
 733              		.loc 1 511 0
 734 0082 40F23465 		movw	r5, #1588
 735              		.loc 1 513 0
 736 0086 0C27     		movs	r7, #12
 737              	.LVL76:
 738 0088 CAE7     		b	.L73
 739              	.LVL77:
 740              	.L114:
ARM GAS  C:\Users\jenny\AppData\Local\Temp\ccjexqIY.s 			page 14


 741              		.loc 1 553 0
 742 008a 07F11405 		add	r5, r7, #20
 743 008e B542     		cmp	r5, r6
 744 0090 22D9     		bls	.L116
 745              		.loc 1 587 0
 746 0092 354E     		ldr	r6, .L120+4
 747              		.loc 1 586 0
 748 0094 0121     		movs	r1, #1
 749 0096 2171     		strb	r1, [r4, #4]
 750              		.loc 1 587 0
 751 0098 B6F8AA30 		ldrh	r3, [r6, #170]
 752 009c B6F8AC50 		ldrh	r5, [r6, #172]
 753 00a0 C018     		adds	r0, r0, r3
 754 00a2 A21A     		subs	r2, r4, r2
 755 00a4 811A     		subs	r1, r0, r2
 756 00a6 8BB2     		uxth	r3, r1
 757 00a8 9D42     		cmp	r5, r3
 758 00aa A6F8AA30 		strh	r3, [r6, #170]	@ movhi
 759 00ae 38BF     		it	cc
 760 00b0 A6F8AC30 		strhcc	r3, [r6, #172]	@ movhi
 761 00b4 07F10805 		add	r5, r7, #8
 762              	.L80:
 763              		.loc 1 592 0
 764 00b8 A645     		cmp	lr, r4
 765 00ba 3CD0     		beq	.L82
 766 00bc 2B4E     		ldr	r6, .L120+8
 767              	.L83:
 768              		.loc 1 613 0
 769 00be 2948     		ldr	r0, .L120
 770 00c0 FFF7FEFF 		bl	sys_sem_signal
 771              	.LVL78:
 772              		.loc 1 614 0
 773 00c4 3368     		ldr	r3, [r6, #0]
 774 00c6 6519     		adds	r5, r4, r5
 775 00c8 AB42     		cmp	r3, r5
 776 00ca 31D3     		bcc	.L117
 777              	.L87:
 778              		.loc 1 616 0
 779 00cc A207     		lsls	r2, r4, #30
 780 00ce 2AD1     		bne	.L118
 781              	.L88:
 782              		.loc 1 621 0
 783 00d0 04F10800 		add	r0, r4, #8
 784 00d4 BDE8F883 		pop	{r3, r4, r5, r6, r7, r8, r9, pc}
 785              	.L116:
 786              		.loc 1 564 0
 787 00d8 07F10805 		add	r5, r7, #8
 788 00dc 5E19     		adds	r6, r3, r5
 789 00de B6B2     		uxth	r6, r6
 790              	.LVL79:
 791              		.loc 1 566 0
 792 00e0 02EB0609 		add	r9, r2, r6
 793              	.LVL80:
 794              		.loc 1 568 0
 795 00e4 9053     		strh	r0, [r2, r6]	@ movhi
 796              		.loc 1 571 0
 797 00e6 2680     		strh	r6, [r4, #0]	@ movhi
ARM GAS  C:\Users\jenny\AppData\Local\Temp\ccjexqIY.s 			page 15


 798              		.loc 1 574 0
 799 00e8 905B     		ldrh	r0, [r2, r6]
 800              		.loc 1 567 0
 801 00ea 89F80410 		strb	r1, [r9, #4]
 802              		.loc 1 572 0
 803 00ee 0121     		movs	r1, #1
 804              		.loc 1 574 0
 805 00f0 B0F5C86F 		cmp	r0, #1600
 806              		.loc 1 575 0
 807 00f4 18BF     		it	ne
 808 00f6 1218     		addne	r2, r2, r0
 809              		.loc 1 569 0
 810 00f8 A9F80230 		strh	r3, [r9, #2]	@ movhi
 811              		.loc 1 577 0
 812 00fc 1A4B     		ldr	r3, .L120+4
 813              		.loc 1 572 0
 814 00fe 2171     		strb	r1, [r4, #4]
 815              		.loc 1 575 0
 816 0100 18BF     		it	ne
 817 0102 5680     		strhne	r6, [r2, #2]	@ movhi
 818              		.loc 1 577 0
 819 0104 B3F8AA20 		ldrh	r2, [r3, #170]
 820 0108 B3F8AC60 		ldrh	r6, [r3, #172]
 821              	.LVL81:
 822 010c 0832     		adds	r2, r2, #8
 823 010e B818     		adds	r0, r7, r2
 824 0110 81B2     		uxth	r1, r0
 825 0112 8E42     		cmp	r6, r1
 826 0114 A3F8AA10 		strh	r1, [r3, #170]	@ movhi
 827 0118 CED2     		bcs	.L80
 828              		.loc 1 577 0 is_stmt 0 discriminator 1
 829 011a A3F8AC10 		strh	r1, [r3, #172]	@ movhi
 830 011e CBE7     		b	.L80
 831              	.LVL82:
 832              	.L93:
 833              		.loc 1 504 0 is_stmt 1
 834 0120 0020     		movs	r0, #0
 835 0122 BDE8F883 		pop	{r3, r4, r5, r6, r7, r8, r9, pc}
 836              	.LVL83:
 837              	.L118:
 838              		.loc 1 616 0 discriminator 1
 839 0126 FFF7FEFF 		bl	port_halt
 840              	.LVL84:
 841              		.loc 1 618 0 discriminator 1
 842 012a FFF7FEFF 		bl	port_halt
 843              	.LVL85:
 844 012e CFE7     		b	.L88
 845              	.L117:
 846              		.loc 1 614 0 discriminator 1
 847 0130 FFF7FEFF 		bl	port_halt
 848              	.LVL86:
 849 0134 CAE7     		b	.L87
 850              	.L82:
 851              	.LVL87:
 852              	.LBB11:
 853              		.loc 1 595 0 discriminator 1
 854 0136 9EF80430 		ldrb	r3, [lr, #4]	@ zero_extendqisi2
ARM GAS  C:\Users\jenny\AppData\Local\Temp\ccjexqIY.s 			page 16


 855 013a 0C4E     		ldr	r6, .L120+8
 856 013c 73B1     		cbz	r3, .L85
 857              		.loc 1 595 0 is_stmt 0
 858 013e 3268     		ldr	r2, [r6, #0]
 859 0140 9645     		cmp	lr, r2
 860 0142 0BD0     		beq	.L85
 861 0144 DCF80000 		ldr	r0, [ip, #0]
 862 0148 01E0     		b	.L86
 863              	.L119:
 864              		.loc 1 595 0 discriminator 2
 865 014a 9645     		cmp	lr, r2
 866 014c 06D0     		beq	.L85
 867              	.L86:
 868              		.loc 1 607 0 is_stmt 1
 869 014e BEF800E0 		ldrh	lr, [lr, #0]
 870              	.LVL88:
 871 0152 8644     		add	lr, r0, lr
 872              	.LVL89:
 873              		.loc 1 595 0
 874 0154 9EF80410 		ldrb	r1, [lr, #4]	@ zero_extendqisi2
 875 0158 0029     		cmp	r1, #0
 876 015a F6D1     		bne	.L119
 877              	.L85:
 878              		.loc 1 609 0
 879 015c C8F800E0 		str	lr, [r8, #0]
 880 0160 ADE7     		b	.L83
 881              	.L121:
 882 0162 00BF     		.align	2
 883              	.L120:
 884 0164 00000000 		.word	.LANCHOR4
 885 0168 00000000 		.word	lwip_stats
 886 016c 00000000 		.word	.LANCHOR2
 887 0170 00000000 		.word	.LANCHOR3
 888 0174 00000000 		.word	.LANCHOR1
 889              	.LBE11:
 890              		.cfi_endproc
 891              	.LFE11:
 892              		.size	mem_malloc, .-mem_malloc
 893 0178 AFF30080 		.section	.text.mem_calloc,"ax",%progbits
 893      AFF30080 
 894              		.align	2
 895              		.p2align 4,,15
 896              		.global	mem_calloc
 897              		.thumb
 898              		.thumb_func
 899              		.type	mem_calloc, %function
 900              	mem_calloc:
 901              	.LFB12:
 902              		.loc 1 647 0
 903              		.cfi_startproc
 904              		@ args = 0, pretend = 0, frame = 0
 905              		@ frame_needed = 0, uses_anonymous_args = 0
 906              	.LVL90:
 907 0000 38B5     		push	{r3, r4, r5, lr}
 908              	.LCFI4:
 909              		.cfi_def_cfa_offset 16
 910              		.cfi_offset 3, -16
ARM GAS  C:\Users\jenny\AppData\Local\Temp\ccjexqIY.s 			page 17


 911              		.cfi_offset 4, -12
 912              		.cfi_offset 5, -8
 913              		.cfi_offset 14, -4
 914              		.loc 1 651 0
 915 0002 00FB01F4 		mul	r4, r0, r1
 916 0006 A0B2     		uxth	r0, r4
 917              	.LVL91:
 918 0008 FFF7FEFF 		bl	mem_malloc
 919              	.LVL92:
 920              		.loc 1 652 0
 921 000c 0546     		mov	r5, r0
 922 000e 18B1     		cbz	r0, .L123
 923              		.loc 1 654 0
 924 0010 0021     		movs	r1, #0
 925 0012 2246     		mov	r2, r4
 926 0014 FFF7FEFF 		bl	memset
 927              	.LVL93:
 928              	.L123:
 929              		.loc 1 657 0
 930 0018 2846     		mov	r0, r5
 931 001a 38BD     		pop	{r3, r4, r5, pc}
 932              		.cfi_endproc
 933              	.LFE12:
 934              		.size	mem_calloc, .-mem_calloc
 935              		.global	ram_heap
 936 001c AFF30080 		.section	.bss.ram_heap,"aw",%nobits
 937              		.align	2
 938              		.set	.LANCHOR0,. + 0
 939              		.type	ram_heap, %object
 940              		.size	ram_heap, 1620
 941              	ram_heap:
 942 0000 00000000 		.space	1620
 942      00000000 
 942      00000000 
 942      00000000 
 942      00000000 
 943              		.section	.bss.lfree,"aw",%nobits
 944              		.align	2
 945              		.set	.LANCHOR3,. + 0
 946              		.type	lfree, %object
 947              		.size	lfree, 4
 948              	lfree:
 949 0000 00000000 		.space	4
 950              		.section	.bss.ram_end,"aw",%nobits
 951              		.align	2
 952              		.set	.LANCHOR2,. + 0
 953              		.type	ram_end, %object
 954              		.size	ram_end, 4
 955              	ram_end:
 956 0000 00000000 		.space	4
 957              		.section	.bss.mem_mutex,"aw",%nobits
 958              		.align	2
 959              		.set	.LANCHOR4,. + 0
 960              		.type	mem_mutex, %object
 961              		.size	mem_mutex, 4
 962              	mem_mutex:
 963 0000 00000000 		.space	4
ARM GAS  C:\Users\jenny\AppData\Local\Temp\ccjexqIY.s 			page 18


 964              		.section	.bss.ram,"aw",%nobits
 965              		.align	2
 966              		.set	.LANCHOR1,. + 0
 967              		.type	ram, %object
 968              		.size	ram, 4
 969              	ram:
 970 0000 00000000 		.space	4
 971              		.text
 972              	.Letext0:
 973              		.file 2 "c:\\fbin\\yagarto\\bin\\../lib/gcc/arm-none-eabi/4.7.4/../../../../arm-none-eabi/include/
 974              		.file 3 "../../os/ports/GCC/ARMCMx/chtypes.h"
 975              		.file 4 "../../os/kernel/include/chlists.h"
 976              		.file 5 "../../os/kernel/include/chthreads.h"
 977              		.file 6 "../../os/ports/GCC/ARMCMx/chcore_v7m.h"
 978              		.file 7 "../../os/kernel/include/chsem.h"
 979              		.file 8 "../../os/kernel/include/chmtx.h"
 980              		.file 9 "../../os/various/lwip_bindings/arch/cc.h"
 981              		.file 10 "../../ext/lwip/src/include/lwip/mem.h"
 982              		.file 11 "../../ext/lwip/src/include/lwip/err.h"
 983              		.file 12 "../../os/various/lwip_bindings/arch/sys_arch.h"
 984              		.file 13 "../../ext/lwip/src/include/lwip/stats.h"
 985              		.file 14 "../../ext/lwip/src/include/lwip/sys.h"
 986              		.file 15 "../../ext/lwip/src/include/lwip/memp.h"
 987              		.section	.debug_info,"",%progbits
 988              	.Ldebug_info0:
 989 0000 F70C0000 		.4byte	0xcf7
 990 0004 0200     		.2byte	0x2
 991 0006 00000000 		.4byte	.Ldebug_abbrev0
 992 000a 04       		.byte	0x4
 993 000b 01       		.uleb128 0x1
 994 000c 8D030000 		.4byte	.LASF132
 995 0010 01       		.byte	0x1
 996 0011 18030000 		.4byte	.LASF133
 997 0015 D7010000 		.4byte	.LASF134
 998 0019 40000000 		.4byte	.Ldebug_ranges0+0x40
 999 001d 00000000 		.4byte	0
 1000 0021 00000000 		.4byte	0
 1001 0025 00000000 		.4byte	.Ldebug_line0
 1002 0029 02       		.uleb128 0x2
 1003 002a 04       		.byte	0x4
 1004 002b 05       		.byte	0x5
 1005 002c 696E7400 		.ascii	"int\000"
 1006 0030 03       		.uleb128 0x3
 1007 0031 04       		.byte	0x4
 1008 0032 07       		.byte	0x7
 1009 0033 6F000000 		.4byte	.LASF0
 1010 0037 04       		.uleb128 0x4
 1011 0038 EC000000 		.4byte	.LASF2
 1012 003c 02       		.byte	0x2
 1013 003d 29       		.byte	0x29
 1014 003e 42000000 		.4byte	0x42
 1015 0042 03       		.uleb128 0x3
 1016 0043 01       		.byte	0x1
 1017 0044 06       		.byte	0x6
 1018 0045 62050000 		.4byte	.LASF1
 1019 0049 04       		.uleb128 0x4
 1020 004a A9020000 		.4byte	.LASF3
ARM GAS  C:\Users\jenny\AppData\Local\Temp\ccjexqIY.s 			page 19


 1021 004e 02       		.byte	0x2
 1022 004f 2A       		.byte	0x2a
 1023 0050 54000000 		.4byte	0x54
 1024 0054 03       		.uleb128 0x3
 1025 0055 01       		.byte	0x1
 1026 0056 08       		.byte	0x8
 1027 0057 0B050000 		.4byte	.LASF4
 1028 005b 03       		.uleb128 0x3
 1029 005c 02       		.byte	0x2
 1030 005d 05       		.byte	0x5
 1031 005e 0B040000 		.4byte	.LASF5
 1032 0062 04       		.uleb128 0x4
 1033 0063 D6030000 		.4byte	.LASF6
 1034 0067 02       		.byte	0x2
 1035 0068 36       		.byte	0x36
 1036 0069 6D000000 		.4byte	0x6d
 1037 006d 03       		.uleb128 0x3
 1038 006e 02       		.byte	0x2
 1039 006f 07       		.byte	0x7
 1040 0070 6E050000 		.4byte	.LASF7
 1041 0074 04       		.uleb128 0x4
 1042 0075 F1040000 		.4byte	.LASF8
 1043 0079 02       		.byte	0x2
 1044 007a 4F       		.byte	0x4f
 1045 007b 7F000000 		.4byte	0x7f
 1046 007f 03       		.uleb128 0x3
 1047 0080 04       		.byte	0x4
 1048 0081 05       		.byte	0x5
 1049 0082 2D040000 		.4byte	.LASF9
 1050 0086 04       		.uleb128 0x4
 1051 0087 E3000000 		.4byte	.LASF10
 1052 008b 02       		.byte	0x2
 1053 008c 50       		.byte	0x50
 1054 008d 91000000 		.4byte	0x91
 1055 0091 03       		.uleb128 0x3
 1056 0092 04       		.byte	0x4
 1057 0093 07       		.byte	0x7
 1058 0094 DF040000 		.4byte	.LASF11
 1059 0098 03       		.uleb128 0x3
 1060 0099 08       		.byte	0x8
 1061 009a 05       		.byte	0x5
 1062 009b CF020000 		.4byte	.LASF12
 1063 009f 03       		.uleb128 0x3
 1064 00a0 08       		.byte	0x8
 1065 00a1 07       		.byte	0x7
 1066 00a2 49010000 		.4byte	.LASF13
 1067 00a6 03       		.uleb128 0x3
 1068 00a7 01       		.byte	0x1
 1069 00a8 02       		.byte	0x2
 1070 00a9 B0010000 		.4byte	.LASF14
 1071 00ad 04       		.uleb128 0x4
 1072 00ae 85030000 		.4byte	.LASF15
 1073 00b2 03       		.byte	0x3
 1074 00b3 2C       		.byte	0x2c
 1075 00b4 49000000 		.4byte	0x49
 1076 00b8 04       		.uleb128 0x4
 1077 00b9 87020000 		.4byte	.LASF16
ARM GAS  C:\Users\jenny\AppData\Local\Temp\ccjexqIY.s 			page 20


 1078 00bd 03       		.byte	0x3
 1079 00be 2D       		.byte	0x2d
 1080 00bf 49000000 		.4byte	0x49
 1081 00c3 04       		.uleb128 0x4
 1082 00c4 D7040000 		.4byte	.LASF17
 1083 00c8 03       		.byte	0x3
 1084 00c9 2E       		.byte	0x2e
 1085 00ca 49000000 		.4byte	0x49
 1086 00ce 04       		.uleb128 0x4
 1087 00cf 5F030000 		.4byte	.LASF18
 1088 00d3 03       		.byte	0x3
 1089 00d4 2F       		.byte	0x2f
 1090 00d5 49000000 		.4byte	0x49
 1091 00d9 04       		.uleb128 0x4
 1092 00da 2C010000 		.4byte	.LASF19
 1093 00de 03       		.byte	0x3
 1094 00df 30       		.byte	0x30
 1095 00e0 86000000 		.4byte	0x86
 1096 00e4 04       		.uleb128 0x4
 1097 00e5 E9020000 		.4byte	.LASF20
 1098 00e9 03       		.byte	0x3
 1099 00ea 31       		.byte	0x31
 1100 00eb 74000000 		.4byte	0x74
 1101 00ef 04       		.uleb128 0x4
 1102 00f0 F8000000 		.4byte	.LASF21
 1103 00f4 03       		.byte	0x3
 1104 00f5 33       		.byte	0x33
 1105 00f6 86000000 		.4byte	0x86
 1106 00fa 04       		.uleb128 0x4
 1107 00fb 4A000000 		.4byte	.LASF22
 1108 00ff 03       		.byte	0x3
 1109 0100 35       		.byte	0x35
 1110 0101 86000000 		.4byte	0x86
 1111 0105 04       		.uleb128 0x4
 1112 0106 6B010000 		.4byte	.LASF23
 1113 010a 03       		.byte	0x3
 1114 010b 36       		.byte	0x36
 1115 010c 74000000 		.4byte	0x74
 1116 0110 04       		.uleb128 0x4
 1117 0111 80020000 		.4byte	.LASF24
 1118 0115 04       		.byte	0x4
 1119 0116 2A       		.byte	0x2a
 1120 0117 1B010000 		.4byte	0x11b
 1121 011b 05       		.uleb128 0x5
 1122 011c 80020000 		.4byte	.LASF24
 1123 0120 48       		.byte	0x48
 1124 0121 05       		.byte	0x5
 1125 0122 5E       		.byte	0x5e
 1126 0123 40020000 		.4byte	0x240
 1127 0127 06       		.uleb128 0x6
 1128 0128 58040000 		.4byte	.LASF25
 1129 012c 05       		.byte	0x5
 1130 012d 5F       		.byte	0x5f
 1131 012e 65020000 		.4byte	0x265
 1132 0132 02       		.byte	0x2
 1133 0133 23       		.byte	0x23
 1134 0134 00       		.uleb128 0
ARM GAS  C:\Users\jenny\AppData\Local\Temp\ccjexqIY.s 			page 21


 1135 0135 06       		.uleb128 0x6
 1136 0136 C7040000 		.4byte	.LASF26
 1137 013a 05       		.byte	0x5
 1138 013b 61       		.byte	0x61
 1139 013c 65020000 		.4byte	0x265
 1140 0140 02       		.byte	0x2
 1141 0141 23       		.byte	0x23
 1142 0142 04       		.uleb128 0x4
 1143 0143 06       		.uleb128 0x6
 1144 0144 43000000 		.4byte	.LASF27
 1145 0148 05       		.byte	0x5
 1146 0149 63       		.byte	0x63
 1147 014a D9000000 		.4byte	0xd9
 1148 014e 02       		.byte	0x2
 1149 014f 23       		.byte	0x23
 1150 0150 08       		.uleb128 0x8
 1151 0151 06       		.uleb128 0x6
 1152 0152 6C040000 		.4byte	.LASF28
 1153 0156 05       		.byte	0x5
 1154 0157 64       		.byte	0x64
 1155 0158 23040000 		.4byte	0x423
 1156 015c 02       		.byte	0x2
 1157 015d 23       		.byte	0x23
 1158 015e 0C       		.uleb128 0xc
 1159 015f 06       		.uleb128 0x6
 1160 0160 71010000 		.4byte	.LASF29
 1161 0164 05       		.byte	0x5
 1162 0165 66       		.byte	0x66
 1163 0166 65020000 		.4byte	0x265
 1164 016a 02       		.byte	0x2
 1165 016b 23       		.byte	0x23
 1166 016c 10       		.uleb128 0x10
 1167 016d 06       		.uleb128 0x6
 1168 016e 99020000 		.4byte	.LASF30
 1169 0172 05       		.byte	0x5
 1170 0173 67       		.byte	0x67
 1171 0174 65020000 		.4byte	0x265
 1172 0178 02       		.byte	0x2
 1173 0179 23       		.byte	0x23
 1174 017a 14       		.uleb128 0x14
 1175 017b 06       		.uleb128 0x6
 1176 017c 46020000 		.4byte	.LASF31
 1177 0180 05       		.byte	0x5
 1178 0181 6E       		.byte	0x6e
 1179 0182 03050000 		.4byte	0x503
 1180 0186 02       		.byte	0x2
 1181 0187 23       		.byte	0x23
 1182 0188 18       		.uleb128 0x18
 1183 0189 06       		.uleb128 0x6
 1184 018a A1020000 		.4byte	.LASF32
 1185 018e 05       		.byte	0x5
 1186 018f 79       		.byte	0x79
 1187 0190 B8000000 		.4byte	0xb8
 1188 0194 02       		.byte	0x2
 1189 0195 23       		.byte	0x23
 1190 0196 1C       		.uleb128 0x1c
 1191 0197 06       		.uleb128 0x6
ARM GAS  C:\Users\jenny\AppData\Local\Temp\ccjexqIY.s 			page 22


 1192 0198 01030000 		.4byte	.LASF33
 1193 019c 05       		.byte	0x5
 1194 019d 7D       		.byte	0x7d
 1195 019e AD000000 		.4byte	0xad
 1196 01a2 02       		.byte	0x2
 1197 01a3 23       		.byte	0x23
 1198 01a4 1D       		.uleb128 0x1d
 1199 01a5 06       		.uleb128 0x6
 1200 01a6 24050000 		.4byte	.LASF34
 1201 01aa 05       		.byte	0x5
 1202 01ab 82       		.byte	0x82
 1203 01ac C3000000 		.4byte	0xc3
 1204 01b0 02       		.byte	0x2
 1205 01b1 23       		.byte	0x23
 1206 01b2 1E       		.uleb128 0x1e
 1207 01b3 06       		.uleb128 0x6
 1208 01b4 47050000 		.4byte	.LASF35
 1209 01b8 05       		.byte	0x5
 1210 01b9 88       		.byte	0x88
 1211 01ba CE000000 		.4byte	0xce
 1212 01be 02       		.byte	0x2
 1213 01bf 23       		.byte	0x23
 1214 01c0 1F       		.uleb128 0x1f
 1215 01c1 06       		.uleb128 0x6
 1216 01c2 33000000 		.4byte	.LASF36
 1217 01c6 05       		.byte	0x5
 1218 01c7 8F       		.byte	0x8f
 1219 01c8 4D040000 		.4byte	0x44d
 1220 01cc 02       		.byte	0x2
 1221 01cd 23       		.byte	0x23
 1222 01ce 20       		.uleb128 0x20
 1223 01cf 07       		.uleb128 0x7
 1224 01d0 705F7500 		.ascii	"p_u\000"
 1225 01d4 05       		.byte	0x5
 1226 01d5 B4       		.byte	0xb4
 1227 01d6 CE040000 		.4byte	0x4ce
 1228 01da 02       		.byte	0x2
 1229 01db 23       		.byte	0x23
 1230 01dc 24       		.uleb128 0x24
 1231 01dd 06       		.uleb128 0x6
 1232 01de 0C000000 		.4byte	.LASF37
 1233 01e2 05       		.byte	0x5
 1234 01e3 B9       		.byte	0xb9
 1235 01e4 8D020000 		.4byte	0x28d
 1236 01e8 02       		.byte	0x2
 1237 01e9 23       		.byte	0x23
 1238 01ea 28       		.uleb128 0x28
 1239 01eb 06       		.uleb128 0x6
 1240 01ec 64000000 		.4byte	.LASF38
 1241 01f0 05       		.byte	0x5
 1242 01f1 BF       		.byte	0xbf
 1243 01f2 6B020000 		.4byte	0x26b
 1244 01f6 02       		.byte	0x2
 1245 01f7 23       		.byte	0x23
 1246 01f8 2C       		.uleb128 0x2c
 1247 01f9 06       		.uleb128 0x6
 1248 01fa 7F030000 		.4byte	.LASF39
ARM GAS  C:\Users\jenny\AppData\Local\Temp\ccjexqIY.s 			page 23


 1249 01fe 05       		.byte	0x5
 1250 01ff C3       		.byte	0xc3
 1251 0200 E4000000 		.4byte	0xe4
 1252 0204 02       		.byte	0x2
 1253 0205 23       		.byte	0x23
 1254 0206 34       		.uleb128 0x34
 1255 0207 06       		.uleb128 0x6
 1256 0208 1A040000 		.4byte	.LASF40
 1257 020c 05       		.byte	0x5
 1258 020d C9       		.byte	0xc9
 1259 020e EF000000 		.4byte	0xef
 1260 0212 02       		.byte	0x2
 1261 0213 23       		.byte	0x23
 1262 0214 38       		.uleb128 0x38
 1263 0215 06       		.uleb128 0x6
 1264 0216 B9020000 		.4byte	.LASF41
 1265 021a 05       		.byte	0x5
 1266 021b D0       		.byte	0xd0
 1267 021c 15050000 		.4byte	0x515
 1268 0220 02       		.byte	0x2
 1269 0221 23       		.byte	0x23
 1270 0222 3C       		.uleb128 0x3c
 1271 0223 06       		.uleb128 0x6
 1272 0224 FA030000 		.4byte	.LASF42
 1273 0228 05       		.byte	0x5
 1274 0229 D4       		.byte	0xd4
 1275 022a D9000000 		.4byte	0xd9
 1276 022e 02       		.byte	0x2
 1277 022f 23       		.byte	0x23
 1278 0230 40       		.uleb128 0x40
 1279 0231 06       		.uleb128 0x6
 1280 0232 B1020000 		.4byte	.LASF43
 1281 0236 05       		.byte	0x5
 1282 0237 DA       		.byte	0xda
 1283 0238 A3020000 		.4byte	0x2a3
 1284 023c 02       		.byte	0x2
 1285 023d 23       		.byte	0x23
 1286 023e 44       		.uleb128 0x44
 1287 023f 00       		.byte	0
 1288 0240 08       		.uleb128 0x8
 1289 0241 08       		.byte	0x8
 1290 0242 04       		.byte	0x4
 1291 0243 61       		.byte	0x61
 1292 0244 65020000 		.4byte	0x265
 1293 0248 06       		.uleb128 0x6
 1294 0249 58040000 		.4byte	.LASF25
 1295 024d 04       		.byte	0x4
 1296 024e 62       		.byte	0x62
 1297 024f 65020000 		.4byte	0x265
 1298 0253 02       		.byte	0x2
 1299 0254 23       		.byte	0x23
 1300 0255 00       		.uleb128 0
 1301 0256 06       		.uleb128 0x6
 1302 0257 C7040000 		.4byte	.LASF26
 1303 025b 04       		.byte	0x4
 1304 025c 64       		.byte	0x64
 1305 025d 65020000 		.4byte	0x265
ARM GAS  C:\Users\jenny\AppData\Local\Temp\ccjexqIY.s 			page 24


 1306 0261 02       		.byte	0x2
 1307 0262 23       		.byte	0x23
 1308 0263 04       		.uleb128 0x4
 1309 0264 00       		.byte	0
 1310 0265 09       		.uleb128 0x9
 1311 0266 04       		.byte	0x4
 1312 0267 10010000 		.4byte	0x110
 1313 026b 04       		.uleb128 0x4
 1314 026c 57020000 		.4byte	.LASF44
 1315 0270 04       		.byte	0x4
 1316 0271 66       		.byte	0x66
 1317 0272 40020000 		.4byte	0x240
 1318 0276 08       		.uleb128 0x8
 1319 0277 04       		.byte	0x4
 1320 0278 04       		.byte	0x4
 1321 0279 6B       		.byte	0x6b
 1322 027a 8D020000 		.4byte	0x28d
 1323 027e 06       		.uleb128 0x6
 1324 027f 58040000 		.4byte	.LASF25
 1325 0283 04       		.byte	0x4
 1326 0284 6D       		.byte	0x6d
 1327 0285 65020000 		.4byte	0x265
 1328 0289 02       		.byte	0x2
 1329 028a 23       		.byte	0x23
 1330 028b 00       		.uleb128 0
 1331 028c 00       		.byte	0
 1332 028d 04       		.uleb128 0x4
 1333 028e 00000000 		.4byte	.LASF45
 1334 0292 04       		.byte	0x4
 1335 0293 70       		.byte	0x70
 1336 0294 76020000 		.4byte	0x276
 1337 0298 04       		.uleb128 0x4
 1338 0299 3A000000 		.4byte	.LASF46
 1339 029d 06       		.byte	0x6
 1340 029e E5       		.byte	0xe5
 1341 029f A3020000 		.4byte	0x2a3
 1342 02a3 0A       		.uleb128 0xa
 1343 02a4 04       		.byte	0x4
 1344 02a5 0B       		.uleb128 0xb
 1345 02a6 DF030000 		.4byte	.LASF47
 1346 02aa 64       		.byte	0x64
 1347 02ab 06       		.byte	0x6
 1348 02ac 0C01     		.2byte	0x10c
 1349 02ae 23040000 		.4byte	0x423
 1350 02b2 0C       		.uleb128 0xc
 1351 02b3 73313600 		.ascii	"s16\000"
 1352 02b7 06       		.byte	0x6
 1353 02b8 0E01     		.2byte	0x10e
 1354 02ba 98020000 		.4byte	0x298
 1355 02be 02       		.byte	0x2
 1356 02bf 23       		.byte	0x23
 1357 02c0 00       		.uleb128 0
 1358 02c1 0C       		.uleb128 0xc
 1359 02c2 73313700 		.ascii	"s17\000"
 1360 02c6 06       		.byte	0x6
 1361 02c7 0F01     		.2byte	0x10f
 1362 02c9 98020000 		.4byte	0x298
ARM GAS  C:\Users\jenny\AppData\Local\Temp\ccjexqIY.s 			page 25


 1363 02cd 02       		.byte	0x2
 1364 02ce 23       		.byte	0x23
 1365 02cf 04       		.uleb128 0x4
 1366 02d0 0C       		.uleb128 0xc
 1367 02d1 73313800 		.ascii	"s18\000"
 1368 02d5 06       		.byte	0x6
 1369 02d6 1001     		.2byte	0x110
 1370 02d8 98020000 		.4byte	0x298
 1371 02dc 02       		.byte	0x2
 1372 02dd 23       		.byte	0x23
 1373 02de 08       		.uleb128 0x8
 1374 02df 0C       		.uleb128 0xc
 1375 02e0 73313900 		.ascii	"s19\000"
 1376 02e4 06       		.byte	0x6
 1377 02e5 1101     		.2byte	0x111
 1378 02e7 98020000 		.4byte	0x298
 1379 02eb 02       		.byte	0x2
 1380 02ec 23       		.byte	0x23
 1381 02ed 0C       		.uleb128 0xc
 1382 02ee 0C       		.uleb128 0xc
 1383 02ef 73323000 		.ascii	"s20\000"
 1384 02f3 06       		.byte	0x6
 1385 02f4 1201     		.2byte	0x112
 1386 02f6 98020000 		.4byte	0x298
 1387 02fa 02       		.byte	0x2
 1388 02fb 23       		.byte	0x23
 1389 02fc 10       		.uleb128 0x10
 1390 02fd 0C       		.uleb128 0xc
 1391 02fe 73323100 		.ascii	"s21\000"
 1392 0302 06       		.byte	0x6
 1393 0303 1301     		.2byte	0x113
 1394 0305 98020000 		.4byte	0x298
 1395 0309 02       		.byte	0x2
 1396 030a 23       		.byte	0x23
 1397 030b 14       		.uleb128 0x14
 1398 030c 0C       		.uleb128 0xc
 1399 030d 73323200 		.ascii	"s22\000"
 1400 0311 06       		.byte	0x6
 1401 0312 1401     		.2byte	0x114
 1402 0314 98020000 		.4byte	0x298
 1403 0318 02       		.byte	0x2
 1404 0319 23       		.byte	0x23
 1405 031a 18       		.uleb128 0x18
 1406 031b 0C       		.uleb128 0xc
 1407 031c 73323300 		.ascii	"s23\000"
 1408 0320 06       		.byte	0x6
 1409 0321 1501     		.2byte	0x115
 1410 0323 98020000 		.4byte	0x298
 1411 0327 02       		.byte	0x2
 1412 0328 23       		.byte	0x23
 1413 0329 1C       		.uleb128 0x1c
 1414 032a 0C       		.uleb128 0xc
 1415 032b 73323400 		.ascii	"s24\000"
 1416 032f 06       		.byte	0x6
 1417 0330 1601     		.2byte	0x116
 1418 0332 98020000 		.4byte	0x298
 1419 0336 02       		.byte	0x2
ARM GAS  C:\Users\jenny\AppData\Local\Temp\ccjexqIY.s 			page 26


 1420 0337 23       		.byte	0x23
 1421 0338 20       		.uleb128 0x20
 1422 0339 0C       		.uleb128 0xc
 1423 033a 73323500 		.ascii	"s25\000"
 1424 033e 06       		.byte	0x6
 1425 033f 1701     		.2byte	0x117
 1426 0341 98020000 		.4byte	0x298
 1427 0345 02       		.byte	0x2
 1428 0346 23       		.byte	0x23
 1429 0347 24       		.uleb128 0x24
 1430 0348 0C       		.uleb128 0xc
 1431 0349 73323600 		.ascii	"s26\000"
 1432 034d 06       		.byte	0x6
 1433 034e 1801     		.2byte	0x118
 1434 0350 98020000 		.4byte	0x298
 1435 0354 02       		.byte	0x2
 1436 0355 23       		.byte	0x23
 1437 0356 28       		.uleb128 0x28
 1438 0357 0C       		.uleb128 0xc
 1439 0358 73323700 		.ascii	"s27\000"
 1440 035c 06       		.byte	0x6
 1441 035d 1901     		.2byte	0x119
 1442 035f 98020000 		.4byte	0x298
 1443 0363 02       		.byte	0x2
 1444 0364 23       		.byte	0x23
 1445 0365 2C       		.uleb128 0x2c
 1446 0366 0C       		.uleb128 0xc
 1447 0367 73323800 		.ascii	"s28\000"
 1448 036b 06       		.byte	0x6
 1449 036c 1A01     		.2byte	0x11a
 1450 036e 98020000 		.4byte	0x298
 1451 0372 02       		.byte	0x2
 1452 0373 23       		.byte	0x23
 1453 0374 30       		.uleb128 0x30
 1454 0375 0C       		.uleb128 0xc
 1455 0376 73323900 		.ascii	"s29\000"
 1456 037a 06       		.byte	0x6
 1457 037b 1B01     		.2byte	0x11b
 1458 037d 98020000 		.4byte	0x298
 1459 0381 02       		.byte	0x2
 1460 0382 23       		.byte	0x23
 1461 0383 34       		.uleb128 0x34
 1462 0384 0C       		.uleb128 0xc
 1463 0385 73333000 		.ascii	"s30\000"
 1464 0389 06       		.byte	0x6
 1465 038a 1C01     		.2byte	0x11c
 1466 038c 98020000 		.4byte	0x298
 1467 0390 02       		.byte	0x2
 1468 0391 23       		.byte	0x23
 1469 0392 38       		.uleb128 0x38
 1470 0393 0C       		.uleb128 0xc
 1471 0394 73333100 		.ascii	"s31\000"
 1472 0398 06       		.byte	0x6
 1473 0399 1D01     		.2byte	0x11d
 1474 039b 98020000 		.4byte	0x298
 1475 039f 02       		.byte	0x2
 1476 03a0 23       		.byte	0x23
ARM GAS  C:\Users\jenny\AppData\Local\Temp\ccjexqIY.s 			page 27


 1477 03a1 3C       		.uleb128 0x3c
 1478 03a2 0C       		.uleb128 0xc
 1479 03a3 723400   		.ascii	"r4\000"
 1480 03a6 06       		.byte	0x6
 1481 03a7 1F01     		.2byte	0x11f
 1482 03a9 98020000 		.4byte	0x298
 1483 03ad 02       		.byte	0x2
 1484 03ae 23       		.byte	0x23
 1485 03af 40       		.uleb128 0x40
 1486 03b0 0C       		.uleb128 0xc
 1487 03b1 723500   		.ascii	"r5\000"
 1488 03b4 06       		.byte	0x6
 1489 03b5 2001     		.2byte	0x120
 1490 03b7 98020000 		.4byte	0x298
 1491 03bb 02       		.byte	0x2
 1492 03bc 23       		.byte	0x23
 1493 03bd 44       		.uleb128 0x44
 1494 03be 0C       		.uleb128 0xc
 1495 03bf 723600   		.ascii	"r6\000"
 1496 03c2 06       		.byte	0x6
 1497 03c3 2101     		.2byte	0x121
 1498 03c5 98020000 		.4byte	0x298
 1499 03c9 02       		.byte	0x2
 1500 03ca 23       		.byte	0x23
 1501 03cb 48       		.uleb128 0x48
 1502 03cc 0C       		.uleb128 0xc
 1503 03cd 723700   		.ascii	"r7\000"
 1504 03d0 06       		.byte	0x6
 1505 03d1 2201     		.2byte	0x122
 1506 03d3 98020000 		.4byte	0x298
 1507 03d7 02       		.byte	0x2
 1508 03d8 23       		.byte	0x23
 1509 03d9 4C       		.uleb128 0x4c
 1510 03da 0C       		.uleb128 0xc
 1511 03db 723800   		.ascii	"r8\000"
 1512 03de 06       		.byte	0x6
 1513 03df 2301     		.2byte	0x123
 1514 03e1 98020000 		.4byte	0x298
 1515 03e5 02       		.byte	0x2
 1516 03e6 23       		.byte	0x23
 1517 03e7 50       		.uleb128 0x50
 1518 03e8 0C       		.uleb128 0xc
 1519 03e9 723900   		.ascii	"r9\000"
 1520 03ec 06       		.byte	0x6
 1521 03ed 2401     		.2byte	0x124
 1522 03ef 98020000 		.4byte	0x298
 1523 03f3 02       		.byte	0x2
 1524 03f4 23       		.byte	0x23
 1525 03f5 54       		.uleb128 0x54
 1526 03f6 0C       		.uleb128 0xc
 1527 03f7 72313000 		.ascii	"r10\000"
 1528 03fb 06       		.byte	0x6
 1529 03fc 2501     		.2byte	0x125
 1530 03fe 98020000 		.4byte	0x298
 1531 0402 02       		.byte	0x2
 1532 0403 23       		.byte	0x23
 1533 0404 58       		.uleb128 0x58
ARM GAS  C:\Users\jenny\AppData\Local\Temp\ccjexqIY.s 			page 28


 1534 0405 0C       		.uleb128 0xc
 1535 0406 72313100 		.ascii	"r11\000"
 1536 040a 06       		.byte	0x6
 1537 040b 2601     		.2byte	0x126
 1538 040d 98020000 		.4byte	0x298
 1539 0411 02       		.byte	0x2
 1540 0412 23       		.byte	0x23
 1541 0413 5C       		.uleb128 0x5c
 1542 0414 0C       		.uleb128 0xc
 1543 0415 6C7200   		.ascii	"lr\000"
 1544 0418 06       		.byte	0x6
 1545 0419 2701     		.2byte	0x127
 1546 041b 98020000 		.4byte	0x298
 1547 041f 02       		.byte	0x2
 1548 0420 23       		.byte	0x23
 1549 0421 60       		.uleb128 0x60
 1550 0422 00       		.byte	0
 1551 0423 0B       		.uleb128 0xb
 1552 0424 EF020000 		.4byte	.LASF48
 1553 0428 04       		.byte	0x4
 1554 0429 06       		.byte	0x6
 1555 042a 3101     		.2byte	0x131
 1556 042c 40040000 		.4byte	0x440
 1557 0430 0C       		.uleb128 0xc
 1558 0431 72313300 		.ascii	"r13\000"
 1559 0435 06       		.byte	0x6
 1560 0436 3201     		.2byte	0x132
 1561 0438 40040000 		.4byte	0x440
 1562 043c 02       		.byte	0x2
 1563 043d 23       		.byte	0x23
 1564 043e 00       		.uleb128 0
 1565 043f 00       		.byte	0
 1566 0440 09       		.uleb128 0x9
 1567 0441 04       		.byte	0x4
 1568 0442 A5020000 		.4byte	0x2a5
 1569 0446 03       		.uleb128 0x3
 1570 0447 04       		.byte	0x4
 1571 0448 07       		.byte	0x7
 1572 0449 CE040000 		.4byte	.LASF49
 1573 044d 0D       		.uleb128 0xd
 1574 044e FA000000 		.4byte	0xfa
 1575 0452 05       		.uleb128 0x5
 1576 0453 A1040000 		.4byte	.LASF50
 1577 0457 0C       		.byte	0xc
 1578 0458 07       		.byte	0x7
 1579 0459 2C       		.byte	0x2c
 1580 045a 7B040000 		.4byte	0x47b
 1581 045e 06       		.uleb128 0x6
 1582 045f 5C000000 		.4byte	.LASF51
 1583 0463 07       		.byte	0x7
 1584 0464 2D       		.byte	0x2d
 1585 0465 6B020000 		.4byte	0x26b
 1586 0469 02       		.byte	0x2
 1587 046a 23       		.byte	0x23
 1588 046b 00       		.uleb128 0
 1589 046c 06       		.uleb128 0x6
 1590 046d CF000000 		.4byte	.LASF52
ARM GAS  C:\Users\jenny\AppData\Local\Temp\ccjexqIY.s 			page 29


 1591 0471 07       		.byte	0x7
 1592 0472 2F       		.byte	0x2f
 1593 0473 05010000 		.4byte	0x105
 1594 0477 02       		.byte	0x2
 1595 0478 23       		.byte	0x23
 1596 0479 08       		.uleb128 0x8
 1597 047a 00       		.byte	0
 1598 047b 04       		.uleb128 0x4
 1599 047c A1040000 		.4byte	.LASF50
 1600 0480 07       		.byte	0x7
 1601 0481 30       		.byte	0x30
 1602 0482 52040000 		.4byte	0x452
 1603 0486 05       		.uleb128 0x5
 1604 0487 2A020000 		.4byte	.LASF53
 1605 048b 10       		.byte	0x10
 1606 048c 08       		.byte	0x8
 1607 048d 2C       		.byte	0x2c
 1608 048e BD040000 		.4byte	0x4bd
 1609 0492 06       		.uleb128 0x6
 1610 0493 25040000 		.4byte	.LASF54
 1611 0497 08       		.byte	0x8
 1612 0498 2D       		.byte	0x2d
 1613 0499 6B020000 		.4byte	0x26b
 1614 049d 02       		.byte	0x2
 1615 049e 23       		.byte	0x23
 1616 049f 00       		.uleb128 0
 1617 04a0 06       		.uleb128 0x6
 1618 04a1 54000000 		.4byte	.LASF55
 1619 04a5 08       		.byte	0x8
 1620 04a6 2F       		.byte	0x2f
 1621 04a7 65020000 		.4byte	0x265
 1622 04ab 02       		.byte	0x2
 1623 04ac 23       		.byte	0x23
 1624 04ad 08       		.uleb128 0x8
 1625 04ae 06       		.uleb128 0x6
 1626 04af 5B050000 		.4byte	.LASF56
 1627 04b3 08       		.byte	0x8
 1628 04b4 31       		.byte	0x31
 1629 04b5 BD040000 		.4byte	0x4bd
 1630 04b9 02       		.byte	0x2
 1631 04ba 23       		.byte	0x23
 1632 04bb 0C       		.uleb128 0xc
 1633 04bc 00       		.byte	0
 1634 04bd 09       		.uleb128 0x9
 1635 04be 04       		.byte	0x4
 1636 04bf 86040000 		.4byte	0x486
 1637 04c3 04       		.uleb128 0x4
 1638 04c4 2A020000 		.4byte	.LASF53
 1639 04c8 08       		.byte	0x8
 1640 04c9 33       		.byte	0x33
 1641 04ca 86040000 		.4byte	0x486
 1642 04ce 0E       		.uleb128 0xe
 1643 04cf 04       		.byte	0x4
 1644 04d0 05       		.byte	0x5
 1645 04d1 96       		.byte	0x96
 1646 04d2 03050000 		.4byte	0x503
 1647 04d6 0F       		.uleb128 0xf
ARM GAS  C:\Users\jenny\AppData\Local\Temp\ccjexqIY.s 			page 30


 1648 04d7 A9010000 		.4byte	.LASF57
 1649 04db 05       		.byte	0x5
 1650 04dc 9D       		.byte	0x9d
 1651 04dd E4000000 		.4byte	0xe4
 1652 04e1 0F       		.uleb128 0xf
 1653 04e2 86050000 		.4byte	.LASF58
 1654 04e6 05       		.byte	0x5
 1655 04e7 A4       		.byte	0xa4
 1656 04e8 E4000000 		.4byte	0xe4
 1657 04ec 0F       		.uleb128 0xf
 1658 04ed 93000000 		.4byte	.LASF59
 1659 04f1 05       		.byte	0x5
 1660 04f2 AB       		.byte	0xab
 1661 04f3 A3020000 		.4byte	0x2a3
 1662 04f7 0F       		.uleb128 0xf
 1663 04f8 A4000000 		.4byte	.LASF60
 1664 04fc 05       		.byte	0x5
 1665 04fd B2       		.byte	0xb2
 1666 04fe EF000000 		.4byte	0xef
 1667 0502 00       		.byte	0
 1668 0503 09       		.uleb128 0x9
 1669 0504 04       		.byte	0x4
 1670 0505 09050000 		.4byte	0x509
 1671 0509 10       		.uleb128 0x10
 1672 050a 0E050000 		.4byte	0x50e
 1673 050e 03       		.uleb128 0x3
 1674 050f 01       		.byte	0x1
 1675 0510 08       		.byte	0x8
 1676 0511 64020000 		.4byte	.LASF61
 1677 0515 09       		.uleb128 0x9
 1678 0516 04       		.byte	0x4
 1679 0517 C3040000 		.4byte	0x4c3
 1680 051b 04       		.uleb128 0x4
 1681 051c FC020000 		.4byte	.LASF62
 1682 0520 09       		.byte	0x9
 1683 0521 38       		.byte	0x38
 1684 0522 49000000 		.4byte	0x49
 1685 0526 04       		.uleb128 0x4
 1686 0527 C9010000 		.4byte	.LASF63
 1687 052b 09       		.byte	0x9
 1688 052c 39       		.byte	0x39
 1689 052d 37000000 		.4byte	0x37
 1690 0531 04       		.uleb128 0x4
 1691 0532 8D000000 		.4byte	.LASF64
 1692 0536 09       		.byte	0x9
 1693 0537 3A       		.byte	0x3a
 1694 0538 62000000 		.4byte	0x62
 1695 053c 04       		.uleb128 0x4
 1696 053d 05040000 		.4byte	.LASF65
 1697 0541 09       		.byte	0x9
 1698 0542 3C       		.byte	0x3c
 1699 0543 86000000 		.4byte	0x86
 1700 0547 04       		.uleb128 0x4
 1701 0548 97040000 		.4byte	.LASF66
 1702 054c 09       		.byte	0x9
 1703 054d 3E       		.byte	0x3e
 1704 054e 86000000 		.4byte	0x86
ARM GAS  C:\Users\jenny\AppData\Local\Temp\ccjexqIY.s 			page 31


 1705 0552 04       		.uleb128 0x4
 1706 0553 69020000 		.4byte	.LASF67
 1707 0557 0A       		.byte	0xa
 1708 0558 4C       		.byte	0x4c
 1709 0559 31050000 		.4byte	0x531
 1710 055d 04       		.uleb128 0x4
 1711 055e 81000000 		.4byte	.LASF68
 1712 0562 0B       		.byte	0xb
 1713 0563 2F       		.byte	0x2f
 1714 0564 26050000 		.4byte	0x526
 1715 0568 04       		.uleb128 0x4
 1716 0569 B6010000 		.4byte	.LASF69
 1717 056d 0C       		.byte	0xc
 1718 056e 38       		.byte	0x38
 1719 056f 73050000 		.4byte	0x573
 1720 0573 09       		.uleb128 0x9
 1721 0574 04       		.byte	0x4
 1722 0575 7B040000 		.4byte	0x47b
 1723 0579 11       		.uleb128 0x11
 1724 057a 01       		.byte	0x1
 1725 057b 0F       		.byte	0xf
 1726 057c 2B       		.byte	0x2b
 1727 057d DC050000 		.4byte	0x5dc
 1728 0581 12       		.uleb128 0x12
 1729 0582 BA040000 		.4byte	.LASF70
 1730 0586 00       		.sleb128 0
 1731 0587 12       		.uleb128 0x12
 1732 0588 5F040000 		.4byte	.LASF71
 1733 058c 01       		.sleb128 1
 1734 058d 12       		.uleb128 0x12
 1735 058e ED030000 		.4byte	.LASF72
 1736 0592 02       		.sleb128 2
 1737 0593 12       		.uleb128 0x12
 1738 0594 1F000000 		.4byte	.LASF73
 1739 0598 03       		.sleb128 3
 1740 0599 12       		.uleb128 0x12
 1741 059a 2B050000 		.4byte	.LASF74
 1742 059e 04       		.sleb128 4
 1743 059f 12       		.uleb128 0x12
 1744 05a0 69030000 		.4byte	.LASF75
 1745 05a4 05       		.sleb128 5
 1746 05a5 12       		.uleb128 0x12
 1747 05a6 AB040000 		.4byte	.LASF76
 1748 05aa 06       		.sleb128 6
 1749 05ab 12       		.uleb128 0x12
 1750 05ac C3020000 		.4byte	.LASF77
 1751 05b0 07       		.sleb128 7
 1752 05b1 12       		.uleb128 0x12
 1753 05b2 30020000 		.4byte	.LASF78
 1754 05b6 08       		.sleb128 8
 1755 05b7 12       		.uleb128 0x12
 1756 05b8 04010000 		.4byte	.LASF79
 1757 05bc 09       		.sleb128 9
 1758 05bd 12       		.uleb128 0x12
 1759 05be 88010000 		.4byte	.LASF80
 1760 05c2 0A       		.sleb128 10
 1761 05c3 12       		.uleb128 0x12
ARM GAS  C:\Users\jenny\AppData\Local\Temp\ccjexqIY.s 			page 32


 1762 05c4 42040000 		.4byte	.LASF81
 1763 05c8 0B       		.sleb128 11
 1764 05c9 12       		.uleb128 0x12
 1765 05ca 4D020000 		.4byte	.LASF82
 1766 05ce 0C       		.sleb128 12
 1767 05cf 12       		.uleb128 0x12
 1768 05d0 B0000000 		.4byte	.LASF83
 1769 05d4 0D       		.sleb128 13
 1770 05d5 12       		.uleb128 0x12
 1771 05d6 C0010000 		.4byte	.LASF84
 1772 05da 0E       		.sleb128 14
 1773 05db 00       		.byte	0
 1774 05dc 05       		.uleb128 0x5
 1775 05dd 74020000 		.4byte	.LASF85
 1776 05e1 18       		.byte	0x18
 1777 05e2 0D       		.byte	0xd
 1778 05e3 3A       		.byte	0x3a
 1779 05e4 90060000 		.4byte	0x690
 1780 05e8 06       		.uleb128 0x6
 1781 05e9 81050000 		.4byte	.LASF86
 1782 05ed 0D       		.byte	0xd
 1783 05ee 3B       		.byte	0x3b
 1784 05ef 31050000 		.4byte	0x531
 1785 05f3 02       		.byte	0x2
 1786 05f4 23       		.byte	0x23
 1787 05f5 00       		.uleb128 0
 1788 05f6 06       		.uleb128 0x6
 1789 05f7 56050000 		.4byte	.LASF87
 1790 05fb 0D       		.byte	0xd
 1791 05fc 3C       		.byte	0x3c
 1792 05fd 31050000 		.4byte	0x531
 1793 0601 02       		.byte	0x2
 1794 0602 23       		.byte	0x23
 1795 0603 02       		.uleb128 0x2
 1796 0604 07       		.uleb128 0x7
 1797 0605 667700   		.ascii	"fw\000"
 1798 0608 0D       		.byte	0xd
 1799 0609 3D       		.byte	0x3d
 1800 060a 31050000 		.4byte	0x531
 1801 060e 02       		.byte	0x2
 1802 060f 23       		.byte	0x23
 1803 0610 04       		.uleb128 0x4
 1804 0611 06       		.uleb128 0x6
 1805 0612 51050000 		.4byte	.LASF88
 1806 0616 0D       		.byte	0xd
 1807 0617 3E       		.byte	0x3e
 1808 0618 31050000 		.4byte	0x531
 1809 061c 02       		.byte	0x2
 1810 061d 23       		.byte	0x23
 1811 061e 06       		.uleb128 0x6
 1812 061f 06       		.uleb128 0x6
 1813 0620 58030000 		.4byte	.LASF89
 1814 0624 0D       		.byte	0xd
 1815 0625 3F       		.byte	0x3f
 1816 0626 31050000 		.4byte	0x531
 1817 062a 02       		.byte	0x2
 1818 062b 23       		.byte	0x23
ARM GAS  C:\Users\jenny\AppData\Local\Temp\ccjexqIY.s 			page 33


 1819 062c 08       		.uleb128 0x8
 1820 062d 06       		.uleb128 0x6
 1821 062e E6030000 		.4byte	.LASF90
 1822 0632 0D       		.byte	0xd
 1823 0633 40       		.byte	0x40
 1824 0634 31050000 		.4byte	0x531
 1825 0638 02       		.byte	0x2
 1826 0639 23       		.byte	0x23
 1827 063a 0A       		.uleb128 0xa
 1828 063b 06       		.uleb128 0x6
 1829 063c 78030000 		.4byte	.LASF91
 1830 0640 0D       		.byte	0xd
 1831 0641 41       		.byte	0x41
 1832 0642 31050000 		.4byte	0x531
 1833 0646 02       		.byte	0x2
 1834 0647 23       		.byte	0x23
 1835 0648 0C       		.uleb128 0xc
 1836 0649 06       		.uleb128 0x6
 1837 064a 36040000 		.4byte	.LASF92
 1838 064e 0D       		.byte	0xd
 1839 064f 42       		.byte	0x42
 1840 0650 31050000 		.4byte	0x531
 1841 0654 02       		.byte	0x2
 1842 0655 23       		.byte	0x23
 1843 0656 0E       		.uleb128 0xe
 1844 0657 06       		.uleb128 0x6
 1845 0658 F9040000 		.4byte	.LASF93
 1846 065c 0D       		.byte	0xd
 1847 065d 43       		.byte	0x43
 1848 065e 31050000 		.4byte	0x531
 1849 0662 02       		.byte	0x2
 1850 0663 23       		.byte	0x23
 1851 0664 10       		.uleb128 0x10
 1852 0665 06       		.uleb128 0x6
 1853 0666 17010000 		.4byte	.LASF94
 1854 066a 0D       		.byte	0xd
 1855 066b 44       		.byte	0x44
 1856 066c 31050000 		.4byte	0x531
 1857 0670 02       		.byte	0x2
 1858 0671 23       		.byte	0x23
 1859 0672 12       		.uleb128 0x12
 1860 0673 07       		.uleb128 0x7
 1861 0674 65727200 		.ascii	"err\000"
 1862 0678 0D       		.byte	0xd
 1863 0679 45       		.byte	0x45
 1864 067a 31050000 		.4byte	0x531
 1865 067e 02       		.byte	0x2
 1866 067f 23       		.byte	0x23
 1867 0680 14       		.uleb128 0x14
 1868 0681 06       		.uleb128 0x6
 1869 0682 8E040000 		.4byte	.LASF95
 1870 0686 0D       		.byte	0xd
 1871 0687 46       		.byte	0x46
 1872 0688 31050000 		.4byte	0x531
 1873 068c 02       		.byte	0x2
 1874 068d 23       		.byte	0x23
 1875 068e 16       		.uleb128 0x16
ARM GAS  C:\Users\jenny\AppData\Local\Temp\ccjexqIY.s 			page 34


 1876 068f 00       		.byte	0
 1877 0690 05       		.uleb128 0x5
 1878 0691 9A000000 		.4byte	.LASF96
 1879 0695 0A       		.byte	0xa
 1880 0696 0D       		.byte	0xd
 1881 0697 5A       		.byte	0x5a
 1882 0698 E3060000 		.4byte	0x6e3
 1883 069c 06       		.uleb128 0x6
 1884 069d 3C040000 		.4byte	.LASF97
 1885 06a1 0D       		.byte	0xd
 1886 06a2 5E       		.byte	0x5e
 1887 06a3 52050000 		.4byte	0x552
 1888 06a7 02       		.byte	0x2
 1889 06a8 23       		.byte	0x23
 1890 06a9 00       		.uleb128 0
 1891 06aa 06       		.uleb128 0x6
 1892 06ab 9D010000 		.4byte	.LASF98
 1893 06af 0D       		.byte	0xd
 1894 06b0 5F       		.byte	0x5f
 1895 06b1 52050000 		.4byte	0x552
 1896 06b5 02       		.byte	0x2
 1897 06b6 23       		.byte	0x23
 1898 06b7 02       		.uleb128 0x2
 1899 06b8 07       		.uleb128 0x7
 1900 06b9 6D617800 		.ascii	"max\000"
 1901 06bd 0D       		.byte	0xd
 1902 06be 60       		.byte	0x60
 1903 06bf 52050000 		.4byte	0x552
 1904 06c3 02       		.byte	0x2
 1905 06c4 23       		.byte	0x23
 1906 06c5 04       		.uleb128 0x4
 1907 06c6 07       		.uleb128 0x7
 1908 06c7 65727200 		.ascii	"err\000"
 1909 06cb 0D       		.byte	0xd
 1910 06cc 61       		.byte	0x61
 1911 06cd 31050000 		.4byte	0x531
 1912 06d1 02       		.byte	0x2
 1913 06d2 23       		.byte	0x23
 1914 06d3 06       		.uleb128 0x6
 1915 06d4 06       		.uleb128 0x6
 1916 06d5 3A010000 		.4byte	.LASF99
 1917 06d9 0D       		.byte	0xd
 1918 06da 62       		.byte	0x62
 1919 06db 31050000 		.4byte	0x531
 1920 06df 02       		.byte	0x2
 1921 06e0 23       		.byte	0x23
 1922 06e1 08       		.uleb128 0x8
 1923 06e2 00       		.byte	0
 1924 06e3 05       		.uleb128 0x5
 1925 06e4 D5000000 		.4byte	.LASF100
 1926 06e8 06       		.byte	0x6
 1927 06e9 0D       		.byte	0xd
 1928 06ea 65       		.byte	0x65
 1929 06eb 1A070000 		.4byte	0x71a
 1930 06ef 06       		.uleb128 0x6
 1931 06f0 9D010000 		.4byte	.LASF98
 1932 06f4 0D       		.byte	0xd
ARM GAS  C:\Users\jenny\AppData\Local\Temp\ccjexqIY.s 			page 35


 1933 06f5 66       		.byte	0x66
 1934 06f6 31050000 		.4byte	0x531
 1935 06fa 02       		.byte	0x2
 1936 06fb 23       		.byte	0x23
 1937 06fc 00       		.uleb128 0
 1938 06fd 07       		.uleb128 0x7
 1939 06fe 6D617800 		.ascii	"max\000"
 1940 0702 0D       		.byte	0xd
 1941 0703 67       		.byte	0x67
 1942 0704 31050000 		.4byte	0x531
 1943 0708 02       		.byte	0x2
 1944 0709 23       		.byte	0x23
 1945 070a 02       		.uleb128 0x2
 1946 070b 07       		.uleb128 0x7
 1947 070c 65727200 		.ascii	"err\000"
 1948 0710 0D       		.byte	0xd
 1949 0711 68       		.byte	0x68
 1950 0712 31050000 		.4byte	0x531
 1951 0716 02       		.byte	0x2
 1952 0717 23       		.byte	0x23
 1953 0718 04       		.uleb128 0x4
 1954 0719 00       		.byte	0
 1955 071a 05       		.uleb128 0x5
 1956 071b 01050000 		.4byte	.LASF101
 1957 071f 12       		.byte	0x12
 1958 0720 0D       		.byte	0xd
 1959 0721 6B       		.byte	0x6b
 1960 0722 51070000 		.4byte	0x751
 1961 0726 07       		.uleb128 0x7
 1962 0727 73656D00 		.ascii	"sem\000"
 1963 072b 0D       		.byte	0xd
 1964 072c 6C       		.byte	0x6c
 1965 072d E3060000 		.4byte	0x6e3
 1966 0731 02       		.byte	0x2
 1967 0732 23       		.byte	0x23
 1968 0733 00       		.uleb128 0
 1969 0734 06       		.uleb128 0x6
 1970 0735 1E010000 		.4byte	.LASF102
 1971 0739 0D       		.byte	0xd
 1972 073a 6D       		.byte	0x6d
 1973 073b E3060000 		.4byte	0x6e3
 1974 073f 02       		.byte	0x2
 1975 0740 23       		.byte	0x23
 1976 0741 06       		.uleb128 0x6
 1977 0742 06       		.uleb128 0x6
 1978 0743 77040000 		.4byte	.LASF103
 1979 0747 0D       		.byte	0xd
 1980 0748 6E       		.byte	0x6e
 1981 0749 E3060000 		.4byte	0x6e3
 1982 074d 02       		.byte	0x2
 1983 074e 23       		.byte	0x23
 1984 074f 0C       		.uleb128 0xc
 1985 0750 00       		.byte	0
 1986 0751 13       		.uleb128 0x13
 1987 0752 A2010000 		.4byte	.LASF104
 1988 0756 5001     		.2byte	0x150
 1989 0758 0D       		.byte	0xd
ARM GAS  C:\Users\jenny\AppData\Local\Temp\ccjexqIY.s 			page 36


 1990 0759 71       		.byte	0x71
 1991 075a EE070000 		.4byte	0x7ee
 1992 075e 06       		.uleb128 0x6
 1993 075f 38050000 		.4byte	.LASF105
 1994 0763 0D       		.byte	0xd
 1995 0764 73       		.byte	0x73
 1996 0765 DC050000 		.4byte	0x5dc
 1997 0769 02       		.byte	0x2
 1998 076a 23       		.byte	0x23
 1999 076b 00       		.uleb128 0
 2000 076c 06       		.uleb128 0x6
 2001 076d 42010000 		.4byte	.LASF106
 2002 0771 0D       		.byte	0xd
 2003 0772 76       		.byte	0x76
 2004 0773 DC050000 		.4byte	0x5dc
 2005 0777 02       		.byte	0x2
 2006 0778 23       		.byte	0x23
 2007 0779 18       		.uleb128 0x18
 2008 077a 06       		.uleb128 0x6
 2009 077b 24010000 		.4byte	.LASF107
 2010 077f 0D       		.byte	0xd
 2011 0780 79       		.byte	0x79
 2012 0781 DC050000 		.4byte	0x5dc
 2013 0785 02       		.byte	0x2
 2014 0786 23       		.byte	0x23
 2015 0787 30       		.uleb128 0x30
 2016 0788 07       		.uleb128 0x7
 2017 0789 697000   		.ascii	"ip\000"
 2018 078c 0D       		.byte	0xd
 2019 078d 7C       		.byte	0x7c
 2020 078e DC050000 		.4byte	0x5dc
 2021 0792 02       		.byte	0x2
 2022 0793 23       		.byte	0x23
 2023 0794 48       		.uleb128 0x48
 2024 0795 06       		.uleb128 0x6
 2025 0796 15040000 		.4byte	.LASF108
 2026 079a 0D       		.byte	0xd
 2027 079b 7F       		.byte	0x7f
 2028 079c DC050000 		.4byte	0x5dc
 2029 07a0 02       		.byte	0x2
 2030 07a1 23       		.byte	0x23
 2031 07a2 60       		.uleb128 0x60
 2032 07a3 07       		.uleb128 0x7
 2033 07a4 75647000 		.ascii	"udp\000"
 2034 07a8 0D       		.byte	0xd
 2035 07a9 85       		.byte	0x85
 2036 07aa DC050000 		.4byte	0x5dc
 2037 07ae 02       		.byte	0x2
 2038 07af 23       		.byte	0x23
 2039 07b0 78       		.uleb128 0x78
 2040 07b1 07       		.uleb128 0x7
 2041 07b2 74637000 		.ascii	"tcp\000"
 2042 07b6 0D       		.byte	0xd
 2043 07b7 88       		.byte	0x88
 2044 07b8 DC050000 		.4byte	0x5dc
 2045 07bc 03       		.byte	0x3
 2046 07bd 23       		.byte	0x23
ARM GAS  C:\Users\jenny\AppData\Local\Temp\ccjexqIY.s 			page 37


 2047 07be 9001     		.uleb128 0x90
 2048 07c0 07       		.uleb128 0x7
 2049 07c1 6D656D00 		.ascii	"mem\000"
 2050 07c5 0D       		.byte	0xd
 2051 07c6 8B       		.byte	0x8b
 2052 07c7 90060000 		.4byte	0x690
 2053 07cb 03       		.byte	0x3
 2054 07cc 23       		.byte	0x23
 2055 07cd A801     		.uleb128 0xa8
 2056 07cf 06       		.uleb128 0x6
 2057 07d0 F7020000 		.4byte	.LASF109
 2058 07d4 0D       		.byte	0xd
 2059 07d5 8E       		.byte	0x8e
 2060 07d6 EE070000 		.4byte	0x7ee
 2061 07da 03       		.byte	0x3
 2062 07db 23       		.byte	0x23
 2063 07dc B201     		.uleb128 0xb2
 2064 07de 07       		.uleb128 0x7
 2065 07df 73797300 		.ascii	"sys\000"
 2066 07e3 0D       		.byte	0xd
 2067 07e4 91       		.byte	0x91
 2068 07e5 1A070000 		.4byte	0x71a
 2069 07e9 03       		.byte	0x3
 2070 07ea 23       		.byte	0x23
 2071 07eb BE02     		.uleb128 0x13e
 2072 07ed 00       		.byte	0
 2073 07ee 14       		.uleb128 0x14
 2074 07ef 90060000 		.4byte	0x690
 2075 07f3 FE070000 		.4byte	0x7fe
 2076 07f7 15       		.uleb128 0x15
 2077 07f8 46040000 		.4byte	0x446
 2078 07fc 0D       		.byte	0xd
 2079 07fd 00       		.byte	0
 2080 07fe 16       		.uleb128 0x16
 2081 07ff 6D656D00 		.ascii	"mem\000"
 2082 0803 06       		.byte	0x6
 2083 0804 01       		.byte	0x1
 2084 0805 9C       		.byte	0x9c
 2085 0806 35080000 		.4byte	0x835
 2086 080a 06       		.uleb128 0x6
 2087 080b 7C000000 		.4byte	.LASF110
 2088 080f 01       		.byte	0x1
 2089 0810 9E       		.byte	0x9e
 2090 0811 52050000 		.4byte	0x552
 2091 0815 02       		.byte	0x2
 2092 0816 23       		.byte	0x23
 2093 0817 00       		.uleb128 0
 2094 0818 06       		.uleb128 0x6
 2095 0819 AB000000 		.4byte	.LASF111
 2096 081d 01       		.byte	0x1
 2097 081e A0       		.byte	0xa0
 2098 081f 52050000 		.4byte	0x552
 2099 0823 02       		.byte	0x2
 2100 0824 23       		.byte	0x23
 2101 0825 02       		.uleb128 0x2
 2102 0826 06       		.uleb128 0x6
 2103 0827 9D010000 		.4byte	.LASF98
ARM GAS  C:\Users\jenny\AppData\Local\Temp\ccjexqIY.s 			page 38


 2104 082b 01       		.byte	0x1
 2105 082c A2       		.byte	0xa2
 2106 082d 1B050000 		.4byte	0x51b
 2107 0831 02       		.byte	0x2
 2108 0832 23       		.byte	0x23
 2109 0833 04       		.uleb128 0x4
 2110 0834 00       		.byte	0
 2111 0835 17       		.uleb128 0x17
 2112 0836 01       		.byte	0x1
 2113 0837 90020000 		.4byte	.LASF114
 2114 083b 01       		.byte	0x1
 2115 083c 1201     		.2byte	0x112
 2116 083e 01       		.byte	0x1
 2117 083f 00000000 		.4byte	.LFB8
 2118 0843 68000000 		.4byte	.LFE8
 2119 0847 00000000 		.4byte	.LLST0
 2120 084b 01       		.byte	0x1
 2121 084c 87080000 		.4byte	0x887
 2122 0850 18       		.uleb128 0x18
 2123 0851 6D656D00 		.ascii	"mem\000"
 2124 0855 01       		.byte	0x1
 2125 0856 1401     		.2byte	0x114
 2126 0858 87080000 		.4byte	0x887
 2127 085c 20000000 		.4byte	.LLST1
 2128 0860 19       		.uleb128 0x19
 2129 0861 44000000 		.4byte	.LVL2
 2130 0865 7E0C0000 		.4byte	0xc7e
 2131 0869 7C080000 		.4byte	0x87c
 2132 086d 1A       		.uleb128 0x1a
 2133 086e 01       		.byte	0x1
 2134 086f 51       		.byte	0x51
 2135 0870 01       		.byte	0x1
 2136 0871 31       		.byte	0x31
 2137 0872 1A       		.uleb128 0x1a
 2138 0873 01       		.byte	0x1
 2139 0874 50       		.byte	0x50
 2140 0875 05       		.byte	0x5
 2141 0876 03       		.byte	0x3
 2142 0877 00000000 		.4byte	.LANCHOR4
 2143 087b 00       		.byte	0
 2144 087c 1B       		.uleb128 0x1b
 2145 087d 50000000 		.4byte	.LVL3
 2146 0881 01       		.byte	0x1
 2147 0882 A10C0000 		.4byte	0xca1
 2148 0886 00       		.byte	0
 2149 0887 09       		.uleb128 0x9
 2150 0888 04       		.byte	0x4
 2151 0889 FE070000 		.4byte	0x7fe
 2152 088d 1C       		.uleb128 0x1c
 2153 088e 3E030000 		.4byte	.LASF135
 2154 0892 01       		.byte	0x1
 2155 0893 EC       		.byte	0xec
 2156 0894 01       		.byte	0x1
 2157 0895 01       		.byte	0x1
 2158 0896 BC080000 		.4byte	0x8bc
 2159 089a 1D       		.uleb128 0x1d
 2160 089b 6D656D00 		.ascii	"mem\000"
ARM GAS  C:\Users\jenny\AppData\Local\Temp\ccjexqIY.s 			page 39


 2161 089f 01       		.byte	0x1
 2162 08a0 EC       		.byte	0xec
 2163 08a1 87080000 		.4byte	0x887
 2164 08a5 1E       		.uleb128 0x1e
 2165 08a6 8F050000 		.4byte	.LASF112
 2166 08aa 01       		.byte	0x1
 2167 08ab EE       		.byte	0xee
 2168 08ac 87080000 		.4byte	0x887
 2169 08b0 1E       		.uleb128 0x1e
 2170 08b1 BF000000 		.4byte	.LASF113
 2171 08b5 01       		.byte	0x1
 2172 08b6 EF       		.byte	0xef
 2173 08b7 87080000 		.4byte	0x887
 2174 08bb 00       		.byte	0
 2175 08bc 17       		.uleb128 0x17
 2176 08bd 01       		.byte	0x1
 2177 08be 16000000 		.4byte	.LASF115
 2178 08c2 01       		.byte	0x1
 2179 08c3 3701     		.2byte	0x137
 2180 08c5 01       		.byte	0x1
 2181 08c6 00000000 		.4byte	.LFB9
 2182 08ca 40010000 		.4byte	.LFE9
 2183 08ce 50000000 		.4byte	.LLST2
 2184 08d2 01       		.byte	0x1
 2185 08d3 A1090000 		.4byte	0x9a1
 2186 08d7 1F       		.uleb128 0x1f
 2187 08d8 F3000000 		.4byte	.LASF116
 2188 08dc 01       		.byte	0x1
 2189 08dd 3701     		.2byte	0x137
 2190 08df A3020000 		.4byte	0x2a3
 2191 08e3 70000000 		.4byte	.LLST3
 2192 08e7 18       		.uleb128 0x18
 2193 08e8 6D656D00 		.ascii	"mem\000"
 2194 08ec 01       		.byte	0x1
 2195 08ed 3901     		.2byte	0x139
 2196 08ef 87080000 		.4byte	0x887
 2197 08f3 BA000000 		.4byte	.LLST4
 2198 08f7 20       		.uleb128 0x20
 2199 08f8 8D080000 		.4byte	0x88d
 2200 08fc 7E000000 		.4byte	.LBB4
 2201 0900 00000000 		.4byte	.Ldebug_ranges0+0
 2202 0904 01       		.byte	0x1
 2203 0905 5F01     		.2byte	0x15f
 2204 0907 51090000 		.4byte	0x951
 2205 090b 21       		.uleb128 0x21
 2206 090c 9A080000 		.4byte	0x89a
 2207 0910 D8000000 		.4byte	.LLST5
 2208 0914 22       		.uleb128 0x22
 2209 0915 20000000 		.4byte	.Ldebug_ranges0+0x20
 2210 0919 23       		.uleb128 0x23
 2211 091a A5080000 		.4byte	0x8a5
 2212 091e F6000000 		.4byte	.LLST6
 2213 0922 23       		.uleb128 0x23
 2214 0923 B0080000 		.4byte	0x8b0
 2215 0927 09010000 		.4byte	.LLST7
 2216 092b 24       		.uleb128 0x24
 2217 092c 0C010000 		.4byte	.LVL18
ARM GAS  C:\Users\jenny\AppData\Local\Temp\ccjexqIY.s 			page 40


 2218 0930 A10C0000 		.4byte	0xca1
 2219 0934 24       		.uleb128 0x24
 2220 0935 16010000 		.4byte	.LVL19
 2221 0939 A10C0000 		.4byte	0xca1
 2222 093d 24       		.uleb128 0x24
 2223 093e 1C010000 		.4byte	.LVL20
 2224 0942 A10C0000 		.4byte	0xca1
 2225 0946 24       		.uleb128 0x24
 2226 0947 22010000 		.4byte	.LVL21
 2227 094b A10C0000 		.4byte	0xca1
 2228 094f 00       		.byte	0
 2229 0950 00       		.byte	0
 2230 0951 24       		.uleb128 0x24
 2231 0952 20000000 		.4byte	.LVL6
 2232 0956 A10C0000 		.4byte	0xca1
 2233 095a 19       		.uleb128 0x19
 2234 095b 4A000000 		.4byte	.LVL9
 2235 095f AC0C0000 		.4byte	0xcac
 2236 0963 76090000 		.4byte	0x976
 2237 0967 1A       		.uleb128 0x1a
 2238 0968 01       		.byte	0x1
 2239 0969 51       		.byte	0x51
 2240 096a 01       		.byte	0x1
 2241 096b 30       		.byte	0x30
 2242 096c 1A       		.uleb128 0x1a
 2243 096d 01       		.byte	0x1
 2244 096e 50       		.byte	0x50
 2245 096f 05       		.byte	0x5
 2246 0970 03       		.byte	0x3
 2247 0971 00000000 		.4byte	.LANCHOR4
 2248 0975 00       		.byte	0
 2249 0976 25       		.uleb128 0x25
 2250 0977 02010000 		.4byte	.LVL15
 2251 097b 01       		.byte	0x1
 2252 097c C90C0000 		.4byte	0xcc9
 2253 0980 8E090000 		.4byte	0x98e
 2254 0984 1A       		.uleb128 0x1a
 2255 0985 01       		.byte	0x1
 2256 0986 50       		.byte	0x50
 2257 0987 05       		.byte	0x5
 2258 0988 03       		.byte	0x3
 2259 0989 00000000 		.4byte	.LANCHOR4
 2260 098d 00       		.byte	0
 2261 098e 24       		.uleb128 0x24
 2262 098f 06010000 		.4byte	.LVL16
 2263 0993 A10C0000 		.4byte	0xca1
 2264 0997 24       		.uleb128 0x24
 2265 0998 28010000 		.4byte	.LVL23
 2266 099c A10C0000 		.4byte	0xca1
 2267 09a0 00       		.byte	0
 2268 09a1 26       		.uleb128 0x26
 2269 09a2 01       		.byte	0x1
 2270 09a3 CE010000 		.4byte	.LASF121
 2271 09a7 01       		.byte	0x1
 2272 09a8 7101     		.2byte	0x171
 2273 09aa 01       		.byte	0x1
 2274 09ab A3020000 		.4byte	0x2a3
ARM GAS  C:\Users\jenny\AppData\Local\Temp\ccjexqIY.s 			page 41


 2275 09af 00000000 		.4byte	.LFB10
 2276 09b3 40010000 		.4byte	.LFE10
 2277 09b7 1C010000 		.4byte	.LLST8
 2278 09bb 01       		.byte	0x1
 2279 09bc 940A0000 		.4byte	0xa94
 2280 09c0 1F       		.uleb128 0x1f
 2281 09c1 F3000000 		.4byte	.LASF116
 2282 09c5 01       		.byte	0x1
 2283 09c6 7101     		.2byte	0x171
 2284 09c8 A3020000 		.4byte	0x2a3
 2285 09cc 3C010000 		.4byte	.LLST9
 2286 09d0 1F       		.uleb128 0x1f
 2287 09d1 09030000 		.4byte	.LASF117
 2288 09d5 01       		.byte	0x1
 2289 09d6 7101     		.2byte	0x171
 2290 09d8 52050000 		.4byte	0x552
 2291 09dc BB010000 		.4byte	.LLST10
 2292 09e0 27       		.uleb128 0x27
 2293 09e1 53030000 		.4byte	.LASF118
 2294 09e5 01       		.byte	0x1
 2295 09e6 7301     		.2byte	0x173
 2296 09e8 52050000 		.4byte	0x552
 2297 09ec 30020000 		.4byte	.LLST11
 2298 09f0 18       		.uleb128 0x18
 2299 09f1 70747200 		.ascii	"ptr\000"
 2300 09f5 01       		.byte	0x1
 2301 09f6 7401     		.2byte	0x174
 2302 09f8 52050000 		.4byte	0x552
 2303 09fc 64020000 		.4byte	.LLST12
 2304 0a00 27       		.uleb128 0x27
 2305 0a01 72040000 		.4byte	.LASF119
 2306 0a05 01       		.byte	0x1
 2307 0a06 7401     		.2byte	0x174
 2308 0a08 52050000 		.4byte	0x552
 2309 0a0c 98020000 		.4byte	.LLST13
 2310 0a10 18       		.uleb128 0x18
 2311 0a11 6D656D00 		.ascii	"mem\000"
 2312 0a15 01       		.byte	0x1
 2313 0a16 7501     		.2byte	0x175
 2314 0a18 87080000 		.4byte	0x887
 2315 0a1c C1020000 		.4byte	.LLST14
 2316 0a20 27       		.uleb128 0x27
 2317 0a21 53040000 		.4byte	.LASF120
 2318 0a25 01       		.byte	0x1
 2319 0a26 7501     		.2byte	0x175
 2320 0a28 87080000 		.4byte	0x887
 2321 0a2c 18030000 		.4byte	.LLST15
 2322 0a30 28       		.uleb128 0x28
 2323 0a31 5E000000 		.4byte	.LBB10
 2324 0a35 94000000 		.4byte	.LBE10
 2325 0a39 4E0A0000 		.4byte	0xa4e
 2326 0a3d 27       		.uleb128 0x27
 2327 0a3e 7C000000 		.4byte	.LASF110
 2328 0a42 01       		.byte	0x1
 2329 0a43 A801     		.2byte	0x1a8
 2330 0a45 52050000 		.4byte	0x552
 2331 0a49 5C030000 		.4byte	.LLST16
ARM GAS  C:\Users\jenny\AppData\Local\Temp\ccjexqIY.s 			page 42


 2332 0a4d 00       		.byte	0
 2333 0a4e 19       		.uleb128 0x19
 2334 0a4f 50000000 		.4byte	.LVL34
 2335 0a53 AC0C0000 		.4byte	0xcac
 2336 0a57 6A0A0000 		.4byte	0xa6a
 2337 0a5b 1A       		.uleb128 0x1a
 2338 0a5c 01       		.byte	0x1
 2339 0a5d 51       		.byte	0x51
 2340 0a5e 01       		.byte	0x1
 2341 0a5f 30       		.byte	0x30
 2342 0a60 1A       		.uleb128 0x1a
 2343 0a61 01       		.byte	0x1
 2344 0a62 50       		.byte	0x50
 2345 0a63 05       		.byte	0x5
 2346 0a64 03       		.byte	0x3
 2347 0a65 00000000 		.4byte	.LANCHOR4
 2348 0a69 00       		.byte	0
 2349 0a6a 19       		.uleb128 0x19
 2350 0a6b A8000000 		.4byte	.LVL43
 2351 0a6f C90C0000 		.4byte	0xcc9
 2352 0a73 810A0000 		.4byte	0xa81
 2353 0a77 1A       		.uleb128 0x1a
 2354 0a78 01       		.byte	0x1
 2355 0a79 50       		.byte	0x50
 2356 0a7a 05       		.byte	0x5
 2357 0a7b 03       		.byte	0x3
 2358 0a7c 00000000 		.4byte	.LANCHOR4
 2359 0a80 00       		.byte	0
 2360 0a81 24       		.uleb128 0x24
 2361 0a82 B2000000 		.4byte	.LVL45
 2362 0a86 A10C0000 		.4byte	0xca1
 2363 0a8a 24       		.uleb128 0x24
 2364 0a8b E4000000 		.4byte	.LVL53
 2365 0a8f A10C0000 		.4byte	0xca1
 2366 0a93 00       		.byte	0
 2367 0a94 26       		.uleb128 0x26
 2368 0a95 01       		.byte	0x1
 2369 0a96 19050000 		.4byte	.LASF122
 2370 0a9a 01       		.byte	0x1
 2371 0a9b EE01     		.2byte	0x1ee
 2372 0a9d 01       		.byte	0x1
 2373 0a9e A3020000 		.4byte	0x2a3
 2374 0aa2 00000000 		.4byte	.LFB11
 2375 0aa6 78010000 		.4byte	.LFE11
 2376 0aaa 9E030000 		.4byte	.LLST17
 2377 0aae 01       		.byte	0x1
 2378 0aaf 870B0000 		.4byte	0xb87
 2379 0ab3 1F       		.uleb128 0x1f
 2380 0ab4 53030000 		.4byte	.LASF118
 2381 0ab8 01       		.byte	0x1
 2382 0ab9 EE01     		.2byte	0x1ee
 2383 0abb 52050000 		.4byte	0x552
 2384 0abf BE030000 		.4byte	.LLST18
 2385 0ac3 18       		.uleb128 0x18
 2386 0ac4 70747200 		.ascii	"ptr\000"
 2387 0ac8 01       		.byte	0x1
 2388 0ac9 F001     		.2byte	0x1f0
ARM GAS  C:\Users\jenny\AppData\Local\Temp\ccjexqIY.s 			page 43


 2389 0acb 52050000 		.4byte	0x552
 2390 0acf 2D040000 		.4byte	.LLST19
 2391 0ad3 27       		.uleb128 0x27
 2392 0ad4 72040000 		.4byte	.LASF119
 2393 0ad8 01       		.byte	0x1
 2394 0ad9 F001     		.2byte	0x1f0
 2395 0adb 52050000 		.4byte	0x552
 2396 0adf 57040000 		.4byte	.LLST20
 2397 0ae3 18       		.uleb128 0x18
 2398 0ae4 6D656D00 		.ascii	"mem\000"
 2399 0ae8 01       		.byte	0x1
 2400 0ae9 F101     		.2byte	0x1f1
 2401 0aeb 87080000 		.4byte	0x887
 2402 0aef 6A040000 		.4byte	.LLST21
 2403 0af3 27       		.uleb128 0x27
 2404 0af4 53040000 		.4byte	.LASF120
 2405 0af8 01       		.byte	0x1
 2406 0af9 F101     		.2byte	0x1f1
 2407 0afb 87080000 		.4byte	0x887
 2408 0aff 9E040000 		.4byte	.LLST22
 2409 0b03 28       		.uleb128 0x28
 2410 0b04 36010000 		.4byte	.LBB11
 2411 0b08 78010000 		.4byte	.LBE11
 2412 0b0c 210B0000 		.4byte	0xb21
 2413 0b10 18       		.uleb128 0x18
 2414 0b11 63757200 		.ascii	"cur\000"
 2415 0b15 01       		.byte	0x1
 2416 0b16 5102     		.2byte	0x251
 2417 0b18 87080000 		.4byte	0x887
 2418 0b1c B1040000 		.4byte	.LLST23
 2419 0b20 00       		.byte	0
 2420 0b21 19       		.uleb128 0x19
 2421 0b22 2C000000 		.4byte	.LVL65
 2422 0b26 AC0C0000 		.4byte	0xcac
 2423 0b2a 3D0B0000 		.4byte	0xb3d
 2424 0b2e 1A       		.uleb128 0x1a
 2425 0b2f 01       		.byte	0x1
 2426 0b30 51       		.byte	0x51
 2427 0b31 01       		.byte	0x1
 2428 0b32 30       		.byte	0x30
 2429 0b33 1A       		.uleb128 0x1a
 2430 0b34 01       		.byte	0x1
 2431 0b35 50       		.byte	0x50
 2432 0b36 05       		.byte	0x5
 2433 0b37 03       		.byte	0x3
 2434 0b38 00000000 		.4byte	.LANCHOR4
 2435 0b3c 00       		.byte	0
 2436 0b3d 19       		.uleb128 0x19
 2437 0b3e 78000000 		.4byte	.LVL73
 2438 0b42 C90C0000 		.4byte	0xcc9
 2439 0b46 540B0000 		.4byte	0xb54
 2440 0b4a 1A       		.uleb128 0x1a
 2441 0b4b 01       		.byte	0x1
 2442 0b4c 50       		.byte	0x50
 2443 0b4d 05       		.byte	0x5
 2444 0b4e 03       		.byte	0x3
 2445 0b4f 00000000 		.4byte	.LANCHOR4
ARM GAS  C:\Users\jenny\AppData\Local\Temp\ccjexqIY.s 			page 44


 2446 0b53 00       		.byte	0
 2447 0b54 19       		.uleb128 0x19
 2448 0b55 C4000000 		.4byte	.LVL78
 2449 0b59 C90C0000 		.4byte	0xcc9
 2450 0b5d 6B0B0000 		.4byte	0xb6b
 2451 0b61 1A       		.uleb128 0x1a
 2452 0b62 01       		.byte	0x1
 2453 0b63 50       		.byte	0x50
 2454 0b64 05       		.byte	0x5
 2455 0b65 03       		.byte	0x3
 2456 0b66 00000000 		.4byte	.LANCHOR4
 2457 0b6a 00       		.byte	0
 2458 0b6b 24       		.uleb128 0x24
 2459 0b6c 2A010000 		.4byte	.LVL84
 2460 0b70 A10C0000 		.4byte	0xca1
 2461 0b74 24       		.uleb128 0x24
 2462 0b75 2E010000 		.4byte	.LVL85
 2463 0b79 A10C0000 		.4byte	0xca1
 2464 0b7d 24       		.uleb128 0x24
 2465 0b7e 34010000 		.4byte	.LVL86
 2466 0b82 A10C0000 		.4byte	0xca1
 2467 0b86 00       		.byte	0
 2468 0b87 26       		.uleb128 0x26
 2469 0b88 01       		.byte	0x1
 2470 0b89 60010000 		.4byte	.LASF123
 2471 0b8d 01       		.byte	0x1
 2472 0b8e 8602     		.2byte	0x286
 2473 0b90 01       		.byte	0x1
 2474 0b91 A3020000 		.4byte	0x2a3
 2475 0b95 00000000 		.4byte	.LFB12
 2476 0b99 1C000000 		.4byte	.LFE12
 2477 0b9d CF040000 		.4byte	.LLST24
 2478 0ba1 01       		.byte	0x1
 2479 0ba2 040C0000 		.4byte	0xc04
 2480 0ba6 1F       		.uleb128 0x1f
 2481 0ba7 34010000 		.4byte	.LASF124
 2482 0bab 01       		.byte	0x1
 2483 0bac 8602     		.2byte	0x286
 2484 0bae 52050000 		.4byte	0x552
 2485 0bb2 EF040000 		.4byte	.LLST25
 2486 0bb6 1F       		.uleb128 0x1f
 2487 0bb7 53030000 		.4byte	.LASF118
 2488 0bbb 01       		.byte	0x1
 2489 0bbc 8602     		.2byte	0x286
 2490 0bbe 52050000 		.4byte	0x552
 2491 0bc2 10050000 		.4byte	.LLST26
 2492 0bc6 18       		.uleb128 0x18
 2493 0bc7 7000     		.ascii	"p\000"
 2494 0bc9 01       		.byte	0x1
 2495 0bca 8802     		.2byte	0x288
 2496 0bcc A3020000 		.4byte	0x2a3
 2497 0bd0 31050000 		.4byte	.LLST27
 2498 0bd4 19       		.uleb128 0x19
 2499 0bd5 0C000000 		.4byte	.LVL92
 2500 0bd9 940A0000 		.4byte	0xa94
 2501 0bdd E80B0000 		.4byte	0xbe8
 2502 0be1 1A       		.uleb128 0x1a
ARM GAS  C:\Users\jenny\AppData\Local\Temp\ccjexqIY.s 			page 45


 2503 0be2 01       		.byte	0x1
 2504 0be3 50       		.byte	0x50
 2505 0be4 02       		.byte	0x2
 2506 0be5 74       		.byte	0x74
 2507 0be6 00       		.sleb128 0
 2508 0be7 00       		.byte	0
 2509 0be8 29       		.uleb128 0x29
 2510 0be9 18000000 		.4byte	.LVL93
 2511 0bed DD0C0000 		.4byte	0xcdd
 2512 0bf1 1A       		.uleb128 0x1a
 2513 0bf2 01       		.byte	0x1
 2514 0bf3 52       		.byte	0x52
 2515 0bf4 02       		.byte	0x2
 2516 0bf5 74       		.byte	0x74
 2517 0bf6 00       		.sleb128 0
 2518 0bf7 1A       		.uleb128 0x1a
 2519 0bf8 01       		.byte	0x1
 2520 0bf9 51       		.byte	0x51
 2521 0bfa 01       		.byte	0x1
 2522 0bfb 30       		.byte	0x30
 2523 0bfc 1A       		.uleb128 0x1a
 2524 0bfd 01       		.byte	0x1
 2525 0bfe 50       		.byte	0x50
 2526 0bff 02       		.byte	0x2
 2527 0c00 75       		.byte	0x75
 2528 0c01 00       		.sleb128 0
 2529 0c02 00       		.byte	0
 2530 0c03 00       		.byte	0
 2531 0c04 2A       		.uleb128 0x2a
 2532 0c05 72616D00 		.ascii	"ram\000"
 2533 0c09 01       		.byte	0x1
 2534 0c0a BB       		.byte	0xbb
 2535 0c0b 150C0000 		.4byte	0xc15
 2536 0c0f 05       		.byte	0x5
 2537 0c10 03       		.byte	0x3
 2538 0c11 00000000 		.4byte	ram
 2539 0c15 09       		.uleb128 0x9
 2540 0c16 04       		.byte	0x4
 2541 0c17 1B050000 		.4byte	0x51b
 2542 0c1b 2B       		.uleb128 0x2b
 2543 0c1c 36030000 		.4byte	.LASF125
 2544 0c20 01       		.byte	0x1
 2545 0c21 BD       		.byte	0xbd
 2546 0c22 87080000 		.4byte	0x887
 2547 0c26 05       		.byte	0x5
 2548 0c27 03       		.byte	0x3
 2549 0c28 00000000 		.4byte	ram_end
 2550 0c2c 2B       		.uleb128 0x2b
 2551 0c2d 87000000 		.4byte	.LASF126
 2552 0c31 01       		.byte	0x1
 2553 0c32 BF       		.byte	0xbf
 2554 0c33 87080000 		.4byte	0x887
 2555 0c37 05       		.byte	0x5
 2556 0c38 03       		.byte	0x3
 2557 0c39 00000000 		.4byte	lfree
 2558 0c3d 2B       		.uleb128 0x2b
 2559 0c3e 49030000 		.4byte	.LASF127
ARM GAS  C:\Users\jenny\AppData\Local\Temp\ccjexqIY.s 			page 46


 2560 0c42 01       		.byte	0x1
 2561 0c43 C3       		.byte	0xc3
 2562 0c44 68050000 		.4byte	0x568
 2563 0c48 05       		.byte	0x5
 2564 0c49 03       		.byte	0x3
 2565 0c4a 00000000 		.4byte	mem_mutex
 2566 0c4e 2C       		.uleb128 0x2c
 2567 0c4f C4000000 		.4byte	.LASF128
 2568 0c53 0D       		.byte	0xd
 2569 0c54 95       		.byte	0x95
 2570 0c55 51070000 		.4byte	0x751
 2571 0c59 01       		.byte	0x1
 2572 0c5a 01       		.byte	0x1
 2573 0c5b 14       		.uleb128 0x14
 2574 0c5c 1B050000 		.4byte	0x51b
 2575 0c60 6C0C0000 		.4byte	0xc6c
 2576 0c64 2D       		.uleb128 0x2d
 2577 0c65 46040000 		.4byte	0x446
 2578 0c69 5306     		.2byte	0x653
 2579 0c6b 00       		.byte	0
 2580 0c6c 2E       		.uleb128 0x2e
 2581 0c6d 3D020000 		.4byte	.LASF129
 2582 0c71 01       		.byte	0x1
 2583 0c72 B6       		.byte	0xb6
 2584 0c73 5B0C0000 		.4byte	0xc5b
 2585 0c77 01       		.byte	0x1
 2586 0c78 05       		.byte	0x5
 2587 0c79 03       		.byte	0x3
 2588 0c7a 00000000 		.4byte	ram_heap
 2589 0c7e 2F       		.uleb128 0x2f
 2590 0c7f 01       		.byte	0x1
 2591 0c80 DD020000 		.4byte	.LASF130
 2592 0c84 0E       		.byte	0xe
 2593 0c85 8B       		.byte	0x8b
 2594 0c86 01       		.byte	0x1
 2595 0c87 5D050000 		.4byte	0x55d
 2596 0c8b 01       		.byte	0x1
 2597 0c8c 9B0C0000 		.4byte	0xc9b
 2598 0c90 30       		.uleb128 0x30
 2599 0c91 9B0C0000 		.4byte	0xc9b
 2600 0c95 30       		.uleb128 0x30
 2601 0c96 1B050000 		.4byte	0x51b
 2602 0c9a 00       		.byte	0
 2603 0c9b 09       		.uleb128 0x9
 2604 0c9c 04       		.byte	0x4
 2605 0c9d 68050000 		.4byte	0x568
 2606 0ca1 31       		.uleb128 0x31
 2607 0ca2 01       		.byte	0x1
 2608 0ca3 3D050000 		.4byte	.LASF136
 2609 0ca7 06       		.byte	0x6
 2610 0ca8 0102     		.2byte	0x201
 2611 0caa 01       		.byte	0x1
 2612 0cab 01       		.byte	0x1
 2613 0cac 2F       		.uleb128 0x2f
 2614 0cad 01       		.byte	0x1
 2615 0cae 7C040000 		.4byte	.LASF131
 2616 0cb2 0E       		.byte	0xe
ARM GAS  C:\Users\jenny\AppData\Local\Temp\ccjexqIY.s 			page 47


 2617 0cb3 97       		.byte	0x97
 2618 0cb4 01       		.byte	0x1
 2619 0cb5 3C050000 		.4byte	0x53c
 2620 0cb9 01       		.byte	0x1
 2621 0cba C90C0000 		.4byte	0xcc9
 2622 0cbe 30       		.uleb128 0x30
 2623 0cbf 9B0C0000 		.4byte	0xc9b
 2624 0cc3 30       		.uleb128 0x30
 2625 0cc4 3C050000 		.4byte	0x53c
 2626 0cc8 00       		.byte	0
 2627 0cc9 32       		.uleb128 0x32
 2628 0cca 01       		.byte	0x1
 2629 0ccb 79010000 		.4byte	.LASF137
 2630 0ccf 0E       		.byte	0xe
 2631 0cd0 8E       		.byte	0x8e
 2632 0cd1 01       		.byte	0x1
 2633 0cd2 01       		.byte	0x1
 2634 0cd3 DD0C0000 		.4byte	0xcdd
 2635 0cd7 30       		.uleb128 0x30
 2636 0cd8 9B0C0000 		.4byte	0xc9b
 2637 0cdc 00       		.byte	0
 2638 0cdd 33       		.uleb128 0x33
 2639 0cde 01       		.byte	0x1
 2640 0cdf 11030000 		.4byte	.LASF138
 2641 0ce3 01       		.byte	0x1
 2642 0ce4 A3020000 		.4byte	0x2a3
 2643 0ce8 01       		.byte	0x1
 2644 0ce9 01       		.byte	0x1
 2645 0cea 30       		.uleb128 0x30
 2646 0ceb A3020000 		.4byte	0x2a3
 2647 0cef 30       		.uleb128 0x30
 2648 0cf0 29000000 		.4byte	0x29
 2649 0cf4 30       		.uleb128 0x30
 2650 0cf5 46040000 		.4byte	0x446
 2651 0cf9 00       		.byte	0
 2652 0cfa 00       		.byte	0
 2653              		.section	.debug_abbrev,"",%progbits
 2654              	.Ldebug_abbrev0:
 2655 0000 01       		.uleb128 0x1
 2656 0001 11       		.uleb128 0x11
 2657 0002 01       		.byte	0x1
 2658 0003 25       		.uleb128 0x25
 2659 0004 0E       		.uleb128 0xe
 2660 0005 13       		.uleb128 0x13
 2661 0006 0B       		.uleb128 0xb
 2662 0007 03       		.uleb128 0x3
 2663 0008 0E       		.uleb128 0xe
 2664 0009 1B       		.uleb128 0x1b
 2665 000a 0E       		.uleb128 0xe
 2666 000b 55       		.uleb128 0x55
 2667 000c 06       		.uleb128 0x6
 2668 000d 11       		.uleb128 0x11
 2669 000e 01       		.uleb128 0x1
 2670 000f 52       		.uleb128 0x52
 2671 0010 01       		.uleb128 0x1
 2672 0011 10       		.uleb128 0x10
 2673 0012 06       		.uleb128 0x6
ARM GAS  C:\Users\jenny\AppData\Local\Temp\ccjexqIY.s 			page 48


 2674 0013 00       		.byte	0
 2675 0014 00       		.byte	0
 2676 0015 02       		.uleb128 0x2
 2677 0016 24       		.uleb128 0x24
 2678 0017 00       		.byte	0
 2679 0018 0B       		.uleb128 0xb
 2680 0019 0B       		.uleb128 0xb
 2681 001a 3E       		.uleb128 0x3e
 2682 001b 0B       		.uleb128 0xb
 2683 001c 03       		.uleb128 0x3
 2684 001d 08       		.uleb128 0x8
 2685 001e 00       		.byte	0
 2686 001f 00       		.byte	0
 2687 0020 03       		.uleb128 0x3
 2688 0021 24       		.uleb128 0x24
 2689 0022 00       		.byte	0
 2690 0023 0B       		.uleb128 0xb
 2691 0024 0B       		.uleb128 0xb
 2692 0025 3E       		.uleb128 0x3e
 2693 0026 0B       		.uleb128 0xb
 2694 0027 03       		.uleb128 0x3
 2695 0028 0E       		.uleb128 0xe
 2696 0029 00       		.byte	0
 2697 002a 00       		.byte	0
 2698 002b 04       		.uleb128 0x4
 2699 002c 16       		.uleb128 0x16
 2700 002d 00       		.byte	0
 2701 002e 03       		.uleb128 0x3
 2702 002f 0E       		.uleb128 0xe
 2703 0030 3A       		.uleb128 0x3a
 2704 0031 0B       		.uleb128 0xb
 2705 0032 3B       		.uleb128 0x3b
 2706 0033 0B       		.uleb128 0xb
 2707 0034 49       		.uleb128 0x49
 2708 0035 13       		.uleb128 0x13
 2709 0036 00       		.byte	0
 2710 0037 00       		.byte	0
 2711 0038 05       		.uleb128 0x5
 2712 0039 13       		.uleb128 0x13
 2713 003a 01       		.byte	0x1
 2714 003b 03       		.uleb128 0x3
 2715 003c 0E       		.uleb128 0xe
 2716 003d 0B       		.uleb128 0xb
 2717 003e 0B       		.uleb128 0xb
 2718 003f 3A       		.uleb128 0x3a
 2719 0040 0B       		.uleb128 0xb
 2720 0041 3B       		.uleb128 0x3b
 2721 0042 0B       		.uleb128 0xb
 2722 0043 01       		.uleb128 0x1
 2723 0044 13       		.uleb128 0x13
 2724 0045 00       		.byte	0
 2725 0046 00       		.byte	0
 2726 0047 06       		.uleb128 0x6
 2727 0048 0D       		.uleb128 0xd
 2728 0049 00       		.byte	0
 2729 004a 03       		.uleb128 0x3
 2730 004b 0E       		.uleb128 0xe
ARM GAS  C:\Users\jenny\AppData\Local\Temp\ccjexqIY.s 			page 49


 2731 004c 3A       		.uleb128 0x3a
 2732 004d 0B       		.uleb128 0xb
 2733 004e 3B       		.uleb128 0x3b
 2734 004f 0B       		.uleb128 0xb
 2735 0050 49       		.uleb128 0x49
 2736 0051 13       		.uleb128 0x13
 2737 0052 38       		.uleb128 0x38
 2738 0053 0A       		.uleb128 0xa
 2739 0054 00       		.byte	0
 2740 0055 00       		.byte	0
 2741 0056 07       		.uleb128 0x7
 2742 0057 0D       		.uleb128 0xd
 2743 0058 00       		.byte	0
 2744 0059 03       		.uleb128 0x3
 2745 005a 08       		.uleb128 0x8
 2746 005b 3A       		.uleb128 0x3a
 2747 005c 0B       		.uleb128 0xb
 2748 005d 3B       		.uleb128 0x3b
 2749 005e 0B       		.uleb128 0xb
 2750 005f 49       		.uleb128 0x49
 2751 0060 13       		.uleb128 0x13
 2752 0061 38       		.uleb128 0x38
 2753 0062 0A       		.uleb128 0xa
 2754 0063 00       		.byte	0
 2755 0064 00       		.byte	0
 2756 0065 08       		.uleb128 0x8
 2757 0066 13       		.uleb128 0x13
 2758 0067 01       		.byte	0x1
 2759 0068 0B       		.uleb128 0xb
 2760 0069 0B       		.uleb128 0xb
 2761 006a 3A       		.uleb128 0x3a
 2762 006b 0B       		.uleb128 0xb
 2763 006c 3B       		.uleb128 0x3b
 2764 006d 0B       		.uleb128 0xb
 2765 006e 01       		.uleb128 0x1
 2766 006f 13       		.uleb128 0x13
 2767 0070 00       		.byte	0
 2768 0071 00       		.byte	0
 2769 0072 09       		.uleb128 0x9
 2770 0073 0F       		.uleb128 0xf
 2771 0074 00       		.byte	0
 2772 0075 0B       		.uleb128 0xb
 2773 0076 0B       		.uleb128 0xb
 2774 0077 49       		.uleb128 0x49
 2775 0078 13       		.uleb128 0x13
 2776 0079 00       		.byte	0
 2777 007a 00       		.byte	0
 2778 007b 0A       		.uleb128 0xa
 2779 007c 0F       		.uleb128 0xf
 2780 007d 00       		.byte	0
 2781 007e 0B       		.uleb128 0xb
 2782 007f 0B       		.uleb128 0xb
 2783 0080 00       		.byte	0
 2784 0081 00       		.byte	0
 2785 0082 0B       		.uleb128 0xb
 2786 0083 13       		.uleb128 0x13
 2787 0084 01       		.byte	0x1
ARM GAS  C:\Users\jenny\AppData\Local\Temp\ccjexqIY.s 			page 50


 2788 0085 03       		.uleb128 0x3
 2789 0086 0E       		.uleb128 0xe
 2790 0087 0B       		.uleb128 0xb
 2791 0088 0B       		.uleb128 0xb
 2792 0089 3A       		.uleb128 0x3a
 2793 008a 0B       		.uleb128 0xb
 2794 008b 3B       		.uleb128 0x3b
 2795 008c 05       		.uleb128 0x5
 2796 008d 01       		.uleb128 0x1
 2797 008e 13       		.uleb128 0x13
 2798 008f 00       		.byte	0
 2799 0090 00       		.byte	0
 2800 0091 0C       		.uleb128 0xc
 2801 0092 0D       		.uleb128 0xd
 2802 0093 00       		.byte	0
 2803 0094 03       		.uleb128 0x3
 2804 0095 08       		.uleb128 0x8
 2805 0096 3A       		.uleb128 0x3a
 2806 0097 0B       		.uleb128 0xb
 2807 0098 3B       		.uleb128 0x3b
 2808 0099 05       		.uleb128 0x5
 2809 009a 49       		.uleb128 0x49
 2810 009b 13       		.uleb128 0x13
 2811 009c 38       		.uleb128 0x38
 2812 009d 0A       		.uleb128 0xa
 2813 009e 00       		.byte	0
 2814 009f 00       		.byte	0
 2815 00a0 0D       		.uleb128 0xd
 2816 00a1 35       		.uleb128 0x35
 2817 00a2 00       		.byte	0
 2818 00a3 49       		.uleb128 0x49
 2819 00a4 13       		.uleb128 0x13
 2820 00a5 00       		.byte	0
 2821 00a6 00       		.byte	0
 2822 00a7 0E       		.uleb128 0xe
 2823 00a8 17       		.uleb128 0x17
 2824 00a9 01       		.byte	0x1
 2825 00aa 0B       		.uleb128 0xb
 2826 00ab 0B       		.uleb128 0xb
 2827 00ac 3A       		.uleb128 0x3a
 2828 00ad 0B       		.uleb128 0xb
 2829 00ae 3B       		.uleb128 0x3b
 2830 00af 0B       		.uleb128 0xb
 2831 00b0 01       		.uleb128 0x1
 2832 00b1 13       		.uleb128 0x13
 2833 00b2 00       		.byte	0
 2834 00b3 00       		.byte	0
 2835 00b4 0F       		.uleb128 0xf
 2836 00b5 0D       		.uleb128 0xd
 2837 00b6 00       		.byte	0
 2838 00b7 03       		.uleb128 0x3
 2839 00b8 0E       		.uleb128 0xe
 2840 00b9 3A       		.uleb128 0x3a
 2841 00ba 0B       		.uleb128 0xb
 2842 00bb 3B       		.uleb128 0x3b
 2843 00bc 0B       		.uleb128 0xb
 2844 00bd 49       		.uleb128 0x49
ARM GAS  C:\Users\jenny\AppData\Local\Temp\ccjexqIY.s 			page 51


 2845 00be 13       		.uleb128 0x13
 2846 00bf 00       		.byte	0
 2847 00c0 00       		.byte	0
 2848 00c1 10       		.uleb128 0x10
 2849 00c2 26       		.uleb128 0x26
 2850 00c3 00       		.byte	0
 2851 00c4 49       		.uleb128 0x49
 2852 00c5 13       		.uleb128 0x13
 2853 00c6 00       		.byte	0
 2854 00c7 00       		.byte	0
 2855 00c8 11       		.uleb128 0x11
 2856 00c9 04       		.uleb128 0x4
 2857 00ca 01       		.byte	0x1
 2858 00cb 0B       		.uleb128 0xb
 2859 00cc 0B       		.uleb128 0xb
 2860 00cd 3A       		.uleb128 0x3a
 2861 00ce 0B       		.uleb128 0xb
 2862 00cf 3B       		.uleb128 0x3b
 2863 00d0 0B       		.uleb128 0xb
 2864 00d1 01       		.uleb128 0x1
 2865 00d2 13       		.uleb128 0x13
 2866 00d3 00       		.byte	0
 2867 00d4 00       		.byte	0
 2868 00d5 12       		.uleb128 0x12
 2869 00d6 28       		.uleb128 0x28
 2870 00d7 00       		.byte	0
 2871 00d8 03       		.uleb128 0x3
 2872 00d9 0E       		.uleb128 0xe
 2873 00da 1C       		.uleb128 0x1c
 2874 00db 0D       		.uleb128 0xd
 2875 00dc 00       		.byte	0
 2876 00dd 00       		.byte	0
 2877 00de 13       		.uleb128 0x13
 2878 00df 13       		.uleb128 0x13
 2879 00e0 01       		.byte	0x1
 2880 00e1 03       		.uleb128 0x3
 2881 00e2 0E       		.uleb128 0xe
 2882 00e3 0B       		.uleb128 0xb
 2883 00e4 05       		.uleb128 0x5
 2884 00e5 3A       		.uleb128 0x3a
 2885 00e6 0B       		.uleb128 0xb
 2886 00e7 3B       		.uleb128 0x3b
 2887 00e8 0B       		.uleb128 0xb
 2888 00e9 01       		.uleb128 0x1
 2889 00ea 13       		.uleb128 0x13
 2890 00eb 00       		.byte	0
 2891 00ec 00       		.byte	0
 2892 00ed 14       		.uleb128 0x14
 2893 00ee 01       		.uleb128 0x1
 2894 00ef 01       		.byte	0x1
 2895 00f0 49       		.uleb128 0x49
 2896 00f1 13       		.uleb128 0x13
 2897 00f2 01       		.uleb128 0x1
 2898 00f3 13       		.uleb128 0x13
 2899 00f4 00       		.byte	0
 2900 00f5 00       		.byte	0
 2901 00f6 15       		.uleb128 0x15
ARM GAS  C:\Users\jenny\AppData\Local\Temp\ccjexqIY.s 			page 52


 2902 00f7 21       		.uleb128 0x21
 2903 00f8 00       		.byte	0
 2904 00f9 49       		.uleb128 0x49
 2905 00fa 13       		.uleb128 0x13
 2906 00fb 2F       		.uleb128 0x2f
 2907 00fc 0B       		.uleb128 0xb
 2908 00fd 00       		.byte	0
 2909 00fe 00       		.byte	0
 2910 00ff 16       		.uleb128 0x16
 2911 0100 13       		.uleb128 0x13
 2912 0101 01       		.byte	0x1
 2913 0102 03       		.uleb128 0x3
 2914 0103 08       		.uleb128 0x8
 2915 0104 0B       		.uleb128 0xb
 2916 0105 0B       		.uleb128 0xb
 2917 0106 3A       		.uleb128 0x3a
 2918 0107 0B       		.uleb128 0xb
 2919 0108 3B       		.uleb128 0x3b
 2920 0109 0B       		.uleb128 0xb
 2921 010a 01       		.uleb128 0x1
 2922 010b 13       		.uleb128 0x13
 2923 010c 00       		.byte	0
 2924 010d 00       		.byte	0
 2925 010e 17       		.uleb128 0x17
 2926 010f 2E       		.uleb128 0x2e
 2927 0110 01       		.byte	0x1
 2928 0111 3F       		.uleb128 0x3f
 2929 0112 0C       		.uleb128 0xc
 2930 0113 03       		.uleb128 0x3
 2931 0114 0E       		.uleb128 0xe
 2932 0115 3A       		.uleb128 0x3a
 2933 0116 0B       		.uleb128 0xb
 2934 0117 3B       		.uleb128 0x3b
 2935 0118 05       		.uleb128 0x5
 2936 0119 27       		.uleb128 0x27
 2937 011a 0C       		.uleb128 0xc
 2938 011b 11       		.uleb128 0x11
 2939 011c 01       		.uleb128 0x1
 2940 011d 12       		.uleb128 0x12
 2941 011e 01       		.uleb128 0x1
 2942 011f 40       		.uleb128 0x40
 2943 0120 06       		.uleb128 0x6
 2944 0121 9742     		.uleb128 0x2117
 2945 0123 0C       		.uleb128 0xc
 2946 0124 01       		.uleb128 0x1
 2947 0125 13       		.uleb128 0x13
 2948 0126 00       		.byte	0
 2949 0127 00       		.byte	0
 2950 0128 18       		.uleb128 0x18
 2951 0129 34       		.uleb128 0x34
 2952 012a 00       		.byte	0
 2953 012b 03       		.uleb128 0x3
 2954 012c 08       		.uleb128 0x8
 2955 012d 3A       		.uleb128 0x3a
 2956 012e 0B       		.uleb128 0xb
 2957 012f 3B       		.uleb128 0x3b
 2958 0130 05       		.uleb128 0x5
ARM GAS  C:\Users\jenny\AppData\Local\Temp\ccjexqIY.s 			page 53


 2959 0131 49       		.uleb128 0x49
 2960 0132 13       		.uleb128 0x13
 2961 0133 02       		.uleb128 0x2
 2962 0134 06       		.uleb128 0x6
 2963 0135 00       		.byte	0
 2964 0136 00       		.byte	0
 2965 0137 19       		.uleb128 0x19
 2966 0138 898201   		.uleb128 0x4109
 2967 013b 01       		.byte	0x1
 2968 013c 11       		.uleb128 0x11
 2969 013d 01       		.uleb128 0x1
 2970 013e 31       		.uleb128 0x31
 2971 013f 13       		.uleb128 0x13
 2972 0140 01       		.uleb128 0x1
 2973 0141 13       		.uleb128 0x13
 2974 0142 00       		.byte	0
 2975 0143 00       		.byte	0
 2976 0144 1A       		.uleb128 0x1a
 2977 0145 8A8201   		.uleb128 0x410a
 2978 0148 00       		.byte	0
 2979 0149 02       		.uleb128 0x2
 2980 014a 0A       		.uleb128 0xa
 2981 014b 9142     		.uleb128 0x2111
 2982 014d 0A       		.uleb128 0xa
 2983 014e 00       		.byte	0
 2984 014f 00       		.byte	0
 2985 0150 1B       		.uleb128 0x1b
 2986 0151 898201   		.uleb128 0x4109
 2987 0154 00       		.byte	0
 2988 0155 11       		.uleb128 0x11
 2989 0156 01       		.uleb128 0x1
 2990 0157 9542     		.uleb128 0x2115
 2991 0159 0C       		.uleb128 0xc
 2992 015a 31       		.uleb128 0x31
 2993 015b 13       		.uleb128 0x13
 2994 015c 00       		.byte	0
 2995 015d 00       		.byte	0
 2996 015e 1C       		.uleb128 0x1c
 2997 015f 2E       		.uleb128 0x2e
 2998 0160 01       		.byte	0x1
 2999 0161 03       		.uleb128 0x3
 3000 0162 0E       		.uleb128 0xe
 3001 0163 3A       		.uleb128 0x3a
 3002 0164 0B       		.uleb128 0xb
 3003 0165 3B       		.uleb128 0x3b
 3004 0166 0B       		.uleb128 0xb
 3005 0167 27       		.uleb128 0x27
 3006 0168 0C       		.uleb128 0xc
 3007 0169 20       		.uleb128 0x20
 3008 016a 0B       		.uleb128 0xb
 3009 016b 01       		.uleb128 0x1
 3010 016c 13       		.uleb128 0x13
 3011 016d 00       		.byte	0
 3012 016e 00       		.byte	0
 3013 016f 1D       		.uleb128 0x1d
 3014 0170 05       		.uleb128 0x5
 3015 0171 00       		.byte	0
ARM GAS  C:\Users\jenny\AppData\Local\Temp\ccjexqIY.s 			page 54


 3016 0172 03       		.uleb128 0x3
 3017 0173 08       		.uleb128 0x8
 3018 0174 3A       		.uleb128 0x3a
 3019 0175 0B       		.uleb128 0xb
 3020 0176 3B       		.uleb128 0x3b
 3021 0177 0B       		.uleb128 0xb
 3022 0178 49       		.uleb128 0x49
 3023 0179 13       		.uleb128 0x13
 3024 017a 00       		.byte	0
 3025 017b 00       		.byte	0
 3026 017c 1E       		.uleb128 0x1e
 3027 017d 34       		.uleb128 0x34
 3028 017e 00       		.byte	0
 3029 017f 03       		.uleb128 0x3
 3030 0180 0E       		.uleb128 0xe
 3031 0181 3A       		.uleb128 0x3a
 3032 0182 0B       		.uleb128 0xb
 3033 0183 3B       		.uleb128 0x3b
 3034 0184 0B       		.uleb128 0xb
 3035 0185 49       		.uleb128 0x49
 3036 0186 13       		.uleb128 0x13
 3037 0187 00       		.byte	0
 3038 0188 00       		.byte	0
 3039 0189 1F       		.uleb128 0x1f
 3040 018a 05       		.uleb128 0x5
 3041 018b 00       		.byte	0
 3042 018c 03       		.uleb128 0x3
 3043 018d 0E       		.uleb128 0xe
 3044 018e 3A       		.uleb128 0x3a
 3045 018f 0B       		.uleb128 0xb
 3046 0190 3B       		.uleb128 0x3b
 3047 0191 05       		.uleb128 0x5
 3048 0192 49       		.uleb128 0x49
 3049 0193 13       		.uleb128 0x13
 3050 0194 02       		.uleb128 0x2
 3051 0195 06       		.uleb128 0x6
 3052 0196 00       		.byte	0
 3053 0197 00       		.byte	0
 3054 0198 20       		.uleb128 0x20
 3055 0199 1D       		.uleb128 0x1d
 3056 019a 01       		.byte	0x1
 3057 019b 31       		.uleb128 0x31
 3058 019c 13       		.uleb128 0x13
 3059 019d 52       		.uleb128 0x52
 3060 019e 01       		.uleb128 0x1
 3061 019f 55       		.uleb128 0x55
 3062 01a0 06       		.uleb128 0x6
 3063 01a1 58       		.uleb128 0x58
 3064 01a2 0B       		.uleb128 0xb
 3065 01a3 59       		.uleb128 0x59
 3066 01a4 05       		.uleb128 0x5
 3067 01a5 01       		.uleb128 0x1
 3068 01a6 13       		.uleb128 0x13
 3069 01a7 00       		.byte	0
 3070 01a8 00       		.byte	0
 3071 01a9 21       		.uleb128 0x21
 3072 01aa 05       		.uleb128 0x5
ARM GAS  C:\Users\jenny\AppData\Local\Temp\ccjexqIY.s 			page 55


 3073 01ab 00       		.byte	0
 3074 01ac 31       		.uleb128 0x31
 3075 01ad 13       		.uleb128 0x13
 3076 01ae 02       		.uleb128 0x2
 3077 01af 06       		.uleb128 0x6
 3078 01b0 00       		.byte	0
 3079 01b1 00       		.byte	0
 3080 01b2 22       		.uleb128 0x22
 3081 01b3 0B       		.uleb128 0xb
 3082 01b4 01       		.byte	0x1
 3083 01b5 55       		.uleb128 0x55
 3084 01b6 06       		.uleb128 0x6
 3085 01b7 00       		.byte	0
 3086 01b8 00       		.byte	0
 3087 01b9 23       		.uleb128 0x23
 3088 01ba 34       		.uleb128 0x34
 3089 01bb 00       		.byte	0
 3090 01bc 31       		.uleb128 0x31
 3091 01bd 13       		.uleb128 0x13
 3092 01be 02       		.uleb128 0x2
 3093 01bf 06       		.uleb128 0x6
 3094 01c0 00       		.byte	0
 3095 01c1 00       		.byte	0
 3096 01c2 24       		.uleb128 0x24
 3097 01c3 898201   		.uleb128 0x4109
 3098 01c6 00       		.byte	0
 3099 01c7 11       		.uleb128 0x11
 3100 01c8 01       		.uleb128 0x1
 3101 01c9 31       		.uleb128 0x31
 3102 01ca 13       		.uleb128 0x13
 3103 01cb 00       		.byte	0
 3104 01cc 00       		.byte	0
 3105 01cd 25       		.uleb128 0x25
 3106 01ce 898201   		.uleb128 0x4109
 3107 01d1 01       		.byte	0x1
 3108 01d2 11       		.uleb128 0x11
 3109 01d3 01       		.uleb128 0x1
 3110 01d4 9542     		.uleb128 0x2115
 3111 01d6 0C       		.uleb128 0xc
 3112 01d7 31       		.uleb128 0x31
 3113 01d8 13       		.uleb128 0x13
 3114 01d9 01       		.uleb128 0x1
 3115 01da 13       		.uleb128 0x13
 3116 01db 00       		.byte	0
 3117 01dc 00       		.byte	0
 3118 01dd 26       		.uleb128 0x26
 3119 01de 2E       		.uleb128 0x2e
 3120 01df 01       		.byte	0x1
 3121 01e0 3F       		.uleb128 0x3f
 3122 01e1 0C       		.uleb128 0xc
 3123 01e2 03       		.uleb128 0x3
 3124 01e3 0E       		.uleb128 0xe
 3125 01e4 3A       		.uleb128 0x3a
 3126 01e5 0B       		.uleb128 0xb
 3127 01e6 3B       		.uleb128 0x3b
 3128 01e7 05       		.uleb128 0x5
 3129 01e8 27       		.uleb128 0x27
ARM GAS  C:\Users\jenny\AppData\Local\Temp\ccjexqIY.s 			page 56


 3130 01e9 0C       		.uleb128 0xc
 3131 01ea 49       		.uleb128 0x49
 3132 01eb 13       		.uleb128 0x13
 3133 01ec 11       		.uleb128 0x11
 3134 01ed 01       		.uleb128 0x1
 3135 01ee 12       		.uleb128 0x12
 3136 01ef 01       		.uleb128 0x1
 3137 01f0 40       		.uleb128 0x40
 3138 01f1 06       		.uleb128 0x6
 3139 01f2 9742     		.uleb128 0x2117
 3140 01f4 0C       		.uleb128 0xc
 3141 01f5 01       		.uleb128 0x1
 3142 01f6 13       		.uleb128 0x13
 3143 01f7 00       		.byte	0
 3144 01f8 00       		.byte	0
 3145 01f9 27       		.uleb128 0x27
 3146 01fa 34       		.uleb128 0x34
 3147 01fb 00       		.byte	0
 3148 01fc 03       		.uleb128 0x3
 3149 01fd 0E       		.uleb128 0xe
 3150 01fe 3A       		.uleb128 0x3a
 3151 01ff 0B       		.uleb128 0xb
 3152 0200 3B       		.uleb128 0x3b
 3153 0201 05       		.uleb128 0x5
 3154 0202 49       		.uleb128 0x49
 3155 0203 13       		.uleb128 0x13
 3156 0204 02       		.uleb128 0x2
 3157 0205 06       		.uleb128 0x6
 3158 0206 00       		.byte	0
 3159 0207 00       		.byte	0
 3160 0208 28       		.uleb128 0x28
 3161 0209 0B       		.uleb128 0xb
 3162 020a 01       		.byte	0x1
 3163 020b 11       		.uleb128 0x11
 3164 020c 01       		.uleb128 0x1
 3165 020d 12       		.uleb128 0x12
 3166 020e 01       		.uleb128 0x1
 3167 020f 01       		.uleb128 0x1
 3168 0210 13       		.uleb128 0x13
 3169 0211 00       		.byte	0
 3170 0212 00       		.byte	0
 3171 0213 29       		.uleb128 0x29
 3172 0214 898201   		.uleb128 0x4109
 3173 0217 01       		.byte	0x1
 3174 0218 11       		.uleb128 0x11
 3175 0219 01       		.uleb128 0x1
 3176 021a 31       		.uleb128 0x31
 3177 021b 13       		.uleb128 0x13
 3178 021c 00       		.byte	0
 3179 021d 00       		.byte	0
 3180 021e 2A       		.uleb128 0x2a
 3181 021f 34       		.uleb128 0x34
 3182 0220 00       		.byte	0
 3183 0221 03       		.uleb128 0x3
 3184 0222 08       		.uleb128 0x8
 3185 0223 3A       		.uleb128 0x3a
 3186 0224 0B       		.uleb128 0xb
ARM GAS  C:\Users\jenny\AppData\Local\Temp\ccjexqIY.s 			page 57


 3187 0225 3B       		.uleb128 0x3b
 3188 0226 0B       		.uleb128 0xb
 3189 0227 49       		.uleb128 0x49
 3190 0228 13       		.uleb128 0x13
 3191 0229 02       		.uleb128 0x2
 3192 022a 0A       		.uleb128 0xa
 3193 022b 00       		.byte	0
 3194 022c 00       		.byte	0
 3195 022d 2B       		.uleb128 0x2b
 3196 022e 34       		.uleb128 0x34
 3197 022f 00       		.byte	0
 3198 0230 03       		.uleb128 0x3
 3199 0231 0E       		.uleb128 0xe
 3200 0232 3A       		.uleb128 0x3a
 3201 0233 0B       		.uleb128 0xb
 3202 0234 3B       		.uleb128 0x3b
 3203 0235 0B       		.uleb128 0xb
 3204 0236 49       		.uleb128 0x49
 3205 0237 13       		.uleb128 0x13
 3206 0238 02       		.uleb128 0x2
 3207 0239 0A       		.uleb128 0xa
 3208 023a 00       		.byte	0
 3209 023b 00       		.byte	0
 3210 023c 2C       		.uleb128 0x2c
 3211 023d 34       		.uleb128 0x34
 3212 023e 00       		.byte	0
 3213 023f 03       		.uleb128 0x3
 3214 0240 0E       		.uleb128 0xe
 3215 0241 3A       		.uleb128 0x3a
 3216 0242 0B       		.uleb128 0xb
 3217 0243 3B       		.uleb128 0x3b
 3218 0244 0B       		.uleb128 0xb
 3219 0245 49       		.uleb128 0x49
 3220 0246 13       		.uleb128 0x13
 3221 0247 3F       		.uleb128 0x3f
 3222 0248 0C       		.uleb128 0xc
 3223 0249 3C       		.uleb128 0x3c
 3224 024a 0C       		.uleb128 0xc
 3225 024b 00       		.byte	0
 3226 024c 00       		.byte	0
 3227 024d 2D       		.uleb128 0x2d
 3228 024e 21       		.uleb128 0x21
 3229 024f 00       		.byte	0
 3230 0250 49       		.uleb128 0x49
 3231 0251 13       		.uleb128 0x13
 3232 0252 2F       		.uleb128 0x2f
 3233 0253 05       		.uleb128 0x5
 3234 0254 00       		.byte	0
 3235 0255 00       		.byte	0
 3236 0256 2E       		.uleb128 0x2e
 3237 0257 34       		.uleb128 0x34
 3238 0258 00       		.byte	0
 3239 0259 03       		.uleb128 0x3
 3240 025a 0E       		.uleb128 0xe
 3241 025b 3A       		.uleb128 0x3a
 3242 025c 0B       		.uleb128 0xb
 3243 025d 3B       		.uleb128 0x3b
ARM GAS  C:\Users\jenny\AppData\Local\Temp\ccjexqIY.s 			page 58


 3244 025e 0B       		.uleb128 0xb
 3245 025f 49       		.uleb128 0x49
 3246 0260 13       		.uleb128 0x13
 3247 0261 3F       		.uleb128 0x3f
 3248 0262 0C       		.uleb128 0xc
 3249 0263 02       		.uleb128 0x2
 3250 0264 0A       		.uleb128 0xa
 3251 0265 00       		.byte	0
 3252 0266 00       		.byte	0
 3253 0267 2F       		.uleb128 0x2f
 3254 0268 2E       		.uleb128 0x2e
 3255 0269 01       		.byte	0x1
 3256 026a 3F       		.uleb128 0x3f
 3257 026b 0C       		.uleb128 0xc
 3258 026c 03       		.uleb128 0x3
 3259 026d 0E       		.uleb128 0xe
 3260 026e 3A       		.uleb128 0x3a
 3261 026f 0B       		.uleb128 0xb
 3262 0270 3B       		.uleb128 0x3b
 3263 0271 0B       		.uleb128 0xb
 3264 0272 27       		.uleb128 0x27
 3265 0273 0C       		.uleb128 0xc
 3266 0274 49       		.uleb128 0x49
 3267 0275 13       		.uleb128 0x13
 3268 0276 3C       		.uleb128 0x3c
 3269 0277 0C       		.uleb128 0xc
 3270 0278 01       		.uleb128 0x1
 3271 0279 13       		.uleb128 0x13
 3272 027a 00       		.byte	0
 3273 027b 00       		.byte	0
 3274 027c 30       		.uleb128 0x30
 3275 027d 05       		.uleb128 0x5
 3276 027e 00       		.byte	0
 3277 027f 49       		.uleb128 0x49
 3278 0280 13       		.uleb128 0x13
 3279 0281 00       		.byte	0
 3280 0282 00       		.byte	0
 3281 0283 31       		.uleb128 0x31
 3282 0284 2E       		.uleb128 0x2e
 3283 0285 00       		.byte	0
 3284 0286 3F       		.uleb128 0x3f
 3285 0287 0C       		.uleb128 0xc
 3286 0288 03       		.uleb128 0x3
 3287 0289 0E       		.uleb128 0xe
 3288 028a 3A       		.uleb128 0x3a
 3289 028b 0B       		.uleb128 0xb
 3290 028c 3B       		.uleb128 0x3b
 3291 028d 05       		.uleb128 0x5
 3292 028e 27       		.uleb128 0x27
 3293 028f 0C       		.uleb128 0xc
 3294 0290 3C       		.uleb128 0x3c
 3295 0291 0C       		.uleb128 0xc
 3296 0292 00       		.byte	0
 3297 0293 00       		.byte	0
 3298 0294 32       		.uleb128 0x32
 3299 0295 2E       		.uleb128 0x2e
 3300 0296 01       		.byte	0x1
ARM GAS  C:\Users\jenny\AppData\Local\Temp\ccjexqIY.s 			page 59


 3301 0297 3F       		.uleb128 0x3f
 3302 0298 0C       		.uleb128 0xc
 3303 0299 03       		.uleb128 0x3
 3304 029a 0E       		.uleb128 0xe
 3305 029b 3A       		.uleb128 0x3a
 3306 029c 0B       		.uleb128 0xb
 3307 029d 3B       		.uleb128 0x3b
 3308 029e 0B       		.uleb128 0xb
 3309 029f 27       		.uleb128 0x27
 3310 02a0 0C       		.uleb128 0xc
 3311 02a1 3C       		.uleb128 0x3c
 3312 02a2 0C       		.uleb128 0xc
 3313 02a3 01       		.uleb128 0x1
 3314 02a4 13       		.uleb128 0x13
 3315 02a5 00       		.byte	0
 3316 02a6 00       		.byte	0
 3317 02a7 33       		.uleb128 0x33
 3318 02a8 2E       		.uleb128 0x2e
 3319 02a9 01       		.byte	0x1
 3320 02aa 3F       		.uleb128 0x3f
 3321 02ab 0C       		.uleb128 0xc
 3322 02ac 03       		.uleb128 0x3
 3323 02ad 0E       		.uleb128 0xe
 3324 02ae 27       		.uleb128 0x27
 3325 02af 0C       		.uleb128 0xc
 3326 02b0 49       		.uleb128 0x49
 3327 02b1 13       		.uleb128 0x13
 3328 02b2 34       		.uleb128 0x34
 3329 02b3 0C       		.uleb128 0xc
 3330 02b4 3C       		.uleb128 0x3c
 3331 02b5 0C       		.uleb128 0xc
 3332 02b6 00       		.byte	0
 3333 02b7 00       		.byte	0
 3334 02b8 00       		.byte	0
 3335              		.section	.debug_loc,"",%progbits
 3336              	.Ldebug_loc0:
 3337              	.LLST0:
 3338 0000 00000000 		.4byte	.LFB8
 3339 0004 02000000 		.4byte	.LCFI0
 3340 0008 0200     		.2byte	0x2
 3341 000a 7D       		.byte	0x7d
 3342 000b 00       		.sleb128 0
 3343 000c 02000000 		.4byte	.LCFI0
 3344 0010 68000000 		.4byte	.LFE8
 3345 0014 0200     		.2byte	0x2
 3346 0016 7D       		.byte	0x7d
 3347 0017 18       		.sleb128 24
 3348 0018 00000000 		.4byte	0
 3349 001c 00000000 		.4byte	0
 3350              	.LLST1:
 3351 0020 1C000000 		.4byte	.LVL0
 3352 0024 3A000000 		.4byte	.LVL1
 3353 0028 0100     		.2byte	0x1
 3354 002a 53       		.byte	0x53
 3355 002b 3A000000 		.4byte	.LVL1
 3356 002f 43000000 		.4byte	.LVL2-1
 3357 0033 0500     		.2byte	0x5
ARM GAS  C:\Users\jenny\AppData\Local\Temp\ccjexqIY.s 			page 60


 3358 0035 03       		.byte	0x3
 3359 0036 00000000 		.4byte	ram
 3360 003a 43000000 		.4byte	.LVL2-1
 3361 003e 68000000 		.4byte	.LFE8
 3362 0042 0400     		.2byte	0x4
 3363 0044 76       		.byte	0x76
 3364 0045 C073     		.sleb128 -1600
 3365 0047 9F       		.byte	0x9f
 3366 0048 00000000 		.4byte	0
 3367 004c 00000000 		.4byte	0
 3368              	.LLST2:
 3369 0050 00000000 		.4byte	.LFB9
 3370 0054 04000000 		.4byte	.LCFI1
 3371 0058 0200     		.2byte	0x2
 3372 005a 7D       		.byte	0x7d
 3373 005b 00       		.sleb128 0
 3374 005c 04000000 		.4byte	.LCFI1
 3375 0060 40010000 		.4byte	.LFE9
 3376 0064 0200     		.2byte	0x2
 3377 0066 7D       		.byte	0x7d
 3378 0067 18       		.sleb128 24
 3379 0068 00000000 		.4byte	0
 3380 006c 00000000 		.4byte	0
 3381              	.LLST3:
 3382 0070 00000000 		.4byte	.LVL4
 3383 0074 0C000000 		.4byte	.LVL5
 3384 0078 0100     		.2byte	0x1
 3385 007a 50       		.byte	0x50
 3386 007b 0C000000 		.4byte	.LVL5
 3387 007f 36000000 		.4byte	.LVL7
 3388 0083 0100     		.2byte	0x1
 3389 0085 54       		.byte	0x54
 3390 0086 36000000 		.4byte	.LVL7
 3391 008a 3A000000 		.4byte	.LVL8
 3392 008e 0100     		.2byte	0x1
 3393 0090 50       		.byte	0x50
 3394 0091 3A000000 		.4byte	.LVL8
 3395 0095 02010000 		.4byte	.LVL15
 3396 0099 0100     		.2byte	0x1
 3397 009b 54       		.byte	0x54
 3398 009c 02010000 		.4byte	.LVL15
 3399 00a0 05010000 		.4byte	.LVL16-1
 3400 00a4 0100     		.2byte	0x1
 3401 00a6 50       		.byte	0x50
 3402 00a7 05010000 		.4byte	.LVL16-1
 3403 00ab 40010000 		.4byte	.LFE9
 3404 00af 0100     		.2byte	0x1
 3405 00b1 54       		.byte	0x54
 3406 00b2 00000000 		.4byte	0
 3407 00b6 00000000 		.4byte	0
 3408              	.LLST4:
 3409 00ba 52000000 		.4byte	.LVL10
 3410 00be 02010000 		.4byte	.LVL15
 3411 00c2 0100     		.2byte	0x1
 3412 00c4 57       		.byte	0x57
 3413 00c5 08010000 		.4byte	.LVL17
 3414 00c9 40010000 		.4byte	.LFE9
ARM GAS  C:\Users\jenny\AppData\Local\Temp\ccjexqIY.s 			page 61


 3415 00cd 0100     		.2byte	0x1
 3416 00cf 57       		.byte	0x57
 3417 00d0 00000000 		.4byte	0
 3418 00d4 00000000 		.4byte	0
 3419              	.LLST5:
 3420 00d8 84000000 		.4byte	.LVL11
 3421 00dc 02010000 		.4byte	.LVL15
 3422 00e0 0100     		.2byte	0x1
 3423 00e2 57       		.byte	0x57
 3424 00e3 08010000 		.4byte	.LVL17
 3425 00e7 24010000 		.4byte	.LVL22
 3426 00eb 0100     		.2byte	0x1
 3427 00ed 57       		.byte	0x57
 3428 00ee 00000000 		.4byte	0
 3429 00f2 00000000 		.4byte	0
 3430              	.LLST6:
 3431 00f6 A2000000 		.4byte	.LVL12
 3432 00fa BE000000 		.4byte	.LVL13
 3433 00fe 0100     		.2byte	0x1
 3434 0100 52       		.byte	0x52
 3435 0101 00000000 		.4byte	0
 3436 0105 00000000 		.4byte	0
 3437              	.LLST7:
 3438 0109 D4000000 		.4byte	.LVL14
 3439 010d 01010000 		.4byte	.LVL15-1
 3440 0111 0100     		.2byte	0x1
 3441 0113 52       		.byte	0x52
 3442 0114 00000000 		.4byte	0
 3443 0118 00000000 		.4byte	0
 3444              	.LLST8:
 3445 011c 00000000 		.4byte	.LFB10
 3446 0120 04000000 		.4byte	.LCFI2
 3447 0124 0200     		.2byte	0x2
 3448 0126 7D       		.byte	0x7d
 3449 0127 00       		.sleb128 0
 3450 0128 04000000 		.4byte	.LCFI2
 3451 012c 40010000 		.4byte	.LFE10
 3452 0130 0200     		.2byte	0x2
 3453 0132 7D       		.byte	0x7d
 3454 0133 18       		.sleb128 24
 3455 0134 00000000 		.4byte	0
 3456 0138 00000000 		.4byte	0
 3457              	.LLST9:
 3458 013c 00000000 		.4byte	.LVL24
 3459 0140 24000000 		.4byte	.LVL28
 3460 0144 0100     		.2byte	0x1
 3461 0146 50       		.byte	0x50
 3462 0147 24000000 		.4byte	.LVL28
 3463 014b C4000000 		.4byte	.LVL46
 3464 014f 0100     		.2byte	0x1
 3465 0151 54       		.byte	0x54
 3466 0152 C4000000 		.4byte	.LVL46
 3467 0156 CA000000 		.4byte	.LVL47
 3468 015a 0400     		.2byte	0x4
 3469 015c F3       		.byte	0xf3
 3470 015d 01       		.uleb128 0x1
 3471 015e 50       		.byte	0x50
ARM GAS  C:\Users\jenny\AppData\Local\Temp\ccjexqIY.s 			page 62


 3472 015f 9F       		.byte	0x9f
 3473 0160 CA000000 		.4byte	.LVL47
 3474 0164 CE000000 		.4byte	.LVL49
 3475 0168 0100     		.2byte	0x1
 3476 016a 50       		.byte	0x50
 3477 016b CE000000 		.4byte	.LVL49
 3478 016f D8000000 		.4byte	.LVL50
 3479 0173 0100     		.2byte	0x1
 3480 0175 54       		.byte	0x54
 3481 0176 D8000000 		.4byte	.LVL50
 3482 017a DC000000 		.4byte	.LVL51
 3483 017e 0100     		.2byte	0x1
 3484 0180 50       		.byte	0x50
 3485 0181 DC000000 		.4byte	.LVL51
 3486 0185 E0000000 		.4byte	.LVL52
 3487 0189 0400     		.2byte	0x4
 3488 018b F3       		.byte	0xf3
 3489 018c 01       		.uleb128 0x1
 3490 018d 50       		.byte	0x50
 3491 018e 9F       		.byte	0x9f
 3492 018f E0000000 		.4byte	.LVL52
 3493 0193 E6000000 		.4byte	.LVL54
 3494 0197 0100     		.2byte	0x1
 3495 0199 54       		.byte	0x54
 3496 019a E6000000 		.4byte	.LVL54
 3497 019e E8000000 		.4byte	.LVL55
 3498 01a2 0400     		.2byte	0x4
 3499 01a4 F3       		.byte	0xf3
 3500 01a5 01       		.uleb128 0x1
 3501 01a6 50       		.byte	0x50
 3502 01a7 9F       		.byte	0x9f
 3503 01a8 E8000000 		.4byte	.LVL55
 3504 01ac 40010000 		.4byte	.LFE10
 3505 01b0 0100     		.2byte	0x1
 3506 01b2 54       		.byte	0x54
 3507 01b3 00000000 		.4byte	0
 3508 01b7 00000000 		.4byte	0
 3509              	.LLST10:
 3510 01bb 00000000 		.4byte	.LVL24
 3511 01bf 06000000 		.4byte	.LVL25
 3512 01c3 0100     		.2byte	0x1
 3513 01c5 51       		.byte	0x51
 3514 01c6 06000000 		.4byte	.LVL25
 3515 01ca 0C000000 		.4byte	.LVL26
 3516 01ce 0400     		.2byte	0x4
 3517 01d0 F3       		.byte	0xf3
 3518 01d1 01       		.uleb128 0x1
 3519 01d2 51       		.byte	0x51
 3520 01d3 9F       		.byte	0x9f
 3521 01d4 0C000000 		.4byte	.LVL26
 3522 01d8 18000000 		.4byte	.LVL27
 3523 01dc 0100     		.2byte	0x1
 3524 01de 55       		.byte	0x55
 3525 01df 18000000 		.4byte	.LVL27
 3526 01e3 28000000 		.4byte	.LVL29
 3527 01e7 0700     		.2byte	0x7
 3528 01e9 71       		.byte	0x71
ARM GAS  C:\Users\jenny\AppData\Local\Temp\ccjexqIY.s 			page 63


 3529 01ea 00       		.sleb128 0
 3530 01eb 0A       		.byte	0xa
 3531 01ec FCFF     		.2byte	0xfffc
 3532 01ee 1A       		.byte	0x1a
 3533 01ef 9F       		.byte	0x9f
 3534 01f0 AE000000 		.4byte	.LVL44
 3535 01f4 B1000000 		.4byte	.LVL45-1
 3536 01f8 0700     		.2byte	0x7
 3537 01fa 71       		.byte	0x71
 3538 01fb 00       		.sleb128 0
 3539 01fc 0A       		.byte	0xa
 3540 01fd FCFF     		.2byte	0xfffc
 3541 01ff 1A       		.byte	0x1a
 3542 0200 9F       		.byte	0x9f
 3543 0201 CA000000 		.4byte	.LVL47
 3544 0205 CC000000 		.4byte	.LVL48
 3545 0209 0100     		.2byte	0x1
 3546 020b 55       		.byte	0x55
 3547 020c CC000000 		.4byte	.LVL48
 3548 0210 CE000000 		.4byte	.LVL49
 3549 0214 0700     		.2byte	0x7
 3550 0216 71       		.byte	0x71
 3551 0217 00       		.sleb128 0
 3552 0218 0A       		.byte	0xa
 3553 0219 FCFF     		.2byte	0xfffc
 3554 021b 1A       		.byte	0x1a
 3555 021c 9F       		.byte	0x9f
 3556 021d D8000000 		.4byte	.LVL50
 3557 0221 E0000000 		.4byte	.LVL52
 3558 0225 0100     		.2byte	0x1
 3559 0227 55       		.byte	0x55
 3560 0228 00000000 		.4byte	0
 3561 022c 00000000 		.4byte	0
 3562              	.LLST11:
 3563 0230 40000000 		.4byte	.LVL32
 3564 0234 4F000000 		.4byte	.LVL34-1
 3565 0238 0100     		.2byte	0x1
 3566 023a 53       		.byte	0x53
 3567 023b 4F000000 		.4byte	.LVL34-1
 3568 023f 9E000000 		.4byte	.LVL42
 3569 0243 0100     		.2byte	0x1
 3570 0245 57       		.byte	0x57
 3571 0246 E0000000 		.4byte	.LVL52
 3572 024a E3000000 		.4byte	.LVL53-1
 3573 024e 0100     		.2byte	0x1
 3574 0250 53       		.byte	0x53
 3575 0251 E3000000 		.4byte	.LVL53-1
 3576 0255 40010000 		.4byte	.LFE10
 3577 0259 0100     		.2byte	0x1
 3578 025b 57       		.byte	0x57
 3579 025c 00000000 		.4byte	0
 3580 0260 00000000 		.4byte	0
 3581              	.LLST12:
 3582 0264 3A000000 		.4byte	.LVL31
 3583 0268 4C000000 		.4byte	.LVL33
 3584 026c 0100     		.2byte	0x1
 3585 026e 50       		.byte	0x50
ARM GAS  C:\Users\jenny\AppData\Local\Temp\ccjexqIY.s 			page 64


 3586 026f 4C000000 		.4byte	.LVL33
 3587 0273 AE000000 		.4byte	.LVL44
 3588 0277 0100     		.2byte	0x1
 3589 0279 58       		.byte	0x58
 3590 027a E0000000 		.4byte	.LVL52
 3591 027e E3000000 		.4byte	.LVL53-1
 3592 0282 0100     		.2byte	0x1
 3593 0284 50       		.byte	0x50
 3594 0285 E3000000 		.4byte	.LVL53-1
 3595 0289 40010000 		.4byte	.LFE10
 3596 028d 0100     		.2byte	0x1
 3597 028f 58       		.byte	0x58
 3598 0290 00000000 		.4byte	0
 3599 0294 00000000 		.4byte	0
 3600              	.LLST13:
 3601 0298 6E000000 		.4byte	.LVL37
 3602 029c 94000000 		.4byte	.LVL41
 3603 02a0 0100     		.2byte	0x1
 3604 02a2 50       		.byte	0x50
 3605 02a3 FA000000 		.4byte	.LVL57
 3606 02a7 04010000 		.4byte	.LVL58
 3607 02ab 0100     		.2byte	0x1
 3608 02ad 50       		.byte	0x50
 3609 02ae 04010000 		.4byte	.LVL58
 3610 02b2 40010000 		.4byte	.LFE10
 3611 02b6 0100     		.2byte	0x1
 3612 02b8 51       		.byte	0x51
 3613 02b9 00000000 		.4byte	0
 3614 02bd 00000000 		.4byte	0
 3615              	.LLST14:
 3616 02c1 28000000 		.4byte	.LVL29
 3617 02c5 2C000000 		.4byte	.LVL30
 3618 02c9 0300     		.2byte	0x3
 3619 02cb 74       		.byte	0x74
 3620 02cc 78       		.sleb128 -8
 3621 02cd 9F       		.byte	0x9f
 3622 02ce 2C000000 		.4byte	.LVL30
 3623 02d2 3A000000 		.4byte	.LVL31
 3624 02d6 0100     		.2byte	0x1
 3625 02d8 58       		.byte	0x58
 3626 02d9 3A000000 		.4byte	.LVL31
 3627 02dd AE000000 		.4byte	.LVL44
 3628 02e1 0300     		.2byte	0x3
 3629 02e3 74       		.byte	0x74
 3630 02e4 78       		.sleb128 -8
 3631 02e5 9F       		.byte	0x9f
 3632 02e6 E0000000 		.4byte	.LVL52
 3633 02ea E6000000 		.4byte	.LVL54
 3634 02ee 0300     		.2byte	0x3
 3635 02f0 74       		.byte	0x74
 3636 02f1 78       		.sleb128 -8
 3637 02f2 9F       		.byte	0x9f
 3638 02f3 E6000000 		.4byte	.LVL54
 3639 02f7 E8000000 		.4byte	.LVL55
 3640 02fb 0600     		.2byte	0x6
 3641 02fd F3       		.byte	0xf3
 3642 02fe 01       		.uleb128 0x1
ARM GAS  C:\Users\jenny\AppData\Local\Temp\ccjexqIY.s 			page 65


 3643 02ff 50       		.byte	0x50
 3644 0300 38       		.byte	0x38
 3645 0301 1C       		.byte	0x1c
 3646 0302 9F       		.byte	0x9f
 3647 0303 E8000000 		.4byte	.LVL55
 3648 0307 40010000 		.4byte	.LFE10
 3649 030b 0300     		.2byte	0x3
 3650 030d 74       		.byte	0x74
 3651 030e 78       		.sleb128 -8
 3652 030f 9F       		.byte	0x9f
 3653 0310 00000000 		.4byte	0
 3654 0314 00000000 		.4byte	0
 3655              	.LLST15:
 3656 0318 58000000 		.4byte	.LVL35
 3657 031c 78000000 		.4byte	.LVL38
 3658 0320 0100     		.2byte	0x1
 3659 0322 51       		.byte	0x51
 3660 0323 78000000 		.4byte	.LVL38
 3661 0327 94000000 		.4byte	.LVL41
 3662 032b 0100     		.2byte	0x1
 3663 032d 52       		.byte	0x52
 3664 032e E8000000 		.4byte	.LVL55
 3665 0332 EC000000 		.4byte	.LVL56
 3666 0336 0100     		.2byte	0x1
 3667 0338 51       		.byte	0x51
 3668 0339 EC000000 		.4byte	.LVL56
 3669 033d 0A010000 		.4byte	.LVL59
 3670 0341 0600     		.2byte	0x6
 3671 0343 73       		.byte	0x73
 3672 0344 00       		.sleb128 0
 3673 0345 72       		.byte	0x72
 3674 0346 00       		.sleb128 0
 3675 0347 22       		.byte	0x22
 3676 0348 9F       		.byte	0x9f
 3677 0349 0A010000 		.4byte	.LVL59
 3678 034d 40010000 		.4byte	.LFE10
 3679 0351 0100     		.2byte	0x1
 3680 0353 56       		.byte	0x56
 3681 0354 00000000 		.4byte	0
 3682 0358 00000000 		.4byte	0
 3683              	.LLST16:
 3684 035c 64000000 		.4byte	.LVL36
 3685 0360 82000000 		.4byte	.LVL39
 3686 0364 0200     		.2byte	0x2
 3687 0366 71       		.byte	0x71
 3688 0367 00       		.sleb128 0
 3689 0368 82000000 		.4byte	.LVL39
 3690 036c 92000000 		.4byte	.LVL40
 3691 0370 0B00     		.2byte	0xb
 3692 0372 74       		.byte	0x74
 3693 0373 78       		.sleb128 -8
 3694 0374 94       		.byte	0x94
 3695 0375 02       		.byte	0x2
 3696 0376 0A       		.byte	0xa
 3697 0377 FFFF     		.2byte	0xffff
 3698 0379 1A       		.byte	0x1a
 3699 037a 73       		.byte	0x73
ARM GAS  C:\Users\jenny\AppData\Local\Temp\ccjexqIY.s 			page 66


 3700 037b 00       		.sleb128 0
 3701 037c 22       		.byte	0x22
 3702 037d 92000000 		.4byte	.LVL40
 3703 0381 94000000 		.4byte	.LVL41
 3704 0385 0F00     		.2byte	0xf
 3705 0387 74       		.byte	0x74
 3706 0388 78       		.sleb128 -8
 3707 0389 94       		.byte	0x94
 3708 038a 02       		.byte	0x2
 3709 038b 0A       		.byte	0xa
 3710 038c FFFF     		.2byte	0xffff
 3711 038e 1A       		.byte	0x1a
 3712 038f 03       		.byte	0x3
 3713 0390 00000000 		.4byte	ram
 3714 0394 06       		.byte	0x6
 3715 0395 22       		.byte	0x22
 3716 0396 00000000 		.4byte	0
 3717 039a 00000000 		.4byte	0
 3718              	.LLST17:
 3719 039e 00000000 		.4byte	.LFB11
 3720 03a2 04000000 		.4byte	.LCFI3
 3721 03a6 0200     		.2byte	0x2
 3722 03a8 7D       		.byte	0x7d
 3723 03a9 00       		.sleb128 0
 3724 03aa 04000000 		.4byte	.LCFI3
 3725 03ae 78010000 		.4byte	.LFE11
 3726 03b2 0200     		.2byte	0x2
 3727 03b4 7D       		.byte	0x7d
 3728 03b5 20       		.sleb128 32
 3729 03b6 00000000 		.4byte	0
 3730 03ba 00000000 		.4byte	0
 3731              	.LLST18:
 3732 03be 00000000 		.4byte	.LVL60
 3733 03c2 0A000000 		.4byte	.LVL61
 3734 03c6 0100     		.2byte	0x1
 3735 03c8 50       		.byte	0x50
 3736 03c9 0A000000 		.4byte	.LVL61
 3737 03cd 10000000 		.4byte	.LVL62
 3738 03d1 0400     		.2byte	0x4
 3739 03d3 F3       		.byte	0xf3
 3740 03d4 01       		.uleb128 0x1
 3741 03d5 50       		.byte	0x50
 3742 03d6 9F       		.byte	0x9f
 3743 03d7 10000000 		.4byte	.LVL62
 3744 03db 20000000 		.4byte	.LVL63
 3745 03df 0100     		.2byte	0x1
 3746 03e1 57       		.byte	0x57
 3747 03e2 20000000 		.4byte	.LVL63
 3748 03e6 24000000 		.4byte	.LVL64
 3749 03ea 0700     		.2byte	0x7
 3750 03ec 70       		.byte	0x70
 3751 03ed 00       		.sleb128 0
 3752 03ee 0A       		.byte	0xa
 3753 03ef FCFF     		.2byte	0xfffc
 3754 03f1 1A       		.byte	0x1a
 3755 03f2 9F       		.byte	0x9f
 3756 03f3 7E000000 		.4byte	.LVL74
ARM GAS  C:\Users\jenny\AppData\Local\Temp\ccjexqIY.s 			page 67


 3757 03f7 82000000 		.4byte	.LVL75
 3758 03fb 0100     		.2byte	0x1
 3759 03fd 50       		.byte	0x50
 3760 03fe 82000000 		.4byte	.LVL75
 3761 0402 88000000 		.4byte	.LVL76
 3762 0406 0100     		.2byte	0x1
 3763 0408 57       		.byte	0x57
 3764 0409 88000000 		.4byte	.LVL76
 3765 040d 8A000000 		.4byte	.LVL77
 3766 0411 0700     		.2byte	0x7
 3767 0413 70       		.byte	0x70
 3768 0414 00       		.sleb128 0
 3769 0415 0A       		.byte	0xa
 3770 0416 FCFF     		.2byte	0xfffc
 3771 0418 1A       		.byte	0x1a
 3772 0419 9F       		.byte	0x9f
 3773 041a 20010000 		.4byte	.LVL82
 3774 041e 26010000 		.4byte	.LVL83
 3775 0422 0100     		.2byte	0x1
 3776 0424 57       		.byte	0x57
 3777 0425 00000000 		.4byte	0
 3778 0429 00000000 		.4byte	0
 3779              	.LLST19:
 3780 042d 42000000 		.4byte	.LVL66
 3781 0431 46000000 		.4byte	.LVL67
 3782 0435 0100     		.2byte	0x1
 3783 0437 51       		.byte	0x51
 3784 0438 54000000 		.4byte	.LVL68
 3785 043c 58000000 		.4byte	.LVL69
 3786 0440 0100     		.2byte	0x1
 3787 0442 50       		.byte	0x50
 3788 0443 62000000 		.4byte	.LVL71
 3789 0447 66000000 		.4byte	.LVL72
 3790 044b 0200     		.2byte	0x2
 3791 044d 74       		.byte	0x74
 3792 044e 00       		.sleb128 0
 3793 044f 00000000 		.4byte	0
 3794 0453 00000000 		.4byte	0
 3795              	.LLST20:
 3796 0457 E0000000 		.4byte	.LVL79
 3797 045b 0C010000 		.4byte	.LVL81
 3798 045f 0100     		.2byte	0x1
 3799 0461 56       		.byte	0x56
 3800 0462 00000000 		.4byte	0
 3801 0466 00000000 		.4byte	0
 3802              	.LLST21:
 3803 046a 46000000 		.4byte	.LVL67
 3804 046e 58000000 		.4byte	.LVL69
 3805 0472 0100     		.2byte	0x1
 3806 0474 54       		.byte	0x54
 3807 0475 5A000000 		.4byte	.LVL70
 3808 0479 66000000 		.4byte	.LVL72
 3809 047d 0100     		.2byte	0x1
 3810 047f 54       		.byte	0x54
 3811 0480 8A000000 		.4byte	.LVL77
 3812 0484 20010000 		.4byte	.LVL82
 3813 0488 0100     		.2byte	0x1
ARM GAS  C:\Users\jenny\AppData\Local\Temp\ccjexqIY.s 			page 68


 3814 048a 54       		.byte	0x54
 3815 048b 26010000 		.4byte	.LVL83
 3816 048f 78010000 		.4byte	.LFE11
 3817 0493 0100     		.2byte	0x1
 3818 0495 54       		.byte	0x54
 3819 0496 00000000 		.4byte	0
 3820 049a 00000000 		.4byte	0
 3821              	.LLST22:
 3822 049e E4000000 		.4byte	.LVL80
 3823 04a2 20010000 		.4byte	.LVL82
 3824 04a6 0100     		.2byte	0x1
 3825 04a8 59       		.byte	0x59
 3826 04a9 00000000 		.4byte	0
 3827 04ad 00000000 		.4byte	0
 3828              	.LLST23:
 3829 04b1 36010000 		.4byte	.LVL87
 3830 04b5 52010000 		.4byte	.LVL88
 3831 04b9 0100     		.2byte	0x1
 3832 04bb 5E       		.byte	0x5e
 3833 04bc 54010000 		.4byte	.LVL89
 3834 04c0 78010000 		.4byte	.LFE11
 3835 04c4 0100     		.2byte	0x1
 3836 04c6 5E       		.byte	0x5e
 3837 04c7 00000000 		.4byte	0
 3838 04cb 00000000 		.4byte	0
 3839              	.LLST24:
 3840 04cf 00000000 		.4byte	.LFB12
 3841 04d3 02000000 		.4byte	.LCFI4
 3842 04d7 0200     		.2byte	0x2
 3843 04d9 7D       		.byte	0x7d
 3844 04da 00       		.sleb128 0
 3845 04db 02000000 		.4byte	.LCFI4
 3846 04df 1C000000 		.4byte	.LFE12
 3847 04e3 0200     		.2byte	0x2
 3848 04e5 7D       		.byte	0x7d
 3849 04e6 10       		.sleb128 16
 3850 04e7 00000000 		.4byte	0
 3851 04eb 00000000 		.4byte	0
 3852              	.LLST25:
 3853 04ef 00000000 		.4byte	.LVL90
 3854 04f3 08000000 		.4byte	.LVL91
 3855 04f7 0100     		.2byte	0x1
 3856 04f9 50       		.byte	0x50
 3857 04fa 08000000 		.4byte	.LVL91
 3858 04fe 1C000000 		.4byte	.LFE12
 3859 0502 0400     		.2byte	0x4
 3860 0504 F3       		.byte	0xf3
 3861 0505 01       		.uleb128 0x1
 3862 0506 50       		.byte	0x50
 3863 0507 9F       		.byte	0x9f
 3864 0508 00000000 		.4byte	0
 3865 050c 00000000 		.4byte	0
 3866              	.LLST26:
 3867 0510 00000000 		.4byte	.LVL90
 3868 0514 0B000000 		.4byte	.LVL92-1
 3869 0518 0100     		.2byte	0x1
 3870 051a 51       		.byte	0x51
ARM GAS  C:\Users\jenny\AppData\Local\Temp\ccjexqIY.s 			page 69


 3871 051b 0B000000 		.4byte	.LVL92-1
 3872 051f 1C000000 		.4byte	.LFE12
 3873 0523 0400     		.2byte	0x4
 3874 0525 F3       		.byte	0xf3
 3875 0526 01       		.uleb128 0x1
 3876 0527 51       		.byte	0x51
 3877 0528 9F       		.byte	0x9f
 3878 0529 00000000 		.4byte	0
 3879 052d 00000000 		.4byte	0
 3880              	.LLST27:
 3881 0531 0C000000 		.4byte	.LVL92
 3882 0535 17000000 		.4byte	.LVL93-1
 3883 0539 0100     		.2byte	0x1
 3884 053b 50       		.byte	0x50
 3885 053c 17000000 		.4byte	.LVL93-1
 3886 0540 1C000000 		.4byte	.LFE12
 3887 0544 0100     		.2byte	0x1
 3888 0546 55       		.byte	0x55
 3889 0547 00000000 		.4byte	0
 3890 054b 00000000 		.4byte	0
 3891              		.section	.debug_aranges,"",%progbits
 3892 0000 3C000000 		.4byte	0x3c
 3893 0004 0200     		.2byte	0x2
 3894 0006 00000000 		.4byte	.Ldebug_info0
 3895 000a 04       		.byte	0x4
 3896 000b 00       		.byte	0
 3897 000c 0000     		.2byte	0
 3898 000e 0000     		.2byte	0
 3899 0010 00000000 		.4byte	.LFB8
 3900 0014 68000000 		.4byte	.LFE8-.LFB8
 3901 0018 00000000 		.4byte	.LFB9
 3902 001c 40010000 		.4byte	.LFE9-.LFB9
 3903 0020 00000000 		.4byte	.LFB10
 3904 0024 40010000 		.4byte	.LFE10-.LFB10
 3905 0028 00000000 		.4byte	.LFB11
 3906 002c 78010000 		.4byte	.LFE11-.LFB11
 3907 0030 00000000 		.4byte	.LFB12
 3908 0034 1C000000 		.4byte	.LFE12-.LFB12
 3909 0038 00000000 		.4byte	0
 3910 003c 00000000 		.4byte	0
 3911              		.section	.debug_ranges,"",%progbits
 3912              	.Ldebug_ranges0:
 3913 0000 7E000000 		.4byte	.LBB4
 3914 0004 80000000 		.4byte	.LBE4
 3915 0008 84000000 		.4byte	.LBB8
 3916 000c F8000000 		.4byte	.LBE8
 3917 0010 08010000 		.4byte	.LBB9
 3918 0014 24010000 		.4byte	.LBE9
 3919 0018 00000000 		.4byte	0
 3920 001c 00000000 		.4byte	0
 3921 0020 7E000000 		.4byte	.LBB5
 3922 0024 80000000 		.4byte	.LBE5
 3923 0028 84000000 		.4byte	.LBB6
 3924 002c F8000000 		.4byte	.LBE6
 3925 0030 08010000 		.4byte	.LBB7
 3926 0034 24010000 		.4byte	.LBE7
 3927 0038 00000000 		.4byte	0
ARM GAS  C:\Users\jenny\AppData\Local\Temp\ccjexqIY.s 			page 70


 3928 003c 00000000 		.4byte	0
 3929 0040 00000000 		.4byte	.LFB8
 3930 0044 68000000 		.4byte	.LFE8
 3931 0048 00000000 		.4byte	.LFB9
 3932 004c 40010000 		.4byte	.LFE9
 3933 0050 00000000 		.4byte	.LFB10
 3934 0054 40010000 		.4byte	.LFE10
 3935 0058 00000000 		.4byte	.LFB11
 3936 005c 78010000 		.4byte	.LFE11
 3937 0060 00000000 		.4byte	.LFB12
 3938 0064 1C000000 		.4byte	.LFE12
 3939 0068 00000000 		.4byte	0
 3940 006c 00000000 		.4byte	0
 3941              		.section	.debug_line,"",%progbits
 3942              	.Ldebug_line0:
 3943 0000 94030000 		.section	.debug_str,"MS",%progbits,1
 3943      0200A001 
 3943      00000201 
 3943      FB0E0D00 
 3943      01010101 
 3944              	.LASF45:
 3945 0000 54687265 		.ascii	"ThreadsList\000"
 3945      6164734C 
 3945      69737400 
 3946              	.LASF37:
 3947 000c 705F7761 		.ascii	"p_waiting\000"
 3947      6974696E 
 3947      6700
 3948              	.LASF115:
 3949 0016 6D656D5F 		.ascii	"mem_free\000"
 3949      66726565 
 3949      00
 3950              	.LASF73:
 3951 001f 4D454D50 		.ascii	"MEMP_TCP_PCB_LISTEN\000"
 3951      5F544350 
 3951      5F504342 
 3951      5F4C4953 
 3951      54454E00 
 3952              	.LASF36:
 3953 0033 705F7469 		.ascii	"p_time\000"
 3953      6D6500
 3954              	.LASF46:
 3955 003a 72656761 		.ascii	"regarm_t\000"
 3955      726D5F74 
 3955      00
 3956              	.LASF27:
 3957 0043 705F7072 		.ascii	"p_prio\000"
 3957      696F00
 3958              	.LASF22:
 3959 004a 73797374 		.ascii	"systime_t\000"
 3959      696D655F 
 3959      7400
 3960              	.LASF55:
 3961 0054 6D5F6F77 		.ascii	"m_owner\000"
 3961      6E657200 
 3962              	.LASF51:
 3963 005c 735F7175 		.ascii	"s_queue\000"
ARM GAS  C:\Users\jenny\AppData\Local\Temp\ccjexqIY.s 			page 71


 3963      65756500 
 3964              	.LASF38:
 3965 0064 705F6D73 		.ascii	"p_msgqueue\000"
 3965      67717565 
 3965      756500
 3966              	.LASF0:
 3967 006f 756E7369 		.ascii	"unsigned int\000"
 3967      676E6564 
 3967      20696E74 
 3967      00
 3968              	.LASF110:
 3969 007c 6E657874 		.ascii	"next\000"
 3969      00
 3970              	.LASF68:
 3971 0081 6572725F 		.ascii	"err_t\000"
 3971      7400
 3972              	.LASF126:
 3973 0087 6C667265 		.ascii	"lfree\000"
 3973      6500
 3974              	.LASF64:
 3975 008d 7531365F 		.ascii	"u16_t\000"
 3975      7400
 3976              	.LASF59:
 3977 0093 77746F62 		.ascii	"wtobjp\000"
 3977      6A7000
 3978              	.LASF96:
 3979 009a 73746174 		.ascii	"stats_mem\000"
 3979      735F6D65 
 3979      6D00
 3980              	.LASF60:
 3981 00a4 65776D61 		.ascii	"ewmask\000"
 3981      736B00
 3982              	.LASF111:
 3983 00ab 70726576 		.ascii	"prev\000"
 3983      00
 3984              	.LASF83:
 3985 00b0 4D454D50 		.ascii	"MEMP_PBUF_POOL\000"
 3985      5F504255 
 3985      465F504F 
 3985      4F4C00
 3986              	.LASF113:
 3987 00bf 706D656D 		.ascii	"pmem\000"
 3987      00
 3988              	.LASF128:
 3989 00c4 6C776970 		.ascii	"lwip_stats\000"
 3989      5F737461 
 3989      747300
 3990              	.LASF52:
 3991 00cf 735F636E 		.ascii	"s_cnt\000"
 3991      7400
 3992              	.LASF100:
 3993 00d5 73746174 		.ascii	"stats_syselem\000"
 3993      735F7379 
 3993      73656C65 
 3993      6D00
 3994              	.LASF10:
 3995 00e3 75696E74 		.ascii	"uint32_t\000"
ARM GAS  C:\Users\jenny\AppData\Local\Temp\ccjexqIY.s 			page 72


 3995      33325F74 
 3995      00
 3996              	.LASF2:
 3997 00ec 696E7438 		.ascii	"int8_t\000"
 3997      5F7400
 3998              	.LASF116:
 3999 00f3 726D656D 		.ascii	"rmem\000"
 3999      00
 4000              	.LASF21:
 4001 00f8 6576656E 		.ascii	"eventmask_t\000"
 4001      746D6173 
 4001      6B5F7400 
 4002              	.LASF79:
 4003 0104 4D454D50 		.ascii	"MEMP_TCPIP_MSG_API\000"
 4003      5F544350 
 4003      49505F4D 
 4003      53475F41 
 4003      504900
 4004              	.LASF94:
 4005 0117 6F707465 		.ascii	"opterr\000"
 4005      727200
 4006              	.LASF102:
 4007 011e 6D757465 		.ascii	"mutex\000"
 4007      7800
 4008              	.LASF107:
 4009 0124 69705F66 		.ascii	"ip_frag\000"
 4009      72616700 
 4010              	.LASF19:
 4011 012c 74707269 		.ascii	"tprio_t\000"
 4011      6F5F7400 
 4012              	.LASF124:
 4013 0134 636F756E 		.ascii	"count\000"
 4013      7400
 4014              	.LASF99:
 4015 013a 696C6C65 		.ascii	"illegal\000"
 4015      67616C00 
 4016              	.LASF106:
 4017 0142 65746861 		.ascii	"etharp\000"
 4017      727000
 4018              	.LASF13:
 4019 0149 6C6F6E67 		.ascii	"long long unsigned int\000"
 4019      206C6F6E 
 4019      6720756E 
 4019      7369676E 
 4019      65642069 
 4020              	.LASF123:
 4021 0160 6D656D5F 		.ascii	"mem_calloc\000"
 4021      63616C6C 
 4021      6F6300
 4022              	.LASF23:
 4023 016b 636E745F 		.ascii	"cnt_t\000"
 4023      7400
 4024              	.LASF29:
 4025 0171 705F6E65 		.ascii	"p_newer\000"
 4025      77657200 
 4026              	.LASF137:
 4027 0179 7379735F 		.ascii	"sys_sem_signal\000"
ARM GAS  C:\Users\jenny\AppData\Local\Temp\ccjexqIY.s 			page 73


 4027      73656D5F 
 4027      7369676E 
 4027      616C00
 4028              	.LASF80:
 4029 0188 4D454D50 		.ascii	"MEMP_TCPIP_MSG_INPKT\000"
 4029      5F544350 
 4029      49505F4D 
 4029      53475F49 
 4029      4E504B54 
 4030              	.LASF98:
 4031 019d 75736564 		.ascii	"used\000"
 4031      00
 4032              	.LASF104:
 4033 01a2 73746174 		.ascii	"stats_\000"
 4033      735F00
 4034              	.LASF57:
 4035 01a9 7264796D 		.ascii	"rdymsg\000"
 4035      736700
 4036              	.LASF14:
 4037 01b0 5F426F6F 		.ascii	"_Bool\000"
 4037      6C00
 4038              	.LASF69:
 4039 01b6 7379735F 		.ascii	"sys_sem_t\000"
 4039      73656D5F 
 4039      7400
 4040              	.LASF84:
 4041 01c0 4D454D50 		.ascii	"MEMP_MAX\000"
 4041      5F4D4158 
 4041      00
 4042              	.LASF63:
 4043 01c9 73385F74 		.ascii	"s8_t\000"
 4043      00
 4044              	.LASF121:
 4045 01ce 6D656D5F 		.ascii	"mem_trim\000"
 4045      7472696D 
 4045      00
 4046              	.LASF134:
 4047 01d7 443A5C6A 		.ascii	"D:\\jenny\\dev\\probe\\chibios\\chibios.workspace\\"
 4047      656E6E79 
 4047      5C646576 
 4047      5C70726F 
 4047      62655C63 
 4048 0204 64656D6F 		.ascii	"demos\\ARMCM4-STM32F407-LWIP-FATFS-USB\000"
 4048      735C4152 
 4048      4D434D34 
 4048      2D53544D 
 4048      33324634 
 4049              	.LASF53:
 4050 022a 4D757465 		.ascii	"Mutex\000"
 4050      7800
 4051              	.LASF78:
 4052 0230 4D454D50 		.ascii	"MEMP_NETCONN\000"
 4052      5F4E4554 
 4052      434F4E4E 
 4052      00
 4053              	.LASF129:
 4054 023d 72616D5F 		.ascii	"ram_heap\000"
ARM GAS  C:\Users\jenny\AppData\Local\Temp\ccjexqIY.s 			page 74


 4054      68656170 
 4054      00
 4055              	.LASF31:
 4056 0246 705F6E61 		.ascii	"p_name\000"
 4056      6D6500
 4057              	.LASF82:
 4058 024d 4D454D50 		.ascii	"MEMP_PBUF\000"
 4058      5F504255 
 4058      4600
 4059              	.LASF44:
 4060 0257 54687265 		.ascii	"ThreadsQueue\000"
 4060      61647351 
 4060      75657565 
 4060      00
 4061              	.LASF61:
 4062 0264 63686172 		.ascii	"char\000"
 4062      00
 4063              	.LASF67:
 4064 0269 6D656D5F 		.ascii	"mem_size_t\000"
 4064      73697A65 
 4064      5F7400
 4065              	.LASF85:
 4066 0274 73746174 		.ascii	"stats_proto\000"
 4066      735F7072 
 4066      6F746F00 
 4067              	.LASF24:
 4068 0280 54687265 		.ascii	"Thread\000"
 4068      616400
 4069              	.LASF16:
 4070 0287 74737461 		.ascii	"tstate_t\000"
 4070      74655F74 
 4070      00
 4071              	.LASF114:
 4072 0290 6D656D5F 		.ascii	"mem_init\000"
 4072      696E6974 
 4072      00
 4073              	.LASF30:
 4074 0299 705F6F6C 		.ascii	"p_older\000"
 4074      64657200 
 4075              	.LASF32:
 4076 02a1 705F7374 		.ascii	"p_state\000"
 4076      61746500 
 4077              	.LASF3:
 4078 02a9 75696E74 		.ascii	"uint8_t\000"
 4078      385F7400 
 4079              	.LASF43:
 4080 02b1 705F6D70 		.ascii	"p_mpool\000"
 4080      6F6F6C00 
 4081              	.LASF41:
 4082 02b9 705F6D74 		.ascii	"p_mtxlist\000"
 4082      786C6973 
 4082      7400
 4083              	.LASF77:
 4084 02c3 4D454D50 		.ascii	"MEMP_NETBUF\000"
 4084      5F4E4554 
 4084      42554600 
 4085              	.LASF12:
ARM GAS  C:\Users\jenny\AppData\Local\Temp\ccjexqIY.s 			page 75


 4086 02cf 6C6F6E67 		.ascii	"long long int\000"
 4086      206C6F6E 
 4086      6720696E 
 4086      7400
 4087              	.LASF130:
 4088 02dd 7379735F 		.ascii	"sys_sem_new\000"
 4088      73656D5F 
 4088      6E657700 
 4089              	.LASF20:
 4090 02e9 6D73675F 		.ascii	"msg_t\000"
 4090      7400
 4091              	.LASF48:
 4092 02ef 636F6E74 		.ascii	"context\000"
 4092      65787400 
 4093              	.LASF109:
 4094 02f7 6D656D70 		.ascii	"memp\000"
 4094      00
 4095              	.LASF62:
 4096 02fc 75385F74 		.ascii	"u8_t\000"
 4096      00
 4097              	.LASF33:
 4098 0301 705F666C 		.ascii	"p_flags\000"
 4098      61677300 
 4099              	.LASF117:
 4100 0309 6E657773 		.ascii	"newsize\000"
 4100      697A6500 
 4101              	.LASF138:
 4102 0311 6D656D73 		.ascii	"memset\000"
 4102      657400
 4103              	.LASF133:
 4104 0318 2E2E2F2E 		.ascii	"../../ext/lwip/src/core/mem.c\000"
 4104      2E2F6578 
 4104      742F6C77 
 4104      69702F73 
 4104      72632F63 
 4105              	.LASF125:
 4106 0336 72616D5F 		.ascii	"ram_end\000"
 4106      656E6400 
 4107              	.LASF135:
 4108 033e 706C7567 		.ascii	"plug_holes\000"
 4108      5F686F6C 
 4108      657300
 4109              	.LASF127:
 4110 0349 6D656D5F 		.ascii	"mem_mutex\000"
 4110      6D757465 
 4110      7800
 4111              	.LASF118:
 4112 0353 73697A65 		.ascii	"size\000"
 4112      00
 4113              	.LASF89:
 4114 0358 63686B65 		.ascii	"chkerr\000"
 4114      727200
 4115              	.LASF18:
 4116 035f 74736C69 		.ascii	"tslices_t\000"
 4116      6365735F 
 4116      7400
 4117              	.LASF75:
ARM GAS  C:\Users\jenny\AppData\Local\Temp\ccjexqIY.s 			page 76


 4118 0369 4D454D50 		.ascii	"MEMP_REASSDATA\000"
 4118      5F524541 
 4118      53534441 
 4118      544100
 4119              	.LASF91:
 4120 0378 6D656D65 		.ascii	"memerr\000"
 4120      727200
 4121              	.LASF39:
 4122 037f 705F6D73 		.ascii	"p_msg\000"
 4122      6700
 4123              	.LASF15:
 4124 0385 746D6F64 		.ascii	"tmode_t\000"
 4124      655F7400 
 4125              	.LASF132:
 4126 038d 474E5520 		.ascii	"GNU C 4.7.4 20130913 (release) [ARM/embedded-4_7-br"
 4126      4320342E 
 4126      372E3420 
 4126      32303133 
 4126      30393133 
 4127 03c0 616E6368 		.ascii	"anch revision 202601]\000"
 4127      20726576 
 4127      6973696F 
 4127      6E203230 
 4127      32363031 
 4128              	.LASF6:
 4129 03d6 75696E74 		.ascii	"uint16_t\000"
 4129      31365F74 
 4129      00
 4130              	.LASF47:
 4131 03df 696E7463 		.ascii	"intctx\000"
 4131      747800
 4132              	.LASF90:
 4133 03e6 6C656E65 		.ascii	"lenerr\000"
 4133      727200
 4134              	.LASF72:
 4135 03ed 4D454D50 		.ascii	"MEMP_TCP_PCB\000"
 4135      5F544350 
 4135      5F504342 
 4135      00
 4136              	.LASF42:
 4137 03fa 705F7265 		.ascii	"p_realprio\000"
 4137      616C7072 
 4137      696F00
 4138              	.LASF65:
 4139 0405 7533325F 		.ascii	"u32_t\000"
 4139      7400
 4140              	.LASF5:
 4141 040b 73686F72 		.ascii	"short int\000"
 4141      7420696E 
 4141      7400
 4142              	.LASF108:
 4143 0415 69636D70 		.ascii	"icmp\000"
 4143      00
 4144              	.LASF40:
 4145 041a 705F6570 		.ascii	"p_epending\000"
 4145      656E6469 
 4145      6E6700
ARM GAS  C:\Users\jenny\AppData\Local\Temp\ccjexqIY.s 			page 77


 4146              	.LASF54:
 4147 0425 6D5F7175 		.ascii	"m_queue\000"
 4147      65756500 
 4148              	.LASF9:
 4149 042d 6C6F6E67 		.ascii	"long int\000"
 4149      20696E74 
 4149      00
 4150              	.LASF92:
 4151 0436 72746572 		.ascii	"rterr\000"
 4151      7200
 4152              	.LASF97:
 4153 043c 61766169 		.ascii	"avail\000"
 4153      6C00
 4154              	.LASF81:
 4155 0442 4D454D50 		.ascii	"MEMP_SYS_TIMEOUT\000"
 4155      5F535953 
 4155      5F54494D 
 4155      454F5554 
 4155      00
 4156              	.LASF120:
 4157 0453 6D656D32 		.ascii	"mem2\000"
 4157      00
 4158              	.LASF25:
 4159 0458 705F6E65 		.ascii	"p_next\000"
 4159      787400
 4160              	.LASF71:
 4161 045f 4D454D50 		.ascii	"MEMP_UDP_PCB\000"
 4161      5F554450 
 4161      5F504342 
 4161      00
 4162              	.LASF28:
 4163 046c 705F6374 		.ascii	"p_ctx\000"
 4163      7800
 4164              	.LASF119:
 4165 0472 70747232 		.ascii	"ptr2\000"
 4165      00
 4166              	.LASF103:
 4167 0477 6D626F78 		.ascii	"mbox\000"
 4167      00
 4168              	.LASF131:
 4169 047c 7379735F 		.ascii	"sys_arch_sem_wait\000"
 4169      61726368 
 4169      5F73656D 
 4169      5F776169 
 4169      7400
 4170              	.LASF95:
 4171 048e 63616368 		.ascii	"cachehit\000"
 4171      65686974 
 4171      00
 4172              	.LASF66:
 4173 0497 6D656D5F 		.ascii	"mem_ptr_t\000"
 4173      7074725F 
 4173      7400
 4174              	.LASF50:
 4175 04a1 53656D61 		.ascii	"Semaphore\000"
 4175      70686F72 
 4175      6500
ARM GAS  C:\Users\jenny\AppData\Local\Temp\ccjexqIY.s 			page 78


 4176              	.LASF76:
 4177 04ab 4D454D50 		.ascii	"MEMP_FRAG_PBUF\000"
 4177      5F465241 
 4177      475F5042 
 4177      554600
 4178              	.LASF70:
 4179 04ba 4D454D50 		.ascii	"MEMP_RAW_PCB\000"
 4179      5F524157 
 4179      5F504342 
 4179      00
 4180              	.LASF26:
 4181 04c7 705F7072 		.ascii	"p_prev\000"
 4181      657600
 4182              	.LASF49:
 4183 04ce 73697A65 		.ascii	"sizetype\000"
 4183      74797065 
 4183      00
 4184              	.LASF17:
 4185 04d7 74726566 		.ascii	"trefs_t\000"
 4185      735F7400 
 4186              	.LASF11:
 4187 04df 6C6F6E67 		.ascii	"long unsigned int\000"
 4187      20756E73 
 4187      69676E65 
 4187      6420696E 
 4187      7400
 4188              	.LASF8:
 4189 04f1 696E7433 		.ascii	"int32_t\000"
 4189      325F7400 
 4190              	.LASF93:
 4191 04f9 70726F74 		.ascii	"proterr\000"
 4191      65727200 
 4192              	.LASF101:
 4193 0501 73746174 		.ascii	"stats_sys\000"
 4193      735F7379 
 4193      7300
 4194              	.LASF4:
 4195 050b 756E7369 		.ascii	"unsigned char\000"
 4195      676E6564 
 4195      20636861 
 4195      7200
 4196              	.LASF122:
 4197 0519 6D656D5F 		.ascii	"mem_malloc\000"
 4197      6D616C6C 
 4197      6F6300
 4198              	.LASF34:
 4199 0524 705F7265 		.ascii	"p_refs\000"
 4199      667300
 4200              	.LASF74:
 4201 052b 4D454D50 		.ascii	"MEMP_TCP_SEG\000"
 4201      5F544350 
 4201      5F534547 
 4201      00
 4202              	.LASF105:
 4203 0538 6C696E6B 		.ascii	"link\000"
 4203      00
 4204              	.LASF136:
ARM GAS  C:\Users\jenny\AppData\Local\Temp\ccjexqIY.s 			page 79


 4205 053d 706F7274 		.ascii	"port_halt\000"
 4205      5F68616C 
 4205      7400
 4206              	.LASF35:
 4207 0547 705F7072 		.ascii	"p_preempt\000"
 4207      65656D70 
 4207      7400
 4208              	.LASF88:
 4209 0551 64726F70 		.ascii	"drop\000"
 4209      00
 4210              	.LASF87:
 4211 0556 72656376 		.ascii	"recv\000"
 4211      00
 4212              	.LASF56:
 4213 055b 6D5F6E65 		.ascii	"m_next\000"
 4213      787400
 4214              	.LASF1:
 4215 0562 7369676E 		.ascii	"signed char\000"
 4215      65642063 
 4215      68617200 
 4216              	.LASF7:
 4217 056e 73686F72 		.ascii	"short unsigned int\000"
 4217      7420756E 
 4217      7369676E 
 4217      65642069 
 4217      6E7400
 4218              	.LASF86:
 4219 0581 786D6974 		.ascii	"xmit\000"
 4219      00
 4220              	.LASF58:
 4221 0586 65786974 		.ascii	"exitcode\000"
 4221      636F6465 
 4221      00
 4222              	.LASF112:
 4223 058f 6E6D656D 		.ascii	"nmem\000"
 4223      00
 4224              		.ident	"GCC: (GNU Tools for ARM Embedded Processors) 4.7.4 20130913 (release) [ARM/embedded-4_7-br
ARM GAS  C:\Users\jenny\AppData\Local\Temp\ccjexqIY.s 			page 80


DEFINED SYMBOLS
                            *ABS*:00000000 mem.c
C:\Users\jenny\AppData\Local\Temp\ccjexqIY.s:20     .text.mem_init:00000000 $t
C:\Users\jenny\AppData\Local\Temp\ccjexqIY.s:26     .text.mem_init:00000000 mem_init
C:\Users\jenny\AppData\Local\Temp\ccjexqIY.s:102    .text.mem_init:00000050 $d
C:\Users\jenny\AppData\Local\Temp\ccjexqIY.s:112    .text.mem_free:00000000 $t
C:\Users\jenny\AppData\Local\Temp\ccjexqIY.s:118    .text.mem_free:00000000 mem_free
C:\Users\jenny\AppData\Local\Temp\ccjexqIY.s:354    .text.mem_free:0000012c $d
C:\Users\jenny\AppData\Local\Temp\ccjexqIY.s:363    .text.mem_trim:00000000 $t
C:\Users\jenny\AppData\Local\Temp\ccjexqIY.s:369    .text.mem_trim:00000000 mem_trim
C:\Users\jenny\AppData\Local\Temp\ccjexqIY.s:611    .text.mem_trim:0000012c $d
C:\Users\jenny\AppData\Local\Temp\ccjexqIY.s:620    .text.mem_malloc:00000000 $t
C:\Users\jenny\AppData\Local\Temp\ccjexqIY.s:626    .text.mem_malloc:00000000 mem_malloc
C:\Users\jenny\AppData\Local\Temp\ccjexqIY.s:884    .text.mem_malloc:00000164 $d
C:\Users\jenny\AppData\Local\Temp\ccjexqIY.s:894    .text.mem_calloc:00000000 $t
C:\Users\jenny\AppData\Local\Temp\ccjexqIY.s:900    .text.mem_calloc:00000000 mem_calloc
C:\Users\jenny\AppData\Local\Temp\ccjexqIY.s:941    .bss.ram_heap:00000000 ram_heap
C:\Users\jenny\AppData\Local\Temp\ccjexqIY.s:937    .bss.ram_heap:00000000 $d
C:\Users\jenny\AppData\Local\Temp\ccjexqIY.s:944    .bss.lfree:00000000 $d
C:\Users\jenny\AppData\Local\Temp\ccjexqIY.s:948    .bss.lfree:00000000 lfree
C:\Users\jenny\AppData\Local\Temp\ccjexqIY.s:951    .bss.ram_end:00000000 $d
C:\Users\jenny\AppData\Local\Temp\ccjexqIY.s:955    .bss.ram_end:00000000 ram_end
C:\Users\jenny\AppData\Local\Temp\ccjexqIY.s:958    .bss.mem_mutex:00000000 $d
C:\Users\jenny\AppData\Local\Temp\ccjexqIY.s:962    .bss.mem_mutex:00000000 mem_mutex
C:\Users\jenny\AppData\Local\Temp\ccjexqIY.s:965    .bss.ram:00000000 $d
C:\Users\jenny\AppData\Local\Temp\ccjexqIY.s:969    .bss.ram:00000000 ram
                     .debug_frame:00000010 $d
C:\Users\jenny\AppData\Local\Temp\ccjexqIY.s:111    .text.mem_init:00000068 $t
C:\Users\jenny\AppData\Local\Temp\ccjexqIY.s:893    .text.mem_malloc:00000178 $t

UNDEFINED SYMBOLS
sys_sem_new
port_halt
lwip_stats
sys_arch_sem_wait
sys_sem_signal
memset
