ARM GAS  C:\Users\jenny\AppData\Local\Temp\ccjexqIY.s 			page 1


   1              		.syntax unified
   2              		.cpu cortex-m4
   3              		.eabi_attribute 27, 3
   4              		.fpu fpv4-sp-d16
   5              		.eabi_attribute 20, 1
   6              		.eabi_attribute 21, 1
   7              		.eabi_attribute 23, 3
   8              		.eabi_attribute 24, 1
   9              		.eabi_attribute 25, 1
  10              		.eabi_attribute 26, 1
  11              		.eabi_attribute 30, 2
  12              		.eabi_attribute 34, 1
  13              		.eabi_attribute 18, 4
  14              		.thumb
  15              		.file	"mem.c"
  16              		.text
  17              	.Ltext0:
  18              		.cfi_sections	.debug_frame
  19              		.section	.text.mem_init,"ax",%progbits
  20              		.align	2
  21              		.p2align 4,,15
  22              		.global	mem_init
  23              		.thumb
  24              		.thumb_func
  25              		.type	mem_init, %function
  26              	mem_init:
  27              	.LFB8:
  28              		.file 1 "../../ext/lwip/src/core/mem.c"
  29              		.loc 1 275 0
  30              		.cfi_startproc
  31              		@ args = 0, pretend = 0, frame = 0
  32              		@ frame_needed = 0, uses_anonymous_args = 0
  33 0000 F8B5     		push	{r3, r4, r5, r6, r7, lr}
  34              	.LCFI0:
  35              		.cfi_def_cfa_offset 24
  36              		.cfi_offset 3, -24
  37              		.cfi_offset 4, -20
  38              		.cfi_offset 5, -16
  39              		.cfi_offset 6, -12
  40              		.cfi_offset 7, -8
  41              		.cfi_offset 14, -4
  42              		.loc 1 282 0
  43 0002 134B     		ldr	r3, .L5
  44 0004 DFF85CE0 		ldr	lr, .L5+20
  45              		.loc 1 299 0
  46 0008 1248     		ldr	r0, .L5+4
  47              		.loc 1 282 0
  48 000a 23F00303 		bic	r3, r3, #3
  49              		.loc 1 290 0
  50 000e 0124     		movs	r4, #1
  51 0010 83F84446 		strb	r4, [r3, #1604]
  52              		.loc 1 299 0
  53 0014 2146     		mov	r1, r4
  54              		.loc 1 295 0
  55 0016 104C     		ldr	r4, .L5+8
  56              		.loc 1 282 0
  57 0018 CEF80030 		str	r3, [lr, #0]
ARM GAS  C:\Users\jenny\AppData\Local\Temp\ccjexqIY.s 			page 2


  58              	.LVL0:
  59              		.loc 1 285 0
  60 001c 4FF4C862 		mov	r2, #1600
  61              		.loc 1 286 0
  62 0020 0025     		movs	r5, #0
  63              		.loc 1 289 0
  64 0022 9E18     		adds	r6, r3, r2
  65              		.loc 1 286 0
  66 0024 5D80     		strh	r5, [r3, #2]	@ movhi
  67              		.loc 1 287 0
  68 0026 1D71     		strb	r5, [r3, #4]
  69              		.loc 1 286 0
  70 0028 2F46     		mov	r7, r5	@ movhi
  71              		.loc 1 285 0
  72 002a 1A80     		strh	r2, [r3, #0]	@ movhi
  73              		.loc 1 289 0
  74 002c 0B4D     		ldr	r5, .L5+12
  75              		.loc 1 291 0
  76 002e A3F84026 		strh	r2, [r3, #1600]	@ movhi
  77              		.loc 1 292 0
  78 0032 A3F84226 		strh	r2, [r3, #1602]	@ movhi
  79              		.loc 1 295 0
  80 0036 2360     		str	r3, [r4, #0]
  81              		.loc 1 297 0
  82 0038 094B     		ldr	r3, .L5+16
  83              	.LVL1:
  84              		.loc 1 289 0
  85 003a 2E60     		str	r6, [r5, #0]
  86              		.loc 1 297 0
  87 003c A3F8A820 		strh	r2, [r3, #168]	@ movhi
  88              		.loc 1 299 0
  89 0040 FFF7FEFF 		bl	sys_sem_new
  90              	.LVL2:
  91 0044 00B9     		cbnz	r0, .L4
  92 0046 F8BD     		pop	{r3, r4, r5, r6, r7, pc}
  93              	.L4:
  94              		.loc 1 302 0 discriminator 1
  95 0048 BDE8F840 		pop	{r3, r4, r5, r6, r7, lr}
  96              		.loc 1 300 0 discriminator 1
  97 004c FFF7FEBF 		b	port_halt
  98              	.LVL3:
  99              	.L6:
 100              		.align	2
 101              	.L5:
 102 0050 03000000 		.word	.LANCHOR0+3
 103 0054 00000000 		.word	.LANCHOR4
 104 0058 00000000 		.word	.LANCHOR3
 105 005c 00000000 		.word	.LANCHOR2
 106 0060 00000000 		.word	lwip_stats
 107 0064 00000000 		.word	.LANCHOR1
 108              		.cfi_endproc
 109              	.LFE8:
 110              		.size	mem_init, .-mem_init
 111 0068 AFF30080 		.section	.text.mem_free,"ax",%progbits
 111      AFF30080 
 112              		.align	2
 113              		.p2align 4,,15
ARM GAS  C:\Users\jenny\AppData\Local\Temp\ccjexqIY.s 			page 3


 114              		.global	mem_free
 115              		.thumb
 116              		.thumb_func
 117              		.type	mem_free, %function
 118              	mem_free:
 119              	.LFB9:
 120              		.loc 1 312 0
 121              		.cfi_startproc
 122              		@ args = 0, pretend = 0, frame = 0
 123              		@ frame_needed = 0, uses_anonymous_args = 0
 124              	.LVL4:
 125 0000 2DE9F041 		push	{r4, r5, r6, r7, r8, lr}
 126              	.LCFI1:
 127              		.cfi_def_cfa_offset 24
 128              		.cfi_offset 4, -24
 129              		.cfi_offset 5, -20
 130              		.cfi_offset 6, -16
 131              		.cfi_offset 7, -12
 132              		.cfi_offset 8, -8
 133              		.cfi_offset 14, -4
 134              		.loc 1 316 0
 135 0004 0446     		mov	r4, r0
 136 0006 B0B1     		cbz	r0, .L7
 137              		.loc 1 320 0
 138 0008 8307     		lsls	r3, r0, #30
 139 000a 7AD1     		bne	.L33
 140              	.LVL5:
 141              	.L9:
 142              		.loc 1 322 0
 143 000c 474D     		ldr	r5, .L39
 144 000e 2B68     		ldr	r3, [r5, #0]
 145 0010 9C42     		cmp	r4, r3
 146 0012 03D3     		bcc	.L10
 147              		.loc 1 322 0 is_stmt 0 discriminator 2
 148 0014 464E     		ldr	r6, .L39+4
 149 0016 3068     		ldr	r0, [r6, #0]
 150 0018 8442     		cmp	r4, r0
 151 001a 12D3     		bcc	.L11
 152              	.L10:
 153              		.loc 1 322 0 discriminator 1
 154 001c FFF7FEFF 		bl	port_halt
 155              	.LVL6:
 156              		.loc 1 325 0 is_stmt 1 discriminator 1
 157 0020 2968     		ldr	r1, [r5, #0]
 158 0022 8C42     		cmp	r4, r1
 159 0024 09D2     		bcs	.L12
 160              	.L13:
 161              		.loc 1 330 0
 162 0026 4349     		ldr	r1, .L39+8
 163 0028 B1F8B020 		ldrh	r2, [r1, #176]
 164 002c 501C     		adds	r0, r2, #1
 165 002e A1F8B000 		strh	r0, [r1, #176]	@ movhi
 166              		.loc 1 332 0
 167 0032 BDE8F081 		pop	{r4, r5, r6, r7, r8, pc}
 168              	.LVL7:
 169              	.L7:
 170 0036 BDE8F081 		pop	{r4, r5, r6, r7, r8, pc}
ARM GAS  C:\Users\jenny\AppData\Local\Temp\ccjexqIY.s 			page 4


 171              	.LVL8:
 172              	.L12:
 173              		.loc 1 325 0
 174 003a 3D4E     		ldr	r6, .L39+4
 175 003c 3268     		ldr	r2, [r6, #0]
 176 003e 9442     		cmp	r4, r2
 177 0040 F1D2     		bcs	.L13
 178              	.L11:
 179              		.loc 1 335 0
 180 0042 3D48     		ldr	r0, .L39+12
 181 0044 0021     		movs	r1, #0
 182 0046 FFF7FEFF 		bl	sys_arch_sem_wait
 183              	.LVL9:
 184              		.loc 1 339 0
 185 004a 14F8043C 		ldrb	r3, [r4, #-4]	@ zero_extendqisi2
 186              		.loc 1 337 0
 187 004e A4F10807 		sub	r7, r4, #8
 188              	.LVL10:
 189              		.loc 1 339 0
 190 0052 002B     		cmp	r3, #0
 191 0054 66D0     		beq	.L34
 192              	.L14:
 193              		.loc 1 343 0
 194 0056 DFF8E480 		ldr	r8, .L39+16
 195              		.loc 1 348 0
 196 005a 364A     		ldr	r2, .L39+8
 197              		.loc 1 343 0
 198 005c D8F80000 		ldr	r0, [r8, #0]
 199              		.loc 1 348 0
 200 0060 2B68     		ldr	r3, [r5, #0]
 201              		.loc 1 341 0
 202 0062 0021     		movs	r1, #0
 203 0064 04F8041C 		strb	r1, [r4, #-4]
 204              		.loc 1 343 0
 205 0068 8742     		cmp	r7, r0
 206              		.loc 1 348 0
 207 006a 34F8081C 		ldrh	r1, [r4, #-8]
 208 006e B2F8AA00 		ldrh	r0, [r2, #170]
 209              		.loc 1 345 0
 210 0072 38BF     		it	cc
 211 0074 C8F80070 		strcc	r7, [r8, #0]
 212              		.loc 1 348 0
 213 0078 411A     		subs	r1, r0, r1
 214 007a F81A     		subs	r0, r7, r3
 215 007c 0918     		adds	r1, r1, r0
 216              	.LBB4:
 217              	.LBB5:
 218              		.loc 1 241 0
 219 007e 9F42     		cmp	r7, r3
 220              	.LBE5:
 221              	.LBE4:
 222              		.loc 1 348 0
 223 0080 A2F8AA10 		strh	r1, [r2, #170]	@ movhi
 224              	.LVL11:
 225              	.LBB8:
 226              	.LBB6:
 227              		.loc 1 241 0
ARM GAS  C:\Users\jenny\AppData\Local\Temp\ccjexqIY.s 			page 5


 228 0084 4BD3     		bcc	.L35
 229              	.L16:
 230              		.loc 1 242 0
 231 0086 3268     		ldr	r2, [r6, #0]
 232 0088 9742     		cmp	r7, r2
 233 008a 45D2     		bcs	.L36
 234              	.L17:
 235              		.loc 1 243 0
 236 008c 14F8043C 		ldrb	r3, [r4, #-4]	@ zero_extendqisi2
 237 0090 002B     		cmp	r3, #0
 238 0092 3ED1     		bne	.L37
 239              	.L18:
 240              		.loc 1 246 0
 241 0094 34F8080C 		ldrh	r0, [r4, #-8]
 242 0098 B0F5C86F 		cmp	r0, #1600
 243 009c 34D8     		bhi	.L38
 244              	.L19:
 245              		.loc 1 248 0
 246 009e 2B68     		ldr	r3, [r5, #0]
 247 00a0 1A18     		adds	r2, r3, r0
 248              	.LVL12:
 249              		.loc 1 249 0
 250 00a2 9742     		cmp	r7, r2
 251 00a4 13D0     		beq	.L20
 252 00a6 1179     		ldrb	r1, [r2, #4]	@ zero_extendqisi2
 253 00a8 89B9     		cbnz	r1, .L20
 254 00aa 3068     		ldr	r0, [r6, #0]
 255 00ac 8242     		cmp	r2, r0
 256 00ae 0ED0     		beq	.L20
 257              		.loc 1 254 0
 258 00b0 1088     		ldrh	r0, [r2, #0]
 259              		.loc 1 251 0
 260 00b2 D8F80010 		ldr	r1, [r8, #0]
 261              		.loc 1 254 0
 262 00b6 24F8080C 		strh	r0, [r4, #-8]	@ movhi
 263              		.loc 1 251 0
 264 00ba 8A42     		cmp	r2, r1
 265              		.loc 1 255 0
 266 00bc 1288     		ldrh	r2, [r2, #0]
 267              	.LVL13:
 268              		.loc 1 252 0
 269 00be 08BF     		it	eq
 270 00c0 1E49     		ldreq	r1, .L39+16
 271              		.loc 1 255 0
 272 00c2 03EB0200 		add	r0, r3, r2
 273              		.loc 1 252 0
 274 00c6 08BF     		it	eq
 275 00c8 0F60     		streq	r7, [r1, #0]
 276              		.loc 1 255 0
 277 00ca F91A     		subs	r1, r7, r3
 278 00cc 4180     		strh	r1, [r0, #2]	@ movhi
 279              	.L20:
 280              		.loc 1 259 0
 281 00ce 34F8061C 		ldrh	r1, [r4, #-6]
 282 00d2 5A18     		adds	r2, r3, r1
 283              	.LVL14:
 284              		.loc 1 260 0
ARM GAS  C:\Users\jenny\AppData\Local\Temp\ccjexqIY.s 			page 6


 285 00d4 9742     		cmp	r7, r2
 286 00d6 0FD0     		beq	.L22
 287 00d8 1079     		ldrb	r0, [r2, #4]	@ zero_extendqisi2
 288 00da 68B9     		cbnz	r0, .L22
 289              		.loc 1 262 0
 290 00dc D8F80000 		ldr	r0, [r8, #0]
 291 00e0 8742     		cmp	r7, r0
 292              		.loc 1 263 0
 293 00e2 04BF     		itt	eq
 294 00e4 1548     		ldreq	r0, .L39+16
 295 00e6 0260     		streq	r2, [r0, #0]
 296              		.loc 1 265 0
 297 00e8 34F8080C 		ldrh	r0, [r4, #-8]
 298 00ec 5852     		strh	r0, [r3, r1]	@ movhi
 299              		.loc 1 266 0
 300 00ee 34F8081C 		ldrh	r1, [r4, #-8]
 301 00f2 5818     		adds	r0, r3, r1
 302 00f4 D31A     		subs	r3, r2, r3
 303 00f6 4380     		strh	r3, [r0, #2]	@ movhi
 304              	.L22:
 305              	.LBE6:
 306              	.LBE8:
 307              		.loc 1 355 0
 308 00f8 0F48     		ldr	r0, .L39+12
 309              		.loc 1 356 0
 310 00fa BDE8F041 		pop	{r4, r5, r6, r7, r8, lr}
 311              		.loc 1 355 0
 312 00fe FFF7FEBF 		b	sys_sem_signal
 313              	.LVL15:
 314              	.L33:
 315              		.loc 1 320 0 discriminator 1
 316 0102 FFF7FEFF 		bl	port_halt
 317              	.LVL16:
 318 0106 81E7     		b	.L9
 319              	.LVL17:
 320              	.L38:
 321              	.LBB9:
 322              	.LBB7:
 323              		.loc 1 246 0
 324 0108 FFF7FEFF 		bl	port_halt
 325              	.LVL18:
 326 010c 34F8080C 		ldrh	r0, [r4, #-8]
 327 0110 C5E7     		b	.L19
 328              	.L37:
 329              		.loc 1 243 0
 330 0112 FFF7FEFF 		bl	port_halt
 331              	.LVL19:
 332 0116 BDE7     		b	.L18
 333              	.L36:
 334              		.loc 1 242 0
 335 0118 FFF7FEFF 		bl	port_halt
 336              	.LVL20:
 337 011c B6E7     		b	.L17
 338              	.L35:
 339              		.loc 1 241 0
 340 011e FFF7FEFF 		bl	port_halt
 341              	.LVL21:
ARM GAS  C:\Users\jenny\AppData\Local\Temp\ccjexqIY.s 			page 7


 342 0122 B0E7     		b	.L16
 343              	.LVL22:
 344              	.L34:
 345              	.LBE7:
 346              	.LBE9:
 347              		.loc 1 339 0 discriminator 1
 348 0124 FFF7FEFF 		bl	port_halt
 349              	.LVL23:
 350 0128 95E7     		b	.L14
 351              	.L40:
 352 012a 00BF     		.align	2
 353              	.L39:
 354 012c 00000000 		.word	.LANCHOR1
 355 0130 00000000 		.word	.LANCHOR2
 356 0134 00000000 		.word	lwip_stats
 357 0138 00000000 		.word	.LANCHOR4
 358 013c 00000000 		.word	.LANCHOR3
 359              		.cfi_endproc
 360              	.LFE9:
 361              		.size	mem_free, .-mem_free
 362              		.section	.text.mem_trim,"ax",%progbits
 363              		.align	2
 364              		.p2align 4,,15
 365              		.global	mem_trim
 366              		.thumb
 367              		.thumb_func
 368              		.type	mem_trim, %function
 369              	mem_trim:
 370              	.LFB10:
 371              		.loc 1 370 0
 372              		.cfi_startproc
 373              		@ args = 0, pretend = 0, frame = 0
 374              		@ frame_needed = 0, uses_anonymous_args = 0
 375              	.LVL24:
 376 0000 2DE9F041 		push	{r4, r5, r6, r7, r8, lr}
 377              	.LCFI2:
 378              		.cfi_def_cfa_offset 24
 379              		.cfi_offset 4, -24
 380              		.cfi_offset 5, -20
 381              		.cfi_offset 6, -16
 382              		.cfi_offset 7, -12
 383              		.cfi_offset 8, -8
 384              		.cfi_offset 14, -4
 385              		.loc 1 379 0
 386 0004 0331     		adds	r1, r1, #3
 387              	.LVL25:
 388 0006 4FF6FC75 		movw	r5, #65532
 389 000a 0D40     		ands	r5, r5, r1
 390              	.LVL26:
 391              		.loc 1 381 0
 392 000c 0B2D     		cmp	r5, #11
 393              		.loc 1 370 0
 394 000e 0446     		mov	r4, r0
 395              		.loc 1 381 0
 396 0010 5BD9     		bls	.L57
 397              		.loc 1 386 0
 398 0012 B5F5C86F 		cmp	r5, #1600
ARM GAS  C:\Users\jenny\AppData\Local\Temp\ccjexqIY.s 			page 8


 399 0016 5FD8     		bhi	.L67
 400              	.LVL27:
 401              	.L42:
 402              		.loc 1 390 0
 403 0018 444E     		ldr	r6, .L69
 404 001a 3368     		ldr	r3, [r6, #0]
 405 001c A342     		cmp	r3, r4
 406 001e 46D8     		bhi	.L44
 407              		.loc 1 390 0 is_stmt 0 discriminator 2
 408 0020 434A     		ldr	r2, .L69+4
 409 0022 1068     		ldr	r0, [r2, #0]
 410              	.LVL28:
 411 0024 8442     		cmp	r4, r0
 412 0026 42D2     		bcs	.L44
 413              	.LVL29:
 414              	.L45:
 415              		.loc 1 403 0 is_stmt 1
 416 0028 A4F10808 		sub	r8, r4, #8
 417              	.LVL30:
 418              		.loc 1 407 0
 419 002c 34F8087C 		ldrh	r7, [r4, #-8]
 420              		.loc 1 405 0
 421 0030 C3EB0800 		rsb	r0, r3, r8
 422              		.loc 1 407 0
 423 0034 083F     		subs	r7, r7, #8
 424              		.loc 1 405 0
 425 0036 1FFA80F8 		uxth	r8, r0
 426              	.LVL31:
 427              		.loc 1 407 0
 428 003a C8EB0703 		rsb	r3, r8, r7
 429 003e 9FB2     		uxth	r7, r3
 430              	.LVL32:
 431              		.loc 1 408 0
 432 0040 AF42     		cmp	r7, r5
 433 0042 4DD3     		bcc	.L68
 434              		.loc 1 413 0
 435 0044 BD42     		cmp	r5, r7
 436 0046 3DD0     		beq	.L61
 437              		.loc 1 419 0
 438 0048 0021     		movs	r1, #0
 439 004a 3A48     		ldr	r0, .L69+8
 440              	.LVL33:
 441 004c FFF7FEFF 		bl	sys_arch_sem_wait
 442              	.LVL34:
 443              		.loc 1 421 0
 444 0050 3368     		ldr	r3, [r6, #0]
 445 0052 34F8082C 		ldrh	r2, [r4, #-8]
 446 0056 9918     		adds	r1, r3, r2
 447              	.LVL35:
 448              		.loc 1 422 0
 449 0058 0879     		ldrb	r0, [r1, #4]	@ zero_extendqisi2
 450 005a 0028     		cmp	r0, #0
 451 005c 44D1     		bne	.L49
 452              	.LBB10:
 453              		.loc 1 429 0
 454 005e 364E     		ldr	r6, .L69+12
 455              		.loc 1 426 0
ARM GAS  C:\Users\jenny\AppData\Local\Temp\ccjexqIY.s 			page 9


 456 0060 33F802C0 		ldrh	ip, [r3, r2]
 457              	.LVL36:
 458              		.loc 1 429 0
 459 0064 3268     		ldr	r2, [r6, #0]
 460              		.loc 1 428 0
 461 0066 05F10800 		add	r0, r5, #8
 462 006a 4044     		add	r0, r8, r0
 463 006c 80B2     		uxth	r0, r0
 464              	.LVL37:
 465              		.loc 1 429 0
 466 006e 8A42     		cmp	r2, r1
 467              		.loc 1 430 0
 468 0070 03EB0002 		add	r2, r3, r0
 469 0074 08BF     		it	eq
 470 0076 3260     		streq	r2, [r6, #0]
 471              	.LVL38:
 472              		.loc 1 435 0
 473 0078 A2F800C0 		strh	ip, [r2, #0]	@ movhi
 474              		.loc 1 439 0
 475 007c 24F8080C 		strh	r0, [r4, #-8]	@ movhi
 476              		.loc 1 443 0
 477 0080 1188     		ldrh	r1, [r2, #0]
 478              	.LVL39:
 479              		.loc 1 437 0
 480 0082 A2F80280 		strh	r8, [r2, #2]	@ movhi
 481              		.loc 1 433 0
 482 0086 0026     		movs	r6, #0
 483              		.loc 1 443 0
 484 0088 B1F5C86F 		cmp	r1, #1600
 485              		.loc 1 433 0
 486 008c 1671     		strb	r6, [r2, #4]
 487              		.loc 1 443 0
 488 008e 01D0     		beq	.L55
 489              		.loc 1 444 0
 490 0090 5B18     		adds	r3, r3, r1
 491              	.LVL40:
 492 0092 5880     		strh	r0, [r3, #2]	@ movhi
 493              	.LVL41:
 494              	.L55:
 495              	.LBE10:
 496              		.loc 1 468 0
 497 0094 2948     		ldr	r0, .L69+16
 498 0096 B0F8AA20 		ldrh	r2, [r0, #170]
 499 009a AD18     		adds	r5, r5, r2
 500 009c EF1B     		subs	r7, r5, r7
 501              	.LVL42:
 502 009e A0F8AA70 		strh	r7, [r0, #170]	@ movhi
 503              	.L53:
 504              		.loc 1 480 0
 505 00a2 2448     		ldr	r0, .L69+8
 506 00a4 FFF7FEFF 		bl	sys_sem_signal
 507              	.LVL43:
 508              		.loc 1 482 0
 509 00a8 2046     		mov	r0, r4
 510 00aa BDE8F081 		pop	{r4, r5, r6, r7, r8, pc}
 511              	.LVL44:
 512              	.L44:
ARM GAS  C:\Users\jenny\AppData\Local\Temp\ccjexqIY.s 			page 10


 513              		.loc 1 390 0 discriminator 1
 514 00ae FFF7FEFF 		bl	port_halt
 515              	.LVL45:
 516              		.loc 1 393 0 discriminator 1
 517 00b2 3368     		ldr	r3, [r6, #0]
 518 00b4 9C42     		cmp	r4, r3
 519 00b6 0AD2     		bcs	.L46
 520              	.L47:
 521              		.loc 1 398 0
 522 00b8 2049     		ldr	r1, .L69+16
 523 00ba B1F8B030 		ldrh	r3, [r1, #176]
 524 00be 581C     		adds	r0, r3, #1
 525 00c0 A1F8B000 		strh	r0, [r1, #176]	@ movhi
 526              	.LVL46:
 527              	.L61:
 528              		.loc 1 482 0
 529 00c4 2046     		mov	r0, r4
 530 00c6 BDE8F081 		pop	{r4, r5, r6, r7, r8, pc}
 531              	.LVL47:
 532              	.L57:
 533              		.loc 1 383 0
 534 00ca 0C25     		movs	r5, #12
 535              	.LVL48:
 536 00cc A4E7     		b	.L42
 537              	.LVL49:
 538              	.L46:
 539              		.loc 1 393 0
 540 00ce 1849     		ldr	r1, .L69+4
 541 00d0 0A68     		ldr	r2, [r1, #0]
 542 00d2 9442     		cmp	r4, r2
 543 00d4 F0D2     		bcs	.L47
 544 00d6 A7E7     		b	.L45
 545              	.LVL50:
 546              	.L67:
 547              		.loc 1 387 0
 548 00d8 0024     		movs	r4, #0
 549              		.loc 1 482 0
 550 00da 2046     		mov	r0, r4
 551              	.LVL51:
 552 00dc BDE8F081 		pop	{r4, r5, r6, r7, r8, pc}
 553              	.LVL52:
 554              	.L68:
 555              		.loc 1 408 0 discriminator 1
 556 00e0 FFF7FEFF 		bl	port_halt
 557              	.LVL53:
 558              		.loc 1 411 0 discriminator 1
 559 00e4 0024     		movs	r4, #0
 560              	.LVL54:
 561 00e6 EDE7     		b	.L61
 562              	.LVL55:
 563              	.L49:
 564              		.loc 1 448 0
 565 00e8 05F11401 		add	r1, r5, #20
 566              	.LVL56:
 567 00ec B942     		cmp	r1, r7
 568 00ee D8D8     		bhi	.L53
 569              		.loc 1 456 0
ARM GAS  C:\Users\jenny\AppData\Local\Temp\ccjexqIY.s 			page 11


 570 00f0 05F10806 		add	r6, r5, #8
 571 00f4 08EB0600 		add	r0, r8, r6
 572 00f8 81B2     		uxth	r1, r0
 573              	.LVL57:
 574              		.loc 1 458 0
 575 00fa DFF83CE0 		ldr	lr, .L69+12
 576              		.loc 1 462 0
 577 00fe 5A52     		strh	r2, [r3, r1]	@ movhi
 578              		.loc 1 458 0
 579 0100 DEF80000 		ldr	r0, [lr, #0]
 580              	.LVL58:
 581              		.loc 1 464 0
 582 0104 24F8081C 		strh	r1, [r4, #-8]	@ movhi
 583              		.loc 1 457 0
 584 0108 5E18     		adds	r6, r3, r1
 585              	.LVL59:
 586              		.loc 1 465 0
 587 010a 5A5A     		ldrh	r2, [r3, r1]
 588              		.loc 1 463 0
 589 010c A6F80280 		strh	r8, [r6, #2]	@ movhi
 590              		.loc 1 458 0
 591 0110 8642     		cmp	r6, r0
 592              		.loc 1 459 0
 593 0112 38BF     		it	cc
 594 0114 CEF80060 		strcc	r6, [lr, #0]
 595              		.loc 1 461 0
 596 0118 0020     		movs	r0, #0
 597              		.loc 1 465 0
 598 011a B2F5C86F 		cmp	r2, #1600
 599              		.loc 1 466 0
 600 011e 18BF     		it	ne
 601 0120 9B18     		addne	r3, r3, r2
 602              		.loc 1 461 0
 603 0122 3071     		strb	r0, [r6, #4]
 604              		.loc 1 466 0
 605 0124 18BF     		it	ne
 606 0126 5980     		strhne	r1, [r3, #2]	@ movhi
 607 0128 B4E7     		b	.L55
 608              	.L70:
 609 012a 00BF     		.align	2
 610              	.L69:
 611 012c 00000000 		.word	.LANCHOR1
 612 0130 00000000 		.word	.LANCHOR2
 613 0134 00000000 		.word	.LANCHOR4
 614 0138 00000000 		.word	.LANCHOR3
 615 013c 00000000 		.word	lwip_stats
 616              		.cfi_endproc
 617              	.LFE10:
 618              		.size	mem_trim, .-mem_trim
 619              		.section	.text.mem_malloc,"ax",%progbits
 620              		.align	2
 621              		.p2align 4,,15
 622              		.global	mem_malloc
 623              		.thumb
 624              		.thumb_func
 625              		.type	mem_malloc, %function
 626              	mem_malloc:
ARM GAS  C:\Users\jenny\AppData\Local\Temp\ccjexqIY.s 			page 12


 627              	.LFB11:
 628              		.loc 1 495 0
 629              		.cfi_startproc
 630              		@ args = 0, pretend = 0, frame = 0
 631              		@ frame_needed = 0, uses_anonymous_args = 0
 632              	.LVL60:
 633 0000 2DE9F843 		push	{r3, r4, r5, r6, r7, r8, r9, lr}
 634              	.LCFI3:
 635              		.cfi_def_cfa_offset 32
 636              		.cfi_offset 3, -32
 637              		.cfi_offset 4, -28
 638              		.cfi_offset 5, -24
 639              		.cfi_offset 6, -20
 640              		.cfi_offset 7, -16
 641              		.cfi_offset 8, -12
 642              		.cfi_offset 9, -8
 643              		.cfi_offset 14, -4
 644              		.loc 1 503 0
 645 0004 0028     		cmp	r0, #0
 646 0006 3AD0     		beq	.L112
 647              		.loc 1 509 0
 648 0008 0330     		adds	r0, r0, #3
 649              	.LVL61:
 650 000a 4FF6FC77 		movw	r7, #65532
 651 000e 0740     		ands	r7, r7, r0
 652              	.LVL62:
 653              		.loc 1 511 0
 654 0010 0B2F     		cmp	r7, #11
 655 0012 36D9     		bls	.L92
 656              		.loc 1 516 0
 657 0014 B7F5C86F 		cmp	r7, #1600
 658 0018 00F28280 		bhi	.L93
 659 001c C7F5C865 		rsb	r5, r7, #1600
 660              	.LVL63:
 661              	.L73:
 662              		.loc 1 521 0
 663 0020 0021     		movs	r1, #0
 664 0022 5048     		ldr	r0, .L120
 665              	.LVL64:
 666              		.loc 1 532 0
 667 0024 DFF84881 		ldr	r8, .L120+12
 668              		.loc 1 521 0
 669 0028 FFF7FEFF 		bl	sys_arch_sem_wait
 670              	.LVL65:
 671              		.loc 1 532 0
 672 002c DFF844C1 		ldr	ip, .L120+16
 673 0030 D8F800E0 		ldr	lr, [r8, #0]
 674 0034 DCF80020 		ldr	r2, [ip, #0]
 675 0038 C2EB0E03 		rsb	r3, r2, lr
 676 003c 99B2     		uxth	r1, r3
 677 003e A942     		cmp	r1, r5
 678 0040 0B46     		mov	r3, r1
 679              	.LVL66:
 680 0042 09DB     		blt	.L104
 681 0044 0FE0     		b	.L74
 682              	.LVL67:
 683              	.L115:
ARM GAS  C:\Users\jenny\AppData\Local\Temp\ccjexqIY.s 			page 13


 684              		.loc 1 549 0 discriminator 1
 685 0046 D05A     		ldrh	r0, [r2, r3]
 686 0048 A0F10806 		sub	r6, r0, #8
 687 004c F61A     		subs	r6, r6, r3
 688              		.loc 1 548 0 discriminator 1
 689 004e BE42     		cmp	r6, r7
 690 0050 1BD2     		bcs	.L114
 691              		.loc 1 549 0
 692 0052 0346     		mov	r3, r0
 693              	.LVL68:
 694              		.loc 1 532 0
 695 0054 AB42     		cmp	r3, r5
 696 0056 06DA     		bge	.L74
 697              	.LVL69:
 698              	.L104:
 699              		.loc 1 534 0
 700 0058 D418     		adds	r4, r2, r3
 701              	.LVL70:
 702              		.loc 1 548 0
 703 005a 2179     		ldrb	r1, [r4, #4]	@ zero_extendqisi2
 704 005c 0029     		cmp	r1, #0
 705 005e F2D0     		beq	.L115
 706 0060 D35A     		ldrh	r3, [r2, r3]
 707              	.LVL71:
 708              		.loc 1 532 0
 709 0062 AB42     		cmp	r3, r5
 710 0064 F8DB     		blt	.L104
 711              	.LVL72:
 712              	.L74:
 713              		.loc 1 629 0
 714 0066 4049     		ldr	r1, .L120+4
 715              		.loc 1 631 0
 716 0068 3E48     		ldr	r0, .L120
 717              		.loc 1 629 0
 718 006a B1F8AE20 		ldrh	r2, [r1, #174]
 719 006e 531C     		adds	r3, r2, #1
 720 0070 A1F8AE30 		strh	r3, [r1, #174]	@ movhi
 721              		.loc 1 631 0
 722 0074 FFF7FEFF 		bl	sys_sem_signal
 723              	.LVL73:
 724              		.loc 1 632 0
 725 0078 0020     		movs	r0, #0
 726 007a BDE8F883 		pop	{r3, r4, r5, r6, r7, r8, r9, pc}
 727              	.LVL74:
 728              	.L112:
 729              		.loc 1 633 0
 730 007e BDE8F883 		pop	{r3, r4, r5, r6, r7, r8, r9, pc}
 731              	.LVL75:
 732              	.L92:
 733              		.loc 1 511 0
 734 0082 40F23465 		movw	r5, #1588
 735              		.loc 1 513 0
 736 0086 0C27     		movs	r7, #12
 737              	.LVL76:
 738 0088 CAE7     		b	.L73
 739              	.LVL77:
 740              	.L114:
ARM GAS  C:\Users\jenny\AppData\Local\Temp\ccjexqIY.s 			page 14


 741              		.loc 1 553 0
 742 008a 07F11405 		add	r5, r7, #20
 743 008e B542     		cmp	r5, r6
 744 0090 22D9     		bls	.L116
 745              		.loc 1 587 0
 746 0092 354E     		ldr	r6, .L120+4
 747              		.loc 1 586 0
 748 0094 0121     		movs	r1, #1
 749 0096 2171     		strb	r1, [r4, #4]
 750              		.loc 1 587 0
 751 0098 B6F8AA30 		ldrh	r3, [r6, #170]
 752 009c B6F8AC50 		ldrh	r5, [r6, #172]
 753 00a0 C018     		adds	r0, r0, r3
 754 00a2 A21A     		subs	r2, r4, r2
 755 00a4 811A     		subs	r1, r0, r2
 756 00a6 8BB2     		uxth	r3, r1
 757 00a8 9D42     		cmp	r5, r3
 758 00aa A6F8AA30 		strh	r3, [r6, #170]	@ movhi
 759 00ae 38BF     		it	cc
 760 00b0 A6F8AC30 		strhcc	r3, [r6, #172]	@ movhi
 761 00b4 07F10805 		add	r5, r7, #8
 762              	.L80:
 763              		.loc 1 592 0
 764 00b8 A645     		cmp	lr, r4
 765 00ba 3CD0     		beq	.L82
 766 00bc 2B4E     		ldr	r6, .L120+8
 767              	.L83:
 768              		.loc 1 613 0
 769 00be 2948     		ldr	r0, .L120
 770 00c0 FFF7FEFF 		bl	sys_sem_signal
 771              	.LVL78:
 772              		.loc 1 614 0
 773 00c4 3368     		ldr	r3, [r6, #0]
 774 00c6 6519     		adds	r5, r4, r5
 775 00c8 AB42     		cmp	r3, r5
 776 00ca 31D3     		bcc	.L117
 777              	.L87:
 778              		.loc 1 616 0
 779 00cc A207     		lsls	r2, r4, #30
 780 00ce 2AD1     		bne	.L118
 781              	.L88:
 782              		.loc 1 621 0
 783 00d0 04F10800 		add	r0, r4, #8
 784 00d4 BDE8F883 		pop	{r3, r4, r5, r6, r7, r8, r9, pc}
 785              	.L116:
 786              		.loc 1 564 0
 787 00d8 07F10805 		add	r5, r7, #8
 788 00dc 5E19     		adds	r6, r3, r5
 789 00de B6B2     		uxth	r6, r6
 790              	.LVL79:
 791              		.loc 1 566 0
 792 00e0 02EB0609 		add	r9, r2, r6
 793              	.LVL80:
 794              		.loc 1 568 0
 795 00e4 9053     		strh	r0, [r2, r6]	@ movhi
 796              		.loc 1 571 0
 797 00e6 2680     		strh	r6, [r4, #0]	@ movhi
ARM GAS  C:\Users\jenny\AppData\Local\Temp\ccjexqIY.s 			page 15


 798              		.loc 1 574 0
 799 00e8 905B     		ldrh	r0, [r2, r6]
 800              		.loc 1 567 0
 801 00ea 89F80410 		strb	r1, [r9, #4]
 802              		.loc 1 572 0
 803 00ee 0121     		movs	r1, #1
 804              		.loc 1 574 0
 805 00f0 B0F5C86F 		cmp	r0, #1600
 806              		.loc 1 575 0
 807 00f4 18BF     		it	ne
 808 00f6 1218     		addne	r2, r2, r0
 809              		.loc 1 569 0
 810 00f8 A9F80230 		strh	r3, [r9, #2]	@ movhi
 811              		.loc 1 577 0
 812 00fc 1A4B     		ldr	r3, .L120+4
 813              		.loc 1 572 0
 814 00fe 2171     		strb	r1, [r4, #4]
 815              		.loc 1 575 0
 816 0100 18BF     		it	ne
 817 0102 5680     		strhne	r6, [r2, #2]	@ movhi
 818              		.loc 1 577 0
 819 0104 B3F8AA20 		ldrh	r2, [r3, #170]
 820 0108 B3F8AC60 		ldrh	r6, [r3, #172]
 821              	.LVL81:
 822 010c 0832     		adds	r2, r2, #8
 823 010e B818     		adds	r0, r7, r2
 824 0110 81B2     		uxth	r1, r0
 825 0112 8E42     		cmp	r6, r1
 826 0114 A3F8AA10 		strh	r1, [r3, #170]	@ movhi
 827 0118 CED2     		bcs	.L80
 828              		.loc 1 577 0 is_stmt 0 discriminator 1
 829 011a A3F8AC10 		strh	r1, [r3, #172]	@ movhi
 830 011e CBE7     		b	.L80
 831              	.LVL82:
 832              	.L93:
 833              		.loc 1 504 0 is_stmt 1
 834 0120 0020     		movs	r0, #0
 835 0122 BDE8F883 		pop	{r3, r4, r5, r6, r7, r8, r9, pc}
 836              	.LVL83:
 837              	.L118:
 838              		.loc 1 616 0 discriminator 1
 839 0126 FFF7FEFF 		bl	port_halt
 840              	.LVL84:
 841              		.loc 1 618 0 discriminator 1
 842 012a FFF7FEFF 		bl	port_halt
 843              	.LVL85:
 844 012e CFE7     		b	.L88
 845              	.L117:
 846              		.loc 1 614 0 discriminator 1
 847 0130 FFF7FEFF 		bl	port_halt
 848              	.LVL86:
 849 0134 CAE7     		b	.L87
 850              	.L82:
 851              	.LVL87:
 852              	.LBB11:
 853              		.loc 1 595 0 discriminator 1
 854 0136 9EF80430 		ldrb	r3, [lr, #4]	@ zero_extendqisi2
ARM GAS  C:\Users\jenny\AppData\Local\Temp\ccjexqIY.s 			page 16


 855 013a 0C4E     		ldr	r6, .L120+8
 856 013c 73B1     		cbz	r3, .L85
 857              		.loc 1 595 0 is_stmt 0
 858 013e 3268     		ldr	r2, [r6, #0]
 859 0140 9645     		cmp	lr, r2
 860 0142 0BD0     		beq	.L85
 861 0144 DCF80000 		ldr	r0, [ip, #0]
 862 0148 01E0     		b	.L86
 863              	.L119:
 864              		.loc 1 595 0 discriminator 2
 865 014a 9645     		cmp	lr, r2
 866 014c 06D0     		beq	.L85
 867              	.L86:
 868              		.loc 1 607 0 is_stmt 1
 869 014e BEF800E0 		ldrh	lr, [lr, #0]
 870              	.LVL88:
 871 0152 8644     		add	lr, r0, lr
 872              	.LVL89:
 873              		.loc 1 595 0
 874 0154 9EF80410 		ldrb	r1, [lr, #4]	@ zero_extendqisi2
 875 0158 0029     		cmp	r1, #0
 876 015a F6D1     		bne	.L119
 877              	.L85:
 878              		.loc 1 609 0
 879 015c C8F800E0 		str	lr, [r8, #0]
 880 0160 ADE7     		b	.L83
 881              	.L121:
 882 0162 00BF     		.align	2
 883              	.L120:
 884 0164 00000000 		.word	.LANCHOR4
 885 0168 00000000 		.word	lwip_stats
 886 016c 00000000 		.word	.LANCHOR2
 887 0170 00000000 		.word	.LANCHOR3
 888 0174 00000000 		.word	.LANCHOR1
 889              	.LBE11:
 890              		.cfi_endproc
 891              	.LFE11:
 892              		.size	mem_malloc, .-mem_malloc
 893 0178 AFF30080 		.section	.text.mem_calloc,"ax",%progbits
 893      AFF30080 
 894              		.align	2
 895              		.p2align 4,,15
 896              		.global	mem_calloc
 897              		.thumb
 898              		.thumb_func
 899              		.type	mem_calloc, %function
 900              	mem_calloc:
 901              	.LFB12:
 902              		.loc 1 647 0
 903              		.cfi_startproc
 904              		@ args = 0, pretend = 0, frame = 0
 905              		@ frame_needed = 0, uses_anonymous_args = 0
 906              	.LVL90:
 907 0000 38B5     		push	{r3, r4, r5, lr}
 908              	.LCFI4:
 909              		.cfi_def_cfa_offset 16
 910              		.cfi_offset 3, -16
ARM GAS  C:\Users\jenny\AppData\Local\Temp\ccjexqIY.s 			page 17


 911              		.cfi_offset 4, -12
 912              		.cfi_offset 5, -8
 913              		.cfi_offset 14, -4
 914              		.loc 1 651 0
 915 0002 00FB01F4 		mul	r4, r0, r1
 916 0006 A0B2     		uxth	r0, r4
 917              	.LVL91:
 918 0008 FFF7FEFF 		bl	mem_malloc
 919              	.LVL92:
 920              		.loc 1 652 0
 921 000c 0546     		mov	r5, r0
 922 000e 18B1     		cbz	r0, .L123
 923              		.loc 1 654 0
 924 0010 0021     		movs	r1, #0
 925 0012 2246     		mov	r2, r4
 926 0014 FFF7FEFF 		bl	memset
 927              	.LVL93:
 928              	.L123:
 929              		.loc 1 657 0
 930 0018 2846     		mov	r0, r5
 931 001a 38BD     		pop	{r3, r4, r5, pc}
 932              		.cfi_endproc
 933              	.LFE12:
 934              		.size	mem_calloc, .-mem_calloc
 935              		.global	ram_heap
 936 001c AFF30080 		.section	.bss.ram_heap,"aw",%nobits
 937              		.align	2
 938              		.set	.LANCHOR0,. + 0
 939              		.type	ram_heap, %object
 940              		.size	ram_heap, 1620
 941              	ram_heap:
 942 0000 00000000 		.space	1620
 942      00000000 
 942      00000000 
 942      00000000 
 942      00000000 
 943              		.section	.bss.lfree,"aw",%nobits
 944              		.align	2
 945              		.set	.LANCHOR3,. + 0
 946              		.type	lfree, %object
 947              		.size	lfree, 4
 948              	lfree:
 949 0000 00000000 		.space	4
 950              		.section	.bss.ram_end,"aw",%nobits
 951              		.align	2
 952              		.set	.LANCHOR2,. + 0
 953              		.type	ram_end, %object
 954              		.size	ram_end, 4
 955              	ram_end:
 956 0000 00000000 		.space	4
 957              		.section	.bss.mem_mutex,"aw",%nobits
 958              		.align	2
 959              		.set	.LANCHOR4,. + 0
 960              		.type	mem_mutex, %object
 961              		.size	mem_mutex, 4
 962              	mem_mutex:
 963 0000 00000000 		.space	4
ARM GAS  C:\Users\jenny\AppData\Local\Temp\ccjexqIY.s 			page 18


 964              		.section	.bss.ram,"aw",%nobits
 965              		.align	2
 966              		.set	.LANCHOR1,. + 0
 967              		.type	ram, %object
 968              		.size	ram, 4
 969              	ram:
 970 0000 00000000 		.space	4
 971              		.text
 972              	.Letext0:
 973              		.file 2 "c:\\fbin\\yagarto\\bin\\../lib/gcc/arm-none-eabi/4.7.4/../../../../arm-none-eabi/include/
 974              		.file 3 "../../os/ports/GCC/ARMCMx/chtypes.h"
 975              		.file 4 "../../os/kernel/include/chlists.h"
 976              		.file 5 "../../os/kernel/include/chthreads.h"
 977              		.file 6 "../../os/ports/GCC/ARMCMx/chcore_v7m.h"
 978              		.file 7 "../../os/kernel/include/chsem.h"
 979              		.file 8 "../../os/kernel/include/chmtx.h"
 980              		.file 9 "../../os/various/lwip_bindings/arch/cc.h"
 981              		.file 10 "../../ext/lwip/src/include/lwip/mem.h"
 982              		.file 11 "../../ext/lwip/src/include/lwip/err.h"
 983              		.file 12 "../../os/various/lwip_bindings/arch/sys_arch.h"
 984              		.file 13 "../../ext/lwip/src/include/lwip/stats.h"
 985              		.file 14 "../../ext/lwip/src/include/lwip/sys.h"
 986              		.file 15 "../../ext/lwip/src/include/lwip/memp.h"