ARM GAS  C:\Users\jenny\AppData\Local\Temp\ccx0Iqnd.s 			page 1


   1              		.syntax unified
   2              		.cpu cortex-m4
   3              		.eabi_attribute 27, 3
   4              		.fpu fpv4-sp-d16
   5              		.eabi_attribute 20, 1
   6              		.eabi_attribute 21, 1
   7              		.eabi_attribute 23, 3
   8              		.eabi_attribute 24, 1
   9              		.eabi_attribute 25, 1
  10              		.eabi_attribute 26, 1
  11              		.eabi_attribute 30, 2
  12              		.eabi_attribute 34, 1
  13              		.eabi_attribute 18, 4
  14              		.thumb
  15              		.file	"pal_lld.c"
  16              		.text
  17              	.Ltext0:
  18              		.cfi_sections	.debug_frame
  19              		.section	.text._pal_lld_init,"ax",%progbits
  20              		.align	2
  21              		.p2align 4,,15
  22              		.global	_pal_lld_init
  23              		.thumb
  24              		.thumb_func
  25              		.type	_pal_lld_init, %function
  26              	_pal_lld_init:
  27              	.LFB119:
  28              		.file 1 "../../os/hal/platforms/STM32/GPIOv2/pal_lld.c"
  29              		.loc 1 104 0
  30              		.cfi_startproc
  31              		@ args = 0, pretend = 0, frame = 0
  32              		@ frame_needed = 0, uses_anonymous_args = 0
  33              		@ link register save eliminated.
  34              	.LVL0:
  35              		.loc 1 117 0
  36 0000 4FF46053 		mov	r3, #14336
  37 0004 C4F20203 		movt	r3, 16386
  38 0008 1A6B     		ldr	r2, [r3, #48]
  39 000a 6FEA5221 		mvn	r1, r2, lsr #9
  40 000e 6FEA4122 		mvn	r2, r1, lsl #9
  41 0012 1A63     		str	r2, [r3, #48]
  42              		.loc 1 118 0
  43 0014 196D     		ldr	r1, [r3, #80]
  44 0016 6FEA5122 		mvn	r2, r1, lsr #9
  45 001a 6FEA4221 		mvn	r1, r2, lsl #9
  46 001e 1965     		str	r1, [r3, #80]
  47              	.LVL1:
  48              	.LBB20:
  49              	.LBB21:
  50              		.loc 1 79 0
  51 0020 0023     		movs	r3, #0
  52 0022 4168     		ldr	r1, [r0, #4]
  53 0024 C4F20203 		movt	r3, 16386
  54              	.LBE21:
  55              	.LBE20:
  56              	.LBB23:
  57              	.LBB24:
ARM GAS  C:\Users\jenny\AppData\Local\Temp\ccx0Iqnd.s 			page 2


  58 0028 4FF48062 		mov	r2, #1024
  59              	.LBE24:
  60              	.LBE23:
  61              	.LBB27:
  62              	.LBB22:
  63 002c 5960     		str	r1, [r3, #4]
  64              		.loc 1 80 0
  65 002e 8168     		ldr	r1, [r0, #8]
  66 0030 9960     		str	r1, [r3, #8]
  67              		.loc 1 81 0
  68 0032 C168     		ldr	r1, [r0, #12]
  69 0034 D960     		str	r1, [r3, #12]
  70              		.loc 1 82 0
  71 0036 0169     		ldr	r1, [r0, #16]
  72 0038 5961     		str	r1, [r3, #20]
  73              		.loc 1 83 0
  74 003a 4169     		ldr	r1, [r0, #20]
  75 003c 1962     		str	r1, [r3, #32]
  76              		.loc 1 84 0
  77 003e 8169     		ldr	r1, [r0, #24]
  78 0040 5962     		str	r1, [r3, #36]
  79              		.loc 1 85 0
  80 0042 0168     		ldr	r1, [r0, #0]
  81 0044 1960     		str	r1, [r3, #0]
  82              	.LVL2:
  83              	.LBE22:
  84              	.LBE27:
  85              	.LBB28:
  86              	.LBB25:
  87              		.loc 1 79 0
  88 0046 016A     		ldr	r1, [r0, #32]
  89 0048 C4F20202 		movt	r2, 16386
  90              	.LBE25:
  91              	.LBE28:
  92              	.LBB29:
  93              	.LBB30:
  94 004c 4FF40063 		mov	r3, #2048
  95              	.LBE30:
  96              	.LBE29:
  97              	.LBB33:
  98              	.LBB26:
  99 0050 5160     		str	r1, [r2, #4]
 100              		.loc 1 80 0
 101 0052 416A     		ldr	r1, [r0, #36]
 102 0054 9160     		str	r1, [r2, #8]
 103              		.loc 1 81 0
 104 0056 816A     		ldr	r1, [r0, #40]
 105 0058 D160     		str	r1, [r2, #12]
 106              		.loc 1 82 0
 107 005a C16A     		ldr	r1, [r0, #44]
 108 005c 5161     		str	r1, [r2, #20]
 109              		.loc 1 83 0
 110 005e 016B     		ldr	r1, [r0, #48]
 111 0060 1162     		str	r1, [r2, #32]
 112              		.loc 1 84 0
 113 0062 416B     		ldr	r1, [r0, #52]
 114 0064 5162     		str	r1, [r2, #36]
ARM GAS  C:\Users\jenny\AppData\Local\Temp\ccx0Iqnd.s 			page 3


 115              		.loc 1 85 0
 116 0066 C169     		ldr	r1, [r0, #28]
 117 0068 1160     		str	r1, [r2, #0]
 118              	.LVL3:
 119              	.LBE26:
 120              	.LBE33:
 121              	.LBB34:
 122              	.LBB31:
 123              		.loc 1 79 0
 124 006a C4F20203 		movt	r3, 16386
 125 006e C26B     		ldr	r2, [r0, #60]
 126 0070 5A60     		str	r2, [r3, #4]
 127              		.loc 1 80 0
 128 0072 016C     		ldr	r1, [r0, #64]
 129 0074 9960     		str	r1, [r3, #8]
 130              		.loc 1 81 0
 131 0076 426C     		ldr	r2, [r0, #68]
 132 0078 DA60     		str	r2, [r3, #12]
 133              		.loc 1 82 0
 134 007a 816C     		ldr	r1, [r0, #72]
 135 007c 5961     		str	r1, [r3, #20]
 136              		.loc 1 83 0
 137 007e C26C     		ldr	r2, [r0, #76]
 138 0080 1A62     		str	r2, [r3, #32]
 139              		.loc 1 84 0
 140 0082 016D     		ldr	r1, [r0, #80]
 141 0084 5962     		str	r1, [r3, #36]
 142              		.loc 1 85 0
 143 0086 816B     		ldr	r1, [r0, #56]
 144              	.LBE31:
 145              	.LBE34:
 146              	.LBB35:
 147              	.LBB36:
 148              		.loc 1 79 0
 149 0088 4FF44062 		mov	r2, #3072
 150              	.LBE36:
 151              	.LBE35:
 152              	.LBB39:
 153              	.LBB32:
 154              		.loc 1 85 0
 155 008c 1960     		str	r1, [r3, #0]
 156              	.LVL4:
 157              	.LBE32:
 158              	.LBE39:
 159              	.LBB40:
 160              	.LBB37:
 161              		.loc 1 79 0
 162 008e 816D     		ldr	r1, [r0, #88]
 163 0090 C4F20202 		movt	r2, 16386
 164              	.LBE37:
 165              	.LBE40:
 166              	.LBB41:
 167              	.LBB42:
 168 0094 4FF48053 		mov	r3, #4096
 169              	.LBE42:
 170              	.LBE41:
 171              	.LBB45:
ARM GAS  C:\Users\jenny\AppData\Local\Temp\ccx0Iqnd.s 			page 4


 172              	.LBB38:
 173 0098 5160     		str	r1, [r2, #4]
 174              		.loc 1 80 0
 175 009a C16D     		ldr	r1, [r0, #92]
 176 009c 9160     		str	r1, [r2, #8]
 177              		.loc 1 81 0
 178 009e 016E     		ldr	r1, [r0, #96]
 179 00a0 D160     		str	r1, [r2, #12]
 180              		.loc 1 82 0
 181 00a2 416E     		ldr	r1, [r0, #100]
 182 00a4 5161     		str	r1, [r2, #20]
 183              		.loc 1 83 0
 184 00a6 816E     		ldr	r1, [r0, #104]
 185 00a8 1162     		str	r1, [r2, #32]
 186              		.loc 1 84 0
 187 00aa C16E     		ldr	r1, [r0, #108]
 188 00ac 5162     		str	r1, [r2, #36]
 189              		.loc 1 85 0
 190 00ae 416D     		ldr	r1, [r0, #84]
 191 00b0 1160     		str	r1, [r2, #0]
 192              	.LVL5:
 193              	.LBE38:
 194              	.LBE45:
 195              	.LBB46:
 196              	.LBB43:
 197              		.loc 1 79 0
 198 00b2 C4F20203 		movt	r3, 16386
 199 00b6 426F     		ldr	r2, [r0, #116]
 200 00b8 5A60     		str	r2, [r3, #4]
 201              		.loc 1 80 0
 202 00ba 816F     		ldr	r1, [r0, #120]
 203 00bc 9960     		str	r1, [r3, #8]
 204              		.loc 1 81 0
 205 00be C26F     		ldr	r2, [r0, #124]
 206 00c0 DA60     		str	r2, [r3, #12]
 207              		.loc 1 82 0
 208 00c2 D0F88010 		ldr	r1, [r0, #128]
 209 00c6 5961     		str	r1, [r3, #20]
 210              		.loc 1 83 0
 211 00c8 D0F88420 		ldr	r2, [r0, #132]
 212 00cc 1A62     		str	r2, [r3, #32]
 213              		.loc 1 84 0
 214 00ce D0F88810 		ldr	r1, [r0, #136]
 215 00d2 5962     		str	r1, [r3, #36]
 216              		.loc 1 85 0
 217 00d4 016F     		ldr	r1, [r0, #112]
 218              	.LBE43:
 219              	.LBE46:
 220              	.LBB47:
 221              	.LBB48:
 222              		.loc 1 79 0
 223 00d6 4FF4A052 		mov	r2, #5120
 224              	.LBE48:
 225              	.LBE47:
 226              	.LBB51:
 227              	.LBB44:
 228              		.loc 1 85 0
ARM GAS  C:\Users\jenny\AppData\Local\Temp\ccx0Iqnd.s 			page 5


 229 00da 1960     		str	r1, [r3, #0]
 230              	.LVL6:
 231              	.LBE44:
 232              	.LBE51:
 233              	.LBB52:
 234              	.LBB49:
 235              		.loc 1 79 0
 236 00dc D0F89010 		ldr	r1, [r0, #144]
 237 00e0 C4F20202 		movt	r2, 16386
 238              	.LBE49:
 239              	.LBE52:
 240              	.LBB53:
 241              	.LBB54:
 242 00e4 4FF4C053 		mov	r3, #6144
 243              	.LBE54:
 244              	.LBE53:
 245              	.LBB58:
 246              	.LBB50:
 247 00e8 5160     		str	r1, [r2, #4]
 248              		.loc 1 80 0
 249 00ea D0F89410 		ldr	r1, [r0, #148]
 250 00ee 9160     		str	r1, [r2, #8]
 251              		.loc 1 81 0
 252 00f0 D0F89810 		ldr	r1, [r0, #152]
 253 00f4 D160     		str	r1, [r2, #12]
 254              		.loc 1 82 0
 255 00f6 D0F89C10 		ldr	r1, [r0, #156]
 256 00fa 5161     		str	r1, [r2, #20]
 257              		.loc 1 83 0
 258 00fc D0F8A010 		ldr	r1, [r0, #160]
 259 0100 1162     		str	r1, [r2, #32]
 260              		.loc 1 84 0
 261 0102 D0F8A410 		ldr	r1, [r0, #164]
 262 0106 5162     		str	r1, [r2, #36]
 263              		.loc 1 85 0
 264 0108 D0F88C10 		ldr	r1, [r0, #140]
 265 010c 1160     		str	r1, [r2, #0]
 266              	.LVL7:
 267              	.LBE50:
 268              	.LBE58:
 269              	.LBB59:
 270              	.LBB55:
 271              		.loc 1 79 0
 272 010e D0F8AC10 		ldr	r1, [r0, #172]
 273 0112 C4F20203 		movt	r3, 16386
 274              	.LBE55:
 275              	.LBE59:
 276              	.LBB60:
 277              	.LBB61:
 278 0116 4FF4E052 		mov	r2, #7168
 279              	.LBE61:
 280              	.LBE60:
 281              	.LBB65:
 282              	.LBB56:
 283 011a 5960     		str	r1, [r3, #4]
 284              		.loc 1 80 0
 285 011c D0F8B010 		ldr	r1, [r0, #176]
ARM GAS  C:\Users\jenny\AppData\Local\Temp\ccx0Iqnd.s 			page 6


 286 0120 9960     		str	r1, [r3, #8]
 287              		.loc 1 81 0
 288 0122 D0F8B410 		ldr	r1, [r0, #180]
 289 0126 D960     		str	r1, [r3, #12]
 290              		.loc 1 82 0
 291 0128 D0F8B810 		ldr	r1, [r0, #184]
 292 012c 5961     		str	r1, [r3, #20]
 293              		.loc 1 83 0
 294 012e D0F8BC10 		ldr	r1, [r0, #188]
 295 0132 1962     		str	r1, [r3, #32]
 296              		.loc 1 84 0
 297 0134 D0F8C010 		ldr	r1, [r0, #192]
 298 0138 5962     		str	r1, [r3, #36]
 299              		.loc 1 85 0
 300 013a D0F8A810 		ldr	r1, [r0, #168]
 301              	.LBE56:
 302              	.LBE65:
 303              	.LBB66:
 304              	.LBB62:
 305              		.loc 1 79 0
 306 013e C4F20202 		movt	r2, 16386
 307              	.LBE62:
 308              	.LBE66:
 309              	.LBB67:
 310              	.LBB57:
 311              		.loc 1 85 0
 312 0142 1960     		str	r1, [r3, #0]
 313              	.LVL8:
 314              	.LBE57:
 315              	.LBE67:
 316              	.LBB68:
 317              	.LBB63:
 318              		.loc 1 79 0
 319 0144 D0F8C830 		ldr	r3, [r0, #200]
 320 0148 5360     		str	r3, [r2, #4]
 321              		.loc 1 80 0
 322 014a D0F8CC10 		ldr	r1, [r0, #204]
 323 014e 9160     		str	r1, [r2, #8]
 324              		.loc 1 81 0
 325 0150 D0F8D030 		ldr	r3, [r0, #208]
 326 0154 D360     		str	r3, [r2, #12]
 327              		.loc 1 82 0
 328 0156 D0F8D410 		ldr	r1, [r0, #212]
 329 015a 5161     		str	r1, [r2, #20]
 330              		.loc 1 83 0
 331 015c D0F8D830 		ldr	r3, [r0, #216]
 332 0160 1362     		str	r3, [r2, #32]
 333              		.loc 1 84 0
 334 0162 D0F8DC10 		ldr	r1, [r0, #220]
 335 0166 5162     		str	r1, [r2, #36]
 336              		.loc 1 85 0
 337 0168 D0F8C410 		ldr	r1, [r0, #196]
 338              	.LBE63:
 339              	.LBE68:
 340              	.LBB69:
 341              	.LBB70:
 342              		.loc 1 79 0
ARM GAS  C:\Users\jenny\AppData\Local\Temp\ccx0Iqnd.s 			page 7


 343 016c 4FF40053 		mov	r3, #8192
 344              	.LBE70:
 345              	.LBE69:
 346              	.LBB72:
 347              	.LBB64:
 348              		.loc 1 85 0
 349 0170 1160     		str	r1, [r2, #0]
 350              	.LVL9:
 351              	.LBE64:
 352              	.LBE72:
 353              	.LBB73:
 354              	.LBB71:
 355              		.loc 1 79 0
 356 0172 D0F8E420 		ldr	r2, [r0, #228]
 357 0176 C4F20203 		movt	r3, 16386
 358 017a 5A60     		str	r2, [r3, #4]
 359              		.loc 1 80 0
 360 017c D0F8E810 		ldr	r1, [r0, #232]
 361 0180 9960     		str	r1, [r3, #8]
 362              		.loc 1 81 0
 363 0182 D0F8EC20 		ldr	r2, [r0, #236]
 364 0186 DA60     		str	r2, [r3, #12]
 365              		.loc 1 82 0
 366 0188 D0F8F010 		ldr	r1, [r0, #240]
 367 018c 5961     		str	r1, [r3, #20]
 368              		.loc 1 83 0
 369 018e D0F8F420 		ldr	r2, [r0, #244]
 370 0192 1A62     		str	r2, [r3, #32]
 371              		.loc 1 84 0
 372 0194 D0F8F810 		ldr	r1, [r0, #248]
 373 0198 5962     		str	r1, [r3, #36]
 374              		.loc 1 85 0
 375 019a D0F8E000 		ldr	r0, [r0, #224]
 376              	.LVL10:
 377 019e 1860     		str	r0, [r3, #0]
 378 01a0 7047     		bx	lr
 379              	.LBE71:
 380              	.LBE73:
 381              		.cfi_endproc
 382              	.LFE119:
 383              		.size	_pal_lld_init, .-_pal_lld_init
 384 01a2 00BFAFF3 		.section	.text._pal_lld_setgroupmode,"ax",%progbits
 384      0080AFF3 
 384      0080AFF3 
 384      0080
 385              		.align	2
 386              		.p2align 4,,15
 387              		.global	_pal_lld_setgroupmode
 388              		.thumb
 389              		.thumb_func
 390              		.type	_pal_lld_setgroupmode, %function
 391              	_pal_lld_setgroupmode:
 392              	.LFB120:
 393              		.loc 1 161 0
 394              		.cfi_startproc
 395              		@ args = 0, pretend = 0, frame = 0
 396              		@ frame_needed = 0, uses_anonymous_args = 0
ARM GAS  C:\Users\jenny\AppData\Local\Temp\ccx0Iqnd.s 			page 8


 397              		@ link register save eliminated.
 398              	.LVL11:
 399 0000 2DE9F00F 		push	{r4, r5, r6, r7, r8, r9, sl, fp}
 400              	.LCFI0:
 401              		.cfi_def_cfa_offset 32
 402              		.cfi_offset 4, -32
 403              		.cfi_offset 5, -28
 404              		.cfi_offset 6, -24
 405              		.cfi_offset 7, -20
 406              		.cfi_offset 8, -16
 407              		.cfi_offset 9, -12
 408              		.cfi_offset 10, -8
 409              		.cfi_offset 11, -4
 410              		.loc 1 168 0
 411 0004 0023     		movs	r3, #0
 412              		.loc 1 163 0
 413 0006 02F00307 		and	r7, r2, #3
 414              	.LVL12:
 415              		.loc 1 164 0
 416 000a C2F38006 		ubfx	r6, r2, #2, #1
 417              	.LVL13:
 418              		.loc 1 165 0
 419 000e C2F3C105 		ubfx	r5, r2, #3, #2
 420              	.LVL14:
 421              		.loc 1 166 0
 422 0012 C2F34114 		ubfx	r4, r2, #5, #2
 423              	.LVL15:
 424              	.LBB74:
 425              		.loc 1 174 0
 426 0016 4FF00F09 		mov	r9, #15
 427              	.LBE74:
 428              		.loc 1 167 0
 429 001a C2F3C312 		ubfx	r2, r2, #7, #4
 430              	.LVL16:
 431              	.LBB75:
 432              		.loc 1 179 0
 433 001e 4FF0010A 		mov	sl, #1
 434 0022 38E0     		b	.L7
 435              	.LVL17:
 436              	.L12:
 437              		.loc 1 176 0
 438 0024 D0F820B0 		ldr	fp, [r0, #32]
 439 0028 2BEA0C0C 		bic	ip, fp, ip
 440              	.LVL18:
 441 002c 4CEA0808 		orr	r8, ip, r8
 442              	.LVL19:
 443 0030 C0F82080 		str	r8, [r0, #32]
 444              	.L5:
 445              	.LVL20:
 446              		.loc 1 180 0
 447 0034 D0F804B0 		ldr	fp, [r0, #4]
 448              		.loc 1 179 0
 449 0038 0AFA03FC 		lsl	ip, sl, r3
 450              		.loc 1 180 0
 451 003c 2BEA0C08 		bic	r8, fp, ip
 452 0040 48EA060B 		orr	fp, r8, r6
 453 0044 C0F804B0 		str	fp, [r0, #4]
ARM GAS  C:\Users\jenny\AppData\Local\Temp\ccx0Iqnd.s 			page 9


 454              	.LVL21:
 455              		.loc 1 159 0
 456 0048 4FEA430C 		lsl	ip, r3, #1
 457              		.loc 1 181 0
 458 004c 4FF0030B 		mov	fp, #3
 459              		.loc 1 182 0
 460 0050 D0F80880 		ldr	r8, [r0, #8]
 461              		.loc 1 181 0
 462 0054 0BFA0CFC 		lsl	ip, fp, ip
 463              	.LVL22:
 464              		.loc 1 182 0
 465 0058 6FEA0C0C 		mvn	ip, ip
 466              	.LVL23:
 467 005c 0CEA0808 		and	r8, ip, r8
 468 0060 48EA0508 		orr	r8, r8, r5
 469 0064 C0F80880 		str	r8, [r0, #8]
 470              		.loc 1 183 0
 471 0068 D0F80C80 		ldr	r8, [r0, #12]
 472 006c 0CEA0808 		and	r8, ip, r8
 473 0070 48EA0408 		orr	r8, r8, r4
 474 0074 C0F80C80 		str	r8, [r0, #12]
 475              		.loc 1 184 0
 476 0078 D0F80080 		ldr	r8, [r0, #0]
 477 007c 0CEA080C 		and	ip, ip, r8
 478              	.LVL24:
 479 0080 4CEA070C 		orr	ip, ip, r7
 480 0084 C0F800C0 		str	ip, [r0, #0]
 481              	.LVL25:
 482              	.L3:
 483              	.LBE75:
 484              		.loc 1 187 0
 485 0088 4908     		lsrs	r1, r1, #1
 486              	.LVL26:
 487 008a 1AD0     		beq	.L2
 488              		.loc 1 189 0
 489 008c 7600     		lsls	r6, r6, #1
 490              	.LVL27:
 491              		.loc 1 190 0
 492 008e AD00     		lsls	r5, r5, #2
 493              	.LVL28:
 494              		.loc 1 191 0
 495 0090 A400     		lsls	r4, r4, #2
 496              	.LVL29:
 497              		.loc 1 192 0
 498 0092 BF00     		lsls	r7, r7, #2
 499              	.LVL30:
 500              		.loc 1 193 0
 501 0094 0133     		adds	r3, r3, #1
 502              	.LVL31:
 503              	.L7:
 504              	.LBB76:
 505              		.loc 1 173 0
 506 0096 03F0070C 		and	ip, r3, #7
 507 009a 4FEA8C0C 		lsl	ip, ip, #2
 508              	.LBE76:
 509              		.loc 1 170 0
 510 009e 11F0010F 		tst	r1, #1
ARM GAS  C:\Users\jenny\AppData\Local\Temp\ccx0Iqnd.s 			page 10


 511              	.LBB77:
 512              		.loc 1 173 0
 513 00a2 02FA0CF8 		lsl	r8, r2, ip
 514              	.LVL32:
 515              		.loc 1 174 0
 516 00a6 09FA0CFC 		lsl	ip, r9, ip
 517              	.LVL33:
 518              	.LBE77:
 519              		.loc 1 170 0
 520 00aa EDD0     		beq	.L3
 521              	.LBB78:
 522              		.loc 1 175 0
 523 00ac 072B     		cmp	r3, #7
 524 00ae B9D9     		bls	.L12
 525              		.loc 1 178 0
 526 00b0 D0F824B0 		ldr	fp, [r0, #36]
 527 00b4 2BEA0C0C 		bic	ip, fp, ip
 528              	.LVL34:
 529 00b8 4CEA0808 		orr	r8, ip, r8
 530              	.LVL35:
 531 00bc C0F82480 		str	r8, [r0, #36]
 532 00c0 B8E7     		b	.L5
 533              	.L2:
 534              	.LBE78:
 535              		.loc 1 195 0
 536 00c2 BDE8F00F 		pop	{r4, r5, r6, r7, r8, r9, sl, fp}
 537 00c6 7047     		bx	lr
 538              		.cfi_endproc
 539              	.LFE120:
 540              		.size	_pal_lld_setgroupmode, .-_pal_lld_setgroupmode
 541 00c8 AFF30080 		.text
 541      AFF30080 
 542              	.Letext0:
 543              		.file 2 "c:\\fbin\\yagarto\\bin\\../lib/gcc/arm-none-eabi/4.7.4/../../../../arm-none-eabi/include/
 544              		.file 3 "../../os/hal/platforms/STM32F4xx/stm32f4xx.h"
 545              		.file 4 "../../os/hal/platforms/STM32/GPIOv2/pal_lld.h"
 546              		.file 5 "../../os/ports/common/ARMCMx/CMSIS/include/core_cm4.h"