ARM GAS  C:\Users\jenny\AppData\Local\Temp\cckYFzQm.s 			page 1


   1              		.syntax unified
   2              		.cpu cortex-m4
   3              		.eabi_attribute 27, 3
   4              		.fpu fpv4-sp-d16
   5              		.eabi_attribute 20, 1
   6              		.eabi_attribute 21, 1
   7              		.eabi_attribute 23, 3
   8              		.eabi_attribute 24, 1
   9              		.eabi_attribute 25, 1
  10              		.eabi_attribute 26, 1
  11              		.eabi_attribute 30, 2
  12              		.eabi_attribute 34, 1
  13              		.eabi_attribute 18, 4
  14              		.thumb
  15              		.file	"raw.c"
  16              		.text
  17              	.Ltext0:
  18              		.cfi_sections	.debug_frame
  19              		.section	.text.raw_input,"ax",%progbits
  20              		.align	2
  21              		.p2align 4,,15
  22              		.global	raw_input
  23              		.thumb
  24              		.thumb_func
  25              		.type	raw_input, %function
  26              	raw_input:
  27              	.LFB7:
  28              		.file 1 "../../ext/lwip/src/core/raw.c"
  29              		.loc 1 77 0
  30              		.cfi_startproc
  31              		@ args = 0, pretend = 0, frame = 0
  32              		@ frame_needed = 0, uses_anonymous_args = 0
  33              	.LVL0:
  34 0000 2DE9F047 		push	{r4, r5, r6, r7, r8, r9, sl, lr}
  35              	.LCFI0:
  36              		.cfi_def_cfa_offset 32
  37              		.cfi_offset 4, -32
  38              		.cfi_offset 5, -28
  39              		.cfi_offset 6, -24
  40              		.cfi_offset 7, -20
  41              		.cfi_offset 8, -16
  42              		.cfi_offset 9, -12
  43              		.cfi_offset 10, -8
  44              		.cfi_offset 14, -4
  45              		.loc 1 89 0
  46 0004 DFF86880 		ldr	r8, .L26+4
  47              		.loc 1 86 0
  48 0008 4368     		ldr	r3, [r0, #4]
  49              		.loc 1 89 0
  50 000a D8F80040 		ldr	r4, [r8, #0]
  51              		.loc 1 86 0
  52 000e 5E7A     		ldrb	r6, [r3, #9]	@ zero_extendqisi2
  53              		.loc 1 77 0
  54 0010 8246     		mov	sl, r0
  55              	.LVL1:
  56              		.loc 1 92 0
  57 0012 3CB3     		cbz	r4, .L2
ARM GAS  C:\Users\jenny\AppData\Local\Temp\cckYFzQm.s 			page 2


  58 0014 0025     		movs	r5, #0
  59              		.loc 1 95 0
  60 0016 DFF85C90 		ldr	r9, .L26+8
  61 001a 03E0     		b	.L6
  62              	.LVL2:
  63              	.L3:
  64              		.loc 1 122 0
  65 001c E168     		ldr	r1, [r4, #12]
  66              	.LVL3:
  67 001e 2546     		mov	r5, r4
  68              		.loc 1 92 0
  69 0020 01B3     		cbz	r1, .L2
  70              		.loc 1 122 0
  71 0022 0C46     		mov	r4, r1
  72              	.LVL4:
  73              	.L6:
  74              		.loc 1 93 0
  75 0024 207C     		ldrb	r0, [r4, #16]	@ zero_extendqisi2
  76 0026 B042     		cmp	r0, r6
  77 0028 F8D1     		bne	.L3
  78              		.loc 1 94 0 discriminator 1
  79 002a 2068     		ldr	r0, [r4, #0]
  80              		.loc 1 104 0 discriminator 1
  81 002c 0F4B     		ldr	r3, .L26
  82 002e 2146     		mov	r1, r4
  83 0030 5246     		mov	r2, sl
  84              		.loc 1 94 0 discriminator 1
  85 0032 18B1     		cbz	r0, .L4
  86 0034 D9F80070 		ldr	r7, [r9, #0]
  87 0038 B842     		cmp	r0, r7
  88 003a EFD1     		bne	.L3
  89              	.L4:
  90              		.loc 1 102 0
  91 003c D4F814C0 		ldr	ip, [r4, #20]
  92 0040 BCF1000F 		cmp	ip, #0
  93 0044 EAD0     		beq	.L3
  94              		.loc 1 104 0
  95 0046 A069     		ldr	r0, [r4, #24]
  96 0048 E047     		blx	ip
  97              	.LVL5:
  98 004a 0028     		cmp	r0, #0
  99 004c E6D0     		beq	.L3
 100              	.LVL6:
 101              		.loc 1 108 0
 102 004e 35B1     		cbz	r5, .L5
 103              		.loc 1 111 0
 104 0050 E368     		ldr	r3, [r4, #12]
 105              		.loc 1 112 0
 106 0052 D8F80020 		ldr	r2, [r8, #0]
 107              		.loc 1 111 0
 108 0056 EB60     		str	r3, [r5, #12]
 109              		.loc 1 113 0
 110 0058 C8F80040 		str	r4, [r8, #0]
 111              		.loc 1 112 0
 112 005c E260     		str	r2, [r4, #12]
 113              	.L5:
 114              	.LVL7:
ARM GAS  C:\Users\jenny\AppData\Local\Temp\cckYFzQm.s 			page 3


 115              		.loc 1 122 0
 116 005e 0120     		movs	r0, #1
 117              		.loc 1 125 0
 118 0060 BDE8F087 		pop	{r4, r5, r6, r7, r8, r9, sl, pc}
 119              	.LVL8:
 120              	.L2:
 121              		.loc 1 122 0
 122 0064 0020     		movs	r0, #0
 123 0066 BDE8F087 		pop	{r4, r5, r6, r7, r8, r9, sl, pc}
 124              	.L27:
 125 006a 00BF     		.align	2
 126              	.L26:
 127 006c 00000000 		.word	current_iphdr_src
 128 0070 00000000 		.word	.LANCHOR0
 129 0074 00000000 		.word	current_iphdr_dest
 130              		.cfi_endproc
 131              	.LFE7:
 132              		.size	raw_input, .-raw_input
 133 0078 AFF30080 		.section	.text.raw_bind,"ax",%progbits
 133      AFF30080 
 134              		.align	2
 135              		.p2align 4,,15
 136              		.global	raw_bind
 137              		.thumb
 138              		.thumb_func
 139              		.type	raw_bind, %function
 140              	raw_bind:
 141              	.LFB8:
 142              		.loc 1 143 0
 143              		.cfi_startproc
 144              		@ args = 0, pretend = 0, frame = 0
 145              		@ frame_needed = 0, uses_anonymous_args = 0
 146              		@ link register save eliminated.
 147              	.LVL9:
 148              		.loc 1 144 0
 149 0000 01B1     		cbz	r1, .L29
 150              		.loc 1 144 0 is_stmt 0 discriminator 1
 151 0002 0968     		ldr	r1, [r1, #0]
 152              	.LVL10:
 153              	.L29:
 154              		.loc 1 144 0 discriminator 3
 155 0004 0160     		str	r1, [r0, #0]
 156              		.loc 1 146 0 is_stmt 1 discriminator 3
 157 0006 0020     		movs	r0, #0
 158              	.LVL11:
 159 0008 7047     		bx	lr
 160              		.cfi_endproc
 161              	.LFE8:
 162              		.size	raw_bind, .-raw_bind
 163 000a 00BFAFF3 		.section	.text.raw_connect,"ax",%progbits
 163      0080
 164              		.align	2
 165              		.p2align 4,,15
 166              		.global	raw_connect
 167              		.thumb
 168              		.thumb_func
 169              		.type	raw_connect, %function
ARM GAS  C:\Users\jenny\AppData\Local\Temp\cckYFzQm.s 			page 4


 170              	raw_connect:
 171              	.LFB9:
 172              		.loc 1 163 0
 173              		.cfi_startproc
 174              		@ args = 0, pretend = 0, frame = 0
 175              		@ frame_needed = 0, uses_anonymous_args = 0
 176              		@ link register save eliminated.
 177              	.LVL12:
 178              		.loc 1 164 0
 179 0000 01B1     		cbz	r1, .L32
 180              		.loc 1 164 0 is_stmt 0 discriminator 1
 181 0002 0968     		ldr	r1, [r1, #0]
 182              	.LVL13:
 183              	.L32:
 184              		.loc 1 164 0 discriminator 3
 185 0004 4160     		str	r1, [r0, #4]
 186              		.loc 1 166 0 is_stmt 1 discriminator 3
 187 0006 0020     		movs	r0, #0
 188              	.LVL14:
 189 0008 7047     		bx	lr
 190              		.cfi_endproc
 191              	.LFE9:
 192              		.size	raw_connect, .-raw_connect
 193 000a 00BFAFF3 		.section	.text.raw_recv,"ax",%progbits
 193      0080
 194              		.align	2
 195              		.p2align 4,,15
 196              		.global	raw_recv
 197              		.thumb
 198              		.thumb_func
 199              		.type	raw_recv, %function
 200              	raw_recv:
 201              	.LFB10:
 202              		.loc 1 184 0
 203              		.cfi_startproc
 204              		@ args = 0, pretend = 0, frame = 0
 205              		@ frame_needed = 0, uses_anonymous_args = 0
 206              		@ link register save eliminated.
 207              	.LVL15:
 208              		.loc 1 186 0
 209 0000 4161     		str	r1, [r0, #20]
 210              		.loc 1 187 0
 211 0002 8261     		str	r2, [r0, #24]
 212 0004 7047     		bx	lr
 213              		.cfi_endproc
 214              	.LFE10:
 215              		.size	raw_recv, .-raw_recv
 216              		.section	.text.raw_sendto,"ax",%progbits
 217              		.align	2
 218              		.p2align 4,,15
 219              		.global	raw_sendto
 220              		.thumb
 221              		.thumb_func
 222              		.type	raw_sendto, %function
 223              	raw_sendto:
 224              	.LFB11:
 225              		.loc 1 204 0
ARM GAS  C:\Users\jenny\AppData\Local\Temp\cckYFzQm.s 			page 5


 226              		.cfi_startproc
 227              		@ args = 0, pretend = 0, frame = 0
 228              		@ frame_needed = 0, uses_anonymous_args = 0
 229              	.LVL16:
 230 0000 2DE9F041 		push	{r4, r5, r6, r7, r8, lr}
 231              	.LCFI1:
 232              		.cfi_def_cfa_offset 24
 233              		.cfi_offset 4, -24
 234              		.cfi_offset 5, -20
 235              		.cfi_offset 6, -16
 236              		.cfi_offset 7, -12
 237              		.cfi_offset 8, -8
 238              		.cfi_offset 14, -4
 239 0004 0D46     		mov	r5, r1
 240 0006 84B0     		sub	sp, sp, #16
 241              	.LCFI2:
 242              		.cfi_def_cfa_offset 40
 243              		.loc 1 204 0
 244 0008 0446     		mov	r4, r0
 245              		.loc 1 213 0
 246 000a 1421     		movs	r1, #20
 247              	.LVL17:
 248 000c 2846     		mov	r0, r5
 249              	.LVL18:
 250              		.loc 1 204 0
 251 000e 9046     		mov	r8, r2
 252              		.loc 1 213 0
 253 0010 FFF7FEFF 		bl	pbuf_header
 254              	.LVL19:
 255 0014 0028     		cmp	r0, #0
 256 0016 28D0     		beq	.L36
 257              		.loc 1 215 0
 258 0018 0021     		movs	r1, #0
 259 001a 0120     		movs	r0, #1
 260 001c 0A46     		mov	r2, r1
 261 001e FFF7FEFF 		bl	pbuf_alloc
 262              	.LVL20:
 263              		.loc 1 217 0
 264 0022 0746     		mov	r7, r0
 265 0024 0028     		cmp	r0, #0
 266 0026 3ED0     		beq	.L45
 267              		.loc 1 221 0
 268 0028 2B89     		ldrh	r3, [r5, #8]
 269 002a 002B     		cmp	r3, #0
 270 002c 33D1     		bne	.L57
 271              	.LVL21:
 272              	.L38:
 273              		.loc 1 236 0
 274 002e 4046     		mov	r0, r8
 275 0030 FFF7FEFF 		bl	ip_route
 276              	.LVL22:
 277 0034 0646     		mov	r6, r0
 278 0036 0028     		cmp	r0, #0
 279 0038 26D0     		beq	.L58
 280              	.L40:
 281              		.loc 1 258 0
 282 003a 2146     		mov	r1, r4
ARM GAS  C:\Users\jenny\AppData\Local\Temp\cckYFzQm.s 			page 6


 283 003c 002C     		cmp	r4, #0
 284 003e 21D0     		beq	.L42
 285              	.LVL23:
 286              		.loc 1 258 0 is_stmt 0 discriminator 1
 287 0040 2068     		ldr	r0, [r4, #0]
 288              	.LVL24:
 289 0042 F8B1     		cbz	r0, .L42
 290              	.LVL25:
 291              	.L43:
 292              		.loc 1 267 0 is_stmt 1
 293 0044 607A     		ldrb	r0, [r4, #9]	@ zero_extendqisi2
 294 0046 227C     		ldrb	r2, [r4, #16]	@ zero_extendqisi2
 295 0048 A37A     		ldrb	r3, [r4, #10]	@ zero_extendqisi2
 296 004a 8DE84500 		stmia	sp, {r0, r2, r6}
 297 004e 3846     		mov	r0, r7
 298 0050 4246     		mov	r2, r8
 299 0052 FFF7FEFF 		bl	ip_output_if
 300              	.LVL26:
 301              		.loc 1 271 0
 302 0056 AF42     		cmp	r7, r5
 303              		.loc 1 267 0
 304 0058 0446     		mov	r4, r0
 305              	.LVL27:
 306              		.loc 1 271 0
 307 005a 02D0     		beq	.L37
 308              		.loc 1 273 0
 309 005c 3846     		mov	r0, r7
 310              	.LVL28:
 311 005e FFF7FEFF 		bl	pbuf_free
 312              	.LVL29:
 313              	.L37:
 314 0062 60B2     		sxtb	r0, r4
 315              		.loc 1 276 0
 316 0064 04B0     		add	sp, sp, #16
 317 0066 BDE8F081 		pop	{r4, r5, r6, r7, r8, pc}
 318              	.LVL30:
 319              	.L36:
 320              		.loc 1 230 0
 321 006a 2846     		mov	r0, r5
 322 006c 6FF01301 		mvn	r1, #19
 323 0070 FFF7FEFF 		bl	pbuf_header
 324              	.LVL31:
 325 0074 98B9     		cbnz	r0, .L59
 326              		.loc 1 236 0
 327 0076 4046     		mov	r0, r8
 328 0078 FFF7FEFF 		bl	ip_route
 329              	.LVL32:
 330 007c 0646     		mov	r6, r0
 331 007e 40B1     		cbz	r0, .L56
 332 0080 2F46     		mov	r7, r5
 333 0082 DAE7     		b	.L40
 334              	.LVL33:
 335              	.L42:
 336              		.loc 1 260 0
 337 0084 311D     		adds	r1, r6, #4
 338              	.LVL34:
 339 0086 DDE7     		b	.L43
ARM GAS  C:\Users\jenny\AppData\Local\Temp\cckYFzQm.s 			page 7


 340              	.LVL35:
 341              	.L58:
 342              		.loc 1 240 0
 343 0088 BD42     		cmp	r5, r7
 344 008a 02D0     		beq	.L56
 345              		.loc 1 241 0
 346 008c 3846     		mov	r0, r7
 347              	.LVL36:
 348 008e FFF7FEFF 		bl	pbuf_free
 349              	.LVL37:
 350              	.L56:
 351              		.loc 1 243 0
 352 0092 FC24     		movs	r4, #252
 353              	.LVL38:
 354 0094 E5E7     		b	.L37
 355              	.LVL39:
 356              	.L57:
 357              		.loc 1 223 0
 358 0096 2946     		mov	r1, r5
 359 0098 FFF7FEFF 		bl	pbuf_chain
 360              	.LVL40:
 361 009c C7E7     		b	.L38
 362              	.LVL41:
 363              	.L59:
 364              		.loc 1 231 0 discriminator 1
 365 009e FFF7FEFF 		bl	port_halt
 366              	.LVL42:
 367              		.loc 1 232 0 discriminator 1
 368 00a2 FF24     		movs	r4, #255
 369              	.LVL43:
 370 00a4 DDE7     		b	.L37
 371              	.LVL44:
 372              	.L45:
 373              		.loc 1 219 0
 374 00a6 FF24     		movs	r4, #255
 375              	.LVL45:
 376 00a8 DBE7     		b	.L37
 377              		.cfi_endproc
 378              	.LFE11:
 379              		.size	raw_sendto, .-raw_sendto
 380 00aa 00BFAFF3 		.section	.text.raw_send,"ax",%progbits
 380      0080
 381              		.align	2
 382              		.p2align 4,,15
 383              		.global	raw_send
 384              		.thumb
 385              		.thumb_func
 386              		.type	raw_send, %function
 387              	raw_send:
 388              	.LFB12:
 389              		.loc 1 287 0
 390              		.cfi_startproc
 391              		@ args = 0, pretend = 0, frame = 0
 392              		@ frame_needed = 0, uses_anonymous_args = 0
 393              		@ link register save eliminated.
 394              	.LVL46:
 395              		.loc 1 288 0
ARM GAS  C:\Users\jenny\AppData\Local\Temp\cckYFzQm.s 			page 8


 396 0000 021D     		adds	r2, r0, #4
 397              		.loc 1 289 0
 398              		.loc 1 288 0
 399 0002 FFF7FEBF 		b	raw_sendto
 400              	.LVL47:
 401              		.cfi_endproc
 402              	.LFE12:
 403              		.size	raw_send, .-raw_send
 404 0006 00BFAFF3 		.section	.text.raw_remove,"ax",%progbits
 404      0080AFF3 
 404      0080
 405              		.align	2
 406              		.p2align 4,,15
 407              		.global	raw_remove
 408              		.thumb
 409              		.thumb_func
 410              		.type	raw_remove, %function
 411              	raw_remove:
 412              	.LFB13:
 413              		.loc 1 301 0
 414              		.cfi_startproc
 415              		@ args = 0, pretend = 0, frame = 0
 416              		@ frame_needed = 0, uses_anonymous_args = 0
 417              		@ link register save eliminated.
 418              	.LVL48:
 419              		.loc 1 304 0
 420 0000 0B4B     		ldr	r3, .L76
 421 0002 1A68     		ldr	r2, [r3, #0]
 422 0004 8242     		cmp	r2, r0
 423              		.loc 1 301 0
 424 0006 0146     		mov	r1, r0
 425              		.loc 1 304 0
 426 0008 0FD0     		beq	.L62
 427              	.LVL49:
 428              		.loc 1 309 0 discriminator 1
 429 000a 1AB9     		cbnz	r2, .L73
 430 000c 05E0     		b	.L65
 431              	.LVL50:
 432              	.L75:
 433              		.loc 1 311 0 discriminator 1
 434 000e 8142     		cmp	r1, r0
 435 0010 06D0     		beq	.L74
 436              	.L66:
 437              		.loc 1 301 0
 438 0012 0246     		mov	r2, r0
 439              	.L73:
 440              		.loc 1 311 0
 441 0014 D068     		ldr	r0, [r2, #12]
 442 0016 0028     		cmp	r0, #0
 443 0018 F9D1     		bne	.L75
 444              	.L65:
 445              		.loc 1 317 0
 446 001a 0020     		movs	r0, #0
 447              		.loc 1 318 0
 448              		.loc 1 317 0
 449 001c FFF7FEBF 		b	memp_free
 450              	.LVL51:
ARM GAS  C:\Users\jenny\AppData\Local\Temp\cckYFzQm.s 			page 9


 451              	.L74:
 452              		.loc 1 313 0
 453 0020 C868     		ldr	r0, [r1, #12]
 454 0022 D060     		str	r0, [r2, #12]
 455              	.LVL52:
 456              		.loc 1 309 0
 457 0024 0028     		cmp	r0, #0
 458 0026 F4D1     		bne	.L66
 459 0028 F7E7     		b	.L65
 460              	.LVL53:
 461              	.L62:
 462              		.loc 1 306 0
 463 002a C068     		ldr	r0, [r0, #12]
 464              	.LVL54:
 465 002c 1860     		str	r0, [r3, #0]
 466 002e F4E7     		b	.L65
 467              	.L77:
 468              		.align	2
 469              	.L76:
 470 0030 00000000 		.word	.LANCHOR0
 471              		.cfi_endproc
 472              	.LFE13:
 473              		.size	raw_remove, .-raw_remove
 474 0034 AFF30080 		.section	.text.raw_new,"ax",%progbits
 474      AFF30080 
 474      AFF30080 
 475              		.align	2
 476              		.p2align 4,,15
 477              		.global	raw_new
 478              		.thumb
 479              		.thumb_func
 480              		.type	raw_new, %function
 481              	raw_new:
 482              	.LFB14:
 483              		.loc 1 332 0
 484              		.cfi_startproc
 485              		@ args = 0, pretend = 0, frame = 0
 486              		@ frame_needed = 0, uses_anonymous_args = 0
 487              	.LVL55:
 488 0000 38B5     		push	{r3, r4, r5, lr}
 489              	.LCFI3:
 490              		.cfi_def_cfa_offset 16
 491              		.cfi_offset 3, -16
 492              		.cfi_offset 4, -12
 493              		.cfi_offset 5, -8
 494              		.cfi_offset 14, -4
 495              		.loc 1 332 0
 496 0002 0546     		mov	r5, r0
 497              		.loc 1 337 0
 498 0004 0020     		movs	r0, #0
 499              	.LVL56:
 500 0006 FFF7FEFF 		bl	memp_malloc
 501              	.LVL57:
 502              		.loc 1 339 0
 503 000a 0446     		mov	r4, r0
 504 000c 50B1     		cbz	r0, .L79
 505              		.loc 1 341 0
ARM GAS  C:\Users\jenny\AppData\Local\Temp\cckYFzQm.s 			page 10


 506 000e 1C22     		movs	r2, #28
 507 0010 0021     		movs	r1, #0
 508 0012 FFF7FEFF 		bl	memset
 509              	.LVL58:
 510              		.loc 1 344 0
 511 0016 044B     		ldr	r3, .L83
 512              		.loc 1 342 0
 513 0018 2574     		strb	r5, [r4, #16]
 514              		.loc 1 344 0
 515 001a 1A68     		ldr	r2, [r3, #0]
 516              		.loc 1 345 0
 517 001c 1C60     		str	r4, [r3, #0]
 518              		.loc 1 343 0
 519 001e FF20     		movs	r0, #255
 520 0020 A072     		strb	r0, [r4, #10]
 521              		.loc 1 344 0
 522 0022 E260     		str	r2, [r4, #12]
 523              	.L79:
 524              		.loc 1 348 0
 525 0024 2046     		mov	r0, r4
 526 0026 38BD     		pop	{r3, r4, r5, pc}
 527              	.L84:
 528              		.align	2
 529              	.L83:
 530 0028 00000000 		.word	.LANCHOR0
 531              		.cfi_endproc
 532              	.LFE14:
 533              		.size	raw_new, .-raw_new
 534 002c AFF30080 		.section	.bss.raw_pcbs,"aw",%nobits
 535              		.align	2
 536              		.set	.LANCHOR0,. + 0
 537              		.type	raw_pcbs, %object
 538              		.size	raw_pcbs, 4
 539              	raw_pcbs:
 540 0000 00000000 		.space	4
 541              		.text
 542              	.Letext0:
 543              		.file 2 "c:\\fbin\\yagarto\\bin\\../lib/gcc/arm-none-eabi/4.7.4/../../../../arm-none-eabi/include/
 544              		.file 3 "../../os/various/lwip_bindings/arch/cc.h"
 545              		.file 4 "../../ext/lwip/src/include/lwip/memp.h"
 546              		.file 5 "../../ext/lwip/src/include/ipv4/lwip/ip_addr.h"
 547              		.file 6 "../../ext/lwip/src/include/lwip/err.h"
 548              		.file 7 "../../ext/lwip/src/include/lwip/pbuf.h"
 549              		.file 8 "../../ext/lwip/src/include/lwip/netif.h"
 550              		.file 9 "../../ext/lwip/src/include/ipv4/lwip/ip.h"
 551              		.file 10 "../../ext/lwip/src/include/lwip/raw.h"
 552              		.file 11 "../../os/ports/GCC/ARMCMx/chcore_v7m.h"