ARM GAS  C:\Users\jenny\AppData\Local\Temp\cckYFzQm.s 			page 1


   1              		.syntax unified
   2              		.cpu cortex-m4
   3              		.eabi_attribute 27, 3
   4              		.fpu fpv4-sp-d16
   5              		.eabi_attribute 20, 1
   6              		.eabi_attribute 21, 1
   7              		.eabi_attribute 23, 3
   8              		.eabi_attribute 24, 1
   9              		.eabi_attribute 25, 1
  10              		.eabi_attribute 26, 1
  11              		.eabi_attribute 30, 2
  12              		.eabi_attribute 34, 1
  13              		.eabi_attribute 18, 4
  14              		.thumb
  15              		.file	"raw.c"
  16              		.text
  17              	.Ltext0:
  18              		.cfi_sections	.debug_frame
  19              		.section	.text.raw_input,"ax",%progbits
  20              		.align	2
  21              		.p2align 4,,15
  22              		.global	raw_input
  23              		.thumb
  24              		.thumb_func
  25              		.type	raw_input, %function
  26              	raw_input:
  27              	.LFB7:
  28              		.file 1 "../../ext/lwip/src/core/raw.c"
  29              		.loc 1 77 0
  30              		.cfi_startproc
  31              		@ args = 0, pretend = 0, frame = 0
  32              		@ frame_needed = 0, uses_anonymous_args = 0
  33              	.LVL0:
  34 0000 2DE9F047 		push	{r4, r5, r6, r7, r8, r9, sl, lr}
  35              	.LCFI0:
  36              		.cfi_def_cfa_offset 32
  37              		.cfi_offset 4, -32
  38              		.cfi_offset 5, -28
  39              		.cfi_offset 6, -24
  40              		.cfi_offset 7, -20
  41              		.cfi_offset 8, -16
  42              		.cfi_offset 9, -12
  43              		.cfi_offset 10, -8
  44              		.cfi_offset 14, -4
  45              		.loc 1 89 0
  46 0004 DFF86880 		ldr	r8, .L26+4
  47              		.loc 1 86 0
  48 0008 4368     		ldr	r3, [r0, #4]
  49              		.loc 1 89 0
  50 000a D8F80040 		ldr	r4, [r8, #0]
  51              		.loc 1 86 0
  52 000e 5E7A     		ldrb	r6, [r3, #9]	@ zero_extendqisi2
  53              		.loc 1 77 0
  54 0010 8246     		mov	sl, r0
  55              	.LVL1:
  56              		.loc 1 92 0
  57 0012 3CB3     		cbz	r4, .L2
ARM GAS  C:\Users\jenny\AppData\Local\Temp\cckYFzQm.s 			page 2


  58 0014 0025     		movs	r5, #0
  59              		.loc 1 95 0
  60 0016 DFF85C90 		ldr	r9, .L26+8
  61 001a 03E0     		b	.L6
  62              	.LVL2:
  63              	.L3:
  64              		.loc 1 122 0
  65 001c E168     		ldr	r1, [r4, #12]
  66              	.LVL3:
  67 001e 2546     		mov	r5, r4
  68              		.loc 1 92 0
  69 0020 01B3     		cbz	r1, .L2
  70              		.loc 1 122 0
  71 0022 0C46     		mov	r4, r1
  72              	.LVL4:
  73              	.L6:
  74              		.loc 1 93 0
  75 0024 207C     		ldrb	r0, [r4, #16]	@ zero_extendqisi2
  76 0026 B042     		cmp	r0, r6
  77 0028 F8D1     		bne	.L3
  78              		.loc 1 94 0 discriminator 1
  79 002a 2068     		ldr	r0, [r4, #0]
  80              		.loc 1 104 0 discriminator 1
  81 002c 0F4B     		ldr	r3, .L26
  82 002e 2146     		mov	r1, r4
  83 0030 5246     		mov	r2, sl
  84              		.loc 1 94 0 discriminator 1
  85 0032 18B1     		cbz	r0, .L4
  86 0034 D9F80070 		ldr	r7, [r9, #0]
  87 0038 B842     		cmp	r0, r7
  88 003a EFD1     		bne	.L3
  89              	.L4:
  90              		.loc 1 102 0
  91 003c D4F814C0 		ldr	ip, [r4, #20]
  92 0040 BCF1000F 		cmp	ip, #0
  93 0044 EAD0     		beq	.L3
  94              		.loc 1 104 0
  95 0046 A069     		ldr	r0, [r4, #24]
  96 0048 E047     		blx	ip
  97              	.LVL5:
  98 004a 0028     		cmp	r0, #0
  99 004c E6D0     		beq	.L3
 100              	.LVL6:
 101              		.loc 1 108 0
 102 004e 35B1     		cbz	r5, .L5
 103              		.loc 1 111 0
 104 0050 E368     		ldr	r3, [r4, #12]
 105              		.loc 1 112 0
 106 0052 D8F80020 		ldr	r2, [r8, #0]
 107              		.loc 1 111 0
 108 0056 EB60     		str	r3, [r5, #12]
 109              		.loc 1 113 0
 110 0058 C8F80040 		str	r4, [r8, #0]
 111              		.loc 1 112 0
 112 005c E260     		str	r2, [r4, #12]
 113              	.L5:
 114              	.LVL7:
ARM GAS  C:\Users\jenny\AppData\Local\Temp\cckYFzQm.s 			page 3


 115              		.loc 1 122 0
 116 005e 0120     		movs	r0, #1
 117              		.loc 1 125 0
 118 0060 BDE8F087 		pop	{r4, r5, r6, r7, r8, r9, sl, pc}
 119              	.LVL8:
 120              	.L2:
 121              		.loc 1 122 0
 122 0064 0020     		movs	r0, #0
 123 0066 BDE8F087 		pop	{r4, r5, r6, r7, r8, r9, sl, pc}
 124              	.L27:
 125 006a 00BF     		.align	2
 126              	.L26:
 127 006c 00000000 		.word	current_iphdr_src
 128 0070 00000000 		.word	.LANCHOR0
 129 0074 00000000 		.word	current_iphdr_dest
 130              		.cfi_endproc
 131              	.LFE7:
 132              		.size	raw_input, .-raw_input
 133 0078 AFF30080 		.section	.text.raw_bind,"ax",%progbits
 133      AFF30080 
 134              		.align	2
 135              		.p2align 4,,15
 136              		.global	raw_bind
 137              		.thumb
 138              		.thumb_func
 139              		.type	raw_bind, %function
 140              	raw_bind:
 141              	.LFB8:
 142              		.loc 1 143 0
 143              		.cfi_startproc
 144              		@ args = 0, pretend = 0, frame = 0
 145              		@ frame_needed = 0, uses_anonymous_args = 0
 146              		@ link register save eliminated.
 147              	.LVL9:
 148              		.loc 1 144 0
 149 0000 01B1     		cbz	r1, .L29
 150              		.loc 1 144 0 is_stmt 0 discriminator 1
 151 0002 0968     		ldr	r1, [r1, #0]
 152              	.LVL10:
 153              	.L29:
 154              		.loc 1 144 0 discriminator 3
 155 0004 0160     		str	r1, [r0, #0]
 156              		.loc 1 146 0 is_stmt 1 discriminator 3
 157 0006 0020     		movs	r0, #0
 158              	.LVL11:
 159 0008 7047     		bx	lr
 160              		.cfi_endproc
 161              	.LFE8:
 162              		.size	raw_bind, .-raw_bind
 163 000a 00BFAFF3 		.section	.text.raw_connect,"ax",%progbits
 163      0080
 164              		.align	2
 165              		.p2align 4,,15
 166              		.global	raw_connect
 167              		.thumb
 168              		.thumb_func
 169              		.type	raw_connect, %function
ARM GAS  C:\Users\jenny\AppData\Local\Temp\cckYFzQm.s 			page 4


 170              	raw_connect:
 171              	.LFB9:
 172              		.loc 1 163 0
 173              		.cfi_startproc
 174              		@ args = 0, pretend = 0, frame = 0
 175              		@ frame_needed = 0, uses_anonymous_args = 0
 176              		@ link register save eliminated.
 177              	.LVL12:
 178              		.loc 1 164 0
 179 0000 01B1     		cbz	r1, .L32
 180              		.loc 1 164 0 is_stmt 0 discriminator 1
 181 0002 0968     		ldr	r1, [r1, #0]
 182              	.LVL13:
 183              	.L32:
 184              		.loc 1 164 0 discriminator 3
 185 0004 4160     		str	r1, [r0, #4]
 186              		.loc 1 166 0 is_stmt 1 discriminator 3
 187 0006 0020     		movs	r0, #0
 188              	.LVL14:
 189 0008 7047     		bx	lr
 190              		.cfi_endproc
 191              	.LFE9:
 192              		.size	raw_connect, .-raw_connect
 193 000a 00BFAFF3 		.section	.text.raw_recv,"ax",%progbits
 193      0080
 194              		.align	2
 195              		.p2align 4,,15
 196              		.global	raw_recv
 197              		.thumb
 198              		.thumb_func
 199              		.type	raw_recv, %function
 200              	raw_recv:
 201              	.LFB10:
 202              		.loc 1 184 0
 203              		.cfi_startproc
 204              		@ args = 0, pretend = 0, frame = 0
 205              		@ frame_needed = 0, uses_anonymous_args = 0
 206              		@ link register save eliminated.
 207              	.LVL15:
 208              		.loc 1 186 0
 209 0000 4161     		str	r1, [r0, #20]
 210              		.loc 1 187 0
 211 0002 8261     		str	r2, [r0, #24]
 212 0004 7047     		bx	lr
 213              		.cfi_endproc
 214              	.LFE10:
 215              		.size	raw_recv, .-raw_recv
 216              		.section	.text.raw_sendto,"ax",%progbits
 217              		.align	2
 218              		.p2align 4,,15
 219              		.global	raw_sendto
 220              		.thumb
 221              		.thumb_func
 222              		.type	raw_sendto, %function
 223              	raw_sendto:
 224              	.LFB11:
 225              		.loc 1 204 0
ARM GAS  C:\Users\jenny\AppData\Local\Temp\cckYFzQm.s 			page 5


 226              		.cfi_startproc
 227              		@ args = 0, pretend = 0, frame = 0
 228              		@ frame_needed = 0, uses_anonymous_args = 0
 229              	.LVL16:
 230 0000 2DE9F041 		push	{r4, r5, r6, r7, r8, lr}
 231              	.LCFI1:
 232              		.cfi_def_cfa_offset 24
 233              		.cfi_offset 4, -24
 234              		.cfi_offset 5, -20
 235              		.cfi_offset 6, -16
 236              		.cfi_offset 7, -12
 237              		.cfi_offset 8, -8
 238              		.cfi_offset 14, -4
 239 0004 0D46     		mov	r5, r1
 240 0006 84B0     		sub	sp, sp, #16
 241              	.LCFI2:
 242              		.cfi_def_cfa_offset 40
 243              		.loc 1 204 0
 244 0008 0446     		mov	r4, r0
 245              		.loc 1 213 0
 246 000a 1421     		movs	r1, #20
 247              	.LVL17:
 248 000c 2846     		mov	r0, r5
 249              	.LVL18:
 250              		.loc 1 204 0
 251 000e 9046     		mov	r8, r2
 252              		.loc 1 213 0
 253 0010 FFF7FEFF 		bl	pbuf_header
 254              	.LVL19:
 255 0014 0028     		cmp	r0, #0
 256 0016 28D0     		beq	.L36
 257              		.loc 1 215 0
 258 0018 0021     		movs	r1, #0
 259 001a 0120     		movs	r0, #1
 260 001c 0A46     		mov	r2, r1
 261 001e FFF7FEFF 		bl	pbuf_alloc
 262              	.LVL20:
 263              		.loc 1 217 0
 264 0022 0746     		mov	r7, r0
 265 0024 0028     		cmp	r0, #0
 266 0026 3ED0     		beq	.L45
 267              		.loc 1 221 0
 268 0028 2B89     		ldrh	r3, [r5, #8]
 269 002a 002B     		cmp	r3, #0
 270 002c 33D1     		bne	.L57
 271              	.LVL21:
 272              	.L38:
 273              		.loc 1 236 0
 274 002e 4046     		mov	r0, r8
 275 0030 FFF7FEFF 		bl	ip_route
 276              	.LVL22:
 277 0034 0646     		mov	r6, r0
 278 0036 0028     		cmp	r0, #0
 279 0038 26D0     		beq	.L58
 280              	.L40:
 281              		.loc 1 258 0
 282 003a 2146     		mov	r1, r4
ARM GAS  C:\Users\jenny\AppData\Local\Temp\cckYFzQm.s 			page 6


 283 003c 002C     		cmp	r4, #0
 284 003e 21D0     		beq	.L42
 285              	.LVL23:
 286              		.loc 1 258 0 is_stmt 0 discriminator 1
 287 0040 2068     		ldr	r0, [r4, #0]
 288              	.LVL24:
 289 0042 F8B1     		cbz	r0, .L42
 290              	.LVL25:
 291              	.L43:
 292              		.loc 1 267 0 is_stmt 1
 293 0044 607A     		ldrb	r0, [r4, #9]	@ zero_extendqisi2
 294 0046 227C     		ldrb	r2, [r4, #16]	@ zero_extendqisi2
 295 0048 A37A     		ldrb	r3, [r4, #10]	@ zero_extendqisi2
 296 004a 8DE84500 		stmia	sp, {r0, r2, r6}
 297 004e 3846     		mov	r0, r7
 298 0050 4246     		mov	r2, r8
 299 0052 FFF7FEFF 		bl	ip_output_if
 300              	.LVL26:
 301              		.loc 1 271 0
 302 0056 AF42     		cmp	r7, r5
 303              		.loc 1 267 0
 304 0058 0446     		mov	r4, r0
 305              	.LVL27:
 306              		.loc 1 271 0
 307 005a 02D0     		beq	.L37
 308              		.loc 1 273 0
 309 005c 3846     		mov	r0, r7
 310              	.LVL28:
 311 005e FFF7FEFF 		bl	pbuf_free
 312              	.LVL29:
 313              	.L37:
 314 0062 60B2     		sxtb	r0, r4
 315              		.loc 1 276 0
 316 0064 04B0     		add	sp, sp, #16
 317 0066 BDE8F081 		pop	{r4, r5, r6, r7, r8, pc}
 318              	.LVL30:
 319              	.L36:
 320              		.loc 1 230 0
 321 006a 2846     		mov	r0, r5
 322 006c 6FF01301 		mvn	r1, #19
 323 0070 FFF7FEFF 		bl	pbuf_header
 324              	.LVL31:
 325 0074 98B9     		cbnz	r0, .L59
 326              		.loc 1 236 0
 327 0076 4046     		mov	r0, r8
 328 0078 FFF7FEFF 		bl	ip_route
 329              	.LVL32:
 330 007c 0646     		mov	r6, r0
 331 007e 40B1     		cbz	r0, .L56
 332 0080 2F46     		mov	r7, r5
 333 0082 DAE7     		b	.L40
 334              	.LVL33:
 335              	.L42:
 336              		.loc 1 260 0
 337 0084 311D     		adds	r1, r6, #4
 338              	.LVL34:
 339 0086 DDE7     		b	.L43
ARM GAS  C:\Users\jenny\AppData\Local\Temp\cckYFzQm.s 			page 7


 340              	.LVL35:
 341              	.L58:
 342              		.loc 1 240 0
 343 0088 BD42     		cmp	r5, r7
 344 008a 02D0     		beq	.L56
 345              		.loc 1 241 0
 346 008c 3846     		mov	r0, r7
 347              	.LVL36:
 348 008e FFF7FEFF 		bl	pbuf_free
 349              	.LVL37:
 350              	.L56:
 351              		.loc 1 243 0
 352 0092 FC24     		movs	r4, #252
 353              	.LVL38:
 354 0094 E5E7     		b	.L37
 355              	.LVL39:
 356              	.L57:
 357              		.loc 1 223 0
 358 0096 2946     		mov	r1, r5
 359 0098 FFF7FEFF 		bl	pbuf_chain
 360              	.LVL40:
 361 009c C7E7     		b	.L38
 362              	.LVL41:
 363              	.L59:
 364              		.loc 1 231 0 discriminator 1
 365 009e FFF7FEFF 		bl	port_halt
 366              	.LVL42:
 367              		.loc 1 232 0 discriminator 1
 368 00a2 FF24     		movs	r4, #255
 369              	.LVL43:
 370 00a4 DDE7     		b	.L37
 371              	.LVL44:
 372              	.L45:
 373              		.loc 1 219 0
 374 00a6 FF24     		movs	r4, #255
 375              	.LVL45:
 376 00a8 DBE7     		b	.L37
 377              		.cfi_endproc
 378              	.LFE11:
 379              		.size	raw_sendto, .-raw_sendto
 380 00aa 00BFAFF3 		.section	.text.raw_send,"ax",%progbits
 380      0080
 381              		.align	2
 382              		.p2align 4,,15
 383              		.global	raw_send
 384              		.thumb
 385              		.thumb_func
 386              		.type	raw_send, %function
 387              	raw_send:
 388              	.LFB12:
 389              		.loc 1 287 0
 390              		.cfi_startproc
 391              		@ args = 0, pretend = 0, frame = 0
 392              		@ frame_needed = 0, uses_anonymous_args = 0
 393              		@ link register save eliminated.
 394              	.LVL46:
 395              		.loc 1 288 0
ARM GAS  C:\Users\jenny\AppData\Local\Temp\cckYFzQm.s 			page 8


 396 0000 021D     		adds	r2, r0, #4
 397              		.loc 1 289 0
 398              		.loc 1 288 0
 399 0002 FFF7FEBF 		b	raw_sendto
 400              	.LVL47:
 401              		.cfi_endproc
 402              	.LFE12:
 403              		.size	raw_send, .-raw_send
 404 0006 00BFAFF3 		.section	.text.raw_remove,"ax",%progbits
 404      0080AFF3 
 404      0080
 405              		.align	2
 406              		.p2align 4,,15
 407              		.global	raw_remove
 408              		.thumb
 409              		.thumb_func
 410              		.type	raw_remove, %function
 411              	raw_remove:
 412              	.LFB13:
 413              		.loc 1 301 0
 414              		.cfi_startproc
 415              		@ args = 0, pretend = 0, frame = 0
 416              		@ frame_needed = 0, uses_anonymous_args = 0
 417              		@ link register save eliminated.
 418              	.LVL48:
 419              		.loc 1 304 0
 420 0000 0B4B     		ldr	r3, .L76
 421 0002 1A68     		ldr	r2, [r3, #0]
 422 0004 8242     		cmp	r2, r0
 423              		.loc 1 301 0
 424 0006 0146     		mov	r1, r0
 425              		.loc 1 304 0
 426 0008 0FD0     		beq	.L62
 427              	.LVL49:
 428              		.loc 1 309 0 discriminator 1
 429 000a 1AB9     		cbnz	r2, .L73
 430 000c 05E0     		b	.L65
 431              	.LVL50:
 432              	.L75:
 433              		.loc 1 311 0 discriminator 1
 434 000e 8142     		cmp	r1, r0
 435 0010 06D0     		beq	.L74
 436              	.L66:
 437              		.loc 1 301 0
 438 0012 0246     		mov	r2, r0
 439              	.L73:
 440              		.loc 1 311 0
 441 0014 D068     		ldr	r0, [r2, #12]
 442 0016 0028     		cmp	r0, #0
 443 0018 F9D1     		bne	.L75
 444              	.L65:
 445              		.loc 1 317 0
 446 001a 0020     		movs	r0, #0
 447              		.loc 1 318 0
 448              		.loc 1 317 0
 449 001c FFF7FEBF 		b	memp_free
 450              	.LVL51:
ARM GAS  C:\Users\jenny\AppData\Local\Temp\cckYFzQm.s 			page 9


 451              	.L74:
 452              		.loc 1 313 0
 453 0020 C868     		ldr	r0, [r1, #12]
 454 0022 D060     		str	r0, [r2, #12]
 455              	.LVL52:
 456              		.loc 1 309 0
 457 0024 0028     		cmp	r0, #0
 458 0026 F4D1     		bne	.L66
 459 0028 F7E7     		b	.L65
 460              	.LVL53:
 461              	.L62:
 462              		.loc 1 306 0
 463 002a C068     		ldr	r0, [r0, #12]
 464              	.LVL54:
 465 002c 1860     		str	r0, [r3, #0]
 466 002e F4E7     		b	.L65
 467              	.L77:
 468              		.align	2
 469              	.L76:
 470 0030 00000000 		.word	.LANCHOR0
 471              		.cfi_endproc
 472              	.LFE13:
 473              		.size	raw_remove, .-raw_remove
 474 0034 AFF30080 		.section	.text.raw_new,"ax",%progbits
 474      AFF30080 
 474      AFF30080 
 475              		.align	2
 476              		.p2align 4,,15
 477              		.global	raw_new
 478              		.thumb
 479              		.thumb_func
 480              		.type	raw_new, %function
 481              	raw_new:
 482              	.LFB14:
 483              		.loc 1 332 0
 484              		.cfi_startproc
 485              		@ args = 0, pretend = 0, frame = 0
 486              		@ frame_needed = 0, uses_anonymous_args = 0
 487              	.LVL55:
 488 0000 38B5     		push	{r3, r4, r5, lr}
 489              	.LCFI3:
 490              		.cfi_def_cfa_offset 16
 491              		.cfi_offset 3, -16
 492              		.cfi_offset 4, -12
 493              		.cfi_offset 5, -8
 494              		.cfi_offset 14, -4
 495              		.loc 1 332 0
 496 0002 0546     		mov	r5, r0
 497              		.loc 1 337 0
 498 0004 0020     		movs	r0, #0
 499              	.LVL56:
 500 0006 FFF7FEFF 		bl	memp_malloc
 501              	.LVL57:
 502              		.loc 1 339 0
 503 000a 0446     		mov	r4, r0
 504 000c 50B1     		cbz	r0, .L79
 505              		.loc 1 341 0
ARM GAS  C:\Users\jenny\AppData\Local\Temp\cckYFzQm.s 			page 10


 506 000e 1C22     		movs	r2, #28
 507 0010 0021     		movs	r1, #0
 508 0012 FFF7FEFF 		bl	memset
 509              	.LVL58:
 510              		.loc 1 344 0
 511 0016 044B     		ldr	r3, .L83
 512              		.loc 1 342 0
 513 0018 2574     		strb	r5, [r4, #16]
 514              		.loc 1 344 0
 515 001a 1A68     		ldr	r2, [r3, #0]
 516              		.loc 1 345 0
 517 001c 1C60     		str	r4, [r3, #0]
 518              		.loc 1 343 0
 519 001e FF20     		movs	r0, #255
 520 0020 A072     		strb	r0, [r4, #10]
 521              		.loc 1 344 0
 522 0022 E260     		str	r2, [r4, #12]
 523              	.L79:
 524              		.loc 1 348 0
 525 0024 2046     		mov	r0, r4
 526 0026 38BD     		pop	{r3, r4, r5, pc}
 527              	.L84:
 528              		.align	2
 529              	.L83:
 530 0028 00000000 		.word	.LANCHOR0
 531              		.cfi_endproc
 532              	.LFE14:
 533              		.size	raw_new, .-raw_new
 534 002c AFF30080 		.section	.bss.raw_pcbs,"aw",%nobits
 535              		.align	2
 536              		.set	.LANCHOR0,. + 0
 537              		.type	raw_pcbs, %object
 538              		.size	raw_pcbs, 4
 539              	raw_pcbs:
 540 0000 00000000 		.space	4
 541              		.text
 542              	.Letext0:
 543              		.file 2 "c:\\fbin\\yagarto\\bin\\../lib/gcc/arm-none-eabi/4.7.4/../../../../arm-none-eabi/include/
 544              		.file 3 "../../os/various/lwip_bindings/arch/cc.h"
 545              		.file 4 "../../ext/lwip/src/include/lwip/memp.h"
 546              		.file 5 "../../ext/lwip/src/include/ipv4/lwip/ip_addr.h"
 547              		.file 6 "../../ext/lwip/src/include/lwip/err.h"
 548              		.file 7 "../../ext/lwip/src/include/lwip/pbuf.h"
 549              		.file 8 "../../ext/lwip/src/include/lwip/netif.h"
 550              		.file 9 "../../ext/lwip/src/include/ipv4/lwip/ip.h"
 551              		.file 10 "../../ext/lwip/src/include/lwip/raw.h"
 552              		.file 11 "../../os/ports/GCC/ARMCMx/chcore_v7m.h"
 553              		.section	.debug_info,"",%progbits
 554              	.Ldebug_info0:
 555 0000 530A0000 		.4byte	0xa53
 556 0004 0200     		.2byte	0x2
 557 0006 00000000 		.4byte	.Ldebug_abbrev0
 558 000a 04       		.byte	0x4
 559 000b 01       		.uleb128 0x1
 560 000c 29030000 		.4byte	.LASF115
 561 0010 01       		.byte	0x1
 562 0011 68020000 		.4byte	.LASF116
ARM GAS  C:\Users\jenny\AppData\Local\Temp\cckYFzQm.s 			page 11


 563 0015 C1010000 		.4byte	.LASF117
 564 0019 00000000 		.4byte	.Ldebug_ranges0+0
 565 001d 00000000 		.4byte	0
 566 0021 00000000 		.4byte	0
 567 0025 00000000 		.4byte	.Ldebug_line0
 568 0029 02       		.uleb128 0x2
 569 002a 04       		.byte	0x4
 570 002b 05       		.byte	0x5
 571 002c 696E7400 		.ascii	"int\000"
 572 0030 03       		.uleb128 0x3
 573 0031 04       		.byte	0x4
 574 0032 07       		.byte	0x7
 575 0033 51000000 		.4byte	.LASF0
 576 0037 04       		.uleb128 0x4
 577 0038 DA000000 		.4byte	.LASF2
 578 003c 02       		.byte	0x2
 579 003d 29       		.byte	0x29
 580 003e 42000000 		.4byte	0x42
 581 0042 03       		.uleb128 0x3
 582 0043 01       		.byte	0x1
 583 0044 06       		.byte	0x6
 584 0045 CA040000 		.4byte	.LASF1
 585 0049 04       		.uleb128 0x4
 586 004a 5A020000 		.4byte	.LASF3
 587 004e 02       		.byte	0x2
 588 004f 2A       		.byte	0x2a
 589 0050 54000000 		.4byte	0x54
 590 0054 03       		.uleb128 0x3
 591 0055 01       		.byte	0x1
 592 0056 08       		.byte	0x8
 593 0057 57040000 		.4byte	.LASF4
 594 005b 04       		.uleb128 0x4
 595 005c F4000000 		.4byte	.LASF5
 596 0060 02       		.byte	0x2
 597 0061 35       		.byte	0x35
 598 0062 66000000 		.4byte	0x66
 599 0066 03       		.uleb128 0x3
 600 0067 02       		.byte	0x2
 601 0068 05       		.byte	0x5
 602 0069 8A030000 		.4byte	.LASF6
 603 006d 04       		.uleb128 0x4
 604 006e 72030000 		.4byte	.LASF7
 605 0072 02       		.byte	0x2
 606 0073 36       		.byte	0x36
 607 0074 78000000 		.4byte	0x78
 608 0078 03       		.uleb128 0x3
 609 0079 02       		.byte	0x2
 610 007a 07       		.byte	0x7
 611 007b D6040000 		.4byte	.LASF8
 612 007f 03       		.uleb128 0x3
 613 0080 04       		.byte	0x4
 614 0081 05       		.byte	0x5
 615 0082 94030000 		.4byte	.LASF9
 616 0086 04       		.uleb128 0x4
 617 0087 D1000000 		.4byte	.LASF10
 618 008b 02       		.byte	0x2
 619 008c 50       		.byte	0x50
ARM GAS  C:\Users\jenny\AppData\Local\Temp\cckYFzQm.s 			page 12


 620 008d 91000000 		.4byte	0x91
 621 0091 03       		.uleb128 0x3
 622 0092 04       		.byte	0x4
 623 0093 07       		.byte	0x7
 624 0094 24040000 		.4byte	.LASF11
 625 0098 03       		.uleb128 0x3
 626 0099 08       		.byte	0x8
 627 009a 05       		.byte	0x5
 628 009b C2020000 		.4byte	.LASF12
 629 009f 03       		.uleb128 0x3
 630 00a0 08       		.byte	0x8
 631 00a1 07       		.byte	0x7
 632 00a2 03010000 		.4byte	.LASF13
 633 00a6 03       		.uleb128 0x3
 634 00a7 01       		.byte	0x1
 635 00a8 02       		.byte	0x2
 636 00a9 8B010000 		.4byte	.LASF14
 637 00ad 05       		.uleb128 0x5
 638 00ae 04       		.byte	0x4
 639 00af 03       		.uleb128 0x3
 640 00b0 04       		.byte	0x4
 641 00b1 07       		.byte	0x7
 642 00b2 1B040000 		.4byte	.LASF15
 643 00b6 03       		.uleb128 0x3
 644 00b7 01       		.byte	0x1
 645 00b8 08       		.byte	0x8
 646 00b9 37020000 		.4byte	.LASF16
 647 00bd 04       		.uleb128 0x4
 648 00be E8020000 		.4byte	.LASF17
 649 00c2 03       		.byte	0x3
 650 00c3 38       		.byte	0x38
 651 00c4 49000000 		.4byte	0x49
 652 00c8 04       		.uleb128 0x4
 653 00c9 BC010000 		.4byte	.LASF18
 654 00cd 03       		.byte	0x3
 655 00ce 39       		.byte	0x39
 656 00cf 37000000 		.4byte	0x37
 657 00d3 04       		.uleb128 0x4
 658 00d4 79000000 		.4byte	.LASF19
 659 00d8 03       		.byte	0x3
 660 00d9 3A       		.byte	0x3a
 661 00da 6D000000 		.4byte	0x6d
 662 00de 04       		.uleb128 0x4
 663 00df 41040000 		.4byte	.LASF20
 664 00e3 03       		.byte	0x3
 665 00e4 3B       		.byte	0x3b
 666 00e5 5B000000 		.4byte	0x5b
 667 00e9 04       		.uleb128 0x4
 668 00ea 84030000 		.4byte	.LASF21
 669 00ee 03       		.byte	0x3
 670 00ef 3C       		.byte	0x3c
 671 00f0 86000000 		.4byte	0x86
 672 00f4 06       		.uleb128 0x6
 673 00f5 01       		.byte	0x1
 674 00f6 04       		.byte	0x4
 675 00f7 2B       		.byte	0x2b
 676 00f8 57010000 		.4byte	0x157
ARM GAS  C:\Users\jenny\AppData\Local\Temp\cckYFzQm.s 			page 13


 677 00fc 07       		.uleb128 0x7
 678 00fd 00040000 		.4byte	.LASF22
 679 0101 00       		.sleb128 0
 680 0102 07       		.uleb128 0x7
 681 0103 AE030000 		.4byte	.LASF23
 682 0107 01       		.sleb128 1
 683 0108 07       		.uleb128 0x7
 684 0109 DB020000 		.4byte	.LASF24
 685 010d 02       		.sleb128 2
 686 010e 07       		.uleb128 0x7
 687 010f 08000000 		.4byte	.LASF25
 688 0113 03       		.sleb128 3
 689 0114 07       		.uleb128 0x7
 690 0115 65040000 		.4byte	.LASF26
 691 0119 04       		.sleb128 4
 692 011a 07       		.uleb128 0x7
 693 011b 06030000 		.4byte	.LASF27
 694 011f 05       		.sleb128 5
 695 0120 07       		.uleb128 0x7
 696 0121 F1030000 		.4byte	.LASF28
 697 0125 06       		.sleb128 6
 698 0126 07       		.uleb128 0x7
 699 0127 AE020000 		.4byte	.LASF29
 700 012b 07       		.sleb128 7
 701 012c 07       		.uleb128 0x7
 702 012d 14020000 		.4byte	.LASF30
 703 0131 08       		.sleb128 8
 704 0132 07       		.uleb128 0x7
 705 0133 E1000000 		.4byte	.LASF31
 706 0137 09       		.sleb128 9
 707 0138 07       		.uleb128 0x7
 708 0139 47010000 		.4byte	.LASF32
 709 013d 0A       		.sleb128 10
 710 013e 07       		.uleb128 0x7
 711 013f 9D030000 		.4byte	.LASF33
 712 0143 0B       		.sleb128 11
 713 0144 07       		.uleb128 0x7
 714 0145 2D020000 		.4byte	.LASF34
 715 0149 0C       		.sleb128 12
 716 014a 07       		.uleb128 0x7
 717 014b 9D000000 		.4byte	.LASF35
 718 014f 0D       		.sleb128 13
 719 0150 07       		.uleb128 0x7
 720 0151 B3010000 		.4byte	.LASF36
 721 0155 0E       		.sleb128 14
 722 0156 00       		.byte	0
 723 0157 04       		.uleb128 0x4
 724 0158 23050000 		.4byte	.LASF37
 725 015c 04       		.byte	0x4
 726 015d 2F       		.byte	0x2f
 727 015e F4000000 		.4byte	0xf4
 728 0162 08       		.uleb128 0x8
 729 0163 38050000 		.4byte	.LASF38
 730 0167 04       		.byte	0x4
 731 0168 05       		.byte	0x5
 732 0169 2C       		.byte	0x2c
 733 016a 7D010000 		.4byte	0x17d
ARM GAS  C:\Users\jenny\AppData\Local\Temp\cckYFzQm.s 			page 14


 734 016e 09       		.uleb128 0x9
 735 016f 8D040000 		.4byte	.LASF40
 736 0173 05       		.byte	0x5
 737 0174 2D       		.byte	0x2d
 738 0175 E9000000 		.4byte	0xe9
 739 0179 02       		.byte	0x2
 740 017a 23       		.byte	0x23
 741 017b 00       		.uleb128 0
 742 017c 00       		.byte	0
 743 017d 08       		.uleb128 0x8
 744 017e 45020000 		.4byte	.LASF39
 745 0182 04       		.byte	0x4
 746 0183 05       		.byte	0x5
 747 0184 36       		.byte	0x36
 748 0185 98010000 		.4byte	0x198
 749 0189 09       		.uleb128 0x9
 750 018a 8D040000 		.4byte	.LASF40
 751 018e 05       		.byte	0x5
 752 018f 37       		.byte	0x37
 753 0190 E9000000 		.4byte	0xe9
 754 0194 02       		.byte	0x2
 755 0195 23       		.byte	0x23
 756 0196 00       		.uleb128 0
 757 0197 00       		.byte	0
 758 0198 04       		.uleb128 0x4
 759 0199 10050000 		.4byte	.LASF41
 760 019d 05       		.byte	0x5
 761 019e 40       		.byte	0x40
 762 019f 62010000 		.4byte	0x162
 763 01a3 04       		.uleb128 0x4
 764 01a4 77040000 		.4byte	.LASF42
 765 01a8 05       		.byte	0x5
 766 01a9 41       		.byte	0x41
 767 01aa 7D010000 		.4byte	0x17d
 768 01ae 04       		.uleb128 0x4
 769 01af 63000000 		.4byte	.LASF43
 770 01b3 06       		.byte	0x6
 771 01b4 2F       		.byte	0x2f
 772 01b5 C8000000 		.4byte	0xc8
 773 01b9 06       		.uleb128 0x6
 774 01ba 01       		.byte	0x1
 775 01bb 07       		.byte	0x7
 776 01bc 32       		.byte	0x32
 777 01bd DA010000 		.4byte	0x1da
 778 01c1 07       		.uleb128 0x7
 779 01c2 AC000000 		.4byte	.LASF44
 780 01c6 00       		.sleb128 0
 781 01c7 07       		.uleb128 0x7
 782 01c8 7C010000 		.4byte	.LASF45
 783 01cc 01       		.sleb128 1
 784 01cd 07       		.uleb128 0x7
 785 01ce 1F030000 		.4byte	.LASF46
 786 01d2 02       		.sleb128 2
 787 01d3 07       		.uleb128 0x7
 788 01d4 36000000 		.4byte	.LASF47
 789 01d8 03       		.sleb128 3
 790 01d9 00       		.byte	0
ARM GAS  C:\Users\jenny\AppData\Local\Temp\cckYFzQm.s 			page 15


 791 01da 04       		.uleb128 0x4
 792 01db 47040000 		.4byte	.LASF48
 793 01df 07       		.byte	0x7
 794 01e0 37       		.byte	0x37
 795 01e1 B9010000 		.4byte	0x1b9
 796 01e5 06       		.uleb128 0x6
 797 01e6 01       		.byte	0x1
 798 01e7 07       		.byte	0x7
 799 01e8 39       		.byte	0x39
 800 01e9 06020000 		.4byte	0x206
 801 01ed 07       		.uleb128 0x7
 802 01ee 2D000000 		.4byte	.LASF49
 803 01f2 00       		.sleb128 0
 804 01f3 07       		.uleb128 0x7
 805 01f4 2A050000 		.4byte	.LASF50
 806 01f8 01       		.sleb128 1
 807 01f9 07       		.uleb128 0x7
 808 01fa 5C010000 		.4byte	.LASF51
 809 01fe 02       		.sleb128 2
 810 01ff 07       		.uleb128 0x7
 811 0200 9A010000 		.4byte	.LASF52
 812 0204 03       		.sleb128 3
 813 0205 00       		.byte	0
 814 0206 04       		.uleb128 0x4
 815 0207 3F000000 		.4byte	.LASF53
 816 020b 07       		.byte	0x7
 817 020c 3E       		.byte	0x3e
 818 020d E5010000 		.4byte	0x1e5
 819 0211 08       		.uleb128 0x8
 820 0212 72040000 		.4byte	.LASF54
 821 0216 10       		.byte	0x10
 822 0217 07       		.byte	0x7
 823 0218 4F       		.byte	0x4f
 824 0219 80020000 		.4byte	0x280
 825 021d 09       		.uleb128 0x9
 826 021e 5E000000 		.4byte	.LASF55
 827 0222 07       		.byte	0x7
 828 0223 51       		.byte	0x51
 829 0224 80020000 		.4byte	0x280
 830 0228 02       		.byte	0x2
 831 0229 23       		.byte	0x23
 832 022a 00       		.uleb128 0
 833 022b 09       		.uleb128 0x9
 834 022c 74010000 		.4byte	.LASF56
 835 0230 07       		.byte	0x7
 836 0231 54       		.byte	0x54
 837 0232 AD000000 		.4byte	0xad
 838 0236 02       		.byte	0x2
 839 0237 23       		.byte	0x23
 840 0238 04       		.uleb128 0x4
 841 0239 09       		.uleb128 0x9
 842 023a 65010000 		.4byte	.LASF57
 843 023e 07       		.byte	0x7
 844 023f 5D       		.byte	0x5d
 845 0240 D3000000 		.4byte	0xd3
 846 0244 02       		.byte	0x2
 847 0245 23       		.byte	0x23
ARM GAS  C:\Users\jenny\AppData\Local\Temp\cckYFzQm.s 			page 16


 848 0246 08       		.uleb128 0x8
 849 0247 0A       		.uleb128 0xa
 850 0248 6C656E00 		.ascii	"len\000"
 851 024c 07       		.byte	0x7
 852 024d 60       		.byte	0x60
 853 024e D3000000 		.4byte	0xd3
 854 0252 02       		.byte	0x2
 855 0253 23       		.byte	0x23
 856 0254 0A       		.uleb128 0xa
 857 0255 09       		.uleb128 0x9
 858 0256 52040000 		.4byte	.LASF58
 859 025a 07       		.byte	0x7
 860 025b 63       		.byte	0x63
 861 025c BD000000 		.4byte	0xbd
 862 0260 02       		.byte	0x2
 863 0261 23       		.byte	0x23
 864 0262 0C       		.uleb128 0xc
 865 0263 09       		.uleb128 0x9
 866 0264 A4010000 		.4byte	.LASF59
 867 0268 07       		.byte	0x7
 868 0269 66       		.byte	0x66
 869 026a BD000000 		.4byte	0xbd
 870 026e 02       		.byte	0x2
 871 026f 23       		.byte	0x23
 872 0270 0D       		.uleb128 0xd
 873 0271 0A       		.uleb128 0xa
 874 0272 72656600 		.ascii	"ref\000"
 875 0276 07       		.byte	0x7
 876 0277 6D       		.byte	0x6d
 877 0278 D3000000 		.4byte	0xd3
 878 027c 02       		.byte	0x2
 879 027d 23       		.byte	0x23
 880 027e 0E       		.uleb128 0xe
 881 027f 00       		.byte	0
 882 0280 0B       		.uleb128 0xb
 883 0281 04       		.byte	0x4
 884 0282 11020000 		.4byte	0x211
 885 0286 0B       		.uleb128 0xb
 886 0287 04       		.byte	0x4
 887 0288 8C020000 		.4byte	0x28c
 888 028c 08       		.uleb128 0x8
 889 028d AF040000 		.4byte	.LASF60
 890 0291 30       		.byte	0x30
 891 0292 08       		.byte	0x8
 892 0293 88       		.byte	0x88
 893 0294 5C030000 		.4byte	0x35c
 894 0298 09       		.uleb128 0x9
 895 0299 5E000000 		.4byte	.LASF55
 896 029d 08       		.byte	0x8
 897 029e 8A       		.byte	0x8a
 898 029f 86020000 		.4byte	0x286
 899 02a3 02       		.byte	0x2
 900 02a4 23       		.byte	0x23
 901 02a5 00       		.uleb128 0
 902 02a6 09       		.uleb128 0x9
 903 02a7 38050000 		.4byte	.LASF38
 904 02ab 08       		.byte	0x8
ARM GAS  C:\Users\jenny\AppData\Local\Temp\cckYFzQm.s 			page 17


 905 02ac 8D       		.byte	0x8d
 906 02ad 98010000 		.4byte	0x198
 907 02b1 02       		.byte	0x2
 908 02b2 23       		.byte	0x23
 909 02b3 04       		.uleb128 0x4
 910 02b4 09       		.uleb128 0x9
 911 02b5 BA020000 		.4byte	.LASF61
 912 02b9 08       		.byte	0x8
 913 02ba 8E       		.byte	0x8e
 914 02bb 98010000 		.4byte	0x198
 915 02bf 02       		.byte	0x2
 916 02c0 23       		.byte	0x23
 917 02c1 08       		.uleb128 0x8
 918 02c2 0A       		.uleb128 0xa
 919 02c3 677700   		.ascii	"gw\000"
 920 02c6 08       		.byte	0x8
 921 02c7 8F       		.byte	0x8f
 922 02c8 98010000 		.4byte	0x198
 923 02cc 02       		.byte	0x2
 924 02cd 23       		.byte	0x23
 925 02ce 0C       		.uleb128 0xc
 926 02cf 09       		.uleb128 0x9
 927 02d0 27000000 		.4byte	.LASF62
 928 02d4 08       		.byte	0x8
 929 02d5 93       		.byte	0x93
 930 02d6 5C030000 		.4byte	0x35c
 931 02da 02       		.byte	0x2
 932 02db 23       		.byte	0x23
 933 02dc 10       		.uleb128 0x10
 934 02dd 09       		.uleb128 0x9
 935 02de 84010000 		.4byte	.LASF63
 936 02e2 08       		.byte	0x8
 937 02e3 97       		.byte	0x97
 938 02e4 82030000 		.4byte	0x382
 939 02e8 02       		.byte	0x2
 940 02e9 23       		.byte	0x23
 941 02ea 14       		.uleb128 0x14
 942 02eb 09       		.uleb128 0x9
 943 02ec 69000000 		.4byte	.LASF64
 944 02f0 08       		.byte	0x8
 945 02f1 9B       		.byte	0x9b
 946 02f2 B3030000 		.4byte	0x3b3
 947 02f6 02       		.byte	0x2
 948 02f7 23       		.byte	0x23
 949 02f8 18       		.uleb128 0x18
 950 02f9 09       		.uleb128 0x9
 951 02fa 9E040000 		.4byte	.LASF65
 952 02fe 08       		.byte	0x8
 953 02ff AC       		.byte	0xac
 954 0300 AD000000 		.4byte	0xad
 955 0304 02       		.byte	0x2
 956 0305 23       		.byte	0x23
 957 0306 1C       		.uleb128 0x1c
 958 0307 0A       		.uleb128 0xa
 959 0308 6D747500 		.ascii	"mtu\000"
 960 030c 08       		.byte	0x8
 961 030d BA       		.byte	0xba
ARM GAS  C:\Users\jenny\AppData\Local\Temp\cckYFzQm.s 			page 18


 962 030e D3000000 		.4byte	0xd3
 963 0312 02       		.byte	0x2
 964 0313 23       		.byte	0x23
 965 0314 20       		.uleb128 0x20
 966 0315 09       		.uleb128 0x9
 967 0316 34010000 		.4byte	.LASF66
 968 031a 08       		.byte	0x8
 969 031b BC       		.byte	0xbc
 970 031c BD000000 		.4byte	0xbd
 971 0320 02       		.byte	0x2
 972 0321 23       		.byte	0x23
 973 0322 22       		.uleb128 0x22
 974 0323 09       		.uleb128 0x9
 975 0324 FC000000 		.4byte	.LASF67
 976 0328 08       		.byte	0x8
 977 0329 BE       		.byte	0xbe
 978 032a D9030000 		.4byte	0x3d9
 979 032e 02       		.byte	0x2
 980 032f 23       		.byte	0x23
 981 0330 23       		.uleb128 0x23
 982 0331 09       		.uleb128 0x9
 983 0332 A4010000 		.4byte	.LASF59
 984 0336 08       		.byte	0x8
 985 0337 C0       		.byte	0xc0
 986 0338 BD000000 		.4byte	0xbd
 987 033c 02       		.byte	0x2
 988 033d 23       		.byte	0x23
 989 033e 29       		.uleb128 0x29
 990 033f 09       		.uleb128 0x9
 991 0340 D8030000 		.4byte	.LASF68
 992 0344 08       		.byte	0x8
 993 0345 C2       		.byte	0xc2
 994 0346 E9030000 		.4byte	0x3e9
 995 034a 02       		.byte	0x2
 996 034b 23       		.byte	0x23
 997 034c 2A       		.uleb128 0x2a
 998 034d 0A       		.uleb128 0xa
 999 034e 6E756D00 		.ascii	"num\000"
 1000 0352 08       		.byte	0x8
 1001 0353 C4       		.byte	0xc4
 1002 0354 BD000000 		.4byte	0xbd
 1003 0358 02       		.byte	0x2
 1004 0359 23       		.byte	0x23
 1005 035a 2C       		.uleb128 0x2c
 1006 035b 00       		.byte	0
 1007 035c 04       		.uleb128 0x4
 1008 035d C2000000 		.4byte	.LASF69
 1009 0361 08       		.byte	0x8
 1010 0362 6D       		.byte	0x6d
 1011 0363 67030000 		.4byte	0x367
 1012 0367 0B       		.uleb128 0xb
 1013 0368 04       		.byte	0x4
 1014 0369 6D030000 		.4byte	0x36d
 1015 036d 0C       		.uleb128 0xc
 1016 036e 01       		.byte	0x1
 1017 036f AE010000 		.4byte	0x1ae
 1018 0373 82030000 		.4byte	0x382
ARM GAS  C:\Users\jenny\AppData\Local\Temp\cckYFzQm.s 			page 19


 1019 0377 0D       		.uleb128 0xd
 1020 0378 80020000 		.4byte	0x280
 1021 037c 0D       		.uleb128 0xd
 1022 037d 86020000 		.4byte	0x286
 1023 0381 00       		.byte	0
 1024 0382 04       		.uleb128 0x4
 1025 0383 8D000000 		.4byte	.LASF70
 1026 0387 08       		.byte	0x8
 1027 0388 76       		.byte	0x76
 1028 0389 8D030000 		.4byte	0x38d
 1029 038d 0B       		.uleb128 0xb
 1030 038e 04       		.byte	0x4
 1031 038f 93030000 		.4byte	0x393
 1032 0393 0C       		.uleb128 0xc
 1033 0394 01       		.byte	0x1
 1034 0395 AE010000 		.4byte	0x1ae
 1035 0399 AD030000 		.4byte	0x3ad
 1036 039d 0D       		.uleb128 0xd
 1037 039e 86020000 		.4byte	0x286
 1038 03a2 0D       		.uleb128 0xd
 1039 03a3 80020000 		.4byte	0x280
 1040 03a7 0D       		.uleb128 0xd
 1041 03a8 AD030000 		.4byte	0x3ad
 1042 03ac 00       		.byte	0
 1043 03ad 0B       		.uleb128 0xb
 1044 03ae 04       		.byte	0x4
 1045 03af 98010000 		.4byte	0x198
 1046 03b3 04       		.uleb128 0x4
 1047 03b4 DD030000 		.4byte	.LASF71
 1048 03b8 08       		.byte	0x8
 1049 03b9 7E       		.byte	0x7e
 1050 03ba BE030000 		.4byte	0x3be
 1051 03be 0B       		.uleb128 0xb
 1052 03bf 04       		.byte	0x4
 1053 03c0 C4030000 		.4byte	0x3c4
 1054 03c4 0C       		.uleb128 0xc
 1055 03c5 01       		.byte	0x1
 1056 03c6 AE010000 		.4byte	0x1ae
 1057 03ca D9030000 		.4byte	0x3d9
 1058 03ce 0D       		.uleb128 0xd
 1059 03cf 86020000 		.4byte	0x286
 1060 03d3 0D       		.uleb128 0xd
 1061 03d4 80020000 		.4byte	0x280
 1062 03d8 00       		.byte	0
 1063 03d9 0E       		.uleb128 0xe
 1064 03da BD000000 		.4byte	0xbd
 1065 03de E9030000 		.4byte	0x3e9
 1066 03e2 0F       		.uleb128 0xf
 1067 03e3 AF000000 		.4byte	0xaf
 1068 03e7 05       		.byte	0x5
 1069 03e8 00       		.byte	0
 1070 03e9 0E       		.uleb128 0xe
 1071 03ea B6000000 		.4byte	0xb6
 1072 03ee F9030000 		.4byte	0x3f9
 1073 03f2 0F       		.uleb128 0xf
 1074 03f3 AF000000 		.4byte	0xaf
 1075 03f7 01       		.byte	0x1
ARM GAS  C:\Users\jenny\AppData\Local\Temp\cckYFzQm.s 			page 20


 1076 03f8 00       		.byte	0
 1077 03f9 08       		.uleb128 0x8
 1078 03fa D1030000 		.4byte	.LASF72
 1079 03fe 14       		.byte	0x14
 1080 03ff 09       		.byte	0x9
 1081 0400 74       		.byte	0x74
 1082 0401 92040000 		.4byte	0x492
 1083 0405 09       		.uleb128 0x9
 1084 0406 F9020000 		.4byte	.LASF73
 1085 040a 09       		.byte	0x9
 1086 040b 76       		.byte	0x76
 1087 040c BD000000 		.4byte	0xbd
 1088 0410 02       		.byte	0x2
 1089 0411 23       		.byte	0x23
 1090 0412 00       		.uleb128 0
 1091 0413 09       		.uleb128 0x9
 1092 0414 16040000 		.4byte	.LASF74
 1093 0418 09       		.byte	0x9
 1094 0419 78       		.byte	0x78
 1095 041a BD000000 		.4byte	0xbd
 1096 041e 02       		.byte	0x2
 1097 041f 23       		.byte	0x23
 1098 0420 01       		.uleb128 0x1
 1099 0421 09       		.uleb128 0x9
 1100 0422 0B050000 		.4byte	.LASF75
 1101 0426 09       		.byte	0x9
 1102 0427 7A       		.byte	0x7a
 1103 0428 D3000000 		.4byte	0xd3
 1104 042c 02       		.byte	0x2
 1105 042d 23       		.byte	0x23
 1106 042e 02       		.uleb128 0x2
 1107 042f 0A       		.uleb128 0xa
 1108 0430 5F696400 		.ascii	"_id\000"
 1109 0434 09       		.byte	0x9
 1110 0435 7C       		.byte	0x7c
 1111 0436 D3000000 		.4byte	0xd3
 1112 043a 02       		.byte	0x2
 1113 043b 23       		.byte	0x23
 1114 043c 04       		.uleb128 0x4
 1115 043d 09       		.uleb128 0x9
 1116 043e 3F010000 		.4byte	.LASF76
 1117 0442 09       		.byte	0x9
 1118 0443 7E       		.byte	0x7e
 1119 0444 D3000000 		.4byte	0xd3
 1120 0448 02       		.byte	0x2
 1121 0449 23       		.byte	0x23
 1122 044a 06       		.uleb128 0x6
 1123 044b 09       		.uleb128 0x9
 1124 044c 7F000000 		.4byte	.LASF77
 1125 0450 09       		.byte	0x9
 1126 0451 84       		.byte	0x84
 1127 0452 BD000000 		.4byte	0xbd
 1128 0456 02       		.byte	0x2
 1129 0457 23       		.byte	0x23
 1130 0458 08       		.uleb128 0x8
 1131 0459 09       		.uleb128 0x9
 1132 045a 86020000 		.4byte	.LASF78
ARM GAS  C:\Users\jenny\AppData\Local\Temp\cckYFzQm.s 			page 21


 1133 045e 09       		.byte	0x9
 1134 045f 86       		.byte	0x86
 1135 0460 BD000000 		.4byte	0xbd
 1136 0464 02       		.byte	0x2
 1137 0465 23       		.byte	0x23
 1138 0466 09       		.uleb128 0x9
 1139 0467 09       		.uleb128 0x9
 1140 0468 2C010000 		.4byte	.LASF79
 1141 046c 09       		.byte	0x9
 1142 046d 88       		.byte	0x88
 1143 046e D3000000 		.4byte	0xd3
 1144 0472 02       		.byte	0x2
 1145 0473 23       		.byte	0x23
 1146 0474 0A       		.uleb128 0xa
 1147 0475 0A       		.uleb128 0xa
 1148 0476 73726300 		.ascii	"src\000"
 1149 047a 09       		.byte	0x9
 1150 047b 8A       		.byte	0x8a
 1151 047c A3010000 		.4byte	0x1a3
 1152 0480 02       		.byte	0x2
 1153 0481 23       		.byte	0x23
 1154 0482 0C       		.uleb128 0xc
 1155 0483 09       		.uleb128 0x9
 1156 0484 33050000 		.4byte	.LASF80
 1157 0488 09       		.byte	0x9
 1158 0489 8B       		.byte	0x8b
 1159 048a A3010000 		.4byte	0x1a3
 1160 048e 02       		.byte	0x2
 1161 048f 23       		.byte	0x23
 1162 0490 10       		.uleb128 0x10
 1163 0491 00       		.byte	0
 1164 0492 04       		.uleb128 0x4
 1165 0493 ED020000 		.4byte	.LASF81
 1166 0497 0A       		.byte	0xa
 1167 0498 3C       		.byte	0x3c
 1168 0499 9D040000 		.4byte	0x49d
 1169 049d 0B       		.uleb128 0xb
 1170 049e 04       		.byte	0x4
 1171 049f A3040000 		.4byte	0x4a3
 1172 04a3 0C       		.uleb128 0xc
 1173 04a4 01       		.byte	0x1
 1174 04a5 BD000000 		.4byte	0xbd
 1175 04a9 C2040000 		.4byte	0x4c2
 1176 04ad 0D       		.uleb128 0xd
 1177 04ae AD000000 		.4byte	0xad
 1178 04b2 0D       		.uleb128 0xd
 1179 04b3 C2040000 		.4byte	0x4c2
 1180 04b7 0D       		.uleb128 0xd
 1181 04b8 80020000 		.4byte	0x280
 1182 04bc 0D       		.uleb128 0xd
 1183 04bd AD030000 		.4byte	0x3ad
 1184 04c1 00       		.byte	0
 1185 04c2 0B       		.uleb128 0xb
 1186 04c3 04       		.byte	0x4
 1187 04c4 C8040000 		.4byte	0x4c8
 1188 04c8 08       		.uleb128 0x8
 1189 04c9 49000000 		.4byte	.LASF82
ARM GAS  C:\Users\jenny\AppData\Local\Temp\cckYFzQm.s 			page 22


 1190 04cd 1C       		.byte	0x1c
 1191 04ce 0A       		.byte	0xa
 1192 04cf 3F       		.byte	0x3f
 1193 04d0 53050000 		.4byte	0x553
 1194 04d4 09       		.uleb128 0x9
 1195 04d5 BB030000 		.4byte	.LASF83
 1196 04d9 0A       		.byte	0xa
 1197 04da 41       		.byte	0x41
 1198 04db 98010000 		.4byte	0x198
 1199 04df 02       		.byte	0x2
 1200 04e0 23       		.byte	0x23
 1201 04e1 00       		.uleb128 0
 1202 04e2 09       		.uleb128 0x9
 1203 04e3 01050000 		.4byte	.LASF84
 1204 04e7 0A       		.byte	0xa
 1205 04e8 41       		.byte	0x41
 1206 04e9 98010000 		.4byte	0x198
 1207 04ed 02       		.byte	0x2
 1208 04ee 23       		.byte	0x23
 1209 04ef 04       		.uleb128 0x4
 1210 04f0 09       		.uleb128 0x9
 1211 04f1 1C000000 		.4byte	.LASF85
 1212 04f5 0A       		.byte	0xa
 1213 04f6 41       		.byte	0x41
 1214 04f7 BD000000 		.4byte	0xbd
 1215 04fb 02       		.byte	0x2
 1216 04fc 23       		.byte	0x23
 1217 04fd 08       		.uleb128 0x8
 1218 04fe 0A       		.uleb128 0xa
 1219 04ff 746F7300 		.ascii	"tos\000"
 1220 0503 0A       		.byte	0xa
 1221 0504 41       		.byte	0x41
 1222 0505 BD000000 		.4byte	0xbd
 1223 0509 02       		.byte	0x2
 1224 050a 23       		.byte	0x23
 1225 050b 09       		.uleb128 0x9
 1226 050c 0A       		.uleb128 0xa
 1227 050d 74746C00 		.ascii	"ttl\000"
 1228 0511 0A       		.byte	0xa
 1229 0512 41       		.byte	0x41
 1230 0513 BD000000 		.4byte	0xbd
 1231 0517 02       		.byte	0x2
 1232 0518 23       		.byte	0x23
 1233 0519 0A       		.uleb128 0xa
 1234 051a 09       		.uleb128 0x9
 1235 051b 5E000000 		.4byte	.LASF55
 1236 051f 0A       		.byte	0xa
 1237 0520 43       		.byte	0x43
 1238 0521 C2040000 		.4byte	0x4c2
 1239 0525 02       		.byte	0x2
 1240 0526 23       		.byte	0x23
 1241 0527 0C       		.uleb128 0xc
 1242 0528 09       		.uleb128 0x9
 1243 0529 84000000 		.4byte	.LASF86
 1244 052d 0A       		.byte	0xa
 1245 052e 45       		.byte	0x45
 1246 052f BD000000 		.4byte	0xbd
ARM GAS  C:\Users\jenny\AppData\Local\Temp\cckYFzQm.s 			page 23


 1247 0533 02       		.byte	0x2
 1248 0534 23       		.byte	0x23
 1249 0535 10       		.uleb128 0x10
 1250 0536 09       		.uleb128 0x9
 1251 0537 C5040000 		.4byte	.LASF87
 1252 053b 0A       		.byte	0xa
 1253 053c 48       		.byte	0x48
 1254 053d 92040000 		.4byte	0x492
 1255 0541 02       		.byte	0x2
 1256 0542 23       		.byte	0x23
 1257 0543 14       		.uleb128 0x14
 1258 0544 09       		.uleb128 0x9
 1259 0545 0D040000 		.4byte	.LASF88
 1260 0549 0A       		.byte	0xa
 1261 054a 4A       		.byte	0x4a
 1262 054b AD000000 		.4byte	0xad
 1263 054f 02       		.byte	0x2
 1264 0550 23       		.byte	0x23
 1265 0551 18       		.uleb128 0x18
 1266 0552 00       		.byte	0
 1267 0553 10       		.uleb128 0x10
 1268 0554 01       		.byte	0x1
 1269 0555 15030000 		.4byte	.LASF93
 1270 0559 01       		.byte	0x1
 1271 055a 4C       		.byte	0x4c
 1272 055b 01       		.byte	0x1
 1273 055c BD000000 		.4byte	0xbd
 1274 0560 00000000 		.4byte	.LFB7
 1275 0564 78000000 		.4byte	.LFE7
 1276 0568 00000000 		.4byte	.LLST0
 1277 056c 01       		.byte	0x1
 1278 056d DC050000 		.4byte	0x5dc
 1279 0571 11       		.uleb128 0x11
 1280 0572 7000     		.ascii	"p\000"
 1281 0574 01       		.byte	0x1
 1282 0575 4C       		.byte	0x4c
 1283 0576 80020000 		.4byte	0x280
 1284 057a 20000000 		.4byte	.LLST1
 1285 057e 11       		.uleb128 0x11
 1286 057f 696E7000 		.ascii	"inp\000"
 1287 0583 01       		.byte	0x1
 1288 0584 4C       		.byte	0x4c
 1289 0585 86020000 		.4byte	0x286
 1290 0589 3F000000 		.4byte	.LLST2
 1291 058d 12       		.uleb128 0x12
 1292 058e 70636200 		.ascii	"pcb\000"
 1293 0592 01       		.byte	0x1
 1294 0593 4E       		.byte	0x4e
 1295 0594 C2040000 		.4byte	0x4c2
 1296 0598 60000000 		.4byte	.LLST3
 1297 059c 13       		.uleb128 0x13
 1298 059d 74000000 		.4byte	.LASF89
 1299 05a1 01       		.byte	0x1
 1300 05a2 4E       		.byte	0x4e
 1301 05a3 C2040000 		.4byte	0x4c2
 1302 05a7 89000000 		.4byte	.LLST4
 1303 05ab 13       		.uleb128 0x13
ARM GAS  C:\Users\jenny\AppData\Local\Temp\cckYFzQm.s 			page 24


 1304 05ac B5040000 		.4byte	.LASF90
 1305 05b0 01       		.byte	0x1
 1306 05b1 4F       		.byte	0x4f
 1307 05b2 DC050000 		.4byte	0x5dc
 1308 05b6 A8000000 		.4byte	.LLST5
 1309 05ba 14       		.uleb128 0x14
 1310 05bb 54020000 		.4byte	.LASF91
 1311 05bf 01       		.byte	0x1
 1312 05c0 50       		.byte	0x50
 1313 05c1 DE000000 		.4byte	0xde
 1314 05c5 06       		.byte	0x6
 1315 05c6 76       		.byte	0x76
 1316 05c7 00       		.sleb128 0
 1317 05c8 08       		.byte	0x8
 1318 05c9 FF       		.byte	0xff
 1319 05ca 1A       		.byte	0x1a
 1320 05cb 9F       		.byte	0x9f
 1321 05cc 13       		.uleb128 0x13
 1322 05cd 62020000 		.4byte	.LASF92
 1323 05d1 01       		.byte	0x1
 1324 05d2 51       		.byte	0x51
 1325 05d3 BD000000 		.4byte	0xbd
 1326 05d7 BB000000 		.4byte	.LLST6
 1327 05db 00       		.byte	0
 1328 05dc 0B       		.uleb128 0xb
 1329 05dd 04       		.byte	0x4
 1330 05de F9030000 		.4byte	0x3f9
 1331 05e2 15       		.uleb128 0x15
 1332 05e3 01       		.byte	0x1
 1333 05e4 3C020000 		.4byte	.LASF94
 1334 05e8 01       		.byte	0x1
 1335 05e9 8E       		.byte	0x8e
 1336 05ea 01       		.byte	0x1
 1337 05eb AE010000 		.4byte	0x1ae
 1338 05ef 00000000 		.4byte	.LFB8
 1339 05f3 0A000000 		.4byte	.LFE8
 1340 05f7 02       		.byte	0x2
 1341 05f8 7D       		.byte	0x7d
 1342 05f9 00       		.sleb128 0
 1343 05fa 01       		.byte	0x1
 1344 05fb 1E060000 		.4byte	0x61e
 1345 05ff 11       		.uleb128 0x11
 1346 0600 70636200 		.ascii	"pcb\000"
 1347 0604 01       		.byte	0x1
 1348 0605 8E       		.byte	0x8e
 1349 0606 C2040000 		.4byte	0x4c2
 1350 060a E7000000 		.4byte	.LLST7
 1351 060e 16       		.uleb128 0x16
 1352 060f 6D010000 		.4byte	.LASF95
 1353 0613 01       		.byte	0x1
 1354 0614 8E       		.byte	0x8e
 1355 0615 AD030000 		.4byte	0x3ad
 1356 0619 08010000 		.4byte	.LLST8
 1357 061d 00       		.byte	0
 1358 061e 15       		.uleb128 0x15
 1359 061f 01       		.byte	0x1
 1360 0620 92040000 		.4byte	.LASF96
ARM GAS  C:\Users\jenny\AppData\Local\Temp\cckYFzQm.s 			page 25


 1361 0624 01       		.byte	0x1
 1362 0625 A2       		.byte	0xa2
 1363 0626 01       		.byte	0x1
 1364 0627 AE010000 		.4byte	0x1ae
 1365 062b 00000000 		.4byte	.LFB9
 1366 062f 0A000000 		.4byte	.LFE9
 1367 0633 02       		.byte	0x2
 1368 0634 7D       		.byte	0x7d
 1369 0635 00       		.sleb128 0
 1370 0636 01       		.byte	0x1
 1371 0637 5A060000 		.4byte	0x65a
 1372 063b 11       		.uleb128 0x11
 1373 063c 70636200 		.ascii	"pcb\000"
 1374 0640 01       		.byte	0x1
 1375 0641 A2       		.byte	0xa2
 1376 0642 C2040000 		.4byte	0x4c2
 1377 0646 29010000 		.4byte	.LLST9
 1378 064a 16       		.uleb128 0x16
 1379 064b 6D010000 		.4byte	.LASF95
 1380 064f 01       		.byte	0x1
 1381 0650 A2       		.byte	0xa2
 1382 0651 AD030000 		.4byte	0x3ad
 1383 0655 4A010000 		.4byte	.LLST10
 1384 0659 00       		.byte	0
 1385 065a 17       		.uleb128 0x17
 1386 065b 01       		.byte	0x1
 1387 065c AA010000 		.4byte	.LASF100
 1388 0660 01       		.byte	0x1
 1389 0661 B7       		.byte	0xb7
 1390 0662 01       		.byte	0x1
 1391 0663 00000000 		.4byte	.LFB10
 1392 0667 06000000 		.4byte	.LFE10
 1393 066b 02       		.byte	0x2
 1394 066c 7D       		.byte	0x7d
 1395 066d 00       		.sleb128 0
 1396 066e 01       		.byte	0x1
 1397 066f 9B060000 		.4byte	0x69b
 1398 0673 18       		.uleb128 0x18
 1399 0674 70636200 		.ascii	"pcb\000"
 1400 0678 01       		.byte	0x1
 1401 0679 B7       		.byte	0xb7
 1402 067a C2040000 		.4byte	0x4c2
 1403 067e 01       		.byte	0x1
 1404 067f 50       		.byte	0x50
 1405 0680 19       		.uleb128 0x19
 1406 0681 C5040000 		.4byte	.LASF87
 1407 0685 01       		.byte	0x1
 1408 0686 B7       		.byte	0xb7
 1409 0687 92040000 		.4byte	0x492
 1410 068b 01       		.byte	0x1
 1411 068c 51       		.byte	0x51
 1412 068d 19       		.uleb128 0x19
 1413 068e 0D040000 		.4byte	.LASF88
 1414 0692 01       		.byte	0x1
 1415 0693 B7       		.byte	0xb7
 1416 0694 AD000000 		.4byte	0xad
 1417 0698 01       		.byte	0x1
ARM GAS  C:\Users\jenny\AppData\Local\Temp\cckYFzQm.s 			page 26


 1418 0699 52       		.byte	0x52
 1419 069a 00       		.byte	0
 1420 069b 1A       		.uleb128 0x1a
 1421 069c 01       		.byte	0x1
 1422 069d D0020000 		.4byte	.LASF97
 1423 06a1 01       		.byte	0x1
 1424 06a2 CB       		.byte	0xcb
 1425 06a3 01       		.byte	0x1
 1426 06a4 AE010000 		.4byte	0x1ae
 1427 06a8 00000000 		.4byte	.LFB11
 1428 06ac AA000000 		.4byte	.LFE11
 1429 06b0 6B010000 		.4byte	.LLST11
 1430 06b4 01       		.byte	0x1
 1431 06b5 FD070000 		.4byte	0x7fd
 1432 06b9 11       		.uleb128 0x11
 1433 06ba 70636200 		.ascii	"pcb\000"
 1434 06be 01       		.byte	0x1
 1435 06bf CB       		.byte	0xcb
 1436 06c0 C2040000 		.4byte	0x4c2
 1437 06c4 97010000 		.4byte	.LLST12
 1438 06c8 11       		.uleb128 0x11
 1439 06c9 7000     		.ascii	"p\000"
 1440 06cb 01       		.byte	0x1
 1441 06cc CB       		.byte	0xcb
 1442 06cd 80020000 		.4byte	0x280
 1443 06d1 3A020000 		.4byte	.LLST13
 1444 06d5 16       		.uleb128 0x16
 1445 06d6 6D010000 		.4byte	.LASF95
 1446 06da 01       		.byte	0x1
 1447 06db CB       		.byte	0xcb
 1448 06dc AD030000 		.4byte	0x3ad
 1449 06e0 58020000 		.4byte	.LLST14
 1450 06e4 12       		.uleb128 0x12
 1451 06e5 65727200 		.ascii	"err\000"
 1452 06e9 01       		.byte	0x1
 1453 06ea CD       		.byte	0xcd
 1454 06eb AE010000 		.4byte	0x1ae
 1455 06ef 76020000 		.4byte	.LLST15
 1456 06f3 13       		.uleb128 0x13
 1457 06f4 AF040000 		.4byte	.LASF60
 1458 06f8 01       		.byte	0x1
 1459 06f9 CE       		.byte	0xce
 1460 06fa 86020000 		.4byte	0x286
 1461 06fe 94020000 		.4byte	.LLST16
 1462 0702 13       		.uleb128 0x13
 1463 0703 BB000000 		.4byte	.LASF98
 1464 0707 01       		.byte	0x1
 1465 0708 CF       		.byte	0xcf
 1466 0709 AD030000 		.4byte	0x3ad
 1467 070d DE020000 		.4byte	.LLST17
 1468 0711 12       		.uleb128 0x12
 1469 0712 7100     		.ascii	"q\000"
 1470 0714 01       		.byte	0x1
 1471 0715 D0       		.byte	0xd0
 1472 0716 80020000 		.4byte	0x280
 1473 071a FC020000 		.4byte	.LLST18
 1474 071e 1B       		.uleb128 0x1b
ARM GAS  C:\Users\jenny\AppData\Local\Temp\cckYFzQm.s 			page 27


 1475 071f 14000000 		.4byte	.LVL19
 1476 0723 3F090000 		.4byte	0x93f
 1477 0727 37070000 		.4byte	0x737
 1478 072b 1C       		.uleb128 0x1c
 1479 072c 01       		.byte	0x1
 1480 072d 51       		.byte	0x51
 1481 072e 01       		.byte	0x1
 1482 072f 44       		.byte	0x44
 1483 0730 1C       		.uleb128 0x1c
 1484 0731 01       		.byte	0x1
 1485 0732 50       		.byte	0x50
 1486 0733 02       		.byte	0x2
 1487 0734 75       		.byte	0x75
 1488 0735 00       		.sleb128 0
 1489 0736 00       		.byte	0
 1490 0737 1B       		.uleb128 0x1b
 1491 0738 22000000 		.4byte	.LVL20
 1492 073c 5C090000 		.4byte	0x95c
 1493 0740 54070000 		.4byte	0x754
 1494 0744 1C       		.uleb128 0x1c
 1495 0745 01       		.byte	0x1
 1496 0746 52       		.byte	0x52
 1497 0747 01       		.byte	0x1
 1498 0748 30       		.byte	0x30
 1499 0749 1C       		.uleb128 0x1c
 1500 074a 01       		.byte	0x1
 1501 074b 51       		.byte	0x51
 1502 074c 01       		.byte	0x1
 1503 074d 30       		.byte	0x30
 1504 074e 1C       		.uleb128 0x1c
 1505 074f 01       		.byte	0x1
 1506 0750 50       		.byte	0x50
 1507 0751 01       		.byte	0x1
 1508 0752 31       		.byte	0x31
 1509 0753 00       		.byte	0
 1510 0754 1B       		.uleb128 0x1b
 1511 0755 34000000 		.4byte	.LVL22
 1512 0759 7E090000 		.4byte	0x97e
 1513 075d 68070000 		.4byte	0x768
 1514 0761 1C       		.uleb128 0x1c
 1515 0762 01       		.byte	0x1
 1516 0763 50       		.byte	0x50
 1517 0764 02       		.byte	0x2
 1518 0765 78       		.byte	0x78
 1519 0766 00       		.sleb128 0
 1520 0767 00       		.byte	0
 1521 0768 1B       		.uleb128 0x1b
 1522 0769 56000000 		.4byte	.LVL26
 1523 076d 96090000 		.4byte	0x996
 1524 0771 89070000 		.4byte	0x789
 1525 0775 1C       		.uleb128 0x1c
 1526 0776 01       		.byte	0x1
 1527 0777 52       		.byte	0x52
 1528 0778 02       		.byte	0x2
 1529 0779 78       		.byte	0x78
 1530 077a 00       		.sleb128 0
 1531 077b 1C       		.uleb128 0x1c
ARM GAS  C:\Users\jenny\AppData\Local\Temp\cckYFzQm.s 			page 28


 1532 077c 01       		.byte	0x1
 1533 077d 50       		.byte	0x50
 1534 077e 02       		.byte	0x2
 1535 077f 77       		.byte	0x77
 1536 0780 00       		.sleb128 0
 1537 0781 1C       		.uleb128 0x1c
 1538 0782 02       		.byte	0x2
 1539 0783 7D       		.byte	0x7d
 1540 0784 08       		.sleb128 8
 1541 0785 02       		.byte	0x2
 1542 0786 76       		.byte	0x76
 1543 0787 00       		.sleb128 0
 1544 0788 00       		.byte	0
 1545 0789 1B       		.uleb128 0x1b
 1546 078a 62000000 		.4byte	.LVL29
 1547 078e CC090000 		.4byte	0x9cc
 1548 0792 9D070000 		.4byte	0x79d
 1549 0796 1C       		.uleb128 0x1c
 1550 0797 01       		.byte	0x1
 1551 0798 50       		.byte	0x50
 1552 0799 02       		.byte	0x2
 1553 079a 77       		.byte	0x77
 1554 079b 00       		.sleb128 0
 1555 079c 00       		.byte	0
 1556 079d 1B       		.uleb128 0x1b
 1557 079e 74000000 		.4byte	.LVL31
 1558 07a2 3F090000 		.4byte	0x93f
 1559 07a6 B7070000 		.4byte	0x7b7
 1560 07aa 1C       		.uleb128 0x1c
 1561 07ab 01       		.byte	0x1
 1562 07ac 51       		.byte	0x51
 1563 07ad 02       		.byte	0x2
 1564 07ae 09       		.byte	0x9
 1565 07af EC       		.byte	0xec
 1566 07b0 1C       		.uleb128 0x1c
 1567 07b1 01       		.byte	0x1
 1568 07b2 50       		.byte	0x50
 1569 07b3 02       		.byte	0x2
 1570 07b4 75       		.byte	0x75
 1571 07b5 00       		.sleb128 0
 1572 07b6 00       		.byte	0
 1573 07b7 1B       		.uleb128 0x1b
 1574 07b8 7C000000 		.4byte	.LVL32
 1575 07bc 7E090000 		.4byte	0x97e
 1576 07c0 CB070000 		.4byte	0x7cb
 1577 07c4 1C       		.uleb128 0x1c
 1578 07c5 01       		.byte	0x1
 1579 07c6 50       		.byte	0x50
 1580 07c7 02       		.byte	0x2
 1581 07c8 78       		.byte	0x78
 1582 07c9 00       		.sleb128 0
 1583 07ca 00       		.byte	0
 1584 07cb 1B       		.uleb128 0x1b
 1585 07cc 92000000 		.4byte	.LVL37
 1586 07d0 CC090000 		.4byte	0x9cc
 1587 07d4 DF070000 		.4byte	0x7df
 1588 07d8 1C       		.uleb128 0x1c
ARM GAS  C:\Users\jenny\AppData\Local\Temp\cckYFzQm.s 			page 29


 1589 07d9 01       		.byte	0x1
 1590 07da 50       		.byte	0x50
 1591 07db 02       		.byte	0x2
 1592 07dc 77       		.byte	0x77
 1593 07dd 00       		.sleb128 0
 1594 07de 00       		.byte	0
 1595 07df 1B       		.uleb128 0x1b
 1596 07e0 9C000000 		.4byte	.LVL40
 1597 07e4 E4090000 		.4byte	0x9e4
 1598 07e8 F3070000 		.4byte	0x7f3
 1599 07ec 1C       		.uleb128 0x1c
 1600 07ed 01       		.byte	0x1
 1601 07ee 51       		.byte	0x51
 1602 07ef 02       		.byte	0x2
 1603 07f0 75       		.byte	0x75
 1604 07f1 00       		.sleb128 0
 1605 07f2 00       		.byte	0
 1606 07f3 1D       		.uleb128 0x1d
 1607 07f4 A2000000 		.4byte	.LVL42
 1608 07f8 FD090000 		.4byte	0x9fd
 1609 07fc 00       		.byte	0
 1610 07fd 1E       		.uleb128 0x1e
 1611 07fe 01       		.byte	0x1
 1612 07ff 7B030000 		.4byte	.LASF99
 1613 0803 01       		.byte	0x1
 1614 0804 1E01     		.2byte	0x11e
 1615 0806 01       		.byte	0x1
 1616 0807 AE010000 		.4byte	0x1ae
 1617 080b 00000000 		.4byte	.LFB12
 1618 080f 06000000 		.4byte	.LFE12
 1619 0813 02       		.byte	0x2
 1620 0814 7D       		.byte	0x7d
 1621 0815 00       		.sleb128 0
 1622 0816 01       		.byte	0x1
 1623 0817 5C080000 		.4byte	0x85c
 1624 081b 1F       		.uleb128 0x1f
 1625 081c 70636200 		.ascii	"pcb\000"
 1626 0820 01       		.byte	0x1
 1627 0821 1E01     		.2byte	0x11e
 1628 0823 C2040000 		.4byte	0x4c2
 1629 0827 5C030000 		.4byte	.LLST19
 1630 082b 1F       		.uleb128 0x1f
 1631 082c 7000     		.ascii	"p\000"
 1632 082e 01       		.byte	0x1
 1633 082f 1E01     		.2byte	0x11e
 1634 0831 80020000 		.4byte	0x280
 1635 0835 7D030000 		.4byte	.LLST20
 1636 0839 20       		.uleb128 0x20
 1637 083a 06000000 		.4byte	.LVL47
 1638 083e 01       		.byte	0x1
 1639 083f 9B060000 		.4byte	0x69b
 1640 0843 1C       		.uleb128 0x1c
 1641 0844 01       		.byte	0x1
 1642 0845 52       		.byte	0x52
 1643 0846 05       		.byte	0x5
 1644 0847 F3       		.byte	0xf3
 1645 0848 01       		.uleb128 0x1
ARM GAS  C:\Users\jenny\AppData\Local\Temp\cckYFzQm.s 			page 30


 1646 0849 50       		.byte	0x50
 1647 084a 23       		.byte	0x23
 1648 084b 04       		.uleb128 0x4
 1649 084c 1C       		.uleb128 0x1c
 1650 084d 01       		.byte	0x1
 1651 084e 51       		.byte	0x51
 1652 084f 03       		.byte	0x3
 1653 0850 F3       		.byte	0xf3
 1654 0851 01       		.uleb128 0x1
 1655 0852 51       		.byte	0x51
 1656 0853 1C       		.uleb128 0x1c
 1657 0854 01       		.byte	0x1
 1658 0855 50       		.byte	0x50
 1659 0856 03       		.byte	0x3
 1660 0857 F3       		.byte	0xf3
 1661 0858 01       		.uleb128 0x1
 1662 0859 50       		.byte	0x50
 1663 085a 00       		.byte	0
 1664 085b 00       		.byte	0
 1665 085c 21       		.uleb128 0x21
 1666 085d 01       		.byte	0x1
 1667 085e A4040000 		.4byte	.LASF101
 1668 0862 01       		.byte	0x1
 1669 0863 2C01     		.2byte	0x12c
 1670 0865 01       		.byte	0x1
 1671 0866 00000000 		.4byte	.LFB13
 1672 086a 34000000 		.4byte	.LFE13
 1673 086e 02       		.byte	0x2
 1674 086f 7D       		.byte	0x7d
 1675 0870 00       		.sleb128 0
 1676 0871 01       		.byte	0x1
 1677 0872 A7080000 		.4byte	0x8a7
 1678 0876 1F       		.uleb128 0x1f
 1679 0877 70636200 		.ascii	"pcb\000"
 1680 087b 01       		.byte	0x1
 1681 087c 2C01     		.2byte	0x12c
 1682 087e C2040000 		.4byte	0x4c2
 1683 0882 9E030000 		.4byte	.LLST21
 1684 0886 22       		.uleb128 0x22
 1685 0887 E9040000 		.4byte	.LASF102
 1686 088b 01       		.byte	0x1
 1687 088c 2E01     		.2byte	0x12e
 1688 088e C2040000 		.4byte	0x4c2
 1689 0892 EB030000 		.4byte	.LLST22
 1690 0896 20       		.uleb128 0x20
 1691 0897 20000000 		.4byte	.LVL51
 1692 089b 01       		.byte	0x1
 1693 089c 080A0000 		.4byte	0xa08
 1694 08a0 1C       		.uleb128 0x1c
 1695 08a1 01       		.byte	0x1
 1696 08a2 50       		.byte	0x50
 1697 08a3 01       		.byte	0x1
 1698 08a4 30       		.byte	0x30
 1699 08a5 00       		.byte	0
 1700 08a6 00       		.byte	0
 1701 08a7 23       		.uleb128 0x23
 1702 08a8 01       		.byte	0x1
ARM GAS  C:\Users\jenny\AppData\Local\Temp\cckYFzQm.s 			page 31


 1703 08a9 00000000 		.4byte	.LASF103
 1704 08ad 01       		.byte	0x1
 1705 08ae 4B01     		.2byte	0x14b
 1706 08b0 01       		.byte	0x1
 1707 08b1 C2040000 		.4byte	0x4c2
 1708 08b5 00000000 		.4byte	.LFB14
 1709 08b9 2C000000 		.4byte	.LFE14
 1710 08bd 09040000 		.4byte	.LLST23
 1711 08c1 01       		.byte	0x1
 1712 08c2 14090000 		.4byte	0x914
 1713 08c6 24       		.uleb128 0x24
 1714 08c7 54020000 		.4byte	.LASF91
 1715 08cb 01       		.byte	0x1
 1716 08cc 4B01     		.2byte	0x14b
 1717 08ce BD000000 		.4byte	0xbd
 1718 08d2 29040000 		.4byte	.LLST24
 1719 08d6 25       		.uleb128 0x25
 1720 08d7 70636200 		.ascii	"pcb\000"
 1721 08db 01       		.byte	0x1
 1722 08dc 4D01     		.2byte	0x14d
 1723 08de C2040000 		.4byte	0x4c2
 1724 08e2 4A040000 		.4byte	.LLST25
 1725 08e6 1B       		.uleb128 0x1b
 1726 08e7 0A000000 		.4byte	.LVL57
 1727 08eb 210A0000 		.4byte	0xa21
 1728 08ef F9080000 		.4byte	0x8f9
 1729 08f3 1C       		.uleb128 0x1c
 1730 08f4 01       		.byte	0x1
 1731 08f5 50       		.byte	0x50
 1732 08f6 01       		.byte	0x1
 1733 08f7 30       		.byte	0x30
 1734 08f8 00       		.byte	0
 1735 08f9 26       		.uleb128 0x26
 1736 08fa 16000000 		.4byte	.LVL58
 1737 08fe 390A0000 		.4byte	0xa39
 1738 0902 1C       		.uleb128 0x1c
 1739 0903 01       		.byte	0x1
 1740 0904 52       		.byte	0x52
 1741 0905 01       		.byte	0x1
 1742 0906 4C       		.byte	0x4c
 1743 0907 1C       		.uleb128 0x1c
 1744 0908 01       		.byte	0x1
 1745 0909 51       		.byte	0x51
 1746 090a 01       		.byte	0x1
 1747 090b 30       		.byte	0x30
 1748 090c 1C       		.uleb128 0x1c
 1749 090d 01       		.byte	0x1
 1750 090e 50       		.byte	0x50
 1751 090f 02       		.byte	0x2
 1752 0910 74       		.byte	0x74
 1753 0911 00       		.sleb128 0
 1754 0912 00       		.byte	0
 1755 0913 00       		.byte	0
 1756 0914 14       		.uleb128 0x14
 1757 0915 91010000 		.4byte	.LASF104
 1758 0919 01       		.byte	0x1
 1759 091a 38       		.byte	0x38
ARM GAS  C:\Users\jenny\AppData\Local\Temp\cckYFzQm.s 			page 32


 1760 091b C2040000 		.4byte	0x4c2
 1761 091f 05       		.byte	0x5
 1762 0920 03       		.byte	0x3
 1763 0921 00000000 		.4byte	raw_pcbs
 1764 0925 27       		.uleb128 0x27
 1765 0926 1A010000 		.4byte	.LASF105
 1766 092a 09       		.byte	0x9
 1767 092b AA       		.byte	0xaa
 1768 092c 98010000 		.4byte	0x198
 1769 0930 01       		.byte	0x1
 1770 0931 01       		.byte	0x1
 1771 0932 27       		.uleb128 0x27
 1772 0933 EE040000 		.4byte	.LASF106
 1773 0937 09       		.byte	0x9
 1774 0938 AC       		.byte	0xac
 1775 0939 98010000 		.4byte	0x198
 1776 093d 01       		.byte	0x1
 1777 093e 01       		.byte	0x1
 1778 093f 28       		.uleb128 0x28
 1779 0940 01       		.byte	0x1
 1780 0941 21020000 		.4byte	.LASF107
 1781 0945 07       		.byte	0x7
 1782 0946 99       		.byte	0x99
 1783 0947 01       		.byte	0x1
 1784 0948 BD000000 		.4byte	0xbd
 1785 094c 01       		.byte	0x1
 1786 094d 5C090000 		.4byte	0x95c
 1787 0951 0D       		.uleb128 0xd
 1788 0952 80020000 		.4byte	0x280
 1789 0956 0D       		.uleb128 0xd
 1790 0957 DE000000 		.4byte	0xde
 1791 095b 00       		.byte	0
 1792 095c 28       		.uleb128 0x28
 1793 095d 01       		.byte	0x1
 1794 095e 8D020000 		.4byte	.LASF108
 1795 0962 07       		.byte	0x7
 1796 0963 92       		.byte	0x92
 1797 0964 01       		.byte	0x1
 1798 0965 80020000 		.4byte	0x280
 1799 0969 01       		.byte	0x1
 1800 096a 7E090000 		.4byte	0x97e
 1801 096e 0D       		.uleb128 0xd
 1802 096f DA010000 		.4byte	0x1da
 1803 0973 0D       		.uleb128 0xd
 1804 0974 D3000000 		.4byte	0xd3
 1805 0978 0D       		.uleb128 0xd
 1806 0979 06020000 		.4byte	0x206
 1807 097d 00       		.byte	0
 1808 097e 28       		.uleb128 0x28
 1809 097f 01       		.byte	0x1
 1810 0980 1A050000 		.4byte	.LASF109
 1811 0984 09       		.byte	0x9
 1812 0985 AF       		.byte	0xaf
 1813 0986 01       		.byte	0x1
 1814 0987 86020000 		.4byte	0x286
 1815 098b 01       		.byte	0x1
 1816 098c 96090000 		.4byte	0x996
ARM GAS  C:\Users\jenny\AppData\Local\Temp\cckYFzQm.s 			page 33


 1817 0990 0D       		.uleb128 0xd
 1818 0991 AD030000 		.4byte	0x3ad
 1819 0995 00       		.byte	0
 1820 0996 28       		.uleb128 0x28
 1821 0997 01       		.byte	0x1
 1822 0998 C4030000 		.4byte	.LASF110
 1823 099c 09       		.byte	0x9
 1824 099d B3       		.byte	0xb3
 1825 099e 01       		.byte	0x1
 1826 099f AE010000 		.4byte	0x1ae
 1827 09a3 01       		.byte	0x1
 1828 09a4 CC090000 		.4byte	0x9cc
 1829 09a8 0D       		.uleb128 0xd
 1830 09a9 80020000 		.4byte	0x280
 1831 09ad 0D       		.uleb128 0xd
 1832 09ae AD030000 		.4byte	0x3ad
 1833 09b2 0D       		.uleb128 0xd
 1834 09b3 AD030000 		.4byte	0x3ad
 1835 09b7 0D       		.uleb128 0xd
 1836 09b8 BD000000 		.4byte	0xbd
 1837 09bc 0D       		.uleb128 0xd
 1838 09bd BD000000 		.4byte	0xbd
 1839 09c1 0D       		.uleb128 0xd
 1840 09c2 BD000000 		.4byte	0xbd
 1841 09c6 0D       		.uleb128 0xd
 1842 09c7 86020000 		.4byte	0x286
 1843 09cb 00       		.byte	0
 1844 09cc 28       		.uleb128 0x28
 1845 09cd 01       		.byte	0x1
 1846 09ce 98020000 		.4byte	.LASF111
 1847 09d2 07       		.byte	0x7
 1848 09d3 9B       		.byte	0x9b
 1849 09d4 01       		.byte	0x1
 1850 09d5 BD000000 		.4byte	0xbd
 1851 09d9 01       		.byte	0x1
 1852 09da E4090000 		.4byte	0x9e4
 1853 09de 0D       		.uleb128 0xd
 1854 09df 80020000 		.4byte	0x280
 1855 09e3 00       		.byte	0
 1856 09e4 29       		.uleb128 0x29
 1857 09e5 01       		.byte	0x1
 1858 09e6 36040000 		.4byte	.LASF112
 1859 09ea 07       		.byte	0x7
 1860 09eb 9E       		.byte	0x9e
 1861 09ec 01       		.byte	0x1
 1862 09ed 01       		.byte	0x1
 1863 09ee FD090000 		.4byte	0x9fd
 1864 09f2 0D       		.uleb128 0xd
 1865 09f3 80020000 		.4byte	0x280
 1866 09f7 0D       		.uleb128 0xd
 1867 09f8 80020000 		.4byte	0x280
 1868 09fc 00       		.byte	0
 1869 09fd 2A       		.uleb128 0x2a
 1870 09fe 01       		.byte	0x1
 1871 09ff 83040000 		.4byte	.LASF118
 1872 0a03 0B       		.byte	0xb
 1873 0a04 0102     		.2byte	0x201
ARM GAS  C:\Users\jenny\AppData\Local\Temp\cckYFzQm.s 			page 34


 1874 0a06 01       		.byte	0x1
 1875 0a07 01       		.byte	0x1
 1876 0a08 29       		.uleb128 0x29
 1877 0a09 01       		.byte	0x1
 1878 0a0a BB040000 		.4byte	.LASF113
 1879 0a0e 04       		.byte	0x4
 1880 0a0f 6C       		.byte	0x6c
 1881 0a10 01       		.byte	0x1
 1882 0a11 01       		.byte	0x1
 1883 0a12 210A0000 		.4byte	0xa21
 1884 0a16 0D       		.uleb128 0xd
 1885 0a17 57010000 		.4byte	0x157
 1886 0a1b 0D       		.uleb128 0xd
 1887 0a1c AD000000 		.4byte	0xad
 1888 0a20 00       		.byte	0
 1889 0a21 28       		.uleb128 0x28
 1890 0a22 01       		.byte	0x1
 1891 0a23 A2020000 		.4byte	.LASF114
 1892 0a27 04       		.byte	0x4
 1893 0a28 6A       		.byte	0x6a
 1894 0a29 01       		.byte	0x1
 1895 0a2a AD000000 		.4byte	0xad
 1896 0a2e 01       		.byte	0x1
 1897 0a2f 390A0000 		.4byte	0xa39
 1898 0a33 0D       		.uleb128 0xd
 1899 0a34 57010000 		.4byte	0x157
 1900 0a38 00       		.byte	0
 1901 0a39 2B       		.uleb128 0x2b
 1902 0a3a 01       		.byte	0x1
 1903 0a3b FF020000 		.4byte	.LASF119
 1904 0a3f 01       		.byte	0x1
 1905 0a40 AD000000 		.4byte	0xad
 1906 0a44 01       		.byte	0x1
 1907 0a45 01       		.byte	0x1
 1908 0a46 0D       		.uleb128 0xd
 1909 0a47 AD000000 		.4byte	0xad
 1910 0a4b 0D       		.uleb128 0xd
 1911 0a4c 29000000 		.4byte	0x29
 1912 0a50 0D       		.uleb128 0xd
 1913 0a51 AF000000 		.4byte	0xaf
 1914 0a55 00       		.byte	0
 1915 0a56 00       		.byte	0
 1916              		.section	.debug_abbrev,"",%progbits
 1917              	.Ldebug_abbrev0:
 1918 0000 01       		.uleb128 0x1
 1919 0001 11       		.uleb128 0x11
 1920 0002 01       		.byte	0x1
 1921 0003 25       		.uleb128 0x25
 1922 0004 0E       		.uleb128 0xe
 1923 0005 13       		.uleb128 0x13
 1924 0006 0B       		.uleb128 0xb
 1925 0007 03       		.uleb128 0x3
 1926 0008 0E       		.uleb128 0xe
 1927 0009 1B       		.uleb128 0x1b
 1928 000a 0E       		.uleb128 0xe
 1929 000b 55       		.uleb128 0x55
 1930 000c 06       		.uleb128 0x6
ARM GAS  C:\Users\jenny\AppData\Local\Temp\cckYFzQm.s 			page 35


 1931 000d 11       		.uleb128 0x11
 1932 000e 01       		.uleb128 0x1
 1933 000f 52       		.uleb128 0x52
 1934 0010 01       		.uleb128 0x1
 1935 0011 10       		.uleb128 0x10
 1936 0012 06       		.uleb128 0x6
 1937 0013 00       		.byte	0
 1938 0014 00       		.byte	0
 1939 0015 02       		.uleb128 0x2
 1940 0016 24       		.uleb128 0x24
 1941 0017 00       		.byte	0
 1942 0018 0B       		.uleb128 0xb
 1943 0019 0B       		.uleb128 0xb
 1944 001a 3E       		.uleb128 0x3e
 1945 001b 0B       		.uleb128 0xb
 1946 001c 03       		.uleb128 0x3
 1947 001d 08       		.uleb128 0x8
 1948 001e 00       		.byte	0
 1949 001f 00       		.byte	0
 1950 0020 03       		.uleb128 0x3
 1951 0021 24       		.uleb128 0x24
 1952 0022 00       		.byte	0
 1953 0023 0B       		.uleb128 0xb
 1954 0024 0B       		.uleb128 0xb
 1955 0025 3E       		.uleb128 0x3e
 1956 0026 0B       		.uleb128 0xb
 1957 0027 03       		.uleb128 0x3
 1958 0028 0E       		.uleb128 0xe
 1959 0029 00       		.byte	0
 1960 002a 00       		.byte	0
 1961 002b 04       		.uleb128 0x4
 1962 002c 16       		.uleb128 0x16
 1963 002d 00       		.byte	0
 1964 002e 03       		.uleb128 0x3
 1965 002f 0E       		.uleb128 0xe
 1966 0030 3A       		.uleb128 0x3a
 1967 0031 0B       		.uleb128 0xb
 1968 0032 3B       		.uleb128 0x3b
 1969 0033 0B       		.uleb128 0xb
 1970 0034 49       		.uleb128 0x49
 1971 0035 13       		.uleb128 0x13
 1972 0036 00       		.byte	0
 1973 0037 00       		.byte	0
 1974 0038 05       		.uleb128 0x5
 1975 0039 0F       		.uleb128 0xf
 1976 003a 00       		.byte	0
 1977 003b 0B       		.uleb128 0xb
 1978 003c 0B       		.uleb128 0xb
 1979 003d 00       		.byte	0
 1980 003e 00       		.byte	0
 1981 003f 06       		.uleb128 0x6
 1982 0040 04       		.uleb128 0x4
 1983 0041 01       		.byte	0x1
 1984 0042 0B       		.uleb128 0xb
 1985 0043 0B       		.uleb128 0xb
 1986 0044 3A       		.uleb128 0x3a
 1987 0045 0B       		.uleb128 0xb
ARM GAS  C:\Users\jenny\AppData\Local\Temp\cckYFzQm.s 			page 36


 1988 0046 3B       		.uleb128 0x3b
 1989 0047 0B       		.uleb128 0xb
 1990 0048 01       		.uleb128 0x1
 1991 0049 13       		.uleb128 0x13
 1992 004a 00       		.byte	0
 1993 004b 00       		.byte	0
 1994 004c 07       		.uleb128 0x7
 1995 004d 28       		.uleb128 0x28
 1996 004e 00       		.byte	0
 1997 004f 03       		.uleb128 0x3
 1998 0050 0E       		.uleb128 0xe
 1999 0051 1C       		.uleb128 0x1c
 2000 0052 0D       		.uleb128 0xd
 2001 0053 00       		.byte	0
 2002 0054 00       		.byte	0
 2003 0055 08       		.uleb128 0x8
 2004 0056 13       		.uleb128 0x13
 2005 0057 01       		.byte	0x1
 2006 0058 03       		.uleb128 0x3
 2007 0059 0E       		.uleb128 0xe
 2008 005a 0B       		.uleb128 0xb
 2009 005b 0B       		.uleb128 0xb
 2010 005c 3A       		.uleb128 0x3a
 2011 005d 0B       		.uleb128 0xb
 2012 005e 3B       		.uleb128 0x3b
 2013 005f 0B       		.uleb128 0xb
 2014 0060 01       		.uleb128 0x1
 2015 0061 13       		.uleb128 0x13
 2016 0062 00       		.byte	0
 2017 0063 00       		.byte	0
 2018 0064 09       		.uleb128 0x9
 2019 0065 0D       		.uleb128 0xd
 2020 0066 00       		.byte	0
 2021 0067 03       		.uleb128 0x3
 2022 0068 0E       		.uleb128 0xe
 2023 0069 3A       		.uleb128 0x3a
 2024 006a 0B       		.uleb128 0xb
 2025 006b 3B       		.uleb128 0x3b
 2026 006c 0B       		.uleb128 0xb
 2027 006d 49       		.uleb128 0x49
 2028 006e 13       		.uleb128 0x13
 2029 006f 38       		.uleb128 0x38
 2030 0070 0A       		.uleb128 0xa
 2031 0071 00       		.byte	0
 2032 0072 00       		.byte	0
 2033 0073 0A       		.uleb128 0xa
 2034 0074 0D       		.uleb128 0xd
 2035 0075 00       		.byte	0
 2036 0076 03       		.uleb128 0x3
 2037 0077 08       		.uleb128 0x8
 2038 0078 3A       		.uleb128 0x3a
 2039 0079 0B       		.uleb128 0xb
 2040 007a 3B       		.uleb128 0x3b
 2041 007b 0B       		.uleb128 0xb
 2042 007c 49       		.uleb128 0x49
 2043 007d 13       		.uleb128 0x13
 2044 007e 38       		.uleb128 0x38
ARM GAS  C:\Users\jenny\AppData\Local\Temp\cckYFzQm.s 			page 37


 2045 007f 0A       		.uleb128 0xa
 2046 0080 00       		.byte	0
 2047 0081 00       		.byte	0
 2048 0082 0B       		.uleb128 0xb
 2049 0083 0F       		.uleb128 0xf
 2050 0084 00       		.byte	0
 2051 0085 0B       		.uleb128 0xb
 2052 0086 0B       		.uleb128 0xb
 2053 0087 49       		.uleb128 0x49
 2054 0088 13       		.uleb128 0x13
 2055 0089 00       		.byte	0
 2056 008a 00       		.byte	0
 2057 008b 0C       		.uleb128 0xc
 2058 008c 15       		.uleb128 0x15
 2059 008d 01       		.byte	0x1
 2060 008e 27       		.uleb128 0x27
 2061 008f 0C       		.uleb128 0xc
 2062 0090 49       		.uleb128 0x49
 2063 0091 13       		.uleb128 0x13
 2064 0092 01       		.uleb128 0x1
 2065 0093 13       		.uleb128 0x13
 2066 0094 00       		.byte	0
 2067 0095 00       		.byte	0
 2068 0096 0D       		.uleb128 0xd
 2069 0097 05       		.uleb128 0x5
 2070 0098 00       		.byte	0
 2071 0099 49       		.uleb128 0x49
 2072 009a 13       		.uleb128 0x13
 2073 009b 00       		.byte	0
 2074 009c 00       		.byte	0
 2075 009d 0E       		.uleb128 0xe
 2076 009e 01       		.uleb128 0x1
 2077 009f 01       		.byte	0x1
 2078 00a0 49       		.uleb128 0x49
 2079 00a1 13       		.uleb128 0x13
 2080 00a2 01       		.uleb128 0x1
 2081 00a3 13       		.uleb128 0x13
 2082 00a4 00       		.byte	0
 2083 00a5 00       		.byte	0
 2084 00a6 0F       		.uleb128 0xf
 2085 00a7 21       		.uleb128 0x21
 2086 00a8 00       		.byte	0
 2087 00a9 49       		.uleb128 0x49
 2088 00aa 13       		.uleb128 0x13
 2089 00ab 2F       		.uleb128 0x2f
 2090 00ac 0B       		.uleb128 0xb
 2091 00ad 00       		.byte	0
 2092 00ae 00       		.byte	0
 2093 00af 10       		.uleb128 0x10
 2094 00b0 2E       		.uleb128 0x2e
 2095 00b1 01       		.byte	0x1
 2096 00b2 3F       		.uleb128 0x3f
 2097 00b3 0C       		.uleb128 0xc
 2098 00b4 03       		.uleb128 0x3
 2099 00b5 0E       		.uleb128 0xe
 2100 00b6 3A       		.uleb128 0x3a
 2101 00b7 0B       		.uleb128 0xb
ARM GAS  C:\Users\jenny\AppData\Local\Temp\cckYFzQm.s 			page 38


 2102 00b8 3B       		.uleb128 0x3b
 2103 00b9 0B       		.uleb128 0xb
 2104 00ba 27       		.uleb128 0x27
 2105 00bb 0C       		.uleb128 0xc
 2106 00bc 49       		.uleb128 0x49
 2107 00bd 13       		.uleb128 0x13
 2108 00be 11       		.uleb128 0x11
 2109 00bf 01       		.uleb128 0x1
 2110 00c0 12       		.uleb128 0x12
 2111 00c1 01       		.uleb128 0x1
 2112 00c2 40       		.uleb128 0x40
 2113 00c3 06       		.uleb128 0x6
 2114 00c4 9642     		.uleb128 0x2116
 2115 00c6 0C       		.uleb128 0xc
 2116 00c7 01       		.uleb128 0x1
 2117 00c8 13       		.uleb128 0x13
 2118 00c9 00       		.byte	0
 2119 00ca 00       		.byte	0
 2120 00cb 11       		.uleb128 0x11
 2121 00cc 05       		.uleb128 0x5
 2122 00cd 00       		.byte	0
 2123 00ce 03       		.uleb128 0x3
 2124 00cf 08       		.uleb128 0x8
 2125 00d0 3A       		.uleb128 0x3a
 2126 00d1 0B       		.uleb128 0xb
 2127 00d2 3B       		.uleb128 0x3b
 2128 00d3 0B       		.uleb128 0xb
 2129 00d4 49       		.uleb128 0x49
 2130 00d5 13       		.uleb128 0x13
 2131 00d6 02       		.uleb128 0x2
 2132 00d7 06       		.uleb128 0x6
 2133 00d8 00       		.byte	0
 2134 00d9 00       		.byte	0
 2135 00da 12       		.uleb128 0x12
 2136 00db 34       		.uleb128 0x34
 2137 00dc 00       		.byte	0
 2138 00dd 03       		.uleb128 0x3
 2139 00de 08       		.uleb128 0x8
 2140 00df 3A       		.uleb128 0x3a
 2141 00e0 0B       		.uleb128 0xb
 2142 00e1 3B       		.uleb128 0x3b
 2143 00e2 0B       		.uleb128 0xb
 2144 00e3 49       		.uleb128 0x49
 2145 00e4 13       		.uleb128 0x13
 2146 00e5 02       		.uleb128 0x2
 2147 00e6 06       		.uleb128 0x6
 2148 00e7 00       		.byte	0
 2149 00e8 00       		.byte	0
 2150 00e9 13       		.uleb128 0x13
 2151 00ea 34       		.uleb128 0x34
 2152 00eb 00       		.byte	0
 2153 00ec 03       		.uleb128 0x3
 2154 00ed 0E       		.uleb128 0xe
 2155 00ee 3A       		.uleb128 0x3a
 2156 00ef 0B       		.uleb128 0xb
 2157 00f0 3B       		.uleb128 0x3b
 2158 00f1 0B       		.uleb128 0xb
ARM GAS  C:\Users\jenny\AppData\Local\Temp\cckYFzQm.s 			page 39


 2159 00f2 49       		.uleb128 0x49
 2160 00f3 13       		.uleb128 0x13
 2161 00f4 02       		.uleb128 0x2
 2162 00f5 06       		.uleb128 0x6
 2163 00f6 00       		.byte	0
 2164 00f7 00       		.byte	0
 2165 00f8 14       		.uleb128 0x14
 2166 00f9 34       		.uleb128 0x34
 2167 00fa 00       		.byte	0
 2168 00fb 03       		.uleb128 0x3
 2169 00fc 0E       		.uleb128 0xe
 2170 00fd 3A       		.uleb128 0x3a
 2171 00fe 0B       		.uleb128 0xb
 2172 00ff 3B       		.uleb128 0x3b
 2173 0100 0B       		.uleb128 0xb
 2174 0101 49       		.uleb128 0x49
 2175 0102 13       		.uleb128 0x13
 2176 0103 02       		.uleb128 0x2
 2177 0104 0A       		.uleb128 0xa
 2178 0105 00       		.byte	0
 2179 0106 00       		.byte	0
 2180 0107 15       		.uleb128 0x15
 2181 0108 2E       		.uleb128 0x2e
 2182 0109 01       		.byte	0x1
 2183 010a 3F       		.uleb128 0x3f
 2184 010b 0C       		.uleb128 0xc
 2185 010c 03       		.uleb128 0x3
 2186 010d 0E       		.uleb128 0xe
 2187 010e 3A       		.uleb128 0x3a
 2188 010f 0B       		.uleb128 0xb
 2189 0110 3B       		.uleb128 0x3b
 2190 0111 0B       		.uleb128 0xb
 2191 0112 27       		.uleb128 0x27
 2192 0113 0C       		.uleb128 0xc
 2193 0114 49       		.uleb128 0x49
 2194 0115 13       		.uleb128 0x13
 2195 0116 11       		.uleb128 0x11
 2196 0117 01       		.uleb128 0x1
 2197 0118 12       		.uleb128 0x12
 2198 0119 01       		.uleb128 0x1
 2199 011a 40       		.uleb128 0x40
 2200 011b 0A       		.uleb128 0xa
 2201 011c 9742     		.uleb128 0x2117
 2202 011e 0C       		.uleb128 0xc
 2203 011f 01       		.uleb128 0x1
 2204 0120 13       		.uleb128 0x13
 2205 0121 00       		.byte	0
 2206 0122 00       		.byte	0
 2207 0123 16       		.uleb128 0x16
 2208 0124 05       		.uleb128 0x5
 2209 0125 00       		.byte	0
 2210 0126 03       		.uleb128 0x3
 2211 0127 0E       		.uleb128 0xe
 2212 0128 3A       		.uleb128 0x3a
 2213 0129 0B       		.uleb128 0xb
 2214 012a 3B       		.uleb128 0x3b
 2215 012b 0B       		.uleb128 0xb
ARM GAS  C:\Users\jenny\AppData\Local\Temp\cckYFzQm.s 			page 40


 2216 012c 49       		.uleb128 0x49
 2217 012d 13       		.uleb128 0x13
 2218 012e 02       		.uleb128 0x2
 2219 012f 06       		.uleb128 0x6
 2220 0130 00       		.byte	0
 2221 0131 00       		.byte	0
 2222 0132 17       		.uleb128 0x17
 2223 0133 2E       		.uleb128 0x2e
 2224 0134 01       		.byte	0x1
 2225 0135 3F       		.uleb128 0x3f
 2226 0136 0C       		.uleb128 0xc
 2227 0137 03       		.uleb128 0x3
 2228 0138 0E       		.uleb128 0xe
 2229 0139 3A       		.uleb128 0x3a
 2230 013a 0B       		.uleb128 0xb
 2231 013b 3B       		.uleb128 0x3b
 2232 013c 0B       		.uleb128 0xb
 2233 013d 27       		.uleb128 0x27
 2234 013e 0C       		.uleb128 0xc
 2235 013f 11       		.uleb128 0x11
 2236 0140 01       		.uleb128 0x1
 2237 0141 12       		.uleb128 0x12
 2238 0142 01       		.uleb128 0x1
 2239 0143 40       		.uleb128 0x40
 2240 0144 0A       		.uleb128 0xa
 2241 0145 9742     		.uleb128 0x2117
 2242 0147 0C       		.uleb128 0xc
 2243 0148 01       		.uleb128 0x1
 2244 0149 13       		.uleb128 0x13
 2245 014a 00       		.byte	0
 2246 014b 00       		.byte	0
 2247 014c 18       		.uleb128 0x18
 2248 014d 05       		.uleb128 0x5
 2249 014e 00       		.byte	0
 2250 014f 03       		.uleb128 0x3
 2251 0150 08       		.uleb128 0x8
 2252 0151 3A       		.uleb128 0x3a
 2253 0152 0B       		.uleb128 0xb
 2254 0153 3B       		.uleb128 0x3b
 2255 0154 0B       		.uleb128 0xb
 2256 0155 49       		.uleb128 0x49
 2257 0156 13       		.uleb128 0x13
 2258 0157 02       		.uleb128 0x2
 2259 0158 0A       		.uleb128 0xa
 2260 0159 00       		.byte	0
 2261 015a 00       		.byte	0
 2262 015b 19       		.uleb128 0x19
 2263 015c 05       		.uleb128 0x5
 2264 015d 00       		.byte	0
 2265 015e 03       		.uleb128 0x3
 2266 015f 0E       		.uleb128 0xe
 2267 0160 3A       		.uleb128 0x3a
 2268 0161 0B       		.uleb128 0xb
 2269 0162 3B       		.uleb128 0x3b
 2270 0163 0B       		.uleb128 0xb
 2271 0164 49       		.uleb128 0x49
 2272 0165 13       		.uleb128 0x13
ARM GAS  C:\Users\jenny\AppData\Local\Temp\cckYFzQm.s 			page 41


 2273 0166 02       		.uleb128 0x2
 2274 0167 0A       		.uleb128 0xa
 2275 0168 00       		.byte	0
 2276 0169 00       		.byte	0
 2277 016a 1A       		.uleb128 0x1a
 2278 016b 2E       		.uleb128 0x2e
 2279 016c 01       		.byte	0x1
 2280 016d 3F       		.uleb128 0x3f
 2281 016e 0C       		.uleb128 0xc
 2282 016f 03       		.uleb128 0x3
 2283 0170 0E       		.uleb128 0xe
 2284 0171 3A       		.uleb128 0x3a
 2285 0172 0B       		.uleb128 0xb
 2286 0173 3B       		.uleb128 0x3b
 2287 0174 0B       		.uleb128 0xb
 2288 0175 27       		.uleb128 0x27
 2289 0176 0C       		.uleb128 0xc
 2290 0177 49       		.uleb128 0x49
 2291 0178 13       		.uleb128 0x13
 2292 0179 11       		.uleb128 0x11
 2293 017a 01       		.uleb128 0x1
 2294 017b 12       		.uleb128 0x12
 2295 017c 01       		.uleb128 0x1
 2296 017d 40       		.uleb128 0x40
 2297 017e 06       		.uleb128 0x6
 2298 017f 9742     		.uleb128 0x2117
 2299 0181 0C       		.uleb128 0xc
 2300 0182 01       		.uleb128 0x1
 2301 0183 13       		.uleb128 0x13
 2302 0184 00       		.byte	0
 2303 0185 00       		.byte	0
 2304 0186 1B       		.uleb128 0x1b
 2305 0187 898201   		.uleb128 0x4109
 2306 018a 01       		.byte	0x1
 2307 018b 11       		.uleb128 0x11
 2308 018c 01       		.uleb128 0x1
 2309 018d 31       		.uleb128 0x31
 2310 018e 13       		.uleb128 0x13
 2311 018f 01       		.uleb128 0x1
 2312 0190 13       		.uleb128 0x13
 2313 0191 00       		.byte	0
 2314 0192 00       		.byte	0
 2315 0193 1C       		.uleb128 0x1c
 2316 0194 8A8201   		.uleb128 0x410a
 2317 0197 00       		.byte	0
 2318 0198 02       		.uleb128 0x2
 2319 0199 0A       		.uleb128 0xa
 2320 019a 9142     		.uleb128 0x2111
 2321 019c 0A       		.uleb128 0xa
 2322 019d 00       		.byte	0
 2323 019e 00       		.byte	0
 2324 019f 1D       		.uleb128 0x1d
 2325 01a0 898201   		.uleb128 0x4109
 2326 01a3 00       		.byte	0
 2327 01a4 11       		.uleb128 0x11
 2328 01a5 01       		.uleb128 0x1
 2329 01a6 31       		.uleb128 0x31
ARM GAS  C:\Users\jenny\AppData\Local\Temp\cckYFzQm.s 			page 42


 2330 01a7 13       		.uleb128 0x13
 2331 01a8 00       		.byte	0
 2332 01a9 00       		.byte	0
 2333 01aa 1E       		.uleb128 0x1e
 2334 01ab 2E       		.uleb128 0x2e
 2335 01ac 01       		.byte	0x1
 2336 01ad 3F       		.uleb128 0x3f
 2337 01ae 0C       		.uleb128 0xc
 2338 01af 03       		.uleb128 0x3
 2339 01b0 0E       		.uleb128 0xe
 2340 01b1 3A       		.uleb128 0x3a
 2341 01b2 0B       		.uleb128 0xb
 2342 01b3 3B       		.uleb128 0x3b
 2343 01b4 05       		.uleb128 0x5
 2344 01b5 27       		.uleb128 0x27
 2345 01b6 0C       		.uleb128 0xc
 2346 01b7 49       		.uleb128 0x49
 2347 01b8 13       		.uleb128 0x13
 2348 01b9 11       		.uleb128 0x11
 2349 01ba 01       		.uleb128 0x1
 2350 01bb 12       		.uleb128 0x12
 2351 01bc 01       		.uleb128 0x1
 2352 01bd 40       		.uleb128 0x40
 2353 01be 0A       		.uleb128 0xa
 2354 01bf 9742     		.uleb128 0x2117
 2355 01c1 0C       		.uleb128 0xc
 2356 01c2 01       		.uleb128 0x1
 2357 01c3 13       		.uleb128 0x13
 2358 01c4 00       		.byte	0
 2359 01c5 00       		.byte	0
 2360 01c6 1F       		.uleb128 0x1f
 2361 01c7 05       		.uleb128 0x5
 2362 01c8 00       		.byte	0
 2363 01c9 03       		.uleb128 0x3
 2364 01ca 08       		.uleb128 0x8
 2365 01cb 3A       		.uleb128 0x3a
 2366 01cc 0B       		.uleb128 0xb
 2367 01cd 3B       		.uleb128 0x3b
 2368 01ce 05       		.uleb128 0x5
 2369 01cf 49       		.uleb128 0x49
 2370 01d0 13       		.uleb128 0x13
 2371 01d1 02       		.uleb128 0x2
 2372 01d2 06       		.uleb128 0x6
 2373 01d3 00       		.byte	0
 2374 01d4 00       		.byte	0
 2375 01d5 20       		.uleb128 0x20
 2376 01d6 898201   		.uleb128 0x4109
 2377 01d9 01       		.byte	0x1
 2378 01da 11       		.uleb128 0x11
 2379 01db 01       		.uleb128 0x1
 2380 01dc 9542     		.uleb128 0x2115
 2381 01de 0C       		.uleb128 0xc
 2382 01df 31       		.uleb128 0x31
 2383 01e0 13       		.uleb128 0x13
 2384 01e1 00       		.byte	0
 2385 01e2 00       		.byte	0
 2386 01e3 21       		.uleb128 0x21
ARM GAS  C:\Users\jenny\AppData\Local\Temp\cckYFzQm.s 			page 43


 2387 01e4 2E       		.uleb128 0x2e
 2388 01e5 01       		.byte	0x1
 2389 01e6 3F       		.uleb128 0x3f
 2390 01e7 0C       		.uleb128 0xc
 2391 01e8 03       		.uleb128 0x3
 2392 01e9 0E       		.uleb128 0xe
 2393 01ea 3A       		.uleb128 0x3a
 2394 01eb 0B       		.uleb128 0xb
 2395 01ec 3B       		.uleb128 0x3b
 2396 01ed 05       		.uleb128 0x5
 2397 01ee 27       		.uleb128 0x27
 2398 01ef 0C       		.uleb128 0xc
 2399 01f0 11       		.uleb128 0x11
 2400 01f1 01       		.uleb128 0x1
 2401 01f2 12       		.uleb128 0x12
 2402 01f3 01       		.uleb128 0x1
 2403 01f4 40       		.uleb128 0x40
 2404 01f5 0A       		.uleb128 0xa
 2405 01f6 9742     		.uleb128 0x2117
 2406 01f8 0C       		.uleb128 0xc
 2407 01f9 01       		.uleb128 0x1
 2408 01fa 13       		.uleb128 0x13
 2409 01fb 00       		.byte	0
 2410 01fc 00       		.byte	0
 2411 01fd 22       		.uleb128 0x22
 2412 01fe 34       		.uleb128 0x34
 2413 01ff 00       		.byte	0
 2414 0200 03       		.uleb128 0x3
 2415 0201 0E       		.uleb128 0xe
 2416 0202 3A       		.uleb128 0x3a
 2417 0203 0B       		.uleb128 0xb
 2418 0204 3B       		.uleb128 0x3b
 2419 0205 05       		.uleb128 0x5
 2420 0206 49       		.uleb128 0x49
 2421 0207 13       		.uleb128 0x13
 2422 0208 02       		.uleb128 0x2
 2423 0209 06       		.uleb128 0x6
 2424 020a 00       		.byte	0
 2425 020b 00       		.byte	0
 2426 020c 23       		.uleb128 0x23
 2427 020d 2E       		.uleb128 0x2e
 2428 020e 01       		.byte	0x1
 2429 020f 3F       		.uleb128 0x3f
 2430 0210 0C       		.uleb128 0xc
 2431 0211 03       		.uleb128 0x3
 2432 0212 0E       		.uleb128 0xe
 2433 0213 3A       		.uleb128 0x3a
 2434 0214 0B       		.uleb128 0xb
 2435 0215 3B       		.uleb128 0x3b
 2436 0216 05       		.uleb128 0x5
 2437 0217 27       		.uleb128 0x27
 2438 0218 0C       		.uleb128 0xc
 2439 0219 49       		.uleb128 0x49
 2440 021a 13       		.uleb128 0x13
 2441 021b 11       		.uleb128 0x11
 2442 021c 01       		.uleb128 0x1
 2443 021d 12       		.uleb128 0x12
ARM GAS  C:\Users\jenny\AppData\Local\Temp\cckYFzQm.s 			page 44


 2444 021e 01       		.uleb128 0x1
 2445 021f 40       		.uleb128 0x40
 2446 0220 06       		.uleb128 0x6
 2447 0221 9742     		.uleb128 0x2117
 2448 0223 0C       		.uleb128 0xc
 2449 0224 01       		.uleb128 0x1
 2450 0225 13       		.uleb128 0x13
 2451 0226 00       		.byte	0
 2452 0227 00       		.byte	0
 2453 0228 24       		.uleb128 0x24
 2454 0229 05       		.uleb128 0x5
 2455 022a 00       		.byte	0
 2456 022b 03       		.uleb128 0x3
 2457 022c 0E       		.uleb128 0xe
 2458 022d 3A       		.uleb128 0x3a
 2459 022e 0B       		.uleb128 0xb
 2460 022f 3B       		.uleb128 0x3b
 2461 0230 05       		.uleb128 0x5
 2462 0231 49       		.uleb128 0x49
 2463 0232 13       		.uleb128 0x13
 2464 0233 02       		.uleb128 0x2
 2465 0234 06       		.uleb128 0x6
 2466 0235 00       		.byte	0
 2467 0236 00       		.byte	0
 2468 0237 25       		.uleb128 0x25
 2469 0238 34       		.uleb128 0x34
 2470 0239 00       		.byte	0
 2471 023a 03       		.uleb128 0x3
 2472 023b 08       		.uleb128 0x8
 2473 023c 3A       		.uleb128 0x3a
 2474 023d 0B       		.uleb128 0xb
 2475 023e 3B       		.uleb128 0x3b
 2476 023f 05       		.uleb128 0x5
 2477 0240 49       		.uleb128 0x49
 2478 0241 13       		.uleb128 0x13
 2479 0242 02       		.uleb128 0x2
 2480 0243 06       		.uleb128 0x6
 2481 0244 00       		.byte	0
 2482 0245 00       		.byte	0
 2483 0246 26       		.uleb128 0x26
 2484 0247 898201   		.uleb128 0x4109
 2485 024a 01       		.byte	0x1
 2486 024b 11       		.uleb128 0x11
 2487 024c 01       		.uleb128 0x1
 2488 024d 31       		.uleb128 0x31
 2489 024e 13       		.uleb128 0x13
 2490 024f 00       		.byte	0
 2491 0250 00       		.byte	0
 2492 0251 27       		.uleb128 0x27
 2493 0252 34       		.uleb128 0x34
 2494 0253 00       		.byte	0
 2495 0254 03       		.uleb128 0x3
 2496 0255 0E       		.uleb128 0xe
 2497 0256 3A       		.uleb128 0x3a
 2498 0257 0B       		.uleb128 0xb
 2499 0258 3B       		.uleb128 0x3b
 2500 0259 0B       		.uleb128 0xb
ARM GAS  C:\Users\jenny\AppData\Local\Temp\cckYFzQm.s 			page 45


 2501 025a 49       		.uleb128 0x49
 2502 025b 13       		.uleb128 0x13
 2503 025c 3F       		.uleb128 0x3f
 2504 025d 0C       		.uleb128 0xc
 2505 025e 3C       		.uleb128 0x3c
 2506 025f 0C       		.uleb128 0xc
 2507 0260 00       		.byte	0
 2508 0261 00       		.byte	0
 2509 0262 28       		.uleb128 0x28
 2510 0263 2E       		.uleb128 0x2e
 2511 0264 01       		.byte	0x1
 2512 0265 3F       		.uleb128 0x3f
 2513 0266 0C       		.uleb128 0xc
 2514 0267 03       		.uleb128 0x3
 2515 0268 0E       		.uleb128 0xe
 2516 0269 3A       		.uleb128 0x3a
 2517 026a 0B       		.uleb128 0xb
 2518 026b 3B       		.uleb128 0x3b
 2519 026c 0B       		.uleb128 0xb
 2520 026d 27       		.uleb128 0x27
 2521 026e 0C       		.uleb128 0xc
 2522 026f 49       		.uleb128 0x49
 2523 0270 13       		.uleb128 0x13
 2524 0271 3C       		.uleb128 0x3c
 2525 0272 0C       		.uleb128 0xc
 2526 0273 01       		.uleb128 0x1
 2527 0274 13       		.uleb128 0x13
 2528 0275 00       		.byte	0
 2529 0276 00       		.byte	0
 2530 0277 29       		.uleb128 0x29
 2531 0278 2E       		.uleb128 0x2e
 2532 0279 01       		.byte	0x1
 2533 027a 3F       		.uleb128 0x3f
 2534 027b 0C       		.uleb128 0xc
 2535 027c 03       		.uleb128 0x3
 2536 027d 0E       		.uleb128 0xe
 2537 027e 3A       		.uleb128 0x3a
 2538 027f 0B       		.uleb128 0xb
 2539 0280 3B       		.uleb128 0x3b
 2540 0281 0B       		.uleb128 0xb
 2541 0282 27       		.uleb128 0x27
 2542 0283 0C       		.uleb128 0xc
 2543 0284 3C       		.uleb128 0x3c
 2544 0285 0C       		.uleb128 0xc
 2545 0286 01       		.uleb128 0x1
 2546 0287 13       		.uleb128 0x13
 2547 0288 00       		.byte	0
 2548 0289 00       		.byte	0
 2549 028a 2A       		.uleb128 0x2a
 2550 028b 2E       		.uleb128 0x2e
 2551 028c 00       		.byte	0
 2552 028d 3F       		.uleb128 0x3f
 2553 028e 0C       		.uleb128 0xc
 2554 028f 03       		.uleb128 0x3
 2555 0290 0E       		.uleb128 0xe
 2556 0291 3A       		.uleb128 0x3a
 2557 0292 0B       		.uleb128 0xb
ARM GAS  C:\Users\jenny\AppData\Local\Temp\cckYFzQm.s 			page 46


 2558 0293 3B       		.uleb128 0x3b
 2559 0294 05       		.uleb128 0x5
 2560 0295 27       		.uleb128 0x27
 2561 0296 0C       		.uleb128 0xc
 2562 0297 3C       		.uleb128 0x3c
 2563 0298 0C       		.uleb128 0xc
 2564 0299 00       		.byte	0
 2565 029a 00       		.byte	0
 2566 029b 2B       		.uleb128 0x2b
 2567 029c 2E       		.uleb128 0x2e
 2568 029d 01       		.byte	0x1
 2569 029e 3F       		.uleb128 0x3f
 2570 029f 0C       		.uleb128 0xc
 2571 02a0 03       		.uleb128 0x3
 2572 02a1 0E       		.uleb128 0xe
 2573 02a2 27       		.uleb128 0x27
 2574 02a3 0C       		.uleb128 0xc
 2575 02a4 49       		.uleb128 0x49
 2576 02a5 13       		.uleb128 0x13
 2577 02a6 34       		.uleb128 0x34
 2578 02a7 0C       		.uleb128 0xc
 2579 02a8 3C       		.uleb128 0x3c
 2580 02a9 0C       		.uleb128 0xc
 2581 02aa 00       		.byte	0
 2582 02ab 00       		.byte	0
 2583 02ac 00       		.byte	0
 2584              		.section	.debug_loc,"",%progbits
 2585              	.Ldebug_loc0:
 2586              	.LLST0:
 2587 0000 00000000 		.4byte	.LFB7
 2588 0004 04000000 		.4byte	.LCFI0
 2589 0008 0200     		.2byte	0x2
 2590 000a 7D       		.byte	0x7d
 2591 000b 00       		.sleb128 0
 2592 000c 04000000 		.4byte	.LCFI0
 2593 0010 78000000 		.4byte	.LFE7
 2594 0014 0200     		.2byte	0x2
 2595 0016 7D       		.byte	0x7d
 2596 0017 20       		.sleb128 32
 2597 0018 00000000 		.4byte	0
 2598 001c 00000000 		.4byte	0
 2599              	.LLST1:
 2600 0020 00000000 		.4byte	.LVL0
 2601 0024 1C000000 		.4byte	.LVL2
 2602 0028 0100     		.2byte	0x1
 2603 002a 50       		.byte	0x50
 2604 002b 4E000000 		.4byte	.LVL6
 2605 002f 64000000 		.4byte	.LVL8
 2606 0033 0200     		.2byte	0x2
 2607 0035 30       		.byte	0x30
 2608 0036 9F       		.byte	0x9f
 2609 0037 00000000 		.4byte	0
 2610 003b 00000000 		.4byte	0
 2611              	.LLST2:
 2612 003f 00000000 		.4byte	.LVL0
 2613 0043 1C000000 		.4byte	.LVL2
 2614 0047 0100     		.2byte	0x1
ARM GAS  C:\Users\jenny\AppData\Local\Temp\cckYFzQm.s 			page 47


 2615 0049 51       		.byte	0x51
 2616 004a 1C000000 		.4byte	.LVL2
 2617 004e 78000000 		.4byte	.LFE7
 2618 0052 0400     		.2byte	0x4
 2619 0054 F3       		.byte	0xf3
 2620 0055 01       		.uleb128 0x1
 2621 0056 51       		.byte	0x51
 2622 0057 9F       		.byte	0x9f
 2623 0058 00000000 		.4byte	0
 2624 005c 00000000 		.4byte	0
 2625              	.LLST3:
 2626 0060 12000000 		.4byte	.LVL1
 2627 0064 1E000000 		.4byte	.LVL3
 2628 0068 0100     		.2byte	0x1
 2629 006a 54       		.byte	0x54
 2630 006b 1E000000 		.4byte	.LVL3
 2631 006f 24000000 		.4byte	.LVL4
 2632 0073 0100     		.2byte	0x1
 2633 0075 51       		.byte	0x51
 2634 0076 24000000 		.4byte	.LVL4
 2635 007a 5E000000 		.4byte	.LVL7
 2636 007e 0100     		.2byte	0x1
 2637 0080 54       		.byte	0x54
 2638 0081 00000000 		.4byte	0
 2639 0085 00000000 		.4byte	0
 2640              	.LLST4:
 2641 0089 12000000 		.4byte	.LVL1
 2642 008d 1C000000 		.4byte	.LVL2
 2643 0091 0200     		.2byte	0x2
 2644 0093 30       		.byte	0x30
 2645 0094 9F       		.byte	0x9f
 2646 0095 1C000000 		.4byte	.LVL2
 2647 0099 24000000 		.4byte	.LVL4
 2648 009d 0100     		.2byte	0x1
 2649 009f 54       		.byte	0x54
 2650 00a0 00000000 		.4byte	0
 2651 00a4 00000000 		.4byte	0
 2652              	.LLST5:
 2653 00a8 12000000 		.4byte	.LVL1
 2654 00ac 1C000000 		.4byte	.LVL2
 2655 00b0 0100     		.2byte	0x1
 2656 00b2 53       		.byte	0x53
 2657 00b3 00000000 		.4byte	0
 2658 00b7 00000000 		.4byte	0
 2659              	.LLST6:
 2660 00bb 00000000 		.4byte	.LVL0
 2661 00bf 4E000000 		.4byte	.LVL6
 2662 00c3 0200     		.2byte	0x2
 2663 00c5 30       		.byte	0x30
 2664 00c6 9F       		.byte	0x9f
 2665 00c7 4E000000 		.4byte	.LVL6
 2666 00cb 64000000 		.4byte	.LVL8
 2667 00cf 0200     		.2byte	0x2
 2668 00d1 31       		.byte	0x31
 2669 00d2 9F       		.byte	0x9f
 2670 00d3 64000000 		.4byte	.LVL8
 2671 00d7 78000000 		.4byte	.LFE7
ARM GAS  C:\Users\jenny\AppData\Local\Temp\cckYFzQm.s 			page 48


 2672 00db 0200     		.2byte	0x2
 2673 00dd 30       		.byte	0x30
 2674 00de 9F       		.byte	0x9f
 2675 00df 00000000 		.4byte	0
 2676 00e3 00000000 		.4byte	0
 2677              	.LLST7:
 2678 00e7 00000000 		.4byte	.LVL9
 2679 00eb 08000000 		.4byte	.LVL11
 2680 00ef 0100     		.2byte	0x1
 2681 00f1 50       		.byte	0x50
 2682 00f2 08000000 		.4byte	.LVL11
 2683 00f6 0A000000 		.4byte	.LFE8
 2684 00fa 0400     		.2byte	0x4
 2685 00fc F3       		.byte	0xf3
 2686 00fd 01       		.uleb128 0x1
 2687 00fe 50       		.byte	0x50
 2688 00ff 9F       		.byte	0x9f
 2689 0100 00000000 		.4byte	0
 2690 0104 00000000 		.4byte	0
 2691              	.LLST8:
 2692 0108 00000000 		.4byte	.LVL9
 2693 010c 04000000 		.4byte	.LVL10
 2694 0110 0100     		.2byte	0x1
 2695 0112 51       		.byte	0x51
 2696 0113 04000000 		.4byte	.LVL10
 2697 0117 0A000000 		.4byte	.LFE8
 2698 011b 0400     		.2byte	0x4
 2699 011d F3       		.byte	0xf3
 2700 011e 01       		.uleb128 0x1
 2701 011f 51       		.byte	0x51
 2702 0120 9F       		.byte	0x9f
 2703 0121 00000000 		.4byte	0
 2704 0125 00000000 		.4byte	0
 2705              	.LLST9:
 2706 0129 00000000 		.4byte	.LVL12
 2707 012d 08000000 		.4byte	.LVL14
 2708 0131 0100     		.2byte	0x1
 2709 0133 50       		.byte	0x50
 2710 0134 08000000 		.4byte	.LVL14
 2711 0138 0A000000 		.4byte	.LFE9
 2712 013c 0400     		.2byte	0x4
 2713 013e F3       		.byte	0xf3
 2714 013f 01       		.uleb128 0x1
 2715 0140 50       		.byte	0x50
 2716 0141 9F       		.byte	0x9f
 2717 0142 00000000 		.4byte	0
 2718 0146 00000000 		.4byte	0
 2719              	.LLST10:
 2720 014a 00000000 		.4byte	.LVL12
 2721 014e 04000000 		.4byte	.LVL13
 2722 0152 0100     		.2byte	0x1
 2723 0154 51       		.byte	0x51
 2724 0155 04000000 		.4byte	.LVL13
 2725 0159 0A000000 		.4byte	.LFE9
 2726 015d 0400     		.2byte	0x4
 2727 015f F3       		.byte	0xf3
 2728 0160 01       		.uleb128 0x1
ARM GAS  C:\Users\jenny\AppData\Local\Temp\cckYFzQm.s 			page 49


 2729 0161 51       		.byte	0x51
 2730 0162 9F       		.byte	0x9f
 2731 0163 00000000 		.4byte	0
 2732 0167 00000000 		.4byte	0
 2733              	.LLST11:
 2734 016b 00000000 		.4byte	.LFB11
 2735 016f 04000000 		.4byte	.LCFI1
 2736 0173 0200     		.2byte	0x2
 2737 0175 7D       		.byte	0x7d
 2738 0176 00       		.sleb128 0
 2739 0177 04000000 		.4byte	.LCFI1
 2740 017b 08000000 		.4byte	.LCFI2
 2741 017f 0200     		.2byte	0x2
 2742 0181 7D       		.byte	0x7d
 2743 0182 18       		.sleb128 24
 2744 0183 08000000 		.4byte	.LCFI2
 2745 0187 AA000000 		.4byte	.LFE11
 2746 018b 0200     		.2byte	0x2
 2747 018d 7D       		.byte	0x7d
 2748 018e 28       		.sleb128 40
 2749 018f 00000000 		.4byte	0
 2750 0193 00000000 		.4byte	0
 2751              	.LLST12:
 2752 0197 00000000 		.4byte	.LVL16
 2753 019b 0E000000 		.4byte	.LVL18
 2754 019f 0100     		.2byte	0x1
 2755 01a1 50       		.byte	0x50
 2756 01a2 0E000000 		.4byte	.LVL18
 2757 01a6 40000000 		.4byte	.LVL23
 2758 01aa 0100     		.2byte	0x1
 2759 01ac 54       		.byte	0x54
 2760 01ad 40000000 		.4byte	.LVL23
 2761 01b1 44000000 		.4byte	.LVL25
 2762 01b5 0100     		.2byte	0x1
 2763 01b7 51       		.byte	0x51
 2764 01b8 44000000 		.4byte	.LVL25
 2765 01bc 5A000000 		.4byte	.LVL27
 2766 01c0 0100     		.2byte	0x1
 2767 01c2 54       		.byte	0x54
 2768 01c3 5A000000 		.4byte	.LVL27
 2769 01c7 6A000000 		.4byte	.LVL30
 2770 01cb 0400     		.2byte	0x4
 2771 01cd F3       		.byte	0xf3
 2772 01ce 01       		.uleb128 0x1
 2773 01cf 50       		.byte	0x50
 2774 01d0 9F       		.byte	0x9f
 2775 01d1 6A000000 		.4byte	.LVL30
 2776 01d5 84000000 		.4byte	.LVL33
 2777 01d9 0100     		.2byte	0x1
 2778 01db 54       		.byte	0x54
 2779 01dc 84000000 		.4byte	.LVL33
 2780 01e0 86000000 		.4byte	.LVL34
 2781 01e4 0100     		.2byte	0x1
 2782 01e6 51       		.byte	0x51
 2783 01e7 86000000 		.4byte	.LVL34
 2784 01eb 94000000 		.4byte	.LVL38
 2785 01ef 0100     		.2byte	0x1
ARM GAS  C:\Users\jenny\AppData\Local\Temp\cckYFzQm.s 			page 50


 2786 01f1 54       		.byte	0x54
 2787 01f2 94000000 		.4byte	.LVL38
 2788 01f6 96000000 		.4byte	.LVL39
 2789 01fa 0400     		.2byte	0x4
 2790 01fc F3       		.byte	0xf3
 2791 01fd 01       		.uleb128 0x1
 2792 01fe 50       		.byte	0x50
 2793 01ff 9F       		.byte	0x9f
 2794 0200 96000000 		.4byte	.LVL39
 2795 0204 A4000000 		.4byte	.LVL43
 2796 0208 0100     		.2byte	0x1
 2797 020a 54       		.byte	0x54
 2798 020b A4000000 		.4byte	.LVL43
 2799 020f A6000000 		.4byte	.LVL44
 2800 0213 0400     		.2byte	0x4
 2801 0215 F3       		.byte	0xf3
 2802 0216 01       		.uleb128 0x1
 2803 0217 50       		.byte	0x50
 2804 0218 9F       		.byte	0x9f
 2805 0219 A6000000 		.4byte	.LVL44
 2806 021d A8000000 		.4byte	.LVL45
 2807 0221 0100     		.2byte	0x1
 2808 0223 54       		.byte	0x54
 2809 0224 A8000000 		.4byte	.LVL45
 2810 0228 AA000000 		.4byte	.LFE11
 2811 022c 0400     		.2byte	0x4
 2812 022e F3       		.byte	0xf3
 2813 022f 01       		.uleb128 0x1
 2814 0230 50       		.byte	0x50
 2815 0231 9F       		.byte	0x9f
 2816 0232 00000000 		.4byte	0
 2817 0236 00000000 		.4byte	0
 2818              	.LLST13:
 2819 023a 00000000 		.4byte	.LVL16
 2820 023e 0C000000 		.4byte	.LVL17
 2821 0242 0100     		.2byte	0x1
 2822 0244 51       		.byte	0x51
 2823 0245 0C000000 		.4byte	.LVL17
 2824 0249 AA000000 		.4byte	.LFE11
 2825 024d 0100     		.2byte	0x1
 2826 024f 55       		.byte	0x55
 2827 0250 00000000 		.4byte	0
 2828 0254 00000000 		.4byte	0
 2829              	.LLST14:
 2830 0258 00000000 		.4byte	.LVL16
 2831 025c 13000000 		.4byte	.LVL19-1
 2832 0260 0100     		.2byte	0x1
 2833 0262 52       		.byte	0x52
 2834 0263 13000000 		.4byte	.LVL19-1
 2835 0267 AA000000 		.4byte	.LFE11
 2836 026b 0100     		.2byte	0x1
 2837 026d 58       		.byte	0x58
 2838 026e 00000000 		.4byte	0
 2839 0272 00000000 		.4byte	0
 2840              	.LLST15:
 2841 0276 5A000000 		.4byte	.LVL27
 2842 027a 5E000000 		.4byte	.LVL28
ARM GAS  C:\Users\jenny\AppData\Local\Temp\cckYFzQm.s 			page 51


 2843 027e 0100     		.2byte	0x1
 2844 0280 50       		.byte	0x50
 2845 0281 5E000000 		.4byte	.LVL28
 2846 0285 62000000 		.4byte	.LVL29
 2847 0289 0100     		.2byte	0x1
 2848 028b 54       		.byte	0x54
 2849 028c 00000000 		.4byte	0
 2850 0290 00000000 		.4byte	0
 2851              	.LLST16:
 2852 0294 34000000 		.4byte	.LVL22
 2853 0298 42000000 		.4byte	.LVL24
 2854 029c 0100     		.2byte	0x1
 2855 029e 50       		.byte	0x50
 2856 029f 42000000 		.4byte	.LVL24
 2857 02a3 62000000 		.4byte	.LVL29
 2858 02a7 0100     		.2byte	0x1
 2859 02a9 56       		.byte	0x56
 2860 02aa 7C000000 		.4byte	.LVL32
 2861 02ae 84000000 		.4byte	.LVL33
 2862 02b2 0100     		.2byte	0x1
 2863 02b4 50       		.byte	0x50
 2864 02b5 84000000 		.4byte	.LVL33
 2865 02b9 88000000 		.4byte	.LVL35
 2866 02bd 0100     		.2byte	0x1
 2867 02bf 56       		.byte	0x56
 2868 02c0 88000000 		.4byte	.LVL35
 2869 02c4 8E000000 		.4byte	.LVL36
 2870 02c8 0100     		.2byte	0x1
 2871 02ca 50       		.byte	0x50
 2872 02cb 8E000000 		.4byte	.LVL36
 2873 02cf 96000000 		.4byte	.LVL39
 2874 02d3 0100     		.2byte	0x1
 2875 02d5 56       		.byte	0x56
 2876 02d6 00000000 		.4byte	0
 2877 02da 00000000 		.4byte	0
 2878              	.LLST17:
 2879 02de 44000000 		.4byte	.LVL25
 2880 02e2 55000000 		.4byte	.LVL26-1
 2881 02e6 0100     		.2byte	0x1
 2882 02e8 51       		.byte	0x51
 2883 02e9 86000000 		.4byte	.LVL34
 2884 02ed 88000000 		.4byte	.LVL35
 2885 02f1 0100     		.2byte	0x1
 2886 02f3 51       		.byte	0x51
 2887 02f4 00000000 		.4byte	0
 2888 02f8 00000000 		.4byte	0
 2889              	.LLST18:
 2890 02fc 22000000 		.4byte	.LVL20
 2891 0300 2E000000 		.4byte	.LVL21
 2892 0304 0100     		.2byte	0x1
 2893 0306 50       		.byte	0x50
 2894 0307 2E000000 		.4byte	.LVL21
 2895 030b 62000000 		.4byte	.LVL29
 2896 030f 0100     		.2byte	0x1
 2897 0311 57       		.byte	0x57
 2898 0312 6A000000 		.4byte	.LVL30
 2899 0316 84000000 		.4byte	.LVL33
ARM GAS  C:\Users\jenny\AppData\Local\Temp\cckYFzQm.s 			page 52


 2900 031a 0100     		.2byte	0x1
 2901 031c 55       		.byte	0x55
 2902 031d 84000000 		.4byte	.LVL33
 2903 0321 92000000 		.4byte	.LVL37
 2904 0325 0100     		.2byte	0x1
 2905 0327 57       		.byte	0x57
 2906 0328 96000000 		.4byte	.LVL39
 2907 032c 9B000000 		.4byte	.LVL40-1
 2908 0330 0100     		.2byte	0x1
 2909 0332 50       		.byte	0x50
 2910 0333 9B000000 		.4byte	.LVL40-1
 2911 0337 9E000000 		.4byte	.LVL41
 2912 033b 0100     		.2byte	0x1
 2913 033d 57       		.byte	0x57
 2914 033e 9E000000 		.4byte	.LVL41
 2915 0342 A6000000 		.4byte	.LVL44
 2916 0346 0100     		.2byte	0x1
 2917 0348 55       		.byte	0x55
 2918 0349 A6000000 		.4byte	.LVL44
 2919 034d AA000000 		.4byte	.LFE11
 2920 0351 0100     		.2byte	0x1
 2921 0353 50       		.byte	0x50
 2922 0354 00000000 		.4byte	0
 2923 0358 00000000 		.4byte	0
 2924              	.LLST19:
 2925 035c 00000000 		.4byte	.LVL46
 2926 0360 05000000 		.4byte	.LVL47-1
 2927 0364 0100     		.2byte	0x1
 2928 0366 50       		.byte	0x50
 2929 0367 05000000 		.4byte	.LVL47-1
 2930 036b 06000000 		.4byte	.LFE12
 2931 036f 0400     		.2byte	0x4
 2932 0371 F3       		.byte	0xf3
 2933 0372 01       		.uleb128 0x1
 2934 0373 50       		.byte	0x50
 2935 0374 9F       		.byte	0x9f
 2936 0375 00000000 		.4byte	0
 2937 0379 00000000 		.4byte	0
 2938              	.LLST20:
 2939 037d 00000000 		.4byte	.LVL46
 2940 0381 05000000 		.4byte	.LVL47-1
 2941 0385 0100     		.2byte	0x1
 2942 0387 51       		.byte	0x51
 2943 0388 05000000 		.4byte	.LVL47-1
 2944 038c 06000000 		.4byte	.LFE12
 2945 0390 0400     		.2byte	0x4
 2946 0392 F3       		.byte	0xf3
 2947 0393 01       		.uleb128 0x1
 2948 0394 51       		.byte	0x51
 2949 0395 9F       		.byte	0x9f
 2950 0396 00000000 		.4byte	0
 2951 039a 00000000 		.4byte	0
 2952              	.LLST21:
 2953 039e 00000000 		.4byte	.LVL48
 2954 03a2 0E000000 		.4byte	.LVL50
 2955 03a6 0100     		.2byte	0x1
 2956 03a8 50       		.byte	0x50
ARM GAS  C:\Users\jenny\AppData\Local\Temp\cckYFzQm.s 			page 53


 2957 03a9 0E000000 		.4byte	.LVL50
 2958 03ad 1F000000 		.4byte	.LVL51-1
 2959 03b1 0100     		.2byte	0x1
 2960 03b3 51       		.byte	0x51
 2961 03b4 1F000000 		.4byte	.LVL51-1
 2962 03b8 20000000 		.4byte	.LVL51
 2963 03bc 0400     		.2byte	0x4
 2964 03be F3       		.byte	0xf3
 2965 03bf 01       		.uleb128 0x1
 2966 03c0 50       		.byte	0x50
 2967 03c1 9F       		.byte	0x9f
 2968 03c2 20000000 		.4byte	.LVL51
 2969 03c6 2A000000 		.4byte	.LVL53
 2970 03ca 0100     		.2byte	0x1
 2971 03cc 51       		.byte	0x51
 2972 03cd 2A000000 		.4byte	.LVL53
 2973 03d1 2C000000 		.4byte	.LVL54
 2974 03d5 0100     		.2byte	0x1
 2975 03d7 50       		.byte	0x50
 2976 03d8 2C000000 		.4byte	.LVL54
 2977 03dc 34000000 		.4byte	.LFE13
 2978 03e0 0100     		.2byte	0x1
 2979 03e2 51       		.byte	0x51
 2980 03e3 00000000 		.4byte	0
 2981 03e7 00000000 		.4byte	0
 2982              	.LLST22:
 2983 03eb 0A000000 		.4byte	.LVL49
 2984 03ef 0E000000 		.4byte	.LVL50
 2985 03f3 0100     		.2byte	0x1
 2986 03f5 52       		.byte	0x52
 2987 03f6 24000000 		.4byte	.LVL52
 2988 03fa 2A000000 		.4byte	.LVL53
 2989 03fe 0100     		.2byte	0x1
 2990 0400 50       		.byte	0x50
 2991 0401 00000000 		.4byte	0
 2992 0405 00000000 		.4byte	0
 2993              	.LLST23:
 2994 0409 00000000 		.4byte	.LFB14
 2995 040d 02000000 		.4byte	.LCFI3
 2996 0411 0200     		.2byte	0x2
 2997 0413 7D       		.byte	0x7d
 2998 0414 00       		.sleb128 0
 2999 0415 02000000 		.4byte	.LCFI3
 3000 0419 2C000000 		.4byte	.LFE14
 3001 041d 0200     		.2byte	0x2
 3002 041f 7D       		.byte	0x7d
 3003 0420 10       		.sleb128 16
 3004 0421 00000000 		.4byte	0
 3005 0425 00000000 		.4byte	0
 3006              	.LLST24:
 3007 0429 00000000 		.4byte	.LVL55
 3008 042d 06000000 		.4byte	.LVL56
 3009 0431 0100     		.2byte	0x1
 3010 0433 50       		.byte	0x50
 3011 0434 06000000 		.4byte	.LVL56
 3012 0438 2C000000 		.4byte	.LFE14
 3013 043c 0400     		.2byte	0x4
ARM GAS  C:\Users\jenny\AppData\Local\Temp\cckYFzQm.s 			page 54


 3014 043e F3       		.byte	0xf3
 3015 043f 01       		.uleb128 0x1
 3016 0440 50       		.byte	0x50
 3017 0441 9F       		.byte	0x9f
 3018 0442 00000000 		.4byte	0
 3019 0446 00000000 		.4byte	0
 3020              	.LLST25:
 3021 044a 0A000000 		.4byte	.LVL57
 3022 044e 15000000 		.4byte	.LVL58-1
 3023 0452 0100     		.2byte	0x1
 3024 0454 50       		.byte	0x50
 3025 0455 15000000 		.4byte	.LVL58-1
 3026 0459 2C000000 		.4byte	.LFE14
 3027 045d 0100     		.2byte	0x1
 3028 045f 54       		.byte	0x54
 3029 0460 00000000 		.4byte	0
 3030 0464 00000000 		.4byte	0
 3031              		.section	.debug_aranges,"",%progbits
 3032 0000 54000000 		.4byte	0x54
 3033 0004 0200     		.2byte	0x2
 3034 0006 00000000 		.4byte	.Ldebug_info0
 3035 000a 04       		.byte	0x4
 3036 000b 00       		.byte	0
 3037 000c 0000     		.2byte	0
 3038 000e 0000     		.2byte	0
 3039 0010 00000000 		.4byte	.LFB7
 3040 0014 78000000 		.4byte	.LFE7-.LFB7
 3041 0018 00000000 		.4byte	.LFB8
 3042 001c 0A000000 		.4byte	.LFE8-.LFB8
 3043 0020 00000000 		.4byte	.LFB9
 3044 0024 0A000000 		.4byte	.LFE9-.LFB9
 3045 0028 00000000 		.4byte	.LFB10
 3046 002c 06000000 		.4byte	.LFE10-.LFB10
 3047 0030 00000000 		.4byte	.LFB11
 3048 0034 AA000000 		.4byte	.LFE11-.LFB11
 3049 0038 00000000 		.4byte	.LFB12
 3050 003c 06000000 		.4byte	.LFE12-.LFB12
 3051 0040 00000000 		.4byte	.LFB13
 3052 0044 34000000 		.4byte	.LFE13-.LFB13
 3053 0048 00000000 		.4byte	.LFB14
 3054 004c 2C000000 		.4byte	.LFE14-.LFB14
 3055 0050 00000000 		.4byte	0
 3056 0054 00000000 		.4byte	0
 3057              		.section	.debug_ranges,"",%progbits
 3058              	.Ldebug_ranges0:
 3059 0000 00000000 		.4byte	.LFB7
 3060 0004 78000000 		.4byte	.LFE7
 3061 0008 00000000 		.4byte	.LFB8
 3062 000c 0A000000 		.4byte	.LFE8
 3063 0010 00000000 		.4byte	.LFB9
 3064 0014 0A000000 		.4byte	.LFE9
 3065 0018 00000000 		.4byte	.LFB10
 3066 001c 06000000 		.4byte	.LFE10
 3067 0020 00000000 		.4byte	.LFB11
 3068 0024 AA000000 		.4byte	.LFE11
 3069 0028 00000000 		.4byte	.LFB12
 3070 002c 06000000 		.4byte	.LFE12
ARM GAS  C:\Users\jenny\AppData\Local\Temp\cckYFzQm.s 			page 55


 3071 0030 00000000 		.4byte	.LFB13
 3072 0034 34000000 		.4byte	.LFE13
 3073 0038 00000000 		.4byte	.LFB14
 3074 003c 2C000000 		.4byte	.LFE14
 3075 0040 00000000 		.4byte	0
 3076 0044 00000000 		.4byte	0
 3077              		.section	.debug_line,"",%progbits
 3078              	.Ldebug_line0:
 3079 0000 C0020000 		.section	.debug_str,"MS",%progbits,1
 3079      02007601 
 3079      00000201 
 3079      FB0E0D00 
 3079      01010101 
 3080              	.LASF103:
 3081 0000 7261775F 		.ascii	"raw_new\000"
 3081      6E657700 
 3082              	.LASF25:
 3083 0008 4D454D50 		.ascii	"MEMP_TCP_PCB_LISTEN\000"
 3083      5F544350 
 3083      5F504342 
 3083      5F4C4953 
 3083      54454E00 
 3084              	.LASF85:
 3085 001c 736F5F6F 		.ascii	"so_options\000"
 3085      7074696F 
 3085      6E7300
 3086              	.LASF62:
 3087 0027 696E7075 		.ascii	"input\000"
 3087      7400
 3088              	.LASF49:
 3089 002d 50425546 		.ascii	"PBUF_RAM\000"
 3089      5F52414D 
 3089      00
 3090              	.LASF47:
 3091 0036 50425546 		.ascii	"PBUF_RAW\000"
 3091      5F524157 
 3091      00
 3092              	.LASF53:
 3093 003f 70627566 		.ascii	"pbuf_type\000"
 3093      5F747970 
 3093      6500
 3094              	.LASF82:
 3095 0049 7261775F 		.ascii	"raw_pcb\000"
 3095      70636200 
 3096              	.LASF0:
 3097 0051 756E7369 		.ascii	"unsigned int\000"
 3097      676E6564 
 3097      20696E74 
 3097      00
 3098              	.LASF55:
 3099 005e 6E657874 		.ascii	"next\000"
 3099      00
 3100              	.LASF43:
 3101 0063 6572725F 		.ascii	"err_t\000"
 3101      7400
 3102              	.LASF64:
 3103 0069 6C696E6B 		.ascii	"linkoutput\000"
ARM GAS  C:\Users\jenny\AppData\Local\Temp\cckYFzQm.s 			page 56


 3103      6F757470 
 3103      757400
 3104              	.LASF89:
 3105 0074 70726576 		.ascii	"prev\000"
 3105      00
 3106              	.LASF19:
 3107 0079 7531365F 		.ascii	"u16_t\000"
 3107      7400
 3108              	.LASF77:
 3109 007f 5F74746C 		.ascii	"_ttl\000"
 3109      00
 3110              	.LASF86:
 3111 0084 70726F74 		.ascii	"protocol\000"
 3111      6F636F6C 
 3111      00
 3112              	.LASF70:
 3113 008d 6E657469 		.ascii	"netif_output_fn\000"
 3113      665F6F75 
 3113      74707574 
 3113      5F666E00 
 3114              	.LASF35:
 3115 009d 4D454D50 		.ascii	"MEMP_PBUF_POOL\000"
 3115      5F504255 
 3115      465F504F 
 3115      4F4C00
 3116              	.LASF44:
 3117 00ac 50425546 		.ascii	"PBUF_TRANSPORT\000"
 3117      5F545241 
 3117      4E53504F 
 3117      525400
 3118              	.LASF98:
 3119 00bb 7372635F 		.ascii	"src_ip\000"
 3119      697000
 3120              	.LASF69:
 3121 00c2 6E657469 		.ascii	"netif_input_fn\000"
 3121      665F696E 
 3121      7075745F 
 3121      666E00
 3122              	.LASF10:
 3123 00d1 75696E74 		.ascii	"uint32_t\000"
 3123      33325F74 
 3123      00
 3124              	.LASF2:
 3125 00da 696E7438 		.ascii	"int8_t\000"
 3125      5F7400
 3126              	.LASF31:
 3127 00e1 4D454D50 		.ascii	"MEMP_TCPIP_MSG_API\000"
 3127      5F544350 
 3127      49505F4D 
 3127      53475F41 
 3127      504900
 3128              	.LASF5:
 3129 00f4 696E7431 		.ascii	"int16_t\000"
 3129      365F7400 
 3130              	.LASF67:
 3131 00fc 68776164 		.ascii	"hwaddr\000"
 3131      647200
ARM GAS  C:\Users\jenny\AppData\Local\Temp\cckYFzQm.s 			page 57


 3132              	.LASF13:
 3133 0103 6C6F6E67 		.ascii	"long long unsigned int\000"
 3133      206C6F6E 
 3133      6720756E 
 3133      7369676E 
 3133      65642069 
 3134              	.LASF105:
 3135 011a 63757272 		.ascii	"current_iphdr_src\000"
 3135      656E745F 
 3135      69706864 
 3135      725F7372 
 3135      6300
 3136              	.LASF79:
 3137 012c 5F63686B 		.ascii	"_chksum\000"
 3137      73756D00 
 3138              	.LASF66:
 3139 0134 68776164 		.ascii	"hwaddr_len\000"
 3139      64725F6C 
 3139      656E00
 3140              	.LASF76:
 3141 013f 5F6F6666 		.ascii	"_offset\000"
 3141      73657400 
 3142              	.LASF32:
 3143 0147 4D454D50 		.ascii	"MEMP_TCPIP_MSG_INPKT\000"
 3143      5F544350 
 3143      49505F4D 
 3143      53475F49 
 3143      4E504B54 
 3144              	.LASF51:
 3145 015c 50425546 		.ascii	"PBUF_REF\000"
 3145      5F524546 
 3145      00
 3146              	.LASF57:
 3147 0165 746F745F 		.ascii	"tot_len\000"
 3147      6C656E00 
 3148              	.LASF95:
 3149 016d 69706164 		.ascii	"ipaddr\000"
 3149      647200
 3150              	.LASF56:
 3151 0174 7061796C 		.ascii	"payload\000"
 3151      6F616400 
 3152              	.LASF45:
 3153 017c 50425546 		.ascii	"PBUF_IP\000"
 3153      5F495000 
 3154              	.LASF63:
 3155 0184 6F757470 		.ascii	"output\000"
 3155      757400
 3156              	.LASF14:
 3157 018b 5F426F6F 		.ascii	"_Bool\000"
 3157      6C00
 3158              	.LASF104:
 3159 0191 7261775F 		.ascii	"raw_pcbs\000"
 3159      70636273 
 3159      00
 3160              	.LASF52:
 3161 019a 50425546 		.ascii	"PBUF_POOL\000"
 3161      5F504F4F 
ARM GAS  C:\Users\jenny\AppData\Local\Temp\cckYFzQm.s 			page 58


 3161      4C00
 3162              	.LASF59:
 3163 01a4 666C6167 		.ascii	"flags\000"
 3163      7300
 3164              	.LASF100:
 3165 01aa 7261775F 		.ascii	"raw_recv\000"
 3165      72656376 
 3165      00
 3166              	.LASF36:
 3167 01b3 4D454D50 		.ascii	"MEMP_MAX\000"
 3167      5F4D4158 
 3167      00
 3168              	.LASF18:
 3169 01bc 73385F74 		.ascii	"s8_t\000"
 3169      00
 3170              	.LASF117:
 3171 01c1 443A5C6A 		.ascii	"D:\\jenny\\dev\\probe\\chibios\\chibios.workspace\\"
 3171      656E6E79 
 3171      5C646576 
 3171      5C70726F 
 3171      62655C63 
 3172 01ee 64656D6F 		.ascii	"demos\\ARMCM4-STM32F407-LWIP-FATFS-USB\000"
 3172      735C4152 
 3172      4D434D34 
 3172      2D53544D 
 3172      33324634 
 3173              	.LASF30:
 3174 0214 4D454D50 		.ascii	"MEMP_NETCONN\000"
 3174      5F4E4554 
 3174      434F4E4E 
 3174      00
 3175              	.LASF107:
 3176 0221 70627566 		.ascii	"pbuf_header\000"
 3176      5F686561 
 3176      64657200 
 3177              	.LASF34:
 3178 022d 4D454D50 		.ascii	"MEMP_PBUF\000"
 3178      5F504255 
 3178      4600
 3179              	.LASF16:
 3180 0237 63686172 		.ascii	"char\000"
 3180      00
 3181              	.LASF94:
 3182 023c 7261775F 		.ascii	"raw_bind\000"
 3182      62696E64 
 3182      00
 3183              	.LASF39:
 3184 0245 69705F61 		.ascii	"ip_addr_packed\000"
 3184      6464725F 
 3184      7061636B 
 3184      656400
 3185              	.LASF91:
 3186 0254 70726F74 		.ascii	"proto\000"
 3186      6F00
 3187              	.LASF3:
 3188 025a 75696E74 		.ascii	"uint8_t\000"
 3188      385F7400 
ARM GAS  C:\Users\jenny\AppData\Local\Temp\cckYFzQm.s 			page 59


 3189              	.LASF92:
 3190 0262 65617465 		.ascii	"eaten\000"
 3190      6E00
 3191              	.LASF116:
 3192 0268 2E2E2F2E 		.ascii	"../../ext/lwip/src/core/raw.c\000"
 3192      2E2F6578 
 3192      742F6C77 
 3192      69702F73 
 3192      72632F63 
 3193              	.LASF78:
 3194 0286 5F70726F 		.ascii	"_proto\000"
 3194      746F00
 3195              	.LASF108:
 3196 028d 70627566 		.ascii	"pbuf_alloc\000"
 3196      5F616C6C 
 3196      6F6300
 3197              	.LASF111:
 3198 0298 70627566 		.ascii	"pbuf_free\000"
 3198      5F667265 
 3198      6500
 3199              	.LASF114:
 3200 02a2 6D656D70 		.ascii	"memp_malloc\000"
 3200      5F6D616C 
 3200      6C6F6300 
 3201              	.LASF29:
 3202 02ae 4D454D50 		.ascii	"MEMP_NETBUF\000"
 3202      5F4E4554 
 3202      42554600 
 3203              	.LASF61:
 3204 02ba 6E65746D 		.ascii	"netmask\000"
 3204      61736B00 
 3205              	.LASF12:
 3206 02c2 6C6F6E67 		.ascii	"long long int\000"
 3206      206C6F6E 
 3206      6720696E 
 3206      7400
 3207              	.LASF97:
 3208 02d0 7261775F 		.ascii	"raw_sendto\000"
 3208      73656E64 
 3208      746F00
 3209              	.LASF24:
 3210 02db 4D454D50 		.ascii	"MEMP_TCP_PCB\000"
 3210      5F544350 
 3210      5F504342 
 3210      00
 3211              	.LASF17:
 3212 02e8 75385F74 		.ascii	"u8_t\000"
 3212      00
 3213              	.LASF81:
 3214 02ed 7261775F 		.ascii	"raw_recv_fn\000"
 3214      72656376 
 3214      5F666E00 
 3215              	.LASF73:
 3216 02f9 5F765F68 		.ascii	"_v_hl\000"
 3216      6C00
 3217              	.LASF119:
 3218 02ff 6D656D73 		.ascii	"memset\000"
ARM GAS  C:\Users\jenny\AppData\Local\Temp\cckYFzQm.s 			page 60


 3218      657400
 3219              	.LASF27:
 3220 0306 4D454D50 		.ascii	"MEMP_REASSDATA\000"
 3220      5F524541 
 3220      53534441 
 3220      544100
 3221              	.LASF93:
 3222 0315 7261775F 		.ascii	"raw_input\000"
 3222      696E7075 
 3222      7400
 3223              	.LASF46:
 3224 031f 50425546 		.ascii	"PBUF_LINK\000"
 3224      5F4C494E 
 3224      4B00
 3225              	.LASF115:
 3226 0329 474E5520 		.ascii	"GNU C 4.7.4 20130913 (release) [ARM/embedded-4_7-br"
 3226      4320342E 
 3226      372E3420 
 3226      32303133 
 3226      30393133 
 3227 035c 616E6368 		.ascii	"anch revision 202601]\000"
 3227      20726576 
 3227      6973696F 
 3227      6E203230 
 3227      32363031 
 3228              	.LASF7:
 3229 0372 75696E74 		.ascii	"uint16_t\000"
 3229      31365F74 
 3229      00
 3230              	.LASF99:
 3231 037b 7261775F 		.ascii	"raw_send\000"
 3231      73656E64 
 3231      00
 3232              	.LASF21:
 3233 0384 7533325F 		.ascii	"u32_t\000"
 3233      7400
 3234              	.LASF6:
 3235 038a 73686F72 		.ascii	"short int\000"
 3235      7420696E 
 3235      7400
 3236              	.LASF9:
 3237 0394 6C6F6E67 		.ascii	"long int\000"
 3237      20696E74 
 3237      00
 3238              	.LASF33:
 3239 039d 4D454D50 		.ascii	"MEMP_SYS_TIMEOUT\000"
 3239      5F535953 
 3239      5F54494D 
 3239      454F5554 
 3239      00
 3240              	.LASF23:
 3241 03ae 4D454D50 		.ascii	"MEMP_UDP_PCB\000"
 3241      5F554450 
 3241      5F504342 
 3241      00
 3242              	.LASF83:
 3243 03bb 6C6F6361 		.ascii	"local_ip\000"
ARM GAS  C:\Users\jenny\AppData\Local\Temp\cckYFzQm.s 			page 61


 3243      6C5F6970 
 3243      00
 3244              	.LASF110:
 3245 03c4 69705F6F 		.ascii	"ip_output_if\000"
 3245      75747075 
 3245      745F6966 
 3245      00
 3246              	.LASF72:
 3247 03d1 69705F68 		.ascii	"ip_hdr\000"
 3247      647200
 3248              	.LASF68:
 3249 03d8 6E616D65 		.ascii	"name\000"
 3249      00
 3250              	.LASF71:
 3251 03dd 6E657469 		.ascii	"netif_linkoutput_fn\000"
 3251      665F6C69 
 3251      6E6B6F75 
 3251      74707574 
 3251      5F666E00 
 3252              	.LASF28:
 3253 03f1 4D454D50 		.ascii	"MEMP_FRAG_PBUF\000"
 3253      5F465241 
 3253      475F5042 
 3253      554600
 3254              	.LASF22:
 3255 0400 4D454D50 		.ascii	"MEMP_RAW_PCB\000"
 3255      5F524157 
 3255      5F504342 
 3255      00
 3256              	.LASF88:
 3257 040d 72656376 		.ascii	"recv_arg\000"
 3257      5F617267 
 3257      00
 3258              	.LASF74:
 3259 0416 5F746F73 		.ascii	"_tos\000"
 3259      00
 3260              	.LASF15:
 3261 041b 73697A65 		.ascii	"sizetype\000"
 3261      74797065 
 3261      00
 3262              	.LASF11:
 3263 0424 6C6F6E67 		.ascii	"long unsigned int\000"
 3263      20756E73 
 3263      69676E65 
 3263      6420696E 
 3263      7400
 3264              	.LASF112:
 3265 0436 70627566 		.ascii	"pbuf_chain\000"
 3265      5F636861 
 3265      696E00
 3266              	.LASF20:
 3267 0441 7331365F 		.ascii	"s16_t\000"
 3267      7400
 3268              	.LASF48:
 3269 0447 70627566 		.ascii	"pbuf_layer\000"
 3269      5F6C6179 
 3269      657200
ARM GAS  C:\Users\jenny\AppData\Local\Temp\cckYFzQm.s 			page 62


 3270              	.LASF58:
 3271 0452 74797065 		.ascii	"type\000"
 3271      00
 3272              	.LASF4:
 3273 0457 756E7369 		.ascii	"unsigned char\000"
 3273      676E6564 
 3273      20636861 
 3273      7200
 3274              	.LASF26:
 3275 0465 4D454D50 		.ascii	"MEMP_TCP_SEG\000"
 3275      5F544350 
 3275      5F534547 
 3275      00
 3276              	.LASF54:
 3277 0472 70627566 		.ascii	"pbuf\000"
 3277      00
 3278              	.LASF42:
 3279 0477 69705F61 		.ascii	"ip_addr_p_t\000"
 3279      6464725F 
 3279      705F7400 
 3280              	.LASF118:
 3281 0483 706F7274 		.ascii	"port_halt\000"
 3281      5F68616C 
 3281      7400
 3282              	.LASF40:
 3283 048d 61646472 		.ascii	"addr\000"
 3283      00
 3284              	.LASF96:
 3285 0492 7261775F 		.ascii	"raw_connect\000"
 3285      636F6E6E 
 3285      65637400 
 3286              	.LASF65:
 3287 049e 73746174 		.ascii	"state\000"
 3287      6500
 3288              	.LASF101:
 3289 04a4 7261775F 		.ascii	"raw_remove\000"
 3289      72656D6F 
 3289      766500
 3290              	.LASF60:
 3291 04af 6E657469 		.ascii	"netif\000"
 3291      6600
 3292              	.LASF90:
 3293 04b5 69706864 		.ascii	"iphdr\000"
 3293      7200
 3294              	.LASF113:
 3295 04bb 6D656D70 		.ascii	"memp_free\000"
 3295      5F667265 
 3295      6500
 3296              	.LASF87:
 3297 04c5 72656376 		.ascii	"recv\000"
 3297      00
 3298              	.LASF1:
 3299 04ca 7369676E 		.ascii	"signed char\000"
 3299      65642063 
 3299      68617200 
 3300              	.LASF8:
 3301 04d6 73686F72 		.ascii	"short unsigned int\000"
ARM GAS  C:\Users\jenny\AppData\Local\Temp\cckYFzQm.s 			page 63


 3301      7420756E 
 3301      7369676E 
 3301      65642069 
 3301      6E7400
 3302              	.LASF102:
 3303 04e9 70636232 		.ascii	"pcb2\000"
 3303      00
 3304              	.LASF106:
 3305 04ee 63757272 		.ascii	"current_iphdr_dest\000"
 3305      656E745F 
 3305      69706864 
 3305      725F6465 
 3305      737400
 3306              	.LASF84:
 3307 0501 72656D6F 		.ascii	"remote_ip\000"
 3307      74655F69 
 3307      7000
 3308              	.LASF75:
 3309 050b 5F6C656E 		.ascii	"_len\000"
 3309      00
 3310              	.LASF41:
 3311 0510 69705F61 		.ascii	"ip_addr_t\000"
 3311      6464725F 
 3311      7400
 3312              	.LASF109:
 3313 051a 69705F72 		.ascii	"ip_route\000"
 3313      6F757465 
 3313      00
 3314              	.LASF37:
 3315 0523 6D656D70 		.ascii	"memp_t\000"
 3315      5F7400
 3316              	.LASF50:
 3317 052a 50425546 		.ascii	"PBUF_ROM\000"
 3317      5F524F4D 
 3317      00
 3318              	.LASF80:
 3319 0533 64657374 		.ascii	"dest\000"
 3319      00
 3320              	.LASF38:
 3321 0538 69705F61 		.ascii	"ip_addr\000"
 3321      64647200 
 3322              		.ident	"GCC: (GNU Tools for ARM Embedded Processors) 4.7.4 20130913 (release) [ARM/embedded-4_7-br
ARM GAS  C:\Users\jenny\AppData\Local\Temp\cckYFzQm.s 			page 64


DEFINED SYMBOLS
                            *ABS*:00000000 raw.c
C:\Users\jenny\AppData\Local\Temp\cckYFzQm.s:20     .text.raw_input:00000000 $t
C:\Users\jenny\AppData\Local\Temp\cckYFzQm.s:26     .text.raw_input:00000000 raw_input
C:\Users\jenny\AppData\Local\Temp\cckYFzQm.s:127    .text.raw_input:0000006c $d
C:\Users\jenny\AppData\Local\Temp\cckYFzQm.s:134    .text.raw_bind:00000000 $t
C:\Users\jenny\AppData\Local\Temp\cckYFzQm.s:140    .text.raw_bind:00000000 raw_bind
C:\Users\jenny\AppData\Local\Temp\cckYFzQm.s:164    .text.raw_connect:00000000 $t
C:\Users\jenny\AppData\Local\Temp\cckYFzQm.s:170    .text.raw_connect:00000000 raw_connect
C:\Users\jenny\AppData\Local\Temp\cckYFzQm.s:194    .text.raw_recv:00000000 $t
C:\Users\jenny\AppData\Local\Temp\cckYFzQm.s:200    .text.raw_recv:00000000 raw_recv
C:\Users\jenny\AppData\Local\Temp\cckYFzQm.s:217    .text.raw_sendto:00000000 $t
C:\Users\jenny\AppData\Local\Temp\cckYFzQm.s:223    .text.raw_sendto:00000000 raw_sendto
C:\Users\jenny\AppData\Local\Temp\cckYFzQm.s:381    .text.raw_send:00000000 $t
C:\Users\jenny\AppData\Local\Temp\cckYFzQm.s:387    .text.raw_send:00000000 raw_send
C:\Users\jenny\AppData\Local\Temp\cckYFzQm.s:405    .text.raw_remove:00000000 $t
C:\Users\jenny\AppData\Local\Temp\cckYFzQm.s:411    .text.raw_remove:00000000 raw_remove
C:\Users\jenny\AppData\Local\Temp\cckYFzQm.s:470    .text.raw_remove:00000030 $d
C:\Users\jenny\AppData\Local\Temp\cckYFzQm.s:475    .text.raw_new:00000000 $t
C:\Users\jenny\AppData\Local\Temp\cckYFzQm.s:481    .text.raw_new:00000000 raw_new
C:\Users\jenny\AppData\Local\Temp\cckYFzQm.s:530    .text.raw_new:00000028 $d
C:\Users\jenny\AppData\Local\Temp\cckYFzQm.s:535    .bss.raw_pcbs:00000000 $d
C:\Users\jenny\AppData\Local\Temp\cckYFzQm.s:539    .bss.raw_pcbs:00000000 raw_pcbs
                     .debug_frame:00000010 $d
C:\Users\jenny\AppData\Local\Temp\cckYFzQm.s:133    .text.raw_input:00000078 $t
C:\Users\jenny\AppData\Local\Temp\cckYFzQm.s:474    .text.raw_remove:00000034 $t
C:\Users\jenny\AppData\Local\Temp\cckYFzQm.s:534    .text.raw_new:0000002c $t

UNDEFINED SYMBOLS
current_iphdr_src
current_iphdr_dest
pbuf_header
pbuf_alloc
ip_route
ip_output_if
pbuf_free
pbuf_chain
port_halt
memp_free
memp_malloc
memset
