ARM GAS  C:\Users\jenny\AppData\Local\Temp\ccvfKTJ2.s 			page 1


   1              		.syntax unified
   2              		.cpu cortex-m4
   3              		.eabi_attribute 27, 3
   4              		.fpu fpv4-sp-d16
   5              		.eabi_attribute 20, 1
   6              		.eabi_attribute 21, 1
   7              		.eabi_attribute 23, 3
   8              		.eabi_attribute 24, 1
   9              		.eabi_attribute 25, 1
  10              		.eabi_attribute 26, 1
  11              		.eabi_attribute 30, 2
  12              		.eabi_attribute 34, 1
  13              		.eabi_attribute 18, 4
  14              		.thumb
  15              		.file	"sdc_lld.c"
  16              		.text
  17              	.Ltext0:
  18              		.cfi_sections	.debug_frame
  19              		.section	.text.sdc_lld_collect_errors,"ax",%progbits
  20              		.align	2
  21              		.p2align 4,,15
  22              		.thumb
  23              		.thumb_func
  24              		.type	sdc_lld_collect_errors, %function
  25              	sdc_lld_collect_errors:
  26              	.LFB121:
  27              		.file 1 "../../os/hal/platforms/STM32/sdc_lld.c"
  28              		.loc 1 215 0
  29              		.cfi_startproc
  30              		@ args = 0, pretend = 0, frame = 0
  31              		@ frame_needed = 0, uses_anonymous_args = 0
  32              		@ link register save eliminated.
  33              	.LVL0:
  34              		.loc 1 218 0
  35 0000 01F00103 		and	r3, r1, #1
  36              	.LVL1:
  37              		.loc 1 220 0
  38 0004 8A07     		lsls	r2, r1, #30
  39              		.loc 1 221 0
  40 0006 48BF     		it	mi
  41 0008 43F00203 		orrmi	r3, r3, #2
  42              	.LVL2:
  43              		.loc 1 222 0
  44 000c 4A07     		lsls	r2, r1, #29
  45              		.loc 1 223 0
  46 000e 48BF     		it	mi
  47 0010 43F00803 		orrmi	r3, r3, #8
  48              	.LVL3:
  49              		.loc 1 224 0
  50 0014 0A07     		lsls	r2, r1, #28
  51              		.loc 1 225 0
  52 0016 48BF     		it	mi
  53 0018 43F00403 		orrmi	r3, r3, #4
  54              	.LVL4:
  55              		.loc 1 226 0
  56 001c CA06     		lsls	r2, r1, #27
  57              		.loc 1 227 0
ARM GAS  C:\Users\jenny\AppData\Local\Temp\ccvfKTJ2.s 			page 2


  58 001e 48BF     		it	mi
  59 0020 43F01003 		orrmi	r3, r3, #16
  60              	.LVL5:
  61              		.loc 1 228 0
  62 0024 8A06     		lsls	r2, r1, #26
  63              		.loc 1 229 0
  64 0026 48BF     		it	mi
  65 0028 43F02003 		orrmi	r3, r3, #32
  66              	.LVL6:
  67              		.loc 1 230 0
  68 002c 8A05     		lsls	r2, r1, #22
  69              		.loc 1 233 0
  70 002e 426B     		ldr	r2, [r0, #52]
  71              		.loc 1 231 0
  72 0030 48BF     		it	mi
  73 0032 43F04003 		orrmi	r3, r3, #64
  74              	.LVL7:
  75              		.loc 1 233 0
  76 0036 42EA0301 		orr	r1, r2, r3
  77              	.LVL8:
  78 003a 4163     		str	r1, [r0, #52]
  79 003c 7047     		bx	lr
  80              		.cfi_endproc
  81              	.LFE121:
  82              		.size	sdc_lld_collect_errors, .-sdc_lld_collect_errors
  83 003e 00BF     		.section	.text.Vector104,"ax",%progbits
  84              		.align	2
  85              		.p2align 4,,15
  86              		.global	Vector104
  87              		.thumb
  88              		.thumb_func
  89              		.type	Vector104, %function
  90              	Vector104:
  91              	.LFB123:
  92              		.loc 1 274 0
  93              		.cfi_startproc
  94              		@ args = 0, pretend = 0, frame = 0
  95              		@ frame_needed = 0, uses_anonymous_args = 0
  96 0000 38B5     		push	{r3, r4, r5, lr}
  97              	.LCFI0:
  98              		.cfi_def_cfa_offset 16
  99              		.cfi_offset 3, -16
 100              		.cfi_offset 4, -12
 101              		.cfi_offset 5, -8
 102              		.cfi_offset 14, -4
 103              	.LBB5:
 104              		.loc 1 278 0
 105 0002 2023     		movs	r3, #32
 106              	.LVL9:
 107              	@ 278 "../../os/hal/platforms/STM32/sdc_lld.c" 1
 108 0004 83F31188 		msr     BASEPRI, r3
 109              	@ 0 "" 2
 110              	.LVL10:
 111              		.thumb
 112              	.LBE5:
 113              		.loc 1 284 0
 114 0008 094C     		ldr	r4, .L32
ARM GAS  C:\Users\jenny\AppData\Local\Temp\ccvfKTJ2.s 			page 3


 115              		.loc 1 282 0
 116 000a 4FF43053 		mov	r3, #11264
 117              	.LVL11:
 118 000e C4F20103 		movt	r3, 16385
 119              		.loc 1 284 0
 120 0012 E06B     		ldr	r0, [r4, #60]
 121              		.loc 1 282 0
 122 0014 0025     		movs	r5, #0
 123 0016 DD63     		str	r5, [r3, #60]
 124              		.loc 1 284 0
 125 0018 10B1     		cbz	r0, .L27
 126              		.loc 1 285 0
 127 001a FFF7FEFF 		bl	chSchReadyI
 128              	.LVL12:
 129              		.loc 1 286 0
 130 001e E563     		str	r5, [r4, #60]
 131              	.L27:
 132              	.LBB6:
 133              		.loc 1 289 0
 134 0020 0023     		movs	r3, #0
 135              	.LVL13:
 136              	@ 289 "../../os/hal/platforms/STM32/sdc_lld.c" 1
 137 0022 83F31188 		msr     BASEPRI, r3
 138              	@ 0 "" 2
 139              	.LVL14:
 140              		.thumb
 141              	.LBE6:
 142              		.loc 1 292 0
 143 0026 BDE83840 		pop	{r3, r4, r5, lr}
 144              		.loc 1 291 0
 145 002a FFF7FEBF 		b	_port_irq_epilogue
 146              	.LVL15:
 147              	.L33:
 148 002e 00BF     		.align	2
 149              	.L32:
 150 0030 00000000 		.word	.LANCHOR0
 151              		.cfi_endproc
 152              	.LFE123:
 153              		.size	Vector104, .-Vector104
 154 0034 AFF30080 		.section	.text.sdc_lld_init,"ax",%progbits
 154      AFF30080 
 154      AFF30080 
 155              		.align	2
 156              		.p2align 4,,15
 157              		.global	sdc_lld_init
 158              		.thumb
 159              		.thumb_func
 160              		.type	sdc_lld_init, %function
 161              	sdc_lld_init:
 162              	.LFB124:
 163              		.loc 1 303 0
 164              		.cfi_startproc
 165              		@ args = 0, pretend = 0, frame = 0
 166              		@ frame_needed = 0, uses_anonymous_args = 0
 167 0000 10B5     		push	{r4, lr}
 168              	.LCFI1:
 169              		.cfi_def_cfa_offset 8
ARM GAS  C:\Users\jenny\AppData\Local\Temp\ccvfKTJ2.s 			page 4


 170              		.cfi_offset 4, -8
 171              		.cfi_offset 14, -4
 172              		.loc 1 305 0
 173 0002 40F20004 		movw	r4, #:lower16:.LANCHOR0
 174 0006 C0F20004 		movt	r4, #:upper16:.LANCHOR0
 175 000a 2046     		mov	r0, r4
 176 000c FFF7FEFF 		bl	sdcObjectInit
 177              	.LVL16:
 178              		.loc 1 307 0
 179 0010 0248     		ldr	r0, .L35
 180              		.loc 1 306 0
 181 0012 0023     		movs	r3, #0
 182 0014 E363     		str	r3, [r4, #60]
 183              		.loc 1 307 0
 184 0016 6064     		str	r0, [r4, #68]
 185 0018 10BD     		pop	{r4, pc}
 186              	.L36:
 187 001a 00BF     		.align	2
 188              	.L35:
 189 001c 84000000 		.word	_stm32_dma_streams+132
 190              		.cfi_endproc
 191              	.LFE124:
 192              		.size	sdc_lld_init, .-sdc_lld_init
 193              		.section	.text.sdc_lld_start,"ax",%progbits
 194              		.align	2
 195              		.p2align 4,,15
 196              		.global	sdc_lld_start
 197              		.thumb
 198              		.thumb_func
 199              		.type	sdc_lld_start, %function
 200              	sdc_lld_start:
 201              	.LFB125:
 202              		.loc 1 320 0
 203              		.cfi_startproc
 204              		@ args = 0, pretend = 0, frame = 0
 205              		@ frame_needed = 0, uses_anonymous_args = 0
 206              	.LVL17:
 207              		.loc 1 334 0
 208 0000 0279     		ldrb	r2, [r0, #4]	@ zero_extendqisi2
 209              		.loc 1 329 0
 210 0002 45F22043 		movw	r3, #21536
 211 0006 C0F6A303 		movt	r3, 2211
 212              		.loc 1 334 0
 213 000a 012A     		cmp	r2, #1
 214              		.loc 1 320 0
 215 000c 10B5     		push	{r4, lr}
 216              	.LCFI2:
 217              		.cfi_def_cfa_offset 8
 218              		.cfi_offset 4, -8
 219              		.cfi_offset 14, -4
 220              		.loc 1 320 0
 221 000e 0446     		mov	r4, r0
 222              		.loc 1 329 0
 223 0010 0364     		str	r3, [r0, #64]
 224              		.loc 1 334 0
 225 0012 09D0     		beq	.L39
 226              	.LVL18:
ARM GAS  C:\Users\jenny\AppData\Local\Temp\ccvfKTJ2.s 			page 5


 227              	.L38:
 228              		.loc 1 349 0
 229 0014 4FF43050 		mov	r0, #11264
 230 0018 C4F20100 		movt	r0, 16385
 231 001c 0022     		movs	r2, #0
 232 001e 0260     		str	r2, [r0, #0]
 233              		.loc 1 350 0
 234 0020 4260     		str	r2, [r0, #4]
 235              		.loc 1 351 0
 236 0022 C262     		str	r2, [r0, #44]
 237              		.loc 1 352 0
 238 0024 4262     		str	r2, [r0, #36]
 239 0026 10BD     		pop	{r4, pc}
 240              	.LVL19:
 241              	.L39:
 242              	.LBB7:
 243              		.loc 1 337 0
 244 0028 0022     		movs	r2, #0
 245 002a 1346     		mov	r3, r2
 246 002c 0921     		movs	r1, #9
 247 002e 406C     		ldr	r0, [r0, #68]
 248              	.LVL20:
 249 0030 FFF7FEFF 		bl	dmaStreamAllocate
 250              	.LVL21:
 251              		.loc 1 339 0
 252 0034 606C     		ldr	r0, [r4, #68]
 253 0036 4FF43251 		mov	r1, #11392
 254 003a 0368     		ldr	r3, [r0, #0]
 255 003c C4F20101 		movt	r1, 16385
 256              		.loc 1 341 0
 257 0040 0722     		movs	r2, #7
 258              		.loc 1 339 0
 259 0042 9960     		str	r1, [r3, #8]
 260              		.loc 1 343 0
 261 0044 3120     		movs	r0, #49
 262              		.loc 1 341 0
 263 0046 5A61     		str	r2, [r3, #20]
 264              		.loc 1 343 0
 265 0048 9021     		movs	r1, #144
 266 004a FFF7FEFF 		bl	nvicEnableVector
 267              	.LVL22:
 268              		.loc 1 345 0
 269 004e 4FF46050 		mov	r0, #14336
 270 0052 C4F20200 		movt	r0, 16386
 271 0056 416C     		ldr	r1, [r0, #68]
 272 0058 41F40063 		orr	r3, r1, #2048
 273 005c 4364     		str	r3, [r0, #68]
 274 005e D9E7     		b	.L38
 275              	.LBE7:
 276              		.cfi_endproc
 277              	.LFE125:
 278              		.size	sdc_lld_start, .-sdc_lld_start
 279              		.section	.text.sdc_lld_stop,"ax",%progbits
 280              		.align	2
 281              		.p2align 4,,15
 282              		.global	sdc_lld_stop
 283              		.thumb
ARM GAS  C:\Users\jenny\AppData\Local\Temp\ccvfKTJ2.s 			page 6


 284              		.thumb_func
 285              		.type	sdc_lld_stop, %function
 286              	sdc_lld_stop:
 287              	.LFB126:
 288              		.loc 1 362 0
 289              		.cfi_startproc
 290              		@ args = 0, pretend = 0, frame = 0
 291              		@ frame_needed = 0, uses_anonymous_args = 0
 292              	.LVL23:
 293              		.loc 1 364 0
 294 0000 0379     		ldrb	r3, [r0, #4]	@ zero_extendqisi2
 295 0002 012B     		cmp	r3, #1
 296              		.loc 1 362 0
 297 0004 10B5     		push	{r4, lr}
 298              	.LCFI3:
 299              		.cfi_def_cfa_offset 8
 300              		.cfi_offset 4, -8
 301              		.cfi_offset 14, -4
 302              		.loc 1 362 0
 303 0006 0446     		mov	r4, r0
 304              		.loc 1 364 0
 305 0008 16D0     		beq	.L40
 306              		.loc 1 367 0
 307 000a 4FF43051 		mov	r1, #11264
 308 000e C4F20101 		movt	r1, 16385
 309 0012 0022     		movs	r2, #0
 310 0014 0A60     		str	r2, [r1, #0]
 311              		.loc 1 373 0
 312 0016 3120     		movs	r0, #49
 313              	.LVL24:
 314              		.loc 1 368 0
 315 0018 4A60     		str	r2, [r1, #4]
 316              		.loc 1 369 0
 317 001a CA62     		str	r2, [r1, #44]
 318              		.loc 1 370 0
 319 001c 4A62     		str	r2, [r1, #36]
 320              		.loc 1 373 0
 321 001e FFF7FEFF 		bl	nvicDisableVector
 322              	.LVL25:
 323              		.loc 1 374 0
 324 0022 606C     		ldr	r0, [r4, #68]
 325 0024 FFF7FEFF 		bl	dmaStreamRelease
 326              	.LVL26:
 327              		.loc 1 375 0
 328 0028 4FF46050 		mov	r0, #14336
 329 002c C4F20200 		movt	r0, 16386
 330 0030 436C     		ldr	r3, [r0, #68]
 331 0032 23F40061 		bic	r1, r3, #2048
 332 0036 4164     		str	r1, [r0, #68]
 333              	.L40:
 334 0038 10BD     		pop	{r4, pc}
 335              		.cfi_endproc
 336              	.LFE126:
 337              		.size	sdc_lld_stop, .-sdc_lld_stop
 338 003a 00BFAFF3 		.section	.text.sdc_lld_start_clk,"ax",%progbits
 338      0080
 339              		.align	2
ARM GAS  C:\Users\jenny\AppData\Local\Temp\ccvfKTJ2.s 			page 7


 340              		.p2align 4,,15
 341              		.global	sdc_lld_start_clk
 342              		.thumb
 343              		.thumb_func
 344              		.type	sdc_lld_start_clk, %function
 345              	sdc_lld_start_clk:
 346              	.LFB127:
 347              		.loc 1 386 0
 348              		.cfi_startproc
 349              		@ args = 0, pretend = 0, frame = 0
 350              		@ frame_needed = 0, uses_anonymous_args = 0
 351              		@ link register save eliminated.
 352              	.LVL27:
 353              		.loc 1 391 0
 354 0000 4FF43053 		mov	r3, #11264
 355 0004 C4F20103 		movt	r3, 16385
 356 0008 7822     		movs	r2, #120
 357 000a 5A60     		str	r2, [r3, #4]
 358              		.loc 1 392 0
 359 000c 1868     		ldr	r0, [r3, #0]
 360              	.LVL28:
 361 000e 40F00301 		orr	r1, r0, #3
 362 0012 1960     		str	r1, [r3, #0]
 363              		.loc 1 393 0
 364 0014 5A68     		ldr	r2, [r3, #4]
 365 0016 42F48070 		orr	r0, r2, #256
 366 001a 5860     		str	r0, [r3, #4]
 367 001c 7047     		bx	lr
 368              		.cfi_endproc
 369              	.LFE127:
 370              		.size	sdc_lld_start_clk, .-sdc_lld_start_clk
 371 001e 00BF     		.section	.text.sdc_lld_set_data_clk,"ax",%progbits
 372              		.align	2
 373              		.p2align 4,,15
 374              		.global	sdc_lld_set_data_clk
 375              		.thumb
 376              		.thumb_func
 377              		.type	sdc_lld_set_data_clk, %function
 378              	sdc_lld_set_data_clk:
 379              	.LFB128:
 380              		.loc 1 403 0
 381              		.cfi_startproc
 382              		@ args = 0, pretend = 0, frame = 0
 383              		@ frame_needed = 0, uses_anonymous_args = 0
 384              		@ link register save eliminated.
 385              	.LVL29:
 386              		.loc 1 407 0
 387 0000 4FF43053 		mov	r3, #11264
 388 0004 C4F20103 		movt	r3, 16385
 389 0008 5A68     		ldr	r2, [r3, #4]
 390 000a 22F0FF00 		bic	r0, r2, #255
 391              	.LVL30:
 392 000e 5860     		str	r0, [r3, #4]
 393 0010 7047     		bx	lr
 394              		.cfi_endproc
 395              	.LFE128:
 396              		.size	sdc_lld_set_data_clk, .-sdc_lld_set_data_clk
ARM GAS  C:\Users\jenny\AppData\Local\Temp\ccvfKTJ2.s 			page 8


 397 0012 00BFAFF3 		.section	.text.sdc_lld_stop_clk,"ax",%progbits
 397      0080AFF3 
 397      0080AFF3 
 397      0080
 398              		.align	2
 399              		.p2align 4,,15
 400              		.global	sdc_lld_stop_clk
 401              		.thumb
 402              		.thumb_func
 403              		.type	sdc_lld_stop_clk, %function
 404              	sdc_lld_stop_clk:
 405              	.LFB129:
 406              		.loc 1 417 0
 407              		.cfi_startproc
 408              		@ args = 0, pretend = 0, frame = 0
 409              		@ frame_needed = 0, uses_anonymous_args = 0
 410              		@ link register save eliminated.
 411              	.LVL31:
 412              		.loc 1 421 0
 413 0000 4FF43053 		mov	r3, #11264
 414 0004 C4F20103 		movt	r3, 16385
 415 0008 0022     		movs	r2, #0
 416 000a 5A60     		str	r2, [r3, #4]
 417              		.loc 1 422 0
 418 000c 1A60     		str	r2, [r3, #0]
 419 000e 7047     		bx	lr
 420              		.cfi_endproc
 421              	.LFE129:
 422              		.size	sdc_lld_stop_clk, .-sdc_lld_stop_clk
 423              		.section	.text.sdc_lld_set_bus_mode,"ax",%progbits
 424              		.align	2
 425              		.p2align 4,,15
 426              		.global	sdc_lld_set_bus_mode
 427              		.thumb
 428              		.thumb_func
 429              		.type	sdc_lld_set_bus_mode, %function
 430              	sdc_lld_set_bus_mode:
 431              	.LFB130:
 432              		.loc 1 433 0
 433              		.cfi_startproc
 434              		@ args = 0, pretend = 0, frame = 0
 435              		@ frame_needed = 0, uses_anonymous_args = 0
 436              		@ link register save eliminated.
 437              	.LVL32:
 438              		.loc 1 434 0
 439 0000 4FF43053 		mov	r3, #11264
 440 0004 C4F20103 		movt	r3, 16385
 441              		.loc 1 438 0
 442 0008 0129     		cmp	r1, #1
 443              		.loc 1 434 0
 444 000a 5A68     		ldr	r2, [r3, #4]
 445 000c 22F4C050 		bic	r0, r2, #6144
 446              	.LVL33:
 447              		.loc 1 438 0
 448 0010 07D0     		beq	.L51
 449 0012 01D2     		bcs	.L54
 450              	.LVL34:
ARM GAS  C:\Users\jenny\AppData\Local\Temp\ccvfKTJ2.s 			page 9


 451              	.L53:
 452              		.loc 1 446 0
 453 0014 5860     		str	r0, [r3, #4]
 454              	.L48:
 455 0016 7047     		bx	lr
 456              	.LVL35:
 457              	.L54:
 458              		.loc 1 438 0
 459 0018 0229     		cmp	r1, #2
 460 001a FCD1     		bne	.L48
 461              		.loc 1 446 0
 462 001c 40F48050 		orr	r0, r0, #4096
 463              	.LVL36:
 464 0020 F8E7     		b	.L53
 465              	.LVL37:
 466              	.L51:
 467              		.loc 1 443 0
 468 0022 40F40061 		orr	r1, r0, #2048
 469              	.LVL38:
 470 0026 5960     		str	r1, [r3, #4]
 471              		.loc 1 444 0
 472 0028 7047     		bx	lr
 473              		.cfi_endproc
 474              	.LFE130:
 475              		.size	sdc_lld_set_bus_mode, .-sdc_lld_set_bus_mode
 476 002a 00BFAFF3 		.section	.text.sdc_lld_send_cmd_none,"ax",%progbits
 476      0080
 477              		.align	2
 478              		.p2align 4,,15
 479              		.global	sdc_lld_send_cmd_none
 480              		.thumb
 481              		.thumb_func
 482              		.type	sdc_lld_send_cmd_none, %function
 483              	sdc_lld_send_cmd_none:
 484              	.LFB131:
 485              		.loc 1 460 0
 486              		.cfi_startproc
 487              		@ args = 0, pretend = 0, frame = 0
 488              		@ frame_needed = 0, uses_anonymous_args = 0
 489              		@ link register save eliminated.
 490              	.LVL39:
 491              		.loc 1 464 0
 492 0000 4FF43053 		mov	r3, #11264
 493 0004 C4F20103 		movt	r3, 16385
 494              		.loc 1 465 0
 495 0008 41F48061 		orr	r1, r1, #1024
 496              	.LVL40:
 497              		.loc 1 464 0
 498 000c 9A60     		str	r2, [r3, #8]
 499              		.loc 1 466 0
 500 000e 1846     		mov	r0, r3
 501              	.LVL41:
 502              		.loc 1 465 0
 503 0010 D960     		str	r1, [r3, #12]
 504              	.LVL42:
 505              	.L56:
 506              		.loc 1 466 0 discriminator 1
ARM GAS  C:\Users\jenny\AppData\Local\Temp\ccvfKTJ2.s 			page 10


 507 0012 426B     		ldr	r2, [r0, #52]
 508 0014 4FF43053 		mov	r3, #11264
 509 0018 1106     		lsls	r1, r2, #24
 510 001a C4F20103 		movt	r3, 16385
 511 001e F8D5     		bpl	.L56
 512              		.loc 1 468 0
 513 0020 8021     		movs	r1, #128
 514 0022 9963     		str	r1, [r3, #56]
 515 0024 7047     		bx	lr
 516              		.cfi_endproc
 517              	.LFE131:
 518              		.size	sdc_lld_send_cmd_none, .-sdc_lld_send_cmd_none
 519 0026 00BFAFF3 		.section	.text.sdc_lld_send_cmd_short,"ax",%progbits
 519      0080AFF3 
 519      0080
 520              		.align	2
 521              		.p2align 4,,15
 522              		.global	sdc_lld_send_cmd_short
 523              		.thumb
 524              		.thumb_func
 525              		.type	sdc_lld_send_cmd_short, %function
 526              	sdc_lld_send_cmd_short:
 527              	.LFB132:
 528              		.loc 1 487 0
 529              		.cfi_startproc
 530              		@ args = 0, pretend = 0, frame = 0
 531              		@ frame_needed = 0, uses_anonymous_args = 0
 532              	.LVL43:
 533 0000 10B5     		push	{r4, lr}
 534              	.LCFI4:
 535              		.cfi_def_cfa_offset 8
 536              		.cfi_offset 4, -8
 537              		.cfi_offset 14, -4
 538              		.loc 1 492 0
 539 0002 4FF43054 		mov	r4, #11264
 540 0006 C4F20104 		movt	r4, 16385
 541              		.loc 1 493 0
 542 000a 41F48861 		orr	r1, r1, #1088
 543              	.LVL44:
 544              		.loc 1 492 0
 545 000e A260     		str	r2, [r4, #8]
 546              		.loc 1 493 0
 547 0010 E160     		str	r1, [r4, #12]
 548              	.LVL45:
 549              	.L62:
 550              		.loc 1 494 0 discriminator 1
 551 0012 616B     		ldr	r1, [r4, #52]
 552              	.LVL46:
 553 0014 4FF43052 		mov	r2, #11264
 554 0018 11F0450F 		tst	r1, #69
 555 001c C4F20102 		movt	r2, 16385
 556 0020 F7D0     		beq	.L62
 557              		.loc 1 498 0
 558 0022 11F00404 		ands	r4, r1, #4
 559              	.LVL47:
 560              		.loc 1 497 0
 561 0026 9163     		str	r1, [r2, #56]
ARM GAS  C:\Users\jenny\AppData\Local\Temp\ccvfKTJ2.s 			page 11


 562              		.loc 1 498 0
 563 0028 03D1     		bne	.L69
 564              		.loc 1 502 0
 565 002a 5169     		ldr	r1, [r2, #20]
 566              	.LVL48:
 567              		.loc 1 503 0
 568 002c 2046     		mov	r0, r4
 569              	.LVL49:
 570              		.loc 1 502 0
 571 002e 1960     		str	r1, [r3, #0]
 572              		.loc 1 504 0
 573 0030 10BD     		pop	{r4, pc}
 574              	.LVL50:
 575              	.L69:
 576              		.loc 1 499 0
 577 0032 FFF7FEFF 		bl	sdc_lld_collect_errors
 578              	.LVL51:
 579              		.loc 1 500 0
 580 0036 0120     		movs	r0, #1
 581 0038 10BD     		pop	{r4, pc}
 582              		.cfi_endproc
 583              	.LFE132:
 584              		.size	sdc_lld_send_cmd_short, .-sdc_lld_send_cmd_short
 585 003a 00BFAFF3 		.section	.text.sdc_lld_send_cmd_short_crc,"ax",%progbits
 585      0080
 586              		.align	2
 587              		.p2align 4,,15
 588              		.global	sdc_lld_send_cmd_short_crc
 589              		.thumb
 590              		.thumb_func
 591              		.type	sdc_lld_send_cmd_short_crc, %function
 592              	sdc_lld_send_cmd_short_crc:
 593              	.LFB133:
 594              		.loc 1 521 0
 595              		.cfi_startproc
 596              		@ args = 0, pretend = 0, frame = 0
 597              		@ frame_needed = 0, uses_anonymous_args = 0
 598              	.LVL52:
 599 0000 10B5     		push	{r4, lr}
 600              	.LCFI5:
 601              		.cfi_def_cfa_offset 8
 602              		.cfi_offset 4, -8
 603              		.cfi_offset 14, -4
 604              		.loc 1 526 0
 605 0002 4FF43054 		mov	r4, #11264
 606 0006 C4F20104 		movt	r4, 16385
 607              		.loc 1 527 0
 608 000a 41F48861 		orr	r1, r1, #1088
 609              	.LVL53:
 610              		.loc 1 526 0
 611 000e A260     		str	r2, [r4, #8]
 612              		.loc 1 527 0
 613 0010 E160     		str	r1, [r4, #12]
 614              	.LVL54:
 615              	.L71:
 616              		.loc 1 528 0 discriminator 1
 617 0012 616B     		ldr	r1, [r4, #52]
ARM GAS  C:\Users\jenny\AppData\Local\Temp\ccvfKTJ2.s 			page 12


 618              	.LVL55:
 619 0014 4FF43052 		mov	r2, #11264
 620 0018 11F0450F 		tst	r1, #69
 621 001c C4F20102 		movt	r2, 16385
 622 0020 F7D0     		beq	.L71
 623              		.loc 1 532 0
 624 0022 11F00504 		ands	r4, r1, #5
 625              	.LVL56:
 626              		.loc 1 531 0
 627 0026 9163     		str	r1, [r2, #56]
 628              		.loc 1 532 0
 629 0028 03D1     		bne	.L78
 630              		.loc 1 536 0
 631 002a 5169     		ldr	r1, [r2, #20]
 632              	.LVL57:
 633              		.loc 1 537 0
 634 002c 2046     		mov	r0, r4
 635              	.LVL58:
 636              		.loc 1 536 0
 637 002e 1960     		str	r1, [r3, #0]
 638              		.loc 1 538 0
 639 0030 10BD     		pop	{r4, pc}
 640              	.LVL59:
 641              	.L78:
 642              		.loc 1 533 0
 643 0032 FFF7FEFF 		bl	sdc_lld_collect_errors
 644              	.LVL60:
 645              		.loc 1 534 0
 646 0036 0120     		movs	r0, #1
 647 0038 10BD     		pop	{r4, pc}
 648              		.cfi_endproc
 649              	.LFE133:
 650              		.size	sdc_lld_send_cmd_short_crc, .-sdc_lld_send_cmd_short_crc
 651 003a 00BFAFF3 		.section	.text.sdc_lld_wait_transaction_end,"ax",%progbits
 651      0080
 652              		.align	2
 653              		.p2align 4,,15
 654              		.thumb
 655              		.thumb_func
 656              		.type	sdc_lld_wait_transaction_end, %function
 657              	sdc_lld_wait_transaction_end:
 658              	.LFB120:
 659              		.loc 1 157 0
 660              		.cfi_startproc
 661              		@ args = 0, pretend = 0, frame = 0
 662              		@ frame_needed = 0, uses_anonymous_args = 0
 663              	.LVL61:
 664 0000 2DE9F041 		push	{r4, r5, r6, r7, r8, lr}
 665              	.LCFI6:
 666              		.cfi_def_cfa_offset 24
 667              		.cfi_offset 4, -24
 668              		.cfi_offset 5, -20
 669              		.cfi_offset 6, -16
 670              		.cfi_offset 7, -12
 671              		.cfi_offset 8, -8
 672              		.cfi_offset 14, -4
 673              	.LBB16:
ARM GAS  C:\Users\jenny\AppData\Local\Temp\ccvfKTJ2.s 			page 13


 674              		.loc 1 161 0
 675 0004 2023     		movs	r3, #32
 676              	.LVL62:
 677              	.LBE16:
 678              		.loc 1 157 0
 679 0006 0646     		mov	r6, r0
 680 0008 8846     		mov	r8, r1
 681 000a 1746     		mov	r7, r2
 682              	.LBB17:
 683              		.loc 1 161 0
 684              	@ 161 "../../os/hal/platforms/STM32/sdc_lld.c" 1
 685 000c 83F31188 		msr     BASEPRI, r3
 686              	@ 0 "" 2
 687              	.LVL63:
 688              		.thumb
 689              	.LBE17:
 690              		.loc 1 162 0
 691 0010 4FF43054 		mov	r4, #11264
 692 0014 C4F20104 		movt	r4, 16385
 693 0018 E36B     		ldr	r3, [r4, #60]
 694              	.LVL64:
 695 001a 002B     		cmp	r3, #0
 696 001c 33D1     		bne	.L89
 697              	.LVL65:
 698              	.L80:
 699              		.loc 1 170 0
 700 001e 4FF43052 		mov	r2, #11264
 701 0022 C4F20102 		movt	r2, 16385
 702 0026 546B     		ldr	r4, [r2, #52]
 703 0028 14F48073 		ands	r3, r4, #256
 704 002c 26D0     		beq	.L90
 705 002e 736C     		ldr	r3, [r6, #68]
 706 0030 1D68     		ldr	r5, [r3, #0]
 707              	.L83:
 708              		.loc 1 177 0 discriminator 1
 709 0032 2C68     		ldr	r4, [r5, #0]
 710 0034 14F00104 		ands	r4, r4, #1
 711 0038 FBD1     		bne	.L83
 712              		.loc 1 181 0
 713 003a 197A     		ldrb	r1, [r3, #8]	@ zero_extendqisi2
 714 003c 5B68     		ldr	r3, [r3, #4]
 715              		.loc 1 183 0
 716 003e 4FF43055 		mov	r5, #11264
 717 0042 C4F20105 		movt	r5, 16385
 718              		.loc 1 181 0
 719 0046 3D20     		movs	r0, #61
 720              		.loc 1 183 0
 721 0048 40F2FF72 		movw	r2, #2047
 722              		.loc 1 181 0
 723 004c 00FA01F1 		lsl	r1, r0, r1
 724              		.loc 1 183 0
 725 0050 C0F2C002 		movt	r2, 192
 726              		.loc 1 181 0
 727 0054 1960     		str	r1, [r3, #0]
 728              		.loc 1 183 0
 729 0056 AA63     		str	r2, [r5, #56]
 730              	.LBB18:
ARM GAS  C:\Users\jenny\AppData\Local\Temp\ccvfKTJ2.s 			page 14


 731              		.loc 1 185 0
 732 0058 2346     		mov	r3, r4
 733              	.LVL66:
 734              	.LBE18:
 735              		.loc 1 184 0
 736 005a EC62     		str	r4, [r5, #44]
 737              	.LBB19:
 738              		.loc 1 185 0
 739              	@ 185 "../../os/hal/platforms/STM32/sdc_lld.c" 1
 740 005c 83F31188 		msr     BASEPRI, r3
 741              	@ 0 "" 2
 742              	.LVL67:
 743              		.thumb
 744              	.LBE19:
 745              		.loc 1 201 0
 746 0060 B8F1010F 		cmp	r8, #1
 747 0064 07D9     		bls	.L84
 748              	.LVL68:
 749              	.LBB20:
 750              	.LBB21:
 751              		.loc 1 202 0
 752 0066 3046     		mov	r0, r6
 753 0068 0C21     		movs	r1, #12
 754 006a 2246     		mov	r2, r4
 755 006c 3B46     		mov	r3, r7
 756              	.LVL69:
 757              	.LBE21:
 758              	.LBE20:
 759              		.loc 1 205 0
 760 006e BDE8F041 		pop	{r4, r5, r6, r7, r8, lr}
 761              	.LBB23:
 762              	.LBB22:
 763              		.loc 1 202 0
 764 0072 FFF7FEBF 		b	sdc_lld_send_cmd_short_crc
 765              	.LVL70:
 766              	.L84:
 767              	.LBE22:
 768              	.LBE23:
 769              		.loc 1 204 0
 770 0076 2046     		mov	r0, r4
 771              		.loc 1 205 0
 772 0078 BDE8F081 		pop	{r4, r5, r6, r7, r8, pc}
 773              	.LVL71:
 774              	.L90:
 775              	.LBB24:
 776              		.loc 1 171 0
 777              	@ 171 "../../os/hal/platforms/STM32/sdc_lld.c" 1
 778 007c 83F31188 		msr     BASEPRI, r3
 779              	@ 0 "" 2
 780              	.LVL72:
 781              		.thumb
 782              	.LBE24:
 783              		.loc 1 172 0
 784 0080 0120     		movs	r0, #1
 785 0082 BDE8F081 		pop	{r4, r5, r6, r7, r8, pc}
 786              	.LVL73:
 787              	.L89:
ARM GAS  C:\Users\jenny\AppData\Local\Temp\ccvfKTJ2.s 			page 15


 788              		.loc 1 165 0
 789 0086 0348     		ldr	r0, .L91
 790              	.LVL74:
 791 0088 8169     		ldr	r1, [r0, #24]
 792              	.LVL75:
 793              		.loc 1 166 0
 794 008a 0220     		movs	r0, #2
 795              		.loc 1 165 0
 796 008c F163     		str	r1, [r6, #60]
 797              		.loc 1 166 0
 798 008e FFF7FEFF 		bl	chSchGoSleepS
 799              	.LVL76:
 800 0092 C4E7     		b	.L80
 801              	.L92:
 802              		.align	2
 803              	.L91:
 804 0094 00000000 		.word	rlist
 805              		.cfi_endproc
 806              	.LFE120:
 807              		.size	sdc_lld_wait_transaction_end, .-sdc_lld_wait_transaction_end
 808 0098 AFF30080 		.section	.text.sdc_lld_error_cleanup,"ax",%progbits
 808      AFF30080 
 809              		.align	2
 810              		.p2align 4,,15
 811              		.thumb
 812              		.thumb_func
 813              		.type	sdc_lld_error_cleanup, %function
 814              	sdc_lld_error_cleanup:
 815              	.LFB122:
 816              		.loc 1 247 0
 817              		.cfi_startproc
 818              		@ args = 0, pretend = 0, frame = 0
 819              		@ frame_needed = 0, uses_anonymous_args = 0
 820              	.LVL77:
 821 0000 2DE9F047 		push	{r4, r5, r6, r7, r8, r9, sl, lr}
 822              	.LCFI7:
 823              		.cfi_def_cfa_offset 32
 824              		.cfi_offset 4, -32
 825              		.cfi_offset 5, -28
 826              		.cfi_offset 6, -24
 827              		.cfi_offset 7, -20
 828              		.cfi_offset 8, -16
 829              		.cfi_offset 9, -12
 830              		.cfi_offset 10, -8
 831              		.cfi_offset 14, -4
 832              		.loc 1 250 0
 833 0004 466C     		ldr	r6, [r0, #68]
 834              		.loc 1 248 0
 835 0006 4FF43053 		mov	r3, #11264
 836              		.loc 1 250 0
 837 000a 347A     		ldrb	r4, [r6, #8]	@ zero_extendqisi2
 838              		.loc 1 251 0
 839 000c 3568     		ldr	r5, [r6, #0]
 840              		.loc 1 248 0
 841 000e C4F20103 		movt	r3, 16385
 842              		.loc 1 247 0
 843 0012 0746     		mov	r7, r0
ARM GAS  C:\Users\jenny\AppData\Local\Temp\ccvfKTJ2.s 			page 16


 844              		.loc 1 250 0
 845 0014 4FF03D0E 		mov	lr, #61
 846 0018 7068     		ldr	r0, [r6, #4]
 847              	.LVL78:
 848              		.loc 1 248 0
 849 001a D3F834C0 		ldr	ip, [r3, #52]
 850              	.LVL79:
 851              		.loc 1 250 0
 852 001e 0EFA04F4 		lsl	r4, lr, r4
 853 0022 0460     		str	r4, [r0, #0]
 854              		.loc 1 251 0
 855 0024 2B68     		ldr	r3, [r5, #0]
 856 0026 23F01F04 		bic	r4, r3, #31
 857              		.loc 1 247 0
 858 002a 8946     		mov	r9, r1
 859 002c 9046     		mov	r8, r2
 860              		.loc 1 251 0
 861 002e 2C60     		str	r4, [r5, #0]
 862              	.LVL80:
 863              	.L94:
 864              		.loc 1 251 0 is_stmt 0 discriminator 1
 865 0030 2968     		ldr	r1, [r5, #0]
 866 0032 11F00104 		ands	r4, r1, #1
 867 0036 FBD1     		bne	.L94
 868              		.loc 1 251 0 discriminator 2
 869 0038 327A     		ldrb	r2, [r6, #8]	@ zero_extendqisi2
 870              	.LVL81:
 871              		.loc 1 252 0 is_stmt 1 discriminator 2
 872 003a 4FF43055 		mov	r5, #11264
 873 003e C4F20105 		movt	r5, 16385
 874              		.loc 1 251 0 discriminator 2
 875 0042 3D21     		movs	r1, #61
 876              		.loc 1 252 0 discriminator 2
 877 0044 40F2FF73 		movw	r3, #2047
 878              		.loc 1 251 0 discriminator 2
 879 0048 01FA02F2 		lsl	r2, r1, r2
 880              		.loc 1 252 0 discriminator 2
 881 004c C0F2C003 		movt	r3, 192
 882              		.loc 1 251 0 discriminator 2
 883 0050 0260     		str	r2, [r0, #0]
 884              		.loc 1 255 0 discriminator 2
 885 0052 6146     		mov	r1, ip
 886              		.loc 1 252 0 discriminator 2
 887 0054 AB63     		str	r3, [r5, #56]
 888              		.loc 1 255 0 discriminator 2
 889 0056 3846     		mov	r0, r7
 890              		.loc 1 253 0 discriminator 2
 891 0058 EC63     		str	r4, [r5, #60]
 892              		.loc 1 254 0 discriminator 2
 893 005a EC62     		str	r4, [r5, #44]
 894              		.loc 1 255 0 discriminator 2
 895 005c FFF7FEFF 		bl	sdc_lld_collect_errors
 896              	.LVL82:
 897              		.loc 1 256 0 discriminator 2
 898 0060 B9F1010F 		cmp	r9, #1
 899 0064 07D9     		bls	.L93
 900              	.LVL83:
ARM GAS  C:\Users\jenny\AppData\Local\Temp\ccvfKTJ2.s 			page 17


 901              	.LBB27:
 902              	.LBB28:
 903              		.loc 1 257 0
 904 0066 3846     		mov	r0, r7
 905 0068 0C21     		movs	r1, #12
 906 006a 2246     		mov	r2, r4
 907 006c 4346     		mov	r3, r8
 908              	.LBE28:
 909              	.LBE27:
 910              		.loc 1 258 0
 911 006e BDE8F047 		pop	{r4, r5, r6, r7, r8, r9, sl, lr}
 912              	.LBB30:
 913              	.LBB29:
 914              		.loc 1 257 0
 915 0072 FFF7FEBF 		b	sdc_lld_send_cmd_short_crc
 916              	.LVL84:
 917              	.L93:
 918 0076 BDE8F087 		pop	{r4, r5, r6, r7, r8, r9, sl, pc}
 919              	.LBE29:
 920              	.LBE30:
 921              		.cfi_endproc
 922              	.LFE122:
 923              		.size	sdc_lld_error_cleanup, .-sdc_lld_error_cleanup
 924 007a 00BFAFF3 		.section	.text.sdc_lld_send_cmd_long_crc,"ax",%progbits
 924      0080
 925              		.align	2
 926              		.p2align 4,,15
 927              		.global	sdc_lld_send_cmd_long_crc
 928              		.thumb
 929              		.thumb_func
 930              		.type	sdc_lld_send_cmd_long_crc, %function
 931              	sdc_lld_send_cmd_long_crc:
 932              	.LFB134:
 933              		.loc 1 555 0
 934              		.cfi_startproc
 935              		@ args = 0, pretend = 0, frame = 0
 936              		@ frame_needed = 0, uses_anonymous_args = 0
 937              	.LVL85:
 938 0000 10B5     		push	{r4, lr}
 939              	.LCFI8:
 940              		.cfi_def_cfa_offset 8
 941              		.cfi_offset 4, -8
 942              		.cfi_offset 14, -4
 943              		.loc 1 560 0
 944 0002 4FF43054 		mov	r4, #11264
 945 0006 C4F20104 		movt	r4, 16385
 946              		.loc 1 561 0
 947 000a 41F49861 		orr	r1, r1, #1216
 948              	.LVL86:
 949              		.loc 1 560 0
 950 000e A260     		str	r2, [r4, #8]
 951              		.loc 1 561 0
 952 0010 E160     		str	r1, [r4, #12]
 953              	.LVL87:
 954              	.L98:
 955              		.loc 1 563 0 discriminator 1
 956 0012 616B     		ldr	r1, [r4, #52]
ARM GAS  C:\Users\jenny\AppData\Local\Temp\ccvfKTJ2.s 			page 18


 957              	.LVL88:
 958 0014 4FF43052 		mov	r2, #11264
 959 0018 11F0450F 		tst	r1, #69
 960 001c C4F20102 		movt	r2, 16385
 961 0020 F7D0     		beq	.L98
 962              		.loc 1 567 0
 963 0022 11F03F04 		ands	r4, r1, #63
 964              	.LVL89:
 965              		.loc 1 566 0
 966 0026 9163     		str	r1, [r2, #56]
 967              		.loc 1 567 0
 968 0028 09D1     		bne	.L105
 969              		.loc 1 572 0
 970 002a 106A     		ldr	r0, [r2, #32]
 971              	.LVL90:
 972 002c 1860     		str	r0, [r3, #0]
 973              	.LVL91:
 974              		.loc 1 573 0
 975 002e D169     		ldr	r1, [r2, #28]
 976              	.LVL92:
 977 0030 5960     		str	r1, [r3, #4]
 978              	.LVL93:
 979              		.loc 1 574 0
 980 0032 9069     		ldr	r0, [r2, #24]
 981 0034 9860     		str	r0, [r3, #8]
 982              	.LVL94:
 983              		.loc 1 575 0
 984 0036 5269     		ldr	r2, [r2, #20]
 985              	.LVL95:
 986              		.loc 1 576 0
 987 0038 2046     		mov	r0, r4
 988              		.loc 1 575 0
 989 003a DA60     		str	r2, [r3, #12]
 990              		.loc 1 577 0
 991 003c 10BD     		pop	{r4, pc}
 992              	.LVL96:
 993              	.L105:
 994              		.loc 1 568 0
 995 003e FFF7FEFF 		bl	sdc_lld_collect_errors
 996              	.LVL97:
 997              		.loc 1 569 0
 998 0042 0120     		movs	r0, #1
 999 0044 10BD     		pop	{r4, pc}
 1000              		.cfi_endproc
 1001              	.LFE134:
 1002              		.size	sdc_lld_send_cmd_long_crc, .-sdc_lld_send_cmd_long_crc
 1003 0046 00BFAFF3 		.section	.text.sdc_lld_read_aligned,"ax",%progbits
 1003      0080AFF3 
 1003      0080
 1004              		.align	2
 1005              		.p2align 4,,15
 1006              		.global	sdc_lld_read_aligned
 1007              		.thumb
 1008              		.thumb_func
 1009              		.type	sdc_lld_read_aligned, %function
 1010              	sdc_lld_read_aligned:
 1011              	.LFB135:
ARM GAS  C:\Users\jenny\AppData\Local\Temp\ccvfKTJ2.s 			page 19


 1012              		.loc 1 594 0
 1013              		.cfi_startproc
 1014              		@ args = 0, pretend = 0, frame = 8
 1015              		@ frame_needed = 0, uses_anonymous_args = 0
 1016              	.LVL98:
 1017 0000 2DE9F041 		push	{r4, r5, r6, r7, r8, lr}
 1018              	.LCFI9:
 1019              		.cfi_def_cfa_offset 24
 1020              		.cfi_offset 4, -24
 1021              		.cfi_offset 5, -20
 1022              		.cfi_offset 6, -16
 1023              		.cfi_offset 7, -12
 1024              		.cfi_offset 8, -8
 1025              		.cfi_offset 14, -4
 1026              		.loc 1 599 0
 1027 0004 4FF43054 		mov	r4, #11264
 1028 0008 C4F20104 		movt	r4, 16385
 1029 000c 4DF2C045 		movw	r5, #54464
 1030 0010 C0F20105 		movt	r5, 1
 1031              		.loc 1 594 0
 1032 0014 82B0     		sub	sp, sp, #8
 1033              	.LCFI10:
 1034              		.cfi_def_cfa_offset 32
 1035              		.loc 1 599 0
 1036 0016 6562     		str	r5, [r4, #36]
 1037              		.loc 1 594 0
 1038 0018 0F46     		mov	r7, r1
 1039 001a 0546     		mov	r5, r0
 1040 001c 9046     		mov	r8, r2
 1041 001e 1E46     		mov	r6, r3
 1042              		.loc 1 602 0
 1043 0020 FFF7FEFF 		bl	_sdc_wait_for_transfer_state
 1044              	.LVL99:
 1045 0024 18B1     		cbz	r0, .L117
 1046              		.loc 1 603 0
 1047 0026 0120     		movs	r0, #1
 1048              	.LVL100:
 1049              	.L115:
 1050              		.loc 1 639 0
 1051 0028 02B0     		add	sp, sp, #8
 1052 002a BDE8F081 		pop	{r4, r5, r6, r7, r8, pc}
 1053              	.LVL101:
 1054              	.L117:
 1055              	.LBB35:
 1056              	.LBB36:
 1057              		.loc 1 606 0
 1058 002e 6B6C     		ldr	r3, [r5, #68]
 1059              		.loc 1 609 0
 1060 0030 2A6C     		ldr	r2, [r5, #64]
 1061              		.loc 1 606 0
 1062 0032 1868     		ldr	r0, [r3, #0]
 1063              		.loc 1 607 0
 1064 0034 7302     		lsls	r3, r6, #9
 1065 0036 9908     		lsrs	r1, r3, #2
 1066              		.loc 1 606 0
 1067 0038 C0F80C80 		str	r8, [r0, #12]
 1068              		.loc 1 607 0
ARM GAS  C:\Users\jenny\AppData\Local\Temp\ccvfKTJ2.s 			page 20


 1069 003c 4160     		str	r1, [r0, #4]
 1070              		.loc 1 609 0
 1071 003e 0260     		str	r2, [r0, #0]
 1072              		.loc 1 610 0
 1073 0040 0168     		ldr	r1, [r0, #0]
 1074              		.loc 1 613 0
 1075 0042 40F2FF72 		movw	r2, #2047
 1076              		.loc 1 610 0
 1077 0046 41F00101 		orr	r1, r1, #1
 1078 004a 0160     		str	r1, [r0, #0]
 1079              		.loc 1 613 0
 1080 004c C0F2C002 		movt	r2, 192
 1081              		.loc 1 614 0
 1082 0050 40F22A30 		movw	r0, #810
 1083              		.loc 1 613 0
 1084 0054 A263     		str	r2, [r4, #56]
 1085              		.loc 1 614 0
 1086 0056 E063     		str	r0, [r4, #60]
 1087              		.loc 1 619 0
 1088 0058 A362     		str	r3, [r4, #40]
 1089              	.LVL102:
 1090              	.LBB37:
 1091              	.LBB38:
 1092              		.loc 1 88 0
 1093 005a 2C6B     		ldr	r4, [r5, #48]
 1094 005c E006     		lsls	r0, r4, #27
 1095              		.loc 1 89 0
 1096 005e 58BF     		it	pl
 1097 0060 7F02     		lslpl	r7, r7, #9
 1098              	.LVL103:
 1099              		.loc 1 91 0
 1100 0062 012E     		cmp	r6, #1
 1101              		.loc 1 622 0
 1102 0064 01AC     		add	r4, sp, #4
 1103              	.LVL104:
 1104              		.loc 1 93 0
 1105 0066 2846     		mov	r0, r5
 1106              		.loc 1 91 0
 1107 0068 20D9     		bls	.L109
 1108              	.LVL105:
 1109              		.loc 1 93 0
 1110 006a 1221     		movs	r1, #18
 1111 006c 3A46     		mov	r2, r7
 1112 006e 2346     		mov	r3, r4
 1113 0070 FFF7FEFF 		bl	sdc_lld_send_cmd_short_crc
 1114              	.LVL106:
 1115 0074 98B9     		cbnz	r0, .L112
 1116              	.L116:
 1117              		.loc 1 100 0
 1118 0076 4EF20803 		movw	r3, #57352
 1119 007a 019A     		ldr	r2, [sp, #4]
 1120 007c CFF6FF53 		movt	r3, 65023
 1121 0080 1340     		ands	r3, r3, r2
 1122 0082 63B9     		cbnz	r3, .L112
 1123              	.LBE38:
 1124              	.LBE37:
 1125              		.loc 1 626 0
ARM GAS  C:\Users\jenny\AppData\Local\Temp\ccvfKTJ2.s 			page 21


 1126 0084 4FF43051 		mov	r1, #11264
 1127 0088 C4F20101 		movt	r1, 16385
 1128 008c 9B20     		movs	r0, #155
 1129 008e C862     		str	r0, [r1, #44]
 1130              		.loc 1 631 0
 1131 0090 2246     		mov	r2, r4
 1132 0092 2846     		mov	r0, r5
 1133 0094 3146     		mov	r1, r6
 1134 0096 FFF7FEFF 		bl	sdc_lld_wait_transaction_end
 1135              	.LVL107:
 1136 009a 0028     		cmp	r0, #0
 1137 009c C4D0     		beq	.L115
 1138              	.L112:
 1139              		.loc 1 637 0
 1140 009e 2846     		mov	r0, r5
 1141 00a0 3146     		mov	r1, r6
 1142 00a2 2246     		mov	r2, r4
 1143 00a4 FFF7FEFF 		bl	sdc_lld_error_cleanup
 1144              	.LVL108:
 1145              		.loc 1 638 0
 1146 00a8 0120     		movs	r0, #1
 1147 00aa BDE7     		b	.L115
 1148              	.LVL109:
 1149              	.L109:
 1150              	.LBB40:
 1151              	.LBB39:
 1152              		.loc 1 99 0
 1153 00ac 1121     		movs	r1, #17
 1154 00ae 3A46     		mov	r2, r7
 1155 00b0 2346     		mov	r3, r4
 1156 00b2 FFF7FEFF 		bl	sdc_lld_send_cmd_short_crc
 1157              	.LVL110:
 1158 00b6 0028     		cmp	r0, #0
 1159 00b8 DDD0     		beq	.L116
 1160 00ba F0E7     		b	.L112
 1161              	.LBE39:
 1162              	.LBE40:
 1163              	.LBE36:
 1164              	.LBE35:
 1165              		.cfi_endproc
 1166              	.LFE135:
 1167              		.size	sdc_lld_read_aligned, .-sdc_lld_read_aligned
 1168 00bc AFF30080 		.section	.text.sdc_lld_write_aligned,"ax",%progbits
 1169              		.align	2
 1170              		.p2align 4,,15
 1171              		.global	sdc_lld_write_aligned
 1172              		.thumb
 1173              		.thumb_func
 1174              		.type	sdc_lld_write_aligned, %function
 1175              	sdc_lld_write_aligned:
 1176              	.LFB136:
 1177              		.loc 1 656 0
 1178              		.cfi_startproc
 1179              		@ args = 0, pretend = 0, frame = 8
 1180              		@ frame_needed = 0, uses_anonymous_args = 0
 1181              	.LVL111:
 1182 0000 2DE9F041 		push	{r4, r5, r6, r7, r8, lr}
ARM GAS  C:\Users\jenny\AppData\Local\Temp\ccvfKTJ2.s 			page 22


 1183              	.LCFI11:
 1184              		.cfi_def_cfa_offset 24
 1185              		.cfi_offset 4, -24
 1186              		.cfi_offset 5, -20
 1187              		.cfi_offset 6, -16
 1188              		.cfi_offset 7, -12
 1189              		.cfi_offset 8, -8
 1190              		.cfi_offset 14, -4
 1191              		.loc 1 661 0
 1192 0004 4FF43054 		mov	r4, #11264
 1193 0008 C4F20104 		movt	r4, 16385
 1194 000c 48F68055 		movw	r5, #36224
 1195 0010 C0F25B05 		movt	r5, 91
 1196              		.loc 1 656 0
 1197 0014 82B0     		sub	sp, sp, #8
 1198              	.LCFI12:
 1199              		.cfi_def_cfa_offset 32
 1200              		.loc 1 661 0
 1201 0016 6562     		str	r5, [r4, #36]
 1202              		.loc 1 656 0
 1203 0018 0F46     		mov	r7, r1
 1204 001a 0546     		mov	r5, r0
 1205 001c 9046     		mov	r8, r2
 1206 001e 1E46     		mov	r6, r3
 1207              		.loc 1 664 0
 1208 0020 FFF7FEFF 		bl	_sdc_wait_for_transfer_state
 1209              	.LVL112:
 1210 0024 18B1     		cbz	r0, .L129
 1211              		.loc 1 665 0
 1212 0026 0120     		movs	r0, #1
 1213              	.LVL113:
 1214              	.L127:
 1215              		.loc 1 700 0
 1216 0028 02B0     		add	sp, sp, #8
 1217 002a BDE8F081 		pop	{r4, r5, r6, r7, r8, pc}
 1218              	.LVL114:
 1219              	.L129:
 1220              	.LBB45:
 1221              	.LBB46:
 1222              		.loc 1 668 0
 1223 002e 6B6C     		ldr	r3, [r5, #68]
 1224              		.loc 1 671 0
 1225 0030 2A6C     		ldr	r2, [r5, #64]
 1226              		.loc 1 668 0
 1227 0032 1868     		ldr	r0, [r3, #0]
 1228              		.loc 1 669 0
 1229 0034 7302     		lsls	r3, r6, #9
 1230 0036 9908     		lsrs	r1, r3, #2
 1231              		.loc 1 671 0
 1232 0038 42F04002 		orr	r2, r2, #64
 1233              		.loc 1 668 0
 1234 003c C0F80C80 		str	r8, [r0, #12]
 1235              		.loc 1 669 0
 1236 0040 4160     		str	r1, [r0, #4]
 1237              		.loc 1 671 0
 1238 0042 0260     		str	r2, [r0, #0]
 1239              		.loc 1 672 0
ARM GAS  C:\Users\jenny\AppData\Local\Temp\ccvfKTJ2.s 			page 23


 1240 0044 0168     		ldr	r1, [r0, #0]
 1241              		.loc 1 675 0
 1242 0046 40F2FF72 		movw	r2, #2047
 1243              		.loc 1 672 0
 1244 004a 41F00101 		orr	r1, r1, #1
 1245 004e 0160     		str	r1, [r0, #0]
 1246              		.loc 1 675 0
 1247 0050 C0F2C002 		movt	r2, 192
 1248              		.loc 1 676 0
 1249 0054 40F21A30 		movw	r0, #794
 1250              		.loc 1 675 0
 1251 0058 A263     		str	r2, [r4, #56]
 1252              		.loc 1 676 0
 1253 005a E063     		str	r0, [r4, #60]
 1254              		.loc 1 681 0
 1255 005c A362     		str	r3, [r4, #40]
 1256              	.LVL115:
 1257              	.LBB47:
 1258              	.LBB48:
 1259              		.loc 1 126 0
 1260 005e 2C6B     		ldr	r4, [r5, #48]
 1261 0060 E406     		lsls	r4, r4, #27
 1262              		.loc 1 127 0
 1263 0062 58BF     		it	pl
 1264 0064 7F02     		lslpl	r7, r7, #9
 1265              	.LVL116:
 1266              		.loc 1 129 0
 1267 0066 012E     		cmp	r6, #1
 1268              		.loc 1 684 0
 1269 0068 01AC     		add	r4, sp, #4
 1270              	.LVL117:
 1271              		.loc 1 131 0
 1272 006a 2846     		mov	r0, r5
 1273              		.loc 1 129 0
 1274 006c 20D9     		bls	.L121
 1275              	.LVL118:
 1276              		.loc 1 131 0
 1277 006e 1921     		movs	r1, #25
 1278 0070 3A46     		mov	r2, r7
 1279 0072 2346     		mov	r3, r4
 1280 0074 FFF7FEFF 		bl	sdc_lld_send_cmd_short_crc
 1281              	.LVL119:
 1282 0078 98B9     		cbnz	r0, .L124
 1283              	.L128:
 1284              		.loc 1 138 0
 1285 007a 4EF20803 		movw	r3, #57352
 1286 007e 019A     		ldr	r2, [sp, #4]
 1287 0080 CFF6FF53 		movt	r3, 65023
 1288 0084 1340     		ands	r3, r3, r2
 1289 0086 63B9     		cbnz	r3, .L124
 1290              	.LBE48:
 1291              	.LBE47:
 1292              		.loc 1 688 0
 1293 0088 4FF43051 		mov	r1, #11264
 1294 008c C4F20101 		movt	r1, 16385
 1295 0090 9920     		movs	r0, #153
 1296 0092 C862     		str	r0, [r1, #44]
ARM GAS  C:\Users\jenny\AppData\Local\Temp\ccvfKTJ2.s 			page 24


 1297              		.loc 1 692 0
 1298 0094 2246     		mov	r2, r4
 1299 0096 2846     		mov	r0, r5
 1300 0098 3146     		mov	r1, r6
 1301 009a FFF7FEFF 		bl	sdc_lld_wait_transaction_end
 1302              	.LVL120:
 1303 009e 0028     		cmp	r0, #0
 1304 00a0 C2D0     		beq	.L127
 1305              	.L124:
 1306              		.loc 1 698 0
 1307 00a2 2846     		mov	r0, r5
 1308 00a4 3146     		mov	r1, r6
 1309 00a6 2246     		mov	r2, r4
 1310 00a8 FFF7FEFF 		bl	sdc_lld_error_cleanup
 1311              	.LVL121:
 1312              		.loc 1 699 0
 1313 00ac 0120     		movs	r0, #1
 1314 00ae BBE7     		b	.L127
 1315              	.LVL122:
 1316              	.L121:
 1317              	.LBB50:
 1318              	.LBB49:
 1319              		.loc 1 137 0
 1320 00b0 1821     		movs	r1, #24
 1321 00b2 3A46     		mov	r2, r7
 1322 00b4 2346     		mov	r3, r4
 1323 00b6 FFF7FEFF 		bl	sdc_lld_send_cmd_short_crc
 1324              	.LVL123:
 1325 00ba 0028     		cmp	r0, #0
 1326 00bc DDD0     		beq	.L128
 1327 00be F0E7     		b	.L124
 1328              	.LBE49:
 1329              	.LBE50:
 1330              	.LBE46:
 1331              	.LBE45:
 1332              		.cfi_endproc
 1333              	.LFE136:
 1334              		.size	sdc_lld_write_aligned, .-sdc_lld_write_aligned
 1335              		.section	.text.sdc_lld_read,"ax",%progbits
 1336              		.align	2
 1337              		.p2align 4,,15
 1338              		.global	sdc_lld_read
 1339              		.thumb
 1340              		.thumb_func
 1341              		.type	sdc_lld_read, %function
 1342              	sdc_lld_read:
 1343              	.LFB137:
 1344              		.loc 1 717 0
 1345              		.cfi_startproc
 1346              		@ args = 0, pretend = 0, frame = 0
 1347              		@ frame_needed = 0, uses_anonymous_args = 0
 1348              	.LVL124:
 1349              		.loc 1 720 0
 1350 0000 12F0030F 		tst	r2, #3
 1351              		.loc 1 717 0
 1352 0004 2DE9F047 		push	{r4, r5, r6, r7, r8, r9, sl, lr}
 1353              	.LCFI13:
ARM GAS  C:\Users\jenny\AppData\Local\Temp\ccvfKTJ2.s 			page 25


 1354              		.cfi_def_cfa_offset 32
 1355              		.cfi_offset 4, -32
 1356              		.cfi_offset 5, -28
 1357              		.cfi_offset 6, -24
 1358              		.cfi_offset 7, -20
 1359              		.cfi_offset 8, -16
 1360              		.cfi_offset 9, -12
 1361              		.cfi_offset 10, -8
 1362              		.cfi_offset 14, -4
 1363              		.loc 1 717 0
 1364 0008 1546     		mov	r5, r2
 1365 000a 8046     		mov	r8, r0
 1366 000c 0C46     		mov	r4, r1
 1367 000e 1E46     		mov	r6, r3
 1368              		.loc 1 720 0
 1369 0010 52D0     		beq	.L131
 1370              	.LVL125:
 1371              	.LBB51:
 1372              		.loc 1 722 0 discriminator 1
 1373 0012 002B     		cmp	r3, #0
 1374 0014 4DD0     		beq	.L135
 1375              		.loc 1 716 0
 1376 0016 03EB0109 		add	r9, r3, r1
 1377 001a CE43     		mvns	r6, r1
 1378 001c 4E44     		add	r6, r6, r9
 1379              		.loc 1 723 0
 1380 001e 0123     		movs	r3, #1
 1381              	.LVL126:
 1382 0020 274A     		ldr	r2, .L147
 1383              	.LVL127:
 1384 0022 1E40     		ands	r6, r6, r3
 1385 0024 FFF7FEFF 		bl	sdc_lld_read_aligned
 1386              	.LVL128:
 1387 0028 0028     		cmp	r0, #0
 1388 002a 3FD1     		bne	.L136
 1389              		.loc 1 725 0
 1390 002c 2846     		mov	r0, r5
 1391 002e 2449     		ldr	r1, .L147
 1392 0030 4FF40072 		mov	r2, #512
 1393              		.loc 1 727 0
 1394 0034 0134     		adds	r4, r4, #1
 1395              	.LVL129:
 1396              		.loc 1 725 0
 1397 0036 FFF7FEFF 		bl	memcpy
 1398              	.LVL130:
 1399              		.loc 1 722 0
 1400 003a 4C45     		cmp	r4, r9
 1401              		.loc 1 726 0
 1402 003c 05F50075 		add	r5, r5, #512
 1403              	.LVL131:
 1404              		.loc 1 722 0
 1405 0040 37D0     		beq	.L135
 1406 0042 2EB3     		cbz	r6, .L134
 1407              		.loc 1 723 0
 1408 0044 4046     		mov	r0, r8
 1409 0046 2146     		mov	r1, r4
 1410 0048 1D4A     		ldr	r2, .L147
ARM GAS  C:\Users\jenny\AppData\Local\Temp\ccvfKTJ2.s 			page 26


 1411 004a 0123     		movs	r3, #1
 1412 004c FFF7FEFF 		bl	sdc_lld_read_aligned
 1413              	.LVL132:
 1414 0050 60BB     		cbnz	r0, .L136
 1415              		.loc 1 725 0
 1416 0052 2846     		mov	r0, r5
 1417 0054 1A49     		ldr	r1, .L147
 1418 0056 4FF40072 		mov	r2, #512
 1419              		.loc 1 727 0
 1420 005a 0134     		adds	r4, r4, #1
 1421              	.LVL133:
 1422              		.loc 1 725 0
 1423 005c FFF7FEFF 		bl	memcpy
 1424              	.LVL134:
 1425              		.loc 1 722 0
 1426 0060 4C45     		cmp	r4, r9
 1427              		.loc 1 726 0
 1428 0062 05F50075 		add	r5, r5, #512
 1429              	.LVL135:
 1430              		.loc 1 722 0
 1431 0066 13D1     		bne	.L134
 1432 0068 23E0     		b	.L135
 1433              	.L146:
 1434              		.loc 1 725 0
 1435 006a 2846     		mov	r0, r5
 1436 006c FFF7FEFF 		bl	memcpy
 1437              	.LVL136:
 1438              		.loc 1 723 0
 1439 0070 3146     		mov	r1, r6
 1440 0072 134A     		ldr	r2, .L147
 1441 0074 0123     		movs	r3, #1
 1442 0076 4046     		mov	r0, r8
 1443 0078 FFF7FEFF 		bl	sdc_lld_read_aligned
 1444              	.LVL137:
 1445              		.loc 1 725 0
 1446 007c 4FF40072 		mov	r2, #512
 1447 0080 0F49     		ldr	r1, .L147
 1448              		.loc 1 726 0
 1449 0082 BD18     		adds	r5, r7, r2
 1450              		.loc 1 723 0
 1451 0084 90B9     		cbnz	r0, .L136
 1452              		.loc 1 725 0
 1453 0086 3846     		mov	r0, r7
 1454 0088 FFF7FEFF 		bl	memcpy
 1455              	.LVL138:
 1456              		.loc 1 722 0
 1457 008c 4C45     		cmp	r4, r9
 1458 008e 10D0     		beq	.L135
 1459              	.L134:
 1460              		.loc 1 723 0
 1461 0090 2146     		mov	r1, r4
 1462 0092 0123     		movs	r3, #1
 1463 0094 0A4A     		ldr	r2, .L147
 1464              		.loc 1 727 0
 1465 0096 661C     		adds	r6, r4, #1
 1466              		.loc 1 723 0
 1467 0098 4046     		mov	r0, r8
ARM GAS  C:\Users\jenny\AppData\Local\Temp\ccvfKTJ2.s 			page 27


 1468              		.loc 1 727 0
 1469 009a F418     		adds	r4, r6, r3
 1470              		.loc 1 723 0
 1471 009c FFF7FEFF 		bl	sdc_lld_read_aligned
 1472              	.LVL139:
 1473              		.loc 1 725 0
 1474 00a0 4FF40072 		mov	r2, #512
 1475 00a4 0649     		ldr	r1, .L147
 1476              		.loc 1 726 0
 1477 00a6 AF18     		adds	r7, r5, r2
 1478              		.loc 1 723 0
 1479 00a8 0028     		cmp	r0, #0
 1480 00aa DED0     		beq	.L146
 1481              	.L136:
 1482              		.loc 1 724 0
 1483 00ac 0120     		movs	r0, #1
 1484              	.LBE51:
 1485              		.loc 1 733 0
 1486 00ae BDE8F087 		pop	{r4, r5, r6, r7, r8, r9, sl, pc}
 1487              	.L135:
 1488              	.LBB52:
 1489              		.loc 1 729 0
 1490 00b2 0020     		movs	r0, #0
 1491 00b4 BDE8F087 		pop	{r4, r5, r6, r7, r8, r9, sl, pc}
 1492              	.LVL140:
 1493              	.L131:
 1494              	.LBE52:
 1495              		.loc 1 733 0
 1496 00b8 BDE8F047 		pop	{r4, r5, r6, r7, r8, r9, sl, lr}
 1497              		.loc 1 732 0
 1498 00bc FFF7FEBF 		b	sdc_lld_read_aligned
 1499              	.LVL141:
 1500              	.L148:
 1501              		.align	2
 1502              	.L147:
 1503 00c0 00000000 		.word	.LANCHOR1
 1504              		.cfi_endproc
 1505              	.LFE137:
 1506              		.size	sdc_lld_read, .-sdc_lld_read
 1507 00c4 AFF30080 		.section	.text.sdc_lld_write,"ax",%progbits
 1507      AFF30080 
 1507      AFF30080 
 1508              		.align	2
 1509              		.p2align 4,,15
 1510              		.global	sdc_lld_write
 1511              		.thumb
 1512              		.thumb_func
 1513              		.type	sdc_lld_write, %function
 1514              	sdc_lld_write:
 1515              	.LFB138:
 1516              		.loc 1 750 0
 1517              		.cfi_startproc
 1518              		@ args = 0, pretend = 0, frame = 0
 1519              		@ frame_needed = 0, uses_anonymous_args = 0
 1520              	.LVL142:
 1521              		.loc 1 753 0
 1522 0000 12F0030F 		tst	r2, #3
ARM GAS  C:\Users\jenny\AppData\Local\Temp\ccvfKTJ2.s 			page 28


 1523              		.loc 1 750 0
 1524 0004 2DE9F041 		push	{r4, r5, r6, r7, r8, lr}
 1525              	.LCFI14:
 1526              		.cfi_def_cfa_offset 24
 1527              		.cfi_offset 4, -24
 1528              		.cfi_offset 5, -20
 1529              		.cfi_offset 6, -16
 1530              		.cfi_offset 7, -12
 1531              		.cfi_offset 8, -8
 1532              		.cfi_offset 14, -4
 1533              		.loc 1 750 0
 1534 0008 1546     		mov	r5, r2
 1535 000a 0746     		mov	r7, r0
 1536 000c 0C46     		mov	r4, r1
 1537 000e 1E46     		mov	r6, r3
 1538              		.loc 1 753 0
 1539 0010 57D0     		beq	.L150
 1540              	.LVL143:
 1541              	.LBB53:
 1542              		.loc 1 755 0 discriminator 1
 1543 0012 002B     		cmp	r3, #0
 1544 0014 52D0     		beq	.L154
 1545              		.loc 1 749 0
 1546 0016 03EB0108 		add	r8, r3, r1
 1547              		.loc 1 756 0
 1548 001a 2C48     		ldr	r0, .L166
 1549              	.LVL144:
 1550 001c CB43     		mvns	r3, r1
 1551              	.LVL145:
 1552 001e 1146     		mov	r1, r2
 1553              	.LVL146:
 1554 0020 4FF40072 		mov	r2, #512
 1555              	.LVL147:
 1556 0024 03EB0806 		add	r6, r3, r8
 1557              	.LVL148:
 1558 0028 FFF7FEFF 		bl	memcpy
 1559              	.LVL149:
 1560              		.loc 1 758 0
 1561 002c 3846     		mov	r0, r7
 1562 002e 2146     		mov	r1, r4
 1563 0030 264A     		ldr	r2, .L166
 1564 0032 0123     		movs	r3, #1
 1565 0034 06F00106 		and	r6, r6, #1
 1566              		.loc 1 757 0
 1567 0038 05F50075 		add	r5, r5, #512
 1568              	.LVL150:
 1569              		.loc 1 758 0
 1570 003c FFF7FEFF 		bl	sdc_lld_write_aligned
 1571              	.LVL151:
 1572 0040 0028     		cmp	r0, #0
 1573 0042 38D1     		bne	.L155
 1574              		.loc 1 760 0
 1575 0044 0134     		adds	r4, r4, #1
 1576              	.LVL152:
 1577              		.loc 1 755 0
 1578 0046 4445     		cmp	r4, r8
 1579 0048 38D0     		beq	.L154
ARM GAS  C:\Users\jenny\AppData\Local\Temp\ccvfKTJ2.s 			page 29


 1580 004a F6B1     		cbz	r6, .L153
 1581              		.loc 1 756 0
 1582 004c 2946     		mov	r1, r5
 1583 004e 4FF40072 		mov	r2, #512
 1584 0052 1E48     		ldr	r0, .L166
 1585 0054 FFF7FEFF 		bl	memcpy
 1586              	.LVL153:
 1587              		.loc 1 758 0
 1588 0058 3846     		mov	r0, r7
 1589 005a 2146     		mov	r1, r4
 1590 005c 1B4A     		ldr	r2, .L166
 1591 005e 0123     		movs	r3, #1
 1592              		.loc 1 757 0
 1593 0060 05F50075 		add	r5, r5, #512
 1594              		.loc 1 758 0
 1595 0064 FFF7FEFF 		bl	sdc_lld_write_aligned
 1596              	.LVL154:
 1597 0068 28BB     		cbnz	r0, .L155
 1598              		.loc 1 760 0
 1599 006a 0134     		adds	r4, r4, #1
 1600              	.LVL155:
 1601              		.loc 1 755 0
 1602 006c 4445     		cmp	r4, r8
 1603 006e 0CD1     		bne	.L153
 1604 0070 24E0     		b	.L154
 1605              	.L165:
 1606              		.loc 1 756 0
 1607 0072 1648     		ldr	r0, .L166
 1608 0074 FFF7FEFF 		bl	memcpy
 1609              	.LVL156:
 1610              		.loc 1 758 0
 1611 0078 3846     		mov	r0, r7
 1612 007a 3146     		mov	r1, r6
 1613 007c 134A     		ldr	r2, .L166
 1614 007e 0123     		movs	r3, #1
 1615 0080 FFF7FEFF 		bl	sdc_lld_write_aligned
 1616              	.LVL157:
 1617 0084 B8B9     		cbnz	r0, .L155
 1618              		.loc 1 755 0
 1619 0086 4445     		cmp	r4, r8
 1620 0088 18D0     		beq	.L154
 1621              	.L153:
 1622              		.loc 1 756 0
 1623 008a 2946     		mov	r1, r5
 1624 008c 4FF40072 		mov	r2, #512
 1625 0090 0E48     		ldr	r0, .L166
 1626 0092 FFF7FEFF 		bl	memcpy
 1627              	.LVL158:
 1628              		.loc 1 760 0
 1629 0096 661C     		adds	r6, r4, #1
 1630              		.loc 1 758 0
 1631 0098 2146     		mov	r1, r4
 1632 009a 0123     		movs	r3, #1
 1633 009c 0B4A     		ldr	r2, .L166
 1634 009e 3846     		mov	r0, r7
 1635              		.loc 1 760 0
 1636 00a0 F418     		adds	r4, r6, r3
ARM GAS  C:\Users\jenny\AppData\Local\Temp\ccvfKTJ2.s 			page 30


 1637              		.loc 1 758 0
 1638 00a2 FFF7FEFF 		bl	sdc_lld_write_aligned
 1639              	.LVL159:
 1640              		.loc 1 757 0
 1641 00a6 05F50075 		add	r5, r5, #512
 1642              		.loc 1 756 0
 1643 00aa 4FF40072 		mov	r2, #512
 1644 00ae 2946     		mov	r1, r5
 1645              		.loc 1 757 0
 1646 00b0 AD18     		adds	r5, r5, r2
 1647              		.loc 1 758 0
 1648 00b2 0028     		cmp	r0, #0
 1649 00b4 DDD0     		beq	.L165
 1650              	.L155:
 1651              		.loc 1 759 0
 1652 00b6 0120     		movs	r0, #1
 1653              	.LBE53:
 1654              		.loc 1 766 0
 1655 00b8 BDE8F081 		pop	{r4, r5, r6, r7, r8, pc}
 1656              	.L154:
 1657              	.LBB54:
 1658              		.loc 1 762 0
 1659 00bc 0020     		movs	r0, #0
 1660 00be BDE8F081 		pop	{r4, r5, r6, r7, r8, pc}
 1661              	.LVL160:
 1662              	.L150:
 1663              	.LBE54:
 1664              		.loc 1 766 0
 1665 00c2 BDE8F041 		pop	{r4, r5, r6, r7, r8, lr}
 1666              		.loc 1 765 0
 1667 00c6 FFF7FEBF 		b	sdc_lld_write_aligned
 1668              	.LVL161:
 1669              	.L167:
 1670 00ca 00BF     		.align	2
 1671              	.L166:
 1672 00cc 00000000 		.word	.LANCHOR1
 1673              		.cfi_endproc
 1674              	.LFE138:
 1675              		.size	sdc_lld_write, .-sdc_lld_write
 1676              		.section	.text.sdc_lld_sync,"ax",%progbits
 1677              		.align	2
 1678              		.p2align 4,,15
 1679              		.global	sdc_lld_sync
 1680              		.thumb
 1681              		.thumb_func
 1682              		.type	sdc_lld_sync, %function
 1683              	sdc_lld_sync:
 1684              	.LFB139:
 1685              		.loc 1 779 0
 1686              		.cfi_startproc
 1687              		@ args = 0, pretend = 0, frame = 0
 1688              		@ frame_needed = 0, uses_anonymous_args = 0
 1689              		@ link register save eliminated.
 1690              	.LVL162:
 1691              		.loc 1 784 0
 1692 0000 0020     		movs	r0, #0
 1693              	.LVL163:
ARM GAS  C:\Users\jenny\AppData\Local\Temp\ccvfKTJ2.s 			page 31


 1694 0002 7047     		bx	lr
 1695              		.cfi_endproc
 1696              	.LFE139:
 1697              		.size	sdc_lld_sync, .-sdc_lld_sync
 1698              		.global	SDCD1
 1699 0004 AFF30080 		.section	.bss.SDCD1,"aw",%nobits
 1699      AFF30080 
 1699      AFF30080 
 1700              		.align	2
 1701              		.set	.LANCHOR0,. + 0
 1702              		.type	SDCD1, %object
 1703              		.size	SDCD1, 72
 1704              	SDCD1:
 1705 0000 00000000 		.space	72
 1705      00000000 
 1705      00000000 
 1705      00000000 
 1705      00000000 
 1706              		.section	.bss.u,"aw",%nobits
 1707              		.align	2
 1708              		.set	.LANCHOR1,. + 0
 1709              		.type	u, %object
 1710              		.size	u, 512
 1711              	u:
 1712 0000 00000000 		.space	512
 1712      00000000 
 1712      00000000 
 1712      00000000 
 1712      00000000 
 1713              		.text
 1714              	.Letext0:
 1715              		.file 2 "c:\\fbin\\yagarto\\bin\\../lib/gcc/arm-none-eabi/4.7.4/../../../../arm-none-eabi/include/
 1716              		.file 3 "../../os/ports/GCC/ARMCMx/chtypes.h"
 1717              		.file 4 "../../os/kernel/include/chlists.h"
 1718              		.file 5 "../../os/kernel/include/chthreads.h"
 1719              		.file 6 "../../os/ports/GCC/ARMCMx/chcore_v7m.h"
 1720              		.file 7 "../../os/kernel/include/chschd.h"
 1721              		.file 8 "../../os/kernel/include/chmtx.h"
 1722              		.file 9 "../../os/hal/platforms/STM32F4xx/stm32f4xx.h"
 1723              		.file 10 "../../os/hal/platforms/STM32F4xx/stm32_dma.h"
 1724              		.file 11 "../../os/hal/include/io_block.h"
 1725              		.file 12 "../../os/hal/platforms/STM32/sdc_lld.h"
 1726              		.file 13 "../../os/ports/common/ARMCMx/CMSIS/include/core_cm4.h"
 1727              		.file 14 "../../os/hal/include/sdc.h"
 1728              		.file 15 "../../os/ports/common/ARMCMx/nvic.h"