ARM GAS  C:\Users\jenny\AppData\Local\Temp\ccLg5IEe.s 			page 1


   1              		.syntax unified
   2              		.cpu cortex-m4
   3              		.eabi_attribute 27, 3
   4              		.fpu fpv4-sp-d16
   5              		.eabi_attribute 20, 1
   6              		.eabi_attribute 21, 1
   7              		.eabi_attribute 23, 3
   8              		.eabi_attribute 24, 1
   9              		.eabi_attribute 25, 1
  10              		.eabi_attribute 26, 1
  11              		.eabi_attribute 30, 2
  12              		.eabi_attribute 34, 1
  13              		.eabi_attribute 18, 4
  14              		.thumb
  15              		.file	"sockets.c"
  16              		.text
  17              	.Ltext0:
  18              		.cfi_sections	.debug_frame
  19              		.section	.text.alloc_socket,"ax",%progbits
  20              		.align	2
  21              		.p2align 4,,15
  22              		.thumb
  23              		.thumb_func
  24              		.type	alloc_socket, %function
  25              	alloc_socket:
  26              	.LFB10:
  27              		.file 1 "../../ext/lwip/src/api/sockets.c"
  28              		.loc 1 244 0
  29              		.cfi_startproc
  30              		@ args = 0, pretend = 0, frame = 0
  31              		@ frame_needed = 0, uses_anonymous_args = 0
  32              		@ link register save eliminated.
  33              	.LVL0:
  34              		.loc 1 252 0
  35 0000 194B     		ldr	r3, .L12
  36 0002 1A68     		ldr	r2, [r3, #0]
  37              		.loc 1 244 0
  38 0004 F0B4     		push	{r4, r5, r6, r7}
  39              	.LCFI0:
  40              		.cfi_def_cfa_offset 16
  41              		.cfi_offset 4, -16
  42              		.cfi_offset 5, -12
  43              		.cfi_offset 6, -8
  44              		.cfi_offset 7, -4
  45              		.loc 1 244 0
  46 0006 0446     		mov	r4, r0
  47              		.loc 1 252 0
  48 0008 002A     		cmp	r2, #0
  49 000a 28D0     		beq	.L5
  50              	.LVL1:
  51 000c 9869     		ldr	r0, [r3, #24]
  52              	.LVL2:
  53 000e 0028     		cmp	r0, #0
  54 0010 27D0     		beq	.L6
  55              	.LVL3:
  56 0012 1A6B     		ldr	r2, [r3, #48]
  57 0014 32B1     		cbz	r2, .L7
ARM GAS  C:\Users\jenny\AppData\Local\Temp\ccLg5IEe.s 			page 2


  58              	.LVL4:
  59 0016 9A6C     		ldr	r2, [r3, #72]
  60 0018 0320     		movs	r0, #3
  61 001a 22B1     		cbz	r2, .L2
  62              		.loc 1 270 0
  63 001c 4FF0FF30 		mov	r0, #-1
  64              	.LVL5:
  65              	.L3:
  66              		.loc 1 271 0
  67 0020 F0BC     		pop	{r4, r5, r6, r7}
  68 0022 7047     		bx	lr
  69              	.LVL6:
  70              	.L7:
  71              		.loc 1 249 0
  72 0024 0220     		movs	r0, #2
  73              	.LVL7:
  74              	.L2:
  75              		.loc 1 253 0
  76 0026 4600     		lsls	r6, r0, #1
  77 0028 3518     		adds	r5, r6, r0
  78              		.loc 1 262 0
  79 002a 2778     		ldrb	r7, [r4, #0]	@ zero_extendqisi2
  80              		.loc 1 253 0
  81 002c EA00     		lsls	r2, r5, #3
  82 002e 9D18     		adds	r5, r3, r2
  83 0030 9C50     		str	r4, [r3, r2]
  84              		.loc 1 257 0
  85 0032 0024     		movs	r4, #0
  86              	.LVL8:
  87              		.loc 1 262 0
  88 0034 102F     		cmp	r7, #16
  89              		.loc 1 257 0
  90 0036 6C60     		str	r4, [r5, #4]
  91              		.loc 1 258 0
  92 0038 2C81     		strh	r4, [r5, #8]	@ movhi
  93              		.loc 1 259 0
  94 003a 6C81     		strh	r4, [r5, #10]	@ movhi
  95              		.loc 1 262 0
  96 003c 0BD0     		beq	.L11
  97 003e 0121     		movs	r1, #1
  98              	.LVL9:
  99              	.L4:
 100              		.loc 1 262 0 is_stmt 0 discriminator 4
 101 0040 3618     		adds	r6, r6, r0
 102 0042 03EBC603 		add	r3, r3, r6, lsl #3
 103              		.loc 1 263 0 is_stmt 1 discriminator 4
 104 0046 0022     		movs	r2, #0
 105              		.loc 1 262 0 discriminator 4
 106 0048 03F10804 		add	r4, r3, #8
 107 004c 9981     		strh	r1, [r3, #12]	@ movhi
 108              		.loc 1 263 0 discriminator 4
 109 004e DA81     		strh	r2, [r3, #14]	@ movhi
 110              		.loc 1 264 0 discriminator 4
 111 0050 1A61     		str	r2, [r3, #16]
 112              		.loc 1 265 0 discriminator 4
 113 0052 5A61     		str	r2, [r3, #20]
 114              		.loc 1 266 0 discriminator 4
ARM GAS  C:\Users\jenny\AppData\Local\Temp\ccLg5IEe.s 			page 3


 115 0054 E4E7     		b	.L3
 116              	.LVL10:
 117              	.L11:
 118 0056 091B     		subs	r1, r1, r4
 119              	.LVL11:
 120 0058 18BF     		it	ne
 121 005a 0121     		movne	r1, #1
 122 005c F0E7     		b	.L4
 123              	.LVL12:
 124              	.L5:
 125              		.loc 1 249 0
 126 005e 1046     		mov	r0, r2
 127              	.LVL13:
 128 0060 E1E7     		b	.L2
 129              	.LVL14:
 130              	.L6:
 131 0062 0120     		movs	r0, #1
 132 0064 DFE7     		b	.L2
 133              	.L13:
 134 0066 00BF     		.align	2
 135              	.L12:
 136 0068 00000000 		.word	.LANCHOR0
 137              		.cfi_endproc
 138              	.LFE10:
 139              		.size	alloc_socket, .-alloc_socket
 140 006c AFF30080 		.section	.text.lwip_setsockopt_internal,"ax",%progbits
 141              		.align	2
 142              		.p2align 4,,15
 143              		.thumb
 144              		.thumb_func
 145              		.type	lwip_setsockopt_internal, %function
 146              	lwip_setsockopt_internal:
 147              	.LFB34:
 148              		.loc 1 2076 0
 149              		.cfi_startproc
 150              		@ args = 0, pretend = 0, frame = 8
 151              		@ frame_needed = 0, uses_anonymous_args = 0
 152              	.LVL15:
 153 0000 10B5     		push	{r4, lr}
 154              	.LCFI1:
 155              		.cfi_def_cfa_offset 8
 156              		.cfi_offset 4, -8
 157              		.cfi_offset 14, -4
 158 0002 82B0     		sub	sp, sp, #8
 159              	.LCFI2:
 160              		.cfi_def_cfa_offset 16
 161              		.loc 1 2085 0
 162 0004 0028     		cmp	r0, #0
 163 0006 54D0     		beq	.L43
 164              	.LVL16:
 165              	.L15:
 166              		.loc 1 2096 0
 167 0008 4368     		ldr	r3, [r0, #4]
 168              		.loc 1 2088 0
 169 000a 0468     		ldr	r4, [r0, #0]
 170              	.LVL17:
 171              		.loc 1 2093 0
ARM GAS  C:\Users\jenny\AppData\Local\Temp\ccLg5IEe.s 			page 4


 172 000c 8268     		ldr	r2, [r0, #8]
 173              	.LVL18:
 174              		.loc 1 2094 0
 175 000e C168     		ldr	r1, [r0, #12]
 176              	.LVL19:
 177              		.loc 1 2096 0
 178 0010 062B     		cmp	r3, #6
 179 0012 29D0     		beq	.L18
 180 0014 40F6FF70 		movw	r0, #4095
 181              	.LVL20:
 182 0018 8342     		cmp	r3, r0
 183 001a 13D0     		beq	.L19
 184 001c 43B1     		cbz	r3, .L17
 185              	.L39:
 186              		.loc 1 2277 0 discriminator 1
 187 001e FFF7FEFF 		bl	port_halt
 188              	.LVL21:
 189 0022 2068     		ldr	r0, [r4, #0]
 190              	.L24:
 191              		.loc 1 2280 0
 192 0024 0C30     		adds	r0, r0, #12
 193              		.loc 1 2281 0
 194 0026 02B0     		add	sp, sp, #8
 195 0028 BDE81040 		pop	{r4, lr}
 196              		.loc 1 2280 0
 197 002c FFF7FEBF 		b	sys_sem_signal
 198              	.LVL22:
 199              	.L17:
 200              		.loc 1 2153 0
 201 0030 012A     		cmp	r2, #1
 202 0032 2ED0     		beq	.L27
 203 0034 022A     		cmp	r2, #2
 204 0036 F2D1     		bne	.L39
 205              		.loc 1 2155 0
 206 0038 2368     		ldr	r3, [r4, #0]
 207              	.LVL23:
 208 003a 0A68     		ldr	r2, [r1, #0]
 209              	.LVL24:
 210 003c 5968     		ldr	r1, [r3, #4]
 211              	.LVL25:
 212 003e 8A72     		strb	r2, [r1, #10]
 213 0040 2068     		ldr	r0, [r4, #0]
 214              		.loc 1 2158 0
 215 0042 EFE7     		b	.L24
 216              	.LVL26:
 217              	.L19:
 218              		.loc 1 2100 0
 219 0044 202A     		cmp	r2, #32
 220 0046 05D0     		beq	.L21
 221 0048 41F20A00 		movw	r0, #4106
 222 004c 8242     		cmp	r2, r0
 223 004e 26D0     		beq	.L22
 224 0050 082A     		cmp	r2, #8
 225 0052 E4D1     		bne	.L39
 226              	.L21:
 227              		.loc 1 2113 0
 228 0054 0B68     		ldr	r3, [r1, #0]
ARM GAS  C:\Users\jenny\AppData\Local\Temp\ccLg5IEe.s 			page 5


 229              	.LVL27:
 230 0056 002B     		cmp	r3, #0
 231 0058 38D0     		beq	.L23
 232              		.loc 1 2114 0
 233 005a 2068     		ldr	r0, [r4, #0]
 234 005c 4368     		ldr	r3, [r0, #4]
 235 005e 197A     		ldrb	r1, [r3, #8]	@ zero_extendqisi2
 236              	.LVL28:
 237 0060 0A43     		orrs	r2, r2, r1
 238              	.LVL29:
 239 0062 1A72     		strb	r2, [r3, #8]
 240 0064 2068     		ldr	r0, [r4, #0]
 241 0066 DDE7     		b	.L24
 242              	.LVL30:
 243              	.L18:
 244              		.loc 1 2207 0
 245 0068 012A     		cmp	r2, #1
 246 006a 07D0     		beq	.L30
 247 006c 022A     		cmp	r2, #2
 248 006e D6D1     		bne	.L39
 249              		.loc 1 2218 0
 250 0070 2068     		ldr	r0, [r4, #0]
 251              	.LVL31:
 252 0072 0A68     		ldr	r2, [r1, #0]
 253              	.LVL32:
 254 0074 4368     		ldr	r3, [r0, #4]
 255              	.LVL33:
 256 0076 C3F89020 		str	r2, [r3, #144]
 257              		.loc 1 2221 0
 258 007a D3E7     		b	.L24
 259              	.LVL34:
 260              	.L30:
 261              		.loc 1 2209 0
 262 007c 0868     		ldr	r0, [r1, #0]
 263              	.LVL35:
 264 007e 0028     		cmp	r0, #0
 265 0080 2CD0     		beq	.L32
 266              		.loc 1 2210 0
 267 0082 2168     		ldr	r1, [r4, #0]
 268              	.LVL36:
 269 0084 4B68     		ldr	r3, [r1, #4]
 270              	.LVL37:
 271 0086 9A7F     		ldrb	r2, [r3, #30]	@ zero_extendqisi2
 272              	.LVL38:
 273 0088 42F04000 		orr	r0, r2, #64
 274 008c 9877     		strb	r0, [r3, #30]
 275 008e 2068     		ldr	r0, [r4, #0]
 276 0090 C8E7     		b	.L24
 277              	.LVL39:
 278              	.L27:
 279              		.loc 1 2160 0
 280 0092 2068     		ldr	r0, [r4, #0]
 281 0094 0A68     		ldr	r2, [r1, #0]
 282              	.LVL40:
 283 0096 4368     		ldr	r3, [r0, #4]
 284              	.LVL41:
 285 0098 5A72     		strb	r2, [r3, #9]
ARM GAS  C:\Users\jenny\AppData\Local\Temp\ccLg5IEe.s 			page 6


 286 009a 2068     		ldr	r0, [r4, #0]
 287              		.loc 1 2163 0
 288 009c C2E7     		b	.L24
 289              	.LVL42:
 290              	.L22:
 291              		.loc 1 2138 0
 292 009e 0968     		ldr	r1, [r1, #0]
 293              	.LVL43:
 294 00a0 61B1     		cbz	r1, .L25
 295              		.loc 1 2139 0
 296 00a2 2268     		ldr	r2, [r4, #0]
 297              	.LVL44:
 298 00a4 5368     		ldr	r3, [r2, #4]
 299              	.LVL45:
 300 00a6 187C     		ldrb	r0, [r3, #16]	@ zero_extendqisi2
 301 00a8 40F00101 		orr	r1, r0, #1
 302 00ac 1974     		strb	r1, [r3, #16]
 303 00ae 2068     		ldr	r0, [r4, #0]
 304 00b0 B8E7     		b	.L24
 305              	.LVL46:
 306              	.L43:
 307              		.loc 1 2085 0 discriminator 1
 308 00b2 0190     		str	r0, [sp, #4]
 309 00b4 FFF7FEFF 		bl	port_halt
 310              	.LVL47:
 311 00b8 0198     		ldr	r0, [sp, #4]
 312 00ba A5E7     		b	.L15
 313              	.LVL48:
 314              	.L25:
 315              		.loc 1 2141 0
 316 00bc 2268     		ldr	r2, [r4, #0]
 317              	.LVL49:
 318 00be 5368     		ldr	r3, [r2, #4]
 319              	.LVL50:
 320 00c0 187C     		ldrb	r0, [r3, #16]	@ zero_extendqisi2
 321 00c2 20F00101 		bic	r1, r0, #1
 322 00c6 1974     		strb	r1, [r3, #16]
 323 00c8 2068     		ldr	r0, [r4, #0]
 324 00ca ABE7     		b	.L24
 325              	.LVL51:
 326              	.L23:
 327              		.loc 1 2116 0
 328 00cc 2068     		ldr	r0, [r4, #0]
 329 00ce 4368     		ldr	r3, [r0, #4]
 330 00d0 197A     		ldrb	r1, [r3, #8]	@ zero_extendqisi2
 331              	.LVL52:
 332 00d2 21EA0202 		bic	r2, r1, r2
 333              	.LVL53:
 334 00d6 1A72     		strb	r2, [r3, #8]
 335 00d8 2068     		ldr	r0, [r4, #0]
 336 00da A3E7     		b	.L24
 337              	.LVL54:
 338              	.L32:
 339              		.loc 1 2212 0
 340 00dc 2168     		ldr	r1, [r4, #0]
 341              	.LVL55:
 342 00de 4B68     		ldr	r3, [r1, #4]
ARM GAS  C:\Users\jenny\AppData\Local\Temp\ccLg5IEe.s 			page 7


 343              	.LVL56:
 344 00e0 9A7F     		ldrb	r2, [r3, #30]	@ zero_extendqisi2
 345              	.LVL57:
 346 00e2 22F04000 		bic	r0, r2, #64
 347 00e6 9877     		strb	r0, [r3, #30]
 348 00e8 2068     		ldr	r0, [r4, #0]
 349 00ea 9BE7     		b	.L24
 350              		.cfi_endproc
 351              	.LFE34:
 352              		.size	lwip_setsockopt_internal, .-lwip_setsockopt_internal
 353 00ec AFF30080 		.section	.text.lwip_getsockopt_internal,"ax",%progbits
 354              		.align	2
 355              		.p2align 4,,15
 356              		.thumb
 357              		.thumb_func
 358              		.type	lwip_getsockopt_internal, %function
 359              	lwip_getsockopt_internal:
 360              	.LFB32:
 361              		.loc 1 1659 0
 362              		.cfi_startproc
 363              		@ args = 0, pretend = 0, frame = 8
 364              		@ frame_needed = 0, uses_anonymous_args = 0
 365              	.LVL58:
 366 0000 10B5     		push	{r4, lr}
 367              	.LCFI3:
 368              		.cfi_def_cfa_offset 8
 369              		.cfi_offset 4, -8
 370              		.cfi_offset 14, -4
 371 0002 82B0     		sub	sp, sp, #8
 372              	.LCFI4:
 373              		.cfi_def_cfa_offset 16
 374              		.loc 1 1668 0
 375 0004 0028     		cmp	r0, #0
 376 0006 5AD0     		beq	.L90
 377              	.LVL59:
 378              	.L45:
 379              		.loc 1 1679 0
 380 0008 4368     		ldr	r3, [r0, #4]
 381              		.loc 1 1671 0
 382 000a 0468     		ldr	r4, [r0, #0]
 383              	.LVL60:
 384              		.loc 1 1676 0
 385 000c 8268     		ldr	r2, [r0, #8]
 386              	.LVL61:
 387              		.loc 1 1677 0
 388 000e C168     		ldr	r1, [r0, #12]
 389              	.LVL62:
 390              		.loc 1 1679 0
 391 0010 062B     		cmp	r3, #6
 392 0012 23D0     		beq	.L48
 393 0014 40F6FF70 		movw	r0, #4095
 394              	.LVL63:
 395 0018 8342     		cmp	r3, r0
 396 001a 12D0     		beq	.L49
 397 001c 43B1     		cbz	r3, .L47
 398              	.LVL64:
 399              	.L86:
ARM GAS  C:\Users\jenny\AppData\Local\Temp\ccLg5IEe.s 			page 8


 400              		.loc 1 1859 0 discriminator 1
 401 001e FFF7FEFF 		bl	port_halt
 402              	.LVL65:
 403 0022 2068     		ldr	r0, [r4, #0]
 404              	.L56:
 405              		.loc 1 1862 0
 406 0024 0C30     		adds	r0, r0, #12
 407              		.loc 1 1863 0
 408 0026 02B0     		add	sp, sp, #8
 409 0028 BDE81040 		pop	{r4, lr}
 410              		.loc 1 1862 0
 411 002c FFF7FEBF 		b	sys_sem_signal
 412              	.LVL66:
 413              	.L47:
 414              		.loc 1 1762 0
 415 0030 012A     		cmp	r2, #1
 416 0032 24D0     		beq	.L65
 417 0034 022A     		cmp	r2, #2
 418 0036 F2D1     		bne	.L86
 419              		.loc 1 1764 0
 420 0038 2068     		ldr	r0, [r4, #0]
 421 003a 4368     		ldr	r3, [r0, #4]
 422              	.LVL67:
 423 003c 9A7A     		ldrb	r2, [r3, #10]	@ zero_extendqisi2
 424              	.LVL68:
 425 003e 0A60     		str	r2, [r1, #0]
 426              		.loc 1 1767 0
 427 0040 F0E7     		b	.L56
 428              	.LVL69:
 429              	.L49:
 430              		.loc 1 1683 0
 431 0042 202A     		cmp	r2, #32
 432 0044 04D0     		beq	.L51
 433 0046 1FDC     		bgt	.L55
 434 0048 022A     		cmp	r2, #2
 435 004a 01D0     		beq	.L51
 436 004c 082A     		cmp	r2, #8
 437 004e E6D1     		bne	.L86
 438              	.L51:
 439              		.loc 1 1697 0
 440 0050 2068     		ldr	r0, [r4, #0]
 441 0052 4368     		ldr	r3, [r0, #4]
 442              	.LVL70:
 443 0054 1B7A     		ldrb	r3, [r3, #8]	@ zero_extendqisi2
 444 0056 1A40     		ands	r2, r2, r3
 445              	.LVL71:
 446 0058 0A60     		str	r2, [r1, #0]
 447              		.loc 1 1700 0
 448 005a E3E7     		b	.L56
 449              	.LVL72:
 450              	.L48:
 451              		.loc 1 1803 0
 452 005c 012A     		cmp	r2, #1
 453 005e 07D0     		beq	.L68
 454 0060 022A     		cmp	r2, #2
 455 0062 DCD1     		bne	.L86
 456              		.loc 1 1810 0
ARM GAS  C:\Users\jenny\AppData\Local\Temp\ccLg5IEe.s 			page 9


 457 0064 2068     		ldr	r0, [r4, #0]
 458              	.LVL73:
 459 0066 4268     		ldr	r2, [r0, #4]
 460              	.LVL74:
 461 0068 D2F89030 		ldr	r3, [r2, #144]
 462              	.LVL75:
 463 006c 0B60     		str	r3, [r1, #0]
 464              		.loc 1 1813 0
 465 006e D9E7     		b	.L56
 466              	.LVL76:
 467              	.L68:
 468              		.loc 1 1805 0
 469 0070 2068     		ldr	r0, [r4, #0]
 470              	.LVL77:
 471 0072 4268     		ldr	r2, [r0, #4]
 472              	.LVL78:
 473 0074 937F     		ldrb	r3, [r2, #30]	@ zero_extendqisi2
 474              	.LVL79:
 475 0076 C3F38012 		ubfx	r2, r3, #6, #1
 476 007a 0A60     		str	r2, [r1, #0]
 477              		.loc 1 1808 0
 478 007c D2E7     		b	.L56
 479              	.LVL80:
 480              	.L65:
 481              		.loc 1 1769 0
 482 007e 2068     		ldr	r0, [r4, #0]
 483 0080 4368     		ldr	r3, [r0, #4]
 484              	.LVL81:
 485 0082 5A7A     		ldrb	r2, [r3, #9]	@ zero_extendqisi2
 486              	.LVL82:
 487 0084 0A60     		str	r2, [r1, #0]
 488              		.loc 1 1772 0
 489 0086 CDE7     		b	.L56
 490              	.LVL83:
 491              	.L55:
 492              		.loc 1 1683 0
 493 0088 41F20800 		movw	r0, #4104
 494 008c 8242     		cmp	r2, r0
 495 008e 1BD0     		beq	.L53
 496 0090 831C     		adds	r3, r0, #2
 497              	.LVL84:
 498 0092 9A42     		cmp	r2, r3
 499 0094 0CD0     		beq	.L54
 500 0096 41F20700 		movw	r0, #4103
 501 009a 8242     		cmp	r2, r0
 502 009c BFD1     		bne	.L86
 503              		.loc 1 1725 0
 504 009e 2369     		ldr	r3, [r4, #16]
 505              		.loc 1 1726 0
 506 00a0 2068     		ldr	r0, [r4, #0]
 507              		.loc 1 1725 0
 508 00a2 03B3     		cbz	r3, .L61
 509              		.loc 1 1725 0 is_stmt 0 discriminator 1
 510 00a4 732B     		cmp	r3, #115
 511 00a6 1ED0     		beq	.L61
 512              	.LVL85:
 513              	.L62:
ARM GAS  C:\Users\jenny\AppData\Local\Temp\ccLg5IEe.s 			page 10


 514              		.loc 1 1728 0 is_stmt 1
 515 00a8 0B60     		str	r3, [r1, #0]
 516              		.loc 1 1729 0
 517 00aa 0021     		movs	r1, #0
 518              	.LVL86:
 519 00ac 2161     		str	r1, [r4, #16]
 520              		.loc 1 1732 0
 521 00ae B9E7     		b	.L56
 522              	.LVL87:
 523              	.L54:
 524              		.loc 1 1751 0
 525 00b0 2068     		ldr	r0, [r4, #0]
 526 00b2 4268     		ldr	r2, [r0, #4]
 527              	.LVL88:
 528 00b4 137C     		ldrb	r3, [r2, #16]	@ zero_extendqisi2
 529 00b6 03F00102 		and	r2, r3, #1
 530 00ba 0A60     		str	r2, [r1, #0]
 531              		.loc 1 1752 0
 532 00bc B2E7     		b	.L56
 533              	.LVL89:
 534              	.L90:
 535              		.loc 1 1668 0 discriminator 1
 536 00be 0190     		str	r0, [sp, #4]
 537 00c0 FFF7FEFF 		bl	port_halt
 538              	.LVL90:
 539 00c4 0198     		ldr	r0, [sp, #4]
 540 00c6 9FE7     		b	.L45
 541              	.LVL91:
 542              	.L53:
 543              		.loc 1 1703 0
 544 00c8 2068     		ldr	r0, [r4, #0]
 545 00ca 0278     		ldrb	r2, [r0, #0]	@ zero_extendqisi2
 546              	.LVL92:
 547 00cc 02F0F003 		and	r3, r2, #240
 548              	.LVL93:
 549 00d0 202B     		cmp	r3, #32
 550 00d2 05D0     		beq	.L59
 551 00d4 402B     		cmp	r3, #64
 552 00d6 14D0     		beq	.L60
 553 00d8 102B     		cmp	r3, #16
 554 00da 0FD0     		beq	.L91
 555              		.loc 1 1714 0
 556 00dc 0A60     		str	r2, [r1, #0]
 557 00de A1E7     		b	.L56
 558              	.L59:
 559              		.loc 1 1711 0
 560 00e0 0222     		movs	r2, #2
 561 00e2 0A60     		str	r2, [r1, #0]
 562              		.loc 1 1712 0
 563 00e4 9EE7     		b	.L56
 564              	.LVL94:
 565              	.L61:
 566              		.loc 1 1726 0
 567 00e6 90F90830 		ldrsb	r3, [r0, #8]
 568 00ea 5B42     		negs	r3, r3
 569 00ec 0F2B     		cmp	r3, #15
 570 00ee 9ABF     		itte	ls
ARM GAS  C:\Users\jenny\AppData\Local\Temp\ccLg5IEe.s 			page 11


 571 00f0 054A     		ldrls	r2, .L92
 572              	.LVL95:
 573 00f2 52F82330 		ldrls	r3, [r2, r3, lsl #2]
 574 00f6 0523     		movhi	r3, #5
 575 00f8 2361     		str	r3, [r4, #16]
 576 00fa D5E7     		b	.L62
 577              	.L91:
 578              		.loc 1 1708 0
 579 00fc 0122     		movs	r2, #1
 580 00fe 0A60     		str	r2, [r1, #0]
 581              		.loc 1 1709 0
 582 0100 90E7     		b	.L56
 583              	.L60:
 584              		.loc 1 1705 0
 585 0102 0323     		movs	r3, #3
 586 0104 0B60     		str	r3, [r1, #0]
 587              		.loc 1 1706 0
 588 0106 8DE7     		b	.L56
 589              	.L93:
 590              		.align	2
 591              	.L92:
 592 0108 00000000 		.word	.LANCHOR1
 593              		.cfi_endproc
 594              	.LFE32:
 595              		.size	lwip_getsockopt_internal, .-lwip_getsockopt_internal
 596 010c AFF30080 		.section	.text.lwip_selscan,"ax",%progbits
 597              		.align	2
 598              		.p2align 4,,15
 599              		.thumb
 600              		.thumb_func
 601              		.type	lwip_selscan, %function
 602              	lwip_selscan:
 603              	.LFB24:
 604              		.loc 1 1028 0
 605              		.cfi_startproc
 606              		@ args = 12, pretend = 0, frame = 24
 607              		@ frame_needed = 0, uses_anonymous_args = 0
 608              		@ link register save eliminated.
 609              	.LVL96:
 610 0000 2DE9F00F 		push	{r4, r5, r6, r7, r8, r9, sl, fp}
 611              	.LCFI5:
 612              		.cfi_def_cfa_offset 32
 613              		.cfi_offset 4, -32
 614              		.cfi_offset 5, -28
 615              		.cfi_offset 6, -24
 616              		.cfi_offset 7, -20
 617              		.cfi_offset 8, -16
 618              		.cfi_offset 9, -12
 619              		.cfi_offset 10, -8
 620              		.cfi_offset 11, -4
 621 0004 86B0     		sub	sp, sp, #24
 622              	.LCFI6:
 623              		.cfi_def_cfa_offset 56
 624              		.loc 1 1034 0
 625 0006 0026     		movs	r6, #0
 626              		.loc 1 1040 0
 627 0008 B0F1000B 		subs	fp, r0, #0
ARM GAS  C:\Users\jenny\AppData\Local\Temp\ccLg5IEe.s 			page 12


 628              		.loc 1 1034 0
 629 000c 8DF80C60 		strb	r6, [sp, #12]
 630              		.loc 1 1035 0
 631 0010 8DF81060 		strb	r6, [sp, #16]
 632              		.loc 1 1036 0
 633 0014 8DF81460 		strb	r6, [sp, #20]
 634              	.LVL97:
 635              		.loc 1 1040 0
 636 0018 3046     		mov	r0, r6
 637              	.LVL98:
 638 001a 6DDD     		ble	.L95
 639 001c 3446     		mov	r4, r6
 640              	.LVL99:
 641              	.L101:
 642              	.LBB45:
 643              	.LBB46:
 644              	.LBB47:
 645              		.loc 1 225 0
 646 001e 032C     		cmp	r4, #3
 647 0020 7AD8     		bhi	.L103
 648              		.loc 1 228 0
 649 0022 40F20007 		movw	r7, #:lower16:.LANCHOR0
 650 0026 C0F20007 		movt	r7, #:upper16:.LANCHOR0
 651 002a F559     		ldr	r5, [r6, r7]
 652 002c 002D     		cmp	r5, #0
 653 002e 78D0     		beq	.L104
 654              		.loc 1 231 0
 655 0030 04EB4405 		add	r5, r4, r4, lsl #1
 656 0034 07EBC505 		add	r5, r7, r5, lsl #3
 657              	.LBE47:
 658              	.LBE46:
 659              		.loc 1 1050 0
 660 0038 B5F80A80 		ldrh	r8, [r5, #10]
 661              		.loc 1 1049 0
 662 003c D5F804A0 		ldr	sl, [r5, #4]
 663              	.LVL100:
 664              		.loc 1 1051 0
 665 0040 B5F80C90 		ldrh	r9, [r5, #12]
 666              		.loc 1 1052 0
 667 0044 ED89     		ldrh	r5, [r5, #14]
 668              		.loc 1 1050 0
 669 0046 CDF80480 		str	r8, [sp, #4]
 670              	.LVL101:
 671              	.L96:
 672              		.loc 1 1057 0
 673 004a D9B1     		cbz	r1, .L97
 674              		.loc 1 1057 0 is_stmt 0 discriminator 1
 675 004c 4FEAE40C 		asr	ip, r4, #3
 676 0050 04F00707 		and	r7, r4, #7
 677 0054 11F80C80 		ldrb	r8, [r1, ip]	@ zero_extendqisi2
 678 0058 48FA07F8 		asr	r8, r8, r7
 679 005c 18F0010F 		tst	r8, #1
 680 0060 10D0     		beq	.L97
 681 0062 BAF1000F 		cmp	sl, #0
 682 0066 60D0     		beq	.L130
 683              	.LVL102:
 684              	.L98:
ARM GAS  C:\Users\jenny\AppData\Local\Temp\ccLg5IEe.s 			page 13


 685              		.loc 1 1058 0 is_stmt 1
 686 0068 0DF1180A 		add	sl, sp, #24
 687 006c D444     		add	ip, sl, ip
 688 006e 4FF0010A 		mov	sl, #1
 689 0072 1CF80C8C 		ldrb	r8, [ip, #-12]	@ zero_extendqisi2
 690 0076 0AFA07F7 		lsl	r7, sl, r7
 691 007a 47EA0807 		orr	r7, r7, r8
 692 007e 0CF80C7C 		strb	r7, [ip, #-12]
 693              		.loc 1 1060 0
 694 0082 5044     		add	r0, r0, sl
 695              	.LVL103:
 696              	.L97:
 697              		.loc 1 1063 0
 698 0084 DAB1     		cbz	r2, .L99
 699              		.loc 1 1063 0 is_stmt 0 discriminator 1
 700 0086 4FEAE40C 		asr	ip, r4, #3
 701 008a 04F00707 		and	r7, r4, #7
 702 008e 12F80C80 		ldrb	r8, [r2, ip]	@ zero_extendqisi2
 703 0092 48FA07F8 		asr	r8, r8, r7
 704 0096 18F0010F 		tst	r8, #1
 705 009a 10D0     		beq	.L99
 706 009c B9F1000F 		cmp	r9, #0
 707 00a0 0DD0     		beq	.L99
 708              		.loc 1 1064 0 is_stmt 1
 709 00a2 0DF1180A 		add	sl, sp, #24
 710 00a6 D444     		add	ip, sl, ip
 711 00a8 4FF0010A 		mov	sl, #1
 712 00ac 1CF8088C 		ldrb	r8, [ip, #-8]	@ zero_extendqisi2
 713 00b0 0AFA07F7 		lsl	r7, sl, r7
 714 00b4 47EA0807 		orr	r7, r7, r8
 715 00b8 0CF8087C 		strb	r7, [ip, #-8]
 716              		.loc 1 1066 0
 717 00bc 5044     		add	r0, r0, sl
 718              	.LVL104:
 719              	.L99:
 720              		.loc 1 1069 0
 721 00be BBB1     		cbz	r3, .L100
 722              		.loc 1 1069 0 is_stmt 0 discriminator 1
 723 00c0 4FEAE40C 		asr	ip, r4, #3
 724 00c4 04F00707 		and	r7, r4, #7
 725 00c8 13F80C80 		ldrb	r8, [r3, ip]	@ zero_extendqisi2
 726 00cc 48FA07F8 		asr	r8, r8, r7
 727 00d0 18F0010F 		tst	r8, #1
 728 00d4 0CD0     		beq	.L100
 729 00d6 5DB1     		cbz	r5, .L100
 730              		.loc 1 1070 0 is_stmt 1
 731 00d8 06AD     		add	r5, sp, #24
 732              	.LVL105:
 733 00da AC44     		add	ip, r5, ip
 734 00dc 4FF00108 		mov	r8, #1
 735 00e0 1CF8045C 		ldrb	r5, [ip, #-4]	@ zero_extendqisi2
 736 00e4 08FA07F7 		lsl	r7, r8, r7
 737 00e8 2F43     		orrs	r7, r7, r5
 738 00ea 0CF8047C 		strb	r7, [ip, #-4]
 739              		.loc 1 1072 0
 740 00ee 4044     		add	r0, r0, r8
 741              	.LVL106:
ARM GAS  C:\Users\jenny\AppData\Local\Temp\ccLg5IEe.s 			page 14


 742              	.L100:
 743              	.LBE45:
 744              		.loc 1 1040 0
 745 00f0 0134     		adds	r4, r4, #1
 746              	.LVL107:
 747 00f2 1836     		adds	r6, r6, #24
 748 00f4 5C45     		cmp	r4, fp
 749 00f6 92D1     		bne	.L101
 750              	.LVL108:
 751              	.L95:
 752              		.loc 1 1076 0
 753 00f8 0E9B     		ldr	r3, [sp, #56]
 754              	.LVL109:
 755 00fa 9DF80C40 		ldrb	r4, [sp, #12]	@ zero_extendqisi2
 756              		.loc 1 1077 0
 757 00fe 9DF81010 		ldrb	r1, [sp, #16]	@ zero_extendqisi2
 758              	.LVL110:
 759              		.loc 1 1076 0
 760 0102 1C70     		strb	r4, [r3, #0]
 761              		.loc 1 1077 0
 762 0104 0F9B     		ldr	r3, [sp, #60]
 763              		.loc 1 1078 0
 764 0106 9DF81420 		ldrb	r2, [sp, #20]	@ zero_extendqisi2
 765              	.LVL111:
 766              		.loc 1 1077 0
 767 010a 1970     		strb	r1, [r3, #0]
 768              		.loc 1 1078 0
 769 010c 1099     		ldr	r1, [sp, #64]
 770 010e 0A70     		strb	r2, [r1, #0]
 771              		.loc 1 1082 0
 772 0110 06B0     		add	sp, sp, #24
 773 0112 BDE8F00F 		pop	{r4, r5, r6, r7, r8, r9, sl, fp}
 774 0116 7047     		bx	lr
 775              	.LVL112:
 776              	.L103:
 777              	.LBB50:
 778              	.LBB49:
 779              	.LBB48:
 780              		.loc 1 1044 0
 781 0118 0025     		movs	r5, #0
 782              		.loc 1 1043 0
 783 011a A946     		mov	r9, r5
 784              		.loc 1 1042 0
 785 011c 0195     		str	r5, [sp, #4]
 786              		.loc 1 1041 0
 787 011e AA46     		mov	sl, r5
 788 0120 93E7     		b	.L96
 789              	.L104:
 790              		.loc 1 1043 0
 791 0122 A946     		mov	r9, r5
 792              		.loc 1 1042 0
 793 0124 0195     		str	r5, [sp, #4]
 794              		.loc 1 1041 0
 795 0126 AA46     		mov	sl, r5
 796 0128 8FE7     		b	.L96
 797              	.LVL113:
 798              	.L130:
ARM GAS  C:\Users\jenny\AppData\Local\Temp\ccLg5IEe.s 			page 15


 799              	.LBE48:
 800              	.LBE49:
 801              		.loc 1 1057 0 discriminator 1
 802 012a DDF804A0 		ldr	sl, [sp, #4]
 803              	.LVL114:
 804 012e 0FFA8AF8 		sxth	r8, sl
 805 0132 B8F1000F 		cmp	r8, #0
 806 0136 97DC     		bgt	.L98
 807 0138 A4E7     		b	.L97
 808              	.LBE50:
 809              		.cfi_endproc
 810              	.LFE24:
 811              		.size	lwip_selscan, .-lwip_selscan
 812 013a 00BFAFF3 		.section	.text.lwip_getaddrname,"ax",%progbits
 812      0080
 813              		.align	2
 814              		.p2align 4,,15
 815              		.thumb
 816              		.thumb_func
 817              		.type	lwip_getaddrname, %function
 818              	lwip_getaddrname:
 819              	.LFB28:
 820              		.loc 1 1412 0
 821              		.cfi_startproc
 822              		@ args = 0, pretend = 0, frame = 24
 823              		@ frame_needed = 0, uses_anonymous_args = 0
 824              	.LVL115:
 825 0000 2DE9F041 		push	{r4, r5, r6, r7, r8, lr}
 826              	.LCFI7:
 827              		.cfi_def_cfa_offset 24
 828              		.cfi_offset 4, -24
 829              		.cfi_offset 5, -20
 830              		.cfi_offset 6, -16
 831              		.cfi_offset 7, -12
 832              		.cfi_offset 8, -8
 833              		.cfi_offset 14, -4
 834              	.LBB51:
 835              	.LBB52:
 836              		.loc 1 199 0
 837 0004 0328     		cmp	r0, #3
 838              	.LBE52:
 839              	.LBE51:
 840              		.loc 1 1412 0
 841 0006 86B0     		sub	sp, sp, #24
 842              	.LCFI8:
 843              		.cfi_def_cfa_offset 48
 844              		.loc 1 1412 0
 845 0008 0D46     		mov	r5, r1
 846 000a 1646     		mov	r6, r2
 847              	.LBB55:
 848              	.LBB53:
 849              		.loc 1 199 0
 850 000c 2CD8     		bhi	.L137
 851              		.loc 1 205 0
 852 000e 00EB4000 		add	r0, r0, r0, lsl #1
 853              	.LVL116:
 854 0012 184A     		ldr	r2, .L140
ARM GAS  C:\Users\jenny\AppData\Local\Temp\ccLg5IEe.s 			page 16


 855              	.LVL117:
 856 0014 C100     		lsls	r1, r0, #3
 857              	.LVL118:
 858 0016 02EB0108 		add	r8, r2, r1
 859              	.LVL119:
 860              		.loc 1 207 0
 861 001a 5058     		ldr	r0, [r2, r1]
 862 001c 20B3     		cbz	r0, .L137
 863              	.LBE53:
 864              	.LBE55:
 865              		.loc 1 1422 0
 866 001e 0024     		movs	r4, #0
 867 0020 0294     		str	r4, [sp, #8]
 868              		.loc 1 1427 0
 869 0022 0DF10A02 		add	r2, sp, #10
 870 0026 01A9     		add	r1, sp, #4
 871              		.loc 1 1423 0
 872 0028 1027     		movs	r7, #16
 873              		.loc 1 1422 0
 874 002a 0394     		str	r4, [sp, #12]
 875 002c 0494     		str	r4, [sp, #16]
 876 002e 0594     		str	r4, [sp, #20]
 877              		.loc 1 1424 0
 878 0030 0224     		movs	r4, #2
 879              		.loc 1 1423 0
 880 0032 8DF80870 		strb	r7, [sp, #8]
 881              		.loc 1 1424 0
 882 0036 8DF80940 		strb	r4, [sp, #9]
 883              		.loc 1 1427 0
 884 003a FFF7FEFF 		bl	netconn_getaddr
 885              	.LVL120:
 886              		.loc 1 1433 0
 887 003e BDF80A00 		ldrh	r0, [sp, #10]
 888 0042 FFF7FEFF 		bl	lwip_htons
 889              	.LVL121:
 890              		.loc 1 1436 0
 891 0046 3268     		ldr	r2, [r6, #0]
 892              		.loc 1 1434 0
 893 0048 019B     		ldr	r3, [sp, #4]
 894              		.loc 1 1433 0
 895 004a ADF80A00 		strh	r0, [sp, #10]	@ movhi
 896              		.loc 1 1436 0
 897 004e BA42     		cmp	r2, r7
 898              		.loc 1 1434 0
 899 0050 0393     		str	r3, [sp, #12]
 900              		.loc 1 1436 0
 901 0052 01D9     		bls	.L135
 902              		.loc 1 1437 0
 903 0054 3760     		str	r7, [r6, #0]
 904 0056 3A46     		mov	r2, r7
 905              	.L135:
 906              		.loc 1 1440 0
 907 0058 2846     		mov	r0, r5
 908 005a 02A9     		add	r1, sp, #8
 909 005c FFF7FEFF 		bl	memcpy
 910              	.LVL122:
 911              		.loc 1 1441 0
ARM GAS  C:\Users\jenny\AppData\Local\Temp\ccLg5IEe.s 			page 17


 912 0060 0020     		movs	r0, #0
 913 0062 C8F81000 		str	r0, [r8, #16]
 914 0066 01E0     		b	.L139
 915              	.LVL123:
 916              	.L137:
 917              	.LBB56:
 918              	.LBB54:
 919              		.loc 1 1419 0
 920 0068 4FF0FF30 		mov	r0, #-1
 921              	.LVL124:
 922              	.L139:
 923              	.LBE54:
 924              	.LBE56:
 925              		.loc 1 1443 0
 926 006c 06B0     		add	sp, sp, #24
 927 006e BDE8F081 		pop	{r4, r5, r6, r7, r8, pc}
 928              	.L141:
 929 0072 00BF     		.align	2
 930              	.L140:
 931 0074 00000000 		.word	.LANCHOR0
 932              		.cfi_endproc
 933              	.LFE28:
 934              		.size	lwip_getaddrname, .-lwip_getaddrname
 935 0078 AFF30080 		.section	.text.event_callback,"ax",%progbits
 935      AFF30080 
 936              		.align	2
 937              		.p2align 4,,15
 938              		.thumb
 939              		.thumb_func
 940              		.type	event_callback, %function
 941              	event_callback:
 942              	.LFB26:
 943              		.loc 1 1248 0
 944              		.cfi_startproc
 945              		@ args = 0, pretend = 0, frame = 0
 946              		@ frame_needed = 0, uses_anonymous_args = 0
 947              	.LVL125:
 948 0000 2DE9F843 		push	{r3, r4, r5, r6, r7, r8, r9, lr}
 949              	.LCFI9:
 950              		.cfi_def_cfa_offset 32
 951              		.cfi_offset 3, -32
 952              		.cfi_offset 4, -28
 953              		.cfi_offset 5, -24
 954              		.cfi_offset 6, -20
 955              		.cfi_offset 7, -16
 956              		.cfi_offset 8, -12
 957              		.cfi_offset 9, -8
 958              		.cfi_offset 14, -4
 959              		.loc 1 1258 0
 960 0004 B0B1     		cbz	r0, .L142
 961              		.loc 1 1259 0
 962 0006 8469     		ldr	r4, [r0, #24]
 963              	.LVL126:
 964              		.loc 1 1260 0
 965 0008 002C     		cmp	r4, #0
 966 000a 11DB     		blt	.L190
 967              	.LVL127:
ARM GAS  C:\Users\jenny\AppData\Local\Temp\ccLg5IEe.s 			page 18


 968              	.LBB57:
 969              	.LBB58:
 970              		.loc 1 199 0
 971 000c 032C     		cmp	r4, #3
 972 000e 11D8     		bhi	.L142
 973              		.loc 1 205 0
 974 0010 04EB4403 		add	r3, r4, r4, lsl #1
 975 0014 354A     		ldr	r2, .L193
 976              	.LVL128:
 977 0016 D800     		lsls	r0, r3, #3
 978              	.LVL129:
 979 0018 02EB0008 		add	r8, r2, r0
 980              	.LVL130:
 981              		.loc 1 207 0
 982 001c 1358     		ldr	r3, [r2, r0]
 983 001e 002B     		cmp	r3, #0
 984 0020 5DD0     		beq	.L191
 985              	.LBE58:
 986              	.LBE57:
 987              		.loc 1 1288 0
 988 0022 0429     		cmp	r1, #4
 989 0024 52D8     		bhi	.L154
 990 0026 DFE801F0 		tbb	[pc, r1]
 991              	.L161:
 992 002a 3D       		.byte	(.L148-.L161)/2
 993 002b 47       		.byte	(.L150-.L161)/2
 994 002c 43       		.byte	(.L151-.L161)/2
 995 002d 4D       		.byte	(.L152-.L161)/2
 996 002e 07       		.byte	(.L153-.L161)/2
 997 002f 00       		.align	1
 998              	.LVL131:
 999              	.L190:
 1000              		.loc 1 1268 0
 1001 0030 0029     		cmp	r1, #0
 1002 0032 56D0     		beq	.L192
 1003              	.LVL132:
 1004              	.L142:
 1005 0034 BDE8F883 		pop	{r3, r4, r5, r6, r7, r8, r9, pc}
 1006              	.LVL133:
 1007              	.L153:
 1008              		.loc 1 1302 0
 1009 0038 0121     		movs	r1, #1
 1010              	.LVL134:
 1011 003a A8F80E10 		strh	r1, [r8, #14]	@ movhi
 1012              	.L149:
 1013              		.loc 1 1309 0
 1014 003e D8F81430 		ldr	r3, [r8, #20]
 1015 0042 002B     		cmp	r3, #0
 1016 0044 F6D0     		beq	.L142
 1017 0046 0126     		movs	r6, #1
 1018 0048 294F     		ldr	r7, .L193+4
 1019 004a 2A4D     		ldr	r5, .L193+8
 1020 004c 06FA04F9 		lsl	r9, r6, r4
 1021              	.LVL135:
 1022              	.L159:
 1023              		.loc 1 1322 0
 1024 0050 3C68     		ldr	r4, [r7, #0]
ARM GAS  C:\Users\jenny\AppData\Local\Temp\ccLg5IEe.s 			page 19


 1025              	.LVL136:
 1026 0052 002C     		cmp	r4, #0
 1027 0054 EED0     		beq	.L142
 1028              	.L160:
 1029              		.loc 1 1323 0
 1030 0056 6169     		ldr	r1, [r4, #20]
 1031 0058 D9B9     		cbnz	r1, .L155
 1032              	.LVL137:
 1033              	.LBB59:
 1034              		.loc 1 1327 0
 1035 005a B8F90A20 		ldrsh	r2, [r8, #10]
 1036 005e 002A     		cmp	r2, #0
 1037 0060 05DD     		ble	.L156
 1038              		.loc 1 1328 0
 1039 0062 A068     		ldr	r0, [r4, #8]
 1040 0064 18B1     		cbz	r0, .L156
 1041              		.loc 1 1328 0 is_stmt 0 discriminator 1
 1042 0066 0378     		ldrb	r3, [r0, #0]	@ zero_extendqisi2
 1043 0068 13EA090F 		tst	r3, r9
 1044 006c 31D1     		bne	.L157
 1045              	.L156:
 1046              		.loc 1 1332 0 is_stmt 1
 1047 006e B8F80C10 		ldrh	r1, [r8, #12]
 1048 0072 29B1     		cbz	r1, .L189
 1049              		.loc 1 1333 0 discriminator 1
 1050 0074 E268     		ldr	r2, [r4, #12]
 1051 0076 1AB1     		cbz	r2, .L189
 1052 0078 1078     		ldrb	r0, [r2, #0]	@ zero_extendqisi2
 1053 007a 19EA000F 		tst	r9, r0
 1054 007e 28D1     		bne	.L157
 1055              	.L189:
 1056              		.loc 1 1337 0
 1057 0080 B8F80E30 		ldrh	r3, [r8, #14]
 1058 0084 2BB1     		cbz	r3, .L155
 1059              		.loc 1 1338 0 discriminator 1
 1060 0086 2169     		ldr	r1, [r4, #16]
 1061 0088 19B1     		cbz	r1, .L155
 1062 008a 0A78     		ldrb	r2, [r1, #0]	@ zero_extendqisi2
 1063 008c 19EA020F 		tst	r9, r2
 1064 0090 1FD1     		bne	.L157
 1065              	.LVL138:
 1066              	.L155:
 1067              	.LBE59:
 1068              		.loc 1 1353 0
 1069 0092 2868     		ldr	r0, [r5, #0]
 1070              	.LVL139:
 1071              		.loc 1 1357 0
 1072 0094 2B68     		ldr	r3, [r5, #0]
 1073 0096 9842     		cmp	r0, r3
 1074 0098 DAD1     		bne	.L159
 1075              		.loc 1 1322 0
 1076 009a 2468     		ldr	r4, [r4, #0]
 1077              	.LVL140:
 1078 009c 002C     		cmp	r4, #0
 1079 009e DAD1     		bne	.L160
 1080 00a0 BDE8F883 		pop	{r3, r4, r5, r6, r7, r8, r9, pc}
 1081              	.LVL141:
ARM GAS  C:\Users\jenny\AppData\Local\Temp\ccLg5IEe.s 			page 20


 1082              	.L148:
 1083              		.loc 1 1290 0
 1084 00a4 B8F80A20 		ldrh	r2, [r8, #10]
 1085 00a8 501C     		adds	r0, r2, #1
 1086 00aa A8F80A00 		strh	r0, [r8, #10]	@ movhi
 1087              		.loc 1 1291 0
 1088 00ae C6E7     		b	.L149
 1089              	.L151:
 1090              		.loc 1 1296 0
 1091 00b0 0120     		movs	r0, #1
 1092 00b2 A8F80C00 		strh	r0, [r8, #12]	@ movhi
 1093              		.loc 1 1297 0
 1094 00b6 C2E7     		b	.L149
 1095              	.L150:
 1096              		.loc 1 1293 0
 1097 00b8 B8F80A30 		ldrh	r3, [r8, #10]
 1098 00bc 591E     		subs	r1, r3, #1
 1099              	.LVL142:
 1100 00be A8F80A10 		strh	r1, [r8, #10]	@ movhi
 1101              		.loc 1 1294 0
 1102 00c2 BCE7     		b	.L149
 1103              	.LVL143:
 1104              	.L152:
 1105              		.loc 1 1299 0
 1106 00c4 0022     		movs	r2, #0
 1107 00c6 A8F80C20 		strh	r2, [r8, #12]	@ movhi
 1108              		.loc 1 1300 0
 1109 00ca B8E7     		b	.L149
 1110              	.L154:
 1111              		.loc 1 1305 0 discriminator 1
 1112 00cc FFF7FEFF 		bl	port_halt
 1113              	.LVL144:
 1114              		.loc 1 1306 0 discriminator 1
 1115 00d0 B5E7     		b	.L149
 1116              	.LVL145:
 1117              	.L157:
 1118              	.LBB60:
 1119              		.loc 1 1343 0
 1120 00d2 6661     		str	r6, [r4, #20]
 1121              		.loc 1 1349 0
 1122 00d4 04F11800 		add	r0, r4, #24
 1123 00d8 FFF7FEFF 		bl	sys_sem_signal_S
 1124              	.LVL146:
 1125 00dc D9E7     		b	.L155
 1126              	.LVL147:
 1127              	.L191:
 1128 00de BDE8F883 		pop	{r3, r4, r5, r6, r7, r8, r9, pc}
 1129              	.LVL148:
 1130              	.L192:
 1131              	.LBE60:
 1132              		.loc 1 1269 0
 1133 00e2 013C     		subs	r4, r4, #1
 1134              	.LVL149:
 1135 00e4 8461     		str	r4, [r0, #24]
 1136 00e6 BDE8F883 		pop	{r3, r4, r5, r6, r7, r8, r9, pc}
 1137              	.L194:
 1138 00ea 00BF     		.align	2
ARM GAS  C:\Users\jenny\AppData\Local\Temp\ccLg5IEe.s 			page 21


 1139              	.L193:
 1140 00ec 00000000 		.word	.LANCHOR0
 1141 00f0 00000000 		.word	.LANCHOR2
 1142 00f4 00000000 		.word	.LANCHOR3
 1143              		.cfi_endproc
 1144              	.LFE26:
 1145              		.size	event_callback, .-event_callback
 1146 00f8 AFF30080 		.section	.text.lwip_socket_init,"ax",%progbits
 1146      AFF30080 
 1147              		.align	2
 1148              		.p2align 4,,15
 1149              		.global	lwip_socket_init
 1150              		.thumb
 1151              		.thumb_func
 1152              		.type	lwip_socket_init, %function
 1153              	lwip_socket_init:
 1154              	.LFB7:
 1155              		.loc 1 185 0
 1156              		.cfi_startproc
 1157              		@ args = 0, pretend = 0, frame = 0
 1158              		@ frame_needed = 0, uses_anonymous_args = 0
 1159              		@ link register save eliminated.
 1160 0000 7047     		bx	lr
 1161              		.cfi_endproc
 1162              	.LFE7:
 1163              		.size	lwip_socket_init, .-lwip_socket_init
 1164 0002 00BFAFF3 		.section	.text.lwip_accept,"ax",%progbits
 1164      0080AFF3 
 1164      0080AFF3 
 1164      0080
 1165              		.align	2
 1166              		.p2align 4,,15
 1167              		.global	lwip_accept
 1168              		.thumb
 1169              		.thumb_func
 1170              		.type	lwip_accept, %function
 1171              	lwip_accept:
 1172              	.LFB12:
 1173              		.loc 1 313 0
 1174              		.cfi_startproc
 1175              		@ args = 0, pretend = 0, frame = 40
 1176              		@ frame_needed = 0, uses_anonymous_args = 0
 1177              	.LVL150:
 1178              		.loc 1 313 0
 1179 0000 2DE9F041 		push	{r4, r5, r6, r7, r8, lr}
 1180              	.LCFI10:
 1181              		.cfi_def_cfa_offset 24
 1182              		.cfi_offset 4, -24
 1183              		.cfi_offset 5, -20
 1184              		.cfi_offset 6, -16
 1185              		.cfi_offset 7, -12
 1186              		.cfi_offset 8, -8
 1187              		.cfi_offset 14, -4
 1188              	.LBB61:
 1189              	.LBB62:
 1190              		.loc 1 199 0
 1191 0004 0328     		cmp	r0, #3
ARM GAS  C:\Users\jenny\AppData\Local\Temp\ccLg5IEe.s 			page 22


 1192              	.LBE62:
 1193              	.LBE61:
 1194              		.loc 1 313 0
 1195 0006 8AB0     		sub	sp, sp, #40
 1196              	.LCFI11:
 1197              		.cfi_def_cfa_offset 64
 1198              		.loc 1 313 0
 1199 0008 0F46     		mov	r7, r1
 1200 000a 1446     		mov	r4, r2
 1201              	.LBB65:
 1202              	.LBB63:
 1203              		.loc 1 199 0
 1204 000c 1AD8     		bhi	.L214
 1205              		.loc 1 205 0
 1206 000e 00EB4000 		add	r0, r0, r0, lsl #1
 1207              	.LVL151:
 1208 0012 4D4E     		ldr	r6, .L228
 1209 0014 C100     		lsls	r1, r0, #3
 1210              	.LVL152:
 1211 0016 7518     		adds	r5, r6, r1
 1212              	.LVL153:
 1213              		.loc 1 207 0
 1214 0018 7058     		ldr	r0, [r6, r1]
 1215 001a 98B1     		cbz	r0, .L214
 1216              	.LBE63:
 1217              	.LBE65:
 1218              		.loc 1 329 0
 1219 001c 037F     		ldrb	r3, [r0, #28]	@ zero_extendqisi2
 1220 001e 03F00202 		and	r2, r3, #2
 1221              	.LVL154:
 1222 0022 D1B2     		uxtb	r1, r2
 1223 0024 19B1     		cbz	r1, .L199
 1224              		.loc 1 329 0 is_stmt 0 discriminator 1
 1225 0026 B5F90A30 		ldrsh	r3, [r5, #10]
 1226 002a 002B     		cmp	r3, #0
 1227 002c 69DD     		ble	.L222
 1228              	.L199:
 1229              		.loc 1 336 0 is_stmt 1
 1230 002e 04A9     		add	r1, sp, #16
 1231 0030 FFF7FEFF 		bl	netconn_accept
 1232              	.LVL155:
 1233              		.loc 1 337 0
 1234 0034 60B1     		cbz	r0, .L200
 1235              		.loc 1 339 0
 1236 0036 2B68     		ldr	r3, [r5, #0]
 1237 0038 1978     		ldrb	r1, [r3, #0]	@ zero_extendqisi2
 1238 003a 1029     		cmp	r1, #16
 1239 003c 77D0     		beq	.L201
 1240              		.loc 1 340 0
 1241 003e 5F24     		movs	r4, #95
 1242              	.LVL156:
 1243 0040 2C61     		str	r4, [r5, #16]
 1244 0042 01E0     		b	.L221
 1245              	.LVL157:
 1246              	.L214:
 1247              	.LBB66:
 1248              	.LBB64:
ARM GAS  C:\Users\jenny\AppData\Local\Temp\ccLg5IEe.s 			page 23


 1249              		.loc 1 326 0
 1250 0044 4FF0FF34 		mov	r4, #-1
 1251              	.LVL158:
 1252              	.L221:
 1253              	.LBE64:
 1254              	.LBE66:
 1255              		.loc 1 402 0
 1256 0048 2046     		mov	r0, r4
 1257 004a 0AB0     		add	sp, sp, #40
 1258 004c BDE8F081 		pop	{r4, r5, r6, r7, r8, pc}
 1259              	.LVL159:
 1260              	.L200:
 1261              		.loc 1 346 0
 1262 0050 0498     		ldr	r0, [sp, #16]
 1263              	.LVL160:
 1264 0052 0028     		cmp	r0, #0
 1265 0054 4ED0     		beq	.L223
 1266              	.L203:
 1267              		.loc 1 348 0 discriminator 1
 1268 0056 027F     		ldrb	r2, [r0, #28]	@ zero_extendqisi2
 1269 0058 42F00801 		orr	r1, r2, #8
 1270 005c 0177     		strb	r1, [r0, #28]
 1271              		.loc 1 351 0 discriminator 1
 1272 005e 0023     		movs	r3, #0
 1273 0060 05A9     		add	r1, sp, #20
 1274 0062 0DF10E02 		add	r2, sp, #14
 1275 0066 FFF7FEFF 		bl	netconn_getaddr
 1276              	.LVL161:
 1277              		.loc 1 352 0 discriminator 1
 1278 006a 0346     		mov	r3, r0
 1279 006c 0028     		cmp	r0, #0
 1280 006e 4DD1     		bne	.L224
 1281              		.loc 1 362 0
 1282 0070 FFB1     		cbz	r7, .L206
 1283              		.loc 1 363 0
 1284 0072 002C     		cmp	r4, #0
 1285 0074 42D0     		beq	.L225
 1286              	.LVL162:
 1287              	.L207:
 1288              		.loc 1 364 0
 1289 0076 0022     		movs	r2, #0
 1290              		.loc 1 365 0
 1291 0078 4FF01008 		mov	r8, #16
 1292              		.loc 1 366 0
 1293 007c 0221     		movs	r1, #2
 1294              	.LVL163:
 1295              		.loc 1 367 0
 1296 007e BDF80E00 		ldrh	r0, [sp, #14]
 1297              		.loc 1 364 0
 1298 0082 0692     		str	r2, [sp, #24]
 1299 0084 0792     		str	r2, [sp, #28]
 1300 0086 0892     		str	r2, [sp, #32]
 1301 0088 0992     		str	r2, [sp, #36]
 1302              		.loc 1 366 0
 1303 008a 8DF81910 		strb	r1, [sp, #25]
 1304              		.loc 1 365 0
 1305 008e 8DF81880 		strb	r8, [sp, #24]
ARM GAS  C:\Users\jenny\AppData\Local\Temp\ccLg5IEe.s 			page 24


 1306              		.loc 1 367 0
 1307 0092 FFF7FEFF 		bl	lwip_htons
 1308              	.LVL164:
 1309              		.loc 1 370 0
 1310 0096 2268     		ldr	r2, [r4, #0]
 1311              		.loc 1 367 0
 1312 0098 ADF81A00 		strh	r0, [sp, #26]	@ movhi
 1313              		.loc 1 368 0
 1314 009c 0598     		ldr	r0, [sp, #20]
 1315              		.loc 1 370 0
 1316 009e 4245     		cmp	r2, r8
 1317              		.loc 1 368 0
 1318 00a0 0790     		str	r0, [sp, #28]
 1319              		.loc 1 371 0
 1320 00a2 84BF     		itt	hi
 1321 00a4 C4F80080 		strhi	r8, [r4, #0]
 1322 00a8 4246     		movhi	r2, r8
 1323              		.loc 1 373 0
 1324 00aa 3846     		mov	r0, r7
 1325 00ac 06A9     		add	r1, sp, #24
 1326 00ae FFF7FEFF 		bl	memcpy
 1327              	.LVL165:
 1328              	.L206:
 1329              		.loc 1 376 0
 1330 00b2 0121     		movs	r1, #1
 1331 00b4 0498     		ldr	r0, [sp, #16]
 1332 00b6 FFF7FEFF 		bl	alloc_socket
 1333              	.LVL166:
 1334              		.loc 1 377 0
 1335 00ba 431C     		adds	r3, r0, #1
 1336              		.loc 1 376 0
 1337 00bc 0446     		mov	r4, r0
 1338              	.LVL167:
 1339              		.loc 1 377 0
 1340 00be 3DD0     		beq	.L226
 1341              		.loc 1 382 0
 1342 00c0 0328     		cmp	r0, #3
 1343 00c2 14D8     		bhi	.L227
 1344              	.LVL168:
 1345              	.L210:
 1346              		.loc 1 383 0
 1347 00c4 049B     		ldr	r3, [sp, #16]
 1348 00c6 2149     		ldr	r1, .L228+4
 1349 00c8 9A6A     		ldr	r2, [r3, #40]
 1350 00ca 8A42     		cmp	r2, r1
 1351 00cc 02D0     		beq	.L211
 1352              		.loc 1 383 0 is_stmt 0 discriminator 1
 1353 00ce FFF7FEFF 		bl	port_halt
 1354              	.LVL169:
 1355 00d2 049B     		ldr	r3, [sp, #16]
 1356              	.L211:
 1357              		.loc 1 384 0 is_stmt 1
 1358 00d4 04EB4400 		add	r0, r4, r4, lsl #1
 1359 00d8 06EBC006 		add	r6, r6, r0, lsl #3
 1360              	.LVL170:
 1361              		.loc 1 392 0
 1362 00dc 9A69     		ldr	r2, [r3, #24]
ARM GAS  C:\Users\jenny\AppData\Local\Temp\ccLg5IEe.s 			page 25


 1363 00de 7189     		ldrh	r1, [r6, #10]
 1364 00e0 D043     		mvns	r0, r2
 1365 00e2 4218     		adds	r2, r0, r1
 1366 00e4 7281     		strh	r2, [r6, #10]	@ movhi
 1367              		.loc 1 393 0
 1368 00e6 9C61     		str	r4, [r3, #24]
 1369              		.loc 1 400 0
 1370 00e8 0023     		movs	r3, #0
 1371 00ea 2B61     		str	r3, [r5, #16]
 1372 00ec ACE7     		b	.L221
 1373              	.LVL171:
 1374              	.L227:
 1375              		.loc 1 382 0 discriminator 1
 1376 00ee FFF7FEFF 		bl	port_halt
 1377              	.LVL172:
 1378 00f2 E7E7     		b	.L210
 1379              	.LVL173:
 1380              	.L223:
 1381              		.loc 1 346 0 discriminator 1
 1382 00f4 FFF7FEFF 		bl	port_halt
 1383              	.LVL174:
 1384 00f8 0498     		ldr	r0, [sp, #16]
 1385 00fa ACE7     		b	.L203
 1386              	.LVL175:
 1387              	.L225:
 1388              		.loc 1 363 0 discriminator 1
 1389 00fc FFF7FEFF 		bl	port_halt
 1390              	.LVL176:
 1391 0100 B9E7     		b	.L207
 1392              	.LVL177:
 1393              	.L222:
 1394              		.loc 1 331 0
 1395 0102 0B23     		movs	r3, #11
 1396 0104 2B61     		str	r3, [r5, #16]
 1397              		.loc 1 332 0
 1398 0106 4FF0FF34 		mov	r4, #-1
 1399              	.LVL178:
 1400 010a 9DE7     		b	.L221
 1401              	.LVL179:
 1402              	.L224:
 1403              		.loc 1 354 0
 1404 010c 0498     		ldr	r0, [sp, #16]
 1405              	.LVL180:
 1406 010e 0193     		str	r3, [sp, #4]
 1407 0110 FFF7FEFF 		bl	netconn_delete
 1408              	.LVL181:
 1409              		.loc 1 355 0
 1410 0114 019C     		ldr	r4, [sp, #4]
 1411              	.LVL182:
 1412 0116 6042     		negs	r0, r4
 1413 0118 0F28     		cmp	r0, #15
 1414 011a 06D8     		bhi	.L216
 1415              		.loc 1 355 0 is_stmt 0 discriminator 1
 1416 011c 0C4A     		ldr	r2, .L228+8
 1417 011e 52F82000 		ldr	r0, [r2, r0, lsl #2]
 1418              	.L205:
 1419              		.loc 1 355 0 discriminator 3
ARM GAS  C:\Users\jenny\AppData\Local\Temp\ccLg5IEe.s 			page 26


 1420 0122 2861     		str	r0, [r5, #16]
 1421              		.loc 1 356 0 is_stmt 1 discriminator 3
 1422 0124 4FF0FF34 		mov	r4, #-1
 1423 0128 8EE7     		b	.L221
 1424              	.L216:
 1425              		.loc 1 355 0
 1426 012a 0520     		movs	r0, #5
 1427 012c F9E7     		b	.L205
 1428              	.LVL183:
 1429              	.L201:
 1430              		.loc 1 343 0
 1431 012e 4442     		negs	r4, r0
 1432              	.LVL184:
 1433 0130 0F2C     		cmp	r4, #15
 1434 0132 FAD8     		bhi	.L216
 1435              		.loc 1 343 0 is_stmt 0 discriminator 1
 1436 0134 064A     		ldr	r2, .L228+8
 1437 0136 52F82400 		ldr	r0, [r2, r4, lsl #2]
 1438              	.LVL185:
 1439 013a F2E7     		b	.L205
 1440              	.LVL186:
 1441              	.L226:
 1442              		.loc 1 378 0 is_stmt 1
 1443 013c 0498     		ldr	r0, [sp, #16]
 1444              	.LVL187:
 1445 013e FFF7FEFF 		bl	netconn_delete
 1446              	.LVL188:
 1447              		.loc 1 379 0
 1448 0142 1721     		movs	r1, #23
 1449 0144 2961     		str	r1, [r5, #16]
 1450 0146 7FE7     		b	.L221
 1451              	.L229:
 1452              		.align	2
 1453              	.L228:
 1454 0148 00000000 		.word	.LANCHOR0
 1455 014c 00000000 		.word	event_callback
 1456 0150 00000000 		.word	.LANCHOR1
 1457              		.cfi_endproc
 1458              	.LFE12:
 1459              		.size	lwip_accept, .-lwip_accept
 1460 0154 AFF30080 		.section	.text.lwip_bind,"ax",%progbits
 1460      AFF30080 
 1460      AFF30080 
 1461              		.align	2
 1462              		.p2align 4,,15
 1463              		.global	lwip_bind
 1464              		.thumb
 1465              		.thumb_func
 1466              		.type	lwip_bind, %function
 1467              	lwip_bind:
 1468              	.LFB13:
 1469              		.loc 1 406 0
 1470              		.cfi_startproc
 1471              		@ args = 0, pretend = 0, frame = 8
 1472              		@ frame_needed = 0, uses_anonymous_args = 0
 1473              	.LVL189:
 1474 0000 70B5     		push	{r4, r5, r6, lr}
ARM GAS  C:\Users\jenny\AppData\Local\Temp\ccLg5IEe.s 			page 27


 1475              	.LCFI12:
 1476              		.cfi_def_cfa_offset 16
 1477              		.cfi_offset 4, -16
 1478              		.cfi_offset 5, -12
 1479              		.cfi_offset 6, -8
 1480              		.cfi_offset 14, -4
 1481              	.LBB67:
 1482              	.LBB68:
 1483              		.loc 1 199 0
 1484 0002 0328     		cmp	r0, #3
 1485              	.LBE68:
 1486              	.LBE67:
 1487              		.loc 1 406 0
 1488 0004 82B0     		sub	sp, sp, #8
 1489              	.LCFI13:
 1490              		.cfi_def_cfa_offset 24
 1491              	.LBB71:
 1492              	.LBB69:
 1493              		.loc 1 199 0
 1494 0006 1CD8     		bhi	.L239
 1495              		.loc 1 205 0
 1496 0008 00EB4000 		add	r0, r0, r0, lsl #1
 1497              	.LVL190:
 1498 000c 184B     		ldr	r3, .L245
 1499 000e C500     		lsls	r5, r0, #3
 1500 0010 5E19     		adds	r6, r3, r5
 1501              	.LVL191:
 1502              		.loc 1 207 0
 1503 0012 5D59     		ldr	r5, [r3, r5]
 1504 0014 ADB1     		cbz	r5, .L239
 1505              	.LBE69:
 1506              	.LBE71:
 1507              		.loc 1 419 0
 1508 0016 102A     		cmp	r2, #16
 1509 0018 17D1     		bne	.L233
 1510              		.loc 1 419 0 is_stmt 0 discriminator 2
 1511 001a 4A78     		ldrb	r2, [r1, #1]	@ zero_extendqisi2
 1512              	.LVL192:
 1513 001c 022A     		cmp	r2, #2
 1514 001e 14D1     		bne	.L233
 1515              		.loc 1 419 0 discriminator 3
 1516 0020 8A07     		lsls	r2, r1, #30
 1517 0022 12D1     		bne	.L233
 1518              	.LVL193:
 1519              		.loc 1 424 0 is_stmt 1
 1520 0024 4B68     		ldr	r3, [r1, #4]
 1521              		.loc 1 431 0
 1522 0026 4888     		ldrh	r0, [r1, #2]
 1523              		.loc 1 424 0
 1524 0028 02AC     		add	r4, sp, #8
 1525 002a 44F8043D 		str	r3, [r4, #-4]!
 1526              	.LVL194:
 1527              		.loc 1 431 0
 1528 002e FFF7FEFF 		bl	lwip_ntohs
 1529              	.LVL195:
 1530 0032 2146     		mov	r1, r4
 1531 0034 0246     		mov	r2, r0
ARM GAS  C:\Users\jenny\AppData\Local\Temp\ccLg5IEe.s 			page 28


 1532 0036 2846     		mov	r0, r5
 1533 0038 FFF7FEFF 		bl	netconn_bind
 1534              	.LVL196:
 1535              		.loc 1 433 0
 1536 003c 60B9     		cbnz	r0, .L244
 1537              		.loc 1 440 0
 1538 003e 3061     		str	r0, [r6, #16]
 1539 0040 01E0     		b	.L242
 1540              	.LVL197:
 1541              	.L239:
 1542              	.LBB72:
 1543              	.LBB70:
 1544              		.loc 1 415 0
 1545 0042 4FF0FF30 		mov	r0, #-1
 1546              	.LVL198:
 1547              	.L242:
 1548              	.LBE70:
 1549              	.LBE72:
 1550              		.loc 1 442 0
 1551 0046 02B0     		add	sp, sp, #8
 1552 0048 70BD     		pop	{r4, r5, r6, pc}
 1553              	.LVL199:
 1554              	.L233:
 1555              		.loc 1 419 0 discriminator 1
 1556 004a FFF7FEFF 		bl	port_halt
 1557              	.LVL200:
 1558 004e 0520     		movs	r0, #5
 1559 0050 3061     		str	r0, [r6, #16]
 1560 0052 4FF0FF30 		mov	r0, #-1
 1561 0056 F6E7     		b	.L242
 1562              	.LVL201:
 1563              	.L244:
 1564              		.loc 1 435 0
 1565 0058 4142     		negs	r1, r0
 1566 005a 0F29     		cmp	r1, #15
 1567 005c 9ABF     		itte	ls
 1568 005e 054B     		ldrls	r3, .L245+4
 1569 0060 53F82130 		ldrls	r3, [r3, r1, lsl #2]
 1570 0064 0523     		movhi	r3, #5
 1571 0066 3361     		str	r3, [r6, #16]
 1572              		.loc 1 436 0
 1573 0068 4FF0FF30 		mov	r0, #-1
 1574              	.LVL202:
 1575 006c EBE7     		b	.L242
 1576              	.L246:
 1577 006e 00BF     		.align	2
 1578              	.L245:
 1579 0070 00000000 		.word	.LANCHOR0
 1580 0074 00000000 		.word	.LANCHOR1
 1581              		.cfi_endproc
 1582              	.LFE13:
 1583              		.size	lwip_bind, .-lwip_bind
 1584 0078 AFF30080 		.section	.text.lwip_close,"ax",%progbits
 1584      AFF30080 
 1585              		.align	2
 1586              		.p2align 4,,15
 1587              		.global	lwip_close
ARM GAS  C:\Users\jenny\AppData\Local\Temp\ccLg5IEe.s 			page 29


 1588              		.thumb
 1589              		.thumb_func
 1590              		.type	lwip_close, %function
 1591              	lwip_close:
 1592              	.LFB14:
 1593              		.loc 1 446 0
 1594              		.cfi_startproc
 1595              		@ args = 0, pretend = 0, frame = 0
 1596              		@ frame_needed = 0, uses_anonymous_args = 0
 1597              	.LVL203:
 1598              	.LBB77:
 1599              	.LBB78:
 1600              		.loc 1 199 0
 1601 0000 0328     		cmp	r0, #3
 1602              	.LBE78:
 1603              	.LBE77:
 1604              		.loc 1 446 0
 1605 0002 2DE9F041 		push	{r4, r5, r6, r7, r8, lr}
 1606              	.LCFI14:
 1607              		.cfi_def_cfa_offset 24
 1608              		.cfi_offset 4, -24
 1609              		.cfi_offset 5, -20
 1610              		.cfi_offset 6, -16
 1611              		.cfi_offset 7, -12
 1612              		.cfi_offset 8, -8
 1613              		.cfi_offset 14, -4
 1614              	.LBB81:
 1615              	.LBB79:
 1616              		.loc 1 199 0
 1617 0006 1AD8     		bhi	.L253
 1618              		.loc 1 205 0
 1619 0008 00EB4000 		add	r0, r0, r0, lsl #1
 1620              	.LVL204:
 1621 000c 114F     		ldr	r7, .L258
 1622 000e C600     		lsls	r6, r0, #3
 1623 0010 BD19     		adds	r5, r7, r6
 1624              	.LVL205:
 1625              		.loc 1 207 0
 1626 0012 BB59     		ldr	r3, [r7, r6]
 1627 0014 9BB1     		cbz	r3, .L253
 1628              	.LBE79:
 1629              	.LBE81:
 1630              		.loc 1 463 0
 1631 0016 1846     		mov	r0, r3
 1632              		.loc 1 458 0
 1633 0018 93F80080 		ldrb	r8, [r3, #0]	@ zero_extendqisi2
 1634              	.LVL206:
 1635              		.loc 1 463 0
 1636 001c FFF7FEFF 		bl	netconn_delete
 1637              	.LVL207:
 1638              	.LBB82:
 1639              	.LBB83:
 1640              		.loc 1 285 0
 1641 0020 6868     		ldr	r0, [r5, #4]
 1642              	.LVL208:
 1643              		.loc 1 286 0
 1644 0022 0024     		movs	r4, #0
ARM GAS  C:\Users\jenny\AppData\Local\Temp\ccLg5IEe.s 			page 30


 1645 0024 6C60     		str	r4, [r5, #4]
 1646              		.loc 1 287 0
 1647 0026 2C81     		strh	r4, [r5, #8]	@ movhi
 1648              		.loc 1 288 0
 1649 0028 2C61     		str	r4, [r5, #16]
 1650              		.loc 1 292 0
 1651 002a BC51     		str	r4, [r7, r6]
 1652              		.loc 1 296 0
 1653 002c 58B1     		cbz	r0, .L256
 1654              		.loc 1 297 0
 1655 002e B8F1100F 		cmp	r8, #16
 1656 0032 0AD0     		beq	.L257
 1657              		.loc 1 300 0
 1658 0034 FFF7FEFF 		bl	netbuf_delete
 1659              	.LVL209:
 1660              		.loc 1 467 0
 1661 0038 2046     		mov	r0, r4
 1662 003a BDE8F081 		pop	{r4, r5, r6, r7, r8, pc}
 1663              	.LVL210:
 1664              	.L253:
 1665              	.LBE83:
 1666              	.LBE82:
 1667              	.LBB85:
 1668              	.LBB80:
 1669              		.loc 1 454 0
 1670 003e 4FF0FF30 		mov	r0, #-1
 1671 0042 BDE8F081 		pop	{r4, r5, r6, r7, r8, pc}
 1672              	.LVL211:
 1673              	.L256:
 1674              	.LBE80:
 1675              	.LBE85:
 1676              		.loc 1 468 0
 1677 0046 BDE8F081 		pop	{r4, r5, r6, r7, r8, pc}
 1678              	.L257:
 1679              	.LBB86:
 1680              	.LBB84:
 1681              		.loc 1 298 0
 1682 004a FFF7FEFF 		bl	pbuf_free
 1683              	.LVL212:
 1684              		.loc 1 467 0
 1685 004e 2046     		mov	r0, r4
 1686 0050 BDE8F081 		pop	{r4, r5, r6, r7, r8, pc}
 1687              	.L259:
 1688              		.align	2
 1689              	.L258:
 1690 0054 00000000 		.word	.LANCHOR0
 1691              	.LBE84:
 1692              	.LBE86:
 1693              		.cfi_endproc
 1694              	.LFE14:
 1695              		.size	lwip_close, .-lwip_close
 1696 0058 AFF30080 		.section	.text.lwip_connect,"ax",%progbits
 1696      AFF30080 
 1697              		.align	2
 1698              		.p2align 4,,15
 1699              		.global	lwip_connect
 1700              		.thumb
ARM GAS  C:\Users\jenny\AppData\Local\Temp\ccLg5IEe.s 			page 31


 1701              		.thumb_func
 1702              		.type	lwip_connect, %function
 1703              	lwip_connect:
 1704              	.LFB15:
 1705              		.loc 1 472 0
 1706              		.cfi_startproc
 1707              		@ args = 0, pretend = 0, frame = 8
 1708              		@ frame_needed = 0, uses_anonymous_args = 0
 1709              	.LVL213:
 1710 0000 70B5     		push	{r4, r5, r6, lr}
 1711              	.LCFI15:
 1712              		.cfi_def_cfa_offset 16
 1713              		.cfi_offset 4, -16
 1714              		.cfi_offset 5, -12
 1715              		.cfi_offset 6, -8
 1716              		.cfi_offset 14, -4
 1717              	.LBB87:
 1718              	.LBB88:
 1719              		.loc 1 199 0
 1720 0002 0328     		cmp	r0, #3
 1721              	.LBE88:
 1722              	.LBE87:
 1723              		.loc 1 472 0
 1724 0004 82B0     		sub	sp, sp, #8
 1725              	.LCFI16:
 1726              		.cfi_def_cfa_offset 24
 1727              	.LBB91:
 1728              	.LBB89:
 1729              		.loc 1 199 0
 1730 0006 1CD8     		bhi	.L269
 1731              		.loc 1 205 0
 1732 0008 00EB4000 		add	r0, r0, r0, lsl #1
 1733              	.LVL214:
 1734 000c 184B     		ldr	r3, .L275
 1735 000e C600     		lsls	r6, r0, #3
 1736 0010 9D19     		adds	r5, r3, r6
 1737              	.LVL215:
 1738              		.loc 1 207 0
 1739 0012 9E59     		ldr	r6, [r3, r6]
 1740 0014 AEB1     		cbz	r6, .L269
 1741              	.LBE89:
 1742              	.LBE91:
 1743              		.loc 1 483 0
 1744 0016 102A     		cmp	r2, #16
 1745 0018 17D1     		bne	.L263
 1746              		.loc 1 483 0 is_stmt 0 discriminator 2
 1747 001a 4A78     		ldrb	r2, [r1, #1]	@ zero_extendqisi2
 1748              	.LVL216:
 1749 001c 022A     		cmp	r2, #2
 1750 001e 14D1     		bne	.L263
 1751              		.loc 1 483 0 discriminator 3
 1752 0020 8807     		lsls	r0, r1, #30
 1753 0022 12D1     		bne	.L263
 1754              	.LVL217:
 1755              	.LBB92:
 1756              		.loc 1 495 0 is_stmt 1
 1757 0024 4B68     		ldr	r3, [r1, #4]
ARM GAS  C:\Users\jenny\AppData\Local\Temp\ccLg5IEe.s 			page 32


 1758              		.loc 1 502 0
 1759 0026 4888     		ldrh	r0, [r1, #2]
 1760              		.loc 1 495 0
 1761 0028 02AC     		add	r4, sp, #8
 1762 002a 44F8043D 		str	r3, [r4, #-4]!
 1763              	.LVL218:
 1764              		.loc 1 502 0
 1765 002e FFF7FEFF 		bl	lwip_ntohs
 1766              	.LVL219:
 1767 0032 2146     		mov	r1, r4
 1768 0034 0246     		mov	r2, r0
 1769 0036 3046     		mov	r0, r6
 1770 0038 FFF7FEFF 		bl	netconn_connect
 1771              	.LVL220:
 1772              	.LBE92:
 1773              		.loc 1 505 0
 1774 003c 60B9     		cbnz	r0, .L274
 1775              		.loc 1 512 0
 1776 003e 2861     		str	r0, [r5, #16]
 1777              		.loc 1 513 0
 1778 0040 01E0     		b	.L272
 1779              	.LVL221:
 1780              	.L269:
 1781              	.LBB93:
 1782              	.LBB90:
 1783              		.loc 1 479 0
 1784 0042 4FF0FF30 		mov	r0, #-1
 1785              	.LVL222:
 1786              	.L272:
 1787              	.LBE90:
 1788              	.LBE93:
 1789              		.loc 1 514 0
 1790 0046 02B0     		add	sp, sp, #8
 1791 0048 70BD     		pop	{r4, r5, r6, pc}
 1792              	.LVL223:
 1793              	.L263:
 1794              		.loc 1 483 0 discriminator 1
 1795 004a FFF7FEFF 		bl	port_halt
 1796              	.LVL224:
 1797 004e 0520     		movs	r0, #5
 1798 0050 2861     		str	r0, [r5, #16]
 1799 0052 4FF0FF30 		mov	r0, #-1
 1800 0056 F6E7     		b	.L272
 1801              	.LVL225:
 1802              	.L274:
 1803              		.loc 1 507 0
 1804 0058 4142     		negs	r1, r0
 1805 005a 0F29     		cmp	r1, #15
 1806 005c 9ABF     		itte	ls
 1807 005e 054B     		ldrls	r3, .L275+4
 1808 0060 53F82130 		ldrls	r3, [r3, r1, lsl #2]
 1809 0064 0523     		movhi	r3, #5
 1810 0066 2B61     		str	r3, [r5, #16]
 1811              		.loc 1 508 0
 1812 0068 4FF0FF30 		mov	r0, #-1
 1813              	.LVL226:
 1814 006c EBE7     		b	.L272
ARM GAS  C:\Users\jenny\AppData\Local\Temp\ccLg5IEe.s 			page 33


 1815              	.L276:
 1816 006e 00BF     		.align	2
 1817              	.L275:
 1818 0070 00000000 		.word	.LANCHOR0
 1819 0074 00000000 		.word	.LANCHOR1
 1820              		.cfi_endproc
 1821              	.LFE15:
 1822              		.size	lwip_connect, .-lwip_connect
 1823 0078 AFF30080 		.section	.text.lwip_listen,"ax",%progbits
 1823      AFF30080 
 1824              		.align	2
 1825              		.p2align 4,,15
 1826              		.global	lwip_listen
 1827              		.thumb
 1828              		.thumb_func
 1829              		.type	lwip_listen, %function
 1830              	lwip_listen:
 1831              	.LFB16:
 1832              		.loc 1 526 0
 1833              		.cfi_startproc
 1834              		@ args = 0, pretend = 0, frame = 0
 1835              		@ frame_needed = 0, uses_anonymous_args = 0
 1836              	.LVL227:
 1837              	.LBB94:
 1838              	.LBB95:
 1839              		.loc 1 199 0
 1840 0000 0328     		cmp	r0, #3
 1841              	.LBE95:
 1842              	.LBE94:
 1843              		.loc 1 526 0
 1844 0002 10B5     		push	{r4, lr}
 1845              	.LCFI17:
 1846              		.cfi_def_cfa_offset 8
 1847              		.cfi_offset 4, -8
 1848              		.cfi_offset 14, -4
 1849              	.LBB98:
 1850              	.LBB96:
 1851              		.loc 1 199 0
 1852 0004 13D8     		bhi	.L286
 1853              		.loc 1 205 0
 1854 0006 00EB4000 		add	r0, r0, r0, lsl #1
 1855              	.LVL228:
 1856 000a 144B     		ldr	r3, .L291
 1857 000c C200     		lsls	r2, r0, #3
 1858 000e 9C18     		adds	r4, r3, r2
 1859              	.LVL229:
 1860              		.loc 1 207 0
 1861 0010 9858     		ldr	r0, [r3, r2]
 1862 0012 60B1     		cbz	r0, .L286
 1863              	.LBE96:
 1864              	.LBE98:
 1865              		.loc 1 538 0
 1866 0014 FE29     		cmp	r1, #254
 1867 0016 0DDD     		ble	.L283
 1868              	.LVL230:
 1869 0018 FF21     		movs	r1, #255
 1870              		.loc 1 540 0
ARM GAS  C:\Users\jenny\AppData\Local\Temp\ccLg5IEe.s 			page 34


 1871 001a FFF7FEFF 		bl	netconn_listen_with_backlog
 1872              	.LVL231:
 1873              		.loc 1 542 0
 1874 001e 80B1     		cbz	r0, .L280
 1875              	.L290:
 1876              		.loc 1 544 0
 1877 0020 2368     		ldr	r3, [r4, #0]
 1878 0022 1A78     		ldrb	r2, [r3, #0]	@ zero_extendqisi2
 1879 0024 102A     		cmp	r2, #16
 1880 0026 0ED0     		beq	.L281
 1881              		.loc 1 545 0
 1882 0028 5F20     		movs	r0, #95
 1883              	.LVL232:
 1884 002a 2061     		str	r0, [r4, #16]
 1885              		.loc 1 546 0
 1886 002c 10BD     		pop	{r4, pc}
 1887              	.LVL233:
 1888              	.L286:
 1889              	.LBB99:
 1890              	.LBB97:
 1891              		.loc 1 534 0
 1892 002e 4FF0FF30 		mov	r0, #-1
 1893 0032 10BD     		pop	{r4, pc}
 1894              	.LVL234:
 1895              	.L283:
 1896              	.LBE97:
 1897              	.LBE99:
 1898              		.loc 1 538 0 discriminator 1
 1899 0034 21EAE171 		bic	r1, r1, r1, asr #31
 1900              	.LVL235:
 1901 0038 C9B2     		uxtb	r1, r1
 1902              	.LVL236:
 1903              		.loc 1 540 0 discriminator 1
 1904 003a FFF7FEFF 		bl	netconn_listen_with_backlog
 1905              	.LVL237:
 1906              		.loc 1 542 0 discriminator 1
 1907 003e 0028     		cmp	r0, #0
 1908 0040 EED1     		bne	.L290
 1909              	.L280:
 1910              		.loc 1 552 0
 1911 0042 2061     		str	r0, [r4, #16]
 1912              		.loc 1 553 0
 1913 0044 10BD     		pop	{r4, pc}
 1914              	.L281:
 1915              		.loc 1 548 0
 1916 0046 4042     		negs	r0, r0
 1917              	.LVL238:
 1918 0048 0F28     		cmp	r0, #15
 1919 004a 9ABF     		itte	ls
 1920 004c 044A     		ldrls	r2, .L291+4
 1921 004e 52F82020 		ldrls	r2, [r2, r0, lsl #2]
 1922 0052 0522     		movhi	r2, #5
 1923 0054 2261     		str	r2, [r4, #16]
 1924              		.loc 1 549 0
 1925 0056 4FF0FF30 		mov	r0, #-1
 1926 005a 10BD     		pop	{r4, pc}
 1927              	.L292:
ARM GAS  C:\Users\jenny\AppData\Local\Temp\ccLg5IEe.s 			page 35


 1928              		.align	2
 1929              	.L291:
 1930 005c 00000000 		.word	.LANCHOR0
 1931 0060 00000000 		.word	.LANCHOR1
 1932              		.cfi_endproc
 1933              	.LFE16:
 1934              		.size	lwip_listen, .-lwip_listen
 1935 0064 AFF30080 		.section	.text.lwip_recvfrom,"ax",%progbits
 1935      AFF30080 
 1935      AFF30080 
 1936              		.align	2
 1937              		.p2align 4,,15
 1938              		.global	lwip_recvfrom
 1939              		.thumb
 1940              		.thumb_func
 1941              		.type	lwip_recvfrom, %function
 1942              	lwip_recvfrom:
 1943              	.LFB17:
 1944              		.loc 1 559 0
 1945              		.cfi_startproc
 1946              		@ args = 8, pretend = 0, frame = 48
 1947              		@ frame_needed = 0, uses_anonymous_args = 0
 1948              	.LVL239:
 1949 0000 2DE9F04F 		push	{r4, r5, r6, r7, r8, r9, sl, fp, lr}
 1950              	.LCFI18:
 1951              		.cfi_def_cfa_offset 36
 1952              		.cfi_offset 4, -36
 1953              		.cfi_offset 5, -32
 1954              		.cfi_offset 6, -28
 1955              		.cfi_offset 7, -24
 1956              		.cfi_offset 8, -20
 1957              		.cfi_offset 9, -16
 1958              		.cfi_offset 10, -12
 1959              		.cfi_offset 11, -8
 1960              		.cfi_offset 14, -4
 1961 0004 8DB0     		sub	sp, sp, #52
 1962              	.LCFI19:
 1963              		.cfi_def_cfa_offset 88
 1964              		.loc 1 561 0
 1965 0006 0025     		movs	r5, #0
 1966              	.LBB100:
 1967              	.LBB101:
 1968              		.loc 1 199 0
 1969 0008 0328     		cmp	r0, #3
 1970              	.LBE101:
 1971              	.LBE100:
 1972              		.loc 1 561 0
 1973 000a 0695     		str	r5, [sp, #24]
 1974              	.LVL240:
 1975              		.loc 1 559 0
 1976 000c 0191     		str	r1, [sp, #4]
 1977 000e 1646     		mov	r6, r2
 1978 0010 9B46     		mov	fp, r3
 1979              	.LBB104:
 1980              	.LBB102:
 1981              		.loc 1 199 0
 1982 0012 70D8     		bhi	.L328
ARM GAS  C:\Users\jenny\AppData\Local\Temp\ccLg5IEe.s 			page 36


 1983              		.loc 1 205 0
 1984 0014 00EB4000 		add	r0, r0, r0, lsl #1
 1985              	.LVL241:
 1986 0018 854B     		ldr	r3, .L363
 1987              	.LVL242:
 1988 001a C100     		lsls	r1, r0, #3
 1989              	.LVL243:
 1990 001c 5C18     		adds	r4, r3, r1
 1991              	.LVL244:
 1992              		.loc 1 207 0
 1993 001e 5A58     		ldr	r2, [r3, r1]
 1994              	.LVL245:
 1995 0020 002A     		cmp	r2, #0
 1996 0022 68D0     		beq	.L328
 1997              	.LVL246:
 1998              	.LBE102:
 1999              	.LBE104:
 2000              		.loc 1 579 0
 2001 0024 D4F80490 		ldr	r9, [r4, #4]
 2002              	.LBB105:
 2003              	.LBB106:
 2004              		.loc 1 680 0
 2005 0028 CDF808B0 		str	fp, [sp, #8]
 2006              	.LBE106:
 2007              	.LBE105:
 2008              		.loc 1 583 0
 2009 002c 0BF00800 		and	r0, fp, #8
 2010 0030 0390     		str	r0, [sp, #12]
 2011              	.LBB110:
 2012              	.LBB107:
 2013              		.loc 1 679 0
 2014 0032 A846     		mov	r8, r5
 2015              		.loc 1 680 0
 2016 0034 DDF858A0 		ldr	sl, [sp, #88]
 2017              	.LBE107:
 2018              	.LBE110:
 2019              		.loc 1 579 0
 2020 0038 B9F1000F 		cmp	r9, #0
 2021 003c 76D0     		beq	.L295
 2022              	.LVL247:
 2023              	.L357:
 2024              		.loc 1 580 0
 2025 003e CDF81890 		str	r9, [sp, #24]
 2026              	.L296:
 2027              		.loc 1 629 0
 2028 0042 2768     		ldr	r7, [r4, #0]
 2029              		.loc 1 638 0
 2030 0044 2389     		ldrh	r3, [r4, #8]
 2031              		.loc 1 629 0
 2032 0046 3A78     		ldrb	r2, [r7, #0]	@ zero_extendqisi2
 2033 0048 102A     		cmp	r2, #16
 2034              		.loc 1 632 0
 2035 004a 18BF     		it	ne
 2036 004c D9F80090 		ldrne	r9, [r9, #0]
 2037              	.LVL248:
 2038              		.loc 1 648 0
 2039 0050 019A     		ldr	r2, [sp, #4]
ARM GAS  C:\Users\jenny\AppData\Local\Temp\ccLg5IEe.s 			page 37


 2040              		.loc 1 634 0
 2041 0052 B9F80810 		ldrh	r1, [r9, #8]
 2042              	.LVL249:
 2043              		.loc 1 638 0
 2044 0056 C81A     		subs	r0, r1, r3
 2045 0058 87B2     		uxth	r7, r0
 2046              	.LVL250:
 2047              		.loc 1 640 0
 2048 005a BE42     		cmp	r6, r7
 2049              		.loc 1 643 0
 2050 005c 94BF     		ite	ls
 2051 005e 1FFA86FB 		uxthls	fp, r6
 2052              	.LVL251:
 2053              		.loc 1 641 0
 2054 0062 BB46     		movhi	fp, r7
 2055              	.LVL252:
 2056              		.loc 1 648 0
 2057 0064 5119     		adds	r1, r2, r5
 2058 0066 4846     		mov	r0, r9
 2059              	.LVL253:
 2060 0068 5A46     		mov	r2, fp
 2061 006a FFF7FEFF 		bl	pbuf_copy_partial
 2062              	.LVL254:
 2063              		.loc 1 652 0
 2064 006e 2368     		ldr	r3, [r4, #0]
 2065 0070 1978     		ldrb	r1, [r3, #0]	@ zero_extendqisi2
 2066 0072 1029     		cmp	r1, #16
 2067              		.loc 1 650 0
 2068 0074 5D44     		add	r5, r5, fp
 2069              	.LVL255:
 2070              		.loc 1 652 0
 2071 0076 76D0     		beq	.L353
 2072              	.L309:
 2073 0078 029A     		ldr	r2, [sp, #8]
 2074 007a 02F00109 		and	r9, r2, #1
 2075              	.LVL256:
 2076              	.L312:
 2077              	.LBB111:
 2078              		.loc 1 668 0
 2079 007e BAF1000F 		cmp	sl, #0
 2080 0082 2DD0     		beq	.L316
 2081              		.loc 1 668 0 is_stmt 0 discriminator 1
 2082 0084 179B     		ldr	r3, [sp, #92]
 2083 0086 5BB3     		cbz	r3, .L316
 2084              	.LBB108:
 2085              		.loc 1 671 0 is_stmt 1
 2086 0088 2068     		ldr	r0, [r4, #0]
 2087 008a 0178     		ldrb	r1, [r0, #0]	@ zero_extendqisi2
 2088 008c 1029     		cmp	r1, #16
 2089 008e 00F09480 		beq	.L354
 2090              		.loc 1 675 0
 2091 0092 069B     		ldr	r3, [sp, #24]
 2092              		.loc 1 676 0
 2093 0094 9889     		ldrh	r0, [r3, #12]
 2094              		.loc 1 675 0
 2095 0096 0833     		adds	r3, r3, #8
 2096              	.LVL257:
ARM GAS  C:\Users\jenny\AppData\Local\Temp\ccLg5IEe.s 			page 38


 2097              		.loc 1 676 0
 2098 0098 ADF81600 		strh	r0, [sp, #22]	@ movhi
 2099              	.L318:
 2100              		.loc 1 680 0
 2101 009c 1022     		movs	r2, #16
 2102              		.loc 1 681 0
 2103 009e 0221     		movs	r1, #2
 2104              		.loc 1 682 0
 2105 00a0 BDF81600 		ldrh	r0, [sp, #22]
 2106              		.loc 1 679 0
 2107 00a4 CDF82080 		str	r8, [sp, #32]
 2108              		.loc 1 682 0
 2109 00a8 0093     		str	r3, [sp, #0]
 2110              		.loc 1 680 0
 2111 00aa 8DF82020 		strb	r2, [sp, #32]
 2112              		.loc 1 681 0
 2113 00ae 8DF82110 		strb	r1, [sp, #33]
 2114              		.loc 1 679 0
 2115 00b2 CDF82480 		str	r8, [sp, #36]
 2116 00b6 CDF82880 		str	r8, [sp, #40]
 2117 00ba CDF82C80 		str	r8, [sp, #44]
 2118              		.loc 1 682 0
 2119 00be FFF7FEFF 		bl	lwip_htons
 2120              	.LVL258:
 2121              		.loc 1 685 0
 2122 00c2 1799     		ldr	r1, [sp, #92]
 2123              		.loc 1 683 0
 2124 00c4 009B     		ldr	r3, [sp, #0]
 2125              		.loc 1 685 0
 2126 00c6 0A68     		ldr	r2, [r1, #0]
 2127              		.loc 1 683 0
 2128 00c8 1B68     		ldr	r3, [r3, #0]
 2129              		.loc 1 682 0
 2130 00ca ADF82200 		strh	r0, [sp, #34]	@ movhi
 2131              		.loc 1 685 0
 2132 00ce 102A     		cmp	r2, #16
 2133              		.loc 1 683 0
 2134 00d0 0993     		str	r3, [sp, #36]
 2135              		.loc 1 685 0
 2136 00d2 01D9     		bls	.L319
 2137              		.loc 1 686 0
 2138 00d4 1022     		movs	r2, #16
 2139 00d6 0A60     		str	r2, [r1, #0]
 2140              	.L319:
 2141              		.loc 1 689 0
 2142 00d8 5046     		mov	r0, sl
 2143 00da 08A9     		add	r1, sp, #32
 2144 00dc FFF7FEFF 		bl	memcpy
 2145              	.LVL259:
 2146              	.L316:
 2147              	.LBE108:
 2148              	.LBE111:
 2149              		.loc 1 712 0
 2150 00e0 B9F1000F 		cmp	r9, #0
 2151 00e4 0DD0     		beq	.L355
 2152              	.LVL260:
 2153              	.L320:
ARM GAS  C:\Users\jenny\AppData\Local\Temp\ccLg5IEe.s 			page 39


 2154              		.loc 1 733 0
 2155 00e6 1DB1     		cbz	r5, .L324
 2156              	.LVL261:
 2157              	.L351:
 2158              		.loc 1 735 0
 2159 00e8 2068     		ldr	r0, [r4, #0]
 2160 00ea 2946     		mov	r1, r5
 2161 00ec FFF7FEFF 		bl	netconn_recved
 2162              	.LVL262:
 2163              	.L324:
 2164              		.loc 1 737 0
 2165 00f0 0020     		movs	r0, #0
 2166 00f2 2061     		str	r0, [r4, #16]
 2167 00f4 01E0     		b	.L350
 2168              	.LVL263:
 2169              	.L328:
 2170              	.LBB112:
 2171              	.LBB103:
 2172              		.loc 1 573 0
 2173 00f6 4FF0FF35 		mov	r5, #-1
 2174              	.LVL264:
 2175              	.L350:
 2176              	.LBE103:
 2177              	.LBE112:
 2178              		.loc 1 739 0
 2179 00fa 2846     		mov	r0, r5
 2180 00fc 0DB0     		add	sp, sp, #52
 2181 00fe BDE8F08F 		pop	{r4, r5, r6, r7, r8, r9, sl, fp, pc}
 2182              	.LVL265:
 2183              	.L355:
 2184              		.loc 1 712 0
 2185 0102 4FF00109 		mov	r9, #1
 2186              	.LVL266:
 2187              	.L315:
 2188              		.loc 1 716 0
 2189 0106 2068     		ldr	r0, [r4, #0]
 2190 0108 0278     		ldrb	r2, [r0, #0]	@ zero_extendqisi2
 2191 010a 102A     		cmp	r2, #16
 2192 010c 38D0     		beq	.L356
 2193              		.loc 1 727 0
 2194 010e 0698     		ldr	r0, [sp, #24]
 2195              		.loc 1 721 0
 2196 0110 C4F80480 		str	r8, [r4, #4]
 2197              		.loc 1 722 0
 2198 0114 A4F80880 		strh	r8, [r4, #8]	@ movhi
 2199              		.loc 1 727 0
 2200 0118 FFF7FEFF 		bl	netbuf_delete
 2201              	.LVL267:
 2202              		.loc 1 731 0
 2203 011c B9F1000F 		cmp	r9, #0
 2204 0120 E1D1     		bne	.L320
 2205              	.LVL268:
 2206              	.L352:
 2207              		.loc 1 579 0
 2208 0122 D4F80490 		ldr	r9, [r4, #4]
 2209 0126 B9F1000F 		cmp	r9, #0
 2210 012a 88D1     		bne	.L357
ARM GAS  C:\Users\jenny\AppData\Local\Temp\ccLg5IEe.s 			page 40


 2211              	.LVL269:
 2212              	.L295:
 2213              		.loc 1 583 0
 2214 012c 039B     		ldr	r3, [sp, #12]
 2215 012e 2BB9     		cbnz	r3, .L297
 2216              		.loc 1 583 0 is_stmt 0 discriminator 2
 2217 0130 2068     		ldr	r0, [r4, #0]
 2218 0132 017F     		ldrb	r1, [r0, #28]	@ zero_extendqisi2
 2219 0134 01F00202 		and	r2, r1, #2
 2220 0138 D3B2     		uxtb	r3, r2
 2221 013a 23B1     		cbz	r3, .L298
 2222              	.L297:
 2223              		.loc 1 583 0 discriminator 1
 2224 013c B4F90A00 		ldrsh	r0, [r4, #10]
 2225 0140 0028     		cmp	r0, #0
 2226 0142 6CDD     		ble	.L299
 2227 0144 2068     		ldr	r0, [r4, #0]
 2228              	.L298:
 2229              		.loc 1 599 0 is_stmt 1
 2230 0146 0278     		ldrb	r2, [r0, #0]	@ zero_extendqisi2
 2231 0148 102A     		cmp	r2, #16
 2232              		.loc 1 600 0
 2233 014a 06A9     		add	r1, sp, #24
 2234              		.loc 1 599 0
 2235 014c 3DD0     		beq	.L358
 2236              		.loc 1 602 0
 2237 014e FFF7FEFF 		bl	netconn_recv
 2238              	.LVL270:
 2239              	.L302:
 2240              		.loc 1 607 0
 2241 0152 0028     		cmp	r0, #0
 2242 0154 50D1     		bne	.L359
 2243              		.loc 1 625 0
 2244 0156 DDF81890 		ldr	r9, [sp, #24]
 2245 015a B9F1000F 		cmp	r9, #0
 2246 015e 46D0     		beq	.L360
 2247              	.LVL271:
 2248              	.L306:
 2249              		.loc 1 626 0
 2250 0160 C4F80490 		str	r9, [r4, #4]
 2251 0164 6DE7     		b	.L296
 2252              	.LVL272:
 2253              	.L353:
 2254              		.loc 1 653 0
 2255 0166 5E45     		cmp	r6, fp
 2256 0168 19D3     		bcc	.L361
 2257              	.L310:
 2258              	.LVL273:
 2259              		.loc 1 655 0
 2260 016a B6EB0B06 		subs	r6, r6, fp
 2261              	.LVL274:
 2262 016e 83D0     		beq	.L309
 2263              		.loc 1 656 0 discriminator 1
 2264 0170 99F80D00 		ldrb	r0, [r9, #13]	@ zero_extendqisi2
 2265              		.loc 1 655 0 discriminator 1
 2266 0174 C307     		lsls	r3, r0, #31
 2267 0176 15D5     		bpl	.L313
ARM GAS  C:\Users\jenny\AppData\Local\Temp\ccLg5IEe.s 			page 41


 2268 0178 0298     		ldr	r0, [sp, #8]
 2269 017a 00F00109 		and	r9, r0, #1
 2270              	.LVL275:
 2271 017e 7EE7     		b	.L312
 2272              	.LVL276:
 2273              	.L356:
 2274              		.loc 1 716 0 discriminator 1
 2275 0180 CBEB0707 		rsb	r7, fp, r7
 2276              	.LVL277:
 2277 0184 002F     		cmp	r7, #0
 2278 0186 23DD     		ble	.L322
 2279              		.loc 1 718 0
 2280 0188 2389     		ldrh	r3, [r4, #8]
 2281              		.loc 1 717 0
 2282 018a 0699     		ldr	r1, [sp, #24]
 2283              		.loc 1 718 0
 2284 018c 0BEB030C 		add	ip, fp, r3
 2285              		.loc 1 717 0
 2286 0190 6160     		str	r1, [r4, #4]
 2287              		.loc 1 718 0
 2288 0192 A4F808C0 		strh	ip, [r4, #8]	@ movhi
 2289              		.loc 1 731 0
 2290 0196 B9F1000F 		cmp	r9, #0
 2291 019a C2D0     		beq	.L352
 2292 019c A3E7     		b	.L320
 2293              	.LVL278:
 2294              	.L361:
 2295              		.loc 1 653 0 discriminator 1
 2296 019e FFF7FEFF 		bl	port_halt
 2297              	.LVL279:
 2298 01a2 E2E7     		b	.L310
 2299              	.L313:
 2300              		.loc 1 656 0
 2301 01a4 B4F90A20 		ldrsh	r2, [r4, #10]
 2302 01a8 002A     		cmp	r2, #0
 2303 01aa 1CDD     		ble	.L362
 2304              		.loc 1 657 0
 2305 01ac 029B     		ldr	r3, [sp, #8]
 2306 01ae 13F00109 		ands	r9, r3, #1
 2307              	.LVL280:
 2308 01b2 A8D0     		beq	.L315
 2309 01b4 4FF00109 		mov	r9, #1
 2310 01b8 61E7     		b	.L312
 2311              	.LVL281:
 2312              	.L354:
 2313              	.LBB113:
 2314              	.LBB109:
 2315              		.loc 1 673 0
 2316 01ba 0023     		movs	r3, #0
 2317 01bc 07A9     		add	r1, sp, #28
 2318              	.LVL282:
 2319 01be 0DF11602 		add	r2, sp, #22
 2320 01c2 FFF7FEFF 		bl	netconn_getaddr
 2321              	.LVL283:
 2322              		.loc 1 672 0
 2323 01c6 07AB     		add	r3, sp, #28
 2324              	.LVL284:
ARM GAS  C:\Users\jenny\AppData\Local\Temp\ccLg5IEe.s 			page 42


 2325 01c8 68E7     		b	.L318
 2326              	.LVL285:
 2327              	.L358:
 2328              	.LBE109:
 2329              	.LBE113:
 2330              		.loc 1 600 0
 2331 01ca FFF7FEFF 		bl	netconn_recv_tcp_pbuf
 2332              	.LVL286:
 2333 01ce C0E7     		b	.L302
 2334              	.LVL287:
 2335              	.L322:
 2336              		.loc 1 725 0
 2337 01d0 0698     		ldr	r0, [sp, #24]
 2338              		.loc 1 721 0
 2339 01d2 C4F80480 		str	r8, [r4, #4]
 2340              		.loc 1 722 0
 2341 01d6 A4F80880 		strh	r8, [r4, #8]	@ movhi
 2342              		.loc 1 725 0
 2343 01da FFF7FEFF 		bl	pbuf_free
 2344              	.LVL288:
 2345              		.loc 1 731 0
 2346 01de B9F1000F 		cmp	r9, #0
 2347 01e2 9ED0     		beq	.L352
 2348 01e4 7FE7     		b	.L320
 2349              	.LVL289:
 2350              	.L362:
 2351 01e6 0299     		ldr	r1, [sp, #8]
 2352 01e8 01F00109 		and	r9, r1, #1
 2353              	.LVL290:
 2354 01ec 47E7     		b	.L312
 2355              	.LVL291:
 2356              	.L360:
 2357              		.loc 1 625 0 discriminator 1
 2358 01ee FFF7FEFF 		bl	port_halt
 2359              	.LVL292:
 2360 01f2 DDF81890 		ldr	r9, [sp, #24]
 2361 01f6 B3E7     		b	.L306
 2362              	.LVL293:
 2363              	.L359:
 2364              		.loc 1 608 0
 2365 01f8 002D     		cmp	r5, #0
 2366 01fa 7FF475AF 		bne	.L351
 2367              		.loc 1 618 0
 2368 01fe 45B2     		sxtb	r5, r0
 2369              	.LVL294:
 2370 0200 6942     		negs	r1, r5
 2371 0202 0F29     		cmp	r1, #15
 2372 0204 9ABF     		itte	ls
 2373 0206 0B4B     		ldrls	r3, .L363+4
 2374 0208 53F82110 		ldrls	r1, [r3, r1, lsl #2]
 2375 020c 0521     		movhi	r1, #5
 2376 020e 2161     		str	r1, [r4, #16]
 2377              		.loc 1 620 0
 2378 0210 15F10C0F 		cmn	r5, #12
 2379 0214 14BF     		ite	ne
 2380 0216 4FF0FF35 		movne	r5, #-1
 2381 021a 0025     		moveq	r5, #0
ARM GAS  C:\Users\jenny\AppData\Local\Temp\ccLg5IEe.s 			page 43


 2382 021c 6DE7     		b	.L350
 2383              	.LVL295:
 2384              	.L299:
 2385              		.loc 1 585 0
 2386 021e 002D     		cmp	r5, #0
 2387 0220 7FF462AF 		bne	.L351
 2388              		.loc 1 593 0
 2389 0224 0B20     		movs	r0, #11
 2390 0226 2061     		str	r0, [r4, #16]
 2391              		.loc 1 594 0
 2392 0228 4FF0FF35 		mov	r5, #-1
 2393              	.LVL296:
 2394 022c 65E7     		b	.L350
 2395              	.L364:
 2396 022e 00BF     		.align	2
 2397              	.L363:
 2398 0230 00000000 		.word	.LANCHOR0
 2399 0234 00000000 		.word	.LANCHOR1
 2400              		.cfi_endproc
 2401              	.LFE17:
 2402              		.size	lwip_recvfrom, .-lwip_recvfrom
 2403 0238 AFF30080 		.section	.text.lwip_read,"ax",%progbits
 2403      AFF30080 
 2404              		.align	2
 2405              		.p2align 4,,15
 2406              		.global	lwip_read
 2407              		.thumb
 2408              		.thumb_func
 2409              		.type	lwip_read, %function
 2410              	lwip_read:
 2411              	.LFB18:
 2412              		.loc 1 743 0
 2413              		.cfi_startproc
 2414              		@ args = 0, pretend = 0, frame = 0
 2415              		@ frame_needed = 0, uses_anonymous_args = 0
 2416              	.LVL297:
 2417 0000 00B5     		push	{lr}
 2418              	.LCFI20:
 2419              		.cfi_def_cfa_offset 4
 2420              		.cfi_offset 14, -4
 2421 0002 83B0     		sub	sp, sp, #12
 2422              	.LCFI21:
 2423              		.cfi_def_cfa_offset 16
 2424              		.loc 1 744 0
 2425 0004 0023     		movs	r3, #0
 2426 0006 0093     		str	r3, [sp, #0]
 2427 0008 0193     		str	r3, [sp, #4]
 2428 000a FFF7FEFF 		bl	lwip_recvfrom
 2429              	.LVL298:
 2430              		.loc 1 745 0
 2431 000e 03B0     		add	sp, sp, #12
 2432 0010 00BD     		pop	{pc}
 2433              		.cfi_endproc
 2434              	.LFE18:
 2435              		.size	lwip_read, .-lwip_read
 2436 0012 00BFAFF3 		.section	.text.lwip_recv,"ax",%progbits
 2436      0080AFF3 
ARM GAS  C:\Users\jenny\AppData\Local\Temp\ccLg5IEe.s 			page 44


 2436      0080AFF3 
 2436      0080
 2437              		.align	2
 2438              		.p2align 4,,15
 2439              		.global	lwip_recv
 2440              		.thumb
 2441              		.thumb_func
 2442              		.type	lwip_recv, %function
 2443              	lwip_recv:
 2444              	.LFB19:
 2445              		.loc 1 749 0
 2446              		.cfi_startproc
 2447              		@ args = 0, pretend = 0, frame = 0
 2448              		@ frame_needed = 0, uses_anonymous_args = 0
 2449              	.LVL299:
 2450 0000 10B5     		push	{r4, lr}
 2451              	.LCFI22:
 2452              		.cfi_def_cfa_offset 8
 2453              		.cfi_offset 4, -8
 2454              		.cfi_offset 14, -4
 2455 0002 82B0     		sub	sp, sp, #8
 2456              	.LCFI23:
 2457              		.cfi_def_cfa_offset 16
 2458              		.loc 1 750 0
 2459 0004 0024     		movs	r4, #0
 2460 0006 0094     		str	r4, [sp, #0]
 2461 0008 0194     		str	r4, [sp, #4]
 2462 000a FFF7FEFF 		bl	lwip_recvfrom
 2463              	.LVL300:
 2464              		.loc 1 751 0
 2465 000e 02B0     		add	sp, sp, #8
 2466 0010 10BD     		pop	{r4, pc}
 2467              		.cfi_endproc
 2468              	.LFE19:
 2469              		.size	lwip_recv, .-lwip_recv
 2470 0012 00BFAFF3 		.section	.text.lwip_sendto,"ax",%progbits
 2470      0080AFF3 
 2470      0080AFF3 
 2470      0080
 2471              		.align	2
 2472              		.p2align 4,,15
 2473              		.global	lwip_sendto
 2474              		.thumb
 2475              		.thumb_func
 2476              		.type	lwip_sendto, %function
 2477              	lwip_sendto:
 2478              	.LFB21:
 2479              		.loc 1 792 0
 2480              		.cfi_startproc
 2481              		@ args = 8, pretend = 0, frame = 16
 2482              		@ frame_needed = 0, uses_anonymous_args = 0
 2483              	.LVL301:
 2484 0000 2DE9F043 		push	{r4, r5, r6, r7, r8, r9, lr}
 2485              	.LCFI24:
 2486              		.cfi_def_cfa_offset 28
 2487              		.cfi_offset 4, -28
 2488              		.cfi_offset 5, -24
ARM GAS  C:\Users\jenny\AppData\Local\Temp\ccLg5IEe.s 			page 45


 2489              		.cfi_offset 6, -20
 2490              		.cfi_offset 7, -16
 2491              		.cfi_offset 8, -12
 2492              		.cfi_offset 9, -8
 2493              		.cfi_offset 14, -4
 2494 0004 85B0     		sub	sp, sp, #20
 2495              	.LCFI25:
 2496              		.cfi_def_cfa_offset 48
 2497              	.LBB114:
 2498              	.LBB115:
 2499              		.loc 1 199 0
 2500 0006 0328     		cmp	r0, #3
 2501              	.LBE115:
 2502              	.LBE114:
 2503              		.loc 1 792 0
 2504 0008 0646     		mov	r6, r0
 2505              	.LVL302:
 2506 000a 8846     		mov	r8, r1
 2507 000c 1546     		mov	r5, r2
 2508 000e 0C9C     		ldr	r4, [sp, #48]
 2509 0010 0D9F     		ldr	r7, [sp, #52]
 2510              	.LBB117:
 2511              	.LBB116:
 2512              		.loc 1 199 0
 2513 0012 41D8     		bhi	.L389
 2514              		.loc 1 205 0
 2515 0014 00EB4006 		add	r6, r0, r0, lsl #1
 2516 0018 DFF8B8C0 		ldr	ip, .L394+4
 2517 001c F600     		lsls	r6, r6, #3
 2518 001e 0CEB0609 		add	r9, ip, r6
 2519              	.LVL303:
 2520              		.loc 1 207 0
 2521 0022 5CF80660 		ldr	r6, [ip, r6]
 2522 0026 002E     		cmp	r6, #0
 2523 0028 36D0     		beq	.L389
 2524              	.LBE116:
 2525              	.LBE117:
 2526              		.loc 1 807 0
 2527 002a 3678     		ldrb	r6, [r6, #0]	@ zero_extendqisi2
 2528 002c 102E     		cmp	r6, #16
 2529 002e 4CD0     		beq	.L390
 2530              		.loc 1 818 0
 2531 0030 B5F5803F 		cmp	r5, #65536
 2532 0034 35D2     		bcs	.L391
 2533              		.loc 1 819 0
 2534 0036 AEB2     		uxth	r6, r5
 2535              	.LVL304:
 2536              		.loc 1 820 0
 2537 0038 002C     		cmp	r4, #0
 2538 003a 37D0     		beq	.L392
 2539              	.LVL305:
 2540              	.L373:
 2541              		.loc 1 820 0 is_stmt 0 discriminator 1
 2542 003c 102F     		cmp	r7, #16
 2543 003e 26D1     		bne	.L375
 2544              		.loc 1 820 0 discriminator 4
 2545 0040 6378     		ldrb	r3, [r4, #1]	@ zero_extendqisi2
ARM GAS  C:\Users\jenny\AppData\Local\Temp\ccLg5IEe.s 			page 46


 2546 0042 022B     		cmp	r3, #2
 2547 0044 23D1     		bne	.L375
 2548              		.loc 1 820 0 discriminator 5
 2549 0046 14F00301 		ands	r1, r4, #3
 2550 004a 20D1     		bne	.L375
 2551              	.LVL306:
 2552              		.loc 1 901 0 is_stmt 1
 2553 004c 6268     		ldr	r2, [r4, #4]
 2554              		.loc 1 902 0
 2555 004e 6088     		ldrh	r0, [r4, #2]
 2556              		.loc 1 896 0
 2557 0050 0191     		str	r1, [sp, #4]
 2558 0052 0091     		str	r1, [sp, #0]
 2559              		.loc 1 901 0
 2560 0054 0292     		str	r2, [sp, #8]
 2561              		.loc 1 902 0
 2562 0056 FFF7FEFF 		bl	lwip_ntohs
 2563              	.LVL307:
 2564              		.loc 1 903 0
 2565 005a ADF80C00 		strh	r0, [sp, #12]	@ movhi
 2566              	.LVL308:
 2567              	.L381:
 2568              		.loc 1 933 0
 2569 005e 6846     		mov	r0, sp
 2570 0060 4146     		mov	r1, r8
 2571 0062 3246     		mov	r2, r6
 2572 0064 FFF7FEFF 		bl	netbuf_ref
 2573              	.LVL309:
 2574              		.loc 1 935 0
 2575 0068 0446     		mov	r4, r0
 2576 006a 0028     		cmp	r0, #0
 2577 006c 26D0     		beq	.L393
 2578              	.LVL310:
 2579              	.L377:
 2580              		.loc 1 941 0
 2581 006e 6846     		mov	r0, sp
 2582 0070 FFF7FEFF 		bl	netbuf_free
 2583              	.LVL311:
 2584              		.loc 1 943 0
 2585 0074 60B2     		sxtb	r0, r4
 2586 0076 4342     		negs	r3, r0
 2587 0078 0F2B     		cmp	r3, #15
 2588 007a 9ABF     		itte	ls
 2589 007c 1449     		ldrls	r1, .L394
 2590 007e 51F82330 		ldrls	r3, [r1, r3, lsl #2]
 2591 0082 0523     		movhi	r3, #5
 2592 0084 C9F81030 		str	r3, [r9, #16]
 2593              		.loc 1 944 0
 2594 0088 34B9     		cbnz	r4, .L389
 2595              		.loc 1 2375 0 discriminator 1
 2596 008a A8B2     		uxth	r0, r5
 2597 008c 06E0     		b	.L386
 2598              	.LVL312:
 2599              	.L375:
 2600              		.loc 1 820 0 discriminator 3
 2601 008e FFF7FEFF 		bl	port_halt
 2602              	.LVL313:
ARM GAS  C:\Users\jenny\AppData\Local\Temp\ccLg5IEe.s 			page 47


 2603 0092 0522     		movs	r2, #5
 2604 0094 C9F81020 		str	r2, [r9, #16]
 2605              	.LVL314:
 2606              	.L389:
 2607 0098 4FF0FF30 		mov	r0, #-1
 2608              	.L386:
 2609              		.loc 1 945 0
 2610 009c 05B0     		add	sp, sp, #20
 2611 009e BDE8F083 		pop	{r4, r5, r6, r7, r8, r9, pc}
 2612              	.LVL315:
 2613              	.L391:
 2614              		.loc 1 818 0 discriminator 1
 2615 00a2 FFF7FEFF 		bl	port_halt
 2616              	.LVL316:
 2617              		.loc 1 819 0 discriminator 1
 2618 00a6 AEB2     		uxth	r6, r5
 2619              	.LVL317:
 2620              		.loc 1 820 0 discriminator 1
 2621 00a8 002C     		cmp	r4, #0
 2622 00aa C7D1     		bne	.L373
 2623              	.LVL318:
 2624              	.L392:
 2625              		.loc 1 820 0 is_stmt 0 discriminator 2
 2626 00ac 002F     		cmp	r7, #0
 2627 00ae C5D1     		bne	.L373
 2628              	.LVL319:
 2629              		.loc 1 896 0 is_stmt 1
 2630 00b0 0197     		str	r7, [sp, #4]
 2631 00b2 0097     		str	r7, [sp, #0]
 2632              	.LVL320:
 2633              		.loc 1 906 0
 2634 00b4 0297     		str	r7, [sp, #8]
 2635              		.loc 1 907 0
 2636 00b6 ADF80C70 		strh	r7, [sp, #12]	@ movhi
 2637 00ba D0E7     		b	.L381
 2638              	.LVL321:
 2639              	.L393:
 2640              		.loc 1 937 0
 2641 00bc D9F80000 		ldr	r0, [r9, #0]
 2642              	.LVL322:
 2643 00c0 6946     		mov	r1, sp
 2644 00c2 FFF7FEFF 		bl	netconn_send
 2645              	.LVL323:
 2646 00c6 0446     		mov	r4, r0
 2647              	.LVL324:
 2648 00c8 D1E7     		b	.L377
 2649              	.LVL325:
 2650              	.L390:
 2651              		.loc 1 809 0
 2652 00ca FFF7FEFF 		bl	lwip_send
 2653              	.LVL326:
 2654 00ce E5E7     		b	.L386
 2655              	.L395:
 2656              		.align	2
 2657              	.L394:
 2658 00d0 00000000 		.word	.LANCHOR1
 2659 00d4 00000000 		.word	.LANCHOR0
ARM GAS  C:\Users\jenny\AppData\Local\Temp\ccLg5IEe.s 			page 48


 2660              		.cfi_endproc
 2661              	.LFE21:
 2662              		.size	lwip_sendto, .-lwip_sendto
 2663 00d8 AFF30080 		.section	.text.lwip_send,"ax",%progbits
 2663      AFF30080 
 2664              		.align	2
 2665              		.p2align 4,,15
 2666              		.global	lwip_send
 2667              		.thumb
 2668              		.thumb_func
 2669              		.type	lwip_send, %function
 2670              	lwip_send:
 2671              	.LFB20:
 2672              		.loc 1 755 0
 2673              		.cfi_startproc
 2674              		@ args = 0, pretend = 0, frame = 8
 2675              		@ frame_needed = 0, uses_anonymous_args = 0
 2676              	.LVL327:
 2677 0000 F0B5     		push	{r4, r5, r6, r7, lr}
 2678              	.LCFI26:
 2679              		.cfi_def_cfa_offset 20
 2680              		.cfi_offset 4, -20
 2681              		.cfi_offset 5, -16
 2682              		.cfi_offset 6, -12
 2683              		.cfi_offset 7, -8
 2684              		.cfi_offset 14, -4
 2685              	.LBB118:
 2686              	.LBB119:
 2687              		.loc 1 199 0
 2688 0002 0328     		cmp	r0, #3
 2689              	.LBE119:
 2690              	.LBE118:
 2691              		.loc 1 755 0
 2692 0004 85B0     		sub	sp, sp, #20
 2693              	.LCFI27:
 2694              		.cfi_def_cfa_offset 40
 2695              		.loc 1 755 0
 2696 0006 0446     		mov	r4, r0
 2697              	.LVL328:
 2698 0008 1D46     		mov	r5, r3
 2699              	.LBB121:
 2700              	.LBB120:
 2701              		.loc 1 199 0
 2702 000a 27D8     		bhi	.L399
 2703              		.loc 1 205 0
 2704 000c 00EB4004 		add	r4, r0, r0, lsl #1
 2705 0010 174E     		ldr	r6, .L416
 2706 0012 E400     		lsls	r4, r4, #3
 2707 0014 3719     		adds	r7, r6, r4
 2708              	.LVL329:
 2709              		.loc 1 207 0
 2710 0016 3659     		ldr	r6, [r6, r4]
 2711 0018 06B3     		cbz	r6, .L399
 2712              	.LBE120:
 2713              	.LBE121:
 2714              		.loc 1 769 0
 2715 001a 3478     		ldrb	r4, [r6, #0]	@ zero_extendqisi2
ARM GAS  C:\Users\jenny\AppData\Local\Temp\ccLg5IEe.s 			page 49


 2716 001c 102C     		cmp	r4, #16
 2717 001e 21D1     		bne	.L415
 2718              		.loc 1 778 0
 2719 0020 15F0100F 		tst	r5, #16
 2720              		.loc 1 781 0
 2721 0024 04AC     		add	r4, sp, #16
 2722              		.loc 1 778 0
 2723 0026 0CBF     		ite	eq
 2724 0028 0123     		moveq	r3, #1
 2725 002a 0323     		movne	r3, #3
 2726              	.LVL330:
 2727              		.loc 1 781 0
 2728 002c 0020     		movs	r0, #0
 2729              	.LVL331:
 2730 002e 44F8040D 		str	r0, [r4, #-4]!
 2731              	.LVL332:
 2732              		.loc 1 778 0
 2733 0032 15F0080F 		tst	r5, #8
 2734 0036 0CBF     		ite	eq
 2735 0038 0546     		moveq	r5, r0
 2736 003a 0425     		movne	r5, #4
 2737              	.LVL333:
 2738              		.loc 1 782 0
 2739 003c 0094     		str	r4, [sp, #0]
 2740 003e 3046     		mov	r0, r6
 2741 0040 2B43     		orrs	r3, r3, r5
 2742              	.LVL334:
 2743 0042 FFF7FEFF 		bl	netconn_write_partly
 2744              	.LVL335:
 2745              		.loc 1 785 0
 2746 0046 4142     		negs	r1, r0
 2747 0048 0F29     		cmp	r1, #15
 2748 004a 9ABF     		itte	ls
 2749 004c 094A     		ldrls	r2, .L416+4
 2750 004e 52F82110 		ldrls	r1, [r2, r1, lsl #2]
 2751 0052 0521     		movhi	r1, #5
 2752 0054 3961     		str	r1, [r7, #16]
 2753              		.loc 1 786 0
 2754 0056 08B9     		cbnz	r0, .L399
 2755              	.LVL336:
 2756              		.loc 1 786 0 is_stmt 0 discriminator 1
 2757 0058 0398     		ldr	r0, [sp, #12]
 2758              	.LVL337:
 2759 005a 01E0     		b	.L412
 2760              	.LVL338:
 2761              	.L399:
 2762              		.loc 1 766 0 is_stmt 1
 2763 005c 4FF0FF30 		mov	r0, #-1
 2764              	.L412:
 2765              		.loc 1 787 0
 2766 0060 05B0     		add	sp, sp, #20
 2767 0062 F0BD     		pop	{r4, r5, r6, r7, pc}
 2768              	.LVL339:
 2769              	.L415:
 2770              		.loc 1 771 0
 2771 0064 0024     		movs	r4, #0
 2772 0066 0094     		str	r4, [sp, #0]
ARM GAS  C:\Users\jenny\AppData\Local\Temp\ccLg5IEe.s 			page 50


 2773 0068 0194     		str	r4, [sp, #4]
 2774 006a FFF7FEFF 		bl	lwip_sendto
 2775              	.LVL340:
 2776 006e F7E7     		b	.L412
 2777              	.L417:
 2778              		.align	2
 2779              	.L416:
 2780 0070 00000000 		.word	.LANCHOR0
 2781 0074 00000000 		.word	.LANCHOR1
 2782              		.cfi_endproc
 2783              	.LFE20:
 2784              		.size	lwip_send, .-lwip_send
 2785 0078 AFF30080 		.section	.text.lwip_socket,"ax",%progbits
 2785      AFF30080 
 2786              		.align	2
 2787              		.p2align 4,,15
 2788              		.global	lwip_socket
 2789              		.thumb
 2790              		.thumb_func
 2791              		.type	lwip_socket, %function
 2792              	lwip_socket:
 2793              	.LFB22:
 2794              		.loc 1 949 0
 2795              		.cfi_startproc
 2796              		@ args = 0, pretend = 0, frame = 0
 2797              		@ frame_needed = 0, uses_anonymous_args = 0
 2798              	.LVL341:
 2799              		.loc 1 956 0
 2800 0000 0229     		cmp	r1, #2
 2801              		.loc 1 949 0
 2802 0002 38B5     		push	{r3, r4, r5, lr}
 2803              	.LCFI28:
 2804              		.cfi_def_cfa_offset 16
 2805              		.cfi_offset 3, -16
 2806              		.cfi_offset 4, -12
 2807              		.cfi_offset 5, -8
 2808              		.cfi_offset 14, -4
 2809              		.loc 1 956 0
 2810 0004 29D0     		beq	.L421
 2811 0006 0329     		cmp	r1, #3
 2812 0008 1ED0     		beq	.L422
 2813 000a 0129     		cmp	r1, #1
 2814 000c 03D0     		beq	.L435
 2815              	.LVL342:
 2816              	.L434:
 2817              		.loc 1 981 0
 2818 000e 4FF0FF34 		mov	r4, #-1
 2819              	.L419:
 2820              		.loc 1 1001 0
 2821 0012 2046     		mov	r0, r4
 2822 0014 38BD     		pop	{r3, r4, r5, pc}
 2823              	.LVL343:
 2824              	.L435:
 2825              		.loc 1 969 0
 2826 0016 1020     		movs	r0, #16
 2827              	.LVL344:
 2828 0018 0021     		movs	r1, #0
ARM GAS  C:\Users\jenny\AppData\Local\Temp\ccLg5IEe.s 			page 51


 2829              	.LVL345:
 2830 001a 164A     		ldr	r2, .L436
 2831              	.LVL346:
 2832 001c FFF7FEFF 		bl	netconn_new_with_proto_and_callback
 2833              	.LVL347:
 2834              		.loc 1 972 0
 2835 0020 0546     		mov	r5, r0
 2836 0022 0028     		cmp	r0, #0
 2837 0024 F3D0     		beq	.L434
 2838              		.loc 1 974 0 discriminator 1
 2839 0026 037F     		ldrb	r3, [r0, #28]	@ zero_extendqisi2
 2840 0028 43F00800 		orr	r0, r3, #8
 2841              	.LVL348:
 2842 002c 2877     		strb	r0, [r5, #28]
 2843              	.L426:
 2844              		.loc 1 990 0
 2845 002e 0021     		movs	r1, #0
 2846 0030 2846     		mov	r0, r5
 2847 0032 FFF7FEFF 		bl	alloc_socket
 2848              	.LVL349:
 2849              		.loc 1 992 0
 2850 0036 421C     		adds	r2, r0, #1
 2851              		.loc 1 990 0
 2852 0038 0446     		mov	r4, r0
 2853              	.LVL350:
 2854              		.loc 1 997 0
 2855 003a 18BF     		it	ne
 2856 003c A861     		strne	r0, [r5, #24]
 2857              		.loc 1 992 0
 2858 003e E8D1     		bne	.L419
 2859              		.loc 1 993 0
 2860 0040 2846     		mov	r0, r5
 2861              	.LVL351:
 2862 0042 FFF7FEFF 		bl	netconn_delete
 2863              	.LVL352:
 2864              		.loc 1 995 0
 2865 0046 E4E7     		b	.L419
 2866              	.LVL353:
 2867              	.L422:
 2868              		.loc 1 958 0
 2869 0048 D1B2     		uxtb	r1, r2
 2870              	.LVL354:
 2871 004a 4020     		movs	r0, #64
 2872              	.LVL355:
 2873 004c 094A     		ldr	r2, .L436
 2874              	.LVL356:
 2875 004e FFF7FEFF 		bl	netconn_new_with_proto_and_callback
 2876              	.LVL357:
 2877 0052 0546     		mov	r5, r0
 2878              	.LVL358:
 2879              		.loc 1 984 0
 2880 0054 002D     		cmp	r5, #0
 2881 0056 EAD1     		bne	.L426
 2882 0058 D9E7     		b	.L434
 2883              	.LVL359:
 2884              	.L421:
 2885              		.loc 1 963 0
ARM GAS  C:\Users\jenny\AppData\Local\Temp\ccLg5IEe.s 			page 52


 2886 005a 882A     		cmp	r2, #136
 2887 005c 14BF     		ite	ne
 2888 005e 2020     		movne	r0, #32
 2889 0060 2120     		moveq	r0, #33
 2890              	.LVL360:
 2891 0062 0021     		movs	r1, #0
 2892              	.LVL361:
 2893 0064 034A     		ldr	r2, .L436
 2894              	.LVL362:
 2895 0066 FFF7FEFF 		bl	netconn_new_with_proto_and_callback
 2896              	.LVL363:
 2897 006a 0546     		mov	r5, r0
 2898              	.LVL364:
 2899              		.loc 1 984 0
 2900 006c 002D     		cmp	r5, #0
 2901 006e DED1     		bne	.L426
 2902 0070 CDE7     		b	.L434
 2903              	.L437:
 2904 0072 00BF     		.align	2
 2905              	.L436:
 2906 0074 00000000 		.word	event_callback
 2907              		.cfi_endproc
 2908              	.LFE22:
 2909              		.size	lwip_socket, .-lwip_socket
 2910 0078 AFF30080 		.section	.text.lwip_write,"ax",%progbits
 2910      AFF30080 
 2911              		.align	2
 2912              		.p2align 4,,15
 2913              		.global	lwip_write
 2914              		.thumb
 2915              		.thumb_func
 2916              		.type	lwip_write, %function
 2917              	lwip_write:
 2918              	.LFB23:
 2919              		.loc 1 1005 0
 2920              		.cfi_startproc
 2921              		@ args = 0, pretend = 0, frame = 0
 2922              		@ frame_needed = 0, uses_anonymous_args = 0
 2923              		@ link register save eliminated.
 2924              	.LVL365:
 2925              		.loc 1 1006 0
 2926 0000 0023     		movs	r3, #0
 2927              		.loc 1 1007 0
 2928              		.loc 1 1006 0
 2929 0002 FFF7FEBF 		b	lwip_send
 2930              	.LVL366:
 2931              		.cfi_endproc
 2932              	.LFE23:
 2933              		.size	lwip_write, .-lwip_write
 2934 0006 00BFAFF3 		.section	.text.lwip_select,"ax",%progbits
 2934      0080AFF3 
 2934      0080
 2935              		.align	2
 2936              		.p2align 4,,15
 2937              		.global	lwip_select
 2938              		.thumb
 2939              		.thumb_func
ARM GAS  C:\Users\jenny\AppData\Local\Temp\ccLg5IEe.s 			page 53


 2940              		.type	lwip_select, %function
 2941              	lwip_select:
 2942              	.LFB25:
 2943              		.loc 1 1090 0
 2944              		.cfi_startproc
 2945              		@ args = 4, pretend = 0, frame = 56
 2946              		@ frame_needed = 0, uses_anonymous_args = 0
 2947              	.LVL367:
 2948 0000 2DE9F04F 		push	{r4, r5, r6, r7, r8, r9, sl, fp, lr}
 2949              	.LCFI29:
 2950              		.cfi_def_cfa_offset 36
 2951              		.cfi_offset 4, -36
 2952              		.cfi_offset 5, -32
 2953              		.cfi_offset 6, -28
 2954              		.cfi_offset 7, -24
 2955              		.cfi_offset 8, -20
 2956              		.cfi_offset 9, -16
 2957              		.cfi_offset 10, -12
 2958              		.cfi_offset 11, -8
 2959              		.cfi_offset 14, -4
 2960 0004 93B0     		sub	sp, sp, #76
 2961              	.LCFI30:
 2962              		.cfi_def_cfa_offset 112
 2963              		.loc 1 1107 0
 2964 0006 08AC     		add	r4, sp, #32
 2965 0008 0AAF     		add	r7, sp, #40
 2966 000a 09AE     		add	r6, sp, #36
 2967 000c 0094     		str	r4, [sp, #0]
 2968 000e 0196     		str	r6, [sp, #4]
 2969 0010 0297     		str	r7, [sp, #8]
 2970              		.loc 1 1090 0
 2971 0012 8246     		mov	sl, r0
 2972 0014 0C46     		mov	r4, r1
 2973 0016 1546     		mov	r5, r2
 2974 0018 9846     		mov	r8, r3
 2975              		.loc 1 1107 0
 2976 001a FFF7FEFF 		bl	lwip_selscan
 2977              	.LVL368:
 2978              		.loc 1 1110 0
 2979 001e 8146     		mov	r9, r0
 2980 0020 0028     		cmp	r0, #0
 2981 0022 40F03781 		bne	.L440
 2982              		.loc 1 1111 0
 2983 0026 1C9E     		ldr	r6, [sp, #112]
 2984 0028 2EB1     		cbz	r6, .L441
 2985              		.loc 1 1111 0 is_stmt 0 discriminator 1
 2986 002a 3368     		ldr	r3, [r6, #0]
 2987 002c 1BB9     		cbnz	r3, .L441
 2988 002e 7068     		ldr	r0, [r6, #4]
 2989              	.LVL369:
 2990 0030 0028     		cmp	r0, #0
 2991 0032 00F02F81 		beq	.L440
 2992              	.L441:
 2993              		.loc 1 1123 0 is_stmt 1
 2994 0036 0022     		movs	r2, #0
 2995              		.loc 1 1129 0
 2996 0038 0BAE     		add	r6, sp, #44
ARM GAS  C:\Users\jenny\AppData\Local\Temp\ccLg5IEe.s 			page 54


 2997 003a 11A8     		add	r0, sp, #68
 2998 003c 1146     		mov	r1, r2
 2999              		.loc 1 1123 0
 3000 003e 0B92     		str	r2, [sp, #44]
 3001              		.loc 1 1124 0
 3002 0040 0C92     		str	r2, [sp, #48]
 3003              		.loc 1 1125 0
 3004 0042 0D94     		str	r4, [sp, #52]
 3005              		.loc 1 1126 0
 3006 0044 0E95     		str	r5, [sp, #56]
 3007              		.loc 1 1127 0
 3008 0046 CDF83C80 		str	r8, [sp, #60]
 3009              		.loc 1 1128 0
 3010 004a 1092     		str	r2, [sp, #64]
 3011              		.loc 1 1129 0
 3012 004c 0696     		str	r6, [sp, #24]
 3013 004e FFF7FEFF 		bl	sys_sem_new
 3014              	.LVL370:
 3015              		.loc 1 1130 0
 3016 0052 0028     		cmp	r0, #0
 3017 0054 40F06982 		bne	.L475
 3018              		.loc 1 1140 0
 3019 0058 40F20001 		movw	r1, #:lower16:.LANCHOR2
 3020 005c C0F20001 		movt	r1, #:upper16:.LANCHOR2
 3021 0060 0E68     		ldr	r6, [r1, #0]
 3022 0062 0B96     		str	r6, [sp, #44]
 3023              		.loc 1 1141 0
 3024 0064 0EB1     		cbz	r6, .L443
 3025              		.loc 1 1142 0
 3026 0066 0BAB     		add	r3, sp, #44
 3027 0068 7360     		str	r3, [r6, #4]
 3028              	.L443:
 3029              		.loc 1 1146 0
 3030 006a 40F20001 		movw	r1, #:lower16:.LANCHOR3
 3031 006e C0F20001 		movt	r1, #:upper16:.LANCHOR3
 3032              		.loc 1 1144 0
 3033 0072 40F20002 		movw	r2, #:lower16:.LANCHOR2
 3034              		.loc 1 1146 0
 3035 0076 0E68     		ldr	r6, [r1, #0]
 3036              		.loc 1 1144 0
 3037 0078 C0F20002 		movt	r2, #:upper16:.LANCHOR2
 3038              		.loc 1 1146 0
 3039 007c 731C     		adds	r3, r6, #1
 3040              		.loc 1 1144 0
 3041 007e 0BA8     		add	r0, sp, #44
 3042              	.LVL371:
 3043              		.loc 1 1152 0
 3044 0080 BAF1000F 		cmp	sl, #0
 3045              		.loc 1 1144 0
 3046 0084 1060     		str	r0, [r2, #0]
 3047              		.loc 1 1146 0
 3048 0086 0B60     		str	r3, [r1, #0]
 3049              	.LVL372:
 3050              		.loc 1 1152 0
 3051 0088 40F38580 		ble	.L454
 3052 008c 0AF1FF30 		add	r0, sl, #-1
 3053              	.LBB122:
ARM GAS  C:\Users\jenny\AppData\Local\Temp\ccLg5IEe.s 			page 55


 3054              	.LBB123:
 3055              	.LBB124:
 3056              		.loc 1 228 0
 3057 0090 B04E     		ldr	r6, .L652
 3058 0092 00F00101 		and	r1, r0, #1
 3059              	.LBE124:
 3060              	.LBE123:
 3061              	.LBE122:
 3062              		.loc 1 1153 0
 3063 0096 002C     		cmp	r4, #0
 3064 0098 00F0C581 		beq	.L537
 3065 009c 2278     		ldrb	r2, [r4, #0]	@ zero_extendqisi2
 3066 009e D307     		lsls	r3, r2, #31
 3067 00a0 40F1C181 		bpl	.L537
 3068              	.L542:
 3069              	.LBB135:
 3070              	.LBB130:
 3071              	.LBB125:
 3072              		.loc 1 228 0
 3073 00a4 D6F80090 		ldr	r9, [r6, #0]
 3074              	.LVL373:
 3075 00a8 B9F1000F 		cmp	r9, #0
 3076 00ac 00F00982 		beq	.L642
 3077              		.loc 1 231 0
 3078 00b0 3246     		mov	r2, r6
 3079              	.L618:
 3080              	.LBE125:
 3081              	.LBE130:
 3082              		.loc 1 1159 0
 3083 00b2 5369     		ldr	r3, [r2, #20]
 3084 00b4 581C     		adds	r0, r3, #1
 3085              		.loc 1 1160 0
 3086 00b6 0028     		cmp	r0, #0
 3087              		.loc 1 1159 0
 3088 00b8 5061     		str	r0, [r2, #20]
 3089              		.loc 1 1160 0
 3090 00ba 40F32A82 		ble	.L643
 3091              	.L539:
 3092              	.LBE135:
 3093              		.loc 1 1152 0
 3094 00be 4FF00109 		mov	r9, #1
 3095              	.LVL374:
 3096 00c2 D145     		cmp	r9, sl
 3097 00c4 4FF0180B 		mov	fp, #24
 3098 00c8 65D0     		beq	.L454
 3099 00ca E9B1     		cbz	r1, .L444
 3100              		.loc 1 1153 0
 3101 00cc 002C     		cmp	r4, #0
 3102 00ce 00F0C981 		beq	.L544
 3103 00d2 2178     		ldrb	r1, [r4, #0]	@ zero_extendqisi2
 3104 00d4 41FA09F2 		asr	r2, r1, r9
 3105 00d8 D207     		lsls	r2, r2, #31
 3106 00da 40F1C381 		bpl	.L544
 3107              	.L549:
 3108              	.LBB136:
 3109              	.LBB131:
 3110              	.LBB126:
ARM GAS  C:\Users\jenny\AppData\Local\Temp\ccLg5IEe.s 			page 56


 3111              		.loc 1 225 0
 3112 00de B9F1030F 		cmp	r9, #3
 3113 00e2 00F2F481 		bhi	.L545
 3114              		.loc 1 228 0
 3115 00e6 5BF80630 		ldr	r3, [fp, r6]
 3116 00ea 002B     		cmp	r3, #0
 3117 00ec 00F0EF81 		beq	.L545
 3118              		.loc 1 231 0
 3119 00f0 09EB4900 		add	r0, r9, r9, lsl #1
 3120 00f4 06EBC001 		add	r1, r6, r0, lsl #3
 3121              	.L622:
 3122              	.LBE126:
 3123              	.LBE131:
 3124              		.loc 1 1159 0
 3125 00f8 4A69     		ldr	r2, [r1, #20]
 3126 00fa 531C     		adds	r3, r2, #1
 3127              		.loc 1 1160 0
 3128 00fc 002B     		cmp	r3, #0
 3129              		.loc 1 1159 0
 3130 00fe 4B61     		str	r3, [r1, #20]
 3131              		.loc 1 1160 0
 3132 0100 43DC     		bgt	.L554
 3133              	.L634:
 3134 0102 FFF7FEFF 		bl	port_halt
 3135              	.LVL375:
 3136 0106 40E0     		b	.L554
 3137              	.L444:
 3138              	.LBE136:
 3139              		.loc 1 1153 0
 3140 0108 44B1     		cbz	r4, .L447
 3141              		.loc 1 1153 0 is_stmt 0 discriminator 1
 3142 010a 4FEAE902 		asr	r2, r9, #3
 3143 010e 09F00703 		and	r3, r9, #7
 3144 0112 A15C     		ldrb	r1, [r4, r2]	@ zero_extendqisi2
 3145 0114 41FA03F0 		asr	r0, r1, r3
 3146 0118 C107     		lsls	r1, r0, #31
 3147 011a 0CD4     		bmi	.L448
 3148              	.L447:
 3149              		.loc 1 1153 0 discriminator 2
 3150 011c 002D     		cmp	r5, #0
 3151 011e 00F09181 		beq	.L449
 3152              		.loc 1 1154 0 is_stmt 1
 3153 0122 4FEAE902 		asr	r2, r9, #3
 3154 0126 09F00703 		and	r3, r9, #7
 3155 012a A95C     		ldrb	r1, [r5, r2]	@ zero_extendqisi2
 3156 012c 41FA03F0 		asr	r0, r1, r3
 3157 0130 C207     		lsls	r2, r0, #31
 3158 0132 40F18781 		bpl	.L449
 3159              	.L448:
 3160              	.LBB137:
 3161              	.LBB132:
 3162              	.LBB127:
 3163              		.loc 1 225 0
 3164 0136 B9F1030F 		cmp	r9, #3
 3165 013a 40F2E380 		bls	.L644
 3166              	.L453:
 3167              	.LBE127:
ARM GAS  C:\Users\jenny\AppData\Local\Temp\ccLg5IEe.s 			page 57


 3168              	.LBE132:
 3169              		.loc 1 1157 0
 3170 013e FFF7FEFF 		bl	port_halt
 3171              	.LVL376:
 3172 0142 0021     		movs	r1, #0
 3173              	.L473:
 3174              		.loc 1 1159 0
 3175 0144 4869     		ldr	r0, [r1, #20]
 3176 0146 421C     		adds	r2, r0, #1
 3177              		.loc 1 1160 0
 3178 0148 002A     		cmp	r2, #0
 3179              		.loc 1 1159 0
 3180 014a 4A61     		str	r2, [r1, #20]
 3181              		.loc 1 1160 0
 3182 014c 40F3D281 		ble	.L645
 3183              	.L451:
 3184              	.LBE137:
 3185              		.loc 1 1152 0
 3186 0150 09F10109 		add	r9, r9, #1
 3187 0154 0BF1180B 		add	fp, fp, #24
 3188              		.loc 1 1153 0
 3189 0158 002C     		cmp	r4, #0
 3190 015a 00F0AE80 		beq	.L552
 3191 015e 4FEAE901 		asr	r1, r9, #3
 3192 0162 09F00703 		and	r3, r9, #7
 3193 0166 605C     		ldrb	r0, [r4, r1]	@ zero_extendqisi2
 3194 0168 40FA03F2 		asr	r2, r0, r3
 3195 016c D107     		lsls	r1, r2, #31
 3196 016e 40F1A480 		bpl	.L552
 3197              	.L557:
 3198              	.LBB138:
 3199              	.LBB133:
 3200              	.LBB128:
 3201              		.loc 1 225 0
 3202 0172 B9F1030F 		cmp	r9, #3
 3203 0176 40F2BB80 		bls	.L624
 3204              	.L553:
 3205              	.LBE128:
 3206              	.LBE133:
 3207              		.loc 1 1157 0
 3208 017a FFF7FEFF 		bl	port_halt
 3209              	.LVL377:
 3210 017e 0020     		movs	r0, #0
 3211              	.L625:
 3212              		.loc 1 1159 0
 3213 0180 4269     		ldr	r2, [r0, #20]
 3214 0182 511C     		adds	r1, r2, #1
 3215              		.loc 1 1160 0
 3216 0184 0029     		cmp	r1, #0
 3217              		.loc 1 1159 0
 3218 0186 4161     		str	r1, [r0, #20]
 3219              		.loc 1 1160 0
 3220 0188 BBDD     		ble	.L634
 3221              	.L554:
 3222              	.LBE138:
 3223              		.loc 1 1152 0
 3224 018a 09F10109 		add	r9, r9, #1
ARM GAS  C:\Users\jenny\AppData\Local\Temp\ccLg5IEe.s 			page 58


 3225 018e D145     		cmp	r9, sl
 3226 0190 0BF1180B 		add	fp, fp, #24
 3227 0194 B8D1     		bne	.L444
 3228              	.L454:
 3229              		.loc 1 1167 0
 3230 0196 09A8     		add	r0, sp, #36
 3231 0198 08AE     		add	r6, sp, #32
 3232 019a 0190     		str	r0, [sp, #4]
 3233 019c 0096     		str	r6, [sp, #0]
 3234 019e 0297     		str	r7, [sp, #8]
 3235 01a0 5046     		mov	r0, sl
 3236 01a2 2146     		mov	r1, r4
 3237 01a4 2A46     		mov	r2, r5
 3238 01a6 4346     		mov	r3, r8
 3239 01a8 FFF7FEFF 		bl	lwip_selscan
 3240              	.LVL378:
 3241              		.loc 1 1168 0
 3242 01ac 8146     		mov	r9, r0
 3243 01ae 0028     		cmp	r0, #0
 3244 01b0 00F0B280 		beq	.L445
 3245              		.loc 1 1091 0
 3246 01b4 0021     		movs	r1, #0
 3247 01b6 0791     		str	r1, [sp, #28]
 3248              	.LVL379:
 3249              	.L446:
 3250              		.loc 1 1184 0
 3251 01b8 BAF1000F 		cmp	sl, #0
 3252 01bc 3FDD     		ble	.L466
 3253 01be 0AF1FF30 		add	r0, sl, #-1
 3254              	.LBB139:
 3255              	.LBB140:
 3256              	.LBB141:
 3257              		.loc 1 228 0
 3258 01c2 644A     		ldr	r2, .L652
 3259 01c4 00F00103 		and	r3, r0, #1
 3260              	.LBE141:
 3261              	.LBE140:
 3262              	.LBE139:
 3263              		.loc 1 1185 0
 3264 01c8 002C     		cmp	r4, #0
 3265 01ca 00F01D81 		beq	.L515
 3266 01ce 2178     		ldrb	r1, [r4, #0]	@ zero_extendqisi2
 3267 01d0 C907     		lsls	r1, r1, #31
 3268 01d2 40F11981 		bpl	.L515
 3269              	.L520:
 3270              	.LBB148:
 3271              	.LBB145:
 3272              	.LBB142:
 3273              		.loc 1 228 0
 3274 01d6 1668     		ldr	r6, [r2, #0]
 3275 01d8 002E     		cmp	r6, #0
 3276 01da 00F06A81 		beq	.L646
 3277              		.loc 1 231 0
 3278 01de 1046     		mov	r0, r2
 3279              	.L608:
 3280              	.LBE142:
 3281              	.LBE145:
ARM GAS  C:\Users\jenny\AppData\Local\Temp\ccLg5IEe.s 			page 59


 3282              		.loc 1 1191 0
 3283 01e0 4169     		ldr	r1, [r0, #20]
 3284 01e2 4E1E     		subs	r6, r1, #1
 3285              		.loc 1 1192 0
 3286 01e4 002E     		cmp	r6, #0
 3287              		.loc 1 1191 0
 3288 01e6 4661     		str	r6, [r0, #20]
 3289              		.loc 1 1192 0
 3290 01e8 C0F28C81 		blt	.L647
 3291              	.L517:
 3292              	.LBE148:
 3293              		.loc 1 1184 0
 3294 01ec 0126     		movs	r6, #1
 3295              	.LVL380:
 3296 01ee 5645     		cmp	r6, sl
 3297 01f0 4FF0180B 		mov	fp, #24
 3298 01f4 23D0     		beq	.L466
 3299 01f6 002B     		cmp	r3, #0
 3300 01f8 00F0AE80 		beq	.L456
 3301              		.loc 1 1185 0
 3302 01fc 002C     		cmp	r4, #0
 3303 01fe 00F0D480 		beq	.L530
 3304 0202 2378     		ldrb	r3, [r4, #0]	@ zero_extendqisi2
 3305 0204 43FA06F3 		asr	r3, r3, r6
 3306 0208 DB07     		lsls	r3, r3, #31
 3307 020a 40F1CE80 		bpl	.L530
 3308              	.L535:
 3309              	.LBB149:
 3310              	.LBB146:
 3311              	.LBB143:
 3312              		.loc 1 225 0
 3313 020e 032E     		cmp	r6, #3
 3314 0210 00F24381 		bhi	.L531
 3315              		.loc 1 228 0
 3316 0214 52F80B00 		ldr	r0, [r2, fp]
 3317 0218 0028     		cmp	r0, #0
 3318 021a 00F03E81 		beq	.L531
 3319              		.loc 1 231 0
 3320 021e 06EB4601 		add	r1, r6, r6, lsl #1
 3321 0222 02EBC100 		add	r0, r2, r1, lsl #3
 3322              	.L615:
 3323              	.LBE143:
 3324              	.LBE146:
 3325              		.loc 1 1191 0
 3326 0226 4369     		ldr	r3, [r0, #20]
 3327 0228 591E     		subs	r1, r3, #1
 3328              		.loc 1 1192 0
 3329 022a 0029     		cmp	r1, #0
 3330              		.loc 1 1191 0
 3331 022c 4161     		str	r1, [r0, #20]
 3332              		.loc 1 1192 0
 3333 022e C0F25281 		blt	.L648
 3334              	.L532:
 3335              	.LBE149:
 3336              		.loc 1 1184 0
 3337 0232 0136     		adds	r6, r6, #1
 3338 0234 5645     		cmp	r6, sl
ARM GAS  C:\Users\jenny\AppData\Local\Temp\ccLg5IEe.s 			page 60


 3339 0236 0BF1180B 		add	fp, fp, #24
 3340 023a 40F08D80 		bne	.L456
 3341              	.L466:
 3342              		.loc 1 1198 0
 3343 023e 0B9B     		ldr	r3, [sp, #44]
 3344 0240 0BB1     		cbz	r3, .L458
 3345              		.loc 1 1199 0
 3346 0242 0C9A     		ldr	r2, [sp, #48]
 3347 0244 5A60     		str	r2, [r3, #4]
 3348              	.L458:
 3349              		.loc 1 1201 0
 3350 0246 40F20000 		movw	r0, #:lower16:.LANCHOR2
 3351 024a C0F20000 		movt	r0, #:upper16:.LANCHOR2
 3352 024e 069E     		ldr	r6, [sp, #24]
 3353 0250 0168     		ldr	r1, [r0, #0]
 3354              		.loc 1 1202 0
 3355 0252 0C9A     		ldr	r2, [sp, #48]
 3356              		.loc 1 1201 0
 3357 0254 B142     		cmp	r1, r6
 3358 0256 00F04381 		beq	.L649
 3359              		.loc 1 1205 0
 3360 025a 002A     		cmp	r2, #0
 3361 025c 00F06081 		beq	.L650
 3362              	.L470:
 3363              		.loc 1 1206 0
 3364 0260 1360     		str	r3, [r2, #0]
 3365              	.L469:
 3366              		.loc 1 1209 0
 3367 0262 40F20001 		movw	r1, #:lower16:.LANCHOR3
 3368 0266 C0F20001 		movt	r1, #:upper16:.LANCHOR3
 3369              		.loc 1 1212 0
 3370 026a 11A8     		add	r0, sp, #68
 3371              		.loc 1 1209 0
 3372 026c 0A68     		ldr	r2, [r1, #0]
 3373 026e 531C     		adds	r3, r2, #1
 3374 0270 0B60     		str	r3, [r1, #0]
 3375              		.loc 1 1212 0
 3376 0272 FFF7FEFF 		bl	sys_sem_free
 3377              	.LVL381:
 3378              		.loc 1 1213 0
 3379 0276 0798     		ldr	r0, [sp, #28]
 3380 0278 431C     		adds	r3, r0, #1
 3381 027a 0BD0     		beq	.L440
 3382              		.loc 1 1222 0
 3383 027c 09A9     		add	r1, sp, #36
 3384 027e 08AE     		add	r6, sp, #32
 3385 0280 0191     		str	r1, [sp, #4]
 3386 0282 0096     		str	r6, [sp, #0]
 3387 0284 0297     		str	r7, [sp, #8]
 3388 0286 5046     		mov	r0, sl
 3389 0288 2146     		mov	r1, r4
 3390 028a 2A46     		mov	r2, r5
 3391 028c 4346     		mov	r3, r8
 3392 028e FFF7FEFF 		bl	lwip_selscan
 3393              	.LVL382:
 3394 0292 8146     		mov	r9, r0
 3395              	.LVL383:
ARM GAS  C:\Users\jenny\AppData\Local\Temp\ccLg5IEe.s 			page 61


 3396              	.L440:
 3397              		.loc 1 1228 0
 3398 0294 14B1     		cbz	r4, .L471
 3399              		.loc 1 1229 0
 3400 0296 9DF82030 		ldrb	r3, [sp, #32]	@ zero_extendqisi2
 3401 029a 2370     		strb	r3, [r4, #0]
 3402              	.L471:
 3403              		.loc 1 1231 0
 3404 029c 15B1     		cbz	r5, .L472
 3405              		.loc 1 1232 0
 3406 029e 9DF82400 		ldrb	r0, [sp, #36]	@ zero_extendqisi2
 3407 02a2 2870     		strb	r0, [r5, #0]
 3408              	.L472:
 3409              		.loc 1 1234 0
 3410 02a4 B8F1000F 		cmp	r8, #0
 3411 02a8 03D0     		beq	.L496
 3412              		.loc 1 1235 0
 3413 02aa 9DF82820 		ldrb	r2, [sp, #40]	@ zero_extendqisi2
 3414 02ae 88F80020 		strb	r2, [r8, #0]
 3415              	.LVL384:
 3416              	.L496:
 3417              		.loc 1 1240 0
 3418 02b2 4846     		mov	r0, r9
 3419 02b4 13B0     		add	sp, sp, #76
 3420 02b6 BDE8F08F 		pop	{r4, r5, r6, r7, r8, r9, sl, fp, pc}
 3421              	.LVL385:
 3422              	.L552:
 3423              		.loc 1 1153 0
 3424 02ba 4DB1     		cbz	r5, .L555
 3425              		.loc 1 1154 0
 3426 02bc 4FEAE901 		asr	r1, r9, #3
 3427 02c0 09F00703 		and	r3, r9, #7
 3428 02c4 685C     		ldrb	r0, [r5, r1]	@ zero_extendqisi2
 3429 02c6 40FA03F2 		asr	r2, r0, r3
 3430 02ca D007     		lsls	r0, r2, #31
 3431 02cc 3FF551AF 		bmi	.L557
 3432              	.L555:
 3433 02d0 B8F1000F 		cmp	r8, #0
 3434 02d4 3FF459AF 		beq	.L554
 3435              		.loc 1 1155 0
 3436 02d8 4FEAE901 		asr	r1, r9, #3
 3437 02dc 09F00703 		and	r3, r9, #7
 3438 02e0 18F80100 		ldrb	r0, [r8, r1]	@ zero_extendqisi2
 3439 02e4 40FA03F2 		asr	r2, r0, r3
 3440 02e8 D307     		lsls	r3, r2, #31
 3441 02ea 7FF54EAF 		bpl	.L554
 3442 02ee 40E7     		b	.L557
 3443              	.L624:
 3444              	.LBB150:
 3445              	.LBB134:
 3446              	.LBB129:
 3447              		.loc 1 228 0
 3448 02f0 56F80B10 		ldr	r1, [r6, fp]
 3449 02f4 0029     		cmp	r1, #0
 3450 02f6 3FF440AF 		beq	.L553
 3451              		.loc 1 231 0
 3452 02fa 09EB4903 		add	r3, r9, r9, lsl #1
ARM GAS  C:\Users\jenny\AppData\Local\Temp\ccLg5IEe.s 			page 62


 3453 02fe 06EBC300 		add	r0, r6, r3, lsl #3
 3454 0302 3DE7     		b	.L625
 3455              	.L644:
 3456              		.loc 1 228 0
 3457 0304 5BF80620 		ldr	r2, [fp, r6]
 3458 0308 002A     		cmp	r2, #0
 3459 030a 3FF418AF 		beq	.L453
 3460              		.loc 1 231 0
 3461 030e 09EB4903 		add	r3, r9, r9, lsl #1
 3462 0312 06EBC301 		add	r1, r6, r3, lsl #3
 3463 0316 15E7     		b	.L473
 3464              	.LVL386:
 3465              	.L445:
 3466              	.LBE129:
 3467              	.LBE134:
 3468              	.LBE150:
 3469              		.loc 1 1170 0
 3470 0318 1C9A     		ldr	r2, [sp, #112]
 3471 031a 002A     		cmp	r2, #0
 3472 031c 00F0FE80 		beq	.L477
 3473              		.loc 1 1174 0
 3474 0320 92E80900 		ldmia	r2, {r0, r3}
 3475              	.LVL387:
 3476 0324 44F6D356 		movw	r6, #19923
 3477 0328 03F5FA73 		add	r3, r3, #500
 3478 032c C1F26206 		movt	r6, 4194
 3479 0330 86FB0312 		smull	r1, r2, r6, r3
 3480 0334 D917     		asrs	r1, r3, #31
 3481 0336 C1EBA216 		rsb	r6, r1, r2, asr #6
 3482 033a 4FF47A73 		mov	r3, #1000
 3483 033e 03FB0061 		mla	r1, r3, r0, r6
 3484              	.LVL388:
 3485              		.loc 1 1177 0
 3486 0342 0029     		cmp	r1, #0
 3487 0344 08BF     		it	eq
 3488 0346 0121     		moveq	r1, #1
 3489              	.LVL389:
 3490              	.L455:
 3491              		.loc 1 1181 0
 3492 0348 11A8     		add	r0, sp, #68
 3493 034a FFF7FEFF 		bl	sys_arch_sem_wait
 3494              	.LVL390:
 3495 034e 0790     		str	r0, [sp, #28]
 3496              	.LVL391:
 3497 0350 32E7     		b	.L446
 3498              	.L653:
 3499 0352 00BF     		.align	2
 3500              	.L652:
 3501 0354 00000000 		.word	.LANCHOR0
 3502              	.LVL392:
 3503              	.L456:
 3504              		.loc 1 1185 0
 3505 0358 002C     		cmp	r4, #0
 3506 035a 3FD0     		beq	.L459
 3507              		.loc 1 1185 0 is_stmt 0 discriminator 1
 3508 035c F010     		asrs	r0, r6, #3
 3509 035e 06F00703 		and	r3, r6, #7
ARM GAS  C:\Users\jenny\AppData\Local\Temp\ccLg5IEe.s 			page 63


 3510 0362 215C     		ldrb	r1, [r4, r0]	@ zero_extendqisi2
 3511 0364 41FA03F0 		asr	r0, r1, r3
 3512 0368 C007     		lsls	r0, r0, #31
 3513 036a 37D5     		bpl	.L459
 3514              	.L460:
 3515              	.LBB151:
 3516              	.LBB147:
 3517              	.LBB144:
 3518              		.loc 1 225 0 is_stmt 1
 3519 036c 032E     		cmp	r6, #3
 3520 036e 00F29A80 		bhi	.L465
 3521              		.loc 1 228 0
 3522 0372 5BF80230 		ldr	r3, [fp, r2]
 3523 0376 002B     		cmp	r3, #0
 3524 0378 00F09580 		beq	.L465
 3525              		.loc 1 231 0
 3526 037c 06EB4601 		add	r1, r6, r6, lsl #1
 3527 0380 02EBC100 		add	r0, r2, r1, lsl #3
 3528              	.L474:
 3529              	.LBE144:
 3530              	.LBE147:
 3531              		.loc 1 1191 0
 3532 0384 4369     		ldr	r3, [r0, #20]
 3533 0386 591E     		subs	r1, r3, #1
 3534              		.loc 1 1192 0
 3535 0388 0029     		cmp	r1, #0
 3536              		.loc 1 1191 0
 3537 038a 4161     		str	r1, [r0, #20]
 3538              		.loc 1 1192 0
 3539 038c C0F2B580 		blt	.L651
 3540              	.L463:
 3541              	.LBE151:
 3542              		.loc 1 1184 0
 3543 0390 0136     		adds	r6, r6, #1
 3544 0392 0BF1180B 		add	fp, fp, #24
 3545              		.loc 1 1185 0
 3546 0396 44B1     		cbz	r4, .L530
 3547 0398 F010     		asrs	r0, r6, #3
 3548 039a 06F00703 		and	r3, r6, #7
 3549 039e 215C     		ldrb	r1, [r4, r0]	@ zero_extendqisi2
 3550 03a0 41FA03F0 		asr	r0, r1, r3
 3551 03a4 C307     		lsls	r3, r0, #31
 3552 03a6 3FF532AF 		bmi	.L535
 3553              	.L530:
 3554 03aa 45B1     		cbz	r5, .L533
 3555              		.loc 1 1186 0
 3556 03ac F110     		asrs	r1, r6, #3
 3557 03ae 06F00703 		and	r3, r6, #7
 3558 03b2 685C     		ldrb	r0, [r5, r1]	@ zero_extendqisi2
 3559 03b4 40FA03F1 		asr	r1, r0, r3
 3560 03b8 C907     		lsls	r1, r1, #31
 3561 03ba 3FF528AF 		bmi	.L535
 3562              	.L533:
 3563 03be B8F1000F 		cmp	r8, #0
 3564 03c2 3FF436AF 		beq	.L532
 3565              		.loc 1 1187 0
 3566 03c6 F010     		asrs	r0, r6, #3
ARM GAS  C:\Users\jenny\AppData\Local\Temp\ccLg5IEe.s 			page 64


 3567 03c8 06F00703 		and	r3, r6, #7
 3568 03cc 18F80010 		ldrb	r1, [r8, r0]	@ zero_extendqisi2
 3569 03d0 41FA03F0 		asr	r0, r1, r3
 3570 03d4 C007     		lsls	r0, r0, #31
 3571 03d6 7FF52CAF 		bpl	.L532
 3572 03da 18E7     		b	.L535
 3573              	.L459:
 3574              		.loc 1 1185 0 discriminator 2
 3575 03dc 3DB1     		cbz	r5, .L461
 3576              		.loc 1 1186 0
 3577 03de F110     		asrs	r1, r6, #3
 3578 03e0 06F00703 		and	r3, r6, #7
 3579 03e4 685C     		ldrb	r0, [r5, r1]	@ zero_extendqisi2
 3580 03e6 40FA03F1 		asr	r1, r0, r3
 3581 03ea C907     		lsls	r1, r1, #31
 3582 03ec BED4     		bmi	.L460
 3583              	.L461:
 3584              		.loc 1 1186 0 is_stmt 0 discriminator 1
 3585 03ee B8F1000F 		cmp	r8, #0
 3586 03f2 CDD0     		beq	.L463
 3587              		.loc 1 1187 0 is_stmt 1
 3588 03f4 F010     		asrs	r0, r6, #3
 3589 03f6 06F00703 		and	r3, r6, #7
 3590 03fa 18F80010 		ldrb	r1, [r8, r0]	@ zero_extendqisi2
 3591 03fe 41FA03F0 		asr	r0, r1, r3
 3592 0402 C307     		lsls	r3, r0, #31
 3593 0404 C4D5     		bpl	.L463
 3594 0406 B1E7     		b	.L460
 3595              	.LVL393:
 3596              	.L515:
 3597              		.loc 1 1185 0
 3598 0408 1DB1     		cbz	r5, .L518
 3599              		.loc 1 1186 0
 3600 040a 2E78     		ldrb	r6, [r5, #0]	@ zero_extendqisi2
 3601 040c F007     		lsls	r0, r6, #31
 3602 040e 3FF5E2AE 		bmi	.L520
 3603              	.L518:
 3604 0412 B8F1000F 		cmp	r8, #0
 3605 0416 3FF4E9AE 		beq	.L517
 3606              		.loc 1 1187 0
 3607 041a 98F80000 		ldrb	r0, [r8, #0]	@ zero_extendqisi2
 3608 041e C607     		lsls	r6, r0, #31
 3609 0420 7FF5E4AE 		bpl	.L517
 3610 0424 D7E6     		b	.L520
 3611              	.LVL394:
 3612              	.L537:
 3613              		.loc 1 1153 0
 3614 0426 1DB1     		cbz	r5, .L540
 3615              		.loc 1 1154 0
 3616 0428 2B78     		ldrb	r3, [r5, #0]	@ zero_extendqisi2
 3617 042a DA07     		lsls	r2, r3, #31
 3618 042c 3FF53AAE 		bmi	.L542
 3619              	.L540:
 3620 0430 B8F1000F 		cmp	r8, #0
 3621 0434 3FF443AE 		beq	.L539
 3622              		.loc 1 1155 0
 3623 0438 98F80000 		ldrb	r0, [r8, #0]	@ zero_extendqisi2
ARM GAS  C:\Users\jenny\AppData\Local\Temp\ccLg5IEe.s 			page 65


 3624 043c C007     		lsls	r0, r0, #31
 3625 043e 7FF53EAE 		bpl	.L539
 3626 0442 2FE6     		b	.L542
 3627              	.LVL395:
 3628              	.L449:
 3629              		.loc 1 1154 0 discriminator 1
 3630 0444 B8F1000F 		cmp	r8, #0
 3631 0448 3FF482AE 		beq	.L451
 3632              		.loc 1 1155 0
 3633 044c 4FEAE902 		asr	r2, r9, #3
 3634 0450 09F00703 		and	r3, r9, #7
 3635 0454 18F80210 		ldrb	r1, [r8, r2]	@ zero_extendqisi2
 3636 0458 41FA03F0 		asr	r0, r1, r3
 3637 045c C307     		lsls	r3, r0, #31
 3638 045e 7FF577AE 		bpl	.L451
 3639 0462 68E6     		b	.L448
 3640              	.L544:
 3641              		.loc 1 1153 0
 3642 0464 4DB1     		cbz	r5, .L547
 3643              		.loc 1 1154 0
 3644 0466 4FEAE903 		asr	r3, r9, #3
 3645 046a 09F00700 		and	r0, r9, #7
 3646 046e E95C     		ldrb	r1, [r5, r3]	@ zero_extendqisi2
 3647 0470 41FA00F2 		asr	r2, r1, r0
 3648 0474 D107     		lsls	r1, r2, #31
 3649 0476 3FF532AE 		bmi	.L549
 3650              	.L547:
 3651 047a B8F1000F 		cmp	r8, #0
 3652 047e 3FF484AE 		beq	.L554
 3653              		.loc 1 1155 0
 3654 0482 4FEAE903 		asr	r3, r9, #3
 3655 0486 09F00700 		and	r0, r9, #7
 3656 048a 18F80310 		ldrb	r1, [r8, r3]	@ zero_extendqisi2
 3657 048e 41FA00F2 		asr	r2, r1, r0
 3658 0492 D007     		lsls	r0, r2, #31
 3659 0494 7FF579AE 		bpl	.L554
 3660 0498 21E6     		b	.L549
 3661              	.LVL396:
 3662              	.L531:
 3663              	.LBB152:
 3664              		.loc 1 1189 0
 3665 049a 0492     		str	r2, [sp, #16]
 3666 049c FFF7FEFF 		bl	port_halt
 3667              	.LVL397:
 3668 04a0 0020     		movs	r0, #0
 3669 04a2 049A     		ldr	r2, [sp, #16]
 3670 04a4 BFE6     		b	.L615
 3671              	.L465:
 3672 04a6 0492     		str	r2, [sp, #16]
 3673 04a8 FFF7FEFF 		bl	port_halt
 3674              	.LVL398:
 3675 04ac 0020     		movs	r0, #0
 3676 04ae 049A     		ldr	r2, [sp, #16]
 3677 04b0 68E7     		b	.L474
 3678              	.LVL399:
 3679              	.L646:
 3680 04b2 0492     		str	r2, [sp, #16]
ARM GAS  C:\Users\jenny\AppData\Local\Temp\ccLg5IEe.s 			page 66


 3681 04b4 0593     		str	r3, [sp, #20]
 3682 04b6 FFF7FEFF 		bl	port_halt
 3683              	.LVL400:
 3684 04ba 3046     		mov	r0, r6
 3685 04bc 059B     		ldr	r3, [sp, #20]
 3686 04be 049A     		ldr	r2, [sp, #16]
 3687 04c0 8EE6     		b	.L608
 3688              	.LVL401:
 3689              	.L642:
 3690              	.LBE152:
 3691              	.LBB153:
 3692              		.loc 1 1157 0
 3693 04c2 0591     		str	r1, [sp, #20]
 3694 04c4 FFF7FEFF 		bl	port_halt
 3695              	.LVL402:
 3696 04c8 4A46     		mov	r2, r9
 3697 04ca 0599     		ldr	r1, [sp, #20]
 3698 04cc F1E5     		b	.L618
 3699              	.LVL403:
 3700              	.L545:
 3701 04ce FFF7FEFF 		bl	port_halt
 3702              	.LVL404:
 3703 04d2 0021     		movs	r1, #0
 3704 04d4 10E6     		b	.L622
 3705              	.LVL405:
 3706              	.L648:
 3707              	.LBE153:
 3708              	.LBB154:
 3709              		.loc 1 1192 0
 3710 04d6 0492     		str	r2, [sp, #16]
 3711 04d8 FFF7FEFF 		bl	port_halt
 3712              	.LVL406:
 3713 04dc 049A     		ldr	r2, [sp, #16]
 3714 04de A8E6     		b	.L532
 3715              	.L649:
 3716              	.LBE154:
 3717              		.loc 1 1202 0
 3718 04e0 12B1     		cbz	r2, .L468
 3719              		.loc 1 1202 0 is_stmt 0 discriminator 1
 3720 04e2 FFF7FEFF 		bl	port_halt
 3721              	.LVL407:
 3722 04e6 0B9B     		ldr	r3, [sp, #44]
 3723              	.L468:
 3724              		.loc 1 1203 0 is_stmt 1
 3725 04e8 40F20000 		movw	r0, #:lower16:.LANCHOR2
 3726 04ec C0F20000 		movt	r0, #:upper16:.LANCHOR2
 3727 04f0 0360     		str	r3, [r0, #0]
 3728 04f2 B6E6     		b	.L469
 3729              	.LVL408:
 3730              	.L645:
 3731              	.LBB155:
 3732              		.loc 1 1160 0 discriminator 1
 3733 04f4 FFF7FEFF 		bl	port_halt
 3734              	.LVL409:
 3735 04f8 2AE6     		b	.L451
 3736              	.LVL410:
 3737              	.L651:
ARM GAS  C:\Users\jenny\AppData\Local\Temp\ccLg5IEe.s 			page 67


 3738              	.LBE155:
 3739              	.LBB156:
 3740              		.loc 1 1192 0 discriminator 1
 3741 04fa 0492     		str	r2, [sp, #16]
 3742 04fc FFF7FEFF 		bl	port_halt
 3743              	.LVL411:
 3744 0500 049A     		ldr	r2, [sp, #16]
 3745 0502 45E7     		b	.L463
 3746              	.LVL412:
 3747              	.L647:
 3748              		.loc 1 1192 0 is_stmt 0
 3749 0504 0492     		str	r2, [sp, #16]
 3750 0506 0593     		str	r3, [sp, #20]
 3751 0508 FFF7FEFF 		bl	port_halt
 3752              	.LVL413:
 3753 050c 049A     		ldr	r2, [sp, #16]
 3754 050e 059B     		ldr	r3, [sp, #20]
 3755 0510 6CE6     		b	.L517
 3756              	.LVL414:
 3757              	.L643:
 3758              	.LBE156:
 3759              	.LBB157:
 3760              		.loc 1 1160 0 is_stmt 1
 3761 0512 0591     		str	r1, [sp, #20]
 3762 0514 FFF7FEFF 		bl	port_halt
 3763              	.LVL415:
 3764 0518 0599     		ldr	r1, [sp, #20]
 3765 051a D0E5     		b	.L539
 3766              	.LVL416:
 3767              	.L477:
 3768              	.LBE157:
 3769              		.loc 1 1172 0
 3770 051c 0146     		mov	r1, r0
 3771 051e 13E7     		b	.L455
 3772              	.LVL417:
 3773              	.L650:
 3774              		.loc 1 1205 0 discriminator 1
 3775 0520 FFF7FEFF 		bl	port_halt
 3776              	.LVL418:
 3777 0524 0C9A     		ldr	r2, [sp, #48]
 3778 0526 0B9B     		ldr	r3, [sp, #44]
 3779 0528 9AE6     		b	.L470
 3780              	.LVL419:
 3781              	.L475:
 3782              		.loc 1 1133 0
 3783 052a 4FF0FF39 		mov	r9, #-1
 3784              	.LVL420:
 3785 052e C0E6     		b	.L496
 3786              		.cfi_endproc
 3787              	.LFE25:
 3788              		.size	lwip_select, .-lwip_select
 3789              		.section	.text.lwip_shutdown,"ax",%progbits
 3790              		.align	2
 3791              		.p2align 4,,15
 3792              		.global	lwip_shutdown
 3793              		.thumb
 3794              		.thumb_func
ARM GAS  C:\Users\jenny\AppData\Local\Temp\ccLg5IEe.s 			page 68


 3795              		.type	lwip_shutdown, %function
 3796              	lwip_shutdown:
 3797              	.LFB27:
 3798              		.loc 1 1371 0
 3799              		.cfi_startproc
 3800              		@ args = 0, pretend = 0, frame = 0
 3801              		@ frame_needed = 0, uses_anonymous_args = 0
 3802              	.LVL421:
 3803              	.LBB158:
 3804              	.LBB159:
 3805              		.loc 1 199 0
 3806 0000 0328     		cmp	r0, #3
 3807              	.LBE159:
 3808              	.LBE158:
 3809              		.loc 1 1371 0
 3810 0002 10B5     		push	{r4, lr}
 3811              	.LCFI31:
 3812              		.cfi_def_cfa_offset 8
 3813              		.cfi_offset 4, -8
 3814              		.cfi_offset 14, -4
 3815              	.LBB162:
 3816              	.LBB160:
 3817              		.loc 1 199 0
 3818 0004 0CD8     		bhi	.L662
 3819              		.loc 1 205 0
 3820 0006 00EB4000 		add	r0, r0, r0, lsl #1
 3821              	.LVL422:
 3822 000a 174B     		ldr	r3, .L672
 3823 000c C200     		lsls	r2, r0, #3
 3824 000e 9C18     		adds	r4, r3, r2
 3825              	.LVL423:
 3826              		.loc 1 207 0
 3827 0010 9858     		ldr	r0, [r3, r2]
 3828 0012 28B1     		cbz	r0, .L662
 3829              	.LBE160:
 3830              	.LBE162:
 3831              		.loc 1 1384 0
 3832 0014 0378     		ldrb	r3, [r0, #0]	@ zero_extendqisi2
 3833 0016 102B     		cmp	r3, #16
 3834 0018 05D0     		beq	.L671
 3835              		.loc 1 1385 0
 3836 001a 5F20     		movs	r0, #95
 3837 001c 2061     		str	r0, [r4, #16]
 3838              		.loc 1 1386 0
 3839 001e 10BD     		pop	{r4, pc}
 3840              	.LVL424:
 3841              	.L662:
 3842              	.LBB163:
 3843              	.LBB161:
 3844              		.loc 1 1380 0
 3845 0020 4FF0FF30 		mov	r0, #-1
 3846 0024 10BD     		pop	{r4, pc}
 3847              	.LVL425:
 3848              	.L671:
 3849              	.LBE161:
 3850              	.LBE163:
 3851              		.loc 1 1393 0
ARM GAS  C:\Users\jenny\AppData\Local\Temp\ccLg5IEe.s 			page 69


 3852 0026 31B1     		cbz	r1, .L663
 3853              		.loc 1 1395 0
 3854 0028 0129     		cmp	r1, #1
 3855 002a 16D0     		beq	.L664
 3856              		.loc 1 1397 0
 3857 002c 0229     		cmp	r1, #2
 3858 002e 17D0     		beq	.L665
 3859              		.loc 1 1401 0
 3860 0030 1620     		movs	r0, #22
 3861 0032 2061     		str	r0, [r4, #16]
 3862              		.loc 1 1402 0
 3863 0034 10BD     		pop	{r4, pc}
 3864              	.L663:
 3865              		.loc 1 1374 0
 3866 0036 0A46     		mov	r2, r1
 3867              		.loc 1 1394 0
 3868 0038 0121     		movs	r1, #1
 3869              	.LVL426:
 3870              	.L657:
 3871              		.loc 1 1404 0
 3872 003a FFF7FEFF 		bl	netconn_shutdown
 3873              	.LVL427:
 3874              		.loc 1 1406 0
 3875 003e 4142     		negs	r1, r0
 3876 0040 0F29     		cmp	r1, #15
 3877 0042 9ABF     		itte	ls
 3878 0044 094A     		ldrls	r2, .L672+4
 3879 0046 52F82110 		ldrls	r1, [r2, r1, lsl #2]
 3880 004a 0521     		movhi	r1, #5
 3881 004c 2161     		str	r1, [r4, #16]
 3882              		.loc 1 1407 0
 3883 004e 0028     		cmp	r0, #0
 3884 0050 14BF     		ite	ne
 3885 0052 4FF0FF30 		movne	r0, #-1
 3886 0056 0020     		moveq	r0, #0
 3887              	.LVL428:
 3888 0058 10BD     		pop	{r4, pc}
 3889              	.LVL429:
 3890              	.L664:
 3891              		.loc 1 1396 0
 3892 005a 0A46     		mov	r2, r1
 3893              		.loc 1 1374 0
 3894 005c 0021     		movs	r1, #0
 3895              	.LVL430:
 3896 005e ECE7     		b	.L657
 3897              	.LVL431:
 3898              	.L665:
 3899              		.loc 1 1399 0
 3900 0060 0122     		movs	r2, #1
 3901              		.loc 1 1398 0
 3902 0062 1146     		mov	r1, r2
 3903              	.LVL432:
 3904 0064 E9E7     		b	.L657
 3905              	.L673:
 3906 0066 00BF     		.align	2
 3907              	.L672:
 3908 0068 00000000 		.word	.LANCHOR0
ARM GAS  C:\Users\jenny\AppData\Local\Temp\ccLg5IEe.s 			page 70


 3909 006c 00000000 		.word	.LANCHOR1
 3910              		.cfi_endproc
 3911              	.LFE27:
 3912              		.size	lwip_shutdown, .-lwip_shutdown
 3913              		.section	.text.lwip_getpeername,"ax",%progbits
 3914              		.align	2
 3915              		.p2align 4,,15
 3916              		.global	lwip_getpeername
 3917              		.thumb
 3918              		.thumb_func
 3919              		.type	lwip_getpeername, %function
 3920              	lwip_getpeername:
 3921              	.LFB29:
 3922              		.loc 1 1447 0
 3923              		.cfi_startproc
 3924              		@ args = 0, pretend = 0, frame = 0
 3925              		@ frame_needed = 0, uses_anonymous_args = 0
 3926              		@ link register save eliminated.
 3927              	.LVL433:
 3928              		.loc 1 1448 0
 3929 0000 0023     		movs	r3, #0
 3930              		.loc 1 1449 0
 3931              		.loc 1 1448 0
 3932 0002 FFF7FEBF 		b	lwip_getaddrname
 3933              	.LVL434:
 3934              		.cfi_endproc
 3935              	.LFE29:
 3936              		.size	lwip_getpeername, .-lwip_getpeername
 3937 0006 00BFAFF3 		.section	.text.lwip_getsockname,"ax",%progbits
 3937      0080AFF3 
 3937      0080
 3938              		.align	2
 3939              		.p2align 4,,15
 3940              		.global	lwip_getsockname
 3941              		.thumb
 3942              		.thumb_func
 3943              		.type	lwip_getsockname, %function
 3944              	lwip_getsockname:
 3945              	.LFB30:
 3946              		.loc 1 1453 0
 3947              		.cfi_startproc
 3948              		@ args = 0, pretend = 0, frame = 0
 3949              		@ frame_needed = 0, uses_anonymous_args = 0
 3950              		@ link register save eliminated.
 3951              	.LVL435:
 3952              		.loc 1 1454 0
 3953 0000 0123     		movs	r3, #1
 3954              		.loc 1 1455 0
 3955              		.loc 1 1454 0
 3956 0002 FFF7FEBF 		b	lwip_getaddrname
 3957              	.LVL436:
 3958              		.cfi_endproc
 3959              	.LFE30:
 3960              		.size	lwip_getsockname, .-lwip_getsockname
 3961 0006 00BFAFF3 		.section	.text.lwip_getsockopt,"ax",%progbits
 3961      0080AFF3 
 3961      0080
ARM GAS  C:\Users\jenny\AppData\Local\Temp\ccLg5IEe.s 			page 71


 3962              		.align	2
 3963              		.p2align 4,,15
 3964              		.global	lwip_getsockopt
 3965              		.thumb
 3966              		.thumb_func
 3967              		.type	lwip_getsockopt, %function
 3968              	lwip_getsockopt:
 3969              	.LFB31:
 3970              		.loc 1 1459 0
 3971              		.cfi_startproc
 3972              		@ args = 4, pretend = 0, frame = 24
 3973              		@ frame_needed = 0, uses_anonymous_args = 0
 3974              	.LVL437:
 3975 0000 2DE9F041 		push	{r4, r5, r6, r7, r8, lr}
 3976              	.LCFI32:
 3977              		.cfi_def_cfa_offset 24
 3978              		.cfi_offset 4, -24
 3979              		.cfi_offset 5, -20
 3980              		.cfi_offset 6, -16
 3981              		.cfi_offset 7, -12
 3982              		.cfi_offset 8, -8
 3983              		.cfi_offset 14, -4
 3984 0004 86B0     		sub	sp, sp, #24
 3985              	.LCFI33:
 3986              		.cfi_def_cfa_offset 48
 3987              	.LBB164:
 3988              	.LBB165:
 3989              		.loc 1 199 0
 3990 0006 0328     		cmp	r0, #3
 3991              	.LBE165:
 3992              	.LBE164:
 3993              		.loc 1 1459 0
 3994 0008 0C46     		mov	r4, r1
 3995 000a 1746     		mov	r7, r2
 3996 000c 0C9D     		ldr	r5, [sp, #48]
 3997              	.LBB167:
 3998              	.LBB166:
 3999              		.loc 1 199 0
 4000 000e 16D8     		bhi	.L729
 4001              		.loc 1 205 0
 4002 0010 00EB4000 		add	r0, r0, r0, lsl #1
 4003              	.LVL438:
 4004 0014 374A     		ldr	r2, .L733
 4005              	.LVL439:
 4006 0016 C100     		lsls	r1, r0, #3
 4007              	.LVL440:
 4008 0018 5618     		adds	r6, r2, r1
 4009              	.LVL441:
 4010              		.loc 1 207 0
 4011 001a 5158     		ldr	r1, [r2, r1]
 4012 001c 79B1     		cbz	r1, .L729
 4013              	.LBE166:
 4014              	.LBE167:
 4015              		.loc 1 1468 0
 4016 001e 002B     		cmp	r3, #0
 4017 0020 62D0     		beq	.L693
 4018              		.loc 1 1468 0 is_stmt 0 discriminator 1
ARM GAS  C:\Users\jenny\AppData\Local\Temp\ccLg5IEe.s 			page 72


 4019 0022 002D     		cmp	r5, #0
 4020 0024 60D0     		beq	.L693
 4021              		.loc 1 1474 0 is_stmt 1
 4022 0026 062C     		cmp	r4, #6
 4023 0028 37D0     		beq	.L684
 4024 002a 40F6FF70 		movw	r0, #4095
 4025 002e 8442     		cmp	r4, r0
 4026 0030 0AD0     		beq	.L685
 4027 0032 14B9     		cbnz	r4, .L702
 4028              		.loc 1 1533 0
 4029 0034 7A1E     		subs	r2, r7, #1
 4030 0036 012A     		cmp	r2, #1
 4031 0038 0DD9     		bls	.L730
 4032              	.L702:
 4033 003a 5C20     		movs	r0, #92
 4034              	.LVL442:
 4035              	.L695:
 4036              		.loc 1 1634 0
 4037 003c 3061     		str	r0, [r6, #16]
 4038              	.LVL443:
 4039              	.L729:
 4040              		.loc 1 1635 0
 4041 003e 4FF0FF30 		mov	r0, #-1
 4042              	.L724:
 4043              		.loc 1 1655 0
 4044 0042 06B0     		add	sp, sp, #24
 4045 0044 BDE8F081 		pop	{r4, r5, r6, r7, r8, pc}
 4046              	.LVL444:
 4047              	.L685:
 4048              		.loc 1 1478 0
 4049 0048 202F     		cmp	r7, #32
 4050 004a 04D0     		beq	.L730
 4051 004c 2DDC     		bgt	.L688
 4052 004e 022F     		cmp	r7, #2
 4053 0050 01D0     		beq	.L730
 4054 0052 082F     		cmp	r7, #8
 4055 0054 F1D1     		bne	.L702
 4056              	.L730:
 4057              		.loc 1 1539 0
 4058 0056 2A68     		ldr	r2, [r5, #0]
 4059 0058 032A     		cmp	r2, #3
 4060 005a 04D8     		bhi	.L689
 4061              	.L704:
 4062              		.loc 1 1574 0
 4063 005c 1620     		movs	r0, #22
 4064              	.LVL445:
 4065 005e EDE7     		b	.L695
 4066              	.LVL446:
 4067              	.L731:
 4068 0060 7A1E     		subs	r2, r7, #1
 4069 0062 012A     		cmp	r2, #1
 4070 0064 E9D8     		bhi	.L702
 4071              	.LVL447:
 4072              	.L689:
 4073              		.loc 1 1647 0
 4074 0066 4FF00008 		mov	r8, #0
 4075              		.loc 1 1648 0
ARM GAS  C:\Users\jenny\AppData\Local\Temp\ccLg5IEe.s 			page 73


 4076 006a 6946     		mov	r1, sp
 4077 006c 0122     		movs	r2, #1
 4078 006e 2248     		ldr	r0, .L733+4
 4079              		.loc 1 1645 0
 4080 0070 0393     		str	r3, [sp, #12]
 4081              		.loc 1 1639 0
 4082 0072 0096     		str	r6, [sp, #0]
 4083              		.loc 1 1643 0
 4084 0074 0194     		str	r4, [sp, #4]
 4085              		.loc 1 1644 0
 4086 0076 0297     		str	r7, [sp, #8]
 4087              		.loc 1 1646 0
 4088 0078 0495     		str	r5, [sp, #16]
 4089              		.loc 1 1647 0
 4090 007a 8DF81480 		strb	r8, [sp, #20]
 4091              		.loc 1 1648 0
 4092 007e FFF7FEFF 		bl	tcpip_callback_with_block
 4093              	.LVL448:
 4094              		.loc 1 1649 0
 4095 0082 3068     		ldr	r0, [r6, #0]
 4096 0084 4146     		mov	r1, r8
 4097 0086 0C30     		adds	r0, r0, #12
 4098 0088 FFF7FEFF 		bl	sys_arch_sem_wait
 4099              	.LVL449:
 4100              		.loc 1 1651 0
 4101 008c 9DF81400 		ldrb	r0, [sp, #20]	@ zero_extendqisi2
 4102              	.LVL450:
 4103              		.loc 1 1653 0
 4104 0090 43B2     		sxtb	r3, r0
 4105 0092 3361     		str	r3, [r6, #16]
 4106              		.loc 1 1654 0
 4107 0094 0028     		cmp	r0, #0
 4108 0096 D2D1     		bne	.L729
 4109 0098 D3E7     		b	.L724
 4110              	.LVL451:
 4111              	.L684:
 4112              		.loc 1 1574 0
 4113 009a 2868     		ldr	r0, [r5, #0]
 4114 009c 0328     		cmp	r0, #3
 4115 009e DDD9     		bls	.L704
 4116              		.loc 1 1580 0
 4117 00a0 0978     		ldrb	r1, [r1, #0]	@ zero_extendqisi2
 4118 00a2 1029     		cmp	r1, #16
 4119 00a4 DCD0     		beq	.L731
 4120              		.loc 1 1581 0
 4121 00a6 0020     		movs	r0, #0
 4122 00a8 CBE7     		b	.L724
 4123              	.L688:
 4124              		.loc 1 1478 0
 4125 00aa 41F20700 		movw	r0, #4103
 4126 00ae 8742     		cmp	r7, r0
 4127 00b0 C3DB     		blt	.L702
 4128 00b2 421C     		adds	r2, r0, #1
 4129 00b4 9742     		cmp	r7, r2
 4130 00b6 CEDD     		ble	.L730
 4131 00b8 901C     		adds	r0, r2, #2
 4132 00ba 8742     		cmp	r7, r0
ARM GAS  C:\Users\jenny\AppData\Local\Temp\ccLg5IEe.s 			page 74


 4133 00bc BDD1     		bne	.L702
 4134              		.loc 1 1512 0
 4135 00be 2A68     		ldr	r2, [r5, #0]
 4136              		.loc 1 1516 0
 4137 00c0 0878     		ldrb	r0, [r1, #0]	@ zero_extendqisi2
 4138              		.loc 1 1460 0
 4139 00c2 032A     		cmp	r2, #3
 4140 00c4 94BF     		ite	ls
 4141 00c6 1622     		movls	r2, #22
 4142 00c8 0022     		movhi	r2, #0
 4143              	.LVL452:
 4144              		.loc 1 1516 0
 4145 00ca 2028     		cmp	r0, #32
 4146 00cc 01D0     		beq	.L732
 4147              	.L701:
 4148 00ce 6120     		movs	r0, #97
 4149 00d0 B4E7     		b	.L695
 4150              	.L732:
 4151              		.loc 1 1517 0 discriminator 1
 4152 00d2 4968     		ldr	r1, [r1, #4]
 4153 00d4 087C     		ldrb	r0, [r1, #16]	@ zero_extendqisi2
 4154              		.loc 1 1516 0 discriminator 1
 4155 00d6 00F00201 		and	r1, r0, #2
 4156 00da C8B2     		uxtb	r0, r1
 4157 00dc 0028     		cmp	r0, #0
 4158 00de F6D1     		bne	.L701
 4159              		.loc 1 1633 0
 4160 00e0 002A     		cmp	r2, #0
 4161 00e2 C0D0     		beq	.L689
 4162 00e4 50B2     		sxtb	r0, r2
 4163 00e6 A9E7     		b	.L695
 4164              	.LVL453:
 4165              	.L693:
 4166              		.loc 1 1469 0
 4167 00e8 0E21     		movs	r1, #14
 4168 00ea 3161     		str	r1, [r6, #16]
 4169              		.loc 1 1470 0
 4170 00ec 4FF0FF30 		mov	r0, #-1
 4171 00f0 A7E7     		b	.L724
 4172              	.L734:
 4173 00f2 00BF     		.align	2
 4174              	.L733:
 4175 00f4 00000000 		.word	.LANCHOR0
 4176 00f8 00000000 		.word	lwip_getsockopt_internal
 4177              		.cfi_endproc
 4178              	.LFE31:
 4179              		.size	lwip_getsockopt, .-lwip_getsockopt
 4180 00fc AFF30080 		.section	.text.lwip_setsockopt,"ax",%progbits
 4181              		.align	2
 4182              		.p2align 4,,15
 4183              		.global	lwip_setsockopt
 4184              		.thumb
 4185              		.thumb_func
 4186              		.type	lwip_setsockopt, %function
 4187              	lwip_setsockopt:
 4188              	.LFB33:
 4189              		.loc 1 1867 0
ARM GAS  C:\Users\jenny\AppData\Local\Temp\ccLg5IEe.s 			page 75


 4190              		.cfi_startproc
 4191              		@ args = 4, pretend = 0, frame = 24
 4192              		@ frame_needed = 0, uses_anonymous_args = 0
 4193              	.LVL454:
 4194 0000 F0B5     		push	{r4, r5, r6, r7, lr}
 4195              	.LCFI34:
 4196              		.cfi_def_cfa_offset 20
 4197              		.cfi_offset 4, -20
 4198              		.cfi_offset 5, -16
 4199              		.cfi_offset 6, -12
 4200              		.cfi_offset 7, -8
 4201              		.cfi_offset 14, -4
 4202              	.LBB168:
 4203              	.LBB169:
 4204              		.loc 1 199 0
 4205 0002 0328     		cmp	r0, #3
 4206              	.LBE169:
 4207              	.LBE168:
 4208              		.loc 1 1867 0
 4209 0004 87B0     		sub	sp, sp, #28
 4210              	.LCFI35:
 4211              		.cfi_def_cfa_offset 48
 4212              		.loc 1 1867 0
 4213 0006 0C46     		mov	r4, r1
 4214 0008 1646     		mov	r6, r2
 4215              	.LBB171:
 4216              	.LBB170:
 4217              		.loc 1 199 0
 4218 000a 14D8     		bhi	.L781
 4219              		.loc 1 205 0
 4220 000c 00EB4000 		add	r0, r0, r0, lsl #1
 4221              	.LVL455:
 4222 0010 314A     		ldr	r2, .L786
 4223              	.LVL456:
 4224 0012 C100     		lsls	r1, r0, #3
 4225              	.LVL457:
 4226 0014 5518     		adds	r5, r2, r1
 4227              	.LVL458:
 4228              		.loc 1 207 0
 4229 0016 5158     		ldr	r1, [r2, r1]
 4230 0018 69B1     		cbz	r1, .L781
 4231              	.LVL459:
 4232              	.LBE170:
 4233              	.LBE171:
 4234              		.loc 1 1876 0
 4235 001a 002B     		cmp	r3, #0
 4236 001c 56D0     		beq	.L783
 4237              		.loc 1 1882 0
 4238 001e 062C     		cmp	r4, #6
 4239 0020 37D0     		beq	.L742
 4240 0022 40F6FF70 		movw	r0, #4095
 4241 0026 8442     		cmp	r4, r0
 4242 0028 09D0     		beq	.L743
 4243 002a 14B9     		cbnz	r4, .L759
 4244              		.loc 1 1936 0
 4245 002c 721E     		subs	r2, r6, #1
 4246 002e 012A     		cmp	r2, #1
ARM GAS  C:\Users\jenny\AppData\Local\Temp\ccLg5IEe.s 			page 76


 4247 0030 0DD9     		bls	.L782
 4248              	.L759:
 4249 0032 5C20     		movs	r0, #92
 4250              	.LVL460:
 4251              	.L752:
 4252              		.loc 1 2050 0
 4253 0034 2861     		str	r0, [r5, #16]
 4254              	.LVL461:
 4255              	.L781:
 4256              		.loc 1 2051 0
 4257 0036 4FF0FF30 		mov	r0, #-1
 4258              	.L775:
 4259              		.loc 1 2072 0
 4260 003a 07B0     		add	sp, sp, #28
 4261 003c F0BD     		pop	{r4, r5, r6, r7, pc}
 4262              	.LVL462:
 4263              	.L743:
 4264              		.loc 1 1886 0
 4265 003e 202E     		cmp	r6, #32
 4266 0040 05D0     		beq	.L782
 4267 0042 41F20A00 		movw	r0, #4106
 4268 0046 8642     		cmp	r6, r0
 4269 0048 2BD0     		beq	.L745
 4270 004a 082E     		cmp	r6, #8
 4271 004c F1D1     		bne	.L759
 4272              	.L782:
 4273              		.loc 1 1942 0
 4274 004e 0C9A     		ldr	r2, [sp, #48]
 4275 0050 032A     		cmp	r2, #3
 4276 0052 04D8     		bhi	.L746
 4277              	.L761:
 4278              		.loc 1 1991 0
 4279 0054 1620     		movs	r0, #22
 4280              	.LVL463:
 4281 0056 EDE7     		b	.L752
 4282              	.LVL464:
 4283              	.L784:
 4284 0058 721E     		subs	r2, r6, #1
 4285 005a 012A     		cmp	r2, #1
 4286 005c E9D8     		bhi	.L759
 4287              	.LVL465:
 4288              	.L746:
 4289              		.loc 1 2064 0
 4290 005e 0027     		movs	r7, #0
 4291              		.loc 1 2065 0
 4292 0060 6946     		mov	r1, sp
 4293 0062 0122     		movs	r2, #1
 4294              		.loc 1 2062 0
 4295 0064 0393     		str	r3, [sp, #12]
 4296              		.loc 1 2065 0
 4297 0066 1D48     		ldr	r0, .L786+4
 4298              		.loc 1 2056 0
 4299 0068 0095     		str	r5, [sp, #0]
 4300              		.loc 1 2063 0
 4301 006a 0CAB     		add	r3, sp, #48
 4302              	.LVL466:
 4303 006c 0493     		str	r3, [sp, #16]
ARM GAS  C:\Users\jenny\AppData\Local\Temp\ccLg5IEe.s 			page 77


 4304              		.loc 1 2060 0
 4305 006e 0194     		str	r4, [sp, #4]
 4306              		.loc 1 2061 0
 4307 0070 0296     		str	r6, [sp, #8]
 4308              		.loc 1 2064 0
 4309 0072 8DF81470 		strb	r7, [sp, #20]
 4310              		.loc 1 2065 0
 4311 0076 FFF7FEFF 		bl	tcpip_callback_with_block
 4312              	.LVL467:
 4313              		.loc 1 2066 0
 4314 007a 2868     		ldr	r0, [r5, #0]
 4315 007c 3946     		mov	r1, r7
 4316 007e 0C30     		adds	r0, r0, #12
 4317 0080 FFF7FEFF 		bl	sys_arch_sem_wait
 4318              	.LVL468:
 4319              		.loc 1 2068 0
 4320 0084 9DF81400 		ldrb	r0, [sp, #20]	@ zero_extendqisi2
 4321              	.LVL469:
 4322              		.loc 1 2070 0
 4323 0088 41B2     		sxtb	r1, r0
 4324 008a 2961     		str	r1, [r5, #16]
 4325              		.loc 1 2071 0
 4326 008c 0028     		cmp	r0, #0
 4327 008e D2D1     		bne	.L781
 4328 0090 D3E7     		b	.L775
 4329              	.LVL470:
 4330              	.L742:
 4331              		.loc 1 1991 0
 4332 0092 0C98     		ldr	r0, [sp, #48]
 4333 0094 0328     		cmp	r0, #3
 4334 0096 DDD9     		bls	.L761
 4335              		.loc 1 1997 0
 4336 0098 0978     		ldrb	r1, [r1, #0]	@ zero_extendqisi2
 4337 009a 1029     		cmp	r1, #16
 4338 009c DCD0     		beq	.L784
 4339              		.loc 1 1998 0
 4340 009e 0020     		movs	r0, #0
 4341 00a0 CBE7     		b	.L775
 4342              	.L745:
 4343              		.loc 1 1920 0
 4344 00a2 0878     		ldrb	r0, [r1, #0]	@ zero_extendqisi2
 4345              		.loc 1 1869 0
 4346 00a4 0C9A     		ldr	r2, [sp, #48]
 4347 00a6 032A     		cmp	r2, #3
 4348 00a8 94BF     		ite	ls
 4349 00aa 1622     		movls	r2, #22
 4350 00ac 0022     		movhi	r2, #0
 4351              	.LVL471:
 4352              		.loc 1 1920 0
 4353 00ae 2028     		cmp	r0, #32
 4354 00b0 01D0     		beq	.L785
 4355              	.L758:
 4356 00b2 6120     		movs	r0, #97
 4357 00b4 BEE7     		b	.L752
 4358              	.L785:
 4359              		.loc 1 1921 0 discriminator 1
 4360 00b6 4968     		ldr	r1, [r1, #4]
ARM GAS  C:\Users\jenny\AppData\Local\Temp\ccLg5IEe.s 			page 78


 4361 00b8 087C     		ldrb	r0, [r1, #16]	@ zero_extendqisi2
 4362              		.loc 1 1920 0 discriminator 1
 4363 00ba 00F00201 		and	r1, r0, #2
 4364 00be C8B2     		uxtb	r0, r1
 4365 00c0 0028     		cmp	r0, #0
 4366 00c2 F6D1     		bne	.L758
 4367              		.loc 1 2049 0
 4368 00c4 002A     		cmp	r2, #0
 4369 00c6 CAD0     		beq	.L746
 4370 00c8 50B2     		sxtb	r0, r2
 4371 00ca B3E7     		b	.L752
 4372              	.LVL472:
 4373              	.L783:
 4374              		.loc 1 1877 0
 4375 00cc 0E22     		movs	r2, #14
 4376 00ce 2A61     		str	r2, [r5, #16]
 4377              		.loc 1 1878 0
 4378 00d0 4FF0FF30 		mov	r0, #-1
 4379 00d4 B1E7     		b	.L775
 4380              	.L787:
 4381 00d6 00BF     		.align	2
 4382              	.L786:
 4383 00d8 00000000 		.word	.LANCHOR0
 4384 00dc 00000000 		.word	lwip_setsockopt_internal
 4385              		.cfi_endproc
 4386              	.LFE33:
 4387              		.size	lwip_setsockopt, .-lwip_setsockopt
 4388              		.section	.text.lwip_ioctl,"ax",%progbits
 4389              		.align	2
 4390              		.p2align 4,,15
 4391              		.global	lwip_ioctl
 4392              		.thumb
 4393              		.thumb_func
 4394              		.type	lwip_ioctl, %function
 4395              	lwip_ioctl:
 4396              	.LFB35:
 4397              		.loc 1 2285 0
 4398              		.cfi_startproc
 4399              		@ args = 0, pretend = 0, frame = 0
 4400              		@ frame_needed = 0, uses_anonymous_args = 0
 4401              		@ link register save eliminated.
 4402              	.LVL473:
 4403              	.LBB172:
 4404              	.LBB173:
 4405              		.loc 1 199 0
 4406 0000 0328     		cmp	r0, #3
 4407              	.LBE173:
 4408              	.LBE172:
 4409              		.loc 1 2285 0
 4410 0002 10B4     		push	{r4}
 4411              	.LCFI36:
 4412              		.cfi_def_cfa_offset 4
 4413              		.cfi_offset 4, -4
 4414              	.LBB176:
 4415              	.LBB174:
 4416              		.loc 1 199 0
 4417 0004 11D8     		bhi	.L797
ARM GAS  C:\Users\jenny\AppData\Local\Temp\ccLg5IEe.s 			page 79


 4418              		.loc 1 205 0
 4419 0006 00EB4000 		add	r0, r0, r0, lsl #1
 4420              	.LVL474:
 4421 000a 114B     		ldr	r3, .L805
 4422 000c C000     		lsls	r0, r0, #3
 4423 000e 1C18     		adds	r4, r3, r0
 4424              	.LVL475:
 4425              		.loc 1 207 0
 4426 0010 1B58     		ldr	r3, [r3, r0]
 4427 0012 53B1     		cbz	r3, .L797
 4428              	.LBE174:
 4429              	.LBE176:
 4430              		.loc 1 2297 0
 4431 0014 46F27E60 		movw	r0, #26238
 4432 0018 C8F20400 		movt	r0, 32772
 4433 001c 8142     		cmp	r1, r0
 4434 001e 08D0     		beq	.L804
 4435              		.loc 1 2340 0
 4436 0020 2621     		movs	r1, #38
 4437              	.LVL476:
 4438 0022 2161     		str	r1, [r4, #16]
 4439              		.loc 1 2341 0
 4440 0024 4FF0FF30 		mov	r0, #-1
 4441 0028 01E0     		b	.L802
 4442              	.LVL477:
 4443              	.L797:
 4444              	.LBB177:
 4445              	.LBB175:
 4446              		.loc 1 2294 0
 4447 002a 4FF0FF30 		mov	r0, #-1
 4448              	.LVL478:
 4449              	.L802:
 4450              	.LBE175:
 4451              	.LBE177:
 4452              		.loc 1 2343 0
 4453 002e 10BC     		pop	{r4}
 4454 0030 7047     		bx	lr
 4455              	.LVL479:
 4456              	.L804:
 4457              		.loc 1 2330 0
 4458 0032 42B1     		cbz	r2, .L792
 4459              		.loc 1 2330 0 is_stmt 0 discriminator 1
 4460 0034 1268     		ldr	r2, [r2, #0]
 4461              	.LVL480:
 4462 0036 32B1     		cbz	r2, .L792
 4463              	.LVL481:
 4464              		.loc 1 2333 0 is_stmt 1
 4465 0038 1A7F     		ldrb	r2, [r3, #28]	@ zero_extendqisi2
 4466 003a 42F00200 		orr	r0, r2, #2
 4467 003e 1877     		strb	r0, [r3, #28]
 4468              	.LVL482:
 4469              	.L795:
 4470              		.loc 1 2335 0
 4471 0040 0020     		movs	r0, #0
 4472 0042 2061     		str	r0, [r4, #16]
 4473              		.loc 1 2336 0
 4474 0044 F3E7     		b	.L802
ARM GAS  C:\Users\jenny\AppData\Local\Temp\ccLg5IEe.s 			page 80


 4475              	.LVL483:
 4476              	.L792:
 4477              		.loc 1 2333 0
 4478 0046 187F     		ldrb	r0, [r3, #28]	@ zero_extendqisi2
 4479 0048 20F00201 		bic	r1, r0, #2
 4480              	.LVL484:
 4481 004c 1977     		strb	r1, [r3, #28]
 4482 004e F7E7     		b	.L795
 4483              	.L806:
 4484              		.align	2
 4485              	.L805:
 4486 0050 00000000 		.word	.LANCHOR0
 4487              		.cfi_endproc
 4488              	.LFE35:
 4489              		.size	lwip_ioctl, .-lwip_ioctl
 4490 0054 AFF30080 		.section	.text.lwip_fcntl,"ax",%progbits
 4490      AFF30080 
 4490      AFF30080 
 4491              		.align	2
 4492              		.p2align 4,,15
 4493              		.global	lwip_fcntl
 4494              		.thumb
 4495              		.thumb_func
 4496              		.type	lwip_fcntl, %function
 4497              	lwip_fcntl:
 4498              	.LFB36:
 4499              		.loc 1 2351 0
 4500              		.cfi_startproc
 4501              		@ args = 0, pretend = 0, frame = 0
 4502              		@ frame_needed = 0, uses_anonymous_args = 0
 4503              		@ link register save eliminated.
 4504              	.LVL485:
 4505              	.LBB178:
 4506              	.LBB179:
 4507              		.loc 1 199 0
 4508 0000 0328     		cmp	r0, #3
 4509 0002 09D8     		bhi	.L819
 4510              	.LVL486:
 4511              		.loc 1 205 0
 4512 0004 00EB4000 		add	r0, r0, r0, lsl #1
 4513              	.LVL487:
 4514              		.loc 1 207 0
 4515 0008 0F4B     		ldr	r3, .L821
 4516 000a 53F83030 		ldr	r3, [r3, r0, lsl #3]
 4517 000e 1BB1     		cbz	r3, .L819
 4518              	.LVL488:
 4519              	.LBE179:
 4520              	.LBE178:
 4521              		.loc 1 2359 0
 4522 0010 0329     		cmp	r1, #3
 4523 0012 10D0     		beq	.L810
 4524 0014 0429     		cmp	r1, #4
 4525 0016 02D0     		beq	.L820
 4526              	.LVL489:
 4527              	.L819:
 4528              		.loc 1 2353 0
 4529 0018 4FF0FF30 		mov	r0, #-1
ARM GAS  C:\Users\jenny\AppData\Local\Temp\ccLg5IEe.s 			page 81


 4530 001c 7047     		bx	lr
 4531              	.LVL490:
 4532              	.L820:
 4533              		.loc 1 2364 0
 4534 001e 32F00101 		bics	r1, r2, #1
 4535              	.LVL491:
 4536 0022 F9D1     		bne	.L819
 4537              		.loc 1 2366 0
 4538 0024 12F00100 		ands	r0, r2, #1
 4539 0028 1A7F     		ldrb	r2, [r3, #28]	@ zero_extendqisi2
 4540              	.LVL492:
 4541 002a 08D0     		beq	.L812
 4542              		.loc 1 2366 0 is_stmt 0 discriminator 1
 4543 002c 42F00200 		orr	r0, r2, #2
 4544 0030 1877     		strb	r0, [r3, #28]
 4545              		.loc 1 2367 0 is_stmt 1 discriminator 1
 4546 0032 0846     		mov	r0, r1
 4547 0034 7047     		bx	lr
 4548              	.LVL493:
 4549              	.L810:
 4550              		.loc 1 2361 0
 4551 0036 1B7F     		ldrb	r3, [r3, #28]	@ zero_extendqisi2
 4552 0038 C3F34000 		ubfx	r0, r3, #1, #1
 4553              	.LVL494:
 4554              		.loc 1 2362 0
 4555 003c 7047     		bx	lr
 4556              	.LVL495:
 4557              	.L812:
 4558              		.loc 1 2366 0 discriminator 2
 4559 003e 22F00201 		bic	r1, r2, #2
 4560 0042 1977     		strb	r1, [r3, #28]
 4561 0044 7047     		bx	lr
 4562              	.L822:
 4563 0046 00BF     		.align	2
 4564              	.L821:
 4565 0048 00000000 		.word	.LANCHOR0
 4566              		.cfi_endproc
 4567              	.LFE36:
 4568              		.size	lwip_fcntl, .-lwip_fcntl
 4569 004c AFF30080 		.section	.rodata.err_to_errno_table,"a",%progbits
 4570              		.align	2
 4571              		.set	.LANCHOR1,. + 0
 4572              		.type	err_to_errno_table, %object
 4573              		.size	err_to_errno_table, 64
 4574              	err_to_errno_table:
 4575 0000 00000000 		.word	0
 4576 0004 0C000000 		.word	12
 4577 0008 69000000 		.word	105
 4578 000c 0B000000 		.word	11
 4579 0010 71000000 		.word	113
 4580 0014 73000000 		.word	115
 4581 0018 16000000 		.word	22
 4582 001c 0B000000 		.word	11
 4583 0020 62000000 		.word	98
 4584 0024 72000000 		.word	114
 4585 0028 67000000 		.word	103
 4586 002c 68000000 		.word	104
ARM GAS  C:\Users\jenny\AppData\Local\Temp\ccLg5IEe.s 			page 82


 4587 0030 6B000000 		.word	107
 4588 0034 6B000000 		.word	107
 4589 0038 05000000 		.word	5
 4590 003c FFFFFFFF 		.word	-1
 4591              		.section	.bss.select_cb_list,"aw",%nobits
 4592              		.align	2
 4593              		.set	.LANCHOR2,. + 0
 4594              		.type	select_cb_list, %object
 4595              		.size	select_cb_list, 4
 4596              	select_cb_list:
 4597 0000 00000000 		.space	4
 4598              		.section	.bss.sockets,"aw",%nobits
 4599              		.align	2
 4600              		.set	.LANCHOR0,. + 0
 4601              		.type	sockets, %object
 4602              		.size	sockets, 96
 4603              	sockets:
 4604 0000 00000000 		.space	96
 4604      00000000 
 4604      00000000 
 4604      00000000 
 4604      00000000 
 4605              		.section	.bss.select_cb_ctr,"aw",%nobits
 4606              		.align	2
 4607              		.set	.LANCHOR3,. + 0
 4608              		.type	select_cb_ctr, %object
 4609              		.size	select_cb_ctr, 4
 4610              	select_cb_ctr:
 4611 0000 00000000 		.space	4
 4612              		.text
 4613              	.Letext0:
 4614              		.file 2 "c:\\fbin\\yagarto\\bin\\../lib/gcc/arm-none-eabi/4.7.4/include/stddef.h"
 4615              		.file 3 "c:\\fbin\\yagarto\\bin\\../lib/gcc/arm-none-eabi/4.7.4/../../../../arm-none-eabi/include/
 4616              		.file 4 "../../os/ports/GCC/ARMCMx/chtypes.h"
 4617              		.file 5 "../../os/kernel/include/chlists.h"
 4618              		.file 6 "../../os/kernel/include/chthreads.h"
 4619              		.file 7 "../../os/ports/GCC/ARMCMx/chcore_v7m.h"
 4620              		.file 8 "../../os/kernel/include/chsem.h"
 4621              		.file 9 "../../os/kernel/include/chmtx.h"
 4622              		.file 10 "../../os/kernel/include/chmboxes.h"
 4623              		.file 11 "../../os/various/lwip_bindings/arch/cc.h"
 4624              		.file 12 "../../ext/lwip/src/include/ipv4/lwip/ip_addr.h"
 4625              		.file 13 "../../ext/lwip/src/include/ipv4/lwip/inet.h"
 4626              		.file 14 "../../ext/lwip/src/include/lwip/sockets.h"
 4627              		.file 15 "../../ext/lwip/src/include/lwip/err.h"
 4628              		.file 16 "../../ext/lwip/src/include/lwip/pbuf.h"
 4629              		.file 17 "../../ext/lwip/src/include/lwip/netbuf.h"
 4630              		.file 18 "../../os/various/lwip_bindings/arch/sys_arch.h"
 4631              		.file 19 "../../ext/lwip/src/include/lwip/api.h"
 4632              		.file 20 "../../ext/lwip/src/include/ipv4/lwip/ip.h"
 4633              		.file 21 "../../ext/lwip/src/include/lwip/tcp.h"
 4634              		.file 22 "../../ext/lwip/src/include/lwip/udp.h"
 4635              		.file 23 "../../ext/lwip/src/include/lwip/raw.h"
 4636              		.file 24 "../../ext/lwip/src/include/lwip/api_msg.h"
 4637              		.file 25 "../../ext/lwip/src/include/lwip/tcpip.h"
 4638              		.file 26 "../../ext/lwip/src/include/lwip/def.h"
 4639              		.file 27 "../../ext/lwip/src/include/lwip/sys.h"
ARM GAS  C:\Users\jenny\AppData\Local\Temp\ccLg5IEe.s 			page 83


 4640              		.section	.debug_info,"",%progbits
 4641              	.Ldebug_info0:
 4642 0000 E82F0000 		.4byte	0x2fe8
 4643 0004 0200     		.2byte	0x2
 4644 0006 00000000 		.4byte	.Ldebug_abbrev0
 4645 000a 04       		.byte	0x4
 4646 000b 01       		.uleb128 0x1
 4647 000c 32010000 		.4byte	.LASF345
 4648 0010 01       		.byte	0x1
 4649 0011 590C0000 		.4byte	.LASF346
 4650 0015 F9040000 		.4byte	.LASF347
 4651 0019 B8040000 		.4byte	.Ldebug_ranges0+0x4b8
 4652 001d 00000000 		.4byte	0
 4653 0021 00000000 		.4byte	0
 4654 0025 00000000 		.4byte	.Ldebug_line0
 4655 0029 02       		.uleb128 0x2
 4656 002a 04       		.byte	0x4
 4657 002b 05       		.byte	0x5
 4658 002c 696E7400 		.ascii	"int\000"
 4659 0030 03       		.uleb128 0x3
 4660 0031 12000000 		.4byte	.LASF1
 4661 0035 02       		.byte	0x2
 4662 0036 D5       		.byte	0xd5
 4663 0037 3B000000 		.4byte	0x3b
 4664 003b 04       		.uleb128 0x4
 4665 003c 04       		.byte	0x4
 4666 003d 07       		.byte	0x7
 4667 003e 15080000 		.4byte	.LASF0
 4668 0042 03       		.uleb128 0x3
 4669 0043 0B000000 		.4byte	.LASF2
 4670 0047 03       		.byte	0x3
 4671 0048 29       		.byte	0x29
 4672 0049 4D000000 		.4byte	0x4d
 4673 004d 04       		.uleb128 0x4
 4674 004e 01       		.byte	0x1
 4675 004f 06       		.byte	0x6
 4676 0050 2B030000 		.4byte	.LASF3
 4677 0054 03       		.uleb128 0x3
 4678 0055 41030000 		.4byte	.LASF4
 4679 0059 03       		.byte	0x3
 4680 005a 2A       		.byte	0x2a
 4681 005b 5F000000 		.4byte	0x5f
 4682 005f 04       		.uleb128 0x4
 4683 0060 01       		.byte	0x1
 4684 0061 08       		.byte	0x8
 4685 0062 A5030000 		.4byte	.LASF5
 4686 0066 03       		.uleb128 0x3
 4687 0067 820C0000 		.4byte	.LASF6
 4688 006b 03       		.byte	0x3
 4689 006c 35       		.byte	0x35
 4690 006d 71000000 		.4byte	0x71
 4691 0071 04       		.uleb128 0x4
 4692 0072 02       		.byte	0x2
 4693 0073 05       		.byte	0x5
 4694 0074 220C0000 		.4byte	.LASF7
 4695 0078 03       		.uleb128 0x3
 4696 0079 F0090000 		.4byte	.LASF8
ARM GAS  C:\Users\jenny\AppData\Local\Temp\ccLg5IEe.s 			page 84


 4697 007d 03       		.byte	0x3
 4698 007e 36       		.byte	0x36
 4699 007f 83000000 		.4byte	0x83
 4700 0083 04       		.uleb128 0x4
 4701 0084 02       		.byte	0x2
 4702 0085 07       		.byte	0x7
 4703 0086 600E0000 		.4byte	.LASF9
 4704 008a 03       		.uleb128 0x3
 4705 008b 73000000 		.4byte	.LASF10
 4706 008f 03       		.byte	0x3
 4707 0090 4F       		.byte	0x4f
 4708 0091 95000000 		.4byte	0x95
 4709 0095 04       		.uleb128 0x4
 4710 0096 04       		.byte	0x4
 4711 0097 05       		.byte	0x5
 4712 0098 20020000 		.4byte	.LASF11
 4713 009c 03       		.uleb128 0x3
 4714 009d B00D0000 		.4byte	.LASF12
 4715 00a1 03       		.byte	0x3
 4716 00a2 50       		.byte	0x50
 4717 00a3 A7000000 		.4byte	0xa7
 4718 00a7 04       		.uleb128 0x4
 4719 00a8 04       		.byte	0x4
 4720 00a9 07       		.byte	0x7
 4721 00aa 56060000 		.4byte	.LASF13
 4722 00ae 04       		.uleb128 0x4
 4723 00af 08       		.byte	0x8
 4724 00b0 05       		.byte	0x5
 4725 00b1 67070000 		.4byte	.LASF14
 4726 00b5 04       		.uleb128 0x4
 4727 00b6 08       		.byte	0x8
 4728 00b7 07       		.byte	0x7
 4729 00b8 C5090000 		.4byte	.LASF15
 4730 00bc 04       		.uleb128 0x4
 4731 00bd 01       		.byte	0x1
 4732 00be 02       		.byte	0x2
 4733 00bf D6030000 		.4byte	.LASF16
 4734 00c3 03       		.uleb128 0x3
 4735 00c4 710B0000 		.4byte	.LASF17
 4736 00c8 04       		.byte	0x4
 4737 00c9 2C       		.byte	0x2c
 4738 00ca 54000000 		.4byte	0x54
 4739 00ce 03       		.uleb128 0x3
 4740 00cf 81020000 		.4byte	.LASF18
 4741 00d3 04       		.byte	0x4
 4742 00d4 2D       		.byte	0x2d
 4743 00d5 54000000 		.4byte	0x54
 4744 00d9 03       		.uleb128 0x3
 4745 00da 6C0D0000 		.4byte	.LASF19
 4746 00de 04       		.byte	0x4
 4747 00df 2E       		.byte	0x2e
 4748 00e0 54000000 		.4byte	0x54
 4749 00e4 03       		.uleb128 0x3
 4750 00e5 4D0A0000 		.4byte	.LASF20
 4751 00e9 04       		.byte	0x4
 4752 00ea 2F       		.byte	0x2f
 4753 00eb 54000000 		.4byte	0x54
ARM GAS  C:\Users\jenny\AppData\Local\Temp\ccLg5IEe.s 			page 85


 4754 00ef 03       		.uleb128 0x3
 4755 00f0 44000000 		.4byte	.LASF21
 4756 00f4 04       		.byte	0x4
 4757 00f5 30       		.byte	0x30
 4758 00f6 9C000000 		.4byte	0x9c
 4759 00fa 03       		.uleb128 0x3
 4760 00fb 320A0000 		.4byte	.LASF22
 4761 00ff 04       		.byte	0x4
 4762 0100 31       		.byte	0x31
 4763 0101 8A000000 		.4byte	0x8a
 4764 0105 03       		.uleb128 0x3
 4765 0106 72030000 		.4byte	.LASF23
 4766 010a 04       		.byte	0x4
 4767 010b 33       		.byte	0x33
 4768 010c 9C000000 		.4byte	0x9c
 4769 0110 03       		.uleb128 0x3
 4770 0111 28000000 		.4byte	.LASF24
 4771 0115 04       		.byte	0x4
 4772 0116 35       		.byte	0x35
 4773 0117 9C000000 		.4byte	0x9c
 4774 011b 03       		.uleb128 0x3
 4775 011c 71050000 		.4byte	.LASF25
 4776 0120 04       		.byte	0x4
 4777 0121 36       		.byte	0x36
 4778 0122 8A000000 		.4byte	0x8a
 4779 0126 03       		.uleb128 0x3
 4780 0127 F00C0000 		.4byte	.LASF26
 4781 012b 05       		.byte	0x5
 4782 012c 2A       		.byte	0x2a
 4783 012d 31010000 		.4byte	0x131
 4784 0131 05       		.uleb128 0x5
 4785 0132 F00C0000 		.4byte	.LASF26
 4786 0136 48       		.byte	0x48
 4787 0137 06       		.byte	0x6
 4788 0138 5E       		.byte	0x5e
 4789 0139 56020000 		.4byte	0x256
 4790 013d 06       		.uleb128 0x6
 4791 013e 29020000 		.4byte	.LASF27
 4792 0142 06       		.byte	0x6
 4793 0143 5F       		.byte	0x5f
 4794 0144 7B020000 		.4byte	0x27b
 4795 0148 02       		.byte	0x2
 4796 0149 23       		.byte	0x23
 4797 014a 00       		.uleb128 0
 4798 014b 06       		.uleb128 0x6
 4799 014c 43020000 		.4byte	.LASF28
 4800 0150 06       		.byte	0x6
 4801 0151 61       		.byte	0x61
 4802 0152 7B020000 		.4byte	0x27b
 4803 0156 02       		.byte	0x2
 4804 0157 23       		.byte	0x23
 4805 0158 04       		.uleb128 0x4
 4806 0159 06       		.uleb128 0x6
 4807 015a 2D040000 		.4byte	.LASF29
 4808 015e 06       		.byte	0x6
 4809 015f 63       		.byte	0x63
 4810 0160 EF000000 		.4byte	0xef
ARM GAS  C:\Users\jenny\AppData\Local\Temp\ccLg5IEe.s 			page 86


 4811 0164 02       		.byte	0x2
 4812 0165 23       		.byte	0x23
 4813 0166 08       		.uleb128 0x8
 4814 0167 06       		.uleb128 0x6
 4815 0168 3E000000 		.4byte	.LASF30
 4816 016c 06       		.byte	0x6
 4817 016d 64       		.byte	0x64
 4818 016e 39040000 		.4byte	0x439
 4819 0172 02       		.byte	0x2
 4820 0173 23       		.byte	0x23
 4821 0174 0C       		.uleb128 0xc
 4822 0175 06       		.uleb128 0x6
 4823 0176 06020000 		.4byte	.LASF31
 4824 017a 06       		.byte	0x6
 4825 017b 66       		.byte	0x66
 4826 017c 7B020000 		.4byte	0x27b
 4827 0180 02       		.byte	0x2
 4828 0181 23       		.byte	0x23
 4829 0182 10       		.uleb128 0x10
 4830 0183 06       		.uleb128 0x6
 4831 0184 E8090000 		.4byte	.LASF32
 4832 0188 06       		.byte	0x6
 4833 0189 67       		.byte	0x67
 4834 018a 7B020000 		.4byte	0x27b
 4835 018e 02       		.byte	0x2
 4836 018f 23       		.byte	0x23
 4837 0190 14       		.uleb128 0x14
 4838 0191 06       		.uleb128 0x6
 4839 0192 B90E0000 		.4byte	.LASF33
 4840 0196 06       		.byte	0x6
 4841 0197 6E       		.byte	0x6e
 4842 0198 99050000 		.4byte	0x599
 4843 019c 02       		.byte	0x2
 4844 019d 23       		.byte	0x23
 4845 019e 18       		.uleb128 0x18
 4846 019f 06       		.uleb128 0x6
 4847 01a0 0A0F0000 		.4byte	.LASF34
 4848 01a4 06       		.byte	0x6
 4849 01a5 79       		.byte	0x79
 4850 01a6 CE000000 		.4byte	0xce
 4851 01aa 02       		.byte	0x2
 4852 01ab 23       		.byte	0x23
 4853 01ac 1C       		.uleb128 0x1c
 4854 01ad 06       		.uleb128 0x6
 4855 01ae 0D080000 		.4byte	.LASF35
 4856 01b2 06       		.byte	0x6
 4857 01b3 7D       		.byte	0x7d
 4858 01b4 C3000000 		.4byte	0xc3
 4859 01b8 02       		.byte	0x2
 4860 01b9 23       		.byte	0x23
 4861 01ba 1D       		.uleb128 0x1d
 4862 01bb 06       		.uleb128 0x6
 4863 01bc 50080000 		.4byte	.LASF36
 4864 01c0 06       		.byte	0x6
 4865 01c1 82       		.byte	0x82
 4866 01c2 D9000000 		.4byte	0xd9
 4867 01c6 02       		.byte	0x2
ARM GAS  C:\Users\jenny\AppData\Local\Temp\ccLg5IEe.s 			page 87


 4868 01c7 23       		.byte	0x23
 4869 01c8 1E       		.uleb128 0x1e
 4870 01c9 06       		.uleb128 0x6
 4871 01ca 37030000 		.4byte	.LASF37
 4872 01ce 06       		.byte	0x6
 4873 01cf 88       		.byte	0x88
 4874 01d0 E4000000 		.4byte	0xe4
 4875 01d4 02       		.byte	0x2
 4876 01d5 23       		.byte	0x23
 4877 01d6 1F       		.uleb128 0x1f
 4878 01d7 06       		.uleb128 0x6
 4879 01d8 F0080000 		.4byte	.LASF38
 4880 01dc 06       		.byte	0x6
 4881 01dd 8F       		.byte	0x8f
 4882 01de 75040000 		.4byte	0x475
 4883 01e2 02       		.byte	0x2
 4884 01e3 23       		.byte	0x23
 4885 01e4 20       		.uleb128 0x20
 4886 01e5 07       		.uleb128 0x7
 4887 01e6 705F7500 		.ascii	"p_u\000"
 4888 01ea 06       		.byte	0x6
 4889 01eb B4       		.byte	0xb4
 4890 01ec 64050000 		.4byte	0x564
 4891 01f0 02       		.byte	0x2
 4892 01f1 23       		.byte	0x23
 4893 01f2 24       		.uleb128 0x24
 4894 01f3 06       		.uleb128 0x6
 4895 01f4 FE070000 		.4byte	.LASF39
 4896 01f8 06       		.byte	0x6
 4897 01f9 B9       		.byte	0xb9
 4898 01fa A3020000 		.4byte	0x2a3
 4899 01fe 02       		.byte	0x2
 4900 01ff 23       		.byte	0x23
 4901 0200 28       		.uleb128 0x28
 4902 0201 06       		.uleb128 0x6
 4903 0202 62000000 		.4byte	.LASF40
 4904 0206 06       		.byte	0x6
 4905 0207 BF       		.byte	0xbf
 4906 0208 81020000 		.4byte	0x281
 4907 020c 02       		.byte	0x2
 4908 020d 23       		.byte	0x23
 4909 020e 2C       		.uleb128 0x2c
 4910 020f 06       		.uleb128 0x6
 4911 0210 040F0000 		.4byte	.LASF41
 4912 0214 06       		.byte	0x6
 4913 0215 C3       		.byte	0xc3
 4914 0216 FA000000 		.4byte	0xfa
 4915 021a 02       		.byte	0x2
 4916 021b 23       		.byte	0x23
 4917 021c 34       		.uleb128 0x34
 4918 021d 06       		.uleb128 0x6
 4919 021e D1050000 		.4byte	.LASF42
 4920 0222 06       		.byte	0x6
 4921 0223 C9       		.byte	0xc9
 4922 0224 05010000 		.4byte	0x105
 4923 0228 02       		.byte	0x2
 4924 0229 23       		.byte	0x23
ARM GAS  C:\Users\jenny\AppData\Local\Temp\ccLg5IEe.s 			page 88


 4925 022a 38       		.uleb128 0x38
 4926 022b 06       		.uleb128 0x6
 4927 022c 8A020000 		.4byte	.LASF43
 4928 0230 06       		.byte	0x6
 4929 0231 D0       		.byte	0xd0
 4930 0232 AB050000 		.4byte	0x5ab
 4931 0236 02       		.byte	0x2
 4932 0237 23       		.byte	0x23
 4933 0238 3C       		.uleb128 0x3c
 4934 0239 06       		.uleb128 0x6
 4935 023a 5D090000 		.4byte	.LASF44
 4936 023e 06       		.byte	0x6
 4937 023f D4       		.byte	0xd4
 4938 0240 EF000000 		.4byte	0xef
 4939 0244 02       		.byte	0x2
 4940 0245 23       		.byte	0x23
 4941 0246 40       		.uleb128 0x40
 4942 0247 06       		.uleb128 0x6
 4943 0248 2F080000 		.4byte	.LASF45
 4944 024c 06       		.byte	0x6
 4945 024d DA       		.byte	0xda
 4946 024e B9020000 		.4byte	0x2b9
 4947 0252 02       		.byte	0x2
 4948 0253 23       		.byte	0x23
 4949 0254 44       		.uleb128 0x44
 4950 0255 00       		.byte	0
 4951 0256 08       		.uleb128 0x8
 4952 0257 08       		.byte	0x8
 4953 0258 05       		.byte	0x5
 4954 0259 61       		.byte	0x61
 4955 025a 7B020000 		.4byte	0x27b
 4956 025e 06       		.uleb128 0x6
 4957 025f 29020000 		.4byte	.LASF27
 4958 0263 05       		.byte	0x5
 4959 0264 62       		.byte	0x62
 4960 0265 7B020000 		.4byte	0x27b
 4961 0269 02       		.byte	0x2
 4962 026a 23       		.byte	0x23
 4963 026b 00       		.uleb128 0
 4964 026c 06       		.uleb128 0x6
 4965 026d 43020000 		.4byte	.LASF28
 4966 0271 05       		.byte	0x5
 4967 0272 64       		.byte	0x64
 4968 0273 7B020000 		.4byte	0x27b
 4969 0277 02       		.byte	0x2
 4970 0278 23       		.byte	0x23
 4971 0279 04       		.uleb128 0x4
 4972 027a 00       		.byte	0
 4973 027b 09       		.uleb128 0x9
 4974 027c 04       		.byte	0x4
 4975 027d 26010000 		.4byte	0x126
 4976 0281 03       		.uleb128 0x3
 4977 0282 D80D0000 		.4byte	.LASF46
 4978 0286 05       		.byte	0x5
 4979 0287 66       		.byte	0x66
 4980 0288 56020000 		.4byte	0x256
 4981 028c 08       		.uleb128 0x8
ARM GAS  C:\Users\jenny\AppData\Local\Temp\ccLg5IEe.s 			page 89


 4982 028d 04       		.byte	0x4
 4983 028e 05       		.byte	0x5
 4984 028f 6B       		.byte	0x6b
 4985 0290 A3020000 		.4byte	0x2a3
 4986 0294 06       		.uleb128 0x6
 4987 0295 29020000 		.4byte	.LASF27
 4988 0299 05       		.byte	0x5
 4989 029a 6D       		.byte	0x6d
 4990 029b 7B020000 		.4byte	0x27b
 4991 029f 02       		.byte	0x2
 4992 02a0 23       		.byte	0x23
 4993 02a1 00       		.uleb128 0
 4994 02a2 00       		.byte	0
 4995 02a3 03       		.uleb128 0x3
 4996 02a4 68080000 		.4byte	.LASF47
 4997 02a8 05       		.byte	0x5
 4998 02a9 70       		.byte	0x70
 4999 02aa 8C020000 		.4byte	0x28c
 5000 02ae 03       		.uleb128 0x3
 5001 02af 9C020000 		.4byte	.LASF48
 5002 02b3 07       		.byte	0x7
 5003 02b4 E5       		.byte	0xe5
 5004 02b5 B9020000 		.4byte	0x2b9
 5005 02b9 0A       		.uleb128 0xa
 5006 02ba 04       		.byte	0x4
 5007 02bb 0B       		.uleb128 0xb
 5008 02bc BA050000 		.4byte	.LASF49
 5009 02c0 64       		.byte	0x64
 5010 02c1 07       		.byte	0x7
 5011 02c2 0C01     		.2byte	0x10c
 5012 02c4 39040000 		.4byte	0x439
 5013 02c8 0C       		.uleb128 0xc
 5014 02c9 73313600 		.ascii	"s16\000"
 5015 02cd 07       		.byte	0x7
 5016 02ce 0E01     		.2byte	0x10e
 5017 02d0 AE020000 		.4byte	0x2ae
 5018 02d4 02       		.byte	0x2
 5019 02d5 23       		.byte	0x23
 5020 02d6 00       		.uleb128 0
 5021 02d7 0C       		.uleb128 0xc
 5022 02d8 73313700 		.ascii	"s17\000"
 5023 02dc 07       		.byte	0x7
 5024 02dd 0F01     		.2byte	0x10f
 5025 02df AE020000 		.4byte	0x2ae
 5026 02e3 02       		.byte	0x2
 5027 02e4 23       		.byte	0x23
 5028 02e5 04       		.uleb128 0x4
 5029 02e6 0C       		.uleb128 0xc
 5030 02e7 73313800 		.ascii	"s18\000"
 5031 02eb 07       		.byte	0x7
 5032 02ec 1001     		.2byte	0x110
 5033 02ee AE020000 		.4byte	0x2ae
 5034 02f2 02       		.byte	0x2
 5035 02f3 23       		.byte	0x23
 5036 02f4 08       		.uleb128 0x8
 5037 02f5 0C       		.uleb128 0xc
 5038 02f6 73313900 		.ascii	"s19\000"
ARM GAS  C:\Users\jenny\AppData\Local\Temp\ccLg5IEe.s 			page 90


 5039 02fa 07       		.byte	0x7
 5040 02fb 1101     		.2byte	0x111
 5041 02fd AE020000 		.4byte	0x2ae
 5042 0301 02       		.byte	0x2
 5043 0302 23       		.byte	0x23
 5044 0303 0C       		.uleb128 0xc
 5045 0304 0C       		.uleb128 0xc
 5046 0305 73323000 		.ascii	"s20\000"
 5047 0309 07       		.byte	0x7
 5048 030a 1201     		.2byte	0x112
 5049 030c AE020000 		.4byte	0x2ae
 5050 0310 02       		.byte	0x2
 5051 0311 23       		.byte	0x23
 5052 0312 10       		.uleb128 0x10
 5053 0313 0C       		.uleb128 0xc
 5054 0314 73323100 		.ascii	"s21\000"
 5055 0318 07       		.byte	0x7
 5056 0319 1301     		.2byte	0x113
 5057 031b AE020000 		.4byte	0x2ae
 5058 031f 02       		.byte	0x2
 5059 0320 23       		.byte	0x23
 5060 0321 14       		.uleb128 0x14
 5061 0322 0C       		.uleb128 0xc
 5062 0323 73323200 		.ascii	"s22\000"
 5063 0327 07       		.byte	0x7
 5064 0328 1401     		.2byte	0x114
 5065 032a AE020000 		.4byte	0x2ae
 5066 032e 02       		.byte	0x2
 5067 032f 23       		.byte	0x23
 5068 0330 18       		.uleb128 0x18
 5069 0331 0C       		.uleb128 0xc
 5070 0332 73323300 		.ascii	"s23\000"
 5071 0336 07       		.byte	0x7
 5072 0337 1501     		.2byte	0x115
 5073 0339 AE020000 		.4byte	0x2ae
 5074 033d 02       		.byte	0x2
 5075 033e 23       		.byte	0x23
 5076 033f 1C       		.uleb128 0x1c
 5077 0340 0C       		.uleb128 0xc
 5078 0341 73323400 		.ascii	"s24\000"
 5079 0345 07       		.byte	0x7
 5080 0346 1601     		.2byte	0x116
 5081 0348 AE020000 		.4byte	0x2ae
 5082 034c 02       		.byte	0x2
 5083 034d 23       		.byte	0x23
 5084 034e 20       		.uleb128 0x20
 5085 034f 0C       		.uleb128 0xc
 5086 0350 73323500 		.ascii	"s25\000"
 5087 0354 07       		.byte	0x7
 5088 0355 1701     		.2byte	0x117
 5089 0357 AE020000 		.4byte	0x2ae
 5090 035b 02       		.byte	0x2
 5091 035c 23       		.byte	0x23
 5092 035d 24       		.uleb128 0x24
 5093 035e 0C       		.uleb128 0xc
 5094 035f 73323600 		.ascii	"s26\000"
 5095 0363 07       		.byte	0x7
ARM GAS  C:\Users\jenny\AppData\Local\Temp\ccLg5IEe.s 			page 91


 5096 0364 1801     		.2byte	0x118
 5097 0366 AE020000 		.4byte	0x2ae
 5098 036a 02       		.byte	0x2
 5099 036b 23       		.byte	0x23
 5100 036c 28       		.uleb128 0x28
 5101 036d 0C       		.uleb128 0xc
 5102 036e 73323700 		.ascii	"s27\000"
 5103 0372 07       		.byte	0x7
 5104 0373 1901     		.2byte	0x119
 5105 0375 AE020000 		.4byte	0x2ae
 5106 0379 02       		.byte	0x2
 5107 037a 23       		.byte	0x23
 5108 037b 2C       		.uleb128 0x2c
 5109 037c 0C       		.uleb128 0xc
 5110 037d 73323800 		.ascii	"s28\000"
 5111 0381 07       		.byte	0x7
 5112 0382 1A01     		.2byte	0x11a
 5113 0384 AE020000 		.4byte	0x2ae
 5114 0388 02       		.byte	0x2
 5115 0389 23       		.byte	0x23
 5116 038a 30       		.uleb128 0x30
 5117 038b 0C       		.uleb128 0xc
 5118 038c 73323900 		.ascii	"s29\000"
 5119 0390 07       		.byte	0x7
 5120 0391 1B01     		.2byte	0x11b
 5121 0393 AE020000 		.4byte	0x2ae
 5122 0397 02       		.byte	0x2
 5123 0398 23       		.byte	0x23
 5124 0399 34       		.uleb128 0x34
 5125 039a 0C       		.uleb128 0xc
 5126 039b 73333000 		.ascii	"s30\000"
 5127 039f 07       		.byte	0x7
 5128 03a0 1C01     		.2byte	0x11c
 5129 03a2 AE020000 		.4byte	0x2ae
 5130 03a6 02       		.byte	0x2
 5131 03a7 23       		.byte	0x23
 5132 03a8 38       		.uleb128 0x38
 5133 03a9 0C       		.uleb128 0xc
 5134 03aa 73333100 		.ascii	"s31\000"
 5135 03ae 07       		.byte	0x7
 5136 03af 1D01     		.2byte	0x11d
 5137 03b1 AE020000 		.4byte	0x2ae
 5138 03b5 02       		.byte	0x2
 5139 03b6 23       		.byte	0x23
 5140 03b7 3C       		.uleb128 0x3c
 5141 03b8 0C       		.uleb128 0xc
 5142 03b9 723400   		.ascii	"r4\000"
 5143 03bc 07       		.byte	0x7
 5144 03bd 1F01     		.2byte	0x11f
 5145 03bf AE020000 		.4byte	0x2ae
 5146 03c3 02       		.byte	0x2
 5147 03c4 23       		.byte	0x23
 5148 03c5 40       		.uleb128 0x40
 5149 03c6 0C       		.uleb128 0xc
 5150 03c7 723500   		.ascii	"r5\000"
 5151 03ca 07       		.byte	0x7
 5152 03cb 2001     		.2byte	0x120
ARM GAS  C:\Users\jenny\AppData\Local\Temp\ccLg5IEe.s 			page 92


 5153 03cd AE020000 		.4byte	0x2ae
 5154 03d1 02       		.byte	0x2
 5155 03d2 23       		.byte	0x23
 5156 03d3 44       		.uleb128 0x44
 5157 03d4 0C       		.uleb128 0xc
 5158 03d5 723600   		.ascii	"r6\000"
 5159 03d8 07       		.byte	0x7
 5160 03d9 2101     		.2byte	0x121
 5161 03db AE020000 		.4byte	0x2ae
 5162 03df 02       		.byte	0x2
 5163 03e0 23       		.byte	0x23
 5164 03e1 48       		.uleb128 0x48
 5165 03e2 0C       		.uleb128 0xc
 5166 03e3 723700   		.ascii	"r7\000"
 5167 03e6 07       		.byte	0x7
 5168 03e7 2201     		.2byte	0x122
 5169 03e9 AE020000 		.4byte	0x2ae
 5170 03ed 02       		.byte	0x2
 5171 03ee 23       		.byte	0x23
 5172 03ef 4C       		.uleb128 0x4c
 5173 03f0 0C       		.uleb128 0xc
 5174 03f1 723800   		.ascii	"r8\000"
 5175 03f4 07       		.byte	0x7
 5176 03f5 2301     		.2byte	0x123
 5177 03f7 AE020000 		.4byte	0x2ae
 5178 03fb 02       		.byte	0x2
 5179 03fc 23       		.byte	0x23
 5180 03fd 50       		.uleb128 0x50
 5181 03fe 0C       		.uleb128 0xc
 5182 03ff 723900   		.ascii	"r9\000"
 5183 0402 07       		.byte	0x7
 5184 0403 2401     		.2byte	0x124
 5185 0405 AE020000 		.4byte	0x2ae
 5186 0409 02       		.byte	0x2
 5187 040a 23       		.byte	0x23
 5188 040b 54       		.uleb128 0x54
 5189 040c 0C       		.uleb128 0xc
 5190 040d 72313000 		.ascii	"r10\000"
 5191 0411 07       		.byte	0x7
 5192 0412 2501     		.2byte	0x125
 5193 0414 AE020000 		.4byte	0x2ae
 5194 0418 02       		.byte	0x2
 5195 0419 23       		.byte	0x23
 5196 041a 58       		.uleb128 0x58
 5197 041b 0C       		.uleb128 0xc
 5198 041c 72313100 		.ascii	"r11\000"
 5199 0420 07       		.byte	0x7
 5200 0421 2601     		.2byte	0x126
 5201 0423 AE020000 		.4byte	0x2ae
 5202 0427 02       		.byte	0x2
 5203 0428 23       		.byte	0x23
 5204 0429 5C       		.uleb128 0x5c
 5205 042a 0C       		.uleb128 0xc
 5206 042b 6C7200   		.ascii	"lr\000"
 5207 042e 07       		.byte	0x7
 5208 042f 2701     		.2byte	0x127
 5209 0431 AE020000 		.4byte	0x2ae
ARM GAS  C:\Users\jenny\AppData\Local\Temp\ccLg5IEe.s 			page 93


 5210 0435 02       		.byte	0x2
 5211 0436 23       		.byte	0x23
 5212 0437 60       		.uleb128 0x60
 5213 0438 00       		.byte	0
 5214 0439 0B       		.uleb128 0xb
 5215 043a 86030000 		.4byte	.LASF50
 5216 043e 04       		.byte	0x4
 5217 043f 07       		.byte	0x7
 5218 0440 3101     		.2byte	0x131
 5219 0442 56040000 		.4byte	0x456
 5220 0446 0C       		.uleb128 0xc
 5221 0447 72313300 		.ascii	"r13\000"
 5222 044b 07       		.byte	0x7
 5223 044c 3201     		.2byte	0x132
 5224 044e 56040000 		.4byte	0x456
 5225 0452 02       		.byte	0x2
 5226 0453 23       		.byte	0x23
 5227 0454 00       		.uleb128 0
 5228 0455 00       		.byte	0
 5229 0456 09       		.uleb128 0x9
 5230 0457 04       		.byte	0x4
 5231 0458 BB020000 		.4byte	0x2bb
 5232 045c 04       		.uleb128 0x4
 5233 045d 04       		.byte	0x4
 5234 045e 07       		.byte	0x7
 5235 045f 19000000 		.4byte	.LASF51
 5236 0463 09       		.uleb128 0x9
 5237 0464 04       		.byte	0x4
 5238 0465 69040000 		.4byte	0x469
 5239 0469 0D       		.uleb128 0xd
 5240 046a 01       		.byte	0x1
 5241 046b 75040000 		.4byte	0x475
 5242 046f 0E       		.uleb128 0xe
 5243 0470 B9020000 		.4byte	0x2b9
 5244 0474 00       		.byte	0
 5245 0475 0F       		.uleb128 0xf
 5246 0476 10010000 		.4byte	0x110
 5247 047a 05       		.uleb128 0x5
 5248 047b 3C090000 		.4byte	.LASF52
 5249 047f 0C       		.byte	0xc
 5250 0480 08       		.byte	0x8
 5251 0481 2C       		.byte	0x2c
 5252 0482 A3040000 		.4byte	0x4a3
 5253 0486 06       		.uleb128 0x6
 5254 0487 E10B0000 		.4byte	.LASF53
 5255 048b 08       		.byte	0x8
 5256 048c 2D       		.byte	0x2d
 5257 048d 81020000 		.4byte	0x281
 5258 0491 02       		.byte	0x2
 5259 0492 23       		.byte	0x23
 5260 0493 00       		.uleb128 0
 5261 0494 06       		.uleb128 0x6
 5262 0495 A1090000 		.4byte	.LASF54
 5263 0499 08       		.byte	0x8
 5264 049a 2F       		.byte	0x2f
 5265 049b 1B010000 		.4byte	0x11b
 5266 049f 02       		.byte	0x2
ARM GAS  C:\Users\jenny\AppData\Local\Temp\ccLg5IEe.s 			page 94


 5267 04a0 23       		.byte	0x23
 5268 04a1 08       		.uleb128 0x8
 5269 04a2 00       		.byte	0
 5270 04a3 03       		.uleb128 0x3
 5271 04a4 3C090000 		.4byte	.LASF52
 5272 04a8 08       		.byte	0x8
 5273 04a9 30       		.byte	0x30
 5274 04aa 7A040000 		.4byte	0x47a
 5275 04ae 05       		.uleb128 0x5
 5276 04af 47070000 		.4byte	.LASF55
 5277 04b3 10       		.byte	0x10
 5278 04b4 09       		.byte	0x9
 5279 04b5 2C       		.byte	0x2c
 5280 04b6 E5040000 		.4byte	0x4e5
 5281 04ba 06       		.uleb128 0x6
 5282 04bb 7C070000 		.4byte	.LASF56
 5283 04bf 09       		.byte	0x9
 5284 04c0 2D       		.byte	0x2d
 5285 04c1 81020000 		.4byte	0x281
 5286 04c5 02       		.byte	0x2
 5287 04c6 23       		.byte	0x23
 5288 04c7 00       		.uleb128 0
 5289 04c8 06       		.uleb128 0x6
 5290 04c9 B3010000 		.4byte	.LASF57
 5291 04cd 09       		.byte	0x9
 5292 04ce 2F       		.byte	0x2f
 5293 04cf 7B020000 		.4byte	0x27b
 5294 04d3 02       		.byte	0x2
 5295 04d4 23       		.byte	0x23
 5296 04d5 08       		.uleb128 0x8
 5297 04d6 06       		.uleb128 0x6
 5298 04d7 CA0E0000 		.4byte	.LASF58
 5299 04db 09       		.byte	0x9
 5300 04dc 31       		.byte	0x31
 5301 04dd E5040000 		.4byte	0x4e5
 5302 04e1 02       		.byte	0x2
 5303 04e2 23       		.byte	0x23
 5304 04e3 0C       		.uleb128 0xc
 5305 04e4 00       		.byte	0
 5306 04e5 09       		.uleb128 0x9
 5307 04e6 04       		.byte	0x4
 5308 04e7 AE040000 		.4byte	0x4ae
 5309 04eb 03       		.uleb128 0x3
 5310 04ec 47070000 		.4byte	.LASF55
 5311 04f0 09       		.byte	0x9
 5312 04f1 33       		.byte	0x33
 5313 04f2 AE040000 		.4byte	0x4ae
 5314 04f6 08       		.uleb128 0x8
 5315 04f7 28       		.byte	0x28
 5316 04f8 0A       		.byte	0xa
 5317 04f9 33       		.byte	0x33
 5318 04fa 53050000 		.4byte	0x553
 5319 04fe 06       		.uleb128 0x6
 5320 04ff CB000000 		.4byte	.LASF59
 5321 0503 0A       		.byte	0xa
 5322 0504 34       		.byte	0x34
 5323 0505 53050000 		.4byte	0x553
ARM GAS  C:\Users\jenny\AppData\Local\Temp\ccLg5IEe.s 			page 95


 5324 0509 02       		.byte	0x2
 5325 050a 23       		.byte	0x23
 5326 050b 00       		.uleb128 0
 5327 050c 06       		.uleb128 0x6
 5328 050d 7A090000 		.4byte	.LASF60
 5329 0511 0A       		.byte	0xa
 5330 0512 36       		.byte	0x36
 5331 0513 53050000 		.4byte	0x553
 5332 0517 02       		.byte	0x2
 5333 0518 23       		.byte	0x23
 5334 0519 04       		.uleb128 0x4
 5335 051a 06       		.uleb128 0x6
 5336 051b 84070000 		.4byte	.LASF61
 5337 051f 0A       		.byte	0xa
 5338 0520 38       		.byte	0x38
 5339 0521 53050000 		.4byte	0x553
 5340 0525 02       		.byte	0x2
 5341 0526 23       		.byte	0x23
 5342 0527 08       		.uleb128 0x8
 5343 0528 06       		.uleb128 0x6
 5344 0529 61030000 		.4byte	.LASF62
 5345 052d 0A       		.byte	0xa
 5346 052e 39       		.byte	0x39
 5347 052f 53050000 		.4byte	0x553
 5348 0533 02       		.byte	0x2
 5349 0534 23       		.byte	0x23
 5350 0535 0C       		.uleb128 0xc
 5351 0536 06       		.uleb128 0x6
 5352 0537 EF060000 		.4byte	.LASF63
 5353 053b 0A       		.byte	0xa
 5354 053c 3A       		.byte	0x3a
 5355 053d A3040000 		.4byte	0x4a3
 5356 0541 02       		.byte	0x2
 5357 0542 23       		.byte	0x23
 5358 0543 10       		.uleb128 0x10
 5359 0544 06       		.uleb128 0x6
 5360 0545 43040000 		.4byte	.LASF64
 5361 0549 0A       		.byte	0xa
 5362 054a 3C       		.byte	0x3c
 5363 054b A3040000 		.4byte	0x4a3
 5364 054f 02       		.byte	0x2
 5365 0550 23       		.byte	0x23
 5366 0551 1C       		.uleb128 0x1c
 5367 0552 00       		.byte	0
 5368 0553 09       		.uleb128 0x9
 5369 0554 04       		.byte	0x4
 5370 0555 FA000000 		.4byte	0xfa
 5371 0559 03       		.uleb128 0x3
 5372 055a 34060000 		.4byte	.LASF65
 5373 055e 0A       		.byte	0xa
 5374 055f 3E       		.byte	0x3e
 5375 0560 F6040000 		.4byte	0x4f6
 5376 0564 10       		.uleb128 0x10
 5377 0565 04       		.byte	0x4
 5378 0566 06       		.byte	0x6
 5379 0567 96       		.byte	0x96
 5380 0568 99050000 		.4byte	0x599
ARM GAS  C:\Users\jenny\AppData\Local\Temp\ccLg5IEe.s 			page 96


 5381 056c 11       		.uleb128 0x11
 5382 056d 590E0000 		.4byte	.LASF66
 5383 0571 06       		.byte	0x6
 5384 0572 9D       		.byte	0x9d
 5385 0573 FA000000 		.4byte	0xfa
 5386 0577 11       		.uleb128 0x11
 5387 0578 C3010000 		.4byte	.LASF67
 5388 057c 06       		.byte	0x6
 5389 057d A4       		.byte	0xa4
 5390 057e FA000000 		.4byte	0xfa
 5391 0582 11       		.uleb128 0x11
 5392 0583 57040000 		.4byte	.LASF68
 5393 0587 06       		.byte	0x6
 5394 0588 AB       		.byte	0xab
 5395 0589 B9020000 		.4byte	0x2b9
 5396 058d 11       		.uleb128 0x11
 5397 058e D4010000 		.4byte	.LASF69
 5398 0592 06       		.byte	0x6
 5399 0593 B2       		.byte	0xb2
 5400 0594 05010000 		.4byte	0x105
 5401 0598 00       		.byte	0
 5402 0599 09       		.uleb128 0x9
 5403 059a 04       		.byte	0x4
 5404 059b 9F050000 		.4byte	0x59f
 5405 059f 12       		.uleb128 0x12
 5406 05a0 A4050000 		.4byte	0x5a4
 5407 05a4 04       		.uleb128 0x4
 5408 05a5 01       		.byte	0x1
 5409 05a6 08       		.byte	0x8
 5410 05a7 17040000 		.4byte	.LASF70
 5411 05ab 09       		.uleb128 0x9
 5412 05ac 04       		.byte	0x4
 5413 05ad EB040000 		.4byte	0x4eb
 5414 05b1 03       		.uleb128 0x3
 5415 05b2 780E0000 		.4byte	.LASF71
 5416 05b6 0B       		.byte	0xb
 5417 05b7 38       		.byte	0x38
 5418 05b8 54000000 		.4byte	0x54
 5419 05bc 03       		.uleb128 0x3
 5420 05bd 730E0000 		.4byte	.LASF72
 5421 05c1 0B       		.byte	0xb
 5422 05c2 39       		.byte	0x39
 5423 05c3 42000000 		.4byte	0x42
 5424 05c7 03       		.uleb128 0x3
 5425 05c8 29080000 		.4byte	.LASF73
 5426 05cc 0B       		.byte	0xb
 5427 05cd 3A       		.byte	0x3a
 5428 05ce 78000000 		.4byte	0x78
 5429 05d2 03       		.uleb128 0x3
 5430 05d3 570D0000 		.4byte	.LASF74
 5431 05d7 0B       		.byte	0xb
 5432 05d8 3B       		.byte	0x3b
 5433 05d9 66000000 		.4byte	0x66
 5434 05dd 03       		.uleb128 0x3
 5435 05de 6B0B0000 		.4byte	.LASF75
 5436 05e2 0B       		.byte	0xb
 5437 05e3 3C       		.byte	0x3c
ARM GAS  C:\Users\jenny\AppData\Local\Temp\ccLg5IEe.s 			page 97


 5438 05e4 9C000000 		.4byte	0x9c
 5439 05e8 03       		.uleb128 0x3
 5440 05e9 850D0000 		.4byte	.LASF76
 5441 05ed 0B       		.byte	0xb
 5442 05ee 3E       		.byte	0x3e
 5443 05ef 9C000000 		.4byte	0x9c
 5444 05f3 05       		.uleb128 0x5
 5445 05f4 D9040000 		.4byte	.LASF77
 5446 05f8 04       		.byte	0x4
 5447 05f9 0C       		.byte	0xc
 5448 05fa 2C       		.byte	0x2c
 5449 05fb 0E060000 		.4byte	0x60e
 5450 05ff 06       		.uleb128 0x6
 5451 0600 08080000 		.4byte	.LASF78
 5452 0604 0C       		.byte	0xc
 5453 0605 2D       		.byte	0x2d
 5454 0606 DD050000 		.4byte	0x5dd
 5455 060a 02       		.byte	0x2
 5456 060b 23       		.byte	0x23
 5457 060c 00       		.uleb128 0
 5458 060d 00       		.byte	0
 5459 060e 03       		.uleb128 0x3
 5460 060f 32090000 		.4byte	.LASF79
 5461 0613 0C       		.byte	0xc
 5462 0614 40       		.byte	0x40
 5463 0615 F3050000 		.4byte	0x5f3
 5464 0619 05       		.uleb128 0x5
 5465 061a 630B0000 		.4byte	.LASF80
 5466 061e 04       		.byte	0x4
 5467 061f 0D       		.byte	0xd
 5468 0620 2C       		.byte	0x2c
 5469 0621 34060000 		.4byte	0x634
 5470 0625 06       		.uleb128 0x6
 5471 0626 A90D0000 		.4byte	.LASF81
 5472 062a 0D       		.byte	0xd
 5473 062b 2D       		.byte	0x2d
 5474 062c DD050000 		.4byte	0x5dd
 5475 0630 02       		.byte	0x2
 5476 0631 23       		.byte	0x23
 5477 0632 00       		.uleb128 0
 5478 0633 00       		.byte	0
 5479 0634 05       		.uleb128 0x5
 5480 0635 B20A0000 		.4byte	.LASF82
 5481 0639 10       		.byte	0x10
 5482 063a 0E       		.byte	0xe
 5483 063b 33       		.byte	0x33
 5484 063c 87060000 		.4byte	0x687
 5485 0640 06       		.uleb128 0x6
 5486 0641 94020000 		.4byte	.LASF83
 5487 0645 0E       		.byte	0xe
 5488 0646 34       		.byte	0x34
 5489 0647 B1050000 		.4byte	0x5b1
 5490 064b 02       		.byte	0x2
 5491 064c 23       		.byte	0x23
 5492 064d 00       		.uleb128 0
 5493 064e 06       		.uleb128 0x6
 5494 064f 7B000000 		.4byte	.LASF84
ARM GAS  C:\Users\jenny\AppData\Local\Temp\ccLg5IEe.s 			page 98


 5495 0653 0E       		.byte	0xe
 5496 0654 35       		.byte	0x35
 5497 0655 B1050000 		.4byte	0x5b1
 5498 0659 02       		.byte	0x2
 5499 065a 23       		.byte	0x23
 5500 065b 01       		.uleb128 0x1
 5501 065c 06       		.uleb128 0x6
 5502 065d 96040000 		.4byte	.LASF85
 5503 0661 0E       		.byte	0xe
 5504 0662 36       		.byte	0x36
 5505 0663 C7050000 		.4byte	0x5c7
 5506 0667 02       		.byte	0x2
 5507 0668 23       		.byte	0x23
 5508 0669 02       		.uleb128 0x2
 5509 066a 06       		.uleb128 0x6
 5510 066b 91000000 		.4byte	.LASF86
 5511 066f 0E       		.byte	0xe
 5512 0670 37       		.byte	0x37
 5513 0671 19060000 		.4byte	0x619
 5514 0675 02       		.byte	0x2
 5515 0676 23       		.byte	0x23
 5516 0677 04       		.uleb128 0x4
 5517 0678 06       		.uleb128 0x6
 5518 0679 F0040000 		.4byte	.LASF87
 5519 067d 0E       		.byte	0xe
 5520 067e 38       		.byte	0x38
 5521 067f 87060000 		.4byte	0x687
 5522 0683 02       		.byte	0x2
 5523 0684 23       		.byte	0x23
 5524 0685 08       		.uleb128 0x8
 5525 0686 00       		.byte	0
 5526 0687 13       		.uleb128 0x13
 5527 0688 A4050000 		.4byte	0x5a4
 5528 068c 97060000 		.4byte	0x697
 5529 0690 14       		.uleb128 0x14
 5530 0691 5C040000 		.4byte	0x45c
 5531 0695 07       		.byte	0x7
 5532 0696 00       		.byte	0
 5533 0697 05       		.uleb128 0x5
 5534 0698 D30A0000 		.4byte	.LASF88
 5535 069c 10       		.byte	0x10
 5536 069d 0E       		.byte	0xe
 5537 069e 3B       		.byte	0x3b
 5538 069f CE060000 		.4byte	0x6ce
 5539 06a3 06       		.uleb128 0x6
 5540 06a4 000C0000 		.4byte	.LASF89
 5541 06a8 0E       		.byte	0xe
 5542 06a9 3C       		.byte	0x3c
 5543 06aa B1050000 		.4byte	0x5b1
 5544 06ae 02       		.byte	0x2
 5545 06af 23       		.byte	0x23
 5546 06b0 00       		.uleb128 0
 5547 06b1 06       		.uleb128 0x6
 5548 06b2 E6040000 		.4byte	.LASF90
 5549 06b6 0E       		.byte	0xe
 5550 06b7 3D       		.byte	0x3d
 5551 06b8 B1050000 		.4byte	0x5b1
ARM GAS  C:\Users\jenny\AppData\Local\Temp\ccLg5IEe.s 			page 99


 5552 06bc 02       		.byte	0x2
 5553 06bd 23       		.byte	0x23
 5554 06be 01       		.uleb128 0x1
 5555 06bf 06       		.uleb128 0x6
 5556 06c0 8B0A0000 		.4byte	.LASF91
 5557 06c4 0E       		.byte	0xe
 5558 06c5 3E       		.byte	0x3e
 5559 06c6 CE060000 		.4byte	0x6ce
 5560 06ca 02       		.byte	0x2
 5561 06cb 23       		.byte	0x23
 5562 06cc 02       		.uleb128 0x2
 5563 06cd 00       		.byte	0
 5564 06ce 13       		.uleb128 0x13
 5565 06cf A4050000 		.4byte	0x5a4
 5566 06d3 DE060000 		.4byte	0x6de
 5567 06d7 14       		.uleb128 0x14
 5568 06d8 5C040000 		.4byte	0x45c
 5569 06dc 0D       		.byte	0xd
 5570 06dd 00       		.byte	0
 5571 06de 03       		.uleb128 0x3
 5572 06df 77050000 		.4byte	.LASF92
 5573 06e3 0E       		.byte	0xe
 5574 06e4 44       		.byte	0x44
 5575 06e5 DD050000 		.4byte	0x5dd
 5576 06e9 0B       		.uleb128 0xb
 5577 06ea 300D0000 		.4byte	.LASF93
 5578 06ee 01       		.byte	0x1
 5579 06ef 0E       		.byte	0xe
 5580 06f0 2C01     		.2byte	0x12c
 5581 06f2 06070000 		.4byte	0x706
 5582 06f6 15       		.uleb128 0x15
 5583 06f7 AC070000 		.4byte	.LASF94
 5584 06fb 0E       		.byte	0xe
 5585 06fc 2D01     		.2byte	0x12d
 5586 06fe 06070000 		.4byte	0x706
 5587 0702 02       		.byte	0x2
 5588 0703 23       		.byte	0x23
 5589 0704 00       		.uleb128 0
 5590 0705 00       		.byte	0
 5591 0706 13       		.uleb128 0x13
 5592 0707 5F000000 		.4byte	0x5f
 5593 070b 16070000 		.4byte	0x716
 5594 070f 14       		.uleb128 0x14
 5595 0710 5C040000 		.4byte	0x45c
 5596 0714 00       		.byte	0
 5597 0715 00       		.byte	0
 5598 0716 16       		.uleb128 0x16
 5599 0717 300D0000 		.4byte	.LASF93
 5600 071b 0E       		.byte	0xe
 5601 071c 2E01     		.2byte	0x12e
 5602 071e E9060000 		.4byte	0x6e9
 5603 0722 0B       		.uleb128 0xb
 5604 0723 6D040000 		.4byte	.LASF95
 5605 0727 08       		.byte	0x8
 5606 0728 0E       		.byte	0xe
 5607 0729 3901     		.2byte	0x139
 5608 072b 4E070000 		.4byte	0x74e
ARM GAS  C:\Users\jenny\AppData\Local\Temp\ccLg5IEe.s 			page 100


 5609 072f 15       		.uleb128 0x15
 5610 0730 EE0E0000 		.4byte	.LASF96
 5611 0734 0E       		.byte	0xe
 5612 0735 3A01     		.2byte	0x13a
 5613 0737 95000000 		.4byte	0x95
 5614 073b 02       		.byte	0x2
 5615 073c 23       		.byte	0x23
 5616 073d 00       		.uleb128 0
 5617 073e 15       		.uleb128 0x15
 5618 073f C9050000 		.4byte	.LASF97
 5619 0743 0E       		.byte	0xe
 5620 0744 3B01     		.2byte	0x13b
 5621 0746 95000000 		.4byte	0x95
 5622 074a 02       		.byte	0x2
 5623 074b 23       		.byte	0x23
 5624 074c 04       		.uleb128 0x4
 5625 074d 00       		.byte	0
 5626 074e 03       		.uleb128 0x3
 5627 074f 68090000 		.4byte	.LASF98
 5628 0753 0F       		.byte	0xf
 5629 0754 2F       		.byte	0x2f
 5630 0755 BC050000 		.4byte	0x5bc
 5631 0759 05       		.uleb128 0x5
 5632 075a 1C040000 		.4byte	.LASF99
 5633 075e 10       		.byte	0x10
 5634 075f 10       		.byte	0x10
 5635 0760 4F       		.byte	0x4f
 5636 0761 C8070000 		.4byte	0x7c8
 5637 0765 06       		.uleb128 0x6
 5638 0766 C00E0000 		.4byte	.LASF100
 5639 076a 10       		.byte	0x10
 5640 076b 51       		.byte	0x51
 5641 076c C8070000 		.4byte	0x7c8
 5642 0770 02       		.byte	0x2
 5643 0771 23       		.byte	0x23
 5644 0772 00       		.uleb128 0
 5645 0773 06       		.uleb128 0x6
 5646 0774 C7060000 		.4byte	.LASF101
 5647 0778 10       		.byte	0x10
 5648 0779 54       		.byte	0x54
 5649 077a B9020000 		.4byte	0x2b9
 5650 077e 02       		.byte	0x2
 5651 077f 23       		.byte	0x23
 5652 0780 04       		.uleb128 0x4
 5653 0781 06       		.uleb128 0x6
 5654 0782 22090000 		.4byte	.LASF102
 5655 0786 10       		.byte	0x10
 5656 0787 5D       		.byte	0x5d
 5657 0788 C7050000 		.4byte	0x5c7
 5658 078c 02       		.byte	0x2
 5659 078d 23       		.byte	0x23
 5660 078e 08       		.uleb128 0x8
 5661 078f 07       		.uleb128 0x7
 5662 0790 6C656E00 		.ascii	"len\000"
 5663 0794 10       		.byte	0x10
 5664 0795 60       		.byte	0x60
 5665 0796 C7050000 		.4byte	0x5c7
ARM GAS  C:\Users\jenny\AppData\Local\Temp\ccLg5IEe.s 			page 101


 5666 079a 02       		.byte	0x2
 5667 079b 23       		.byte	0x23
 5668 079c 0A       		.uleb128 0xa
 5669 079d 06       		.uleb128 0x6
 5670 079e 27010000 		.4byte	.LASF103
 5671 07a2 10       		.byte	0x10
 5672 07a3 63       		.byte	0x63
 5673 07a4 B1050000 		.4byte	0x5b1
 5674 07a8 02       		.byte	0x2
 5675 07a9 23       		.byte	0x23
 5676 07aa 0C       		.uleb128 0xc
 5677 07ab 06       		.uleb128 0x6
 5678 07ac 08040000 		.4byte	.LASF104
 5679 07b0 10       		.byte	0x10
 5680 07b1 66       		.byte	0x66
 5681 07b2 B1050000 		.4byte	0x5b1
 5682 07b6 02       		.byte	0x2
 5683 07b7 23       		.byte	0x23
 5684 07b8 0D       		.uleb128 0xd
 5685 07b9 07       		.uleb128 0x7
 5686 07ba 72656600 		.ascii	"ref\000"
 5687 07be 10       		.byte	0x10
 5688 07bf 6D       		.byte	0x6d
 5689 07c0 C7050000 		.4byte	0x5c7
 5690 07c4 02       		.byte	0x2
 5691 07c5 23       		.byte	0x23
 5692 07c6 0E       		.uleb128 0xe
 5693 07c7 00       		.byte	0
 5694 07c8 09       		.uleb128 0x9
 5695 07c9 04       		.byte	0x4
 5696 07ca 59070000 		.4byte	0x759
 5697 07ce 05       		.uleb128 0x5
 5698 07cf B4040000 		.4byte	.LASF105
 5699 07d3 10       		.byte	0x10
 5700 07d4 11       		.byte	0x11
 5701 07d5 30       		.byte	0x30
 5702 07d6 11080000 		.4byte	0x811
 5703 07da 07       		.uleb128 0x7
 5704 07db 7000     		.ascii	"p\000"
 5705 07dd 11       		.byte	0x11
 5706 07de 31       		.byte	0x31
 5707 07df C8070000 		.4byte	0x7c8
 5708 07e3 02       		.byte	0x2
 5709 07e4 23       		.byte	0x23
 5710 07e5 00       		.uleb128 0
 5711 07e6 07       		.uleb128 0x7
 5712 07e7 70747200 		.ascii	"ptr\000"
 5713 07eb 11       		.byte	0x11
 5714 07ec 31       		.byte	0x31
 5715 07ed C8070000 		.4byte	0x7c8
 5716 07f1 02       		.byte	0x2
 5717 07f2 23       		.byte	0x23
 5718 07f3 04       		.uleb128 0x4
 5719 07f4 06       		.uleb128 0x6
 5720 07f5 08080000 		.4byte	.LASF78
 5721 07f9 11       		.byte	0x11
 5722 07fa 32       		.byte	0x32
ARM GAS  C:\Users\jenny\AppData\Local\Temp\ccLg5IEe.s 			page 102


 5723 07fb 0E060000 		.4byte	0x60e
 5724 07ff 02       		.byte	0x2
 5725 0800 23       		.byte	0x23
 5726 0801 08       		.uleb128 0x8
 5727 0802 06       		.uleb128 0x6
 5728 0803 E90B0000 		.4byte	.LASF106
 5729 0807 11       		.byte	0x11
 5730 0808 33       		.byte	0x33
 5731 0809 C7050000 		.4byte	0x5c7
 5732 080d 02       		.byte	0x2
 5733 080e 23       		.byte	0x23
 5734 080f 0C       		.uleb128 0xc
 5735 0810 00       		.byte	0
 5736 0811 03       		.uleb128 0x3
 5737 0812 6B020000 		.4byte	.LASF107
 5738 0816 12       		.byte	0x12
 5739 0817 38       		.byte	0x38
 5740 0818 1C080000 		.4byte	0x81c
 5741 081c 09       		.uleb128 0x9
 5742 081d 04       		.byte	0x4
 5743 081e A3040000 		.4byte	0x4a3
 5744 0822 03       		.uleb128 0x3
 5745 0823 3C070000 		.4byte	.LASF108
 5746 0827 12       		.byte	0x12
 5747 0828 39       		.byte	0x39
 5748 0829 2D080000 		.4byte	0x82d
 5749 082d 09       		.uleb128 0x9
 5750 082e 04       		.byte	0x4
 5751 082f 59050000 		.4byte	0x559
 5752 0833 17       		.uleb128 0x17
 5753 0834 7E080000 		.4byte	.LASF115
 5754 0838 01       		.byte	0x1
 5755 0839 13       		.byte	0x13
 5756 083a 53       		.byte	0x53
 5757 083b 65080000 		.4byte	0x865
 5758 083f 18       		.uleb128 0x18
 5759 0840 9E010000 		.4byte	.LASF109
 5760 0844 00       		.sleb128 0
 5761 0845 18       		.uleb128 0x18
 5762 0846 F2030000 		.4byte	.LASF110
 5763 084a 10       		.sleb128 16
 5764 084b 18       		.uleb128 0x18
 5765 084c 4D070000 		.4byte	.LASF111
 5766 0850 20       		.sleb128 32
 5767 0851 18       		.uleb128 0x18
 5768 0852 490C0000 		.4byte	.LASF112
 5769 0856 21       		.sleb128 33
 5770 0857 18       		.uleb128 0x18
 5771 0858 01010000 		.4byte	.LASF113
 5772 085c 22       		.sleb128 34
 5773 085d 18       		.uleb128 0x18
 5774 085e AF0B0000 		.4byte	.LASF114
 5775 0862 C000     		.sleb128 64
 5776 0864 00       		.byte	0
 5777 0865 17       		.uleb128 0x17
 5778 0866 F0070000 		.4byte	.LASF116
 5779 086a 01       		.byte	0x1
ARM GAS  C:\Users\jenny\AppData\Local\Temp\ccLg5IEe.s 			page 103


 5780 086b 13       		.byte	0x13
 5781 086c 61       		.byte	0x61
 5782 086d 90080000 		.4byte	0x890
 5783 0871 18       		.uleb128 0x18
 5784 0872 130D0000 		.4byte	.LASF117
 5785 0876 00       		.sleb128 0
 5786 0877 18       		.uleb128 0x18
 5787 0878 4A020000 		.4byte	.LASF118
 5788 087c 01       		.sleb128 1
 5789 087d 18       		.uleb128 0x18
 5790 087e 2C0C0000 		.4byte	.LASF119
 5791 0882 02       		.sleb128 2
 5792 0883 18       		.uleb128 0x18
 5793 0884 0C090000 		.4byte	.LASF120
 5794 0888 03       		.sleb128 3
 5795 0889 18       		.uleb128 0x18
 5796 088a 3C060000 		.4byte	.LASF121
 5797 088e 04       		.sleb128 4
 5798 088f 00       		.byte	0
 5799 0890 17       		.uleb128 0x17
 5800 0891 B8020000 		.4byte	.LASF122
 5801 0895 01       		.byte	0x1
 5802 0896 13       		.byte	0x13
 5803 0897 6A       		.byte	0x6a
 5804 0898 BB080000 		.4byte	0x8bb
 5805 089c 18       		.uleb128 0x18
 5806 089d 180E0000 		.4byte	.LASF123
 5807 08a1 00       		.sleb128 0
 5808 08a2 18       		.uleb128 0x18
 5809 08a3 DC0A0000 		.4byte	.LASF124
 5810 08a7 01       		.sleb128 1
 5811 08a8 18       		.uleb128 0x18
 5812 08a9 7A060000 		.4byte	.LASF125
 5813 08ad 02       		.sleb128 2
 5814 08ae 18       		.uleb128 0x18
 5815 08af 6B0A0000 		.4byte	.LASF126
 5816 08b3 03       		.sleb128 3
 5817 08b4 18       		.uleb128 0x18
 5818 08b5 0E020000 		.4byte	.LASF127
 5819 08b9 04       		.sleb128 4
 5820 08ba 00       		.byte	0
 5821 08bb 03       		.uleb128 0x3
 5822 08bc B90D0000 		.4byte	.LASF128
 5823 08c0 13       		.byte	0x13
 5824 08c1 83       		.byte	0x83
 5825 08c2 C6080000 		.4byte	0x8c6
 5826 08c6 09       		.uleb128 0x9
 5827 08c7 04       		.byte	0x4
 5828 08c8 CC080000 		.4byte	0x8cc
 5829 08cc 0D       		.uleb128 0xd
 5830 08cd 01       		.byte	0x1
 5831 08ce E2080000 		.4byte	0x8e2
 5832 08d2 0E       		.uleb128 0xe
 5833 08d3 E2080000 		.4byte	0x8e2
 5834 08d7 0E       		.uleb128 0xe
 5835 08d8 90080000 		.4byte	0x890
 5836 08dc 0E       		.uleb128 0xe
ARM GAS  C:\Users\jenny\AppData\Local\Temp\ccLg5IEe.s 			page 104


 5837 08dd C7050000 		.4byte	0x5c7
 5838 08e1 00       		.byte	0
 5839 08e2 09       		.uleb128 0x9
 5840 08e3 04       		.byte	0x4
 5841 08e4 E8080000 		.4byte	0x8e8
 5842 08e8 05       		.uleb128 0x5
 5843 08e9 DB010000 		.4byte	.LASF129
 5844 08ed 2C       		.byte	0x2c
 5845 08ee 13       		.byte	0x13
 5846 08ef 86       		.byte	0x86
 5847 08f0 9D090000 		.4byte	0x99d
 5848 08f4 06       		.uleb128 0x6
 5849 08f5 27010000 		.4byte	.LASF103
 5850 08f9 13       		.byte	0x13
 5851 08fa 88       		.byte	0x88
 5852 08fb 33080000 		.4byte	0x833
 5853 08ff 02       		.byte	0x2
 5854 0900 23       		.byte	0x23
 5855 0901 00       		.uleb128 0
 5856 0902 06       		.uleb128 0x6
 5857 0903 F0000000 		.4byte	.LASF130
 5858 0907 13       		.byte	0x13
 5859 0908 8A       		.byte	0x8a
 5860 0909 65080000 		.4byte	0x865
 5861 090d 02       		.byte	0x2
 5862 090e 23       		.byte	0x23
 5863 090f 01       		.uleb128 0x1
 5864 0910 07       		.uleb128 0x7
 5865 0911 70636200 		.ascii	"pcb\000"
 5866 0915 13       		.byte	0x13
 5867 0916 91       		.byte	0x91
 5868 0917 9D090000 		.4byte	0x99d
 5869 091b 02       		.byte	0x2
 5870 091c 23       		.byte	0x23
 5871 091d 04       		.uleb128 0x4
 5872 091e 06       		.uleb128 0x6
 5873 091f F50E0000 		.4byte	.LASF131
 5874 0923 13       		.byte	0x13
 5875 0924 93       		.byte	0x93
 5876 0925 4E070000 		.4byte	0x74e
 5877 0929 02       		.byte	0x2
 5878 092a 23       		.byte	0x23
 5879 092b 08       		.uleb128 0x8
 5880 092c 06       		.uleb128 0x6
 5881 092d F9010000 		.4byte	.LASF132
 5882 0931 13       		.byte	0x13
 5883 0932 95       		.byte	0x95
 5884 0933 11080000 		.4byte	0x811
 5885 0937 02       		.byte	0x2
 5886 0938 23       		.byte	0x23
 5887 0939 0C       		.uleb128 0xc
 5888 093a 06       		.uleb128 0x6
 5889 093b 0F0E0000 		.4byte	.LASF133
 5890 093f 13       		.byte	0x13
 5891 0940 98       		.byte	0x98
 5892 0941 22080000 		.4byte	0x822
 5893 0945 02       		.byte	0x2
ARM GAS  C:\Users\jenny\AppData\Local\Temp\ccLg5IEe.s 			page 105


 5894 0946 23       		.byte	0x23
 5895 0947 10       		.uleb128 0x10
 5896 0948 06       		.uleb128 0x6
 5897 0949 B3060000 		.4byte	.LASF134
 5898 094d 13       		.byte	0x13
 5899 094e 9C       		.byte	0x9c
 5900 094f 22080000 		.4byte	0x822
 5901 0953 02       		.byte	0x2
 5902 0954 23       		.byte	0x23
 5903 0955 14       		.uleb128 0x14
 5904 0956 06       		.uleb128 0x6
 5905 0957 3E0D0000 		.4byte	.LASF135
 5906 095b 13       		.byte	0x13
 5907 095c A0       		.byte	0xa0
 5908 095d 29000000 		.4byte	0x29
 5909 0961 02       		.byte	0x2
 5910 0962 23       		.byte	0x23
 5911 0963 18       		.uleb128 0x18
 5912 0964 06       		.uleb128 0x6
 5913 0965 08040000 		.4byte	.LASF104
 5914 0969 13       		.byte	0x13
 5915 096a B6       		.byte	0xb6
 5916 096b B1050000 		.4byte	0x5b1
 5917 096f 02       		.byte	0x2
 5918 0970 23       		.byte	0x23
 5919 0971 1C       		.uleb128 0x1c
 5920 0972 06       		.uleb128 0x6
 5921 0973 790B0000 		.4byte	.LASF136
 5922 0977 13       		.byte	0x13
 5923 0978 BA       		.byte	0xba
 5924 0979 30000000 		.4byte	0x30
 5925 097d 02       		.byte	0x2
 5926 097e 23       		.byte	0x23
 5927 097f 20       		.uleb128 0x20
 5928 0980 06       		.uleb128 0x6
 5929 0981 4A060000 		.4byte	.LASF137
 5930 0985 13       		.byte	0x13
 5931 0986 BE       		.byte	0xbe
 5932 0987 CF0E0000 		.4byte	0xecf
 5933 098b 02       		.byte	0x2
 5934 098c 23       		.byte	0x23
 5935 098d 24       		.uleb128 0x24
 5936 098e 06       		.uleb128 0x6
 5937 098f BE060000 		.4byte	.LASF138
 5938 0993 13       		.byte	0x13
 5939 0994 C1       		.byte	0xc1
 5940 0995 BB080000 		.4byte	0x8bb
 5941 0999 02       		.byte	0x2
 5942 099a 23       		.byte	0x23
 5943 099b 28       		.uleb128 0x28
 5944 099c 00       		.byte	0
 5945 099d 10       		.uleb128 0x10
 5946 099e 04       		.byte	0x4
 5947 099f 13       		.byte	0x13
 5948 09a0 8C       		.byte	0x8c
 5949 09a1 D1090000 		.4byte	0x9d1
 5950 09a5 19       		.uleb128 0x19
ARM GAS  C:\Users\jenny\AppData\Local\Temp\ccLg5IEe.s 			page 106


 5951 09a6 697000   		.ascii	"ip\000"
 5952 09a9 13       		.byte	0x13
 5953 09aa 8D       		.byte	0x8d
 5954 09ab 240A0000 		.4byte	0xa24
 5955 09af 19       		.uleb128 0x19
 5956 09b0 74637000 		.ascii	"tcp\000"
 5957 09b4 13       		.byte	0x13
 5958 09b5 8E       		.byte	0x8e
 5959 09b6 540D0000 		.4byte	0xd54
 5960 09ba 19       		.uleb128 0x19
 5961 09bb 75647000 		.ascii	"udp\000"
 5962 09bf 13       		.byte	0x13
 5963 09c0 8F       		.byte	0x8f
 5964 09c1 010E0000 		.4byte	0xe01
 5965 09c5 19       		.uleb128 0x19
 5966 09c6 72617700 		.ascii	"raw\000"
 5967 09ca 13       		.byte	0x13
 5968 09cb 90       		.byte	0x90
 5969 09cc 920E0000 		.4byte	0xe92
 5970 09d0 00       		.byte	0
 5971 09d1 05       		.uleb128 0x5
 5972 09d2 75070000 		.4byte	.LASF139
 5973 09d6 0C       		.byte	0xc
 5974 09d7 14       		.byte	0x14
 5975 09d8 59       		.byte	0x59
 5976 09d9 240A0000 		.4byte	0xa24
 5977 09dd 06       		.uleb128 0x6
 5978 09de 8E030000 		.4byte	.LASF140
 5979 09e2 14       		.byte	0x14
 5980 09e3 5B       		.byte	0x5b
 5981 09e4 0E060000 		.4byte	0x60e
 5982 09e8 02       		.byte	0x2
 5983 09e9 23       		.byte	0x23
 5984 09ea 00       		.uleb128 0
 5985 09eb 06       		.uleb128 0x6
 5986 09ec 590B0000 		.4byte	.LASF141
 5987 09f0 14       		.byte	0x14
 5988 09f1 5B       		.byte	0x5b
 5989 09f2 0E060000 		.4byte	0x60e
 5990 09f6 02       		.byte	0x2
 5991 09f7 23       		.byte	0x23
 5992 09f8 04       		.uleb128 0x4
 5993 09f9 06       		.uleb128 0x6
 5994 09fa AD000000 		.4byte	.LASF142
 5995 09fe 14       		.byte	0x14
 5996 09ff 5B       		.byte	0x5b
 5997 0a00 B1050000 		.4byte	0x5b1
 5998 0a04 02       		.byte	0x2
 5999 0a05 23       		.byte	0x23
 6000 0a06 08       		.uleb128 0x8
 6001 0a07 07       		.uleb128 0x7
 6002 0a08 746F7300 		.ascii	"tos\000"
 6003 0a0c 14       		.byte	0x14
 6004 0a0d 5B       		.byte	0x5b
 6005 0a0e B1050000 		.4byte	0x5b1
 6006 0a12 02       		.byte	0x2
 6007 0a13 23       		.byte	0x23
ARM GAS  C:\Users\jenny\AppData\Local\Temp\ccLg5IEe.s 			page 107


 6008 0a14 09       		.uleb128 0x9
 6009 0a15 07       		.uleb128 0x7
 6010 0a16 74746C00 		.ascii	"ttl\000"
 6011 0a1a 14       		.byte	0x14
 6012 0a1b 5B       		.byte	0x5b
 6013 0a1c B1050000 		.4byte	0x5b1
 6014 0a20 02       		.byte	0x2
 6015 0a21 23       		.byte	0x23
 6016 0a22 0A       		.uleb128 0xa
 6017 0a23 00       		.byte	0
 6018 0a24 09       		.uleb128 0x9
 6019 0a25 04       		.byte	0x4
 6020 0a26 D1090000 		.4byte	0x9d1
 6021 0a2a 05       		.uleb128 0x5
 6022 0a2b AC040000 		.4byte	.LASF143
 6023 0a2f 98       		.byte	0x98
 6024 0a30 15       		.byte	0x15
 6025 0a31 A8       		.byte	0xa8
 6026 0a32 540D0000 		.4byte	0xd54
 6027 0a36 06       		.uleb128 0x6
 6028 0a37 8E030000 		.4byte	.LASF140
 6029 0a3b 15       		.byte	0x15
 6030 0a3c AA       		.byte	0xaa
 6031 0a3d 0E060000 		.4byte	0x60e
 6032 0a41 02       		.byte	0x2
 6033 0a42 23       		.byte	0x23
 6034 0a43 00       		.uleb128 0
 6035 0a44 06       		.uleb128 0x6
 6036 0a45 590B0000 		.4byte	.LASF141
 6037 0a49 15       		.byte	0x15
 6038 0a4a AA       		.byte	0xaa
 6039 0a4b 0E060000 		.4byte	0x60e
 6040 0a4f 02       		.byte	0x2
 6041 0a50 23       		.byte	0x23
 6042 0a51 04       		.uleb128 0x4
 6043 0a52 06       		.uleb128 0x6
 6044 0a53 AD000000 		.4byte	.LASF142
 6045 0a57 15       		.byte	0x15
 6046 0a58 AA       		.byte	0xaa
 6047 0a59 B1050000 		.4byte	0x5b1
 6048 0a5d 02       		.byte	0x2
 6049 0a5e 23       		.byte	0x23
 6050 0a5f 08       		.uleb128 0x8
 6051 0a60 07       		.uleb128 0x7
 6052 0a61 746F7300 		.ascii	"tos\000"
 6053 0a65 15       		.byte	0x15
 6054 0a66 AA       		.byte	0xaa
 6055 0a67 B1050000 		.4byte	0x5b1
 6056 0a6b 02       		.byte	0x2
 6057 0a6c 23       		.byte	0x23
 6058 0a6d 09       		.uleb128 0x9
 6059 0a6e 07       		.uleb128 0x7
 6060 0a6f 74746C00 		.ascii	"ttl\000"
 6061 0a73 15       		.byte	0x15
 6062 0a74 AA       		.byte	0xaa
 6063 0a75 B1050000 		.4byte	0x5b1
 6064 0a79 02       		.byte	0x2
ARM GAS  C:\Users\jenny\AppData\Local\Temp\ccLg5IEe.s 			page 108


 6065 0a7a 23       		.byte	0x23
 6066 0a7b 0A       		.uleb128 0xa
 6067 0a7c 06       		.uleb128 0x6
 6068 0a7d C00E0000 		.4byte	.LASF100
 6069 0a81 15       		.byte	0x15
 6070 0a82 AC       		.byte	0xac
 6071 0a83 540D0000 		.4byte	0xd54
 6072 0a87 02       		.byte	0x2
 6073 0a88 23       		.byte	0x23
 6074 0a89 0C       		.uleb128 0xc
 6075 0a8a 06       		.uleb128 0x6
 6076 0a8b 8A0C0000 		.4byte	.LASF144
 6077 0a8f 15       		.byte	0x15
 6078 0a90 AC       		.byte	0xac
 6079 0a91 B9020000 		.4byte	0x2b9
 6080 0a95 02       		.byte	0x2
 6081 0a96 23       		.byte	0x23
 6082 0a97 10       		.uleb128 0x10
 6083 0a98 06       		.uleb128 0x6
 6084 0a99 D10C0000 		.4byte	.LASF145
 6085 0a9d 15       		.byte	0x15
 6086 0a9e AC       		.byte	0xac
 6087 0a9f DB0E0000 		.4byte	0xedb
 6088 0aa3 02       		.byte	0x2
 6089 0aa4 23       		.byte	0x23
 6090 0aa5 14       		.uleb128 0x14
 6091 0aa6 06       		.uleb128 0x6
 6092 0aa7 F0000000 		.4byte	.LASF130
 6093 0aab 15       		.byte	0x15
 6094 0aac AC       		.byte	0xac
 6095 0aad B40F0000 		.4byte	0xfb4
 6096 0ab1 02       		.byte	0x2
 6097 0ab2 23       		.byte	0x23
 6098 0ab3 18       		.uleb128 0x18
 6099 0ab4 06       		.uleb128 0x6
 6100 0ab5 AE010000 		.4byte	.LASF146
 6101 0ab9 15       		.byte	0x15
 6102 0aba AC       		.byte	0xac
 6103 0abb B1050000 		.4byte	0x5b1
 6104 0abf 02       		.byte	0x2
 6105 0ac0 23       		.byte	0x23
 6106 0ac1 19       		.uleb128 0x19
 6107 0ac2 06       		.uleb128 0x6
 6108 0ac3 8B040000 		.4byte	.LASF147
 6109 0ac7 15       		.byte	0x15
 6110 0ac8 AC       		.byte	0xac
 6111 0ac9 C7050000 		.4byte	0x5c7
 6112 0acd 02       		.byte	0x2
 6113 0ace 23       		.byte	0x23
 6114 0acf 1A       		.uleb128 0x1a
 6115 0ad0 06       		.uleb128 0x6
 6116 0ad1 DC090000 		.4byte	.LASF148
 6117 0ad5 15       		.byte	0x15
 6118 0ad6 AF       		.byte	0xaf
 6119 0ad7 C7050000 		.4byte	0x5c7
 6120 0adb 02       		.byte	0x2
 6121 0adc 23       		.byte	0x23
ARM GAS  C:\Users\jenny\AppData\Local\Temp\ccLg5IEe.s 			page 109


 6122 0add 1C       		.uleb128 0x1c
 6123 0ade 06       		.uleb128 0x6
 6124 0adf 08040000 		.4byte	.LASF104
 6125 0ae3 15       		.byte	0x15
 6126 0ae4 B1       		.byte	0xb1
 6127 0ae5 B1050000 		.4byte	0x5b1
 6128 0ae9 02       		.byte	0x2
 6129 0aea 23       		.byte	0x23
 6130 0aeb 1E       		.uleb128 0x1e
 6131 0aec 06       		.uleb128 0x6
 6132 0aed BB010000 		.4byte	.LASF149
 6133 0af1 15       		.byte	0x15
 6134 0af2 BF       		.byte	0xbf
 6135 0af3 B1050000 		.4byte	0x5b1
 6136 0af7 02       		.byte	0x2
 6137 0af8 23       		.byte	0x23
 6138 0af9 1F       		.uleb128 0x1f
 6139 0afa 06       		.uleb128 0x6
 6140 0afb DB070000 		.4byte	.LASF150
 6141 0aff 15       		.byte	0x15
 6142 0b00 BF       		.byte	0xbf
 6143 0b01 B1050000 		.4byte	0x5b1
 6144 0b05 02       		.byte	0x2
 6145 0b06 23       		.byte	0x23
 6146 0b07 20       		.uleb128 0x20
 6147 0b08 06       		.uleb128 0x6
 6148 0b09 EA050000 		.4byte	.LASF151
 6149 0b0d 15       		.byte	0x15
 6150 0b0e C0       		.byte	0xc0
 6151 0b0f B1050000 		.4byte	0x5b1
 6152 0b13 02       		.byte	0x2
 6153 0b14 23       		.byte	0x23
 6154 0b15 21       		.uleb128 0x21
 6155 0b16 07       		.uleb128 0x7
 6156 0b17 746D7200 		.ascii	"tmr\000"
 6157 0b1b 15       		.byte	0x15
 6158 0b1c C1       		.byte	0xc1
 6159 0b1d DD050000 		.4byte	0x5dd
 6160 0b21 02       		.byte	0x2
 6161 0b22 23       		.byte	0x23
 6162 0b23 24       		.uleb128 0x24
 6163 0b24 06       		.uleb128 0x6
 6164 0b25 43080000 		.4byte	.LASF152
 6165 0b29 15       		.byte	0x15
 6166 0b2a C4       		.byte	0xc4
 6167 0b2b DD050000 		.4byte	0x5dd
 6168 0b2f 02       		.byte	0x2
 6169 0b30 23       		.byte	0x23
 6170 0b31 28       		.uleb128 0x28
 6171 0b32 06       		.uleb128 0x6
 6172 0b33 A5000000 		.4byte	.LASF153
 6173 0b37 15       		.byte	0x15
 6174 0b38 C5       		.byte	0xc5
 6175 0b39 C7050000 		.4byte	0x5c7
 6176 0b3d 02       		.byte	0x2
 6177 0b3e 23       		.byte	0x23
 6178 0b3f 2C       		.uleb128 0x2c
ARM GAS  C:\Users\jenny\AppData\Local\Temp\ccLg5IEe.s 			page 110


 6179 0b40 06       		.uleb128 0x6
 6180 0b41 32000000 		.4byte	.LASF154
 6181 0b45 15       		.byte	0x15
 6182 0b46 C6       		.byte	0xc6
 6183 0b47 C7050000 		.4byte	0x5c7
 6184 0b4b 02       		.byte	0x2
 6185 0b4c 23       		.byte	0x23
 6186 0b4d 2E       		.uleb128 0x2e
 6187 0b4e 06       		.uleb128 0x6
 6188 0b4f A7050000 		.4byte	.LASF155
 6189 0b53 15       		.byte	0x15
 6190 0b54 C7       		.byte	0xc7
 6191 0b55 DD050000 		.4byte	0x5dd
 6192 0b59 02       		.byte	0x2
 6193 0b5a 23       		.byte	0x23
 6194 0b5b 30       		.uleb128 0x30
 6195 0b5c 06       		.uleb128 0x6
 6196 0b5d C3080000 		.4byte	.LASF156
 6197 0b61 15       		.byte	0x15
 6198 0b62 CA       		.byte	0xca
 6199 0b63 D2050000 		.4byte	0x5d2
 6200 0b67 02       		.byte	0x2
 6201 0b68 23       		.byte	0x23
 6202 0b69 34       		.uleb128 0x34
 6203 0b6a 07       		.uleb128 0x7
 6204 0b6b 6D737300 		.ascii	"mss\000"
 6205 0b6f 15       		.byte	0x15
 6206 0b70 CC       		.byte	0xcc
 6207 0b71 C7050000 		.4byte	0x5c7
 6208 0b75 02       		.byte	0x2
 6209 0b76 23       		.byte	0x23
 6210 0b77 36       		.uleb128 0x36
 6211 0b78 06       		.uleb128 0x6
 6212 0b79 D2040000 		.4byte	.LASF157
 6213 0b7d 15       		.byte	0x15
 6214 0b7e CF       		.byte	0xcf
 6215 0b7f DD050000 		.4byte	0x5dd
 6216 0b83 02       		.byte	0x2
 6217 0b84 23       		.byte	0x23
 6218 0b85 38       		.uleb128 0x38
 6219 0b86 06       		.uleb128 0x6
 6220 0b87 DC050000 		.4byte	.LASF158
 6221 0b8b 15       		.byte	0x15
 6222 0b8c D0       		.byte	0xd0
 6223 0b8d DD050000 		.4byte	0x5dd
 6224 0b91 02       		.byte	0x2
 6225 0b92 23       		.byte	0x23
 6226 0b93 3C       		.uleb128 0x3c
 6227 0b94 07       		.uleb128 0x7
 6228 0b95 736100   		.ascii	"sa\000"
 6229 0b98 15       		.byte	0x15
 6230 0b99 D1       		.byte	0xd1
 6231 0b9a D2050000 		.4byte	0x5d2
 6232 0b9e 02       		.byte	0x2
 6233 0b9f 23       		.byte	0x23
 6234 0ba0 40       		.uleb128 0x40
 6235 0ba1 07       		.uleb128 0x7
ARM GAS  C:\Users\jenny\AppData\Local\Temp\ccLg5IEe.s 			page 111


 6236 0ba2 737600   		.ascii	"sv\000"
 6237 0ba5 15       		.byte	0x15
 6238 0ba6 D1       		.byte	0xd1
 6239 0ba7 D2050000 		.4byte	0x5d2
 6240 0bab 02       		.byte	0x2
 6241 0bac 23       		.byte	0x23
 6242 0bad 42       		.uleb128 0x42
 6243 0bae 07       		.uleb128 0x7
 6244 0baf 72746F00 		.ascii	"rto\000"
 6245 0bb3 15       		.byte	0x15
 6246 0bb4 D3       		.byte	0xd3
 6247 0bb5 D2050000 		.4byte	0x5d2
 6248 0bb9 02       		.byte	0x2
 6249 0bba 23       		.byte	0x23
 6250 0bbb 44       		.uleb128 0x44
 6251 0bbc 06       		.uleb128 0x6
 6252 0bbd DC060000 		.4byte	.LASF159
 6253 0bc1 15       		.byte	0x15
 6254 0bc2 D4       		.byte	0xd4
 6255 0bc3 B1050000 		.4byte	0x5b1
 6256 0bc7 02       		.byte	0x2
 6257 0bc8 23       		.byte	0x23
 6258 0bc9 46       		.uleb128 0x46
 6259 0bca 06       		.uleb128 0x6
 6260 0bcb 450D0000 		.4byte	.LASF160
 6261 0bcf 15       		.byte	0x15
 6262 0bd0 D7       		.byte	0xd7
 6263 0bd1 B1050000 		.4byte	0x5b1
 6264 0bd5 02       		.byte	0x2
 6265 0bd6 23       		.byte	0x23
 6266 0bd7 47       		.uleb128 0x47
 6267 0bd8 06       		.uleb128 0x6
 6268 0bd9 0B070000 		.4byte	.LASF161
 6269 0bdd 15       		.byte	0x15
 6270 0bde D8       		.byte	0xd8
 6271 0bdf DD050000 		.4byte	0x5dd
 6272 0be3 02       		.byte	0x2
 6273 0be4 23       		.byte	0x23
 6274 0be5 48       		.uleb128 0x48
 6275 0be6 06       		.uleb128 0x6
 6276 0be7 480A0000 		.4byte	.LASF162
 6277 0beb 15       		.byte	0x15
 6278 0bec DB       		.byte	0xdb
 6279 0bed C7050000 		.4byte	0x5c7
 6280 0bf1 02       		.byte	0x2
 6281 0bf2 23       		.byte	0x23
 6282 0bf3 4C       		.uleb128 0x4c
 6283 0bf4 06       		.uleb128 0x6
 6284 0bf5 1E010000 		.4byte	.LASF163
 6285 0bf9 15       		.byte	0x15
 6286 0bfa DC       		.byte	0xdc
 6287 0bfb C7050000 		.4byte	0x5c7
 6288 0bff 02       		.byte	0x2
 6289 0c00 23       		.byte	0x23
 6290 0c01 4E       		.uleb128 0x4e
 6291 0c02 06       		.uleb128 0x6
 6292 0c03 28070000 		.4byte	.LASF164
ARM GAS  C:\Users\jenny\AppData\Local\Temp\ccLg5IEe.s 			page 112


 6293 0c07 15       		.byte	0x15
 6294 0c08 DF       		.byte	0xdf
 6295 0c09 DD050000 		.4byte	0x5dd
 6296 0c0d 02       		.byte	0x2
 6297 0c0e 23       		.byte	0x23
 6298 0c0f 50       		.uleb128 0x50
 6299 0c10 06       		.uleb128 0x6
 6300 0c11 200D0000 		.4byte	.LASF165
 6301 0c15 15       		.byte	0x15
 6302 0c16 E0       		.byte	0xe0
 6303 0c17 DD050000 		.4byte	0x5dd
 6304 0c1b 02       		.byte	0x2
 6305 0c1c 23       		.byte	0x23
 6306 0c1d 54       		.uleb128 0x54
 6307 0c1e 06       		.uleb128 0x6
 6308 0c1f 280D0000 		.4byte	.LASF166
 6309 0c23 15       		.byte	0x15
 6310 0c24 E0       		.byte	0xe0
 6311 0c25 DD050000 		.4byte	0x5dd
 6312 0c29 02       		.byte	0x2
 6313 0c2a 23       		.byte	0x23
 6314 0c2b 58       		.uleb128 0x58
 6315 0c2c 06       		.uleb128 0x6
 6316 0c2d 59050000 		.4byte	.LASF167
 6317 0c31 15       		.byte	0x15
 6318 0c32 E2       		.byte	0xe2
 6319 0c33 DD050000 		.4byte	0x5dd
 6320 0c37 02       		.byte	0x2
 6321 0c38 23       		.byte	0x23
 6322 0c39 5C       		.uleb128 0x5c
 6323 0c3a 06       		.uleb128 0x6
 6324 0c3b 940E0000 		.4byte	.LASF168
 6325 0c3f 15       		.byte	0x15
 6326 0c40 E3       		.byte	0xe3
 6327 0c41 C7050000 		.4byte	0x5c7
 6328 0c45 02       		.byte	0x2
 6329 0c46 23       		.byte	0x23
 6330 0c47 60       		.uleb128 0x60
 6331 0c48 06       		.uleb128 0x6
 6332 0c49 37080000 		.4byte	.LASF169
 6333 0c4d 15       		.byte	0x15
 6334 0c4e E4       		.byte	0xe4
 6335 0c4f C7050000 		.4byte	0x5c7
 6336 0c53 02       		.byte	0x2
 6337 0c54 23       		.byte	0x23
 6338 0c55 62       		.uleb128 0x62
 6339 0c56 06       		.uleb128 0x6
 6340 0c57 EE0B0000 		.4byte	.LASF170
 6341 0c5b 15       		.byte	0x15
 6342 0c5c E6       		.byte	0xe6
 6343 0c5d C7050000 		.4byte	0x5c7
 6344 0c61 02       		.byte	0x2
 6345 0c62 23       		.byte	0x23
 6346 0c63 64       		.uleb128 0x64
 6347 0c64 06       		.uleb128 0x6
 6348 0c65 850E0000 		.4byte	.LASF171
 6349 0c69 15       		.byte	0x15
ARM GAS  C:\Users\jenny\AppData\Local\Temp\ccLg5IEe.s 			page 113


 6350 0c6a E8       		.byte	0xe8
 6351 0c6b C7050000 		.4byte	0x5c7
 6352 0c6f 02       		.byte	0x2
 6353 0c70 23       		.byte	0x23
 6354 0c71 66       		.uleb128 0x66
 6355 0c72 06       		.uleb128 0x6
 6356 0c73 930A0000 		.4byte	.LASF172
 6357 0c77 15       		.byte	0x15
 6358 0c78 EA       		.byte	0xea
 6359 0c79 C7050000 		.4byte	0x5c7
 6360 0c7d 02       		.byte	0x2
 6361 0c7e 23       		.byte	0x23
 6362 0c7f 68       		.uleb128 0x68
 6363 0c80 06       		.uleb128 0x6
 6364 0c81 210B0000 		.4byte	.LASF173
 6365 0c85 15       		.byte	0x15
 6366 0c86 EE       		.byte	0xee
 6367 0c87 C7050000 		.4byte	0x5c7
 6368 0c8b 02       		.byte	0x2
 6369 0c8c 23       		.byte	0x23
 6370 0c8d 6A       		.uleb128 0x6a
 6371 0c8e 06       		.uleb128 0x6
 6372 0c8f F10A0000 		.4byte	.LASF174
 6373 0c93 15       		.byte	0x15
 6374 0c94 F2       		.byte	0xf2
 6375 0c95 09100000 		.4byte	0x1009
 6376 0c99 02       		.byte	0x2
 6377 0c9a 23       		.byte	0x23
 6378 0c9b 6C       		.uleb128 0x6c
 6379 0c9c 06       		.uleb128 0x6
 6380 0c9d 7A0C0000 		.4byte	.LASF175
 6381 0ca1 15       		.byte	0x15
 6382 0ca2 F3       		.byte	0xf3
 6383 0ca3 09100000 		.4byte	0x1009
 6384 0ca7 02       		.byte	0x2
 6385 0ca8 23       		.byte	0x23
 6386 0ca9 70       		.uleb128 0x70
 6387 0caa 06       		.uleb128 0x6
 6388 0cab FE0E0000 		.4byte	.LASF176
 6389 0caf 15       		.byte	0x15
 6390 0cb0 F5       		.byte	0xf5
 6391 0cb1 09100000 		.4byte	0x1009
 6392 0cb5 02       		.byte	0x2
 6393 0cb6 23       		.byte	0x23
 6394 0cb7 74       		.uleb128 0x74
 6395 0cb8 06       		.uleb128 0x6
 6396 0cb9 5E0A0000 		.4byte	.LASF177
 6397 0cbd 15       		.byte	0x15
 6398 0cbe F8       		.byte	0xf8
 6399 0cbf C8070000 		.4byte	0x7c8
 6400 0cc3 02       		.byte	0x2
 6401 0cc4 23       		.byte	0x23
 6402 0cc5 78       		.uleb128 0x78
 6403 0cc6 06       		.uleb128 0x6
 6404 0cc7 62070000 		.4byte	.LASF178
 6405 0ccb 15       		.byte	0x15
 6406 0ccc FC       		.byte	0xfc
ARM GAS  C:\Users\jenny\AppData\Local\Temp\ccLg5IEe.s 			page 114


 6407 0ccd 360F0000 		.4byte	0xf36
 6408 0cd1 02       		.byte	0x2
 6409 0cd2 23       		.byte	0x23
 6410 0cd3 7C       		.uleb128 0x7c
 6411 0cd4 06       		.uleb128 0x6
 6412 0cd5 FF080000 		.4byte	.LASF179
 6413 0cd9 15       		.byte	0x15
 6414 0cda FE       		.byte	0xfe
 6415 0cdb 060F0000 		.4byte	0xf06
 6416 0cdf 03       		.byte	0x3
 6417 0ce0 23       		.byte	0x23
 6418 0ce1 8001     		.uleb128 0x80
 6419 0ce3 15       		.uleb128 0x15
 6420 0ce4 D90E0000 		.4byte	.LASF180
 6421 0ce8 15       		.byte	0x15
 6422 0ce9 0001     		.2byte	0x100
 6423 0ceb A90F0000 		.4byte	0xfa9
 6424 0cef 03       		.byte	0x3
 6425 0cf0 23       		.byte	0x23
 6426 0cf1 8401     		.uleb128 0x84
 6427 0cf3 15       		.uleb128 0x15
 6428 0cf4 A6080000 		.4byte	.LASF181
 6429 0cf8 15       		.byte	0x15
 6430 0cf9 0201     		.2byte	0x102
 6431 0cfb 610F0000 		.4byte	0xf61
 6432 0cff 03       		.byte	0x3
 6433 0d00 23       		.byte	0x23
 6434 0d01 8801     		.uleb128 0x88
 6435 0d03 15       		.uleb128 0x15
 6436 0d04 B20C0000 		.4byte	.LASF182
 6437 0d08 15       		.byte	0x15
 6438 0d09 0401     		.2byte	0x104
 6439 0d0b 870F0000 		.4byte	0xf87
 6440 0d0f 03       		.byte	0x3
 6441 0d10 23       		.byte	0x23
 6442 0d11 8C01     		.uleb128 0x8c
 6443 0d13 15       		.uleb128 0x15
 6444 0d14 070C0000 		.4byte	.LASF183
 6445 0d18 15       		.byte	0x15
 6446 0d19 0D01     		.2byte	0x10d
 6447 0d1b DD050000 		.4byte	0x5dd
 6448 0d1f 03       		.byte	0x3
 6449 0d20 23       		.byte	0x23
 6450 0d21 9001     		.uleb128 0x90
 6451 0d23 15       		.uleb128 0x15
 6452 0d24 81050000 		.4byte	.LASF184
 6453 0d28 15       		.byte	0x15
 6454 0d29 1401     		.2byte	0x114
 6455 0d2b B1050000 		.4byte	0x5b1
 6456 0d2f 03       		.byte	0x3
 6457 0d30 23       		.byte	0x23
 6458 0d31 9401     		.uleb128 0x94
 6459 0d33 15       		.uleb128 0x15
 6460 0d34 F9090000 		.4byte	.LASF185
 6461 0d38 15       		.byte	0x15
 6462 0d39 1601     		.2byte	0x116
 6463 0d3b B1050000 		.4byte	0x5b1
ARM GAS  C:\Users\jenny\AppData\Local\Temp\ccLg5IEe.s 			page 115


 6464 0d3f 03       		.byte	0x3
 6465 0d40 23       		.byte	0x23
 6466 0d41 9501     		.uleb128 0x95
 6467 0d43 15       		.uleb128 0x15
 6468 0d44 49030000 		.4byte	.LASF186
 6469 0d48 15       		.byte	0x15
 6470 0d49 1901     		.2byte	0x119
 6471 0d4b B1050000 		.4byte	0x5b1
 6472 0d4f 03       		.byte	0x3
 6473 0d50 23       		.byte	0x23
 6474 0d51 9601     		.uleb128 0x96
 6475 0d53 00       		.byte	0
 6476 0d54 09       		.uleb128 0x9
 6477 0d55 04       		.byte	0x4
 6478 0d56 2A0A0000 		.4byte	0xa2a
 6479 0d5a 05       		.uleb128 0x5
 6480 0d5b 75040000 		.4byte	.LASF187
 6481 0d5f 20       		.byte	0x20
 6482 0d60 16       		.byte	0x16
 6483 0d61 5B       		.byte	0x5b
 6484 0d62 010E0000 		.4byte	0xe01
 6485 0d66 06       		.uleb128 0x6
 6486 0d67 8E030000 		.4byte	.LASF140
 6487 0d6b 16       		.byte	0x16
 6488 0d6c 5D       		.byte	0x5d
 6489 0d6d 0E060000 		.4byte	0x60e
 6490 0d71 02       		.byte	0x2
 6491 0d72 23       		.byte	0x23
 6492 0d73 00       		.uleb128 0
 6493 0d74 06       		.uleb128 0x6
 6494 0d75 590B0000 		.4byte	.LASF141
 6495 0d79 16       		.byte	0x16
 6496 0d7a 5D       		.byte	0x5d
 6497 0d7b 0E060000 		.4byte	0x60e
 6498 0d7f 02       		.byte	0x2
 6499 0d80 23       		.byte	0x23
 6500 0d81 04       		.uleb128 0x4
 6501 0d82 06       		.uleb128 0x6
 6502 0d83 AD000000 		.4byte	.LASF142
 6503 0d87 16       		.byte	0x16
 6504 0d88 5D       		.byte	0x5d
 6505 0d89 B1050000 		.4byte	0x5b1
 6506 0d8d 02       		.byte	0x2
 6507 0d8e 23       		.byte	0x23
 6508 0d8f 08       		.uleb128 0x8
 6509 0d90 07       		.uleb128 0x7
 6510 0d91 746F7300 		.ascii	"tos\000"
 6511 0d95 16       		.byte	0x16
 6512 0d96 5D       		.byte	0x5d
 6513 0d97 B1050000 		.4byte	0x5b1
 6514 0d9b 02       		.byte	0x2
 6515 0d9c 23       		.byte	0x23
 6516 0d9d 09       		.uleb128 0x9
 6517 0d9e 07       		.uleb128 0x7
 6518 0d9f 74746C00 		.ascii	"ttl\000"
 6519 0da3 16       		.byte	0x16
 6520 0da4 5D       		.byte	0x5d
ARM GAS  C:\Users\jenny\AppData\Local\Temp\ccLg5IEe.s 			page 116


 6521 0da5 B1050000 		.4byte	0x5b1
 6522 0da9 02       		.byte	0x2
 6523 0daa 23       		.byte	0x23
 6524 0dab 0A       		.uleb128 0xa
 6525 0dac 06       		.uleb128 0x6
 6526 0dad C00E0000 		.4byte	.LASF100
 6527 0db1 16       		.byte	0x16
 6528 0db2 61       		.byte	0x61
 6529 0db3 010E0000 		.4byte	0xe01
 6530 0db7 02       		.byte	0x2
 6531 0db8 23       		.byte	0x23
 6532 0db9 0C       		.uleb128 0xc
 6533 0dba 06       		.uleb128 0x6
 6534 0dbb 08040000 		.4byte	.LASF104
 6535 0dbf 16       		.byte	0x16
 6536 0dc0 63       		.byte	0x63
 6537 0dc1 B1050000 		.4byte	0x5b1
 6538 0dc5 02       		.byte	0x2
 6539 0dc6 23       		.byte	0x23
 6540 0dc7 10       		.uleb128 0x10
 6541 0dc8 06       		.uleb128 0x6
 6542 0dc9 8B040000 		.4byte	.LASF147
 6543 0dcd 16       		.byte	0x16
 6544 0dce 65       		.byte	0x65
 6545 0dcf C7050000 		.4byte	0x5c7
 6546 0dd3 02       		.byte	0x2
 6547 0dd4 23       		.byte	0x23
 6548 0dd5 12       		.uleb128 0x12
 6549 0dd6 06       		.uleb128 0x6
 6550 0dd7 DC090000 		.4byte	.LASF148
 6551 0ddb 16       		.byte	0x16
 6552 0ddc 65       		.byte	0x65
 6553 0ddd C7050000 		.4byte	0x5c7
 6554 0de1 02       		.byte	0x2
 6555 0de2 23       		.byte	0x23
 6556 0de3 14       		.uleb128 0x14
 6557 0de4 06       		.uleb128 0x6
 6558 0de5 FF080000 		.4byte	.LASF179
 6559 0de9 16       		.byte	0x16
 6560 0dea 72       		.byte	0x72
 6561 0deb 3F100000 		.4byte	0x103f
 6562 0def 02       		.byte	0x2
 6563 0df0 23       		.byte	0x23
 6564 0df1 18       		.uleb128 0x18
 6565 0df2 06       		.uleb128 0x6
 6566 0df3 CA0A0000 		.4byte	.LASF188
 6567 0df7 16       		.byte	0x16
 6568 0df8 74       		.byte	0x74
 6569 0df9 B9020000 		.4byte	0x2b9
 6570 0dfd 02       		.byte	0x2
 6571 0dfe 23       		.byte	0x23
 6572 0dff 1C       		.uleb128 0x1c
 6573 0e00 00       		.byte	0
 6574 0e01 09       		.uleb128 0x9
 6575 0e02 04       		.byte	0x4
 6576 0e03 5A0D0000 		.4byte	0xd5a
 6577 0e07 05       		.uleb128 0x5
ARM GAS  C:\Users\jenny\AppData\Local\Temp\ccLg5IEe.s 			page 117


 6578 0e08 7D0D0000 		.4byte	.LASF189
 6579 0e0c 1C       		.byte	0x1c
 6580 0e0d 17       		.byte	0x17
 6581 0e0e 3F       		.byte	0x3f
 6582 0e0f 920E0000 		.4byte	0xe92
 6583 0e13 06       		.uleb128 0x6
 6584 0e14 8E030000 		.4byte	.LASF140
 6585 0e18 17       		.byte	0x17
 6586 0e19 41       		.byte	0x41
 6587 0e1a 0E060000 		.4byte	0x60e
 6588 0e1e 02       		.byte	0x2
 6589 0e1f 23       		.byte	0x23
 6590 0e20 00       		.uleb128 0
 6591 0e21 06       		.uleb128 0x6
 6592 0e22 590B0000 		.4byte	.LASF141
 6593 0e26 17       		.byte	0x17
 6594 0e27 41       		.byte	0x41
 6595 0e28 0E060000 		.4byte	0x60e
 6596 0e2c 02       		.byte	0x2
 6597 0e2d 23       		.byte	0x23
 6598 0e2e 04       		.uleb128 0x4
 6599 0e2f 06       		.uleb128 0x6
 6600 0e30 AD000000 		.4byte	.LASF142
 6601 0e34 17       		.byte	0x17
 6602 0e35 41       		.byte	0x41
 6603 0e36 B1050000 		.4byte	0x5b1
 6604 0e3a 02       		.byte	0x2
 6605 0e3b 23       		.byte	0x23
 6606 0e3c 08       		.uleb128 0x8
 6607 0e3d 07       		.uleb128 0x7
 6608 0e3e 746F7300 		.ascii	"tos\000"
 6609 0e42 17       		.byte	0x17
 6610 0e43 41       		.byte	0x41
 6611 0e44 B1050000 		.4byte	0x5b1
 6612 0e48 02       		.byte	0x2
 6613 0e49 23       		.byte	0x23
 6614 0e4a 09       		.uleb128 0x9
 6615 0e4b 07       		.uleb128 0x7
 6616 0e4c 74746C00 		.ascii	"ttl\000"
 6617 0e50 17       		.byte	0x17
 6618 0e51 41       		.byte	0x41
 6619 0e52 B1050000 		.4byte	0x5b1
 6620 0e56 02       		.byte	0x2
 6621 0e57 23       		.byte	0x23
 6622 0e58 0A       		.uleb128 0xa
 6623 0e59 06       		.uleb128 0x6
 6624 0e5a C00E0000 		.4byte	.LASF100
 6625 0e5e 17       		.byte	0x17
 6626 0e5f 43       		.byte	0x43
 6627 0e60 920E0000 		.4byte	0xe92
 6628 0e64 02       		.byte	0x2
 6629 0e65 23       		.byte	0x23
 6630 0e66 0C       		.uleb128 0xc
 6631 0e67 06       		.uleb128 0x6
 6632 0e68 59070000 		.4byte	.LASF190
 6633 0e6c 17       		.byte	0x17
 6634 0e6d 45       		.byte	0x45
ARM GAS  C:\Users\jenny\AppData\Local\Temp\ccLg5IEe.s 			page 118


 6635 0e6e B1050000 		.4byte	0x5b1
 6636 0e72 02       		.byte	0x2
 6637 0e73 23       		.byte	0x23
 6638 0e74 10       		.uleb128 0x10
 6639 0e75 06       		.uleb128 0x6
 6640 0e76 FF080000 		.4byte	.LASF179
 6641 0e7a 17       		.byte	0x17
 6642 0e7b 48       		.byte	0x48
 6643 0e7c 0F100000 		.4byte	0x100f
 6644 0e80 02       		.byte	0x2
 6645 0e81 23       		.byte	0x23
 6646 0e82 14       		.uleb128 0x14
 6647 0e83 06       		.uleb128 0x6
 6648 0e84 CA0A0000 		.4byte	.LASF188
 6649 0e88 17       		.byte	0x17
 6650 0e89 4A       		.byte	0x4a
 6651 0e8a B9020000 		.4byte	0x2b9
 6652 0e8e 02       		.byte	0x2
 6653 0e8f 23       		.byte	0x23
 6654 0e90 18       		.uleb128 0x18
 6655 0e91 00       		.byte	0
 6656 0e92 09       		.uleb128 0x9
 6657 0e93 04       		.byte	0x4
 6658 0e94 070E0000 		.4byte	0xe07
 6659 0e98 05       		.uleb128 0x5
 6660 0e99 4D0B0000 		.4byte	.LASF191
 6661 0e9d 14       		.byte	0x14
 6662 0e9e 18       		.byte	0x18
 6663 0e9f 3E       		.byte	0x3e
 6664 0ea0 CF0E0000 		.4byte	0xecf
 6665 0ea4 06       		.uleb128 0x6
 6666 0ea5 8F010000 		.4byte	.LASF192
 6667 0ea9 18       		.byte	0x18
 6668 0eaa 41       		.byte	0x41
 6669 0eab E2080000 		.4byte	0x8e2
 6670 0eaf 02       		.byte	0x2
 6671 0eb0 23       		.byte	0x23
 6672 0eb1 00       		.uleb128 0
 6673 0eb2 07       		.uleb128 0x7
 6674 0eb3 65727200 		.ascii	"err\000"
 6675 0eb7 18       		.byte	0x18
 6676 0eb8 43       		.byte	0x43
 6677 0eb9 4E070000 		.4byte	0x74e
 6678 0ebd 02       		.byte	0x2
 6679 0ebe 23       		.byte	0x23
 6680 0ebf 04       		.uleb128 0x4
 6681 0ec0 07       		.uleb128 0x7
 6682 0ec1 6D736700 		.ascii	"msg\000"
 6683 0ec5 18       		.byte	0x18
 6684 0ec6 75       		.byte	0x75
 6685 0ec7 4D110000 		.4byte	0x114d
 6686 0ecb 02       		.byte	0x2
 6687 0ecc 23       		.byte	0x23
 6688 0ecd 08       		.uleb128 0x8
 6689 0ece 00       		.byte	0
 6690 0ecf 09       		.uleb128 0x9
 6691 0ed0 04       		.byte	0x4
ARM GAS  C:\Users\jenny\AppData\Local\Temp\ccLg5IEe.s 			page 119


 6692 0ed1 980E0000 		.4byte	0xe98
 6693 0ed5 09       		.uleb128 0x9
 6694 0ed6 04       		.byte	0x4
 6695 0ed7 0E060000 		.4byte	0x60e
 6696 0edb 03       		.uleb128 0x3
 6697 0edc AB0E0000 		.4byte	.LASF193
 6698 0ee0 15       		.byte	0x15
 6699 0ee1 3C       		.byte	0x3c
 6700 0ee2 E60E0000 		.4byte	0xee6
 6701 0ee6 09       		.uleb128 0x9
 6702 0ee7 04       		.byte	0x4
 6703 0ee8 EC0E0000 		.4byte	0xeec
 6704 0eec 1A       		.uleb128 0x1a
 6705 0eed 01       		.byte	0x1
 6706 0eee 4E070000 		.4byte	0x74e
 6707 0ef2 060F0000 		.4byte	0xf06
 6708 0ef6 0E       		.uleb128 0xe
 6709 0ef7 B9020000 		.4byte	0x2b9
 6710 0efb 0E       		.uleb128 0xe
 6711 0efc 540D0000 		.4byte	0xd54
 6712 0f00 0E       		.uleb128 0xe
 6713 0f01 4E070000 		.4byte	0x74e
 6714 0f05 00       		.byte	0
 6715 0f06 03       		.uleb128 0x3
 6716 0f07 070D0000 		.4byte	.LASF194
 6717 0f0b 15       		.byte	0x15
 6718 0f0c 48       		.byte	0x48
 6719 0f0d 110F0000 		.4byte	0xf11
 6720 0f11 09       		.uleb128 0x9
 6721 0f12 04       		.byte	0x4
 6722 0f13 170F0000 		.4byte	0xf17
 6723 0f17 1A       		.uleb128 0x1a
 6724 0f18 01       		.byte	0x1
 6725 0f19 4E070000 		.4byte	0x74e
 6726 0f1d 360F0000 		.4byte	0xf36
 6727 0f21 0E       		.uleb128 0xe
 6728 0f22 B9020000 		.4byte	0x2b9
 6729 0f26 0E       		.uleb128 0xe
 6730 0f27 540D0000 		.4byte	0xd54
 6731 0f2b 0E       		.uleb128 0xe
 6732 0f2c C8070000 		.4byte	0x7c8
 6733 0f30 0E       		.uleb128 0xe
 6734 0f31 4E070000 		.4byte	0x74e
 6735 0f35 00       		.byte	0
 6736 0f36 03       		.uleb128 0x3
 6737 0f37 DD020000 		.4byte	.LASF195
 6738 0f3b 15       		.byte	0x15
 6739 0f3c 56       		.byte	0x56
 6740 0f3d 410F0000 		.4byte	0xf41
 6741 0f41 09       		.uleb128 0x9
 6742 0f42 04       		.byte	0x4
 6743 0f43 470F0000 		.4byte	0xf47
 6744 0f47 1A       		.uleb128 0x1a
 6745 0f48 01       		.byte	0x1
 6746 0f49 4E070000 		.4byte	0x74e
 6747 0f4d 610F0000 		.4byte	0xf61
 6748 0f51 0E       		.uleb128 0xe
ARM GAS  C:\Users\jenny\AppData\Local\Temp\ccLg5IEe.s 			page 120


 6749 0f52 B9020000 		.4byte	0x2b9
 6750 0f56 0E       		.uleb128 0xe
 6751 0f57 540D0000 		.4byte	0xd54
 6752 0f5b 0E       		.uleb128 0xe
 6753 0f5c C7050000 		.4byte	0x5c7
 6754 0f60 00       		.byte	0
 6755 0f61 03       		.uleb128 0x3
 6756 0f62 A7060000 		.4byte	.LASF196
 6757 0f66 15       		.byte	0x15
 6758 0f67 62       		.byte	0x62
 6759 0f68 6C0F0000 		.4byte	0xf6c
 6760 0f6c 09       		.uleb128 0x9
 6761 0f6d 04       		.byte	0x4
 6762 0f6e 720F0000 		.4byte	0xf72
 6763 0f72 1A       		.uleb128 0x1a
 6764 0f73 01       		.byte	0x1
 6765 0f74 4E070000 		.4byte	0x74e
 6766 0f78 870F0000 		.4byte	0xf87
 6767 0f7c 0E       		.uleb128 0xe
 6768 0f7d B9020000 		.4byte	0x2b9
 6769 0f81 0E       		.uleb128 0xe
 6770 0f82 540D0000 		.4byte	0xd54
 6771 0f86 00       		.byte	0
 6772 0f87 03       		.uleb128 0x3
 6773 0f88 20030000 		.4byte	.LASF197
 6774 0f8c 15       		.byte	0x15
 6775 0f8d 6E       		.byte	0x6e
 6776 0f8e 920F0000 		.4byte	0xf92
 6777 0f92 09       		.uleb128 0x9
 6778 0f93 04       		.byte	0x4
 6779 0f94 980F0000 		.4byte	0xf98
 6780 0f98 0D       		.uleb128 0xd
 6781 0f99 01       		.byte	0x1
 6782 0f9a A90F0000 		.4byte	0xfa9
 6783 0f9e 0E       		.uleb128 0xe
 6784 0f9f B9020000 		.4byte	0x2b9
 6785 0fa3 0E       		.uleb128 0xe
 6786 0fa4 4E070000 		.4byte	0x74e
 6787 0fa8 00       		.byte	0
 6788 0fa9 03       		.uleb128 0x3
 6789 0faa A7090000 		.4byte	.LASF198
 6790 0fae 15       		.byte	0x15
 6791 0faf 7C       		.byte	0x7c
 6792 0fb0 E60E0000 		.4byte	0xee6
 6793 0fb4 17       		.uleb128 0x17
 6794 0fb5 94010000 		.4byte	.LASF199
 6795 0fb9 01       		.byte	0x1
 6796 0fba 15       		.byte	0x15
 6797 0fbb 7E       		.byte	0x7e
 6798 0fbc 03100000 		.4byte	0x1003
 6799 0fc0 18       		.uleb128 0x18
 6800 0fc1 370D0000 		.4byte	.LASF200
 6801 0fc5 00       		.sleb128 0
 6802 0fc6 18       		.uleb128 0x18
 6803 0fc7 E9000000 		.4byte	.LASF201
 6804 0fcb 01       		.sleb128 1
 6805 0fcc 18       		.uleb128 0x18
ARM GAS  C:\Users\jenny\AppData\Local\Temp\ccLg5IEe.s 			page 121


 6806 0fcd 0E040000 		.4byte	.LASF202
 6807 0fd1 02       		.sleb128 2
 6808 0fd2 18       		.uleb128 0x18
 6809 0fd3 DB080000 		.4byte	.LASF203
 6810 0fd7 03       		.sleb128 3
 6811 0fd8 18       		.uleb128 0x18
 6812 0fd9 A5020000 		.4byte	.LASF204
 6813 0fdd 04       		.sleb128 4
 6814 0fde 18       		.uleb128 0x18
 6815 0fdf DC030000 		.4byte	.LASF205
 6816 0fe3 05       		.sleb128 5
 6817 0fe4 18       		.uleb128 0x18
 6818 0fe5 E7030000 		.4byte	.LASF206
 6819 0fe9 06       		.sleb128 6
 6820 0fea 18       		.uleb128 0x18
 6821 0feb 8D050000 		.4byte	.LASF207
 6822 0fef 07       		.sleb128 7
 6823 0ff0 18       		.uleb128 0x18
 6824 0ff1 7D0E0000 		.4byte	.LASF208
 6825 0ff5 08       		.sleb128 8
 6826 0ff6 18       		.uleb128 0x18
 6827 0ff7 34040000 		.4byte	.LASF209
 6828 0ffb 09       		.sleb128 9
 6829 0ffc 18       		.uleb128 0x18
 6830 0ffd 85010000 		.4byte	.LASF210
 6831 1001 0A       		.sleb128 10
 6832 1002 00       		.byte	0
 6833 1003 1B       		.uleb128 0x1b
 6834 1004 D10E0000 		.4byte	.LASF348
 6835 1008 01       		.byte	0x1
 6836 1009 09       		.uleb128 0x9
 6837 100a 04       		.byte	0x4
 6838 100b 03100000 		.4byte	0x1003
 6839 100f 03       		.uleb128 0x3
 6840 1010 C4020000 		.4byte	.LASF211
 6841 1014 17       		.byte	0x17
 6842 1015 3C       		.byte	0x3c
 6843 1016 1A100000 		.4byte	0x101a
 6844 101a 09       		.uleb128 0x9
 6845 101b 04       		.byte	0x4
 6846 101c 20100000 		.4byte	0x1020
 6847 1020 1A       		.uleb128 0x1a
 6848 1021 01       		.byte	0x1
 6849 1022 B1050000 		.4byte	0x5b1
 6850 1026 3F100000 		.4byte	0x103f
 6851 102a 0E       		.uleb128 0xe
 6852 102b B9020000 		.4byte	0x2b9
 6853 102f 0E       		.uleb128 0xe
 6854 1030 920E0000 		.4byte	0xe92
 6855 1034 0E       		.uleb128 0xe
 6856 1035 C8070000 		.4byte	0x7c8
 6857 1039 0E       		.uleb128 0xe
 6858 103a D50E0000 		.4byte	0xed5
 6859 103e 00       		.byte	0
 6860 103f 03       		.uleb128 0x3
 6861 1040 6E090000 		.4byte	.LASF212
 6862 1044 16       		.byte	0x16
ARM GAS  C:\Users\jenny\AppData\Local\Temp\ccLg5IEe.s 			page 122


 6863 1045 57       		.byte	0x57
 6864 1046 4A100000 		.4byte	0x104a
 6865 104a 09       		.uleb128 0x9
 6866 104b 04       		.byte	0x4
 6867 104c 50100000 		.4byte	0x1050
 6868 1050 0D       		.uleb128 0xd
 6869 1051 01       		.byte	0x1
 6870 1052 70100000 		.4byte	0x1070
 6871 1056 0E       		.uleb128 0xe
 6872 1057 B9020000 		.4byte	0x2b9
 6873 105b 0E       		.uleb128 0xe
 6874 105c 010E0000 		.4byte	0xe01
 6875 1060 0E       		.uleb128 0xe
 6876 1061 C8070000 		.4byte	0x7c8
 6877 1065 0E       		.uleb128 0xe
 6878 1066 D50E0000 		.4byte	0xed5
 6879 106a 0E       		.uleb128 0xe
 6880 106b C7050000 		.4byte	0x5c7
 6881 106f 00       		.byte	0
 6882 1070 08       		.uleb128 0x8
 6883 1071 01       		.byte	0x1
 6884 1072 18       		.byte	0x18
 6885 1073 49       		.byte	0x49
 6886 1074 87100000 		.4byte	0x1087
 6887 1078 06       		.uleb128 0x6
 6888 1079 6D000000 		.4byte	.LASF213
 6889 107d 18       		.byte	0x18
 6890 107e 4A       		.byte	0x4a
 6891 107f B1050000 		.4byte	0x5b1
 6892 1083 02       		.byte	0x2
 6893 1084 23       		.byte	0x23
 6894 1085 00       		.uleb128 0
 6895 1086 00       		.byte	0
 6896 1087 08       		.uleb128 0x8
 6897 1088 08       		.byte	0x8
 6898 1089 18       		.byte	0x18
 6899 108a 4D       		.byte	0x4d
 6900 108b AC100000 		.4byte	0x10ac
 6901 108f 06       		.uleb128 0x6
 6902 1090 E3010000 		.4byte	.LASF214
 6903 1094 18       		.byte	0x18
 6904 1095 4E       		.byte	0x4e
 6905 1096 D50E0000 		.4byte	0xed5
 6906 109a 02       		.byte	0x2
 6907 109b 23       		.byte	0x23
 6908 109c 00       		.uleb128 0
 6909 109d 06       		.uleb128 0x6
 6910 109e E90B0000 		.4byte	.LASF106
 6911 10a2 18       		.byte	0x18
 6912 10a3 4F       		.byte	0x4f
 6913 10a4 C7050000 		.4byte	0x5c7
 6914 10a8 02       		.byte	0x2
 6915 10a9 23       		.byte	0x23
 6916 10aa 04       		.uleb128 0x4
 6917 10ab 00       		.byte	0
 6918 10ac 08       		.uleb128 0x8
 6919 10ad 0C       		.byte	0xc
ARM GAS  C:\Users\jenny\AppData\Local\Temp\ccLg5IEe.s 			page 123


 6920 10ae 18       		.byte	0x18
 6921 10af 52       		.byte	0x52
 6922 10b0 DF100000 		.4byte	0x10df
 6923 10b4 06       		.uleb128 0x6
 6924 10b5 E3010000 		.4byte	.LASF214
 6925 10b9 18       		.byte	0x18
 6926 10ba 53       		.byte	0x53
 6927 10bb D50E0000 		.4byte	0xed5
 6928 10bf 02       		.byte	0x2
 6929 10c0 23       		.byte	0x23
 6930 10c1 00       		.uleb128 0
 6931 10c2 06       		.uleb128 0x6
 6932 10c3 E90B0000 		.4byte	.LASF106
 6933 10c7 18       		.byte	0x18
 6934 10c8 54       		.byte	0x54
 6935 10c9 DF100000 		.4byte	0x10df
 6936 10cd 02       		.byte	0x2
 6937 10ce 23       		.byte	0x23
 6938 10cf 04       		.uleb128 0x4
 6939 10d0 06       		.uleb128 0x6
 6940 10d1 2C010000 		.4byte	.LASF215
 6941 10d5 18       		.byte	0x18
 6942 10d6 55       		.byte	0x55
 6943 10d7 B1050000 		.4byte	0x5b1
 6944 10db 02       		.byte	0x2
 6945 10dc 23       		.byte	0x23
 6946 10dd 08       		.uleb128 0x8
 6947 10de 00       		.byte	0
 6948 10df 09       		.uleb128 0x9
 6949 10e0 04       		.byte	0x4
 6950 10e1 C7050000 		.4byte	0x5c7
 6951 10e5 08       		.uleb128 0x8
 6952 10e6 0C       		.byte	0xc
 6953 10e7 18       		.byte	0x18
 6954 10e8 58       		.byte	0x58
 6955 10e9 18110000 		.4byte	0x1118
 6956 10ed 06       		.uleb128 0x6
 6957 10ee CA0D0000 		.4byte	.LASF216
 6958 10f2 18       		.byte	0x18
 6959 10f3 59       		.byte	0x59
 6960 10f4 18110000 		.4byte	0x1118
 6961 10f8 02       		.byte	0x2
 6962 10f9 23       		.byte	0x23
 6963 10fa 00       		.uleb128 0
 6964 10fb 07       		.uleb128 0x7
 6965 10fc 6C656E00 		.ascii	"len\000"
 6966 1100 18       		.byte	0x18
 6967 1101 5A       		.byte	0x5a
 6968 1102 30000000 		.4byte	0x30
 6969 1106 02       		.byte	0x2
 6970 1107 23       		.byte	0x23
 6971 1108 04       		.uleb128 0x4
 6972 1109 06       		.uleb128 0x6
 6973 110a C80C0000 		.4byte	.LASF217
 6974 110e 18       		.byte	0x18
 6975 110f 5B       		.byte	0x5b
 6976 1110 B1050000 		.4byte	0x5b1
ARM GAS  C:\Users\jenny\AppData\Local\Temp\ccLg5IEe.s 			page 124


 6977 1114 02       		.byte	0x2
 6978 1115 23       		.byte	0x23
 6979 1116 08       		.uleb128 0x8
 6980 1117 00       		.byte	0
 6981 1118 09       		.uleb128 0x9
 6982 1119 04       		.byte	0x4
 6983 111a 1E110000 		.4byte	0x111e
 6984 111e 1C       		.uleb128 0x1c
 6985 111f 08       		.uleb128 0x8
 6986 1120 04       		.byte	0x4
 6987 1121 18       		.byte	0x18
 6988 1122 61       		.byte	0x61
 6989 1123 36110000 		.4byte	0x1136
 6990 1127 07       		.uleb128 0x7
 6991 1128 6C656E00 		.ascii	"len\000"
 6992 112c 18       		.byte	0x18
 6993 112d 62       		.byte	0x62
 6994 112e DD050000 		.4byte	0x5dd
 6995 1132 02       		.byte	0x2
 6996 1133 23       		.byte	0x23
 6997 1134 00       		.uleb128 0
 6998 1135 00       		.byte	0
 6999 1136 08       		.uleb128 0x8
 7000 1137 01       		.byte	0x1
 7001 1138 18       		.byte	0x18
 7002 1139 65       		.byte	0x65
 7003 113a 4D110000 		.4byte	0x114d
 7004 113e 06       		.uleb128 0x6
 7005 113f E1040000 		.4byte	.LASF218
 7006 1143 18       		.byte	0x18
 7007 1144 66       		.byte	0x66
 7008 1145 B1050000 		.4byte	0x5b1
 7009 1149 02       		.byte	0x2
 7010 114a 23       		.byte	0x23
 7011 114b 00       		.uleb128 0
 7012 114c 00       		.byte	0
 7013 114d 10       		.uleb128 0x10
 7014 114e 0C       		.byte	0xc
 7015 114f 18       		.byte	0x18
 7016 1150 45       		.byte	0x45
 7017 1151 98110000 		.4byte	0x1198
 7018 1155 19       		.uleb128 0x19
 7019 1156 6200     		.ascii	"b\000"
 7020 1158 18       		.byte	0x18
 7021 1159 47       		.byte	0x47
 7022 115a 98110000 		.4byte	0x1198
 7023 115e 19       		.uleb128 0x19
 7024 115f 6E00     		.ascii	"n\000"
 7025 1161 18       		.byte	0x18
 7026 1162 4B       		.byte	0x4b
 7027 1163 70100000 		.4byte	0x1070
 7028 1167 19       		.uleb128 0x19
 7029 1168 626300   		.ascii	"bc\000"
 7030 116b 18       		.byte	0x18
 7031 116c 50       		.byte	0x50
 7032 116d 87100000 		.4byte	0x1087
 7033 1171 19       		.uleb128 0x19
ARM GAS  C:\Users\jenny\AppData\Local\Temp\ccLg5IEe.s 			page 125


 7034 1172 616400   		.ascii	"ad\000"
 7035 1175 18       		.byte	0x18
 7036 1176 56       		.byte	0x56
 7037 1177 AC100000 		.4byte	0x10ac
 7038 117b 19       		.uleb128 0x19
 7039 117c 7700     		.ascii	"w\000"
 7040 117e 18       		.byte	0x18
 7041 117f 5F       		.byte	0x5f
 7042 1180 E5100000 		.4byte	0x10e5
 7043 1184 19       		.uleb128 0x19
 7044 1185 7200     		.ascii	"r\000"
 7045 1187 18       		.byte	0x18
 7046 1188 63       		.byte	0x63
 7047 1189 1F110000 		.4byte	0x111f
 7048 118d 19       		.uleb128 0x19
 7049 118e 736400   		.ascii	"sd\000"
 7050 1191 18       		.byte	0x18
 7051 1192 67       		.byte	0x67
 7052 1193 36110000 		.4byte	0x1136
 7053 1197 00       		.byte	0
 7054 1198 09       		.uleb128 0x9
 7055 1199 04       		.byte	0x4
 7056 119a CE070000 		.4byte	0x7ce
 7057 119e 03       		.uleb128 0x3
 7058 119f C9080000 		.4byte	.LASF219
 7059 11a3 19       		.byte	0x19
 7060 11a4 4E       		.byte	0x4e
 7061 11a5 63040000 		.4byte	0x463
 7062 11a9 09       		.uleb128 0x9
 7063 11aa 04       		.byte	0x4
 7064 11ab 11080000 		.4byte	0x811
 7065 11af 05       		.uleb128 0x5
 7066 11b0 C8040000 		.4byte	.LASF220
 7067 11b4 18       		.byte	0x18
 7068 11b5 01       		.byte	0x1
 7069 11b6 40       		.byte	0x40
 7070 11b7 2C120000 		.4byte	0x122c
 7071 11bb 06       		.uleb128 0x6
 7072 11bc 8F010000 		.4byte	.LASF192
 7073 11c0 01       		.byte	0x1
 7074 11c1 42       		.byte	0x42
 7075 11c2 E2080000 		.4byte	0x8e2
 7076 11c6 02       		.byte	0x2
 7077 11c7 23       		.byte	0x23
 7078 11c8 00       		.uleb128 0
 7079 11c9 06       		.uleb128 0x6
 7080 11ca 15010000 		.4byte	.LASF221
 7081 11ce 01       		.byte	0x1
 7082 11cf 44       		.byte	0x44
 7083 11d0 B9020000 		.4byte	0x2b9
 7084 11d4 02       		.byte	0x2
 7085 11d5 23       		.byte	0x23
 7086 11d6 04       		.uleb128 0x4
 7087 11d7 06       		.uleb128 0x6
 7088 11d8 15030000 		.4byte	.LASF222
 7089 11dc 01       		.byte	0x1
 7090 11dd 46       		.byte	0x46
ARM GAS  C:\Users\jenny\AppData\Local\Temp\ccLg5IEe.s 			page 126


 7091 11de C7050000 		.4byte	0x5c7
 7092 11e2 02       		.byte	0x2
 7093 11e3 23       		.byte	0x23
 7094 11e4 08       		.uleb128 0x8
 7095 11e5 06       		.uleb128 0x6
 7096 11e6 740D0000 		.4byte	.LASF223
 7097 11ea 01       		.byte	0x1
 7098 11eb 49       		.byte	0x49
 7099 11ec D2050000 		.4byte	0x5d2
 7100 11f0 02       		.byte	0x2
 7101 11f1 23       		.byte	0x23
 7102 11f2 0A       		.uleb128 0xa
 7103 11f3 06       		.uleb128 0x6
 7104 11f4 57080000 		.4byte	.LASF224
 7105 11f8 01       		.byte	0x1
 7106 11f9 4C       		.byte	0x4c
 7107 11fa C7050000 		.4byte	0x5c7
 7108 11fe 02       		.byte	0x2
 7109 11ff 23       		.byte	0x23
 7110 1200 0C       		.uleb128 0xc
 7111 1201 06       		.uleb128 0x6
 7112 1202 CD030000 		.4byte	.LASF225
 7113 1206 01       		.byte	0x1
 7114 1207 4E       		.byte	0x4e
 7115 1208 C7050000 		.4byte	0x5c7
 7116 120c 02       		.byte	0x2
 7117 120d 23       		.byte	0x23
 7118 120e 0E       		.uleb128 0xe
 7119 120f 07       		.uleb128 0x7
 7120 1210 65727200 		.ascii	"err\000"
 7121 1214 01       		.byte	0x1
 7122 1215 50       		.byte	0x50
 7123 1216 29000000 		.4byte	0x29
 7124 121a 02       		.byte	0x2
 7125 121b 23       		.byte	0x23
 7126 121c 10       		.uleb128 0x10
 7127 121d 06       		.uleb128 0x6
 7128 121e 000E0000 		.4byte	.LASF226
 7129 1222 01       		.byte	0x1
 7130 1223 52       		.byte	0x52
 7131 1224 29000000 		.4byte	0x29
 7132 1228 02       		.byte	0x2
 7133 1229 23       		.byte	0x23
 7134 122a 14       		.uleb128 0x14
 7135 122b 00       		.byte	0
 7136 122c 05       		.uleb128 0x5
 7137 122d 98050000 		.4byte	.LASF227
 7138 1231 1C       		.byte	0x1c
 7139 1232 01       		.byte	0x1
 7140 1233 56       		.byte	0x56
 7141 1234 9B120000 		.4byte	0x129b
 7142 1238 06       		.uleb128 0x6
 7143 1239 C00E0000 		.4byte	.LASF100
 7144 123d 01       		.byte	0x1
 7145 123e 58       		.byte	0x58
 7146 123f 9B120000 		.4byte	0x129b
 7147 1243 02       		.byte	0x2
ARM GAS  C:\Users\jenny\AppData\Local\Temp\ccLg5IEe.s 			page 127


 7148 1244 23       		.byte	0x23
 7149 1245 00       		.uleb128 0
 7150 1246 06       		.uleb128 0x6
 7151 1247 E90E0000 		.4byte	.LASF228
 7152 124b 01       		.byte	0x1
 7153 124c 5A       		.byte	0x5a
 7154 124d 9B120000 		.4byte	0x129b
 7155 1251 02       		.byte	0x2
 7156 1252 23       		.byte	0x23
 7157 1253 04       		.uleb128 0x4
 7158 1254 06       		.uleb128 0x6
 7159 1255 4F040000 		.4byte	.LASF229
 7160 1259 01       		.byte	0x1
 7161 125a 5C       		.byte	0x5c
 7162 125b A1120000 		.4byte	0x12a1
 7163 125f 02       		.byte	0x2
 7164 1260 23       		.byte	0x23
 7165 1261 08       		.uleb128 0x8
 7166 1262 06       		.uleb128 0x6
 7167 1263 860B0000 		.4byte	.LASF230
 7168 1267 01       		.byte	0x1
 7169 1268 5E       		.byte	0x5e
 7170 1269 A1120000 		.4byte	0x12a1
 7171 126d 02       		.byte	0x2
 7172 126e 23       		.byte	0x23
 7173 126f 0C       		.uleb128 0xc
 7174 1270 06       		.uleb128 0x6
 7175 1271 7B010000 		.4byte	.LASF231
 7176 1275 01       		.byte	0x1
 7177 1276 60       		.byte	0x60
 7178 1277 A1120000 		.4byte	0x12a1
 7179 127b 02       		.byte	0x2
 7180 127c 23       		.byte	0x23
 7181 127d 10       		.uleb128 0x10
 7182 127e 06       		.uleb128 0x6
 7183 127f CD070000 		.4byte	.LASF232
 7184 1283 01       		.byte	0x1
 7185 1284 62       		.byte	0x62
 7186 1285 29000000 		.4byte	0x29
 7187 1289 02       		.byte	0x2
 7188 128a 23       		.byte	0x23
 7189 128b 14       		.uleb128 0x14
 7190 128c 07       		.uleb128 0x7
 7191 128d 73656D00 		.ascii	"sem\000"
 7192 1291 01       		.byte	0x1
 7193 1292 64       		.byte	0x64
 7194 1293 11080000 		.4byte	0x811
 7195 1297 02       		.byte	0x2
 7196 1298 23       		.byte	0x23
 7197 1299 18       		.uleb128 0x18
 7198 129a 00       		.byte	0
 7199 129b 09       		.uleb128 0x9
 7200 129c 04       		.byte	0x4
 7201 129d 2C120000 		.4byte	0x122c
 7202 12a1 09       		.uleb128 0x9
 7203 12a2 04       		.byte	0x4
 7204 12a3 16070000 		.4byte	0x716
ARM GAS  C:\Users\jenny\AppData\Local\Temp\ccLg5IEe.s 			page 128


 7205 12a7 05       		.uleb128 0x5
 7206 12a8 D80C0000 		.4byte	.LASF233
 7207 12ac 18       		.byte	0x18
 7208 12ad 01       		.byte	0x1
 7209 12ae 69       		.byte	0x69
 7210 12af 08130000 		.4byte	0x1308
 7211 12b3 06       		.uleb128 0x6
 7212 12b4 4B080000 		.4byte	.LASF234
 7213 12b8 01       		.byte	0x1
 7214 12b9 6B       		.byte	0x6b
 7215 12ba 08130000 		.4byte	0x1308
 7216 12be 02       		.byte	0x2
 7217 12bf 23       		.byte	0x23
 7218 12c0 00       		.uleb128 0
 7219 12c1 06       		.uleb128 0x6
 7220 12c2 D20D0000 		.4byte	.LASF235
 7221 12c6 01       		.byte	0x1
 7222 12c7 71       		.byte	0x71
 7223 12c8 29000000 		.4byte	0x29
 7224 12cc 02       		.byte	0x2
 7225 12cd 23       		.byte	0x23
 7226 12ce 04       		.uleb128 0x4
 7227 12cf 06       		.uleb128 0x6
 7228 12d0 F7080000 		.4byte	.LASF236
 7229 12d4 01       		.byte	0x1
 7230 12d5 73       		.byte	0x73
 7231 12d6 29000000 		.4byte	0x29
 7232 12da 02       		.byte	0x2
 7233 12db 23       		.byte	0x23
 7234 12dc 08       		.uleb128 0x8
 7235 12dd 06       		.uleb128 0x6
 7236 12de 61080000 		.4byte	.LASF237
 7237 12e2 01       		.byte	0x1
 7238 12e3 76       		.byte	0x76
 7239 12e4 B9020000 		.4byte	0x2b9
 7240 12e8 02       		.byte	0x2
 7241 12e9 23       		.byte	0x23
 7242 12ea 0C       		.uleb128 0xc
 7243 12eb 06       		.uleb128 0x6
 7244 12ec 570A0000 		.4byte	.LASF238
 7245 12f0 01       		.byte	0x1
 7246 12f1 78       		.byte	0x78
 7247 12f2 0E130000 		.4byte	0x130e
 7248 12f6 02       		.byte	0x2
 7249 12f7 23       		.byte	0x23
 7250 12f8 10       		.uleb128 0x10
 7251 12f9 07       		.uleb128 0x7
 7252 12fa 65727200 		.ascii	"err\000"
 7253 12fe 01       		.byte	0x1
 7254 12ff 7A       		.byte	0x7a
 7255 1300 4E070000 		.4byte	0x74e
 7256 1304 02       		.byte	0x2
 7257 1305 23       		.byte	0x23
 7258 1306 14       		.uleb128 0x14
 7259 1307 00       		.byte	0
 7260 1308 09       		.uleb128 0x9
 7261 1309 04       		.byte	0x4
ARM GAS  C:\Users\jenny\AppData\Local\Temp\ccLg5IEe.s 			page 129


 7262 130a AF110000 		.4byte	0x11af
 7263 130e 09       		.uleb128 0x9
 7264 130f 04       		.byte	0x4
 7265 1310 DE060000 		.4byte	0x6de
 7266 1314 1D       		.uleb128 0x1d
 7267 1315 A40C0000 		.4byte	.LASF239
 7268 1319 01       		.byte	0x1
 7269 131a DF       		.byte	0xdf
 7270 131b 01       		.byte	0x1
 7271 131c 08130000 		.4byte	0x1308
 7272 1320 01       		.byte	0x1
 7273 1321 2F130000 		.4byte	0x132f
 7274 1325 1E       		.uleb128 0x1e
 7275 1326 7300     		.ascii	"s\000"
 7276 1328 01       		.byte	0x1
 7277 1329 DF       		.byte	0xdf
 7278 132a 29000000 		.4byte	0x29
 7279 132e 00       		.byte	0
 7280 132f 1D       		.uleb128 0x1d
 7281 1330 57000000 		.4byte	.LASF240
 7282 1334 01       		.byte	0x1
 7283 1335 C3       		.byte	0xc3
 7284 1336 01       		.byte	0x1
 7285 1337 08130000 		.4byte	0x1308
 7286 133b 01       		.byte	0x1
 7287 133c 55130000 		.4byte	0x1355
 7288 1340 1E       		.uleb128 0x1e
 7289 1341 7300     		.ascii	"s\000"
 7290 1343 01       		.byte	0x1
 7291 1344 C3       		.byte	0xc3
 7292 1345 29000000 		.4byte	0x29
 7293 1349 1F       		.uleb128 0x1f
 7294 134a 4B080000 		.4byte	.LASF234
 7295 134e 01       		.byte	0x1
 7296 134f C5       		.byte	0xc5
 7297 1350 08130000 		.4byte	0x1308
 7298 1354 00       		.byte	0
 7299 1355 20       		.uleb128 0x20
 7300 1356 27060000 		.4byte	.LASF246
 7301 135a 01       		.byte	0x1
 7302 135b F3       		.byte	0xf3
 7303 135c 01       		.byte	0x1
 7304 135d 29000000 		.4byte	0x29
 7305 1361 00000000 		.4byte	.LFB10
 7306 1365 6C000000 		.4byte	.LFE10
 7307 1369 00000000 		.4byte	.LLST0
 7308 136d 01       		.byte	0x1
 7309 136e 9E130000 		.4byte	0x139e
 7310 1372 21       		.uleb128 0x21
 7311 1373 3B020000 		.4byte	.LASF241
 7312 1377 01       		.byte	0x1
 7313 1378 F3       		.byte	0xf3
 7314 1379 E2080000 		.4byte	0x8e2
 7315 137d 20000000 		.4byte	.LLST1
 7316 1381 21       		.uleb128 0x21
 7317 1382 E6060000 		.4byte	.LASF242
 7318 1386 01       		.byte	0x1
ARM GAS  C:\Users\jenny\AppData\Local\Temp\ccLg5IEe.s 			page 130


 7319 1387 F3       		.byte	0xf3
 7320 1388 29000000 		.4byte	0x29
 7321 138c 79000000 		.4byte	.LLST2
 7322 1390 22       		.uleb128 0x22
 7323 1391 6900     		.ascii	"i\000"
 7324 1393 01       		.byte	0x1
 7325 1394 F5       		.byte	0xf5
 7326 1395 29000000 		.4byte	0x29
 7327 1399 D7000000 		.4byte	.LLST3
 7328 139d 00       		.byte	0
 7329 139e 23       		.uleb128 0x23
 7330 139f B4070000 		.4byte	.LASF244
 7331 13a3 01       		.byte	0x1
 7332 13a4 1B08     		.2byte	0x81b
 7333 13a6 01       		.byte	0x1
 7334 13a7 00000000 		.4byte	.LFB34
 7335 13ab EC000000 		.4byte	.LFE34
 7336 13af 33010000 		.4byte	.LLST4
 7337 13b3 01       		.byte	0x1
 7338 13b4 35140000 		.4byte	0x1435
 7339 13b8 24       		.uleb128 0x24
 7340 13b9 61726700 		.ascii	"arg\000"
 7341 13bd 01       		.byte	0x1
 7342 13be 1B08     		.2byte	0x81b
 7343 13c0 B9020000 		.4byte	0x2b9
 7344 13c4 5F010000 		.4byte	.LLST5
 7345 13c8 25       		.uleb128 0x25
 7346 13c9 4B080000 		.4byte	.LASF234
 7347 13cd 01       		.byte	0x1
 7348 13ce 1D08     		.2byte	0x81d
 7349 13d0 08130000 		.4byte	0x1308
 7350 13d4 99010000 		.4byte	.LLST6
 7351 13d8 25       		.uleb128 0x25
 7352 13d9 D20D0000 		.4byte	.LASF235
 7353 13dd 01       		.byte	0x1
 7354 13de 2108     		.2byte	0x821
 7355 13e0 29000000 		.4byte	0x29
 7356 13e4 B7010000 		.4byte	.LLST7
 7357 13e8 25       		.uleb128 0x25
 7358 13e9 F7080000 		.4byte	.LASF236
 7359 13ed 01       		.byte	0x1
 7360 13ee 2108     		.2byte	0x821
 7361 13f0 29000000 		.4byte	0x29
 7362 13f4 22020000 		.4byte	.LLST8
 7363 13f8 25       		.uleb128 0x25
 7364 13f9 61080000 		.4byte	.LASF237
 7365 13fd 01       		.byte	0x1
 7366 13fe 2208     		.2byte	0x822
 7367 1400 18110000 		.4byte	0x1118
 7368 1404 98020000 		.4byte	.LLST9
 7369 1408 25       		.uleb128 0x25
 7370 1409 C50E0000 		.4byte	.LASF243
 7371 140d 01       		.byte	0x1
 7372 140e 2308     		.2byte	0x823
 7373 1410 35140000 		.4byte	0x1435
 7374 1414 ED020000 		.4byte	.LLST10
 7375 1418 26       		.uleb128 0x26
ARM GAS  C:\Users\jenny\AppData\Local\Temp\ccLg5IEe.s 			page 131


 7376 1419 22000000 		.4byte	.LVL21
 7377 141d BD2C0000 		.4byte	0x2cbd
 7378 1421 27       		.uleb128 0x27
 7379 1422 30000000 		.4byte	.LVL22
 7380 1426 01       		.byte	0x1
 7381 1427 C82C0000 		.4byte	0x2cc8
 7382 142b 26       		.uleb128 0x26
 7383 142c B8000000 		.4byte	.LVL47
 7384 1430 BD2C0000 		.4byte	0x2cbd
 7385 1434 00       		.byte	0
 7386 1435 09       		.uleb128 0x9
 7387 1436 04       		.byte	0x4
 7388 1437 A7120000 		.4byte	0x12a7
 7389 143b 23       		.uleb128 0x23
 7390 143c F5050000 		.4byte	.LASF245
 7391 1440 01       		.byte	0x1
 7392 1441 7A06     		.2byte	0x67a
 7393 1443 01       		.byte	0x1
 7394 1444 00000000 		.4byte	.LFB32
 7395 1448 0C010000 		.4byte	.LFE32
 7396 144c 16030000 		.4byte	.LLST11
 7397 1450 01       		.byte	0x1
 7398 1451 D2140000 		.4byte	0x14d2
 7399 1455 24       		.uleb128 0x24
 7400 1456 61726700 		.ascii	"arg\000"
 7401 145a 01       		.byte	0x1
 7402 145b 7A06     		.2byte	0x67a
 7403 145d B9020000 		.4byte	0x2b9
 7404 1461 42030000 		.4byte	.LLST12
 7405 1465 25       		.uleb128 0x25
 7406 1466 4B080000 		.4byte	.LASF234
 7407 146a 01       		.byte	0x1
 7408 146b 7C06     		.2byte	0x67c
 7409 146d 08130000 		.4byte	0x1308
 7410 1471 7C030000 		.4byte	.LLST13
 7411 1475 25       		.uleb128 0x25
 7412 1476 D20D0000 		.4byte	.LASF235
 7413 147a 01       		.byte	0x1
 7414 147b 8006     		.2byte	0x680
 7415 147d 29000000 		.4byte	0x29
 7416 1481 9A030000 		.4byte	.LLST14
 7417 1485 25       		.uleb128 0x25
 7418 1486 F7080000 		.4byte	.LASF236
 7419 148a 01       		.byte	0x1
 7420 148b 8006     		.2byte	0x680
 7421 148d 29000000 		.4byte	0x29
 7422 1491 FA030000 		.4byte	.LLST15
 7423 1495 25       		.uleb128 0x25
 7424 1496 61080000 		.4byte	.LASF237
 7425 149a 01       		.byte	0x1
 7426 149b 8106     		.2byte	0x681
 7427 149d B9020000 		.4byte	0x2b9
 7428 14a1 70040000 		.4byte	.LLST16
 7429 14a5 25       		.uleb128 0x25
 7430 14a6 C50E0000 		.4byte	.LASF243
 7431 14aa 01       		.byte	0x1
 7432 14ab 8206     		.2byte	0x682
ARM GAS  C:\Users\jenny\AppData\Local\Temp\ccLg5IEe.s 			page 132


 7433 14ad 35140000 		.4byte	0x1435
 7434 14b1 A4040000 		.4byte	.LLST17
 7435 14b5 26       		.uleb128 0x26
 7436 14b6 22000000 		.4byte	.LVL65
 7437 14ba BD2C0000 		.4byte	0x2cbd
 7438 14be 27       		.uleb128 0x27
 7439 14bf 30000000 		.4byte	.LVL66
 7440 14c3 01       		.byte	0x1
 7441 14c4 C82C0000 		.4byte	0x2cc8
 7442 14c8 26       		.uleb128 0x26
 7443 14c9 C4000000 		.4byte	.LVL90
 7444 14cd BD2C0000 		.4byte	0x2cbd
 7445 14d1 00       		.byte	0
 7446 14d2 28       		.uleb128 0x28
 7447 14d3 8A090000 		.4byte	.LASF247
 7448 14d7 01       		.byte	0x1
 7449 14d8 0204     		.2byte	0x402
 7450 14da 01       		.byte	0x1
 7451 14db 29000000 		.4byte	0x29
 7452 14df 00000000 		.4byte	.LFB24
 7453 14e3 3A010000 		.4byte	.LFE24
 7454 14e7 CD040000 		.4byte	.LLST18
 7455 14eb 01       		.byte	0x1
 7456 14ec 17160000 		.4byte	0x1617
 7457 14f0 29       		.uleb128 0x29
 7458 14f1 B8090000 		.4byte	.LASF248
 7459 14f5 01       		.byte	0x1
 7460 14f6 0204     		.2byte	0x402
 7461 14f8 29000000 		.4byte	0x29
 7462 14fc F9040000 		.4byte	.LLST19
 7463 1500 29       		.uleb128 0x29
 7464 1501 F6000000 		.4byte	.LASF249
 7465 1505 01       		.byte	0x1
 7466 1506 0204     		.2byte	0x402
 7467 1508 A1120000 		.4byte	0x12a1
 7468 150c 17050000 		.4byte	.LLST20
 7469 1510 29       		.uleb128 0x29
 7470 1511 21040000 		.4byte	.LASF250
 7471 1515 01       		.byte	0x1
 7472 1516 0204     		.2byte	0x402
 7473 1518 A1120000 		.4byte	0x12a1
 7474 151c 43050000 		.4byte	.LLST21
 7475 1520 29       		.uleb128 0x29
 7476 1521 4C050000 		.4byte	.LASF251
 7477 1525 01       		.byte	0x1
 7478 1526 0204     		.2byte	0x402
 7479 1528 A1120000 		.4byte	0x12a1
 7480 152c 6F050000 		.4byte	.LLST22
 7481 1530 2A       		.uleb128 0x2a
 7482 1531 2C0E0000 		.4byte	.LASF252
 7483 1535 01       		.byte	0x1
 7484 1536 0304     		.2byte	0x403
 7485 1538 A1120000 		.4byte	0x12a1
 7486 153c 02       		.byte	0x2
 7487 153d 91       		.byte	0x91
 7488 153e 00       		.sleb128 0
 7489 153f 2A       		.uleb128 0x2a
ARM GAS  C:\Users\jenny\AppData\Local\Temp\ccLg5IEe.s 			page 133


 7490 1540 BB040000 		.4byte	.LASF253
 7491 1544 01       		.byte	0x1
 7492 1545 0304     		.2byte	0x403
 7493 1547 A1120000 		.4byte	0x12a1
 7494 154b 02       		.byte	0x2
 7495 154c 91       		.byte	0x91
 7496 154d 04       		.sleb128 4
 7497 154e 2A       		.uleb128 0x2a
 7498 154f 3B0C0000 		.4byte	.LASF254
 7499 1553 01       		.byte	0x1
 7500 1554 0304     		.2byte	0x403
 7501 1556 A1120000 		.4byte	0x12a1
 7502 155a 02       		.byte	0x2
 7503 155b 91       		.byte	0x91
 7504 155c 08       		.sleb128 8
 7505 155d 2B       		.uleb128 0x2b
 7506 155e 6900     		.ascii	"i\000"
 7507 1560 01       		.byte	0x1
 7508 1561 0504     		.2byte	0x405
 7509 1563 29000000 		.4byte	0x29
 7510 1567 9B050000 		.4byte	.LLST23
 7511 156b 25       		.uleb128 0x25
 7512 156c A40E0000 		.4byte	.LASF255
 7513 1570 01       		.byte	0x1
 7514 1571 0504     		.2byte	0x405
 7515 1573 29000000 		.4byte	0x29
 7516 1577 BA050000 		.4byte	.LLST24
 7517 157b 2C       		.uleb128 0x2c
 7518 157c 9B0B0000 		.4byte	.LASF256
 7519 1580 01       		.byte	0x1
 7520 1581 0604     		.2byte	0x406
 7521 1583 16070000 		.4byte	0x716
 7522 1587 02       		.byte	0x2
 7523 1588 91       		.byte	0x91
 7524 1589 54       		.sleb128 -44
 7525 158a 2C       		.uleb128 0x2c
 7526 158b 97090000 		.4byte	.LASF257
 7527 158f 01       		.byte	0x1
 7528 1590 0604     		.2byte	0x406
 7529 1592 16070000 		.4byte	0x716
 7530 1596 02       		.byte	0x2
 7531 1597 91       		.byte	0x91
 7532 1598 58       		.sleb128 -40
 7533 1599 2C       		.uleb128 0x2c
 7534 159a 00000000 		.4byte	.LASF258
 7535 159e 01       		.byte	0x1
 7536 159f 0604     		.2byte	0x406
 7537 15a1 16070000 		.4byte	0x716
 7538 15a5 02       		.byte	0x2
 7539 15a6 91       		.byte	0x91
 7540 15a7 5C       		.sleb128 -36
 7541 15a8 2C       		.uleb128 0x2c
 7542 15a9 4B080000 		.4byte	.LASF234
 7543 15ad 01       		.byte	0x1
 7544 15ae 0704     		.2byte	0x407
 7545 15b0 08130000 		.4byte	0x1308
 7546 15b4 01       		.byte	0x1
ARM GAS  C:\Users\jenny\AppData\Local\Temp\ccLg5IEe.s 			page 134


 7547 15b5 55       		.byte	0x55
 7548 15b6 2D       		.uleb128 0x2d
 7549 15b7 00000000 		.4byte	.Ldebug_ranges0+0
 7550 15bb 25       		.uleb128 0x25
 7551 15bc 15010000 		.4byte	.LASF221
 7552 15c0 01       		.byte	0x1
 7553 15c1 1104     		.2byte	0x411
 7554 15c3 B9020000 		.4byte	0x2b9
 7555 15c7 D9050000 		.4byte	.LLST25
 7556 15cb 25       		.uleb128 0x25
 7557 15cc 740D0000 		.4byte	.LASF223
 7558 15d0 01       		.byte	0x1
 7559 15d1 1204     		.2byte	0x412
 7560 15d3 D2050000 		.4byte	0x5d2
 7561 15d7 0F060000 		.4byte	.LLST26
 7562 15db 25       		.uleb128 0x25
 7563 15dc 57080000 		.4byte	.LASF224
 7564 15e0 01       		.byte	0x1
 7565 15e1 1304     		.2byte	0x413
 7566 15e3 C7050000 		.4byte	0x5c7
 7567 15e7 47060000 		.4byte	.LLST27
 7568 15eb 25       		.uleb128 0x25
 7569 15ec CD030000 		.4byte	.LASF225
 7570 15f0 01       		.byte	0x1
 7571 15f1 1404     		.2byte	0x414
 7572 15f3 C7050000 		.4byte	0x5c7
 7573 15f7 7D060000 		.4byte	.LLST28
 7574 15fb 2E       		.uleb128 0x2e
 7575 15fc 14130000 		.4byte	0x1314
 7576 1600 1E000000 		.4byte	.LBB46
 7577 1604 18000000 		.4byte	.Ldebug_ranges0+0x18
 7578 1608 01       		.byte	0x1
 7579 1609 1704     		.2byte	0x417
 7580 160b 2F       		.uleb128 0x2f
 7581 160c 25130000 		.4byte	0x1325
 7582 1610 B3060000 		.4byte	.LLST29
 7583 1614 00       		.byte	0
 7584 1615 00       		.byte	0
 7585 1616 00       		.byte	0
 7586 1617 28       		.uleb128 0x28
 7587 1618 9B070000 		.4byte	.LASF259
 7588 161c 01       		.byte	0x1
 7589 161d 8305     		.2byte	0x583
 7590 161f 01       		.byte	0x1
 7591 1620 29000000 		.4byte	0x29
 7592 1624 00000000 		.4byte	.LFB28
 7593 1628 78000000 		.4byte	.LFE28
 7594 162c DE060000 		.4byte	.LLST30
 7595 1630 01       		.byte	0x1
 7596 1631 06170000 		.4byte	0x1706
 7597 1635 24       		.uleb128 0x24
 7598 1636 7300     		.ascii	"s\000"
 7599 1638 01       		.byte	0x1
 7600 1639 8305     		.2byte	0x583
 7601 163b 29000000 		.4byte	0x29
 7602 163f 0A070000 		.4byte	.LLST31
 7603 1643 29       		.uleb128 0x29
ARM GAS  C:\Users\jenny\AppData\Local\Temp\ccLg5IEe.s 			page 135


 7604 1644 DC0B0000 		.4byte	.LASF260
 7605 1648 01       		.byte	0x1
 7606 1649 8305     		.2byte	0x583
 7607 164b 06170000 		.4byte	0x1706
 7608 164f 2B070000 		.4byte	.LLST32
 7609 1653 29       		.uleb128 0x29
 7610 1654 6A030000 		.4byte	.LASF261
 7611 1658 01       		.byte	0x1
 7612 1659 8305     		.2byte	0x583
 7613 165b 0E130000 		.4byte	0x130e
 7614 165f 49070000 		.4byte	.LLST33
 7615 1663 29       		.uleb128 0x29
 7616 1664 2C010000 		.4byte	.LASF215
 7617 1668 01       		.byte	0x1
 7618 1669 8305     		.2byte	0x583
 7619 166b B1050000 		.4byte	0x5b1
 7620 166f 67070000 		.4byte	.LLST34
 7621 1673 2C       		.uleb128 0x2c
 7622 1674 4B080000 		.4byte	.LASF234
 7623 1678 01       		.byte	0x1
 7624 1679 8505     		.2byte	0x585
 7625 167b 08130000 		.4byte	0x1308
 7626 167f 01       		.byte	0x1
 7627 1680 58       		.byte	0x58
 7628 1681 30       		.uleb128 0x30
 7629 1682 73696E00 		.ascii	"sin\000"
 7630 1686 01       		.byte	0x1
 7631 1687 8605     		.2byte	0x586
 7632 1689 34060000 		.4byte	0x634
 7633 168d 02       		.byte	0x2
 7634 168e 91       		.byte	0x91
 7635 168f 58       		.sleb128 -40
 7636 1690 2C       		.uleb128 0x2c
 7637 1691 22000000 		.4byte	.LASF262
 7638 1695 01       		.byte	0x1
 7639 1696 8705     		.2byte	0x587
 7640 1698 0E060000 		.4byte	0x60e
 7641 169c 02       		.byte	0x2
 7642 169d 91       		.byte	0x91
 7643 169e 54       		.sleb128 -44
 7644 169f 31       		.uleb128 0x31
 7645 16a0 2F130000 		.4byte	0x132f
 7646 16a4 04000000 		.4byte	.LBB51
 7647 16a8 30000000 		.4byte	.Ldebug_ranges0+0x30
 7648 16ac 01       		.byte	0x1
 7649 16ad 8905     		.2byte	0x589
 7650 16af CC160000 		.4byte	0x16cc
 7651 16b3 2F       		.uleb128 0x2f
 7652 16b4 40130000 		.4byte	0x1340
 7653 16b8 0A070000 		.4byte	.LLST31
 7654 16bc 2D       		.uleb128 0x2d
 7655 16bd 50000000 		.4byte	.Ldebug_ranges0+0x50
 7656 16c1 32       		.uleb128 0x32
 7657 16c2 49130000 		.4byte	0x1349
 7658 16c6 A1070000 		.4byte	.LLST36
 7659 16ca 00       		.byte	0
 7660 16cb 00       		.byte	0
ARM GAS  C:\Users\jenny\AppData\Local\Temp\ccLg5IEe.s 			page 136


 7661 16cc 33       		.uleb128 0x33
 7662 16cd 3E000000 		.4byte	.LVL120
 7663 16d1 DC2C0000 		.4byte	0x2cdc
 7664 16d5 E6160000 		.4byte	0x16e6
 7665 16d9 34       		.uleb128 0x34
 7666 16da 01       		.byte	0x1
 7667 16db 52       		.byte	0x52
 7668 16dc 02       		.byte	0x2
 7669 16dd 91       		.byte	0x91
 7670 16de 5A       		.sleb128 -38
 7671 16df 34       		.uleb128 0x34
 7672 16e0 01       		.byte	0x1
 7673 16e1 51       		.byte	0x51
 7674 16e2 02       		.byte	0x2
 7675 16e3 91       		.byte	0x91
 7676 16e4 54       		.sleb128 -44
 7677 16e5 00       		.byte	0
 7678 16e6 26       		.uleb128 0x26
 7679 16e7 46000000 		.4byte	.LVL121
 7680 16eb 032D0000 		.4byte	0x2d03
 7681 16ef 35       		.uleb128 0x35
 7682 16f0 60000000 		.4byte	.LVL122
 7683 16f4 1B2D0000 		.4byte	0x2d1b
 7684 16f8 34       		.uleb128 0x34
 7685 16f9 01       		.byte	0x1
 7686 16fa 51       		.byte	0x51
 7687 16fb 02       		.byte	0x2
 7688 16fc 91       		.byte	0x91
 7689 16fd 58       		.sleb128 -40
 7690 16fe 34       		.uleb128 0x34
 7691 16ff 01       		.byte	0x1
 7692 1700 50       		.byte	0x50
 7693 1701 02       		.byte	0x2
 7694 1702 75       		.byte	0x75
 7695 1703 00       		.sleb128 0
 7696 1704 00       		.byte	0
 7697 1705 00       		.byte	0
 7698 1706 09       		.uleb128 0x9
 7699 1707 04       		.byte	0x4
 7700 1708 97060000 		.4byte	0x697
 7701 170c 23       		.uleb128 0x23
 7702 170d B3030000 		.4byte	.LASF263
 7703 1711 01       		.byte	0x1
 7704 1712 DF04     		.2byte	0x4df
 7705 1714 01       		.byte	0x1
 7706 1715 00000000 		.4byte	.LFB26
 7707 1719 F8000000 		.4byte	.LFE26
 7708 171d B4070000 		.4byte	.LLST37
 7709 1721 01       		.byte	0x1
 7710 1722 FF170000 		.4byte	0x17ff
 7711 1726 29       		.uleb128 0x29
 7712 1727 8F010000 		.4byte	.LASF192
 7713 172b 01       		.byte	0x1
 7714 172c DF04     		.2byte	0x4df
 7715 172e E2080000 		.4byte	0x8e2
 7716 1732 D4070000 		.4byte	.LLST38
 7717 1736 24       		.uleb128 0x24
ARM GAS  C:\Users\jenny\AppData\Local\Temp\ccLg5IEe.s 			page 137


 7718 1737 65767400 		.ascii	"evt\000"
 7719 173b 01       		.byte	0x1
 7720 173c DF04     		.2byte	0x4df
 7721 173e 90080000 		.4byte	0x890
 7722 1742 19080000 		.4byte	.LLST39
 7723 1746 24       		.uleb128 0x24
 7724 1747 6C656E00 		.ascii	"len\000"
 7725 174b 01       		.byte	0x1
 7726 174c DF04     		.2byte	0x4df
 7727 174e C7050000 		.4byte	0x5c7
 7728 1752 90080000 		.4byte	.LLST40
 7729 1756 2B       		.uleb128 0x2b
 7730 1757 7300     		.ascii	"s\000"
 7731 1759 01       		.byte	0x1
 7732 175a E104     		.2byte	0x4e1
 7733 175c 29000000 		.4byte	0x29
 7734 1760 D5080000 		.4byte	.LLST41
 7735 1764 2C       		.uleb128 0x2c
 7736 1765 4B080000 		.4byte	.LASF234
 7737 1769 01       		.byte	0x1
 7738 176a E204     		.2byte	0x4e2
 7739 176c 08130000 		.4byte	0x1308
 7740 1770 01       		.byte	0x1
 7741 1771 58       		.byte	0x58
 7742 1772 2B       		.uleb128 0x2b
 7743 1773 73636200 		.ascii	"scb\000"
 7744 1777 01       		.byte	0x1
 7745 1778 E304     		.2byte	0x4e3
 7746 177a 9B120000 		.4byte	0x129b
 7747 177e 15090000 		.4byte	.LLST42
 7748 1782 25       		.uleb128 0x25
 7749 1783 B0080000 		.4byte	.LASF264
 7750 1787 01       		.byte	0x1
 7751 1788 E404     		.2byte	0x4e4
 7752 178a 29000000 		.4byte	0x29
 7753 178e 33090000 		.4byte	.LLST43
 7754 1792 36       		.uleb128 0x36
 7755 1793 57090000 		.4byte	.LASF349
 7756 1797 01       		.byte	0x1
 7757 1798 2905     		.2byte	0x529
 7758 179a 37       		.uleb128 0x37
 7759 179b 2F130000 		.4byte	0x132f
 7760 179f 0C000000 		.4byte	.LBB57
 7761 17a3 22000000 		.4byte	.LBE57
 7762 17a7 01       		.byte	0x1
 7763 17a8 FE04     		.2byte	0x4fe
 7764 17aa CB170000 		.4byte	0x17cb
 7765 17ae 2F       		.uleb128 0x2f
 7766 17af 40130000 		.4byte	0x1340
 7767 17b3 46090000 		.4byte	.LLST44
 7768 17b7 38       		.uleb128 0x38
 7769 17b8 0C000000 		.4byte	.LBB58
 7770 17bc 22000000 		.4byte	.LBE58
 7771 17c0 32       		.uleb128 0x32
 7772 17c1 49130000 		.4byte	0x1349
 7773 17c5 7A090000 		.4byte	.LLST45
 7774 17c9 00       		.byte	0
ARM GAS  C:\Users\jenny\AppData\Local\Temp\ccLg5IEe.s 			page 138


 7775 17ca 00       		.byte	0
 7776 17cb 39       		.uleb128 0x39
 7777 17cc 70000000 		.4byte	.Ldebug_ranges0+0x70
 7778 17d0 F5170000 		.4byte	0x17f5
 7779 17d4 25       		.uleb128 0x25
 7780 17d5 74080000 		.4byte	.LASF265
 7781 17d9 01       		.byte	0x1
 7782 17da 2D05     		.2byte	0x52d
 7783 17dc 29000000 		.4byte	0x29
 7784 17e0 98090000 		.4byte	.LLST46
 7785 17e4 35       		.uleb128 0x35
 7786 17e5 DC000000 		.4byte	.LVL146
 7787 17e9 3C2D0000 		.4byte	0x2d3c
 7788 17ed 34       		.uleb128 0x34
 7789 17ee 01       		.byte	0x1
 7790 17ef 50       		.byte	0x50
 7791 17f0 02       		.byte	0x2
 7792 17f1 74       		.byte	0x74
 7793 17f2 18       		.sleb128 24
 7794 17f3 00       		.byte	0
 7795 17f4 00       		.byte	0
 7796 17f5 26       		.uleb128 0x26
 7797 17f6 D0000000 		.4byte	.LVL144
 7798 17fa BD2C0000 		.4byte	0x2cbd
 7799 17fe 00       		.byte	0
 7800 17ff 3A       		.uleb128 0x3a
 7801 1800 01       		.byte	0x1
 7802 1801 110C0000 		.4byte	.LASF350
 7803 1805 01       		.byte	0x1
 7804 1806 B8       		.byte	0xb8
 7805 1807 01       		.byte	0x1
 7806 1808 00000000 		.4byte	.LFB7
 7807 180c 02000000 		.4byte	.LFE7
 7808 1810 02       		.byte	0x2
 7809 1811 7D       		.byte	0x7d
 7810 1812 00       		.sleb128 0
 7811 1813 01       		.byte	0x1
 7812 1814 3B       		.uleb128 0x3b
 7813 1815 01       		.byte	0x1
 7814 1816 9A080000 		.4byte	.LASF269
 7815 181a 01       		.byte	0x1
 7816 181b 3801     		.2byte	0x138
 7817 181d 01       		.byte	0x1
 7818 181e 29000000 		.4byte	0x29
 7819 1822 00000000 		.4byte	.LFB12
 7820 1826 54010000 		.4byte	.LFE12
 7821 182a B8090000 		.4byte	.LLST47
 7822 182e 01       		.byte	0x1
 7823 182f AA190000 		.4byte	0x19aa
 7824 1833 24       		.uleb128 0x24
 7825 1834 7300     		.ascii	"s\000"
 7826 1836 01       		.byte	0x1
 7827 1837 3801     		.2byte	0x138
 7828 1839 29000000 		.4byte	0x29
 7829 183d E5090000 		.4byte	.LLST48
 7830 1841 29       		.uleb128 0x29
 7831 1842 08080000 		.4byte	.LASF78
ARM GAS  C:\Users\jenny\AppData\Local\Temp\ccLg5IEe.s 			page 139


 7832 1846 01       		.byte	0x1
 7833 1847 3801     		.2byte	0x138
 7834 1849 06170000 		.4byte	0x1706
 7835 184d 060A0000 		.4byte	.LLST49
 7836 1851 29       		.uleb128 0x29
 7837 1852 E2050000 		.4byte	.LASF266
 7838 1856 01       		.byte	0x1
 7839 1857 3801     		.2byte	0x138
 7840 1859 0E130000 		.4byte	0x130e
 7841 185d 240A0000 		.4byte	.LLST50
 7842 1861 2C       		.uleb128 0x2c
 7843 1862 4B080000 		.4byte	.LASF234
 7844 1866 01       		.byte	0x1
 7845 1867 3A01     		.2byte	0x13a
 7846 1869 08130000 		.4byte	0x1308
 7847 186d 01       		.byte	0x1
 7848 186e 55       		.byte	0x55
 7849 186f 25       		.uleb128 0x25
 7850 1870 3D040000 		.4byte	.LASF267
 7851 1874 01       		.byte	0x1
 7852 1875 3A01     		.2byte	0x13a
 7853 1877 08130000 		.4byte	0x1308
 7854 187b CD0A0000 		.4byte	.LLST51
 7855 187f 25       		.uleb128 0x25
 7856 1880 3B020000 		.4byte	.LASF241
 7857 1884 01       		.byte	0x1
 7858 1885 3B01     		.2byte	0x13b
 7859 1887 E2080000 		.4byte	0x8e2
 7860 188b E00A0000 		.4byte	.LLST52
 7861 188f 2C       		.uleb128 0x2c
 7862 1890 22000000 		.4byte	.LASF262
 7863 1894 01       		.byte	0x1
 7864 1895 3C01     		.2byte	0x13c
 7865 1897 0E060000 		.4byte	0x60e
 7866 189b 02       		.byte	0x2
 7867 189c 91       		.byte	0x91
 7868 189d 54       		.sleb128 -44
 7869 189e 25       		.uleb128 0x25
 7870 189f E90B0000 		.4byte	.LASF106
 7871 18a3 01       		.byte	0x1
 7872 18a4 3D01     		.2byte	0x13d
 7873 18a6 C7050000 		.4byte	0x5c7
 7874 18aa 0C0B0000 		.4byte	.LLST53
 7875 18ae 25       		.uleb128 0x25
 7876 18af 0E060000 		.4byte	.LASF268
 7877 18b3 01       		.byte	0x1
 7878 18b4 3E01     		.2byte	0x13e
 7879 18b6 29000000 		.4byte	0x29
 7880 18ba 380B0000 		.4byte	.LLST54
 7881 18be 30       		.uleb128 0x30
 7882 18bf 73696E00 		.ascii	"sin\000"
 7883 18c3 01       		.byte	0x1
 7884 18c4 3F01     		.2byte	0x13f
 7885 18c6 34060000 		.4byte	0x634
 7886 18ca 02       		.byte	0x2
 7887 18cb 91       		.byte	0x91
 7888 18cc 58       		.sleb128 -40
ARM GAS  C:\Users\jenny\AppData\Local\Temp\ccLg5IEe.s 			page 140


 7889 18cd 2B       		.uleb128 0x2b
 7890 18ce 65727200 		.ascii	"err\000"
 7891 18d2 01       		.byte	0x1
 7892 18d3 4001     		.2byte	0x140
 7893 18d5 4E070000 		.4byte	0x74e
 7894 18d9 820B0000 		.4byte	.LLST55
 7895 18dd 31       		.uleb128 0x31
 7896 18de 2F130000 		.4byte	0x132f
 7897 18e2 04000000 		.4byte	.LBB61
 7898 18e6 88000000 		.4byte	.Ldebug_ranges0+0x88
 7899 18ea 01       		.byte	0x1
 7900 18eb 4401     		.2byte	0x144
 7901 18ed 0A190000 		.4byte	0x190a
 7902 18f1 2F       		.uleb128 0x2f
 7903 18f2 40130000 		.4byte	0x1340
 7904 18f6 E5090000 		.4byte	.LLST48
 7905 18fa 2D       		.uleb128 0x2d
 7906 18fb A8000000 		.4byte	.Ldebug_ranges0+0xa8
 7907 18ff 32       		.uleb128 0x32
 7908 1900 49130000 		.4byte	0x1349
 7909 1904 CC0B0000 		.4byte	.LLST57
 7910 1908 00       		.byte	0
 7911 1909 00       		.byte	0
 7912 190a 33       		.uleb128 0x33
 7913 190b 34000000 		.4byte	.LVL155
 7914 190f 502D0000 		.4byte	0x2d50
 7915 1913 1E190000 		.4byte	0x191e
 7916 1917 34       		.uleb128 0x34
 7917 1918 01       		.byte	0x1
 7918 1919 51       		.byte	0x51
 7919 191a 02       		.byte	0x2
 7920 191b 91       		.byte	0x91
 7921 191c 50       		.sleb128 -48
 7922 191d 00       		.byte	0
 7923 191e 33       		.uleb128 0x33
 7924 191f 6A000000 		.4byte	.LVL161
 7925 1923 DC2C0000 		.4byte	0x2cdc
 7926 1927 3D190000 		.4byte	0x193d
 7927 192b 34       		.uleb128 0x34
 7928 192c 01       		.byte	0x1
 7929 192d 53       		.byte	0x53
 7930 192e 01       		.byte	0x1
 7931 192f 30       		.byte	0x30
 7932 1930 34       		.uleb128 0x34
 7933 1931 01       		.byte	0x1
 7934 1932 52       		.byte	0x52
 7935 1933 02       		.byte	0x2
 7936 1934 91       		.byte	0x91
 7937 1935 4E       		.sleb128 -50
 7938 1936 34       		.uleb128 0x34
 7939 1937 01       		.byte	0x1
 7940 1938 51       		.byte	0x51
 7941 1939 02       		.byte	0x2
 7942 193a 91       		.byte	0x91
 7943 193b 54       		.sleb128 -44
 7944 193c 00       		.byte	0
 7945 193d 26       		.uleb128 0x26
ARM GAS  C:\Users\jenny\AppData\Local\Temp\ccLg5IEe.s 			page 141


 7946 193e 96000000 		.4byte	.LVL164
 7947 1942 032D0000 		.4byte	0x2d03
 7948 1946 33       		.uleb128 0x33
 7949 1947 B2000000 		.4byte	.LVL165
 7950 194b 1B2D0000 		.4byte	0x2d1b
 7951 194f 60190000 		.4byte	0x1960
 7952 1953 34       		.uleb128 0x34
 7953 1954 01       		.byte	0x1
 7954 1955 51       		.byte	0x51
 7955 1956 02       		.byte	0x2
 7956 1957 91       		.byte	0x91
 7957 1958 58       		.sleb128 -40
 7958 1959 34       		.uleb128 0x34
 7959 195a 01       		.byte	0x1
 7960 195b 50       		.byte	0x50
 7961 195c 02       		.byte	0x2
 7962 195d 77       		.byte	0x77
 7963 195e 00       		.sleb128 0
 7964 195f 00       		.byte	0
 7965 1960 33       		.uleb128 0x33
 7966 1961 BA000000 		.4byte	.LVL166
 7967 1965 55130000 		.4byte	0x1355
 7968 1969 73190000 		.4byte	0x1973
 7969 196d 34       		.uleb128 0x34
 7970 196e 01       		.byte	0x1
 7971 196f 51       		.byte	0x51
 7972 1970 01       		.byte	0x1
 7973 1971 31       		.byte	0x31
 7974 1972 00       		.byte	0
 7975 1973 26       		.uleb128 0x26
 7976 1974 D2000000 		.4byte	.LVL169
 7977 1978 BD2C0000 		.4byte	0x2cbd
 7978 197c 26       		.uleb128 0x26
 7979 197d F2000000 		.4byte	.LVL172
 7980 1981 BD2C0000 		.4byte	0x2cbd
 7981 1985 26       		.uleb128 0x26
 7982 1986 F8000000 		.4byte	.LVL174
 7983 198a BD2C0000 		.4byte	0x2cbd
 7984 198e 26       		.uleb128 0x26
 7985 198f 00010000 		.4byte	.LVL176
 7986 1993 BD2C0000 		.4byte	0x2cbd
 7987 1997 26       		.uleb128 0x26
 7988 1998 14010000 		.4byte	.LVL181
 7989 199c 732D0000 		.4byte	0x2d73
 7990 19a0 26       		.uleb128 0x26
 7991 19a1 42010000 		.4byte	.LVL188
 7992 19a5 732D0000 		.4byte	0x2d73
 7993 19a9 00       		.byte	0
 7994 19aa 3B       		.uleb128 0x3b
 7995 19ab 01       		.byte	0x1
 7996 19ac 4D0D0000 		.4byte	.LASF270
 7997 19b0 01       		.byte	0x1
 7998 19b1 9501     		.2byte	0x195
 7999 19b3 01       		.byte	0x1
 8000 19b4 29000000 		.4byte	0x29
 8001 19b8 00000000 		.4byte	.LFB13
 8002 19bc 78000000 		.4byte	.LFE13
ARM GAS  C:\Users\jenny\AppData\Local\Temp\ccLg5IEe.s 			page 142


 8003 19c0 EA0B0000 		.4byte	.LLST58
 8004 19c4 01       		.byte	0x1
 8005 19c5 9E1A0000 		.4byte	0x1a9e
 8006 19c9 24       		.uleb128 0x24
 8007 19ca 7300     		.ascii	"s\000"
 8008 19cc 01       		.byte	0x1
 8009 19cd 9501     		.2byte	0x195
 8010 19cf 29000000 		.4byte	0x29
 8011 19d3 160C0000 		.4byte	.LLST59
 8012 19d7 29       		.uleb128 0x29
 8013 19d8 DC0B0000 		.4byte	.LASF260
 8014 19dc 01       		.byte	0x1
 8015 19dd 9501     		.2byte	0x195
 8016 19df 9E1A0000 		.4byte	0x1a9e
 8017 19e3 370C0000 		.4byte	.LLST60
 8018 19e7 29       		.uleb128 0x29
 8019 19e8 6A030000 		.4byte	.LASF261
 8020 19ec 01       		.byte	0x1
 8021 19ed 9501     		.2byte	0x195
 8022 19ef DE060000 		.4byte	0x6de
 8023 19f3 8A0C0000 		.4byte	.LLST61
 8024 19f7 2C       		.uleb128 0x2c
 8025 19f8 4B080000 		.4byte	.LASF234
 8026 19fc 01       		.byte	0x1
 8027 19fd 9701     		.2byte	0x197
 8028 19ff 08130000 		.4byte	0x1308
 8029 1a03 01       		.byte	0x1
 8030 1a04 56       		.byte	0x56
 8031 1a05 2C       		.uleb128 0x2c
 8032 1a06 86000000 		.4byte	.LASF271
 8033 1a0a 01       		.byte	0x1
 8034 1a0b 9801     		.2byte	0x198
 8035 1a0d 0E060000 		.4byte	0x60e
 8036 1a11 02       		.byte	0x2
 8037 1a12 91       		.byte	0x91
 8038 1a13 6C       		.sleb128 -20
 8039 1a14 25       		.uleb128 0x25
 8040 1a15 8B040000 		.4byte	.LASF147
 8041 1a19 01       		.byte	0x1
 8042 1a1a 9901     		.2byte	0x199
 8043 1a1c C7050000 		.4byte	0x5c7
 8044 1a20 C40C0000 		.4byte	.LLST62
 8045 1a24 2B       		.uleb128 0x2b
 8046 1a25 65727200 		.ascii	"err\000"
 8047 1a29 01       		.byte	0x1
 8048 1a2a 9A01     		.2byte	0x19a
 8049 1a2c 4E070000 		.4byte	0x74e
 8050 1a30 D80C0000 		.4byte	.LLST63
 8051 1a34 25       		.uleb128 0x25
 8052 1a35 AA0A0000 		.4byte	.LASF272
 8053 1a39 01       		.byte	0x1
 8054 1a3a 9B01     		.2byte	0x19b
 8055 1a3c A91A0000 		.4byte	0x1aa9
 8056 1a40 F60C0000 		.4byte	.LLST64
 8057 1a44 31       		.uleb128 0x31
 8058 1a45 2F130000 		.4byte	0x132f
 8059 1a49 02000000 		.4byte	.LBB67
ARM GAS  C:\Users\jenny\AppData\Local\Temp\ccLg5IEe.s 			page 143


 8060 1a4d C8000000 		.4byte	.Ldebug_ranges0+0xc8
 8061 1a51 01       		.byte	0x1
 8062 1a52 9D01     		.2byte	0x19d
 8063 1a54 711A0000 		.4byte	0x1a71
 8064 1a58 2F       		.uleb128 0x2f
 8065 1a59 40130000 		.4byte	0x1340
 8066 1a5d 160C0000 		.4byte	.LLST59
 8067 1a61 2D       		.uleb128 0x2d
 8068 1a62 E8000000 		.4byte	.Ldebug_ranges0+0xe8
 8069 1a66 32       		.uleb128 0x32
 8070 1a67 49130000 		.4byte	0x1349
 8071 1a6b 250D0000 		.4byte	.LLST66
 8072 1a6f 00       		.byte	0
 8073 1a70 00       		.byte	0
 8074 1a71 26       		.uleb128 0x26
 8075 1a72 32000000 		.4byte	.LVL195
 8076 1a76 8B2D0000 		.4byte	0x2d8b
 8077 1a7a 33       		.uleb128 0x33
 8078 1a7b 3C000000 		.4byte	.LVL196
 8079 1a7f A32D0000 		.4byte	0x2da3
 8080 1a83 941A0000 		.4byte	0x1a94
 8081 1a87 34       		.uleb128 0x34
 8082 1a88 01       		.byte	0x1
 8083 1a89 51       		.byte	0x51
 8084 1a8a 02       		.byte	0x2
 8085 1a8b 74       		.byte	0x74
 8086 1a8c 00       		.sleb128 0
 8087 1a8d 34       		.uleb128 0x34
 8088 1a8e 01       		.byte	0x1
 8089 1a8f 50       		.byte	0x50
 8090 1a90 02       		.byte	0x2
 8091 1a91 75       		.byte	0x75
 8092 1a92 00       		.sleb128 0
 8093 1a93 00       		.byte	0
 8094 1a94 26       		.uleb128 0x26
 8095 1a95 4E000000 		.4byte	.LVL200
 8096 1a99 BD2C0000 		.4byte	0x2cbd
 8097 1a9d 00       		.byte	0
 8098 1a9e 09       		.uleb128 0x9
 8099 1a9f 04       		.byte	0x4
 8100 1aa0 A41A0000 		.4byte	0x1aa4
 8101 1aa4 12       		.uleb128 0x12
 8102 1aa5 97060000 		.4byte	0x697
 8103 1aa9 09       		.uleb128 0x9
 8104 1aaa 04       		.byte	0x4
 8105 1aab AF1A0000 		.4byte	0x1aaf
 8106 1aaf 12       		.uleb128 0x12
 8107 1ab0 34060000 		.4byte	0x634
 8108 1ab4 3C       		.uleb128 0x3c
 8109 1ab5 8F0B0000 		.4byte	.LASF351
 8110 1ab9 01       		.byte	0x1
 8111 1aba 1801     		.2byte	0x118
 8112 1abc 01       		.byte	0x1
 8113 1abd 01       		.byte	0x1
 8114 1abe E71A0000 		.4byte	0x1ae7
 8115 1ac2 3D       		.uleb128 0x3d
 8116 1ac3 4B080000 		.4byte	.LASF234
ARM GAS  C:\Users\jenny\AppData\Local\Temp\ccLg5IEe.s 			page 144


 8117 1ac7 01       		.byte	0x1
 8118 1ac8 1801     		.2byte	0x118
 8119 1aca 08130000 		.4byte	0x1308
 8120 1ace 3D       		.uleb128 0x3d
 8121 1acf 8D0E0000 		.4byte	.LASF273
 8122 1ad3 01       		.byte	0x1
 8123 1ad4 1801     		.2byte	0x118
 8124 1ad6 29000000 		.4byte	0x29
 8125 1ada 3E       		.uleb128 0x3e
 8126 1adb 15010000 		.4byte	.LASF221
 8127 1adf 01       		.byte	0x1
 8128 1ae0 1A01     		.2byte	0x11a
 8129 1ae2 B9020000 		.4byte	0x2b9
 8130 1ae6 00       		.byte	0
 8131 1ae7 3B       		.uleb128 0x3b
 8132 1ae8 01       		.byte	0x1
 8133 1ae9 9A000000 		.4byte	.LASF274
 8134 1aed 01       		.byte	0x1
 8135 1aee BD01     		.2byte	0x1bd
 8136 1af0 01       		.byte	0x1
 8137 1af1 29000000 		.4byte	0x29
 8138 1af5 00000000 		.4byte	.LFB14
 8139 1af9 58000000 		.4byte	.LFE14
 8140 1afd 430D0000 		.4byte	.LLST67
 8141 1b01 01       		.byte	0x1
 8142 1b02 B11B0000 		.4byte	0x1bb1
 8143 1b06 24       		.uleb128 0x24
 8144 1b07 7300     		.ascii	"s\000"
 8145 1b09 01       		.byte	0x1
 8146 1b0a BD01     		.2byte	0x1bd
 8147 1b0c 29000000 		.4byte	0x29
 8148 1b10 630D0000 		.4byte	.LLST68
 8149 1b14 2C       		.uleb128 0x2c
 8150 1b15 4B080000 		.4byte	.LASF234
 8151 1b19 01       		.byte	0x1
 8152 1b1a BF01     		.2byte	0x1bf
 8153 1b1c 08130000 		.4byte	0x1308
 8154 1b20 01       		.byte	0x1
 8155 1b21 55       		.byte	0x55
 8156 1b22 25       		.uleb128 0x25
 8157 1b23 8D0E0000 		.4byte	.LASF273
 8158 1b27 01       		.byte	0x1
 8159 1b28 C001     		.2byte	0x1c0
 8160 1b2a 29000000 		.4byte	0x29
 8161 1b2e 840D0000 		.4byte	.LLST69
 8162 1b32 31       		.uleb128 0x31
 8163 1b33 2F130000 		.4byte	0x132f
 8164 1b37 00000000 		.4byte	.LBB77
 8165 1b3b 08010000 		.4byte	.Ldebug_ranges0+0x108
 8166 1b3f 01       		.byte	0x1
 8167 1b40 C401     		.2byte	0x1c4
 8168 1b42 5F1B0000 		.4byte	0x1b5f
 8169 1b46 2F       		.uleb128 0x2f
 8170 1b47 40130000 		.4byte	0x1340
 8171 1b4b 630D0000 		.4byte	.LLST68
 8172 1b4f 2D       		.uleb128 0x2d
 8173 1b50 28010000 		.4byte	.Ldebug_ranges0+0x128
ARM GAS  C:\Users\jenny\AppData\Local\Temp\ccLg5IEe.s 			page 145


 8174 1b54 32       		.uleb128 0x32
 8175 1b55 49130000 		.4byte	0x1349
 8176 1b59 CE0D0000 		.4byte	.LLST71
 8177 1b5d 00       		.byte	0
 8178 1b5e 00       		.byte	0
 8179 1b5f 31       		.uleb128 0x31
 8180 1b60 B41A0000 		.4byte	0x1ab4
 8181 1b64 20000000 		.4byte	.LBB82
 8182 1b68 48010000 		.4byte	.Ldebug_ranges0+0x148
 8183 1b6c 01       		.byte	0x1
 8184 1b6d D101     		.2byte	0x1d1
 8185 1b6f A71B0000 		.4byte	0x1ba7
 8186 1b73 2F       		.uleb128 0x2f
 8187 1b74 CE1A0000 		.4byte	0x1ace
 8188 1b78 EC0D0000 		.4byte	.LLST72
 8189 1b7c 2F       		.uleb128 0x2f
 8190 1b7d C21A0000 		.4byte	0x1ac2
 8191 1b81 1E0E0000 		.4byte	.LLST73
 8192 1b85 2D       		.uleb128 0x2d
 8193 1b86 60010000 		.4byte	.Ldebug_ranges0+0x160
 8194 1b8a 32       		.uleb128 0x32
 8195 1b8b DA1A0000 		.4byte	0x1ada
 8196 1b8f 3C0E0000 		.4byte	.LLST74
 8197 1b93 26       		.uleb128 0x26
 8198 1b94 38000000 		.4byte	.LVL209
 8199 1b98 C52D0000 		.4byte	0x2dc5
 8200 1b9c 26       		.uleb128 0x26
 8201 1b9d 4E000000 		.4byte	.LVL212
 8202 1ba1 D92D0000 		.4byte	0x2dd9
 8203 1ba5 00       		.byte	0
 8204 1ba6 00       		.byte	0
 8205 1ba7 26       		.uleb128 0x26
 8206 1ba8 20000000 		.4byte	.LVL207
 8207 1bac 732D0000 		.4byte	0x2d73
 8208 1bb0 00       		.byte	0
 8209 1bb1 3B       		.uleb128 0x3b
 8210 1bb2 01       		.byte	0x1
 8211 1bb3 9F040000 		.4byte	.LASF275
 8212 1bb7 01       		.byte	0x1
 8213 1bb8 D701     		.2byte	0x1d7
 8214 1bba 01       		.byte	0x1
 8215 1bbb 29000000 		.4byte	0x29
 8216 1bbf 00000000 		.4byte	.LFB15
 8217 1bc3 78000000 		.4byte	.LFE15
 8218 1bc7 5A0E0000 		.4byte	.LLST75
 8219 1bcb 01       		.byte	0x1
 8220 1bcc AF1C0000 		.4byte	0x1caf
 8221 1bd0 24       		.uleb128 0x24
 8222 1bd1 7300     		.ascii	"s\000"
 8223 1bd3 01       		.byte	0x1
 8224 1bd4 D701     		.2byte	0x1d7
 8225 1bd6 29000000 		.4byte	0x29
 8226 1bda 860E0000 		.4byte	.LLST76
 8227 1bde 29       		.uleb128 0x29
 8228 1bdf DC0B0000 		.4byte	.LASF260
 8229 1be3 01       		.byte	0x1
 8230 1be4 D701     		.2byte	0x1d7
ARM GAS  C:\Users\jenny\AppData\Local\Temp\ccLg5IEe.s 			page 146


 8231 1be6 9E1A0000 		.4byte	0x1a9e
 8232 1bea A70E0000 		.4byte	.LLST77
 8233 1bee 29       		.uleb128 0x29
 8234 1bef 6A030000 		.4byte	.LASF261
 8235 1bf3 01       		.byte	0x1
 8236 1bf4 D701     		.2byte	0x1d7
 8237 1bf6 DE060000 		.4byte	0x6de
 8238 1bfa FA0E0000 		.4byte	.LLST78
 8239 1bfe 2C       		.uleb128 0x2c
 8240 1bff 4B080000 		.4byte	.LASF234
 8241 1c03 01       		.byte	0x1
 8242 1c04 D901     		.2byte	0x1d9
 8243 1c06 08130000 		.4byte	0x1308
 8244 1c0a 01       		.byte	0x1
 8245 1c0b 55       		.byte	0x55
 8246 1c0c 2B       		.uleb128 0x2b
 8247 1c0d 65727200 		.ascii	"err\000"
 8248 1c11 01       		.byte	0x1
 8249 1c12 DA01     		.2byte	0x1da
 8250 1c14 4E070000 		.4byte	0x74e
 8251 1c18 340F0000 		.4byte	.LLST79
 8252 1c1c 25       		.uleb128 0x25
 8253 1c1d AA0A0000 		.4byte	.LASF272
 8254 1c21 01       		.byte	0x1
 8255 1c22 DB01     		.2byte	0x1db
 8256 1c24 A91A0000 		.4byte	0x1aa9
 8257 1c28 520F0000 		.4byte	.LLST80
 8258 1c2c 31       		.uleb128 0x31
 8259 1c2d 2F130000 		.4byte	0x132f
 8260 1c31 02000000 		.4byte	.LBB87
 8261 1c35 78010000 		.4byte	.Ldebug_ranges0+0x178
 8262 1c39 01       		.byte	0x1
 8263 1c3a DD01     		.2byte	0x1dd
 8264 1c3c 591C0000 		.4byte	0x1c59
 8265 1c40 2F       		.uleb128 0x2f
 8266 1c41 40130000 		.4byte	0x1340
 8267 1c45 860E0000 		.4byte	.LLST76
 8268 1c49 2D       		.uleb128 0x2d
 8269 1c4a 98010000 		.4byte	.Ldebug_ranges0+0x198
 8270 1c4e 32       		.uleb128 0x32
 8271 1c4f 49130000 		.4byte	0x1349
 8272 1c53 810F0000 		.4byte	.LLST82
 8273 1c57 00       		.byte	0
 8274 1c58 00       		.byte	0
 8275 1c59 3F       		.uleb128 0x3f
 8276 1c5a 24000000 		.4byte	.LBB92
 8277 1c5e 3C000000 		.4byte	.LBE92
 8278 1c62 A51C0000 		.4byte	0x1ca5
 8279 1c66 2C       		.uleb128 0x2c
 8280 1c67 9B060000 		.4byte	.LASF276
 8281 1c6b 01       		.byte	0x1
 8282 1c6c EC01     		.2byte	0x1ec
 8283 1c6e 0E060000 		.4byte	0x60e
 8284 1c72 02       		.byte	0x2
 8285 1c73 91       		.byte	0x91
 8286 1c74 6C       		.sleb128 -20
 8287 1c75 25       		.uleb128 0x25
ARM GAS  C:\Users\jenny\AppData\Local\Temp\ccLg5IEe.s 			page 147


 8288 1c76 DC090000 		.4byte	.LASF148
 8289 1c7a 01       		.byte	0x1
 8290 1c7b ED01     		.2byte	0x1ed
 8291 1c7d C7050000 		.4byte	0x5c7
 8292 1c81 9F0F0000 		.4byte	.LLST83
 8293 1c85 26       		.uleb128 0x26
 8294 1c86 32000000 		.4byte	.LVL219
 8295 1c8a 8B2D0000 		.4byte	0x2d8b
 8296 1c8e 35       		.uleb128 0x35
 8297 1c8f 3C000000 		.4byte	.LVL220
 8298 1c93 F12D0000 		.4byte	0x2df1
 8299 1c97 34       		.uleb128 0x34
 8300 1c98 01       		.byte	0x1
 8301 1c99 51       		.byte	0x51
 8302 1c9a 02       		.byte	0x2
 8303 1c9b 74       		.byte	0x74
 8304 1c9c 00       		.sleb128 0
 8305 1c9d 34       		.uleb128 0x34
 8306 1c9e 01       		.byte	0x1
 8307 1c9f 50       		.byte	0x50
 8308 1ca0 02       		.byte	0x2
 8309 1ca1 76       		.byte	0x76
 8310 1ca2 00       		.sleb128 0
 8311 1ca3 00       		.byte	0
 8312 1ca4 00       		.byte	0
 8313 1ca5 26       		.uleb128 0x26
 8314 1ca6 4E000000 		.4byte	.LVL224
 8315 1caa BD2C0000 		.4byte	0x2cbd
 8316 1cae 00       		.byte	0
 8317 1caf 3B       		.uleb128 0x3b
 8318 1cb0 01       		.byte	0x1
 8319 1cb1 30070000 		.4byte	.LASF277
 8320 1cb5 01       		.byte	0x1
 8321 1cb6 0D02     		.2byte	0x20d
 8322 1cb8 01       		.byte	0x1
 8323 1cb9 29000000 		.4byte	0x29
 8324 1cbd 00000000 		.4byte	.LFB16
 8325 1cc1 64000000 		.4byte	.LFE16
 8326 1cc5 B30F0000 		.4byte	.LLST84
 8327 1cc9 01       		.byte	0x1
 8328 1cca 671D0000 		.4byte	0x1d67
 8329 1cce 24       		.uleb128 0x24
 8330 1ccf 7300     		.ascii	"s\000"
 8331 1cd1 01       		.byte	0x1
 8332 1cd2 0D02     		.2byte	0x20d
 8333 1cd4 29000000 		.4byte	0x29
 8334 1cd8 D30F0000 		.4byte	.LLST85
 8335 1cdc 29       		.uleb128 0x29
 8336 1cdd 0D030000 		.4byte	.LASF278
 8337 1ce1 01       		.byte	0x1
 8338 1ce2 0D02     		.2byte	0x20d
 8339 1ce4 29000000 		.4byte	0x29
 8340 1ce8 F40F0000 		.4byte	.LLST86
 8341 1cec 2C       		.uleb128 0x2c
 8342 1ced 4B080000 		.4byte	.LASF234
 8343 1cf1 01       		.byte	0x1
 8344 1cf2 0F02     		.2byte	0x20f
ARM GAS  C:\Users\jenny\AppData\Local\Temp\ccLg5IEe.s 			page 148


 8345 1cf4 08130000 		.4byte	0x1308
 8346 1cf8 01       		.byte	0x1
 8347 1cf9 54       		.byte	0x54
 8348 1cfa 2B       		.uleb128 0x2b
 8349 1cfb 65727200 		.ascii	"err\000"
 8350 1cff 01       		.byte	0x1
 8351 1d00 1002     		.2byte	0x210
 8352 1d02 4E070000 		.4byte	0x74e
 8353 1d06 20100000 		.4byte	.LLST87
 8354 1d0a 31       		.uleb128 0x31
 8355 1d0b 2F130000 		.4byte	0x132f
 8356 1d0f 00000000 		.4byte	.LBB94
 8357 1d13 B8010000 		.4byte	.Ldebug_ranges0+0x1b8
 8358 1d17 01       		.byte	0x1
 8359 1d18 1402     		.2byte	0x214
 8360 1d1a 371D0000 		.4byte	0x1d37
 8361 1d1e 2F       		.uleb128 0x2f
 8362 1d1f 40130000 		.4byte	0x1340
 8363 1d23 D30F0000 		.4byte	.LLST85
 8364 1d27 2D       		.uleb128 0x2d
 8365 1d28 D8010000 		.4byte	.Ldebug_ranges0+0x1d8
 8366 1d2c 32       		.uleb128 0x32
 8367 1d2d 49130000 		.4byte	0x1349
 8368 1d31 3E100000 		.4byte	.LLST89
 8369 1d35 00       		.byte	0
 8370 1d36 00       		.byte	0
 8371 1d37 33       		.uleb128 0x33
 8372 1d38 1E000000 		.4byte	.LVL231
 8373 1d3c 132E0000 		.4byte	0x2e13
 8374 1d40 4B1D0000 		.4byte	0x1d4b
 8375 1d44 34       		.uleb128 0x34
 8376 1d45 01       		.byte	0x1
 8377 1d46 51       		.byte	0x51
 8378 1d47 02       		.byte	0x2
 8379 1d48 09       		.byte	0x9
 8380 1d49 FF       		.byte	0xff
 8381 1d4a 00       		.byte	0
 8382 1d4b 35       		.uleb128 0x35
 8383 1d4c 3E000000 		.4byte	.LVL237
 8384 1d50 132E0000 		.4byte	0x2e13
 8385 1d54 34       		.uleb128 0x34
 8386 1d55 01       		.byte	0x1
 8387 1d56 51       		.byte	0x51
 8388 1d57 0D       		.byte	0xd
 8389 1d58 F3       		.byte	0xf3
 8390 1d59 01       		.uleb128 0x1
 8391 1d5a 51       		.byte	0x51
 8392 1d5b 12       		.byte	0x12
 8393 1d5c 30       		.byte	0x30
 8394 1d5d 16       		.byte	0x16
 8395 1d5e 14       		.byte	0x14
 8396 1d5f 2B       		.byte	0x2b
 8397 1d60 28       		.byte	0x28
 8398 1d61 0100     		.2byte	0x1
 8399 1d63 16       		.byte	0x16
 8400 1d64 13       		.byte	0x13
 8401 1d65 00       		.byte	0
ARM GAS  C:\Users\jenny\AppData\Local\Temp\ccLg5IEe.s 			page 149


 8402 1d66 00       		.byte	0
 8403 1d67 3B       		.uleb128 0x3b
 8404 1d68 01       		.byte	0x1
 8405 1d69 8D070000 		.4byte	.LASF279
 8406 1d6d 01       		.byte	0x1
 8407 1d6e 2D02     		.2byte	0x22d
 8408 1d70 01       		.byte	0x1
 8409 1d71 29000000 		.4byte	0x29
 8410 1d75 00000000 		.4byte	.LFB17
 8411 1d79 38020000 		.4byte	.LFE17
 8412 1d7d 5C100000 		.4byte	.LLST90
 8413 1d81 01       		.byte	0x1
 8414 1d82 931F0000 		.4byte	0x1f93
 8415 1d86 24       		.uleb128 0x24
 8416 1d87 7300     		.ascii	"s\000"
 8417 1d89 01       		.byte	0x1
 8418 1d8a 2D02     		.2byte	0x22d
 8419 1d8c 29000000 		.4byte	0x29
 8420 1d90 89100000 		.4byte	.LLST91
 8421 1d94 24       		.uleb128 0x24
 8422 1d95 6D656D00 		.ascii	"mem\000"
 8423 1d99 01       		.byte	0x1
 8424 1d9a 2D02     		.2byte	0x22d
 8425 1d9c B9020000 		.4byte	0x2b9
 8426 1da0 AA100000 		.4byte	.LLST92
 8427 1da4 24       		.uleb128 0x24
 8428 1da5 6C656E00 		.ascii	"len\000"
 8429 1da9 01       		.byte	0x1
 8430 1daa 2D02     		.2byte	0x22d
 8431 1dac 30000000 		.4byte	0x30
 8432 1db0 CA100000 		.4byte	.LLST93
 8433 1db4 29       		.uleb128 0x29
 8434 1db5 08040000 		.4byte	.LASF104
 8435 1db9 01       		.byte	0x1
 8436 1dba 2D02     		.2byte	0x22d
 8437 1dbc 29000000 		.4byte	0x29
 8438 1dc0 03110000 		.4byte	.LLST94
 8439 1dc4 2A       		.uleb128 0x2a
 8440 1dc5 E4000000 		.4byte	.LASF280
 8441 1dc9 01       		.byte	0x1
 8442 1dca 2E02     		.2byte	0x22e
 8443 1dcc 06170000 		.4byte	0x1706
 8444 1dd0 02       		.byte	0x2
 8445 1dd1 91       		.byte	0x91
 8446 1dd2 00       		.sleb128 0
 8447 1dd3 2A       		.uleb128 0x2a
 8448 1dd4 04090000 		.4byte	.LASF281
 8449 1dd8 01       		.byte	0x1
 8450 1dd9 2E02     		.2byte	0x22e
 8451 1ddb 0E130000 		.4byte	0x130e
 8452 1ddf 02       		.byte	0x2
 8453 1de0 91       		.byte	0x91
 8454 1de1 04       		.sleb128 4
 8455 1de2 2C       		.uleb128 0x2c
 8456 1de3 4B080000 		.4byte	.LASF234
 8457 1de7 01       		.byte	0x1
 8458 1de8 3002     		.2byte	0x230
ARM GAS  C:\Users\jenny\AppData\Local\Temp\ccLg5IEe.s 			page 150


 8459 1dea 08130000 		.4byte	0x1308
 8460 1dee 01       		.byte	0x1
 8461 1def 54       		.byte	0x54
 8462 1df0 30       		.uleb128 0x30
 8463 1df1 62756600 		.ascii	"buf\000"
 8464 1df5 01       		.byte	0x1
 8465 1df6 3102     		.2byte	0x231
 8466 1df8 B9020000 		.4byte	0x2b9
 8467 1dfc 02       		.byte	0x2
 8468 1dfd 91       		.byte	0x91
 8469 1dfe 40       		.sleb128 -64
 8470 1dff 2B       		.uleb128 0x2b
 8471 1e00 7000     		.ascii	"p\000"
 8472 1e02 01       		.byte	0x1
 8473 1e03 3202     		.2byte	0x232
 8474 1e05 C8070000 		.4byte	0x7c8
 8475 1e09 54110000 		.4byte	.LLST95
 8476 1e0d 25       		.uleb128 0x25
 8477 1e0e 22080000 		.4byte	.LASF282
 8478 1e12 01       		.byte	0x1
 8479 1e13 3302     		.2byte	0x233
 8480 1e15 C7050000 		.4byte	0x5c7
 8481 1e19 88110000 		.4byte	.LLST96
 8482 1e1d 25       		.uleb128 0x25
 8483 1e1e 7E030000 		.4byte	.LASF283
 8484 1e22 01       		.byte	0x1
 8485 1e23 3302     		.2byte	0x233
 8486 1e25 C7050000 		.4byte	0x5c7
 8487 1e29 DE110000 		.4byte	.LLST97
 8488 1e2d 2B       		.uleb128 0x2b
 8489 1e2e 6F666600 		.ascii	"off\000"
 8490 1e32 01       		.byte	0x1
 8491 1e33 3402     		.2byte	0x234
 8492 1e35 29000000 		.4byte	0x29
 8493 1e39 12120000 		.4byte	.LLST98
 8494 1e3d 25       		.uleb128 0x25
 8495 1e3e 08080000 		.4byte	.LASF78
 8496 1e42 01       		.byte	0x1
 8497 1e43 3502     		.2byte	0x235
 8498 1e45 D50E0000 		.4byte	0xed5
 8499 1e49 53120000 		.4byte	.LLST99
 8500 1e4d 25       		.uleb128 0x25
 8501 1e4e E90B0000 		.4byte	.LASF106
 8502 1e52 01       		.byte	0x1
 8503 1e53 3602     		.2byte	0x236
 8504 1e55 C7050000 		.4byte	0x5c7
 8505 1e59 96120000 		.4byte	.LLST100
 8506 1e5d 25       		.uleb128 0x25
 8507 1e5e AB080000 		.4byte	.LASF284
 8508 1e62 01       		.byte	0x1
 8509 1e63 3702     		.2byte	0x237
 8510 1e65 B1050000 		.4byte	0x5b1
 8511 1e69 B8120000 		.4byte	.LLST101
 8512 1e6d 2B       		.uleb128 0x2b
 8513 1e6e 65727200 		.ascii	"err\000"
 8514 1e72 01       		.byte	0x1
 8515 1e73 3802     		.2byte	0x238
ARM GAS  C:\Users\jenny\AppData\Local\Temp\ccLg5IEe.s 			page 151


 8516 1e75 4E070000 		.4byte	0x74e
 8517 1e79 2C130000 		.4byte	.LLST102
 8518 1e7d 31       		.uleb128 0x31
 8519 1e7e 2F130000 		.4byte	0x132f
 8520 1e82 08000000 		.4byte	.LBB100
 8521 1e86 F8010000 		.4byte	.Ldebug_ranges0+0x1f8
 8522 1e8a 01       		.byte	0x1
 8523 1e8b 3B02     		.2byte	0x23b
 8524 1e8d AA1E0000 		.4byte	0x1eaa
 8525 1e91 2F       		.uleb128 0x2f
 8526 1e92 40130000 		.4byte	0x1340
 8527 1e96 60130000 		.4byte	.LLST103
 8528 1e9a 2D       		.uleb128 0x2d
 8529 1e9b 18020000 		.4byte	.Ldebug_ranges0+0x218
 8530 1e9f 32       		.uleb128 0x32
 8531 1ea0 49130000 		.4byte	0x1349
 8532 1ea4 81130000 		.4byte	.LLST104
 8533 1ea8 00       		.byte	0
 8534 1ea9 00       		.byte	0
 8535 1eaa 39       		.uleb128 0x39
 8536 1eab 38020000 		.4byte	.Ldebug_ranges0+0x238
 8537 1eaf 181F0000 		.4byte	0x1f18
 8538 1eb3 2C       		.uleb128 0x2c
 8539 1eb4 81090000 		.4byte	.LASF285
 8540 1eb8 01       		.byte	0x1
 8541 1eb9 9B02     		.2byte	0x29b
 8542 1ebb 0E060000 		.4byte	0x60e
 8543 1ebf 02       		.byte	0x2
 8544 1ec0 91       		.byte	0x91
 8545 1ec1 44       		.sleb128 -60
 8546 1ec2 2D       		.uleb128 0x2d
 8547 1ec3 60020000 		.4byte	.Ldebug_ranges0+0x260
 8548 1ec7 30       		.uleb128 0x30
 8549 1ec8 73696E00 		.ascii	"sin\000"
 8550 1ecc 01       		.byte	0x1
 8551 1ecd 9D02     		.2byte	0x29d
 8552 1ecf 34060000 		.4byte	0x634
 8553 1ed3 02       		.byte	0x2
 8554 1ed4 91       		.byte	0x91
 8555 1ed5 48       		.sleb128 -56
 8556 1ed6 26       		.uleb128 0x26
 8557 1ed7 C2000000 		.4byte	.LVL258
 8558 1edb 032D0000 		.4byte	0x2d03
 8559 1edf 33       		.uleb128 0x33
 8560 1ee0 E0000000 		.4byte	.LVL259
 8561 1ee4 1B2D0000 		.4byte	0x2d1b
 8562 1ee8 F91E0000 		.4byte	0x1ef9
 8563 1eec 34       		.uleb128 0x34
 8564 1eed 01       		.byte	0x1
 8565 1eee 51       		.byte	0x51
 8566 1eef 02       		.byte	0x2
 8567 1ef0 91       		.byte	0x91
 8568 1ef1 48       		.sleb128 -56
 8569 1ef2 34       		.uleb128 0x34
 8570 1ef3 01       		.byte	0x1
 8571 1ef4 50       		.byte	0x50
 8572 1ef5 02       		.byte	0x2
ARM GAS  C:\Users\jenny\AppData\Local\Temp\ccLg5IEe.s 			page 152


 8573 1ef6 7A       		.byte	0x7a
 8574 1ef7 00       		.sleb128 0
 8575 1ef8 00       		.byte	0
 8576 1ef9 35       		.uleb128 0x35
 8577 1efa C6010000 		.4byte	.LVL283
 8578 1efe DC2C0000 		.4byte	0x2cdc
 8579 1f02 34       		.uleb128 0x34
 8580 1f03 01       		.byte	0x1
 8581 1f04 53       		.byte	0x53
 8582 1f05 02       		.byte	0x2
 8583 1f06 78       		.byte	0x78
 8584 1f07 00       		.sleb128 0
 8585 1f08 34       		.uleb128 0x34
 8586 1f09 01       		.byte	0x1
 8587 1f0a 52       		.byte	0x52
 8588 1f0b 03       		.byte	0x3
 8589 1f0c 91       		.byte	0x91
 8590 1f0d BE7F     		.sleb128 -66
 8591 1f0f 34       		.uleb128 0x34
 8592 1f10 01       		.byte	0x1
 8593 1f11 51       		.byte	0x51
 8594 1f12 02       		.byte	0x2
 8595 1f13 91       		.byte	0x91
 8596 1f14 44       		.sleb128 -60
 8597 1f15 00       		.byte	0
 8598 1f16 00       		.byte	0
 8599 1f17 00       		.byte	0
 8600 1f18 33       		.uleb128 0x33
 8601 1f19 6E000000 		.4byte	.LVL254
 8602 1f1d 302E0000 		.4byte	0x2e30
 8603 1f21 3D1F0000 		.4byte	0x1f3d
 8604 1f25 34       		.uleb128 0x34
 8605 1f26 01       		.byte	0x1
 8606 1f27 52       		.byte	0x52
 8607 1f28 02       		.byte	0x2
 8608 1f29 7B       		.byte	0x7b
 8609 1f2a 00       		.sleb128 0
 8610 1f2b 34       		.uleb128 0x34
 8611 1f2c 01       		.byte	0x1
 8612 1f2d 51       		.byte	0x51
 8613 1f2e 07       		.byte	0x7
 8614 1f2f 91       		.byte	0x91
 8615 1f30 AC7F     		.sleb128 -84
 8616 1f32 06       		.byte	0x6
 8617 1f33 75       		.byte	0x75
 8618 1f34 00       		.sleb128 0
 8619 1f35 22       		.byte	0x22
 8620 1f36 34       		.uleb128 0x34
 8621 1f37 01       		.byte	0x1
 8622 1f38 50       		.byte	0x50
 8623 1f39 02       		.byte	0x2
 8624 1f3a 79       		.byte	0x79
 8625 1f3b 00       		.sleb128 0
 8626 1f3c 00       		.byte	0
 8627 1f3d 33       		.uleb128 0x33
 8628 1f3e F0000000 		.4byte	.LVL262
 8629 1f42 572E0000 		.4byte	0x2e57
ARM GAS  C:\Users\jenny\AppData\Local\Temp\ccLg5IEe.s 			page 153


 8630 1f46 511F0000 		.4byte	0x1f51
 8631 1f4a 34       		.uleb128 0x34
 8632 1f4b 01       		.byte	0x1
 8633 1f4c 51       		.byte	0x51
 8634 1f4d 02       		.byte	0x2
 8635 1f4e 75       		.byte	0x75
 8636 1f4f 00       		.sleb128 0
 8637 1f50 00       		.byte	0
 8638 1f51 26       		.uleb128 0x26
 8639 1f52 1C010000 		.4byte	.LVL267
 8640 1f56 C52D0000 		.4byte	0x2dc5
 8641 1f5a 33       		.uleb128 0x33
 8642 1f5b 52010000 		.4byte	.LVL270
 8643 1f5f 702E0000 		.4byte	0x2e70
 8644 1f63 6E1F0000 		.4byte	0x1f6e
 8645 1f67 34       		.uleb128 0x34
 8646 1f68 01       		.byte	0x1
 8647 1f69 51       		.byte	0x51
 8648 1f6a 02       		.byte	0x2
 8649 1f6b 91       		.byte	0x91
 8650 1f6c 40       		.sleb128 -64
 8651 1f6d 00       		.byte	0
 8652 1f6e 26       		.uleb128 0x26
 8653 1f6f A2010000 		.4byte	.LVL279
 8654 1f73 BD2C0000 		.4byte	0x2cbd
 8655 1f77 26       		.uleb128 0x26
 8656 1f78 CE010000 		.4byte	.LVL286
 8657 1f7c 932E0000 		.4byte	0x2e93
 8658 1f80 26       		.uleb128 0x26
 8659 1f81 DE010000 		.4byte	.LVL288
 8660 1f85 D92D0000 		.4byte	0x2dd9
 8661 1f89 26       		.uleb128 0x26
 8662 1f8a F2010000 		.4byte	.LVL292
 8663 1f8e BD2C0000 		.4byte	0x2cbd
 8664 1f92 00       		.byte	0
 8665 1f93 3B       		.uleb128 0x3b
 8666 1f94 01       		.byte	0x1
 8667 1f95 A00A0000 		.4byte	.LASF286
 8668 1f99 01       		.byte	0x1
 8669 1f9a E602     		.2byte	0x2e6
 8670 1f9c 01       		.byte	0x1
 8671 1f9d 29000000 		.4byte	0x29
 8672 1fa1 00000000 		.4byte	.LFB18
 8673 1fa5 12000000 		.4byte	.LFE18
 8674 1fa9 9F130000 		.4byte	.LLST105
 8675 1fad 01       		.byte	0x1
 8676 1fae 11200000 		.4byte	0x2011
 8677 1fb2 24       		.uleb128 0x24
 8678 1fb3 7300     		.ascii	"s\000"
 8679 1fb5 01       		.byte	0x1
 8680 1fb6 E602     		.2byte	0x2e6
 8681 1fb8 29000000 		.4byte	0x29
 8682 1fbc CB130000 		.4byte	.LLST106
 8683 1fc0 24       		.uleb128 0x24
 8684 1fc1 6D656D00 		.ascii	"mem\000"
 8685 1fc5 01       		.byte	0x1
 8686 1fc6 E602     		.2byte	0x2e6
ARM GAS  C:\Users\jenny\AppData\Local\Temp\ccLg5IEe.s 			page 154


 8687 1fc8 B9020000 		.4byte	0x2b9
 8688 1fcc EC130000 		.4byte	.LLST107
 8689 1fd0 24       		.uleb128 0x24
 8690 1fd1 6C656E00 		.ascii	"len\000"
 8691 1fd5 01       		.byte	0x1
 8692 1fd6 E602     		.2byte	0x2e6
 8693 1fd8 30000000 		.4byte	0x30
 8694 1fdc 0D140000 		.4byte	.LLST108
 8695 1fe0 35       		.uleb128 0x35
 8696 1fe1 0E000000 		.4byte	.LVL298
 8697 1fe5 671D0000 		.4byte	0x1d67
 8698 1fe9 34       		.uleb128 0x34
 8699 1fea 01       		.byte	0x1
 8700 1feb 53       		.byte	0x53
 8701 1fec 01       		.byte	0x1
 8702 1fed 30       		.byte	0x30
 8703 1fee 34       		.uleb128 0x34
 8704 1fef 01       		.byte	0x1
 8705 1ff0 52       		.byte	0x52
 8706 1ff1 03       		.byte	0x3
 8707 1ff2 F3       		.byte	0xf3
 8708 1ff3 01       		.uleb128 0x1
 8709 1ff4 52       		.byte	0x52
 8710 1ff5 34       		.uleb128 0x34
 8711 1ff6 01       		.byte	0x1
 8712 1ff7 51       		.byte	0x51
 8713 1ff8 03       		.byte	0x3
 8714 1ff9 F3       		.byte	0xf3
 8715 1ffa 01       		.uleb128 0x1
 8716 1ffb 51       		.byte	0x51
 8717 1ffc 34       		.uleb128 0x34
 8718 1ffd 01       		.byte	0x1
 8719 1ffe 50       		.byte	0x50
 8720 1fff 03       		.byte	0x3
 8721 2000 F3       		.byte	0xf3
 8722 2001 01       		.uleb128 0x1
 8723 2002 50       		.byte	0x50
 8724 2003 34       		.uleb128 0x34
 8725 2004 02       		.byte	0x2
 8726 2005 7D       		.byte	0x7d
 8727 2006 04       		.sleb128 4
 8728 2007 01       		.byte	0x1
 8729 2008 30       		.byte	0x30
 8730 2009 34       		.uleb128 0x34
 8731 200a 02       		.byte	0x2
 8732 200b 7D       		.byte	0x7d
 8733 200c 00       		.sleb128 0
 8734 200d 01       		.byte	0x1
 8735 200e 30       		.byte	0x30
 8736 200f 00       		.byte	0
 8737 2010 00       		.byte	0
 8738 2011 3B       		.uleb128 0x3b
 8739 2012 01       		.byte	0x1
 8740 2013 BB0B0000 		.4byte	.LASF287
 8741 2017 01       		.byte	0x1
 8742 2018 EC02     		.2byte	0x2ec
 8743 201a 01       		.byte	0x1
ARM GAS  C:\Users\jenny\AppData\Local\Temp\ccLg5IEe.s 			page 155


 8744 201b 29000000 		.4byte	0x29
 8745 201f 00000000 		.4byte	.LFB19
 8746 2023 12000000 		.4byte	.LFE19
 8747 2027 2E140000 		.4byte	.LLST109
 8748 202b 01       		.byte	0x1
 8749 202c A3200000 		.4byte	0x20a3
 8750 2030 24       		.uleb128 0x24
 8751 2031 7300     		.ascii	"s\000"
 8752 2033 01       		.byte	0x1
 8753 2034 EC02     		.2byte	0x2ec
 8754 2036 29000000 		.4byte	0x29
 8755 203a 5A140000 		.4byte	.LLST110
 8756 203e 24       		.uleb128 0x24
 8757 203f 6D656D00 		.ascii	"mem\000"
 8758 2043 01       		.byte	0x1
 8759 2044 EC02     		.2byte	0x2ec
 8760 2046 B9020000 		.4byte	0x2b9
 8761 204a 7B140000 		.4byte	.LLST111
 8762 204e 24       		.uleb128 0x24
 8763 204f 6C656E00 		.ascii	"len\000"
 8764 2053 01       		.byte	0x1
 8765 2054 EC02     		.2byte	0x2ec
 8766 2056 30000000 		.4byte	0x30
 8767 205a 9C140000 		.4byte	.LLST112
 8768 205e 29       		.uleb128 0x29
 8769 205f 08040000 		.4byte	.LASF104
 8770 2063 01       		.byte	0x1
 8771 2064 EC02     		.2byte	0x2ec
 8772 2066 29000000 		.4byte	0x29
 8773 206a BD140000 		.4byte	.LLST113
 8774 206e 35       		.uleb128 0x35
 8775 206f 0E000000 		.4byte	.LVL300
 8776 2073 671D0000 		.4byte	0x1d67
 8777 2077 34       		.uleb128 0x34
 8778 2078 01       		.byte	0x1
 8779 2079 53       		.byte	0x53
 8780 207a 03       		.byte	0x3
 8781 207b F3       		.byte	0xf3
 8782 207c 01       		.uleb128 0x1
 8783 207d 53       		.byte	0x53
 8784 207e 34       		.uleb128 0x34
 8785 207f 01       		.byte	0x1
 8786 2080 52       		.byte	0x52
 8787 2081 03       		.byte	0x3
 8788 2082 F3       		.byte	0xf3
 8789 2083 01       		.uleb128 0x1
 8790 2084 52       		.byte	0x52
 8791 2085 34       		.uleb128 0x34
 8792 2086 01       		.byte	0x1
 8793 2087 51       		.byte	0x51
 8794 2088 03       		.byte	0x3
 8795 2089 F3       		.byte	0xf3
 8796 208a 01       		.uleb128 0x1
 8797 208b 51       		.byte	0x51
 8798 208c 34       		.uleb128 0x34
 8799 208d 01       		.byte	0x1
 8800 208e 50       		.byte	0x50
ARM GAS  C:\Users\jenny\AppData\Local\Temp\ccLg5IEe.s 			page 156


 8801 208f 03       		.byte	0x3
 8802 2090 F3       		.byte	0xf3
 8803 2091 01       		.uleb128 0x1
 8804 2092 50       		.byte	0x50
 8805 2093 34       		.uleb128 0x34
 8806 2094 02       		.byte	0x2
 8807 2095 7D       		.byte	0x7d
 8808 2096 04       		.sleb128 4
 8809 2097 02       		.byte	0x2
 8810 2098 74       		.byte	0x74
 8811 2099 00       		.sleb128 0
 8812 209a 34       		.uleb128 0x34
 8813 209b 02       		.byte	0x2
 8814 209c 7D       		.byte	0x7d
 8815 209d 00       		.sleb128 0
 8816 209e 02       		.byte	0x2
 8817 209f 74       		.byte	0x74
 8818 20a0 00       		.sleb128 0
 8819 20a1 00       		.byte	0
 8820 20a2 00       		.byte	0
 8821 20a3 3B       		.uleb128 0x3b
 8822 20a4 01       		.byte	0x1
 8823 20a5 D00B0000 		.4byte	.LASF288
 8824 20a9 01       		.byte	0x1
 8825 20aa 1603     		.2byte	0x316
 8826 20ac 01       		.byte	0x1
 8827 20ad 29000000 		.4byte	0x29
 8828 20b1 00000000 		.4byte	.LFB21
 8829 20b5 D8000000 		.4byte	.LFE21
 8830 20b9 DE140000 		.4byte	.LLST114
 8831 20bd 01       		.byte	0x1
 8832 20be 14220000 		.4byte	0x2214
 8833 20c2 24       		.uleb128 0x24
 8834 20c3 7300     		.ascii	"s\000"
 8835 20c5 01       		.byte	0x1
 8836 20c6 1603     		.2byte	0x316
 8837 20c8 29000000 		.4byte	0x29
 8838 20cc 0A150000 		.4byte	.LLST115
 8839 20d0 29       		.uleb128 0x29
 8840 20d1 C50E0000 		.4byte	.LASF243
 8841 20d5 01       		.byte	0x1
 8842 20d6 1603     		.2byte	0x316
 8843 20d8 18110000 		.4byte	0x1118
 8844 20dc 5D150000 		.4byte	.LLST116
 8845 20e0 29       		.uleb128 0x29
 8846 20e1 C0090000 		.4byte	.LASF289
 8847 20e5 01       		.byte	0x1
 8848 20e6 1603     		.2byte	0x316
 8849 20e8 30000000 		.4byte	0x30
 8850 20ec A7150000 		.4byte	.LLST117
 8851 20f0 29       		.uleb128 0x29
 8852 20f1 08040000 		.4byte	.LASF104
 8853 20f5 01       		.byte	0x1
 8854 20f6 1603     		.2byte	0x316
 8855 20f8 29000000 		.4byte	0x29
 8856 20fc F1150000 		.4byte	.LLST118
 8857 2100 40       		.uleb128 0x40
ARM GAS  C:\Users\jenny\AppData\Local\Temp\ccLg5IEe.s 			page 157


 8858 2101 746F00   		.ascii	"to\000"
 8859 2104 01       		.byte	0x1
 8860 2105 1703     		.2byte	0x317
 8861 2107 9E1A0000 		.4byte	0x1a9e
 8862 210b 02       		.byte	0x2
 8863 210c 91       		.byte	0x91
 8864 210d 00       		.sleb128 0
 8865 210e 2A       		.uleb128 0x2a
 8866 210f E30E0000 		.4byte	.LASF290
 8867 2113 01       		.byte	0x1
 8868 2114 1703     		.2byte	0x317
 8869 2116 DE060000 		.4byte	0x6de
 8870 211a 02       		.byte	0x2
 8871 211b 91       		.byte	0x91
 8872 211c 04       		.sleb128 4
 8873 211d 2C       		.uleb128 0x2c
 8874 211e 4B080000 		.4byte	.LASF234
 8875 2122 01       		.byte	0x1
 8876 2123 1903     		.2byte	0x319
 8877 2125 08130000 		.4byte	0x1308
 8878 2129 01       		.byte	0x1
 8879 212a 59       		.byte	0x59
 8880 212b 2B       		.uleb128 0x2b
 8881 212c 65727200 		.ascii	"err\000"
 8882 2130 01       		.byte	0x1
 8883 2131 1A03     		.2byte	0x31a
 8884 2133 4E070000 		.4byte	0x74e
 8885 2137 44160000 		.4byte	.LLST119
 8886 213b 25       		.uleb128 0x25
 8887 213c 160B0000 		.4byte	.LASF291
 8888 2140 01       		.byte	0x1
 8889 2141 1B03     		.2byte	0x31b
 8890 2143 C7050000 		.4byte	0x5c7
 8891 2147 78160000 		.4byte	.LLST120
 8892 214b 25       		.uleb128 0x25
 8893 214c 1C090000 		.4byte	.LASF292
 8894 2150 01       		.byte	0x1
 8895 2151 1C03     		.2byte	0x31c
 8896 2153 A91A0000 		.4byte	0x1aa9
 8897 2157 96160000 		.4byte	.LLST121
 8898 215b 25       		.uleb128 0x25
 8899 215c DC090000 		.4byte	.LASF148
 8900 2160 01       		.byte	0x1
 8901 2161 1D03     		.2byte	0x31d
 8902 2163 C7050000 		.4byte	0x5c7
 8903 2167 B5160000 		.4byte	.LLST122
 8904 216b 30       		.uleb128 0x30
 8905 216c 62756600 		.ascii	"buf\000"
 8906 2170 01       		.byte	0x1
 8907 2171 1F03     		.2byte	0x31f
 8908 2173 CE070000 		.4byte	0x7ce
 8909 2177 02       		.byte	0x2
 8910 2178 91       		.byte	0x91
 8911 2179 50       		.sleb128 -48
 8912 217a 31       		.uleb128 0x31
 8913 217b 2F130000 		.4byte	0x132f
 8914 217f 06000000 		.4byte	.LBB114
ARM GAS  C:\Users\jenny\AppData\Local\Temp\ccLg5IEe.s 			page 158


 8915 2183 88020000 		.4byte	.Ldebug_ranges0+0x288
 8916 2187 01       		.byte	0x1
 8917 2188 2203     		.2byte	0x322
 8918 218a A7210000 		.4byte	0x21a7
 8919 218e 2F       		.uleb128 0x2f
 8920 218f 40130000 		.4byte	0x1340
 8921 2193 D4160000 		.4byte	.LLST123
 8922 2197 2D       		.uleb128 0x2d
 8923 2198 A0020000 		.4byte	.Ldebug_ranges0+0x2a0
 8924 219c 32       		.uleb128 0x32
 8925 219d 49130000 		.4byte	0x1349
 8926 21a1 27170000 		.4byte	.LLST124
 8927 21a5 00       		.byte	0
 8928 21a6 00       		.byte	0
 8929 21a7 26       		.uleb128 0x26
 8930 21a8 5A000000 		.4byte	.LVL307
 8931 21ac 8B2D0000 		.4byte	0x2d8b
 8932 21b0 33       		.uleb128 0x33
 8933 21b1 68000000 		.4byte	.LVL309
 8934 21b5 B62E0000 		.4byte	0x2eb6
 8935 21b9 D0210000 		.4byte	0x21d0
 8936 21bd 34       		.uleb128 0x34
 8937 21be 01       		.byte	0x1
 8938 21bf 52       		.byte	0x52
 8939 21c0 02       		.byte	0x2
 8940 21c1 76       		.byte	0x76
 8941 21c2 00       		.sleb128 0
 8942 21c3 34       		.uleb128 0x34
 8943 21c4 01       		.byte	0x1
 8944 21c5 51       		.byte	0x51
 8945 21c6 02       		.byte	0x2
 8946 21c7 78       		.byte	0x78
 8947 21c8 00       		.sleb128 0
 8948 21c9 34       		.uleb128 0x34
 8949 21ca 01       		.byte	0x1
 8950 21cb 50       		.byte	0x50
 8951 21cc 02       		.byte	0x2
 8952 21cd 7D       		.byte	0x7d
 8953 21ce 00       		.sleb128 0
 8954 21cf 00       		.byte	0
 8955 21d0 33       		.uleb128 0x33
 8956 21d1 74000000 		.4byte	.LVL311
 8957 21d5 D82E0000 		.4byte	0x2ed8
 8958 21d9 E4210000 		.4byte	0x21e4
 8959 21dd 34       		.uleb128 0x34
 8960 21de 01       		.byte	0x1
 8961 21df 50       		.byte	0x50
 8962 21e0 02       		.byte	0x2
 8963 21e1 7D       		.byte	0x7d
 8964 21e2 00       		.sleb128 0
 8965 21e3 00       		.byte	0
 8966 21e4 26       		.uleb128 0x26
 8967 21e5 92000000 		.4byte	.LVL313
 8968 21e9 BD2C0000 		.4byte	0x2cbd
 8969 21ed 26       		.uleb128 0x26
 8970 21ee A6000000 		.4byte	.LVL316
 8971 21f2 BD2C0000 		.4byte	0x2cbd
ARM GAS  C:\Users\jenny\AppData\Local\Temp\ccLg5IEe.s 			page 159


 8972 21f6 33       		.uleb128 0x33
 8973 21f7 C6000000 		.4byte	.LVL323
 8974 21fb EC2E0000 		.4byte	0x2eec
 8975 21ff 0A220000 		.4byte	0x220a
 8976 2203 34       		.uleb128 0x34
 8977 2204 01       		.byte	0x1
 8978 2205 51       		.byte	0x51
 8979 2206 02       		.byte	0x2
 8980 2207 7D       		.byte	0x7d
 8981 2208 00       		.sleb128 0
 8982 2209 00       		.byte	0
 8983 220a 26       		.uleb128 0x26
 8984 220b CE000000 		.4byte	.LVL326
 8985 220f 14220000 		.4byte	0x2214
 8986 2213 00       		.byte	0
 8987 2214 3B       		.uleb128 0x3b
 8988 2215 01       		.byte	0x1
 8989 2216 57030000 		.4byte	.LASF293
 8990 221a 01       		.byte	0x1
 8991 221b F202     		.2byte	0x2f2
 8992 221d 01       		.byte	0x1
 8993 221e 29000000 		.4byte	0x29
 8994 2222 00000000 		.4byte	.LFB20
 8995 2226 78000000 		.4byte	.LFE20
 8996 222a 45170000 		.4byte	.LLST125
 8997 222e 01       		.byte	0x1
 8998 222f 36230000 		.4byte	0x2336
 8999 2233 24       		.uleb128 0x24
 9000 2234 7300     		.ascii	"s\000"
 9001 2236 01       		.byte	0x1
 9002 2237 F202     		.2byte	0x2f2
 9003 2239 29000000 		.4byte	0x29
 9004 223d 71170000 		.4byte	.LLST126
 9005 2241 29       		.uleb128 0x29
 9006 2242 C50E0000 		.4byte	.LASF243
 9007 2246 01       		.byte	0x1
 9008 2247 F202     		.2byte	0x2f2
 9009 2249 18110000 		.4byte	0x1118
 9010 224d AB170000 		.4byte	.LLST127
 9011 2251 29       		.uleb128 0x29
 9012 2252 C0090000 		.4byte	.LASF289
 9013 2256 01       		.byte	0x1
 9014 2257 F202     		.2byte	0x2f2
 9015 2259 30000000 		.4byte	0x30
 9016 225d E5170000 		.4byte	.LLST128
 9017 2261 29       		.uleb128 0x29
 9018 2262 08040000 		.4byte	.LASF104
 9019 2266 01       		.byte	0x1
 9020 2267 F202     		.2byte	0x2f2
 9021 2269 29000000 		.4byte	0x29
 9022 226d 1F180000 		.4byte	.LLST129
 9023 2271 2C       		.uleb128 0x2c
 9024 2272 4B080000 		.4byte	.LASF234
 9025 2276 01       		.byte	0x1
 9026 2277 F402     		.2byte	0x2f4
 9027 2279 08130000 		.4byte	0x1308
 9028 227d 01       		.byte	0x1
ARM GAS  C:\Users\jenny\AppData\Local\Temp\ccLg5IEe.s 			page 160


 9029 227e 57       		.byte	0x57
 9030 227f 2B       		.uleb128 0x2b
 9031 2280 65727200 		.ascii	"err\000"
 9032 2284 01       		.byte	0x1
 9033 2285 F502     		.2byte	0x2f5
 9034 2287 4E070000 		.4byte	0x74e
 9035 228b 61180000 		.4byte	.LLST130
 9036 228f 25       		.uleb128 0x25
 9037 2290 75020000 		.4byte	.LASF294
 9038 2294 01       		.byte	0x1
 9039 2295 F602     		.2byte	0x2f6
 9040 2297 B1050000 		.4byte	0x5b1
 9041 229b 74180000 		.4byte	.LLST131
 9042 229f 25       		.uleb128 0x25
 9043 22a0 640D0000 		.4byte	.LASF295
 9044 22a4 01       		.byte	0x1
 9045 22a5 F702     		.2byte	0x2f7
 9046 22a7 30000000 		.4byte	0x30
 9047 22ab AB180000 		.4byte	.LLST132
 9048 22af 31       		.uleb128 0x31
 9049 22b0 2F130000 		.4byte	0x132f
 9050 22b4 02000000 		.4byte	.LBB118
 9051 22b8 B8020000 		.4byte	.Ldebug_ranges0+0x2b8
 9052 22bc 01       		.byte	0x1
 9053 22bd FC02     		.2byte	0x2fc
 9054 22bf DC220000 		.4byte	0x22dc
 9055 22c3 2F       		.uleb128 0x2f
 9056 22c4 40130000 		.4byte	0x1340
 9057 22c8 D7180000 		.4byte	.LLST133
 9058 22cc 2D       		.uleb128 0x2d
 9059 22cd D0020000 		.4byte	.Ldebug_ranges0+0x2d0
 9060 22d1 32       		.uleb128 0x32
 9061 22d2 49130000 		.4byte	0x1349
 9062 22d6 11190000 		.4byte	.LLST134
 9063 22da 00       		.byte	0
 9064 22db 00       		.byte	0
 9065 22dc 33       		.uleb128 0x33
 9066 22dd 46000000 		.4byte	.LVL335
 9067 22e1 092F0000 		.4byte	0x2f09
 9068 22e5 1D230000 		.4byte	0x231d
 9069 22e9 34       		.uleb128 0x34
 9070 22ea 01       		.byte	0x1
 9071 22eb 53       		.byte	0x53
 9072 22ec 14       		.byte	0x14
 9073 22ed 31       		.byte	0x31
 9074 22ee 33       		.byte	0x33
 9075 22ef F3       		.byte	0xf3
 9076 22f0 01       		.uleb128 0x1
 9077 22f1 53       		.byte	0x53
 9078 22f2 09       		.byte	0x9
 9079 22f3 FF       		.byte	0xff
 9080 22f4 24       		.byte	0x24
 9081 22f5 33       		.byte	0x33
 9082 22f6 25       		.byte	0x25
 9083 22f7 30       		.byte	0x30
 9084 22f8 29       		.byte	0x29
 9085 22f9 28       		.byte	0x28
ARM GAS  C:\Users\jenny\AppData\Local\Temp\ccLg5IEe.s 			page 161


 9086 22fa 0100     		.2byte	0x1
 9087 22fc 16       		.byte	0x16
 9088 22fd 13       		.byte	0x13
 9089 22fe 75       		.byte	0x75
 9090 22ff 00       		.sleb128 0
 9091 2300 21       		.byte	0x21
 9092 2301 34       		.uleb128 0x34
 9093 2302 01       		.byte	0x1
 9094 2303 52       		.byte	0x52
 9095 2304 03       		.byte	0x3
 9096 2305 F3       		.byte	0xf3
 9097 2306 01       		.uleb128 0x1
 9098 2307 52       		.byte	0x52
 9099 2308 34       		.uleb128 0x34
 9100 2309 01       		.byte	0x1
 9101 230a 51       		.byte	0x51
 9102 230b 03       		.byte	0x3
 9103 230c F3       		.byte	0xf3
 9104 230d 01       		.uleb128 0x1
 9105 230e 51       		.byte	0x51
 9106 230f 34       		.uleb128 0x34
 9107 2310 01       		.byte	0x1
 9108 2311 50       		.byte	0x50
 9109 2312 02       		.byte	0x2
 9110 2313 76       		.byte	0x76
 9111 2314 00       		.sleb128 0
 9112 2315 34       		.uleb128 0x34
 9113 2316 02       		.byte	0x2
 9114 2317 7D       		.byte	0x7d
 9115 2318 00       		.sleb128 0
 9116 2319 02       		.byte	0x2
 9117 231a 74       		.byte	0x74
 9118 231b 00       		.sleb128 0
 9119 231c 00       		.byte	0
 9120 231d 35       		.uleb128 0x35
 9121 231e 6E000000 		.4byte	.LVL340
 9122 2322 A3200000 		.4byte	0x20a3
 9123 2326 34       		.uleb128 0x34
 9124 2327 02       		.byte	0x2
 9125 2328 7D       		.byte	0x7d
 9126 2329 04       		.sleb128 4
 9127 232a 02       		.byte	0x2
 9128 232b 74       		.byte	0x74
 9129 232c 00       		.sleb128 0
 9130 232d 34       		.uleb128 0x34
 9131 232e 02       		.byte	0x2
 9132 232f 7D       		.byte	0x7d
 9133 2330 00       		.sleb128 0
 9134 2331 02       		.byte	0x2
 9135 2332 74       		.byte	0x74
 9136 2333 00       		.sleb128 0
 9137 2334 00       		.byte	0
 9138 2335 00       		.byte	0
 9139 2336 3B       		.uleb128 0x3b
 9140 2337 01       		.byte	0x1
 9141 2338 E4080000 		.4byte	.LASF296
 9142 233c 01       		.byte	0x1
ARM GAS  C:\Users\jenny\AppData\Local\Temp\ccLg5IEe.s 			page 162


 9143 233d B403     		.2byte	0x3b4
 9144 233f 01       		.byte	0x1
 9145 2340 29000000 		.4byte	0x29
 9146 2344 00000000 		.4byte	.LFB22
 9147 2348 78000000 		.4byte	.LFE22
 9148 234c 2F190000 		.4byte	.LLST135
 9149 2350 01       		.byte	0x1
 9150 2351 3A240000 		.4byte	0x243a
 9151 2355 29       		.uleb128 0x29
 9152 2356 B1020000 		.4byte	.LASF297
 9153 235a 01       		.byte	0x1
 9154 235b B403     		.2byte	0x3b4
 9155 235d 29000000 		.4byte	0x29
 9156 2361 4F190000 		.4byte	.LLST136
 9157 2365 29       		.uleb128 0x29
 9158 2366 27010000 		.4byte	.LASF103
 9159 236a 01       		.byte	0x1
 9160 236b B403     		.2byte	0x3b4
 9161 236d 29000000 		.4byte	0x29
 9162 2371 BB190000 		.4byte	.LLST137
 9163 2375 29       		.uleb128 0x29
 9164 2376 59070000 		.4byte	.LASF190
 9165 237a 01       		.byte	0x1
 9166 237b B403     		.2byte	0x3b4
 9167 237d 29000000 		.4byte	0x29
 9168 2381 271A0000 		.4byte	.LLST138
 9169 2385 25       		.uleb128 0x25
 9170 2386 8F010000 		.4byte	.LASF192
 9171 238a 01       		.byte	0x1
 9172 238b B603     		.2byte	0x3b6
 9173 238d E2080000 		.4byte	0x8e2
 9174 2391 931A0000 		.4byte	.LLST139
 9175 2395 2B       		.uleb128 0x2b
 9176 2396 6900     		.ascii	"i\000"
 9177 2398 01       		.byte	0x1
 9178 2399 B703     		.2byte	0x3b7
 9179 239b 29000000 		.4byte	0x29
 9180 239f C71A0000 		.4byte	.LLST140
 9181 23a3 33       		.uleb128 0x33
 9182 23a4 20000000 		.4byte	.LVL347
 9183 23a8 3B2F0000 		.4byte	0x2f3b
 9184 23ac C4230000 		.4byte	0x23c4
 9185 23b0 34       		.uleb128 0x34
 9186 23b1 01       		.byte	0x1
 9187 23b2 52       		.byte	0x52
 9188 23b3 05       		.byte	0x5
 9189 23b4 03       		.byte	0x3
 9190 23b5 00000000 		.4byte	event_callback
 9191 23b9 34       		.uleb128 0x34
 9192 23ba 01       		.byte	0x1
 9193 23bb 51       		.byte	0x51
 9194 23bc 01       		.byte	0x1
 9195 23bd 30       		.byte	0x30
 9196 23be 34       		.uleb128 0x34
 9197 23bf 01       		.byte	0x1
 9198 23c0 50       		.byte	0x50
 9199 23c1 01       		.byte	0x1
ARM GAS  C:\Users\jenny\AppData\Local\Temp\ccLg5IEe.s 			page 163


 9200 23c2 40       		.byte	0x40
 9201 23c3 00       		.byte	0
 9202 23c4 33       		.uleb128 0x33
 9203 23c5 36000000 		.4byte	.LVL349
 9204 23c9 55130000 		.4byte	0x1355
 9205 23cd DD230000 		.4byte	0x23dd
 9206 23d1 34       		.uleb128 0x34
 9207 23d2 01       		.byte	0x1
 9208 23d3 51       		.byte	0x51
 9209 23d4 01       		.byte	0x1
 9210 23d5 30       		.byte	0x30
 9211 23d6 34       		.uleb128 0x34
 9212 23d7 01       		.byte	0x1
 9213 23d8 50       		.byte	0x50
 9214 23d9 02       		.byte	0x2
 9215 23da 75       		.byte	0x75
 9216 23db 00       		.sleb128 0
 9217 23dc 00       		.byte	0
 9218 23dd 33       		.uleb128 0x33
 9219 23de 46000000 		.4byte	.LVL352
 9220 23e2 732D0000 		.4byte	0x2d73
 9221 23e6 F1230000 		.4byte	0x23f1
 9222 23ea 34       		.uleb128 0x34
 9223 23eb 01       		.byte	0x1
 9224 23ec 50       		.byte	0x50
 9225 23ed 02       		.byte	0x2
 9226 23ee 75       		.byte	0x75
 9227 23ef 00       		.sleb128 0
 9228 23f0 00       		.byte	0
 9229 23f1 33       		.uleb128 0x33
 9230 23f2 52000000 		.4byte	.LVL357
 9231 23f6 3B2F0000 		.4byte	0x2f3b
 9232 23fa 0E240000 		.4byte	0x240e
 9233 23fe 34       		.uleb128 0x34
 9234 23ff 01       		.byte	0x1
 9235 2400 52       		.byte	0x52
 9236 2401 05       		.byte	0x5
 9237 2402 03       		.byte	0x3
 9238 2403 00000000 		.4byte	event_callback
 9239 2407 34       		.uleb128 0x34
 9240 2408 01       		.byte	0x1
 9241 2409 50       		.byte	0x50
 9242 240a 02       		.byte	0x2
 9243 240b 08       		.byte	0x8
 9244 240c 40       		.byte	0x40
 9245 240d 00       		.byte	0
 9246 240e 35       		.uleb128 0x35
 9247 240f 6A000000 		.4byte	.LVL363
 9248 2413 3B2F0000 		.4byte	0x2f3b
 9249 2417 34       		.uleb128 0x34
 9250 2418 01       		.byte	0x1
 9251 2419 52       		.byte	0x52
 9252 241a 05       		.byte	0x5
 9253 241b 03       		.byte	0x3
 9254 241c 00000000 		.4byte	event_callback
 9255 2420 34       		.uleb128 0x34
 9256 2421 01       		.byte	0x1
ARM GAS  C:\Users\jenny\AppData\Local\Temp\ccLg5IEe.s 			page 164


 9257 2422 51       		.byte	0x51
 9258 2423 01       		.byte	0x1
 9259 2424 30       		.byte	0x30
 9260 2425 34       		.uleb128 0x34
 9261 2426 01       		.byte	0x1
 9262 2427 50       		.byte	0x50
 9263 2428 0F       		.byte	0xf
 9264 2429 08       		.byte	0x8
 9265 242a 20       		.byte	0x20
 9266 242b 08       		.byte	0x8
 9267 242c 21       		.byte	0x21
 9268 242d F3       		.byte	0xf3
 9269 242e 01       		.uleb128 0x1
 9270 242f 52       		.byte	0x52
 9271 2430 08       		.byte	0x8
 9272 2431 88       		.byte	0x88
 9273 2432 2E       		.byte	0x2e
 9274 2433 28       		.byte	0x28
 9275 2434 0100     		.2byte	0x1
 9276 2436 16       		.byte	0x16
 9277 2437 13       		.byte	0x13
 9278 2438 00       		.byte	0
 9279 2439 00       		.byte	0
 9280 243a 41       		.uleb128 0x41
 9281 243b 01       		.byte	0x1
 9282 243c C50B0000 		.4byte	.LASF298
 9283 2440 01       		.byte	0x1
 9284 2441 EC03     		.2byte	0x3ec
 9285 2443 01       		.byte	0x1
 9286 2444 29000000 		.4byte	0x29
 9287 2448 00000000 		.4byte	.LFB23
 9288 244c 06000000 		.4byte	.LFE23
 9289 2450 02       		.byte	0x2
 9290 2451 7D       		.byte	0x7d
 9291 2452 00       		.sleb128 0
 9292 2453 01       		.byte	0x1
 9293 2454 AC240000 		.4byte	0x24ac
 9294 2458 24       		.uleb128 0x24
 9295 2459 7300     		.ascii	"s\000"
 9296 245b 01       		.byte	0x1
 9297 245c EC03     		.2byte	0x3ec
 9298 245e 29000000 		.4byte	0x29
 9299 2462 E51A0000 		.4byte	.LLST141
 9300 2466 29       		.uleb128 0x29
 9301 2467 C50E0000 		.4byte	.LASF243
 9302 246b 01       		.byte	0x1
 9303 246c EC03     		.2byte	0x3ec
 9304 246e 18110000 		.4byte	0x1118
 9305 2472 061B0000 		.4byte	.LLST142
 9306 2476 29       		.uleb128 0x29
 9307 2477 C0090000 		.4byte	.LASF289
 9308 247b 01       		.byte	0x1
 9309 247c EC03     		.2byte	0x3ec
 9310 247e 30000000 		.4byte	0x30
 9311 2482 271B0000 		.4byte	.LLST143
 9312 2486 42       		.uleb128 0x42
 9313 2487 06000000 		.4byte	.LVL366
ARM GAS  C:\Users\jenny\AppData\Local\Temp\ccLg5IEe.s 			page 165


 9314 248b 01       		.byte	0x1
 9315 248c 14220000 		.4byte	0x2214
 9316 2490 34       		.uleb128 0x34
 9317 2491 01       		.byte	0x1
 9318 2492 53       		.byte	0x53
 9319 2493 01       		.byte	0x1
 9320 2494 30       		.byte	0x30
 9321 2495 34       		.uleb128 0x34
 9322 2496 01       		.byte	0x1
 9323 2497 52       		.byte	0x52
 9324 2498 03       		.byte	0x3
 9325 2499 F3       		.byte	0xf3
 9326 249a 01       		.uleb128 0x1
 9327 249b 52       		.byte	0x52
 9328 249c 34       		.uleb128 0x34
 9329 249d 01       		.byte	0x1
 9330 249e 51       		.byte	0x51
 9331 249f 03       		.byte	0x3
 9332 24a0 F3       		.byte	0xf3
 9333 24a1 01       		.uleb128 0x1
 9334 24a2 51       		.byte	0x51
 9335 24a3 34       		.uleb128 0x34
 9336 24a4 01       		.byte	0x1
 9337 24a5 50       		.byte	0x50
 9338 24a6 03       		.byte	0x3
 9339 24a7 F3       		.byte	0xf3
 9340 24a8 01       		.uleb128 0x1
 9341 24a9 50       		.byte	0x50
 9342 24aa 00       		.byte	0
 9343 24ab 00       		.byte	0
 9344 24ac 3B       		.uleb128 0x3b
 9345 24ad 01       		.byte	0x1
 9346 24ae 8F060000 		.4byte	.LASF299
 9347 24b2 01       		.byte	0x1
 9348 24b3 4004     		.2byte	0x440
 9349 24b5 01       		.byte	0x1
 9350 24b6 29000000 		.4byte	0x29
 9351 24ba 00000000 		.4byte	.LFB25
 9352 24be 30050000 		.4byte	.LFE25
 9353 24c2 481B0000 		.4byte	.LLST144
 9354 24c6 01       		.byte	0x1
 9355 24c7 95270000 		.4byte	0x2795
 9356 24cb 29       		.uleb128 0x29
 9357 24cc B8090000 		.4byte	.LASF248
 9358 24d0 01       		.byte	0x1
 9359 24d1 4004     		.2byte	0x440
 9360 24d3 29000000 		.4byte	0x29
 9361 24d7 751B0000 		.4byte	.LLST145
 9362 24db 29       		.uleb128 0x29
 9363 24dc 4F040000 		.4byte	.LASF229
 9364 24e0 01       		.byte	0x1
 9365 24e1 4004     		.2byte	0x440
 9366 24e3 A1120000 		.4byte	0x12a1
 9367 24e7 931B0000 		.4byte	.LLST146
 9368 24eb 29       		.uleb128 0x29
 9369 24ec 860B0000 		.4byte	.LASF230
 9370 24f0 01       		.byte	0x1
ARM GAS  C:\Users\jenny\AppData\Local\Temp\ccLg5IEe.s 			page 166


 9371 24f1 4004     		.2byte	0x440
 9372 24f3 A1120000 		.4byte	0x12a1
 9373 24f7 B11B0000 		.4byte	.LLST147
 9374 24fb 29       		.uleb128 0x29
 9375 24fc 7B010000 		.4byte	.LASF231
 9376 2500 01       		.byte	0x1
 9377 2501 4004     		.2byte	0x440
 9378 2503 A1120000 		.4byte	0x12a1
 9379 2507 CF1B0000 		.4byte	.LLST148
 9380 250b 2A       		.uleb128 0x2a
 9381 250c E8070000 		.4byte	.LASF300
 9382 2510 01       		.byte	0x1
 9383 2511 4104     		.2byte	0x441
 9384 2513 95270000 		.4byte	0x2795
 9385 2517 02       		.byte	0x2
 9386 2518 91       		.byte	0x91
 9387 2519 00       		.sleb128 0
 9388 251a 25       		.uleb128 0x25
 9389 251b CC010000 		.4byte	.LASF301
 9390 251f 01       		.byte	0x1
 9391 2520 4304     		.2byte	0x443
 9392 2522 DD050000 		.4byte	0x5dd
 9393 2526 ED1B0000 		.4byte	.LLST149
 9394 252a 25       		.uleb128 0x25
 9395 252b A40E0000 		.4byte	.LASF255
 9396 252f 01       		.byte	0x1
 9397 2530 4404     		.2byte	0x444
 9398 2532 29000000 		.4byte	0x29
 9399 2536 A21C0000 		.4byte	.LLST150
 9400 253a 2C       		.uleb128 0x2c
 9401 253b 9B0B0000 		.4byte	.LASF256
 9402 253f 01       		.byte	0x1
 9403 2540 4504     		.2byte	0x445
 9404 2542 16070000 		.4byte	0x716
 9405 2546 03       		.byte	0x3
 9406 2547 91       		.byte	0x91
 9407 2548 B07F     		.sleb128 -80
 9408 254a 2C       		.uleb128 0x2c
 9409 254b 97090000 		.4byte	.LASF257
 9410 254f 01       		.byte	0x1
 9411 2550 4504     		.2byte	0x445
 9412 2552 16070000 		.4byte	0x716
 9413 2556 03       		.byte	0x3
 9414 2557 91       		.byte	0x91
 9415 2558 B47F     		.sleb128 -76
 9416 255a 2C       		.uleb128 0x2c
 9417 255b 00000000 		.4byte	.LASF258
 9418 255f 01       		.byte	0x1
 9419 2560 4504     		.2byte	0x445
 9420 2562 16070000 		.4byte	0x716
 9421 2566 03       		.byte	0x3
 9422 2567 91       		.byte	0x91
 9423 2568 B87F     		.sleb128 -72
 9424 256a 25       		.uleb128 0x25
 9425 256b BE0A0000 		.4byte	.LASF302
 9426 256f 01       		.byte	0x1
 9427 2570 4604     		.2byte	0x446
ARM GAS  C:\Users\jenny\AppData\Local\Temp\ccLg5IEe.s 			page 167


 9428 2572 DD050000 		.4byte	0x5dd
 9429 2576 231D0000 		.4byte	.LLST151
 9430 257a 2C       		.uleb128 0x2c
 9431 257b 810A0000 		.4byte	.LASF303
 9432 257f 01       		.byte	0x1
 9433 2580 4704     		.2byte	0x447
 9434 2582 2C120000 		.4byte	0x122c
 9435 2586 03       		.byte	0x3
 9436 2587 91       		.byte	0x91
 9437 2588 BC7F     		.sleb128 -68
 9438 258a 2B       		.uleb128 0x2b
 9439 258b 65727200 		.ascii	"err\000"
 9440 258f 01       		.byte	0x1
 9441 2590 4804     		.2byte	0x448
 9442 2592 4E070000 		.4byte	0x74e
 9443 2596 361D0000 		.4byte	.LLST152
 9444 259a 2B       		.uleb128 0x2b
 9445 259b 6900     		.ascii	"i\000"
 9446 259d 01       		.byte	0x1
 9447 259e 4904     		.2byte	0x449
 9448 25a0 29000000 		.4byte	0x29
 9449 25a4 541D0000 		.4byte	.LLST153
 9450 25a8 43       		.uleb128 0x43
 9451 25a9 58020000 		.4byte	.LASF352
 9452 25ad 01       		.byte	0x1
 9453 25ae CA04     		.2byte	0x4ca
 9454 25b0 94020000 		.4byte	.L440
 9455 25b4 39       		.uleb128 0x39
 9456 25b5 E8020000 		.4byte	.Ldebug_ranges0+0x2e8
 9457 25b9 25260000 		.4byte	0x2625
 9458 25bd 2C       		.uleb128 0x2c
 9459 25be 4B080000 		.4byte	.LASF234
 9460 25c2 01       		.byte	0x1
 9461 25c3 8404     		.2byte	0x484
 9462 25c5 08130000 		.4byte	0x1308
 9463 25c9 01       		.byte	0x1
 9464 25ca 53       		.byte	0x53
 9465 25cb 31       		.uleb128 0x31
 9466 25cc 14130000 		.4byte	0x1314
 9467 25d0 90000000 		.4byte	.LBB123
 9468 25d4 38030000 		.4byte	.Ldebug_ranges0+0x338
 9469 25d8 01       		.byte	0x1
 9470 25d9 8404     		.2byte	0x484
 9471 25db E5250000 		.4byte	0x25e5
 9472 25df 44       		.uleb128 0x44
 9473 25e0 25130000 		.4byte	0x1325
 9474 25e4 00       		.byte	0
 9475 25e5 26       		.uleb128 0x26
 9476 25e6 06010000 		.4byte	.LVL375
 9477 25ea BD2C0000 		.4byte	0x2cbd
 9478 25ee 26       		.uleb128 0x26
 9479 25ef 42010000 		.4byte	.LVL376
 9480 25f3 BD2C0000 		.4byte	0x2cbd
 9481 25f7 26       		.uleb128 0x26
 9482 25f8 7E010000 		.4byte	.LVL377
 9483 25fc BD2C0000 		.4byte	0x2cbd
 9484 2600 26       		.uleb128 0x26
ARM GAS  C:\Users\jenny\AppData\Local\Temp\ccLg5IEe.s 			page 168


 9485 2601 C8040000 		.4byte	.LVL402
 9486 2605 BD2C0000 		.4byte	0x2cbd
 9487 2609 26       		.uleb128 0x26
 9488 260a D2040000 		.4byte	.LVL404
 9489 260e BD2C0000 		.4byte	0x2cbd
 9490 2612 26       		.uleb128 0x26
 9491 2613 F8040000 		.4byte	.LVL409
 9492 2617 BD2C0000 		.4byte	0x2cbd
 9493 261b 26       		.uleb128 0x26
 9494 261c 18050000 		.4byte	.LVL415
 9495 2620 BD2C0000 		.4byte	0x2cbd
 9496 2624 00       		.byte	0
 9497 2625 39       		.uleb128 0x39
 9498 2626 70030000 		.4byte	.Ldebug_ranges0+0x370
 9499 262a 8D260000 		.4byte	0x268d
 9500 262e 2C       		.uleb128 0x2c
 9501 262f 4B080000 		.4byte	.LASF234
 9502 2633 01       		.byte	0x1
 9503 2634 A404     		.2byte	0x4a4
 9504 2636 08130000 		.4byte	0x1308
 9505 263a 01       		.byte	0x1
 9506 263b 51       		.byte	0x51
 9507 263c 31       		.uleb128 0x31
 9508 263d 14130000 		.4byte	0x1314
 9509 2641 C2010000 		.4byte	.LBB140
 9510 2645 B0030000 		.4byte	.Ldebug_ranges0+0x3b0
 9511 2649 01       		.byte	0x1
 9512 264a A404     		.2byte	0x4a4
 9513 264c 56260000 		.4byte	0x2656
 9514 2650 44       		.uleb128 0x44
 9515 2651 25130000 		.4byte	0x1325
 9516 2655 00       		.byte	0
 9517 2656 26       		.uleb128 0x26
 9518 2657 A0040000 		.4byte	.LVL397
 9519 265b BD2C0000 		.4byte	0x2cbd
 9520 265f 26       		.uleb128 0x26
 9521 2660 AC040000 		.4byte	.LVL398
 9522 2664 BD2C0000 		.4byte	0x2cbd
 9523 2668 26       		.uleb128 0x26
 9524 2669 BA040000 		.4byte	.LVL400
 9525 266d BD2C0000 		.4byte	0x2cbd
 9526 2671 26       		.uleb128 0x26
 9527 2672 DC040000 		.4byte	.LVL406
 9528 2676 BD2C0000 		.4byte	0x2cbd
 9529 267a 26       		.uleb128 0x26
 9530 267b 00050000 		.4byte	.LVL411
 9531 267f BD2C0000 		.4byte	0x2cbd
 9532 2683 26       		.uleb128 0x26
 9533 2684 0C050000 		.4byte	.LVL413
 9534 2688 BD2C0000 		.4byte	0x2cbd
 9535 268c 00       		.byte	0
 9536 268d 33       		.uleb128 0x33
 9537 268e 1E000000 		.4byte	.LVL368
 9538 2692 D2140000 		.4byte	0x14d2
 9539 2696 C9260000 		.4byte	0x26c9
 9540 269a 34       		.uleb128 0x34
 9541 269b 01       		.byte	0x1
ARM GAS  C:\Users\jenny\AppData\Local\Temp\ccLg5IEe.s 			page 169


 9542 269c 53       		.byte	0x53
 9543 269d 02       		.byte	0x2
 9544 269e 78       		.byte	0x78
 9545 269f 00       		.sleb128 0
 9546 26a0 34       		.uleb128 0x34
 9547 26a1 01       		.byte	0x1
 9548 26a2 52       		.byte	0x52
 9549 26a3 02       		.byte	0x2
 9550 26a4 75       		.byte	0x75
 9551 26a5 00       		.sleb128 0
 9552 26a6 34       		.uleb128 0x34
 9553 26a7 01       		.byte	0x1
 9554 26a8 51       		.byte	0x51
 9555 26a9 02       		.byte	0x2
 9556 26aa 74       		.byte	0x74
 9557 26ab 00       		.sleb128 0
 9558 26ac 34       		.uleb128 0x34
 9559 26ad 01       		.byte	0x1
 9560 26ae 50       		.byte	0x50
 9561 26af 02       		.byte	0x2
 9562 26b0 7A       		.byte	0x7a
 9563 26b1 00       		.sleb128 0
 9564 26b2 34       		.uleb128 0x34
 9565 26b3 02       		.byte	0x2
 9566 26b4 7D       		.byte	0x7d
 9567 26b5 08       		.sleb128 8
 9568 26b6 02       		.byte	0x2
 9569 26b7 77       		.byte	0x77
 9570 26b8 00       		.sleb128 0
 9571 26b9 34       		.uleb128 0x34
 9572 26ba 02       		.byte	0x2
 9573 26bb 7D       		.byte	0x7d
 9574 26bc 04       		.sleb128 4
 9575 26bd 02       		.byte	0x2
 9576 26be 76       		.byte	0x76
 9577 26bf 00       		.sleb128 0
 9578 26c0 34       		.uleb128 0x34
 9579 26c1 02       		.byte	0x2
 9580 26c2 7D       		.byte	0x7d
 9581 26c3 00       		.sleb128 0
 9582 26c4 03       		.byte	0x3
 9583 26c5 91       		.byte	0x91
 9584 26c6 B07F     		.sleb128 -80
 9585 26c8 00       		.byte	0
 9586 26c9 33       		.uleb128 0x33
 9587 26ca 52000000 		.4byte	.LVL370
 9588 26ce 5D2F0000 		.4byte	0x2f5d
 9589 26d2 E2260000 		.4byte	0x26e2
 9590 26d6 34       		.uleb128 0x34
 9591 26d7 01       		.byte	0x1
 9592 26d8 51       		.byte	0x51
 9593 26d9 01       		.byte	0x1
 9594 26da 30       		.byte	0x30
 9595 26db 34       		.uleb128 0x34
 9596 26dc 01       		.byte	0x1
 9597 26dd 50       		.byte	0x50
 9598 26de 02       		.byte	0x2
ARM GAS  C:\Users\jenny\AppData\Local\Temp\ccLg5IEe.s 			page 170


 9599 26df 91       		.byte	0x91
 9600 26e0 54       		.sleb128 -44
 9601 26e1 00       		.byte	0
 9602 26e2 33       		.uleb128 0x33
 9603 26e3 AC010000 		.4byte	.LVL378
 9604 26e7 D2140000 		.4byte	0x14d2
 9605 26eb 1E270000 		.4byte	0x271e
 9606 26ef 34       		.uleb128 0x34
 9607 26f0 01       		.byte	0x1
 9608 26f1 53       		.byte	0x53
 9609 26f2 02       		.byte	0x2
 9610 26f3 78       		.byte	0x78
 9611 26f4 00       		.sleb128 0
 9612 26f5 34       		.uleb128 0x34
 9613 26f6 01       		.byte	0x1
 9614 26f7 52       		.byte	0x52
 9615 26f8 02       		.byte	0x2
 9616 26f9 75       		.byte	0x75
 9617 26fa 00       		.sleb128 0
 9618 26fb 34       		.uleb128 0x34
 9619 26fc 01       		.byte	0x1
 9620 26fd 51       		.byte	0x51
 9621 26fe 02       		.byte	0x2
 9622 26ff 74       		.byte	0x74
 9623 2700 00       		.sleb128 0
 9624 2701 34       		.uleb128 0x34
 9625 2702 01       		.byte	0x1
 9626 2703 50       		.byte	0x50
 9627 2704 02       		.byte	0x2
 9628 2705 7A       		.byte	0x7a
 9629 2706 00       		.sleb128 0
 9630 2707 34       		.uleb128 0x34
 9631 2708 02       		.byte	0x2
 9632 2709 7D       		.byte	0x7d
 9633 270a 08       		.sleb128 8
 9634 270b 02       		.byte	0x2
 9635 270c 77       		.byte	0x77
 9636 270d 00       		.sleb128 0
 9637 270e 34       		.uleb128 0x34
 9638 270f 02       		.byte	0x2
 9639 2710 7D       		.byte	0x7d
 9640 2711 04       		.sleb128 4
 9641 2712 03       		.byte	0x3
 9642 2713 91       		.byte	0x91
 9643 2714 B47F     		.sleb128 -76
 9644 2716 34       		.uleb128 0x34
 9645 2717 02       		.byte	0x2
 9646 2718 7D       		.byte	0x7d
 9647 2719 00       		.sleb128 0
 9648 271a 02       		.byte	0x2
 9649 271b 76       		.byte	0x76
 9650 271c 00       		.sleb128 0
 9651 271d 00       		.byte	0
 9652 271e 33       		.uleb128 0x33
 9653 271f 76020000 		.4byte	.LVL381
 9654 2723 7A2F0000 		.4byte	0x2f7a
 9655 2727 32270000 		.4byte	0x2732
ARM GAS  C:\Users\jenny\AppData\Local\Temp\ccLg5IEe.s 			page 171


 9656 272b 34       		.uleb128 0x34
 9657 272c 01       		.byte	0x1
 9658 272d 50       		.byte	0x50
 9659 272e 02       		.byte	0x2
 9660 272f 91       		.byte	0x91
 9661 2730 54       		.sleb128 -44
 9662 2731 00       		.byte	0
 9663 2732 33       		.uleb128 0x33
 9664 2733 92020000 		.4byte	.LVL382
 9665 2737 D2140000 		.4byte	0x14d2
 9666 273b 6E270000 		.4byte	0x276e
 9667 273f 34       		.uleb128 0x34
 9668 2740 01       		.byte	0x1
 9669 2741 53       		.byte	0x53
 9670 2742 02       		.byte	0x2
 9671 2743 78       		.byte	0x78
 9672 2744 00       		.sleb128 0
 9673 2745 34       		.uleb128 0x34
 9674 2746 01       		.byte	0x1
 9675 2747 52       		.byte	0x52
 9676 2748 02       		.byte	0x2
 9677 2749 75       		.byte	0x75
 9678 274a 00       		.sleb128 0
 9679 274b 34       		.uleb128 0x34
 9680 274c 01       		.byte	0x1
 9681 274d 51       		.byte	0x51
 9682 274e 02       		.byte	0x2
 9683 274f 74       		.byte	0x74
 9684 2750 00       		.sleb128 0
 9685 2751 34       		.uleb128 0x34
 9686 2752 01       		.byte	0x1
 9687 2753 50       		.byte	0x50
 9688 2754 02       		.byte	0x2
 9689 2755 7A       		.byte	0x7a
 9690 2756 00       		.sleb128 0
 9691 2757 34       		.uleb128 0x34
 9692 2758 02       		.byte	0x2
 9693 2759 7D       		.byte	0x7d
 9694 275a 08       		.sleb128 8
 9695 275b 02       		.byte	0x2
 9696 275c 77       		.byte	0x77
 9697 275d 00       		.sleb128 0
 9698 275e 34       		.uleb128 0x34
 9699 275f 02       		.byte	0x2
 9700 2760 7D       		.byte	0x7d
 9701 2761 04       		.sleb128 4
 9702 2762 03       		.byte	0x3
 9703 2763 91       		.byte	0x91
 9704 2764 B47F     		.sleb128 -76
 9705 2766 34       		.uleb128 0x34
 9706 2767 02       		.byte	0x2
 9707 2768 7D       		.byte	0x7d
 9708 2769 00       		.sleb128 0
 9709 276a 02       		.byte	0x2
 9710 276b 76       		.byte	0x76
 9711 276c 00       		.sleb128 0
 9712 276d 00       		.byte	0
ARM GAS  C:\Users\jenny\AppData\Local\Temp\ccLg5IEe.s 			page 172


 9713 276e 33       		.uleb128 0x33
 9714 276f 4E030000 		.4byte	.LVL390
 9715 2773 8E2F0000 		.4byte	0x2f8e
 9716 2777 82270000 		.4byte	0x2782
 9717 277b 34       		.uleb128 0x34
 9718 277c 01       		.byte	0x1
 9719 277d 50       		.byte	0x50
 9720 277e 02       		.byte	0x2
 9721 277f 91       		.byte	0x91
 9722 2780 54       		.sleb128 -44
 9723 2781 00       		.byte	0
 9724 2782 26       		.uleb128 0x26
 9725 2783 E6040000 		.4byte	.LVL407
 9726 2787 BD2C0000 		.4byte	0x2cbd
 9727 278b 26       		.uleb128 0x26
 9728 278c 24050000 		.4byte	.LVL418
 9729 2790 BD2C0000 		.4byte	0x2cbd
 9730 2794 00       		.byte	0
 9731 2795 09       		.uleb128 0x9
 9732 2796 04       		.byte	0x4
 9733 2797 22070000 		.4byte	0x722
 9734 279b 3B       		.uleb128 0x3b
 9735 279c 01       		.byte	0x1
 9736 279d 7D040000 		.4byte	.LASF304
 9737 27a1 01       		.byte	0x1
 9738 27a2 5A05     		.2byte	0x55a
 9739 27a4 01       		.byte	0x1
 9740 27a5 29000000 		.4byte	0x29
 9741 27a9 00000000 		.4byte	.LFB27
 9742 27ad 70000000 		.4byte	.LFE27
 9743 27b1 981D0000 		.4byte	.LLST154
 9744 27b5 01       		.byte	0x1
 9745 27b6 4D280000 		.4byte	0x284d
 9746 27ba 24       		.uleb128 0x24
 9747 27bb 7300     		.ascii	"s\000"
 9748 27bd 01       		.byte	0x1
 9749 27be 5A05     		.2byte	0x55a
 9750 27c0 29000000 		.4byte	0x29
 9751 27c4 B81D0000 		.4byte	.LLST155
 9752 27c8 24       		.uleb128 0x24
 9753 27c9 686F7700 		.ascii	"how\000"
 9754 27cd 01       		.byte	0x1
 9755 27ce 5A05     		.2byte	0x55a
 9756 27d0 29000000 		.4byte	0x29
 9757 27d4 D91D0000 		.4byte	.LLST156
 9758 27d8 2C       		.uleb128 0x2c
 9759 27d9 4B080000 		.4byte	.LASF234
 9760 27dd 01       		.byte	0x1
 9761 27de 5C05     		.2byte	0x55c
 9762 27e0 08130000 		.4byte	0x1308
 9763 27e4 01       		.byte	0x1
 9764 27e5 54       		.byte	0x54
 9765 27e6 2B       		.uleb128 0x2b
 9766 27e7 65727200 		.ascii	"err\000"
 9767 27eb 01       		.byte	0x1
 9768 27ec 5D05     		.2byte	0x55d
 9769 27ee 4E070000 		.4byte	0x74e
ARM GAS  C:\Users\jenny\AppData\Local\Temp\ccLg5IEe.s 			page 173


 9770 27f2 291E0000 		.4byte	.LLST157
 9771 27f6 25       		.uleb128 0x25
 9772 27f7 2A090000 		.4byte	.LASF305
 9773 27fb 01       		.byte	0x1
 9774 27fc 5E05     		.2byte	0x55e
 9775 27fe B1050000 		.4byte	0x5b1
 9776 2802 3C1E0000 		.4byte	.LLST158
 9777 2806 25       		.uleb128 0x25
 9778 2807 9C0E0000 		.4byte	.LASF306
 9779 280b 01       		.byte	0x1
 9780 280c 5E05     		.2byte	0x55e
 9781 280e B1050000 		.4byte	0x5b1
 9782 2812 671E0000 		.4byte	.LLST159
 9783 2816 31       		.uleb128 0x31
 9784 2817 2F130000 		.4byte	0x132f
 9785 281b 00000000 		.4byte	.LBB158
 9786 281f D8030000 		.4byte	.Ldebug_ranges0+0x3d8
 9787 2823 01       		.byte	0x1
 9788 2824 6205     		.2byte	0x562
 9789 2826 43280000 		.4byte	0x2843
 9790 282a 2F       		.uleb128 0x2f
 9791 282b 40130000 		.4byte	0x1340
 9792 282f B81D0000 		.4byte	.LLST155
 9793 2833 2D       		.uleb128 0x2d
 9794 2834 F8030000 		.4byte	.Ldebug_ranges0+0x3f8
 9795 2838 32       		.uleb128 0x32
 9796 2839 49130000 		.4byte	0x1349
 9797 283d 921E0000 		.4byte	.LLST161
 9798 2841 00       		.byte	0
 9799 2842 00       		.byte	0
 9800 2843 26       		.uleb128 0x26
 9801 2844 3E000000 		.4byte	.LVL427
 9802 2848 AB2F0000 		.4byte	0x2fab
 9803 284c 00       		.byte	0
 9804 284d 41       		.uleb128 0x41
 9805 284e 01       		.byte	0x1
 9806 284f 16060000 		.4byte	.LASF307
 9807 2853 01       		.byte	0x1
 9808 2854 A605     		.2byte	0x5a6
 9809 2856 01       		.byte	0x1
 9810 2857 29000000 		.4byte	0x29
 9811 285b 00000000 		.4byte	.LFB29
 9812 285f 06000000 		.4byte	.LFE29
 9813 2863 02       		.byte	0x2
 9814 2864 7D       		.byte	0x7d
 9815 2865 00       		.sleb128 0
 9816 2866 01       		.byte	0x1
 9817 2867 BF280000 		.4byte	0x28bf
 9818 286b 24       		.uleb128 0x24
 9819 286c 7300     		.ascii	"s\000"
 9820 286e 01       		.byte	0x1
 9821 286f A605     		.2byte	0x5a6
 9822 2871 29000000 		.4byte	0x29
 9823 2875 B01E0000 		.4byte	.LLST162
 9824 2879 29       		.uleb128 0x29
 9825 287a DC0B0000 		.4byte	.LASF260
 9826 287e 01       		.byte	0x1
ARM GAS  C:\Users\jenny\AppData\Local\Temp\ccLg5IEe.s 			page 174


 9827 287f A605     		.2byte	0x5a6
 9828 2881 06170000 		.4byte	0x1706
 9829 2885 D11E0000 		.4byte	.LLST163
 9830 2889 29       		.uleb128 0x29
 9831 288a 6A030000 		.4byte	.LASF261
 9832 288e 01       		.byte	0x1
 9833 288f A605     		.2byte	0x5a6
 9834 2891 0E130000 		.4byte	0x130e
 9835 2895 F21E0000 		.4byte	.LLST164
 9836 2899 42       		.uleb128 0x42
 9837 289a 06000000 		.4byte	.LVL434
 9838 289e 01       		.byte	0x1
 9839 289f 17160000 		.4byte	0x1617
 9840 28a3 34       		.uleb128 0x34
 9841 28a4 01       		.byte	0x1
 9842 28a5 53       		.byte	0x53
 9843 28a6 01       		.byte	0x1
 9844 28a7 30       		.byte	0x30
 9845 28a8 34       		.uleb128 0x34
 9846 28a9 01       		.byte	0x1
 9847 28aa 52       		.byte	0x52
 9848 28ab 03       		.byte	0x3
 9849 28ac F3       		.byte	0xf3
 9850 28ad 01       		.uleb128 0x1
 9851 28ae 52       		.byte	0x52
 9852 28af 34       		.uleb128 0x34
 9853 28b0 01       		.byte	0x1
 9854 28b1 51       		.byte	0x51
 9855 28b2 03       		.byte	0x3
 9856 28b3 F3       		.byte	0xf3
 9857 28b4 01       		.uleb128 0x1
 9858 28b5 51       		.byte	0x51
 9859 28b6 34       		.uleb128 0x34
 9860 28b7 01       		.byte	0x1
 9861 28b8 50       		.byte	0x50
 9862 28b9 03       		.byte	0x3
 9863 28ba F3       		.byte	0xf3
 9864 28bb 01       		.uleb128 0x1
 9865 28bc 50       		.byte	0x50
 9866 28bd 00       		.byte	0
 9867 28be 00       		.byte	0
 9868 28bf 41       		.uleb128 0x41
 9869 28c0 01       		.byte	0x1
 9870 28c1 46090000 		.4byte	.LASF308
 9871 28c5 01       		.byte	0x1
 9872 28c6 AC05     		.2byte	0x5ac
 9873 28c8 01       		.byte	0x1
 9874 28c9 29000000 		.4byte	0x29
 9875 28cd 00000000 		.4byte	.LFB30
 9876 28d1 06000000 		.4byte	.LFE30
 9877 28d5 02       		.byte	0x2
 9878 28d6 7D       		.byte	0x7d
 9879 28d7 00       		.sleb128 0
 9880 28d8 01       		.byte	0x1
 9881 28d9 31290000 		.4byte	0x2931
 9882 28dd 24       		.uleb128 0x24
 9883 28de 7300     		.ascii	"s\000"
ARM GAS  C:\Users\jenny\AppData\Local\Temp\ccLg5IEe.s 			page 175


 9884 28e0 01       		.byte	0x1
 9885 28e1 AC05     		.2byte	0x5ac
 9886 28e3 29000000 		.4byte	0x29
 9887 28e7 131F0000 		.4byte	.LLST165
 9888 28eb 29       		.uleb128 0x29
 9889 28ec DC0B0000 		.4byte	.LASF260
 9890 28f0 01       		.byte	0x1
 9891 28f1 AC05     		.2byte	0x5ac
 9892 28f3 06170000 		.4byte	0x1706
 9893 28f7 341F0000 		.4byte	.LLST166
 9894 28fb 29       		.uleb128 0x29
 9895 28fc 6A030000 		.4byte	.LASF261
 9896 2900 01       		.byte	0x1
 9897 2901 AC05     		.2byte	0x5ac
 9898 2903 0E130000 		.4byte	0x130e
 9899 2907 551F0000 		.4byte	.LLST167
 9900 290b 42       		.uleb128 0x42
 9901 290c 06000000 		.4byte	.LVL436
 9902 2910 01       		.byte	0x1
 9903 2911 17160000 		.4byte	0x1617
 9904 2915 34       		.uleb128 0x34
 9905 2916 01       		.byte	0x1
 9906 2917 53       		.byte	0x53
 9907 2918 01       		.byte	0x1
 9908 2919 31       		.byte	0x31
 9909 291a 34       		.uleb128 0x34
 9910 291b 01       		.byte	0x1
 9911 291c 52       		.byte	0x52
 9912 291d 03       		.byte	0x3
 9913 291e F3       		.byte	0xf3
 9914 291f 01       		.uleb128 0x1
 9915 2920 52       		.byte	0x52
 9916 2921 34       		.uleb128 0x34
 9917 2922 01       		.byte	0x1
 9918 2923 51       		.byte	0x51
 9919 2924 03       		.byte	0x3
 9920 2925 F3       		.byte	0xf3
 9921 2926 01       		.uleb128 0x1
 9922 2927 51       		.byte	0x51
 9923 2928 34       		.uleb128 0x34
 9924 2929 01       		.byte	0x1
 9925 292a 50       		.byte	0x50
 9926 292b 03       		.byte	0x3
 9927 292c F3       		.byte	0xf3
 9928 292d 01       		.uleb128 0x1
 9929 292e 50       		.byte	0x50
 9930 292f 00       		.byte	0
 9931 2930 00       		.byte	0
 9932 2931 3B       		.uleb128 0x3b
 9933 2932 01       		.byte	0x1
 9934 2933 61050000 		.4byte	.LASF309
 9935 2937 01       		.byte	0x1
 9936 2938 B205     		.2byte	0x5b2
 9937 293a 01       		.byte	0x1
 9938 293b 29000000 		.4byte	0x29
 9939 293f 00000000 		.4byte	.LFB31
 9940 2943 FC000000 		.4byte	.LFE31
ARM GAS  C:\Users\jenny\AppData\Local\Temp\ccLg5IEe.s 			page 176


 9941 2947 761F0000 		.4byte	.LLST168
 9942 294b 01       		.byte	0x1
 9943 294c 2A2A0000 		.4byte	0x2a2a
 9944 2950 24       		.uleb128 0x24
 9945 2951 7300     		.ascii	"s\000"
 9946 2953 01       		.byte	0x1
 9947 2954 B205     		.2byte	0x5b2
 9948 2956 29000000 		.4byte	0x29
 9949 295a A21F0000 		.4byte	.LLST169
 9950 295e 29       		.uleb128 0x29
 9951 295f D20D0000 		.4byte	.LASF235
 9952 2963 01       		.byte	0x1
 9953 2964 B205     		.2byte	0x5b2
 9954 2966 29000000 		.4byte	0x29
 9955 296a C31F0000 		.4byte	.LLST170
 9956 296e 29       		.uleb128 0x29
 9957 296f F7080000 		.4byte	.LASF236
 9958 2973 01       		.byte	0x1
 9959 2974 B205     		.2byte	0x5b2
 9960 2976 29000000 		.4byte	0x29
 9961 297a E11F0000 		.4byte	.LLST171
 9962 297e 29       		.uleb128 0x29
 9963 297f 61080000 		.4byte	.LASF237
 9964 2983 01       		.byte	0x1
 9965 2984 B205     		.2byte	0x5b2
 9966 2986 B9020000 		.4byte	0x2b9
 9967 298a FF1F0000 		.4byte	.LLST172
 9968 298e 2A       		.uleb128 0x2a
 9969 298f 570A0000 		.4byte	.LASF238
 9970 2993 01       		.byte	0x1
 9971 2994 B205     		.2byte	0x5b2
 9972 2996 0E130000 		.4byte	0x130e
 9973 299a 02       		.byte	0x2
 9974 299b 91       		.byte	0x91
 9975 299c 00       		.sleb128 0
 9976 299d 2B       		.uleb128 0x2b
 9977 299e 65727200 		.ascii	"err\000"
 9978 29a2 01       		.byte	0x1
 9979 29a3 B405     		.2byte	0x5b4
 9980 29a5 4E070000 		.4byte	0x74e
 9981 29a9 44200000 		.4byte	.LLST173
 9982 29ad 2C       		.uleb128 0x2c
 9983 29ae 4B080000 		.4byte	.LASF234
 9984 29b2 01       		.byte	0x1
 9985 29b3 B505     		.2byte	0x5b5
 9986 29b5 08130000 		.4byte	0x1308
 9987 29b9 01       		.byte	0x1
 9988 29ba 56       		.byte	0x56
 9989 29bb 2C       		.uleb128 0x2c
 9990 29bc C50E0000 		.4byte	.LASF243
 9991 29c0 01       		.byte	0x1
 9992 29c1 B605     		.2byte	0x5b6
 9993 29c3 A7120000 		.4byte	0x12a7
 9994 29c7 02       		.byte	0x2
 9995 29c8 91       		.byte	0x91
 9996 29c9 50       		.sleb128 -48
 9997 29ca 31       		.uleb128 0x31
ARM GAS  C:\Users\jenny\AppData\Local\Temp\ccLg5IEe.s 			page 177


 9998 29cb 2F130000 		.4byte	0x132f
 9999 29cf 06000000 		.4byte	.LBB164
 10000 29d3 18040000 		.4byte	.Ldebug_ranges0+0x418
 10001 29d7 01       		.byte	0x1
 10002 29d8 B505     		.2byte	0x5b5
 10003 29da F7290000 		.4byte	0x29f7
 10004 29de 2F       		.uleb128 0x2f
 10005 29df 40130000 		.4byte	0x1340
 10006 29e3 A21F0000 		.4byte	.LLST169
 10007 29e7 2D       		.uleb128 0x2d
 10008 29e8 30040000 		.4byte	.Ldebug_ranges0+0x430
 10009 29ec 32       		.uleb128 0x32
 10010 29ed 49130000 		.4byte	0x1349
 10011 29f1 9F200000 		.4byte	.LLST175
 10012 29f5 00       		.byte	0
 10013 29f6 00       		.byte	0
 10014 29f7 33       		.uleb128 0x33
 10015 29f8 82000000 		.4byte	.LVL448
 10016 29fc CD2F0000 		.4byte	0x2fcd
 10017 2a00 192A0000 		.4byte	0x2a19
 10018 2a04 34       		.uleb128 0x34
 10019 2a05 01       		.byte	0x1
 10020 2a06 52       		.byte	0x52
 10021 2a07 01       		.byte	0x1
 10022 2a08 31       		.byte	0x31
 10023 2a09 34       		.uleb128 0x34
 10024 2a0a 01       		.byte	0x1
 10025 2a0b 51       		.byte	0x51
 10026 2a0c 02       		.byte	0x2
 10027 2a0d 7D       		.byte	0x7d
 10028 2a0e 00       		.sleb128 0
 10029 2a0f 34       		.uleb128 0x34
 10030 2a10 01       		.byte	0x1
 10031 2a11 50       		.byte	0x50
 10032 2a12 05       		.byte	0x5
 10033 2a13 03       		.byte	0x3
 10034 2a14 00000000 		.4byte	lwip_getsockopt_internal
 10035 2a18 00       		.byte	0
 10036 2a19 35       		.uleb128 0x35
 10037 2a1a 8C000000 		.4byte	.LVL449
 10038 2a1e 8E2F0000 		.4byte	0x2f8e
 10039 2a22 34       		.uleb128 0x34
 10040 2a23 01       		.byte	0x1
 10041 2a24 51       		.byte	0x51
 10042 2a25 02       		.byte	0x2
 10043 2a26 78       		.byte	0x78
 10044 2a27 00       		.sleb128 0
 10045 2a28 00       		.byte	0
 10046 2a29 00       		.byte	0
 10047 2a2a 3B       		.uleb128 0x3b
 10048 2a2b 01       		.byte	0x1
 10049 2a2c F70C0000 		.4byte	.LASF310
 10050 2a30 01       		.byte	0x1
 10051 2a31 4A07     		.2byte	0x74a
 10052 2a33 01       		.byte	0x1
 10053 2a34 29000000 		.4byte	0x29
 10054 2a38 00000000 		.4byte	.LFB33
ARM GAS  C:\Users\jenny\AppData\Local\Temp\ccLg5IEe.s 			page 178


 10055 2a3c E0000000 		.4byte	.LFE33
 10056 2a40 BD200000 		.4byte	.LLST176
 10057 2a44 01       		.byte	0x1
 10058 2a45 242B0000 		.4byte	0x2b24
 10059 2a49 24       		.uleb128 0x24
 10060 2a4a 7300     		.ascii	"s\000"
 10061 2a4c 01       		.byte	0x1
 10062 2a4d 4A07     		.2byte	0x74a
 10063 2a4f 29000000 		.4byte	0x29
 10064 2a53 E9200000 		.4byte	.LLST177
 10065 2a57 29       		.uleb128 0x29
 10066 2a58 D20D0000 		.4byte	.LASF235
 10067 2a5c 01       		.byte	0x1
 10068 2a5d 4A07     		.2byte	0x74a
 10069 2a5f 29000000 		.4byte	0x29
 10070 2a63 0A210000 		.4byte	.LLST178
 10071 2a67 29       		.uleb128 0x29
 10072 2a68 F7080000 		.4byte	.LASF236
 10073 2a6c 01       		.byte	0x1
 10074 2a6d 4A07     		.2byte	0x74a
 10075 2a6f 29000000 		.4byte	0x29
 10076 2a73 28210000 		.4byte	.LLST179
 10077 2a77 29       		.uleb128 0x29
 10078 2a78 61080000 		.4byte	.LASF237
 10079 2a7c 01       		.byte	0x1
 10080 2a7d 4A07     		.2byte	0x74a
 10081 2a7f 18110000 		.4byte	0x1118
 10082 2a83 46210000 		.4byte	.LLST180
 10083 2a87 29       		.uleb128 0x29
 10084 2a88 570A0000 		.4byte	.LASF238
 10085 2a8c 01       		.byte	0x1
 10086 2a8d 4A07     		.2byte	0x74a
 10087 2a8f DE060000 		.4byte	0x6de
 10088 2a93 97210000 		.4byte	.LLST181
 10089 2a97 2C       		.uleb128 0x2c
 10090 2a98 4B080000 		.4byte	.LASF234
 10091 2a9c 01       		.byte	0x1
 10092 2a9d 4C07     		.2byte	0x74c
 10093 2a9f 08130000 		.4byte	0x1308
 10094 2aa3 01       		.byte	0x1
 10095 2aa4 55       		.byte	0x55
 10096 2aa5 2B       		.uleb128 0x2b
 10097 2aa6 65727200 		.ascii	"err\000"
 10098 2aaa 01       		.byte	0x1
 10099 2aab 4D07     		.2byte	0x74d
 10100 2aad 4E070000 		.4byte	0x74e
 10101 2ab1 C2210000 		.4byte	.LLST182
 10102 2ab5 2C       		.uleb128 0x2c
 10103 2ab6 C50E0000 		.4byte	.LASF243
 10104 2aba 01       		.byte	0x1
 10105 2abb 4E07     		.2byte	0x74e
 10106 2abd A7120000 		.4byte	0x12a7
 10107 2ac1 02       		.byte	0x2
 10108 2ac2 91       		.byte	0x91
 10109 2ac3 50       		.sleb128 -48
 10110 2ac4 31       		.uleb128 0x31
 10111 2ac5 2F130000 		.4byte	0x132f
ARM GAS  C:\Users\jenny\AppData\Local\Temp\ccLg5IEe.s 			page 179


 10112 2ac9 02000000 		.4byte	.LBB168
 10113 2acd 48040000 		.4byte	.Ldebug_ranges0+0x448
 10114 2ad1 01       		.byte	0x1
 10115 2ad2 4C07     		.2byte	0x74c
 10116 2ad4 F12A0000 		.4byte	0x2af1
 10117 2ad8 2F       		.uleb128 0x2f
 10118 2ad9 40130000 		.4byte	0x1340
 10119 2add E9200000 		.4byte	.LLST177
 10120 2ae1 2D       		.uleb128 0x2d
 10121 2ae2 60040000 		.4byte	.Ldebug_ranges0+0x460
 10122 2ae6 32       		.uleb128 0x32
 10123 2ae7 49130000 		.4byte	0x1349
 10124 2aeb 1D220000 		.4byte	.LLST184
 10125 2aef 00       		.byte	0
 10126 2af0 00       		.byte	0
 10127 2af1 33       		.uleb128 0x33
 10128 2af2 7A000000 		.4byte	.LVL467
 10129 2af6 CD2F0000 		.4byte	0x2fcd
 10130 2afa 132B0000 		.4byte	0x2b13
 10131 2afe 34       		.uleb128 0x34
 10132 2aff 01       		.byte	0x1
 10133 2b00 52       		.byte	0x52
 10134 2b01 01       		.byte	0x1
 10135 2b02 31       		.byte	0x31
 10136 2b03 34       		.uleb128 0x34
 10137 2b04 01       		.byte	0x1
 10138 2b05 51       		.byte	0x51
 10139 2b06 02       		.byte	0x2
 10140 2b07 7D       		.byte	0x7d
 10141 2b08 00       		.sleb128 0
 10142 2b09 34       		.uleb128 0x34
 10143 2b0a 01       		.byte	0x1
 10144 2b0b 50       		.byte	0x50
 10145 2b0c 05       		.byte	0x5
 10146 2b0d 03       		.byte	0x3
 10147 2b0e 00000000 		.4byte	lwip_setsockopt_internal
 10148 2b12 00       		.byte	0
 10149 2b13 35       		.uleb128 0x35
 10150 2b14 84000000 		.4byte	.LVL468
 10151 2b18 8E2F0000 		.4byte	0x2f8e
 10152 2b1c 34       		.uleb128 0x34
 10153 2b1d 01       		.byte	0x1
 10154 2b1e 51       		.byte	0x51
 10155 2b1f 02       		.byte	0x2
 10156 2b20 77       		.byte	0x77
 10157 2b21 00       		.sleb128 0
 10158 2b22 00       		.byte	0
 10159 2b23 00       		.byte	0
 10160 2b24 3B       		.uleb128 0x3b
 10161 2b25 01       		.byte	0x1
 10162 2b26 C2030000 		.4byte	.LASF311
 10163 2b2a 01       		.byte	0x1
 10164 2b2b EC08     		.2byte	0x8ec
 10165 2b2d 01       		.byte	0x1
 10166 2b2e 29000000 		.4byte	0x29
 10167 2b32 00000000 		.4byte	.LFB35
 10168 2b36 54000000 		.4byte	.LFE35
ARM GAS  C:\Users\jenny\AppData\Local\Temp\ccLg5IEe.s 			page 180


 10169 2b3a 3B220000 		.4byte	.LLST185
 10170 2b3e 01       		.byte	0x1
 10171 2b3f B92B0000 		.4byte	0x2bb9
 10172 2b43 24       		.uleb128 0x24
 10173 2b44 7300     		.ascii	"s\000"
 10174 2b46 01       		.byte	0x1
 10175 2b47 EC08     		.2byte	0x8ec
 10176 2b49 29000000 		.4byte	0x29
 10177 2b4d 5B220000 		.4byte	.LLST186
 10178 2b51 24       		.uleb128 0x24
 10179 2b52 636D6400 		.ascii	"cmd\000"
 10180 2b56 01       		.byte	0x1
 10181 2b57 EC08     		.2byte	0x8ec
 10182 2b59 95000000 		.4byte	0x95
 10183 2b5d 7C220000 		.4byte	.LLST187
 10184 2b61 29       		.uleb128 0x29
 10185 2b62 E1060000 		.4byte	.LASF312
 10186 2b66 01       		.byte	0x1
 10187 2b67 EC08     		.2byte	0x8ec
 10188 2b69 B9020000 		.4byte	0x2b9
 10189 2b6d E8220000 		.4byte	.LLST188
 10190 2b71 2C       		.uleb128 0x2c
 10191 2b72 4B080000 		.4byte	.LASF234
 10192 2b76 01       		.byte	0x1
 10193 2b77 EE08     		.2byte	0x8ee
 10194 2b79 08130000 		.4byte	0x1308
 10195 2b7d 01       		.byte	0x1
 10196 2b7e 54       		.byte	0x54
 10197 2b7f 2B       		.uleb128 0x2b
 10198 2b80 76616C00 		.ascii	"val\000"
 10199 2b84 01       		.byte	0x1
 10200 2b85 EF08     		.2byte	0x8ef
 10201 2b87 B1050000 		.4byte	0x5b1
 10202 2b8b 22230000 		.4byte	.LLST189
 10203 2b8f 2E       		.uleb128 0x2e
 10204 2b90 2F130000 		.4byte	0x132f
 10205 2b94 00000000 		.4byte	.LBB172
 10206 2b98 78040000 		.4byte	.Ldebug_ranges0+0x478
 10207 2b9c 01       		.byte	0x1
 10208 2b9d EE08     		.2byte	0x8ee
 10209 2b9f 2F       		.uleb128 0x2f
 10210 2ba0 40130000 		.4byte	0x1340
 10211 2ba4 5B220000 		.4byte	.LLST186
 10212 2ba8 2D       		.uleb128 0x2d
 10213 2ba9 98040000 		.4byte	.Ldebug_ranges0+0x498
 10214 2bad 32       		.uleb128 0x32
 10215 2bae 49130000 		.4byte	0x1349
 10216 2bb2 4E230000 		.4byte	.LLST191
 10217 2bb6 00       		.byte	0
 10218 2bb7 00       		.byte	0
 10219 2bb8 00       		.byte	0
 10220 2bb9 41       		.uleb128 0x41
 10221 2bba 01       		.byte	0x1
 10222 2bbb A40B0000 		.4byte	.LASF313
 10223 2bbf 01       		.byte	0x1
 10224 2bc0 2E09     		.2byte	0x92e
 10225 2bc2 01       		.byte	0x1
ARM GAS  C:\Users\jenny\AppData\Local\Temp\ccLg5IEe.s 			page 181


 10226 2bc3 29000000 		.4byte	0x29
 10227 2bc7 00000000 		.4byte	.LFB36
 10228 2bcb 4C000000 		.4byte	.LFE36
 10229 2bcf 02       		.byte	0x2
 10230 2bd0 7D       		.byte	0x7d
 10231 2bd1 00       		.sleb128 0
 10232 2bd2 01       		.byte	0x1
 10233 2bd3 4F2C0000 		.4byte	0x2c4f
 10234 2bd7 24       		.uleb128 0x24
 10235 2bd8 7300     		.ascii	"s\000"
 10236 2bda 01       		.byte	0x1
 10237 2bdb 2E09     		.2byte	0x92e
 10238 2bdd 29000000 		.4byte	0x29
 10239 2be1 6C230000 		.4byte	.LLST192
 10240 2be5 24       		.uleb128 0x24
 10241 2be6 636D6400 		.ascii	"cmd\000"
 10242 2bea 01       		.byte	0x1
 10243 2beb 2E09     		.2byte	0x92e
 10244 2bed 29000000 		.4byte	0x29
 10245 2bf1 8D230000 		.4byte	.LLST193
 10246 2bf5 24       		.uleb128 0x24
 10247 2bf6 76616C00 		.ascii	"val\000"
 10248 2bfa 01       		.byte	0x1
 10249 2bfb 2E09     		.2byte	0x92e
 10250 2bfd 29000000 		.4byte	0x29
 10251 2c01 E0230000 		.4byte	.LLST194
 10252 2c05 3E       		.uleb128 0x3e
 10253 2c06 4B080000 		.4byte	.LASF234
 10254 2c0a 01       		.byte	0x1
 10255 2c0b 3009     		.2byte	0x930
 10256 2c0d 08130000 		.4byte	0x1308
 10257 2c11 2B       		.uleb128 0x2b
 10258 2c12 72657400 		.ascii	"ret\000"
 10259 2c16 01       		.byte	0x1
 10260 2c17 3109     		.2byte	0x931
 10261 2c19 29000000 		.4byte	0x29
 10262 2c1d 1A240000 		.4byte	.LLST195
 10263 2c21 45       		.uleb128 0x45
 10264 2c22 2F130000 		.4byte	0x132f
 10265 2c26 00000000 		.4byte	.LBB178
 10266 2c2a 10000000 		.4byte	.LBE178
 10267 2c2e 01       		.byte	0x1
 10268 2c2f 3009     		.2byte	0x930
 10269 2c31 2F       		.uleb128 0x2f
 10270 2c32 40130000 		.4byte	0x1340
 10271 2c36 6C230000 		.4byte	.LLST192
 10272 2c3a 38       		.uleb128 0x38
 10273 2c3b 00000000 		.4byte	.LBB179
 10274 2c3f 10000000 		.4byte	.LBE179
 10275 2c43 32       		.uleb128 0x32
 10276 2c44 49130000 		.4byte	0x1349
 10277 2c48 54240000 		.4byte	.LLST197
 10278 2c4c 00       		.byte	0
 10279 2c4d 00       		.byte	0
 10280 2c4e 00       		.byte	0
 10281 2c4f 13       		.uleb128 0x13
 10282 2c50 AF110000 		.4byte	0x11af
ARM GAS  C:\Users\jenny\AppData\Local\Temp\ccLg5IEe.s 			page 182


 10283 2c54 5F2C0000 		.4byte	0x2c5f
 10284 2c58 14       		.uleb128 0x14
 10285 2c59 5C040000 		.4byte	0x45c
 10286 2c5d 03       		.byte	0x3
 10287 2c5e 00       		.byte	0
 10288 2c5f 46       		.uleb128 0x46
 10289 2c60 C1050000 		.4byte	.LASF314
 10290 2c64 01       		.byte	0x1
 10291 2c65 7E       		.byte	0x7e
 10292 2c66 4F2C0000 		.4byte	0x2c4f
 10293 2c6a 05       		.byte	0x5
 10294 2c6b 03       		.byte	0x3
 10295 2c6c 00000000 		.4byte	sockets
 10296 2c70 46       		.uleb128 0x46
 10297 2c71 8B080000 		.4byte	.LASF315
 10298 2c75 01       		.byte	0x1
 10299 2c76 80       		.byte	0x80
 10300 2c77 9B120000 		.4byte	0x129b
 10301 2c7b 05       		.byte	0x5
 10302 2c7c 03       		.byte	0x3
 10303 2c7d 00000000 		.4byte	select_cb_list
 10304 2c81 46       		.uleb128 0x46
 10305 2c82 080B0000 		.4byte	.LASF316
 10306 2c86 01       		.byte	0x1
 10307 2c87 83       		.byte	0x83
 10308 2c88 922C0000 		.4byte	0x2c92
 10309 2c8c 05       		.byte	0x5
 10310 2c8d 03       		.byte	0x3
 10311 2c8e 00000000 		.4byte	select_cb_ctr
 10312 2c92 0F       		.uleb128 0xf
 10313 2c93 29000000 		.4byte	0x29
 10314 2c97 13       		.uleb128 0x13
 10315 2c98 29000000 		.4byte	0x29
 10316 2c9c A72C0000 		.4byte	0x2ca7
 10317 2ca0 14       		.uleb128 0x14
 10318 2ca1 5C040000 		.4byte	0x45c
 10319 2ca5 0F       		.byte	0xf
 10320 2ca6 00       		.byte	0
 10321 2ca7 46       		.uleb128 0x46
 10322 2ca8 B8000000 		.4byte	.LASF317
 10323 2cac 01       		.byte	0x1
 10324 2cad 87       		.byte	0x87
 10325 2cae B82C0000 		.4byte	0x2cb8
 10326 2cb2 05       		.byte	0x5
 10327 2cb3 03       		.byte	0x3
 10328 2cb4 00000000 		.4byte	err_to_errno_table
 10329 2cb8 12       		.uleb128 0x12
 10330 2cb9 972C0000 		.4byte	0x2c97
 10331 2cbd 47       		.uleb128 0x47
 10332 2cbe 01       		.byte	0x1
 10333 2cbf FE030000 		.4byte	.LASF353
 10334 2cc3 07       		.byte	0x7
 10335 2cc4 0102     		.2byte	0x201
 10336 2cc6 01       		.byte	0x1
 10337 2cc7 01       		.byte	0x1
 10338 2cc8 48       		.uleb128 0x48
 10339 2cc9 01       		.byte	0x1
ARM GAS  C:\Users\jenny\AppData\Local\Temp\ccLg5IEe.s 			page 183


 10340 2cca EA010000 		.4byte	.LASF320
 10341 2cce 1B       		.byte	0x1b
 10342 2ccf 8E       		.byte	0x8e
 10343 2cd0 01       		.byte	0x1
 10344 2cd1 01       		.byte	0x1
 10345 2cd2 DC2C0000 		.4byte	0x2cdc
 10346 2cd6 0E       		.uleb128 0xe
 10347 2cd7 A9110000 		.4byte	0x11a9
 10348 2cdb 00       		.byte	0
 10349 2cdc 49       		.uleb128 0x49
 10350 2cdd 01       		.byte	0x1
 10351 2cde 380A0000 		.4byte	.LASF318
 10352 2ce2 13       		.byte	0x13
 10353 2ce3 DD       		.byte	0xdd
 10354 2ce4 01       		.byte	0x1
 10355 2ce5 4E070000 		.4byte	0x74e
 10356 2ce9 01       		.byte	0x1
 10357 2cea 032D0000 		.4byte	0x2d03
 10358 2cee 0E       		.uleb128 0xe
 10359 2cef E2080000 		.4byte	0x8e2
 10360 2cf3 0E       		.uleb128 0xe
 10361 2cf4 D50E0000 		.4byte	0xed5
 10362 2cf8 0E       		.uleb128 0xe
 10363 2cf9 DF100000 		.4byte	0x10df
 10364 2cfd 0E       		.uleb128 0xe
 10365 2cfe B1050000 		.4byte	0x5b1
 10366 2d02 00       		.byte	0
 10367 2d03 49       		.uleb128 0x49
 10368 2d04 01       		.byte	0x1
 10369 2d05 30020000 		.4byte	.LASF319
 10370 2d09 1A       		.byte	0x1a
 10371 2d0a 63       		.byte	0x63
 10372 2d0b 01       		.byte	0x1
 10373 2d0c C7050000 		.4byte	0x5c7
 10374 2d10 01       		.byte	0x1
 10375 2d11 1B2D0000 		.4byte	0x2d1b
 10376 2d15 0E       		.uleb128 0xe
 10377 2d16 C7050000 		.4byte	0x5c7
 10378 2d1a 00       		.byte	0
 10379 2d1b 4A       		.uleb128 0x4a
 10380 2d1c 01       		.byte	0x1
 10381 2d1d 5D0D0000 		.4byte	.LASF321
 10382 2d21 01       		.byte	0x1
 10383 2d22 B9020000 		.4byte	0x2b9
 10384 2d26 01       		.byte	0x1
 10385 2d27 01       		.byte	0x1
 10386 2d28 3C2D0000 		.4byte	0x2d3c
 10387 2d2c 0E       		.uleb128 0xe
 10388 2d2d B9020000 		.4byte	0x2b9
 10389 2d31 0E       		.uleb128 0xe
 10390 2d32 18110000 		.4byte	0x1118
 10391 2d36 0E       		.uleb128 0xe
 10392 2d37 5C040000 		.4byte	0x45c
 10393 2d3b 00       		.byte	0
 10394 2d3c 48       		.uleb128 0x48
 10395 2d3d 01       		.byte	0x1
 10396 2d3e FA060000 		.4byte	.LASF322
ARM GAS  C:\Users\jenny\AppData\Local\Temp\ccLg5IEe.s 			page 184


 10397 2d42 1B       		.byte	0x1b
 10398 2d43 91       		.byte	0x91
 10399 2d44 01       		.byte	0x1
 10400 2d45 01       		.byte	0x1
 10401 2d46 502D0000 		.4byte	0x2d50
 10402 2d4a 0E       		.uleb128 0xe
 10403 2d4b A9110000 		.4byte	0x11a9
 10404 2d4f 00       		.byte	0
 10405 2d50 49       		.uleb128 0x49
 10406 2d51 01       		.byte	0x1
 10407 2d52 D5000000 		.4byte	.LASF323
 10408 2d56 13       		.byte	0x13
 10409 2d57 E7       		.byte	0xe7
 10410 2d58 01       		.byte	0x1
 10411 2d59 4E070000 		.4byte	0x74e
 10412 2d5d 01       		.byte	0x1
 10413 2d5e 6D2D0000 		.4byte	0x2d6d
 10414 2d62 0E       		.uleb128 0xe
 10415 2d63 E2080000 		.4byte	0x8e2
 10416 2d67 0E       		.uleb128 0xe
 10417 2d68 6D2D0000 		.4byte	0x2d6d
 10418 2d6c 00       		.byte	0
 10419 2d6d 09       		.uleb128 0x9
 10420 2d6e 04       		.byte	0x4
 10421 2d6f E2080000 		.4byte	0x8e2
 10422 2d73 49       		.uleb128 0x49
 10423 2d74 01       		.byte	0x1
 10424 2d75 5E040000 		.4byte	.LASF324
 10425 2d79 13       		.byte	0x13
 10426 2d7a D9       		.byte	0xd9
 10427 2d7b 01       		.byte	0x1
 10428 2d7c 4E070000 		.4byte	0x74e
 10429 2d80 01       		.byte	0x1
 10430 2d81 8B2D0000 		.4byte	0x2d8b
 10431 2d85 0E       		.uleb128 0xe
 10432 2d86 E2080000 		.4byte	0x8e2
 10433 2d8a 00       		.byte	0
 10434 2d8b 49       		.uleb128 0x49
 10435 2d8c 01       		.byte	0x1
 10436 2d8d 4C000000 		.4byte	.LASF325
 10437 2d91 1A       		.byte	0x1a
 10438 2d92 64       		.byte	0x64
 10439 2d93 01       		.byte	0x1
 10440 2d94 C7050000 		.4byte	0x5c7
 10441 2d98 01       		.byte	0x1
 10442 2d99 A32D0000 		.4byte	0x2da3
 10443 2d9d 0E       		.uleb128 0xe
 10444 2d9e C7050000 		.4byte	0x5c7
 10445 2da2 00       		.byte	0
 10446 2da3 49       		.uleb128 0x49
 10447 2da4 01       		.byte	0x1
 10448 2da5 D0020000 		.4byte	.LASF326
 10449 2da9 13       		.byte	0x13
 10450 2daa E2       		.byte	0xe2
 10451 2dab 01       		.byte	0x1
 10452 2dac 4E070000 		.4byte	0x74e
 10453 2db0 01       		.byte	0x1
ARM GAS  C:\Users\jenny\AppData\Local\Temp\ccLg5IEe.s 			page 185


 10454 2db1 C52D0000 		.4byte	0x2dc5
 10455 2db5 0E       		.uleb128 0xe
 10456 2db6 E2080000 		.4byte	0x8e2
 10457 2dba 0E       		.uleb128 0xe
 10458 2dbb D50E0000 		.4byte	0xed5
 10459 2dbf 0E       		.uleb128 0xe
 10460 2dc0 C7050000 		.4byte	0x5c7
 10461 2dc4 00       		.byte	0
 10462 2dc5 48       		.uleb128 0x48
 10463 2dc6 01       		.byte	0x1
 10464 2dc7 97030000 		.4byte	.LASF327
 10465 2dcb 11       		.byte	0x11
 10466 2dcc 41       		.byte	0x41
 10467 2dcd 01       		.byte	0x1
 10468 2dce 01       		.byte	0x1
 10469 2dcf D92D0000 		.4byte	0x2dd9
 10470 2dd3 0E       		.uleb128 0xe
 10471 2dd4 98110000 		.4byte	0x1198
 10472 2dd8 00       		.byte	0
 10473 2dd9 49       		.uleb128 0x49
 10474 2dda 01       		.byte	0x1
 10475 2ddb 310B0000 		.4byte	.LASF328
 10476 2ddf 10       		.byte	0x10
 10477 2de0 9B       		.byte	0x9b
 10478 2de1 01       		.byte	0x1
 10479 2de2 B1050000 		.4byte	0x5b1
 10480 2de6 01       		.byte	0x1
 10481 2de7 F12D0000 		.4byte	0x2df1
 10482 2deb 0E       		.uleb128 0xe
 10483 2dec C8070000 		.4byte	0x7c8
 10484 2df0 00       		.byte	0
 10485 2df1 49       		.uleb128 0x49
 10486 2df2 01       		.byte	0x1
 10487 2df3 F80A0000 		.4byte	.LASF329
 10488 2df7 13       		.byte	0x13
 10489 2df8 E3       		.byte	0xe3
 10490 2df9 01       		.byte	0x1
 10491 2dfa 4E070000 		.4byte	0x74e
 10492 2dfe 01       		.byte	0x1
 10493 2dff 132E0000 		.4byte	0x2e13
 10494 2e03 0E       		.uleb128 0xe
 10495 2e04 E2080000 		.4byte	0x8e2
 10496 2e08 0E       		.uleb128 0xe
 10497 2e09 D50E0000 		.4byte	0xed5
 10498 2e0d 0E       		.uleb128 0xe
 10499 2e0e C7050000 		.4byte	0x5c7
 10500 2e12 00       		.byte	0
 10501 2e13 49       		.uleb128 0x49
 10502 2e14 01       		.byte	0x1
 10503 2e15 160A0000 		.4byte	.LASF330
 10504 2e19 13       		.byte	0x13
 10505 2e1a E5       		.byte	0xe5
 10506 2e1b 01       		.byte	0x1
 10507 2e1c 4E070000 		.4byte	0x74e
 10508 2e20 01       		.byte	0x1
 10509 2e21 302E0000 		.4byte	0x2e30
 10510 2e25 0E       		.uleb128 0xe
ARM GAS  C:\Users\jenny\AppData\Local\Temp\ccLg5IEe.s 			page 186


 10511 2e26 E2080000 		.4byte	0x8e2
 10512 2e2a 0E       		.uleb128 0xe
 10513 2e2b B1050000 		.4byte	0x5b1
 10514 2e2f 00       		.byte	0
 10515 2e30 49       		.uleb128 0x49
 10516 2e31 01       		.byte	0x1
 10517 2e32 68060000 		.4byte	.LASF331
 10518 2e36 10       		.byte	0x10
 10519 2e37 A1       		.byte	0xa1
 10520 2e38 01       		.byte	0x1
 10521 2e39 C7050000 		.4byte	0x5c7
 10522 2e3d 01       		.byte	0x1
 10523 2e3e 572E0000 		.4byte	0x2e57
 10524 2e42 0E       		.uleb128 0xe
 10525 2e43 C8070000 		.4byte	0x7c8
 10526 2e47 0E       		.uleb128 0xe
 10527 2e48 B9020000 		.4byte	0x2b9
 10528 2e4c 0E       		.uleb128 0xe
 10529 2e4d C7050000 		.4byte	0x5c7
 10530 2e51 0E       		.uleb128 0xe
 10531 2e52 C7050000 		.4byte	0x5c7
 10532 2e56 00       		.byte	0
 10533 2e57 48       		.uleb128 0x48
 10534 2e58 01       		.byte	0x1
 10535 2e59 F10D0000 		.4byte	.LASF332
 10536 2e5d 13       		.byte	0x13
 10537 2e5e EA       		.byte	0xea
 10538 2e5f 01       		.byte	0x1
 10539 2e60 01       		.byte	0x1
 10540 2e61 702E0000 		.4byte	0x2e70
 10541 2e65 0E       		.uleb128 0xe
 10542 2e66 E2080000 		.4byte	0x8e2
 10543 2e6a 0E       		.uleb128 0xe
 10544 2e6b DD050000 		.4byte	0x5dd
 10545 2e6f 00       		.byte	0
 10546 2e70 49       		.uleb128 0x49
 10547 2e71 01       		.byte	0x1
 10548 2e72 970C0000 		.4byte	.LASF333
 10549 2e76 13       		.byte	0x13
 10550 2e77 E8       		.byte	0xe8
 10551 2e78 01       		.byte	0x1
 10552 2e79 4E070000 		.4byte	0x74e
 10553 2e7d 01       		.byte	0x1
 10554 2e7e 8D2E0000 		.4byte	0x2e8d
 10555 2e82 0E       		.uleb128 0xe
 10556 2e83 E2080000 		.4byte	0x8e2
 10557 2e87 0E       		.uleb128 0xe
 10558 2e88 8D2E0000 		.4byte	0x2e8d
 10559 2e8c 00       		.byte	0
 10560 2e8d 09       		.uleb128 0x9
 10561 2e8e 04       		.byte	0x4
 10562 2e8f 98110000 		.4byte	0x1198
 10563 2e93 49       		.uleb128 0x49
 10564 2e94 01       		.byte	0x1
 10565 2e95 380E0000 		.4byte	.LASF334
 10566 2e99 13       		.byte	0x13
 10567 2e9a E9       		.byte	0xe9
ARM GAS  C:\Users\jenny\AppData\Local\Temp\ccLg5IEe.s 			page 187


 10568 2e9b 01       		.byte	0x1
 10569 2e9c 4E070000 		.4byte	0x74e
 10570 2ea0 01       		.byte	0x1
 10571 2ea1 B02E0000 		.4byte	0x2eb0
 10572 2ea5 0E       		.uleb128 0xe
 10573 2ea6 E2080000 		.4byte	0x8e2
 10574 2eaa 0E       		.uleb128 0xe
 10575 2eab B02E0000 		.4byte	0x2eb0
 10576 2eaf 00       		.byte	0
 10577 2eb0 09       		.uleb128 0x9
 10578 2eb1 04       		.byte	0x4
 10579 2eb2 C8070000 		.4byte	0x7c8
 10580 2eb6 49       		.uleb128 0x49
 10581 2eb7 01       		.byte	0x1
 10582 2eb8 4E0E0000 		.4byte	.LASF335
 10583 2ebc 11       		.byte	0x11
 10584 2ebd 44       		.byte	0x44
 10585 2ebe 01       		.byte	0x1
 10586 2ebf 4E070000 		.4byte	0x74e
 10587 2ec3 01       		.byte	0x1
 10588 2ec4 D82E0000 		.4byte	0x2ed8
 10589 2ec8 0E       		.uleb128 0xe
 10590 2ec9 98110000 		.4byte	0x1198
 10591 2ecd 0E       		.uleb128 0xe
 10592 2ece 18110000 		.4byte	0x1118
 10593 2ed2 0E       		.uleb128 0xe
 10594 2ed3 C7050000 		.4byte	0x5c7
 10595 2ed7 00       		.byte	0
 10596 2ed8 48       		.uleb128 0x48
 10597 2ed9 01       		.byte	0x1
 10598 2eda E50D0000 		.4byte	.LASF336
 10599 2ede 11       		.byte	0x11
 10600 2edf 43       		.byte	0x43
 10601 2ee0 01       		.byte	0x1
 10602 2ee1 01       		.byte	0x1
 10603 2ee2 EC2E0000 		.4byte	0x2eec
 10604 2ee6 0E       		.uleb128 0xe
 10605 2ee7 98110000 		.4byte	0x1198
 10606 2eeb 00       		.byte	0
 10607 2eec 49       		.uleb128 0x49
 10608 2eed 01       		.byte	0x1
 10609 2eee 090A0000 		.4byte	.LASF337
 10610 2ef2 13       		.byte	0x13
 10611 2ef3 ED       		.byte	0xed
 10612 2ef4 01       		.byte	0x1
 10613 2ef5 4E070000 		.4byte	0x74e
 10614 2ef9 01       		.byte	0x1
 10615 2efa 092F0000 		.4byte	0x2f09
 10616 2efe 0E       		.uleb128 0xe
 10617 2eff E2080000 		.4byte	0x8e2
 10618 2f03 0E       		.uleb128 0xe
 10619 2f04 98110000 		.4byte	0x1198
 10620 2f08 00       		.byte	0
 10621 2f09 49       		.uleb128 0x49
 10622 2f0a 01       		.byte	0x1
 10623 2f0b 13070000 		.4byte	.LASF338
 10624 2f0f 13       		.byte	0x13
ARM GAS  C:\Users\jenny\AppData\Local\Temp\ccLg5IEe.s 			page 188


 10625 2f10 EE       		.byte	0xee
 10626 2f11 01       		.byte	0x1
 10627 2f12 4E070000 		.4byte	0x74e
 10628 2f16 01       		.byte	0x1
 10629 2f17 352F0000 		.4byte	0x2f35
 10630 2f1b 0E       		.uleb128 0xe
 10631 2f1c E2080000 		.4byte	0x8e2
 10632 2f20 0E       		.uleb128 0xe
 10633 2f21 18110000 		.4byte	0x1118
 10634 2f25 0E       		.uleb128 0xe
 10635 2f26 30000000 		.4byte	0x30
 10636 2f2a 0E       		.uleb128 0xe
 10637 2f2b B1050000 		.4byte	0x5b1
 10638 2f2f 0E       		.uleb128 0xe
 10639 2f30 352F0000 		.4byte	0x2f35
 10640 2f34 00       		.byte	0
 10641 2f35 09       		.uleb128 0x9
 10642 2f36 04       		.byte	0x4
 10643 2f37 30000000 		.4byte	0x30
 10644 2f3b 49       		.uleb128 0x49
 10645 2f3c 01       		.byte	0x1
 10646 2f3d E9020000 		.4byte	.LASF339
 10647 2f41 13       		.byte	0x13
 10648 2f42 D7       		.byte	0xd7
 10649 2f43 01       		.byte	0x1
 10650 2f44 E2080000 		.4byte	0x8e2
 10651 2f48 01       		.byte	0x1
 10652 2f49 5D2F0000 		.4byte	0x2f5d
 10653 2f4d 0E       		.uleb128 0xe
 10654 2f4e 33080000 		.4byte	0x833
 10655 2f52 0E       		.uleb128 0xe
 10656 2f53 B1050000 		.4byte	0x5b1
 10657 2f57 0E       		.uleb128 0xe
 10658 2f58 BB080000 		.4byte	0x8bb
 10659 2f5c 00       		.byte	0
 10660 2f5d 49       		.uleb128 0x49
 10661 2f5e 01       		.byte	0x1
 10662 2f5f F40B0000 		.4byte	.LASF340
 10663 2f63 1B       		.byte	0x1b
 10664 2f64 8B       		.byte	0x8b
 10665 2f65 01       		.byte	0x1
 10666 2f66 4E070000 		.4byte	0x74e
 10667 2f6a 01       		.byte	0x1
 10668 2f6b 7A2F0000 		.4byte	0x2f7a
 10669 2f6f 0E       		.uleb128 0xe
 10670 2f70 A9110000 		.4byte	0x11a9
 10671 2f74 0E       		.uleb128 0xe
 10672 2f75 B1050000 		.4byte	0x5b1
 10673 2f79 00       		.byte	0
 10674 2f7a 48       		.uleb128 0x48
 10675 2f7b 01       		.byte	0x1
 10676 2f7c CF060000 		.4byte	.LASF341
 10677 2f80 1B       		.byte	0x1b
 10678 2f81 9A       		.byte	0x9a
 10679 2f82 01       		.byte	0x1
 10680 2f83 01       		.byte	0x1
 10681 2f84 8E2F0000 		.4byte	0x2f8e
ARM GAS  C:\Users\jenny\AppData\Local\Temp\ccLg5IEe.s 			page 189


 10682 2f88 0E       		.uleb128 0xe
 10683 2f89 A9110000 		.4byte	0x11a9
 10684 2f8d 00       		.byte	0
 10685 2f8e 49       		.uleb128 0x49
 10686 2f8f 01       		.byte	0x1
 10687 2f90 3B0B0000 		.4byte	.LASF342
 10688 2f94 1B       		.byte	0x1b
 10689 2f95 97       		.byte	0x97
 10690 2f96 01       		.byte	0x1
 10691 2f97 DD050000 		.4byte	0x5dd
 10692 2f9b 01       		.byte	0x1
 10693 2f9c AB2F0000 		.4byte	0x2fab
 10694 2fa0 0E       		.uleb128 0xe
 10695 2fa1 A9110000 		.4byte	0x11a9
 10696 2fa5 0E       		.uleb128 0xe
 10697 2fa6 DD050000 		.4byte	0x5dd
 10698 2faa 00       		.byte	0
 10699 2fab 49       		.uleb128 0x49
 10700 2fac 01       		.byte	0x1
 10701 2fad B70C0000 		.4byte	.LASF343
 10702 2fb1 13       		.byte	0x13
 10703 2fb2 F3       		.byte	0xf3
 10704 2fb3 01       		.byte	0x1
 10705 2fb4 4E070000 		.4byte	0x74e
 10706 2fb8 01       		.byte	0x1
 10707 2fb9 CD2F0000 		.4byte	0x2fcd
 10708 2fbd 0E       		.uleb128 0xe
 10709 2fbe E2080000 		.4byte	0x8e2
 10710 2fc2 0E       		.uleb128 0xe
 10711 2fc3 B1050000 		.4byte	0x5b1
 10712 2fc7 0E       		.uleb128 0xe
 10713 2fc8 B1050000 		.4byte	0x5b1
 10714 2fcc 00       		.byte	0
 10715 2fcd 4B       		.uleb128 0x4b
 10716 2fce 01       		.byte	0x1
 10717 2fcf 8F0D0000 		.4byte	.LASF344
 10718 2fd3 19       		.byte	0x19
 10719 2fd4 65       		.byte	0x65
 10720 2fd5 01       		.byte	0x1
 10721 2fd6 4E070000 		.4byte	0x74e
 10722 2fda 01       		.byte	0x1
 10723 2fdb 0E       		.uleb128 0xe
 10724 2fdc 9E110000 		.4byte	0x119e
 10725 2fe0 0E       		.uleb128 0xe
 10726 2fe1 B9020000 		.4byte	0x2b9
 10727 2fe5 0E       		.uleb128 0xe
 10728 2fe6 B1050000 		.4byte	0x5b1
 10729 2fea 00       		.byte	0
 10730 2feb 00       		.byte	0
 10731              		.section	.debug_abbrev,"",%progbits
 10732              	.Ldebug_abbrev0:
 10733 0000 01       		.uleb128 0x1
 10734 0001 11       		.uleb128 0x11
 10735 0002 01       		.byte	0x1
 10736 0003 25       		.uleb128 0x25
 10737 0004 0E       		.uleb128 0xe
 10738 0005 13       		.uleb128 0x13
ARM GAS  C:\Users\jenny\AppData\Local\Temp\ccLg5IEe.s 			page 190


 10739 0006 0B       		.uleb128 0xb
 10740 0007 03       		.uleb128 0x3
 10741 0008 0E       		.uleb128 0xe
 10742 0009 1B       		.uleb128 0x1b
 10743 000a 0E       		.uleb128 0xe
 10744 000b 55       		.uleb128 0x55
 10745 000c 06       		.uleb128 0x6
 10746 000d 11       		.uleb128 0x11
 10747 000e 01       		.uleb128 0x1
 10748 000f 52       		.uleb128 0x52
 10749 0010 01       		.uleb128 0x1
 10750 0011 10       		.uleb128 0x10
 10751 0012 06       		.uleb128 0x6
 10752 0013 00       		.byte	0
 10753 0014 00       		.byte	0
 10754 0015 02       		.uleb128 0x2
 10755 0016 24       		.uleb128 0x24
 10756 0017 00       		.byte	0
 10757 0018 0B       		.uleb128 0xb
 10758 0019 0B       		.uleb128 0xb
 10759 001a 3E       		.uleb128 0x3e
 10760 001b 0B       		.uleb128 0xb
 10761 001c 03       		.uleb128 0x3
 10762 001d 08       		.uleb128 0x8
 10763 001e 00       		.byte	0
 10764 001f 00       		.byte	0
 10765 0020 03       		.uleb128 0x3
 10766 0021 16       		.uleb128 0x16
 10767 0022 00       		.byte	0
 10768 0023 03       		.uleb128 0x3
 10769 0024 0E       		.uleb128 0xe
 10770 0025 3A       		.uleb128 0x3a
 10771 0026 0B       		.uleb128 0xb
 10772 0027 3B       		.uleb128 0x3b
 10773 0028 0B       		.uleb128 0xb
 10774 0029 49       		.uleb128 0x49
 10775 002a 13       		.uleb128 0x13
 10776 002b 00       		.byte	0
 10777 002c 00       		.byte	0
 10778 002d 04       		.uleb128 0x4
 10779 002e 24       		.uleb128 0x24
 10780 002f 00       		.byte	0
 10781 0030 0B       		.uleb128 0xb
 10782 0031 0B       		.uleb128 0xb
 10783 0032 3E       		.uleb128 0x3e
 10784 0033 0B       		.uleb128 0xb
 10785 0034 03       		.uleb128 0x3
 10786 0035 0E       		.uleb128 0xe
 10787 0036 00       		.byte	0
 10788 0037 00       		.byte	0
 10789 0038 05       		.uleb128 0x5
 10790 0039 13       		.uleb128 0x13
 10791 003a 01       		.byte	0x1
 10792 003b 03       		.uleb128 0x3
 10793 003c 0E       		.uleb128 0xe
 10794 003d 0B       		.uleb128 0xb
 10795 003e 0B       		.uleb128 0xb
ARM GAS  C:\Users\jenny\AppData\Local\Temp\ccLg5IEe.s 			page 191


 10796 003f 3A       		.uleb128 0x3a
 10797 0040 0B       		.uleb128 0xb
 10798 0041 3B       		.uleb128 0x3b
 10799 0042 0B       		.uleb128 0xb
 10800 0043 01       		.uleb128 0x1
 10801 0044 13       		.uleb128 0x13
 10802 0045 00       		.byte	0
 10803 0046 00       		.byte	0
 10804 0047 06       		.uleb128 0x6
 10805 0048 0D       		.uleb128 0xd
 10806 0049 00       		.byte	0
 10807 004a 03       		.uleb128 0x3
 10808 004b 0E       		.uleb128 0xe
 10809 004c 3A       		.uleb128 0x3a
 10810 004d 0B       		.uleb128 0xb
 10811 004e 3B       		.uleb128 0x3b
 10812 004f 0B       		.uleb128 0xb
 10813 0050 49       		.uleb128 0x49
 10814 0051 13       		.uleb128 0x13
 10815 0052 38       		.uleb128 0x38
 10816 0053 0A       		.uleb128 0xa
 10817 0054 00       		.byte	0
 10818 0055 00       		.byte	0
 10819 0056 07       		.uleb128 0x7
 10820 0057 0D       		.uleb128 0xd
 10821 0058 00       		.byte	0
 10822 0059 03       		.uleb128 0x3
 10823 005a 08       		.uleb128 0x8
 10824 005b 3A       		.uleb128 0x3a
 10825 005c 0B       		.uleb128 0xb
 10826 005d 3B       		.uleb128 0x3b
 10827 005e 0B       		.uleb128 0xb
 10828 005f 49       		.uleb128 0x49
 10829 0060 13       		.uleb128 0x13
 10830 0061 38       		.uleb128 0x38
 10831 0062 0A       		.uleb128 0xa
 10832 0063 00       		.byte	0
 10833 0064 00       		.byte	0
 10834 0065 08       		.uleb128 0x8
 10835 0066 13       		.uleb128 0x13
 10836 0067 01       		.byte	0x1
 10837 0068 0B       		.uleb128 0xb
 10838 0069 0B       		.uleb128 0xb
 10839 006a 3A       		.uleb128 0x3a
 10840 006b 0B       		.uleb128 0xb
 10841 006c 3B       		.uleb128 0x3b
 10842 006d 0B       		.uleb128 0xb
 10843 006e 01       		.uleb128 0x1
 10844 006f 13       		.uleb128 0x13
 10845 0070 00       		.byte	0
 10846 0071 00       		.byte	0
 10847 0072 09       		.uleb128 0x9
 10848 0073 0F       		.uleb128 0xf
 10849 0074 00       		.byte	0
 10850 0075 0B       		.uleb128 0xb
 10851 0076 0B       		.uleb128 0xb
 10852 0077 49       		.uleb128 0x49
ARM GAS  C:\Users\jenny\AppData\Local\Temp\ccLg5IEe.s 			page 192


 10853 0078 13       		.uleb128 0x13
 10854 0079 00       		.byte	0
 10855 007a 00       		.byte	0
 10856 007b 0A       		.uleb128 0xa
 10857 007c 0F       		.uleb128 0xf
 10858 007d 00       		.byte	0
 10859 007e 0B       		.uleb128 0xb
 10860 007f 0B       		.uleb128 0xb
 10861 0080 00       		.byte	0
 10862 0081 00       		.byte	0
 10863 0082 0B       		.uleb128 0xb
 10864 0083 13       		.uleb128 0x13
 10865 0084 01       		.byte	0x1
 10866 0085 03       		.uleb128 0x3
 10867 0086 0E       		.uleb128 0xe
 10868 0087 0B       		.uleb128 0xb
 10869 0088 0B       		.uleb128 0xb
 10870 0089 3A       		.uleb128 0x3a
 10871 008a 0B       		.uleb128 0xb
 10872 008b 3B       		.uleb128 0x3b
 10873 008c 05       		.uleb128 0x5
 10874 008d 01       		.uleb128 0x1
 10875 008e 13       		.uleb128 0x13
 10876 008f 00       		.byte	0
 10877 0090 00       		.byte	0
 10878 0091 0C       		.uleb128 0xc
 10879 0092 0D       		.uleb128 0xd
 10880 0093 00       		.byte	0
 10881 0094 03       		.uleb128 0x3
 10882 0095 08       		.uleb128 0x8
 10883 0096 3A       		.uleb128 0x3a
 10884 0097 0B       		.uleb128 0xb
 10885 0098 3B       		.uleb128 0x3b
 10886 0099 05       		.uleb128 0x5
 10887 009a 49       		.uleb128 0x49
 10888 009b 13       		.uleb128 0x13
 10889 009c 38       		.uleb128 0x38
 10890 009d 0A       		.uleb128 0xa
 10891 009e 00       		.byte	0
 10892 009f 00       		.byte	0
 10893 00a0 0D       		.uleb128 0xd
 10894 00a1 15       		.uleb128 0x15
 10895 00a2 01       		.byte	0x1
 10896 00a3 27       		.uleb128 0x27
 10897 00a4 0C       		.uleb128 0xc
 10898 00a5 01       		.uleb128 0x1
 10899 00a6 13       		.uleb128 0x13
 10900 00a7 00       		.byte	0
 10901 00a8 00       		.byte	0
 10902 00a9 0E       		.uleb128 0xe
 10903 00aa 05       		.uleb128 0x5
 10904 00ab 00       		.byte	0
 10905 00ac 49       		.uleb128 0x49
 10906 00ad 13       		.uleb128 0x13
 10907 00ae 00       		.byte	0
 10908 00af 00       		.byte	0
 10909 00b0 0F       		.uleb128 0xf
ARM GAS  C:\Users\jenny\AppData\Local\Temp\ccLg5IEe.s 			page 193


 10910 00b1 35       		.uleb128 0x35
 10911 00b2 00       		.byte	0
 10912 00b3 49       		.uleb128 0x49
 10913 00b4 13       		.uleb128 0x13
 10914 00b5 00       		.byte	0
 10915 00b6 00       		.byte	0
 10916 00b7 10       		.uleb128 0x10
 10917 00b8 17       		.uleb128 0x17
 10918 00b9 01       		.byte	0x1
 10919 00ba 0B       		.uleb128 0xb
 10920 00bb 0B       		.uleb128 0xb
 10921 00bc 3A       		.uleb128 0x3a
 10922 00bd 0B       		.uleb128 0xb
 10923 00be 3B       		.uleb128 0x3b
 10924 00bf 0B       		.uleb128 0xb
 10925 00c0 01       		.uleb128 0x1
 10926 00c1 13       		.uleb128 0x13
 10927 00c2 00       		.byte	0
 10928 00c3 00       		.byte	0
 10929 00c4 11       		.uleb128 0x11
 10930 00c5 0D       		.uleb128 0xd
 10931 00c6 00       		.byte	0
 10932 00c7 03       		.uleb128 0x3
 10933 00c8 0E       		.uleb128 0xe
 10934 00c9 3A       		.uleb128 0x3a
 10935 00ca 0B       		.uleb128 0xb
 10936 00cb 3B       		.uleb128 0x3b
 10937 00cc 0B       		.uleb128 0xb
 10938 00cd 49       		.uleb128 0x49
 10939 00ce 13       		.uleb128 0x13
 10940 00cf 00       		.byte	0
 10941 00d0 00       		.byte	0
 10942 00d1 12       		.uleb128 0x12
 10943 00d2 26       		.uleb128 0x26
 10944 00d3 00       		.byte	0
 10945 00d4 49       		.uleb128 0x49
 10946 00d5 13       		.uleb128 0x13
 10947 00d6 00       		.byte	0
 10948 00d7 00       		.byte	0
 10949 00d8 13       		.uleb128 0x13
 10950 00d9 01       		.uleb128 0x1
 10951 00da 01       		.byte	0x1
 10952 00db 49       		.uleb128 0x49
 10953 00dc 13       		.uleb128 0x13
 10954 00dd 01       		.uleb128 0x1
 10955 00de 13       		.uleb128 0x13
 10956 00df 00       		.byte	0
 10957 00e0 00       		.byte	0
 10958 00e1 14       		.uleb128 0x14
 10959 00e2 21       		.uleb128 0x21
 10960 00e3 00       		.byte	0
 10961 00e4 49       		.uleb128 0x49
 10962 00e5 13       		.uleb128 0x13
 10963 00e6 2F       		.uleb128 0x2f
 10964 00e7 0B       		.uleb128 0xb
 10965 00e8 00       		.byte	0
 10966 00e9 00       		.byte	0
ARM GAS  C:\Users\jenny\AppData\Local\Temp\ccLg5IEe.s 			page 194


 10967 00ea 15       		.uleb128 0x15
 10968 00eb 0D       		.uleb128 0xd
 10969 00ec 00       		.byte	0
 10970 00ed 03       		.uleb128 0x3
 10971 00ee 0E       		.uleb128 0xe
 10972 00ef 3A       		.uleb128 0x3a
 10973 00f0 0B       		.uleb128 0xb
 10974 00f1 3B       		.uleb128 0x3b
 10975 00f2 05       		.uleb128 0x5
 10976 00f3 49       		.uleb128 0x49
 10977 00f4 13       		.uleb128 0x13
 10978 00f5 38       		.uleb128 0x38
 10979 00f6 0A       		.uleb128 0xa
 10980 00f7 00       		.byte	0
 10981 00f8 00       		.byte	0
 10982 00f9 16       		.uleb128 0x16
 10983 00fa 16       		.uleb128 0x16
 10984 00fb 00       		.byte	0
 10985 00fc 03       		.uleb128 0x3
 10986 00fd 0E       		.uleb128 0xe
 10987 00fe 3A       		.uleb128 0x3a
 10988 00ff 0B       		.uleb128 0xb
 10989 0100 3B       		.uleb128 0x3b
 10990 0101 05       		.uleb128 0x5
 10991 0102 49       		.uleb128 0x49
 10992 0103 13       		.uleb128 0x13
 10993 0104 00       		.byte	0
 10994 0105 00       		.byte	0
 10995 0106 17       		.uleb128 0x17
 10996 0107 04       		.uleb128 0x4
 10997 0108 01       		.byte	0x1
 10998 0109 03       		.uleb128 0x3
 10999 010a 0E       		.uleb128 0xe
 11000 010b 0B       		.uleb128 0xb
 11001 010c 0B       		.uleb128 0xb
 11002 010d 3A       		.uleb128 0x3a
 11003 010e 0B       		.uleb128 0xb
 11004 010f 3B       		.uleb128 0x3b
 11005 0110 0B       		.uleb128 0xb
 11006 0111 01       		.uleb128 0x1
 11007 0112 13       		.uleb128 0x13
 11008 0113 00       		.byte	0
 11009 0114 00       		.byte	0
 11010 0115 18       		.uleb128 0x18
 11011 0116 28       		.uleb128 0x28
 11012 0117 00       		.byte	0
 11013 0118 03       		.uleb128 0x3
 11014 0119 0E       		.uleb128 0xe
 11015 011a 1C       		.uleb128 0x1c
 11016 011b 0D       		.uleb128 0xd
 11017 011c 00       		.byte	0
 11018 011d 00       		.byte	0
 11019 011e 19       		.uleb128 0x19
 11020 011f 0D       		.uleb128 0xd
 11021 0120 00       		.byte	0
 11022 0121 03       		.uleb128 0x3
 11023 0122 08       		.uleb128 0x8
ARM GAS  C:\Users\jenny\AppData\Local\Temp\ccLg5IEe.s 			page 195


 11024 0123 3A       		.uleb128 0x3a
 11025 0124 0B       		.uleb128 0xb
 11026 0125 3B       		.uleb128 0x3b
 11027 0126 0B       		.uleb128 0xb
 11028 0127 49       		.uleb128 0x49
 11029 0128 13       		.uleb128 0x13
 11030 0129 00       		.byte	0
 11031 012a 00       		.byte	0
 11032 012b 1A       		.uleb128 0x1a
 11033 012c 15       		.uleb128 0x15
 11034 012d 01       		.byte	0x1
 11035 012e 27       		.uleb128 0x27
 11036 012f 0C       		.uleb128 0xc
 11037 0130 49       		.uleb128 0x49
 11038 0131 13       		.uleb128 0x13
 11039 0132 01       		.uleb128 0x1
 11040 0133 13       		.uleb128 0x13
 11041 0134 00       		.byte	0
 11042 0135 00       		.byte	0
 11043 0136 1B       		.uleb128 0x1b
 11044 0137 13       		.uleb128 0x13
 11045 0138 00       		.byte	0
 11046 0139 03       		.uleb128 0x3
 11047 013a 0E       		.uleb128 0xe
 11048 013b 3C       		.uleb128 0x3c
 11049 013c 0C       		.uleb128 0xc
 11050 013d 00       		.byte	0
 11051 013e 00       		.byte	0
 11052 013f 1C       		.uleb128 0x1c
 11053 0140 26       		.uleb128 0x26
 11054 0141 00       		.byte	0
 11055 0142 00       		.byte	0
 11056 0143 00       		.byte	0
 11057 0144 1D       		.uleb128 0x1d
 11058 0145 2E       		.uleb128 0x2e
 11059 0146 01       		.byte	0x1
 11060 0147 03       		.uleb128 0x3
 11061 0148 0E       		.uleb128 0xe
 11062 0149 3A       		.uleb128 0x3a
 11063 014a 0B       		.uleb128 0xb
 11064 014b 3B       		.uleb128 0x3b
 11065 014c 0B       		.uleb128 0xb
 11066 014d 27       		.uleb128 0x27
 11067 014e 0C       		.uleb128 0xc
 11068 014f 49       		.uleb128 0x49
 11069 0150 13       		.uleb128 0x13
 11070 0151 20       		.uleb128 0x20
 11071 0152 0B       		.uleb128 0xb
 11072 0153 01       		.uleb128 0x1
 11073 0154 13       		.uleb128 0x13
 11074 0155 00       		.byte	0
 11075 0156 00       		.byte	0
 11076 0157 1E       		.uleb128 0x1e
 11077 0158 05       		.uleb128 0x5
 11078 0159 00       		.byte	0
 11079 015a 03       		.uleb128 0x3
 11080 015b 08       		.uleb128 0x8
ARM GAS  C:\Users\jenny\AppData\Local\Temp\ccLg5IEe.s 			page 196


 11081 015c 3A       		.uleb128 0x3a
 11082 015d 0B       		.uleb128 0xb
 11083 015e 3B       		.uleb128 0x3b
 11084 015f 0B       		.uleb128 0xb
 11085 0160 49       		.uleb128 0x49
 11086 0161 13       		.uleb128 0x13
 11087 0162 00       		.byte	0
 11088 0163 00       		.byte	0
 11089 0164 1F       		.uleb128 0x1f
 11090 0165 34       		.uleb128 0x34
 11091 0166 00       		.byte	0
 11092 0167 03       		.uleb128 0x3
 11093 0168 0E       		.uleb128 0xe
 11094 0169 3A       		.uleb128 0x3a
 11095 016a 0B       		.uleb128 0xb
 11096 016b 3B       		.uleb128 0x3b
 11097 016c 0B       		.uleb128 0xb
 11098 016d 49       		.uleb128 0x49
 11099 016e 13       		.uleb128 0x13
 11100 016f 00       		.byte	0
 11101 0170 00       		.byte	0
 11102 0171 20       		.uleb128 0x20
 11103 0172 2E       		.uleb128 0x2e
 11104 0173 01       		.byte	0x1
 11105 0174 03       		.uleb128 0x3
 11106 0175 0E       		.uleb128 0xe
 11107 0176 3A       		.uleb128 0x3a
 11108 0177 0B       		.uleb128 0xb
 11109 0178 3B       		.uleb128 0x3b
 11110 0179 0B       		.uleb128 0xb
 11111 017a 27       		.uleb128 0x27
 11112 017b 0C       		.uleb128 0xc
 11113 017c 49       		.uleb128 0x49
 11114 017d 13       		.uleb128 0x13
 11115 017e 11       		.uleb128 0x11
 11116 017f 01       		.uleb128 0x1
 11117 0180 12       		.uleb128 0x12
 11118 0181 01       		.uleb128 0x1
 11119 0182 40       		.uleb128 0x40
 11120 0183 06       		.uleb128 0x6
 11121 0184 9742     		.uleb128 0x2117
 11122 0186 0C       		.uleb128 0xc
 11123 0187 01       		.uleb128 0x1
 11124 0188 13       		.uleb128 0x13
 11125 0189 00       		.byte	0
 11126 018a 00       		.byte	0
 11127 018b 21       		.uleb128 0x21
 11128 018c 05       		.uleb128 0x5
 11129 018d 00       		.byte	0
 11130 018e 03       		.uleb128 0x3
 11131 018f 0E       		.uleb128 0xe
 11132 0190 3A       		.uleb128 0x3a
 11133 0191 0B       		.uleb128 0xb
 11134 0192 3B       		.uleb128 0x3b
 11135 0193 0B       		.uleb128 0xb
 11136 0194 49       		.uleb128 0x49
 11137 0195 13       		.uleb128 0x13
ARM GAS  C:\Users\jenny\AppData\Local\Temp\ccLg5IEe.s 			page 197


 11138 0196 02       		.uleb128 0x2
 11139 0197 06       		.uleb128 0x6
 11140 0198 00       		.byte	0
 11141 0199 00       		.byte	0
 11142 019a 22       		.uleb128 0x22
 11143 019b 34       		.uleb128 0x34
 11144 019c 00       		.byte	0
 11145 019d 03       		.uleb128 0x3
 11146 019e 08       		.uleb128 0x8
 11147 019f 3A       		.uleb128 0x3a
 11148 01a0 0B       		.uleb128 0xb
 11149 01a1 3B       		.uleb128 0x3b
 11150 01a2 0B       		.uleb128 0xb
 11151 01a3 49       		.uleb128 0x49
 11152 01a4 13       		.uleb128 0x13
 11153 01a5 02       		.uleb128 0x2
 11154 01a6 06       		.uleb128 0x6
 11155 01a7 00       		.byte	0
 11156 01a8 00       		.byte	0
 11157 01a9 23       		.uleb128 0x23
 11158 01aa 2E       		.uleb128 0x2e
 11159 01ab 01       		.byte	0x1
 11160 01ac 03       		.uleb128 0x3
 11161 01ad 0E       		.uleb128 0xe
 11162 01ae 3A       		.uleb128 0x3a
 11163 01af 0B       		.uleb128 0xb
 11164 01b0 3B       		.uleb128 0x3b
 11165 01b1 05       		.uleb128 0x5
 11166 01b2 27       		.uleb128 0x27
 11167 01b3 0C       		.uleb128 0xc
 11168 01b4 11       		.uleb128 0x11
 11169 01b5 01       		.uleb128 0x1
 11170 01b6 12       		.uleb128 0x12
 11171 01b7 01       		.uleb128 0x1
 11172 01b8 40       		.uleb128 0x40
 11173 01b9 06       		.uleb128 0x6
 11174 01ba 9742     		.uleb128 0x2117
 11175 01bc 0C       		.uleb128 0xc
 11176 01bd 01       		.uleb128 0x1
 11177 01be 13       		.uleb128 0x13
 11178 01bf 00       		.byte	0
 11179 01c0 00       		.byte	0
 11180 01c1 24       		.uleb128 0x24
 11181 01c2 05       		.uleb128 0x5
 11182 01c3 00       		.byte	0
 11183 01c4 03       		.uleb128 0x3
 11184 01c5 08       		.uleb128 0x8
 11185 01c6 3A       		.uleb128 0x3a
 11186 01c7 0B       		.uleb128 0xb
 11187 01c8 3B       		.uleb128 0x3b
 11188 01c9 05       		.uleb128 0x5
 11189 01ca 49       		.uleb128 0x49
 11190 01cb 13       		.uleb128 0x13
 11191 01cc 02       		.uleb128 0x2
 11192 01cd 06       		.uleb128 0x6
 11193 01ce 00       		.byte	0
 11194 01cf 00       		.byte	0
ARM GAS  C:\Users\jenny\AppData\Local\Temp\ccLg5IEe.s 			page 198


 11195 01d0 25       		.uleb128 0x25
 11196 01d1 34       		.uleb128 0x34
 11197 01d2 00       		.byte	0
 11198 01d3 03       		.uleb128 0x3
 11199 01d4 0E       		.uleb128 0xe
 11200 01d5 3A       		.uleb128 0x3a
 11201 01d6 0B       		.uleb128 0xb
 11202 01d7 3B       		.uleb128 0x3b
 11203 01d8 05       		.uleb128 0x5
 11204 01d9 49       		.uleb128 0x49
 11205 01da 13       		.uleb128 0x13
 11206 01db 02       		.uleb128 0x2
 11207 01dc 06       		.uleb128 0x6
 11208 01dd 00       		.byte	0
 11209 01de 00       		.byte	0
 11210 01df 26       		.uleb128 0x26
 11211 01e0 898201   		.uleb128 0x4109
 11212 01e3 00       		.byte	0
 11213 01e4 11       		.uleb128 0x11
 11214 01e5 01       		.uleb128 0x1
 11215 01e6 31       		.uleb128 0x31
 11216 01e7 13       		.uleb128 0x13
 11217 01e8 00       		.byte	0
 11218 01e9 00       		.byte	0
 11219 01ea 27       		.uleb128 0x27
 11220 01eb 898201   		.uleb128 0x4109
 11221 01ee 00       		.byte	0
 11222 01ef 11       		.uleb128 0x11
 11223 01f0 01       		.uleb128 0x1
 11224 01f1 9542     		.uleb128 0x2115
 11225 01f3 0C       		.uleb128 0xc
 11226 01f4 31       		.uleb128 0x31
 11227 01f5 13       		.uleb128 0x13
 11228 01f6 00       		.byte	0
 11229 01f7 00       		.byte	0
 11230 01f8 28       		.uleb128 0x28
 11231 01f9 2E       		.uleb128 0x2e
 11232 01fa 01       		.byte	0x1
 11233 01fb 03       		.uleb128 0x3
 11234 01fc 0E       		.uleb128 0xe
 11235 01fd 3A       		.uleb128 0x3a
 11236 01fe 0B       		.uleb128 0xb
 11237 01ff 3B       		.uleb128 0x3b
 11238 0200 05       		.uleb128 0x5
 11239 0201 27       		.uleb128 0x27
 11240 0202 0C       		.uleb128 0xc
 11241 0203 49       		.uleb128 0x49
 11242 0204 13       		.uleb128 0x13
 11243 0205 11       		.uleb128 0x11
 11244 0206 01       		.uleb128 0x1
 11245 0207 12       		.uleb128 0x12
 11246 0208 01       		.uleb128 0x1
 11247 0209 40       		.uleb128 0x40
 11248 020a 06       		.uleb128 0x6
 11249 020b 9742     		.uleb128 0x2117
 11250 020d 0C       		.uleb128 0xc
 11251 020e 01       		.uleb128 0x1
ARM GAS  C:\Users\jenny\AppData\Local\Temp\ccLg5IEe.s 			page 199


 11252 020f 13       		.uleb128 0x13
 11253 0210 00       		.byte	0
 11254 0211 00       		.byte	0
 11255 0212 29       		.uleb128 0x29
 11256 0213 05       		.uleb128 0x5
 11257 0214 00       		.byte	0
 11258 0215 03       		.uleb128 0x3
 11259 0216 0E       		.uleb128 0xe
 11260 0217 3A       		.uleb128 0x3a
 11261 0218 0B       		.uleb128 0xb
 11262 0219 3B       		.uleb128 0x3b
 11263 021a 05       		.uleb128 0x5
 11264 021b 49       		.uleb128 0x49
 11265 021c 13       		.uleb128 0x13
 11266 021d 02       		.uleb128 0x2
 11267 021e 06       		.uleb128 0x6
 11268 021f 00       		.byte	0
 11269 0220 00       		.byte	0
 11270 0221 2A       		.uleb128 0x2a
 11271 0222 05       		.uleb128 0x5
 11272 0223 00       		.byte	0
 11273 0224 03       		.uleb128 0x3
 11274 0225 0E       		.uleb128 0xe
 11275 0226 3A       		.uleb128 0x3a
 11276 0227 0B       		.uleb128 0xb
 11277 0228 3B       		.uleb128 0x3b
 11278 0229 05       		.uleb128 0x5
 11279 022a 49       		.uleb128 0x49
 11280 022b 13       		.uleb128 0x13
 11281 022c 02       		.uleb128 0x2
 11282 022d 0A       		.uleb128 0xa
 11283 022e 00       		.byte	0
 11284 022f 00       		.byte	0
 11285 0230 2B       		.uleb128 0x2b
 11286 0231 34       		.uleb128 0x34
 11287 0232 00       		.byte	0
 11288 0233 03       		.uleb128 0x3
 11289 0234 08       		.uleb128 0x8
 11290 0235 3A       		.uleb128 0x3a
 11291 0236 0B       		.uleb128 0xb
 11292 0237 3B       		.uleb128 0x3b
 11293 0238 05       		.uleb128 0x5
 11294 0239 49       		.uleb128 0x49
 11295 023a 13       		.uleb128 0x13
 11296 023b 02       		.uleb128 0x2
 11297 023c 06       		.uleb128 0x6
 11298 023d 00       		.byte	0
 11299 023e 00       		.byte	0
 11300 023f 2C       		.uleb128 0x2c
 11301 0240 34       		.uleb128 0x34
 11302 0241 00       		.byte	0
 11303 0242 03       		.uleb128 0x3
 11304 0243 0E       		.uleb128 0xe
 11305 0244 3A       		.uleb128 0x3a
 11306 0245 0B       		.uleb128 0xb
 11307 0246 3B       		.uleb128 0x3b
 11308 0247 05       		.uleb128 0x5
ARM GAS  C:\Users\jenny\AppData\Local\Temp\ccLg5IEe.s 			page 200


 11309 0248 49       		.uleb128 0x49
 11310 0249 13       		.uleb128 0x13
 11311 024a 02       		.uleb128 0x2
 11312 024b 0A       		.uleb128 0xa
 11313 024c 00       		.byte	0
 11314 024d 00       		.byte	0
 11315 024e 2D       		.uleb128 0x2d
 11316 024f 0B       		.uleb128 0xb
 11317 0250 01       		.byte	0x1
 11318 0251 55       		.uleb128 0x55
 11319 0252 06       		.uleb128 0x6
 11320 0253 00       		.byte	0
 11321 0254 00       		.byte	0
 11322 0255 2E       		.uleb128 0x2e
 11323 0256 1D       		.uleb128 0x1d
 11324 0257 01       		.byte	0x1
 11325 0258 31       		.uleb128 0x31
 11326 0259 13       		.uleb128 0x13
 11327 025a 52       		.uleb128 0x52
 11328 025b 01       		.uleb128 0x1
 11329 025c 55       		.uleb128 0x55
 11330 025d 06       		.uleb128 0x6
 11331 025e 58       		.uleb128 0x58
 11332 025f 0B       		.uleb128 0xb
 11333 0260 59       		.uleb128 0x59
 11334 0261 05       		.uleb128 0x5
 11335 0262 00       		.byte	0
 11336 0263 00       		.byte	0
 11337 0264 2F       		.uleb128 0x2f
 11338 0265 05       		.uleb128 0x5
 11339 0266 00       		.byte	0
 11340 0267 31       		.uleb128 0x31
 11341 0268 13       		.uleb128 0x13
 11342 0269 02       		.uleb128 0x2
 11343 026a 06       		.uleb128 0x6
 11344 026b 00       		.byte	0
 11345 026c 00       		.byte	0
 11346 026d 30       		.uleb128 0x30
 11347 026e 34       		.uleb128 0x34
 11348 026f 00       		.byte	0
 11349 0270 03       		.uleb128 0x3
 11350 0271 08       		.uleb128 0x8
 11351 0272 3A       		.uleb128 0x3a
 11352 0273 0B       		.uleb128 0xb
 11353 0274 3B       		.uleb128 0x3b
 11354 0275 05       		.uleb128 0x5
 11355 0276 49       		.uleb128 0x49
 11356 0277 13       		.uleb128 0x13
 11357 0278 02       		.uleb128 0x2
 11358 0279 0A       		.uleb128 0xa
 11359 027a 00       		.byte	0
 11360 027b 00       		.byte	0
 11361 027c 31       		.uleb128 0x31
 11362 027d 1D       		.uleb128 0x1d
 11363 027e 01       		.byte	0x1
 11364 027f 31       		.uleb128 0x31
 11365 0280 13       		.uleb128 0x13
ARM GAS  C:\Users\jenny\AppData\Local\Temp\ccLg5IEe.s 			page 201


 11366 0281 52       		.uleb128 0x52
 11367 0282 01       		.uleb128 0x1
 11368 0283 55       		.uleb128 0x55
 11369 0284 06       		.uleb128 0x6
 11370 0285 58       		.uleb128 0x58
 11371 0286 0B       		.uleb128 0xb
 11372 0287 59       		.uleb128 0x59
 11373 0288 05       		.uleb128 0x5
 11374 0289 01       		.uleb128 0x1
 11375 028a 13       		.uleb128 0x13
 11376 028b 00       		.byte	0
 11377 028c 00       		.byte	0
 11378 028d 32       		.uleb128 0x32
 11379 028e 34       		.uleb128 0x34
 11380 028f 00       		.byte	0
 11381 0290 31       		.uleb128 0x31
 11382 0291 13       		.uleb128 0x13
 11383 0292 02       		.uleb128 0x2
 11384 0293 06       		.uleb128 0x6
 11385 0294 00       		.byte	0
 11386 0295 00       		.byte	0
 11387 0296 33       		.uleb128 0x33
 11388 0297 898201   		.uleb128 0x4109
 11389 029a 01       		.byte	0x1
 11390 029b 11       		.uleb128 0x11
 11391 029c 01       		.uleb128 0x1
 11392 029d 31       		.uleb128 0x31
 11393 029e 13       		.uleb128 0x13
 11394 029f 01       		.uleb128 0x1
 11395 02a0 13       		.uleb128 0x13
 11396 02a1 00       		.byte	0
 11397 02a2 00       		.byte	0
 11398 02a3 34       		.uleb128 0x34
 11399 02a4 8A8201   		.uleb128 0x410a
 11400 02a7 00       		.byte	0
 11401 02a8 02       		.uleb128 0x2
 11402 02a9 0A       		.uleb128 0xa
 11403 02aa 9142     		.uleb128 0x2111
 11404 02ac 0A       		.uleb128 0xa
 11405 02ad 00       		.byte	0
 11406 02ae 00       		.byte	0
 11407 02af 35       		.uleb128 0x35
 11408 02b0 898201   		.uleb128 0x4109
 11409 02b3 01       		.byte	0x1
 11410 02b4 11       		.uleb128 0x11
 11411 02b5 01       		.uleb128 0x1
 11412 02b6 31       		.uleb128 0x31
 11413 02b7 13       		.uleb128 0x13
 11414 02b8 00       		.byte	0
 11415 02b9 00       		.byte	0
 11416 02ba 36       		.uleb128 0x36
 11417 02bb 0A       		.uleb128 0xa
 11418 02bc 00       		.byte	0
 11419 02bd 03       		.uleb128 0x3
 11420 02be 0E       		.uleb128 0xe
 11421 02bf 3A       		.uleb128 0x3a
 11422 02c0 0B       		.uleb128 0xb
ARM GAS  C:\Users\jenny\AppData\Local\Temp\ccLg5IEe.s 			page 202


 11423 02c1 3B       		.uleb128 0x3b
 11424 02c2 05       		.uleb128 0x5
 11425 02c3 00       		.byte	0
 11426 02c4 00       		.byte	0
 11427 02c5 37       		.uleb128 0x37
 11428 02c6 1D       		.uleb128 0x1d
 11429 02c7 01       		.byte	0x1
 11430 02c8 31       		.uleb128 0x31
 11431 02c9 13       		.uleb128 0x13
 11432 02ca 11       		.uleb128 0x11
 11433 02cb 01       		.uleb128 0x1
 11434 02cc 12       		.uleb128 0x12
 11435 02cd 01       		.uleb128 0x1
 11436 02ce 58       		.uleb128 0x58
 11437 02cf 0B       		.uleb128 0xb
 11438 02d0 59       		.uleb128 0x59
 11439 02d1 05       		.uleb128 0x5
 11440 02d2 01       		.uleb128 0x1
 11441 02d3 13       		.uleb128 0x13
 11442 02d4 00       		.byte	0
 11443 02d5 00       		.byte	0
 11444 02d6 38       		.uleb128 0x38
 11445 02d7 0B       		.uleb128 0xb
 11446 02d8 01       		.byte	0x1
 11447 02d9 11       		.uleb128 0x11
 11448 02da 01       		.uleb128 0x1
 11449 02db 12       		.uleb128 0x12
 11450 02dc 01       		.uleb128 0x1
 11451 02dd 00       		.byte	0
 11452 02de 00       		.byte	0
 11453 02df 39       		.uleb128 0x39
 11454 02e0 0B       		.uleb128 0xb
 11455 02e1 01       		.byte	0x1
 11456 02e2 55       		.uleb128 0x55
 11457 02e3 06       		.uleb128 0x6
 11458 02e4 01       		.uleb128 0x1
 11459 02e5 13       		.uleb128 0x13
 11460 02e6 00       		.byte	0
 11461 02e7 00       		.byte	0
 11462 02e8 3A       		.uleb128 0x3a
 11463 02e9 2E       		.uleb128 0x2e
 11464 02ea 00       		.byte	0
 11465 02eb 3F       		.uleb128 0x3f
 11466 02ec 0C       		.uleb128 0xc
 11467 02ed 03       		.uleb128 0x3
 11468 02ee 0E       		.uleb128 0xe
 11469 02ef 3A       		.uleb128 0x3a
 11470 02f0 0B       		.uleb128 0xb
 11471 02f1 3B       		.uleb128 0x3b
 11472 02f2 0B       		.uleb128 0xb
 11473 02f3 27       		.uleb128 0x27
 11474 02f4 0C       		.uleb128 0xc
 11475 02f5 11       		.uleb128 0x11
 11476 02f6 01       		.uleb128 0x1
 11477 02f7 12       		.uleb128 0x12
 11478 02f8 01       		.uleb128 0x1
 11479 02f9 40       		.uleb128 0x40
ARM GAS  C:\Users\jenny\AppData\Local\Temp\ccLg5IEe.s 			page 203


 11480 02fa 0A       		.uleb128 0xa
 11481 02fb 9742     		.uleb128 0x2117
 11482 02fd 0C       		.uleb128 0xc
 11483 02fe 00       		.byte	0
 11484 02ff 00       		.byte	0
 11485 0300 3B       		.uleb128 0x3b
 11486 0301 2E       		.uleb128 0x2e
 11487 0302 01       		.byte	0x1
 11488 0303 3F       		.uleb128 0x3f
 11489 0304 0C       		.uleb128 0xc
 11490 0305 03       		.uleb128 0x3
 11491 0306 0E       		.uleb128 0xe
 11492 0307 3A       		.uleb128 0x3a
 11493 0308 0B       		.uleb128 0xb
 11494 0309 3B       		.uleb128 0x3b
 11495 030a 05       		.uleb128 0x5
 11496 030b 27       		.uleb128 0x27
 11497 030c 0C       		.uleb128 0xc
 11498 030d 49       		.uleb128 0x49
 11499 030e 13       		.uleb128 0x13
 11500 030f 11       		.uleb128 0x11
 11501 0310 01       		.uleb128 0x1
 11502 0311 12       		.uleb128 0x12
 11503 0312 01       		.uleb128 0x1
 11504 0313 40       		.uleb128 0x40
 11505 0314 06       		.uleb128 0x6
 11506 0315 9742     		.uleb128 0x2117
 11507 0317 0C       		.uleb128 0xc
 11508 0318 01       		.uleb128 0x1
 11509 0319 13       		.uleb128 0x13
 11510 031a 00       		.byte	0
 11511 031b 00       		.byte	0
 11512 031c 3C       		.uleb128 0x3c
 11513 031d 2E       		.uleb128 0x2e
 11514 031e 01       		.byte	0x1
 11515 031f 03       		.uleb128 0x3
 11516 0320 0E       		.uleb128 0xe
 11517 0321 3A       		.uleb128 0x3a
 11518 0322 0B       		.uleb128 0xb
 11519 0323 3B       		.uleb128 0x3b
 11520 0324 05       		.uleb128 0x5
 11521 0325 27       		.uleb128 0x27
 11522 0326 0C       		.uleb128 0xc
 11523 0327 20       		.uleb128 0x20
 11524 0328 0B       		.uleb128 0xb
 11525 0329 01       		.uleb128 0x1
 11526 032a 13       		.uleb128 0x13
 11527 032b 00       		.byte	0
 11528 032c 00       		.byte	0
 11529 032d 3D       		.uleb128 0x3d
 11530 032e 05       		.uleb128 0x5
 11531 032f 00       		.byte	0
 11532 0330 03       		.uleb128 0x3
 11533 0331 0E       		.uleb128 0xe
 11534 0332 3A       		.uleb128 0x3a
 11535 0333 0B       		.uleb128 0xb
 11536 0334 3B       		.uleb128 0x3b
ARM GAS  C:\Users\jenny\AppData\Local\Temp\ccLg5IEe.s 			page 204


 11537 0335 05       		.uleb128 0x5
 11538 0336 49       		.uleb128 0x49
 11539 0337 13       		.uleb128 0x13
 11540 0338 00       		.byte	0
 11541 0339 00       		.byte	0
 11542 033a 3E       		.uleb128 0x3e
 11543 033b 34       		.uleb128 0x34
 11544 033c 00       		.byte	0
 11545 033d 03       		.uleb128 0x3
 11546 033e 0E       		.uleb128 0xe
 11547 033f 3A       		.uleb128 0x3a
 11548 0340 0B       		.uleb128 0xb
 11549 0341 3B       		.uleb128 0x3b
 11550 0342 05       		.uleb128 0x5
 11551 0343 49       		.uleb128 0x49
 11552 0344 13       		.uleb128 0x13
 11553 0345 00       		.byte	0
 11554 0346 00       		.byte	0
 11555 0347 3F       		.uleb128 0x3f
 11556 0348 0B       		.uleb128 0xb
 11557 0349 01       		.byte	0x1
 11558 034a 11       		.uleb128 0x11
 11559 034b 01       		.uleb128 0x1
 11560 034c 12       		.uleb128 0x12
 11561 034d 01       		.uleb128 0x1
 11562 034e 01       		.uleb128 0x1
 11563 034f 13       		.uleb128 0x13
 11564 0350 00       		.byte	0
 11565 0351 00       		.byte	0
 11566 0352 40       		.uleb128 0x40
 11567 0353 05       		.uleb128 0x5
 11568 0354 00       		.byte	0
 11569 0355 03       		.uleb128 0x3
 11570 0356 08       		.uleb128 0x8
 11571 0357 3A       		.uleb128 0x3a
 11572 0358 0B       		.uleb128 0xb
 11573 0359 3B       		.uleb128 0x3b
 11574 035a 05       		.uleb128 0x5
 11575 035b 49       		.uleb128 0x49
 11576 035c 13       		.uleb128 0x13
 11577 035d 02       		.uleb128 0x2
 11578 035e 0A       		.uleb128 0xa
 11579 035f 00       		.byte	0
 11580 0360 00       		.byte	0
 11581 0361 41       		.uleb128 0x41
 11582 0362 2E       		.uleb128 0x2e
 11583 0363 01       		.byte	0x1
 11584 0364 3F       		.uleb128 0x3f
 11585 0365 0C       		.uleb128 0xc
 11586 0366 03       		.uleb128 0x3
 11587 0367 0E       		.uleb128 0xe
 11588 0368 3A       		.uleb128 0x3a
 11589 0369 0B       		.uleb128 0xb
 11590 036a 3B       		.uleb128 0x3b
 11591 036b 05       		.uleb128 0x5
 11592 036c 27       		.uleb128 0x27
 11593 036d 0C       		.uleb128 0xc
ARM GAS  C:\Users\jenny\AppData\Local\Temp\ccLg5IEe.s 			page 205


 11594 036e 49       		.uleb128 0x49
 11595 036f 13       		.uleb128 0x13
 11596 0370 11       		.uleb128 0x11
 11597 0371 01       		.uleb128 0x1
 11598 0372 12       		.uleb128 0x12
 11599 0373 01       		.uleb128 0x1
 11600 0374 40       		.uleb128 0x40
 11601 0375 0A       		.uleb128 0xa
 11602 0376 9742     		.uleb128 0x2117
 11603 0378 0C       		.uleb128 0xc
 11604 0379 01       		.uleb128 0x1
 11605 037a 13       		.uleb128 0x13
 11606 037b 00       		.byte	0
 11607 037c 00       		.byte	0
 11608 037d 42       		.uleb128 0x42
 11609 037e 898201   		.uleb128 0x4109
 11610 0381 01       		.byte	0x1
 11611 0382 11       		.uleb128 0x11
 11612 0383 01       		.uleb128 0x1
 11613 0384 9542     		.uleb128 0x2115
 11614 0386 0C       		.uleb128 0xc
 11615 0387 31       		.uleb128 0x31
 11616 0388 13       		.uleb128 0x13
 11617 0389 00       		.byte	0
 11618 038a 00       		.byte	0
 11619 038b 43       		.uleb128 0x43
 11620 038c 0A       		.uleb128 0xa
 11621 038d 00       		.byte	0
 11622 038e 03       		.uleb128 0x3
 11623 038f 0E       		.uleb128 0xe
 11624 0390 3A       		.uleb128 0x3a
 11625 0391 0B       		.uleb128 0xb
 11626 0392 3B       		.uleb128 0x3b
 11627 0393 05       		.uleb128 0x5
 11628 0394 11       		.uleb128 0x11
 11629 0395 01       		.uleb128 0x1
 11630 0396 00       		.byte	0
 11631 0397 00       		.byte	0
 11632 0398 44       		.uleb128 0x44
 11633 0399 05       		.uleb128 0x5
 11634 039a 00       		.byte	0
 11635 039b 31       		.uleb128 0x31
 11636 039c 13       		.uleb128 0x13
 11637 039d 00       		.byte	0
 11638 039e 00       		.byte	0
 11639 039f 45       		.uleb128 0x45
 11640 03a0 1D       		.uleb128 0x1d
 11641 03a1 01       		.byte	0x1
 11642 03a2 31       		.uleb128 0x31
 11643 03a3 13       		.uleb128 0x13
 11644 03a4 11       		.uleb128 0x11
 11645 03a5 01       		.uleb128 0x1
 11646 03a6 12       		.uleb128 0x12
 11647 03a7 01       		.uleb128 0x1
 11648 03a8 58       		.uleb128 0x58
 11649 03a9 0B       		.uleb128 0xb
 11650 03aa 59       		.uleb128 0x59
ARM GAS  C:\Users\jenny\AppData\Local\Temp\ccLg5IEe.s 			page 206


 11651 03ab 05       		.uleb128 0x5
 11652 03ac 00       		.byte	0
 11653 03ad 00       		.byte	0
 11654 03ae 46       		.uleb128 0x46
 11655 03af 34       		.uleb128 0x34
 11656 03b0 00       		.byte	0
 11657 03b1 03       		.uleb128 0x3
 11658 03b2 0E       		.uleb128 0xe
 11659 03b3 3A       		.uleb128 0x3a
 11660 03b4 0B       		.uleb128 0xb
 11661 03b5 3B       		.uleb128 0x3b
 11662 03b6 0B       		.uleb128 0xb
 11663 03b7 49       		.uleb128 0x49
 11664 03b8 13       		.uleb128 0x13
 11665 03b9 02       		.uleb128 0x2
 11666 03ba 0A       		.uleb128 0xa
 11667 03bb 00       		.byte	0
 11668 03bc 00       		.byte	0
 11669 03bd 47       		.uleb128 0x47
 11670 03be 2E       		.uleb128 0x2e
 11671 03bf 00       		.byte	0
 11672 03c0 3F       		.uleb128 0x3f
 11673 03c1 0C       		.uleb128 0xc
 11674 03c2 03       		.uleb128 0x3
 11675 03c3 0E       		.uleb128 0xe
 11676 03c4 3A       		.uleb128 0x3a
 11677 03c5 0B       		.uleb128 0xb
 11678 03c6 3B       		.uleb128 0x3b
 11679 03c7 05       		.uleb128 0x5
 11680 03c8 27       		.uleb128 0x27
 11681 03c9 0C       		.uleb128 0xc
 11682 03ca 3C       		.uleb128 0x3c
 11683 03cb 0C       		.uleb128 0xc
 11684 03cc 00       		.byte	0
 11685 03cd 00       		.byte	0
 11686 03ce 48       		.uleb128 0x48
 11687 03cf 2E       		.uleb128 0x2e
 11688 03d0 01       		.byte	0x1
 11689 03d1 3F       		.uleb128 0x3f
 11690 03d2 0C       		.uleb128 0xc
 11691 03d3 03       		.uleb128 0x3
 11692 03d4 0E       		.uleb128 0xe
 11693 03d5 3A       		.uleb128 0x3a
 11694 03d6 0B       		.uleb128 0xb
 11695 03d7 3B       		.uleb128 0x3b
 11696 03d8 0B       		.uleb128 0xb
 11697 03d9 27       		.uleb128 0x27
 11698 03da 0C       		.uleb128 0xc
 11699 03db 3C       		.uleb128 0x3c
 11700 03dc 0C       		.uleb128 0xc
 11701 03dd 01       		.uleb128 0x1
 11702 03de 13       		.uleb128 0x13
 11703 03df 00       		.byte	0
 11704 03e0 00       		.byte	0
 11705 03e1 49       		.uleb128 0x49
 11706 03e2 2E       		.uleb128 0x2e
 11707 03e3 01       		.byte	0x1
ARM GAS  C:\Users\jenny\AppData\Local\Temp\ccLg5IEe.s 			page 207


 11708 03e4 3F       		.uleb128 0x3f
 11709 03e5 0C       		.uleb128 0xc
 11710 03e6 03       		.uleb128 0x3
 11711 03e7 0E       		.uleb128 0xe
 11712 03e8 3A       		.uleb128 0x3a
 11713 03e9 0B       		.uleb128 0xb
 11714 03ea 3B       		.uleb128 0x3b
 11715 03eb 0B       		.uleb128 0xb
 11716 03ec 27       		.uleb128 0x27
 11717 03ed 0C       		.uleb128 0xc
 11718 03ee 49       		.uleb128 0x49
 11719 03ef 13       		.uleb128 0x13
 11720 03f0 3C       		.uleb128 0x3c
 11721 03f1 0C       		.uleb128 0xc
 11722 03f2 01       		.uleb128 0x1
 11723 03f3 13       		.uleb128 0x13
 11724 03f4 00       		.byte	0
 11725 03f5 00       		.byte	0
 11726 03f6 4A       		.uleb128 0x4a
 11727 03f7 2E       		.uleb128 0x2e
 11728 03f8 01       		.byte	0x1
 11729 03f9 3F       		.uleb128 0x3f
 11730 03fa 0C       		.uleb128 0xc
 11731 03fb 03       		.uleb128 0x3
 11732 03fc 0E       		.uleb128 0xe
 11733 03fd 27       		.uleb128 0x27
 11734 03fe 0C       		.uleb128 0xc
 11735 03ff 49       		.uleb128 0x49
 11736 0400 13       		.uleb128 0x13
 11737 0401 34       		.uleb128 0x34
 11738 0402 0C       		.uleb128 0xc
 11739 0403 3C       		.uleb128 0x3c
 11740 0404 0C       		.uleb128 0xc
 11741 0405 01       		.uleb128 0x1
 11742 0406 13       		.uleb128 0x13
 11743 0407 00       		.byte	0
 11744 0408 00       		.byte	0
 11745 0409 4B       		.uleb128 0x4b
 11746 040a 2E       		.uleb128 0x2e
 11747 040b 01       		.byte	0x1
 11748 040c 3F       		.uleb128 0x3f
 11749 040d 0C       		.uleb128 0xc
 11750 040e 03       		.uleb128 0x3
 11751 040f 0E       		.uleb128 0xe
 11752 0410 3A       		.uleb128 0x3a
 11753 0411 0B       		.uleb128 0xb
 11754 0412 3B       		.uleb128 0x3b
 11755 0413 0B       		.uleb128 0xb
 11756 0414 27       		.uleb128 0x27
 11757 0415 0C       		.uleb128 0xc
 11758 0416 49       		.uleb128 0x49
 11759 0417 13       		.uleb128 0x13
 11760 0418 3C       		.uleb128 0x3c
 11761 0419 0C       		.uleb128 0xc
 11762 041a 00       		.byte	0
 11763 041b 00       		.byte	0
 11764 041c 00       		.byte	0
ARM GAS  C:\Users\jenny\AppData\Local\Temp\ccLg5IEe.s 			page 208


 11765              		.section	.debug_loc,"",%progbits
 11766              	.Ldebug_loc0:
 11767              	.LLST0:
 11768 0000 00000000 		.4byte	.LFB10
 11769 0004 06000000 		.4byte	.LCFI0
 11770 0008 0200     		.2byte	0x2
 11771 000a 7D       		.byte	0x7d
 11772 000b 00       		.sleb128 0
 11773 000c 06000000 		.4byte	.LCFI0
 11774 0010 6C000000 		.4byte	.LFE10
 11775 0014 0200     		.2byte	0x2
 11776 0016 7D       		.byte	0x7d
 11777 0017 10       		.sleb128 16
 11778 0018 00000000 		.4byte	0
 11779 001c 00000000 		.4byte	0
 11780              	.LLST1:
 11781 0020 00000000 		.4byte	.LVL0
 11782 0024 0E000000 		.4byte	.LVL2
 11783 0028 0100     		.2byte	0x1
 11784 002a 50       		.byte	0x50
 11785 002b 0E000000 		.4byte	.LVL2
 11786 002f 20000000 		.4byte	.LVL5
 11787 0033 0100     		.2byte	0x1
 11788 0035 54       		.byte	0x54
 11789 0036 20000000 		.4byte	.LVL5
 11790 003a 24000000 		.4byte	.LVL6
 11791 003e 0400     		.2byte	0x4
 11792 0040 F3       		.byte	0xf3
 11793 0041 01       		.uleb128 0x1
 11794 0042 50       		.byte	0x50
 11795 0043 9F       		.byte	0x9f
 11796 0044 24000000 		.4byte	.LVL6
 11797 0048 34000000 		.4byte	.LVL8
 11798 004c 0100     		.2byte	0x1
 11799 004e 54       		.byte	0x54
 11800 004f 34000000 		.4byte	.LVL8
 11801 0053 5E000000 		.4byte	.LVL12
 11802 0057 0200     		.2byte	0x2
 11803 0059 75       		.byte	0x75
 11804 005a 00       		.sleb128 0
 11805 005b 5E000000 		.4byte	.LVL12
 11806 005f 60000000 		.4byte	.LVL13
 11807 0063 0100     		.2byte	0x1
 11808 0065 50       		.byte	0x50
 11809 0066 60000000 		.4byte	.LVL13
 11810 006a 6C000000 		.4byte	.LFE10
 11811 006e 0100     		.2byte	0x1
 11812 0070 54       		.byte	0x54
 11813 0071 00000000 		.4byte	0
 11814 0075 00000000 		.4byte	0
 11815              	.LLST2:
 11816 0079 00000000 		.4byte	.LVL0
 11817 007d 20000000 		.4byte	.LVL5
 11818 0081 0100     		.2byte	0x1
 11819 0083 51       		.byte	0x51
 11820 0084 20000000 		.4byte	.LVL5
 11821 0088 24000000 		.4byte	.LVL6
ARM GAS  C:\Users\jenny\AppData\Local\Temp\ccLg5IEe.s 			page 209


 11822 008c 0400     		.2byte	0x4
 11823 008e F3       		.byte	0xf3
 11824 008f 01       		.uleb128 0x1
 11825 0090 51       		.byte	0x51
 11826 0091 9F       		.byte	0x9f
 11827 0092 24000000 		.4byte	.LVL6
 11828 0096 40000000 		.4byte	.LVL9
 11829 009a 0100     		.2byte	0x1
 11830 009c 51       		.byte	0x51
 11831 009d 40000000 		.4byte	.LVL9
 11832 00a1 56000000 		.4byte	.LVL10
 11833 00a5 0400     		.2byte	0x4
 11834 00a7 F3       		.byte	0xf3
 11835 00a8 01       		.uleb128 0x1
 11836 00a9 51       		.byte	0x51
 11837 00aa 9F       		.byte	0x9f
 11838 00ab 56000000 		.4byte	.LVL10
 11839 00af 58000000 		.4byte	.LVL11
 11840 00b3 0100     		.2byte	0x1
 11841 00b5 51       		.byte	0x51
 11842 00b6 58000000 		.4byte	.LVL11
 11843 00ba 5E000000 		.4byte	.LVL12
 11844 00be 0400     		.2byte	0x4
 11845 00c0 F3       		.byte	0xf3
 11846 00c1 01       		.uleb128 0x1
 11847 00c2 51       		.byte	0x51
 11848 00c3 9F       		.byte	0x9f
 11849 00c4 5E000000 		.4byte	.LVL12
 11850 00c8 6C000000 		.4byte	.LFE10
 11851 00cc 0100     		.2byte	0x1
 11852 00ce 51       		.byte	0x51
 11853 00cf 00000000 		.4byte	0
 11854 00d3 00000000 		.4byte	0
 11855              	.LLST3:
 11856 00d7 00000000 		.4byte	.LVL0
 11857 00db 0C000000 		.4byte	.LVL1
 11858 00df 0200     		.2byte	0x2
 11859 00e1 30       		.byte	0x30
 11860 00e2 9F       		.byte	0x9f
 11861 00e3 0C000000 		.4byte	.LVL1
 11862 00e7 12000000 		.4byte	.LVL3
 11863 00eb 0200     		.2byte	0x2
 11864 00ed 31       		.byte	0x31
 11865 00ee 9F       		.byte	0x9f
 11866 00ef 12000000 		.4byte	.LVL3
 11867 00f3 16000000 		.4byte	.LVL4
 11868 00f7 0200     		.2byte	0x2
 11869 00f9 32       		.byte	0x32
 11870 00fa 9F       		.byte	0x9f
 11871 00fb 16000000 		.4byte	.LVL4
 11872 00ff 20000000 		.4byte	.LVL5
 11873 0103 0200     		.2byte	0x2
 11874 0105 33       		.byte	0x33
 11875 0106 9F       		.byte	0x9f
 11876 0107 24000000 		.4byte	.LVL6
 11877 010b 26000000 		.4byte	.LVL7
 11878 010f 0200     		.2byte	0x2
ARM GAS  C:\Users\jenny\AppData\Local\Temp\ccLg5IEe.s 			page 210


 11879 0111 32       		.byte	0x32
 11880 0112 9F       		.byte	0x9f
 11881 0113 5E000000 		.4byte	.LVL12
 11882 0117 62000000 		.4byte	.LVL14
 11883 011b 0200     		.2byte	0x2
 11884 011d 30       		.byte	0x30
 11885 011e 9F       		.byte	0x9f
 11886 011f 62000000 		.4byte	.LVL14
 11887 0123 6C000000 		.4byte	.LFE10
 11888 0127 0200     		.2byte	0x2
 11889 0129 31       		.byte	0x31
 11890 012a 9F       		.byte	0x9f
 11891 012b 00000000 		.4byte	0
 11892 012f 00000000 		.4byte	0
 11893              	.LLST4:
 11894 0133 00000000 		.4byte	.LFB34
 11895 0137 02000000 		.4byte	.LCFI1
 11896 013b 0200     		.2byte	0x2
 11897 013d 7D       		.byte	0x7d
 11898 013e 00       		.sleb128 0
 11899 013f 02000000 		.4byte	.LCFI1
 11900 0143 04000000 		.4byte	.LCFI2
 11901 0147 0200     		.2byte	0x2
 11902 0149 7D       		.byte	0x7d
 11903 014a 08       		.sleb128 8
 11904 014b 04000000 		.4byte	.LCFI2
 11905 014f EC000000 		.4byte	.LFE34
 11906 0153 0200     		.2byte	0x2
 11907 0155 7D       		.byte	0x7d
 11908 0156 10       		.sleb128 16
 11909 0157 00000000 		.4byte	0
 11910 015b 00000000 		.4byte	0
 11911              	.LLST5:
 11912 015f 00000000 		.4byte	.LVL15
 11913 0163 08000000 		.4byte	.LVL16
 11914 0167 0100     		.2byte	0x1
 11915 0169 50       		.byte	0x50
 11916 016a 08000000 		.4byte	.LVL16
 11917 016e B2000000 		.4byte	.LVL46
 11918 0172 0400     		.2byte	0x4
 11919 0174 F3       		.byte	0xf3
 11920 0175 01       		.uleb128 0x1
 11921 0176 50       		.byte	0x50
 11922 0177 9F       		.byte	0x9f
 11923 0178 B2000000 		.4byte	.LVL46
 11924 017c B7000000 		.4byte	.LVL47-1
 11925 0180 0100     		.2byte	0x1
 11926 0182 50       		.byte	0x50
 11927 0183 B7000000 		.4byte	.LVL47-1
 11928 0187 EC000000 		.4byte	.LFE34
 11929 018b 0400     		.2byte	0x4
 11930 018d F3       		.byte	0xf3
 11931 018e 01       		.uleb128 0x1
 11932 018f 50       		.byte	0x50
 11933 0190 9F       		.byte	0x9f
 11934 0191 00000000 		.4byte	0
 11935 0195 00000000 		.4byte	0
ARM GAS  C:\Users\jenny\AppData\Local\Temp\ccLg5IEe.s 			page 211


 11936              	.LLST6:
 11937 0199 0C000000 		.4byte	.LVL17
 11938 019d B2000000 		.4byte	.LVL46
 11939 01a1 0100     		.2byte	0x1
 11940 01a3 54       		.byte	0x54
 11941 01a4 BC000000 		.4byte	.LVL48
 11942 01a8 EC000000 		.4byte	.LFE34
 11943 01ac 0100     		.2byte	0x1
 11944 01ae 54       		.byte	0x54
 11945 01af 00000000 		.4byte	0
 11946 01b3 00000000 		.4byte	0
 11947              	.LLST7:
 11948 01b7 0C000000 		.4byte	.LVL17
 11949 01bb 21000000 		.4byte	.LVL21-1
 11950 01bf 0100     		.2byte	0x1
 11951 01c1 53       		.byte	0x53
 11952 01c2 30000000 		.4byte	.LVL22
 11953 01c6 3A000000 		.4byte	.LVL23
 11954 01ca 0100     		.2byte	0x1
 11955 01cc 53       		.byte	0x53
 11956 01cd 44000000 		.4byte	.LVL26
 11957 01d1 56000000 		.4byte	.LVL27
 11958 01d5 0100     		.2byte	0x1
 11959 01d7 53       		.byte	0x53
 11960 01d8 68000000 		.4byte	.LVL30
 11961 01dc 76000000 		.4byte	.LVL33
 11962 01e0 0100     		.2byte	0x1
 11963 01e2 53       		.byte	0x53
 11964 01e3 7C000000 		.4byte	.LVL34
 11965 01e7 86000000 		.4byte	.LVL37
 11966 01eb 0100     		.2byte	0x1
 11967 01ed 53       		.byte	0x53
 11968 01ee 92000000 		.4byte	.LVL39
 11969 01f2 98000000 		.4byte	.LVL41
 11970 01f6 0100     		.2byte	0x1
 11971 01f8 53       		.byte	0x53
 11972 01f9 9E000000 		.4byte	.LVL42
 11973 01fd A6000000 		.4byte	.LVL45
 11974 0201 0100     		.2byte	0x1
 11975 0203 53       		.byte	0x53
 11976 0204 BC000000 		.4byte	.LVL48
 11977 0208 C0000000 		.4byte	.LVL50
 11978 020c 0100     		.2byte	0x1
 11979 020e 53       		.byte	0x53
 11980 020f DC000000 		.4byte	.LVL54
 11981 0213 E0000000 		.4byte	.LVL56
 11982 0217 0100     		.2byte	0x1
 11983 0219 53       		.byte	0x53
 11984 021a 00000000 		.4byte	0
 11985 021e 00000000 		.4byte	0
 11986              	.LLST8:
 11987 0222 0E000000 		.4byte	.LVL18
 11988 0226 21000000 		.4byte	.LVL21-1
 11989 022a 0100     		.2byte	0x1
 11990 022c 52       		.byte	0x52
 11991 022d 30000000 		.4byte	.LVL22
 11992 0231 3C000000 		.4byte	.LVL24
ARM GAS  C:\Users\jenny\AppData\Local\Temp\ccLg5IEe.s 			page 212


 11993 0235 0100     		.2byte	0x1
 11994 0237 52       		.byte	0x52
 11995 0238 44000000 		.4byte	.LVL26
 11996 023c 62000000 		.4byte	.LVL29
 11997 0240 0100     		.2byte	0x1
 11998 0242 52       		.byte	0x52
 11999 0243 68000000 		.4byte	.LVL30
 12000 0247 74000000 		.4byte	.LVL32
 12001 024b 0100     		.2byte	0x1
 12002 024d 52       		.byte	0x52
 12003 024e 7C000000 		.4byte	.LVL34
 12004 0252 88000000 		.4byte	.LVL38
 12005 0256 0100     		.2byte	0x1
 12006 0258 52       		.byte	0x52
 12007 0259 92000000 		.4byte	.LVL39
 12008 025d 96000000 		.4byte	.LVL40
 12009 0261 0100     		.2byte	0x1
 12010 0263 52       		.byte	0x52
 12011 0264 9E000000 		.4byte	.LVL42
 12012 0268 A4000000 		.4byte	.LVL44
 12013 026c 0100     		.2byte	0x1
 12014 026e 52       		.byte	0x52
 12015 026f BC000000 		.4byte	.LVL48
 12016 0273 BE000000 		.4byte	.LVL49
 12017 0277 0100     		.2byte	0x1
 12018 0279 52       		.byte	0x52
 12019 027a CC000000 		.4byte	.LVL51
 12020 027e D6000000 		.4byte	.LVL53
 12021 0282 0100     		.2byte	0x1
 12022 0284 52       		.byte	0x52
 12023 0285 DC000000 		.4byte	.LVL54
 12024 0289 E2000000 		.4byte	.LVL57
 12025 028d 0100     		.2byte	0x1
 12026 028f 52       		.byte	0x52
 12027 0290 00000000 		.4byte	0
 12028 0294 00000000 		.4byte	0
 12029              	.LLST9:
 12030 0298 10000000 		.4byte	.LVL19
 12031 029c 21000000 		.4byte	.LVL21-1
 12032 02a0 0100     		.2byte	0x1
 12033 02a2 51       		.byte	0x51
 12034 02a3 30000000 		.4byte	.LVL22
 12035 02a7 3E000000 		.4byte	.LVL25
 12036 02ab 0100     		.2byte	0x1
 12037 02ad 51       		.byte	0x51
 12038 02ae 44000000 		.4byte	.LVL26
 12039 02b2 60000000 		.4byte	.LVL28
 12040 02b6 0100     		.2byte	0x1
 12041 02b8 51       		.byte	0x51
 12042 02b9 68000000 		.4byte	.LVL30
 12043 02bd 84000000 		.4byte	.LVL36
 12044 02c1 0100     		.2byte	0x1
 12045 02c3 51       		.byte	0x51
 12046 02c4 92000000 		.4byte	.LVL39
 12047 02c8 A0000000 		.4byte	.LVL43
 12048 02cc 0100     		.2byte	0x1
 12049 02ce 51       		.byte	0x51
ARM GAS  C:\Users\jenny\AppData\Local\Temp\ccLg5IEe.s 			page 213


 12050 02cf CC000000 		.4byte	.LVL51
 12051 02d3 D2000000 		.4byte	.LVL52
 12052 02d7 0100     		.2byte	0x1
 12053 02d9 51       		.byte	0x51
 12054 02da DC000000 		.4byte	.LVL54
 12055 02de DE000000 		.4byte	.LVL55
 12056 02e2 0100     		.2byte	0x1
 12057 02e4 51       		.byte	0x51
 12058 02e5 00000000 		.4byte	0
 12059 02e9 00000000 		.4byte	0
 12060              	.LLST10:
 12061 02ed 08000000 		.4byte	.LVL16
 12062 02f1 18000000 		.4byte	.LVL20
 12063 02f5 0100     		.2byte	0x1
 12064 02f7 50       		.byte	0x50
 12065 02f8 68000000 		.4byte	.LVL30
 12066 02fc 72000000 		.4byte	.LVL31
 12067 0300 0100     		.2byte	0x1
 12068 0302 50       		.byte	0x50
 12069 0303 7C000000 		.4byte	.LVL34
 12070 0307 7E000000 		.4byte	.LVL35
 12071 030b 0100     		.2byte	0x1
 12072 030d 50       		.byte	0x50
 12073 030e 00000000 		.4byte	0
 12074 0312 00000000 		.4byte	0
 12075              	.LLST11:
 12076 0316 00000000 		.4byte	.LFB32
 12077 031a 02000000 		.4byte	.LCFI3
 12078 031e 0200     		.2byte	0x2
 12079 0320 7D       		.byte	0x7d
 12080 0321 00       		.sleb128 0
 12081 0322 02000000 		.4byte	.LCFI3
 12082 0326 04000000 		.4byte	.LCFI4
 12083 032a 0200     		.2byte	0x2
 12084 032c 7D       		.byte	0x7d
 12085 032d 08       		.sleb128 8
 12086 032e 04000000 		.4byte	.LCFI4
 12087 0332 0C010000 		.4byte	.LFE32
 12088 0336 0200     		.2byte	0x2
 12089 0338 7D       		.byte	0x7d
 12090 0339 10       		.sleb128 16
 12091 033a 00000000 		.4byte	0
 12092 033e 00000000 		.4byte	0
 12093              	.LLST12:
 12094 0342 00000000 		.4byte	.LVL58
 12095 0346 08000000 		.4byte	.LVL59
 12096 034a 0100     		.2byte	0x1
 12097 034c 50       		.byte	0x50
 12098 034d 08000000 		.4byte	.LVL59
 12099 0351 BE000000 		.4byte	.LVL89
 12100 0355 0400     		.2byte	0x4
 12101 0357 F3       		.byte	0xf3
 12102 0358 01       		.uleb128 0x1
 12103 0359 50       		.byte	0x50
 12104 035a 9F       		.byte	0x9f
 12105 035b BE000000 		.4byte	.LVL89
 12106 035f C3000000 		.4byte	.LVL90-1
ARM GAS  C:\Users\jenny\AppData\Local\Temp\ccLg5IEe.s 			page 214


 12107 0363 0100     		.2byte	0x1
 12108 0365 50       		.byte	0x50
 12109 0366 C3000000 		.4byte	.LVL90-1
 12110 036a 0C010000 		.4byte	.LFE32
 12111 036e 0400     		.2byte	0x4
 12112 0370 F3       		.byte	0xf3
 12113 0371 01       		.uleb128 0x1
 12114 0372 50       		.byte	0x50
 12115 0373 9F       		.byte	0x9f
 12116 0374 00000000 		.4byte	0
 12117 0378 00000000 		.4byte	0
 12118              	.LLST13:
 12119 037c 0C000000 		.4byte	.LVL60
 12120 0380 BE000000 		.4byte	.LVL89
 12121 0384 0100     		.2byte	0x1
 12122 0386 54       		.byte	0x54
 12123 0387 C8000000 		.4byte	.LVL91
 12124 038b 0C010000 		.4byte	.LFE32
 12125 038f 0100     		.2byte	0x1
 12126 0391 54       		.byte	0x54
 12127 0392 00000000 		.4byte	0
 12128 0396 00000000 		.4byte	0
 12129              	.LLST14:
 12130 039a 0C000000 		.4byte	.LVL60
 12131 039e 1E000000 		.4byte	.LVL64
 12132 03a2 0100     		.2byte	0x1
 12133 03a4 53       		.byte	0x53
 12134 03a5 30000000 		.4byte	.LVL66
 12135 03a9 3C000000 		.4byte	.LVL67
 12136 03ad 0100     		.2byte	0x1
 12137 03af 53       		.byte	0x53
 12138 03b0 42000000 		.4byte	.LVL69
 12139 03b4 54000000 		.4byte	.LVL70
 12140 03b8 0100     		.2byte	0x1
 12141 03ba 53       		.byte	0x53
 12142 03bb 5C000000 		.4byte	.LVL72
 12143 03bf 6C000000 		.4byte	.LVL75
 12144 03c3 0100     		.2byte	0x1
 12145 03c5 53       		.byte	0x53
 12146 03c6 70000000 		.4byte	.LVL76
 12147 03ca 76000000 		.4byte	.LVL79
 12148 03ce 0100     		.2byte	0x1
 12149 03d0 53       		.byte	0x53
 12150 03d1 7E000000 		.4byte	.LVL80
 12151 03d5 82000000 		.4byte	.LVL81
 12152 03d9 0100     		.2byte	0x1
 12153 03db 53       		.byte	0x53
 12154 03dc 88000000 		.4byte	.LVL83
 12155 03e0 92000000 		.4byte	.LVL84
 12156 03e4 0100     		.2byte	0x1
 12157 03e6 53       		.byte	0x53
 12158 03e7 C8000000 		.4byte	.LVL91
 12159 03eb D0000000 		.4byte	.LVL93
 12160 03ef 0100     		.2byte	0x1
 12161 03f1 53       		.byte	0x53
 12162 03f2 00000000 		.4byte	0
 12163 03f6 00000000 		.4byte	0
ARM GAS  C:\Users\jenny\AppData\Local\Temp\ccLg5IEe.s 			page 215


 12164              	.LLST15:
 12165 03fa 0E000000 		.4byte	.LVL61
 12166 03fe 21000000 		.4byte	.LVL65-1
 12167 0402 0100     		.2byte	0x1
 12168 0404 52       		.byte	0x52
 12169 0405 30000000 		.4byte	.LVL66
 12170 0409 3E000000 		.4byte	.LVL68
 12171 040d 0100     		.2byte	0x1
 12172 040f 52       		.byte	0x52
 12173 0410 42000000 		.4byte	.LVL69
 12174 0414 58000000 		.4byte	.LVL71
 12175 0418 0100     		.2byte	0x1
 12176 041a 52       		.byte	0x52
 12177 041b 5C000000 		.4byte	.LVL72
 12178 041f 68000000 		.4byte	.LVL74
 12179 0423 0100     		.2byte	0x1
 12180 0425 52       		.byte	0x52
 12181 0426 70000000 		.4byte	.LVL76
 12182 042a 74000000 		.4byte	.LVL78
 12183 042e 0100     		.2byte	0x1
 12184 0430 52       		.byte	0x52
 12185 0431 7E000000 		.4byte	.LVL80
 12186 0435 84000000 		.4byte	.LVL82
 12187 0439 0100     		.2byte	0x1
 12188 043b 52       		.byte	0x52
 12189 043c 88000000 		.4byte	.LVL83
 12190 0440 A8000000 		.4byte	.LVL85
 12191 0444 0100     		.2byte	0x1
 12192 0446 52       		.byte	0x52
 12193 0447 B0000000 		.4byte	.LVL87
 12194 044b B4000000 		.4byte	.LVL88
 12195 044f 0100     		.2byte	0x1
 12196 0451 52       		.byte	0x52
 12197 0452 C8000000 		.4byte	.LVL91
 12198 0456 CC000000 		.4byte	.LVL92
 12199 045a 0100     		.2byte	0x1
 12200 045c 52       		.byte	0x52
 12201 045d E6000000 		.4byte	.LVL94
 12202 0461 F2000000 		.4byte	.LVL95
 12203 0465 0100     		.2byte	0x1
 12204 0467 52       		.byte	0x52
 12205 0468 00000000 		.4byte	0
 12206 046c 00000000 		.4byte	0
 12207              	.LLST16:
 12208 0470 10000000 		.4byte	.LVL62
 12209 0474 21000000 		.4byte	.LVL65-1
 12210 0478 0100     		.2byte	0x1
 12211 047a 51       		.byte	0x51
 12212 047b 30000000 		.4byte	.LVL66
 12213 047f AC000000 		.4byte	.LVL86
 12214 0483 0100     		.2byte	0x1
 12215 0485 51       		.byte	0x51
 12216 0486 B0000000 		.4byte	.LVL87
 12217 048a BE000000 		.4byte	.LVL89
 12218 048e 0100     		.2byte	0x1
 12219 0490 51       		.byte	0x51
 12220 0491 C8000000 		.4byte	.LVL91
ARM GAS  C:\Users\jenny\AppData\Local\Temp\ccLg5IEe.s 			page 216


 12221 0495 0C010000 		.4byte	.LFE32
 12222 0499 0100     		.2byte	0x1
 12223 049b 51       		.byte	0x51
 12224 049c 00000000 		.4byte	0
 12225 04a0 00000000 		.4byte	0
 12226              	.LLST17:
 12227 04a4 08000000 		.4byte	.LVL59
 12228 04a8 18000000 		.4byte	.LVL63
 12229 04ac 0100     		.2byte	0x1
 12230 04ae 50       		.byte	0x50
 12231 04af 5C000000 		.4byte	.LVL72
 12232 04b3 66000000 		.4byte	.LVL73
 12233 04b7 0100     		.2byte	0x1
 12234 04b9 50       		.byte	0x50
 12235 04ba 70000000 		.4byte	.LVL76
 12236 04be 72000000 		.4byte	.LVL77
 12237 04c2 0100     		.2byte	0x1
 12238 04c4 50       		.byte	0x50
 12239 04c5 00000000 		.4byte	0
 12240 04c9 00000000 		.4byte	0
 12241              	.LLST18:
 12242 04cd 00000000 		.4byte	.LFB24
 12243 04d1 04000000 		.4byte	.LCFI5
 12244 04d5 0200     		.2byte	0x2
 12245 04d7 7D       		.byte	0x7d
 12246 04d8 00       		.sleb128 0
 12247 04d9 04000000 		.4byte	.LCFI5
 12248 04dd 06000000 		.4byte	.LCFI6
 12249 04e1 0200     		.2byte	0x2
 12250 04e3 7D       		.byte	0x7d
 12251 04e4 20       		.sleb128 32
 12252 04e5 06000000 		.4byte	.LCFI6
 12253 04e9 3A010000 		.4byte	.LFE24
 12254 04ed 0200     		.2byte	0x2
 12255 04ef 7D       		.byte	0x7d
 12256 04f0 38       		.sleb128 56
 12257 04f1 00000000 		.4byte	0
 12258 04f5 00000000 		.4byte	0
 12259              	.LLST19:
 12260 04f9 00000000 		.4byte	.LVL96
 12261 04fd 1A000000 		.4byte	.LVL98
 12262 0501 0100     		.2byte	0x1
 12263 0503 50       		.byte	0x50
 12264 0504 1A000000 		.4byte	.LVL98
 12265 0508 3A010000 		.4byte	.LFE24
 12266 050c 0100     		.2byte	0x1
 12267 050e 5B       		.byte	0x5b
 12268 050f 00000000 		.4byte	0
 12269 0513 00000000 		.4byte	0
 12270              	.LLST20:
 12271 0517 00000000 		.4byte	.LVL96
 12272 051b 02010000 		.4byte	.LVL110
 12273 051f 0100     		.2byte	0x1
 12274 0521 51       		.byte	0x51
 12275 0522 02010000 		.4byte	.LVL110
 12276 0526 18010000 		.4byte	.LVL112
 12277 052a 0400     		.2byte	0x4
ARM GAS  C:\Users\jenny\AppData\Local\Temp\ccLg5IEe.s 			page 217


 12278 052c F3       		.byte	0xf3
 12279 052d 01       		.uleb128 0x1
 12280 052e 51       		.byte	0x51
 12281 052f 9F       		.byte	0x9f
 12282 0530 18010000 		.4byte	.LVL112
 12283 0534 3A010000 		.4byte	.LFE24
 12284 0538 0100     		.2byte	0x1
 12285 053a 51       		.byte	0x51
 12286 053b 00000000 		.4byte	0
 12287 053f 00000000 		.4byte	0
 12288              	.LLST21:
 12289 0543 00000000 		.4byte	.LVL96
 12290 0547 0A010000 		.4byte	.LVL111
 12291 054b 0100     		.2byte	0x1
 12292 054d 52       		.byte	0x52
 12293 054e 0A010000 		.4byte	.LVL111
 12294 0552 18010000 		.4byte	.LVL112
 12295 0556 0400     		.2byte	0x4
 12296 0558 F3       		.byte	0xf3
 12297 0559 01       		.uleb128 0x1
 12298 055a 52       		.byte	0x52
 12299 055b 9F       		.byte	0x9f
 12300 055c 18010000 		.4byte	.LVL112
 12301 0560 3A010000 		.4byte	.LFE24
 12302 0564 0100     		.2byte	0x1
 12303 0566 52       		.byte	0x52
 12304 0567 00000000 		.4byte	0
 12305 056b 00000000 		.4byte	0
 12306              	.LLST22:
 12307 056f 00000000 		.4byte	.LVL96
 12308 0573 FA000000 		.4byte	.LVL109
 12309 0577 0100     		.2byte	0x1
 12310 0579 53       		.byte	0x53
 12311 057a FA000000 		.4byte	.LVL109
 12312 057e 18010000 		.4byte	.LVL112
 12313 0582 0400     		.2byte	0x4
 12314 0584 F3       		.byte	0xf3
 12315 0585 01       		.uleb128 0x1
 12316 0586 53       		.byte	0x53
 12317 0587 9F       		.byte	0x9f
 12318 0588 18010000 		.4byte	.LVL112
 12319 058c 3A010000 		.4byte	.LFE24
 12320 0590 0100     		.2byte	0x1
 12321 0592 53       		.byte	0x53
 12322 0593 00000000 		.4byte	0
 12323 0597 00000000 		.4byte	0
 12324              	.LLST23:
 12325 059b 18000000 		.4byte	.LVL97
 12326 059f 1E000000 		.4byte	.LVL99
 12327 05a3 0200     		.2byte	0x2
 12328 05a5 30       		.byte	0x30
 12329 05a6 9F       		.byte	0x9f
 12330 05a7 F2000000 		.4byte	.LVL107
 12331 05ab F8000000 		.4byte	.LVL108
 12332 05af 0100     		.2byte	0x1
 12333 05b1 54       		.byte	0x54
 12334 05b2 00000000 		.4byte	0
ARM GAS  C:\Users\jenny\AppData\Local\Temp\ccLg5IEe.s 			page 218


 12335 05b6 00000000 		.4byte	0
 12336              	.LLST24:
 12337 05ba 00000000 		.4byte	.LVL96
 12338 05be 1E000000 		.4byte	.LVL99
 12339 05c2 0200     		.2byte	0x2
 12340 05c4 30       		.byte	0x30
 12341 05c5 9F       		.byte	0x9f
 12342 05c6 84000000 		.4byte	.LVL103
 12343 05ca F8000000 		.4byte	.LVL108
 12344 05ce 0100     		.2byte	0x1
 12345 05d0 50       		.byte	0x50
 12346 05d1 00000000 		.4byte	0
 12347 05d5 00000000 		.4byte	0
 12348              	.LLST25:
 12349 05d9 1E000000 		.4byte	.LVL99
 12350 05dd 40000000 		.4byte	.LVL100
 12351 05e1 0200     		.2byte	0x2
 12352 05e3 30       		.byte	0x30
 12353 05e4 9F       		.byte	0x9f
 12354 05e5 40000000 		.4byte	.LVL100
 12355 05e9 68000000 		.4byte	.LVL102
 12356 05ed 0100     		.2byte	0x1
 12357 05ef 5A       		.byte	0x5a
 12358 05f0 18010000 		.4byte	.LVL112
 12359 05f4 2A010000 		.4byte	.LVL113
 12360 05f8 0200     		.2byte	0x2
 12361 05fa 30       		.byte	0x30
 12362 05fb 9F       		.byte	0x9f
 12363 05fc 2A010000 		.4byte	.LVL113
 12364 0600 2E010000 		.4byte	.LVL114
 12365 0604 0100     		.2byte	0x1
 12366 0606 5A       		.byte	0x5a
 12367 0607 00000000 		.4byte	0
 12368 060b 00000000 		.4byte	0
 12369              	.LLST26:
 12370 060f 1E000000 		.4byte	.LVL99
 12371 0613 4A000000 		.4byte	.LVL101
 12372 0617 0200     		.2byte	0x2
 12373 0619 30       		.byte	0x30
 12374 061a 9F       		.byte	0x9f
 12375 061b 4A000000 		.4byte	.LVL101
 12376 061f F8000000 		.4byte	.LVL108
 12377 0623 0200     		.2byte	0x2
 12378 0625 91       		.byte	0x91
 12379 0626 4C       		.sleb128 -52
 12380 0627 18010000 		.4byte	.LVL112
 12381 062b 2A010000 		.4byte	.LVL113
 12382 062f 0200     		.2byte	0x2
 12383 0631 30       		.byte	0x30
 12384 0632 9F       		.byte	0x9f
 12385 0633 2A010000 		.4byte	.LVL113
 12386 0637 3A010000 		.4byte	.LFE24
 12387 063b 0200     		.2byte	0x2
 12388 063d 91       		.byte	0x91
 12389 063e 4C       		.sleb128 -52
 12390 063f 00000000 		.4byte	0
 12391 0643 00000000 		.4byte	0
ARM GAS  C:\Users\jenny\AppData\Local\Temp\ccLg5IEe.s 			page 219


 12392              	.LLST27:
 12393 0647 1E000000 		.4byte	.LVL99
 12394 064b 4A000000 		.4byte	.LVL101
 12395 064f 0200     		.2byte	0x2
 12396 0651 30       		.byte	0x30
 12397 0652 9F       		.byte	0x9f
 12398 0653 4A000000 		.4byte	.LVL101
 12399 0657 F8000000 		.4byte	.LVL108
 12400 065b 0100     		.2byte	0x1
 12401 065d 59       		.byte	0x59
 12402 065e 18010000 		.4byte	.LVL112
 12403 0662 2A010000 		.4byte	.LVL113
 12404 0666 0200     		.2byte	0x2
 12405 0668 30       		.byte	0x30
 12406 0669 9F       		.byte	0x9f
 12407 066a 2A010000 		.4byte	.LVL113
 12408 066e 3A010000 		.4byte	.LFE24
 12409 0672 0100     		.2byte	0x1
 12410 0674 59       		.byte	0x59
 12411 0675 00000000 		.4byte	0
 12412 0679 00000000 		.4byte	0
 12413              	.LLST28:
 12414 067d 1E000000 		.4byte	.LVL99
 12415 0681 4A000000 		.4byte	.LVL101
 12416 0685 0200     		.2byte	0x2
 12417 0687 30       		.byte	0x30
 12418 0688 9F       		.byte	0x9f
 12419 0689 4A000000 		.4byte	.LVL101
 12420 068d DA000000 		.4byte	.LVL105
 12421 0691 0100     		.2byte	0x1
 12422 0693 55       		.byte	0x55
 12423 0694 18010000 		.4byte	.LVL112
 12424 0698 2A010000 		.4byte	.LVL113
 12425 069c 0200     		.2byte	0x2
 12426 069e 30       		.byte	0x30
 12427 069f 9F       		.byte	0x9f
 12428 06a0 2A010000 		.4byte	.LVL113
 12429 06a4 3A010000 		.4byte	.LFE24
 12430 06a8 0100     		.2byte	0x1
 12431 06aa 55       		.byte	0x55
 12432 06ab 00000000 		.4byte	0
 12433 06af 00000000 		.4byte	0
 12434              	.LLST29:
 12435 06b3 1E000000 		.4byte	.LVL99
 12436 06b7 F2000000 		.4byte	.LVL107
 12437 06bb 0100     		.2byte	0x1
 12438 06bd 54       		.byte	0x54
 12439 06be F2000000 		.4byte	.LVL107
 12440 06c2 F8000000 		.4byte	.LVL108
 12441 06c6 0300     		.2byte	0x3
 12442 06c8 74       		.byte	0x74
 12443 06c9 7F       		.sleb128 -1
 12444 06ca 9F       		.byte	0x9f
 12445 06cb 18010000 		.4byte	.LVL112
 12446 06cf 3A010000 		.4byte	.LFE24
 12447 06d3 0100     		.2byte	0x1
 12448 06d5 54       		.byte	0x54
ARM GAS  C:\Users\jenny\AppData\Local\Temp\ccLg5IEe.s 			page 220


 12449 06d6 00000000 		.4byte	0
 12450 06da 00000000 		.4byte	0
 12451              	.LLST30:
 12452 06de 00000000 		.4byte	.LFB28
 12453 06e2 04000000 		.4byte	.LCFI7
 12454 06e6 0200     		.2byte	0x2
 12455 06e8 7D       		.byte	0x7d
 12456 06e9 00       		.sleb128 0
 12457 06ea 04000000 		.4byte	.LCFI7
 12458 06ee 08000000 		.4byte	.LCFI8
 12459 06f2 0200     		.2byte	0x2
 12460 06f4 7D       		.byte	0x7d
 12461 06f5 18       		.sleb128 24
 12462 06f6 08000000 		.4byte	.LCFI8
 12463 06fa 78000000 		.4byte	.LFE28
 12464 06fe 0200     		.2byte	0x2
 12465 0700 7D       		.byte	0x7d
 12466 0701 30       		.sleb128 48
 12467 0702 00000000 		.4byte	0
 12468 0706 00000000 		.4byte	0
 12469              	.LLST31:
 12470 070a 00000000 		.4byte	.LVL115
 12471 070e 12000000 		.4byte	.LVL116
 12472 0712 0100     		.2byte	0x1
 12473 0714 50       		.byte	0x50
 12474 0715 12000000 		.4byte	.LVL116
 12475 0719 78000000 		.4byte	.LFE28
 12476 071d 0400     		.2byte	0x4
 12477 071f F3       		.byte	0xf3
 12478 0720 01       		.uleb128 0x1
 12479 0721 50       		.byte	0x50
 12480 0722 9F       		.byte	0x9f
 12481 0723 00000000 		.4byte	0
 12482 0727 00000000 		.4byte	0
 12483              	.LLST32:
 12484 072b 00000000 		.4byte	.LVL115
 12485 072f 16000000 		.4byte	.LVL118
 12486 0733 0100     		.2byte	0x1
 12487 0735 51       		.byte	0x51
 12488 0736 16000000 		.4byte	.LVL118
 12489 073a 78000000 		.4byte	.LFE28
 12490 073e 0100     		.2byte	0x1
 12491 0740 55       		.byte	0x55
 12492 0741 00000000 		.4byte	0
 12493 0745 00000000 		.4byte	0
 12494              	.LLST33:
 12495 0749 00000000 		.4byte	.LVL115
 12496 074d 14000000 		.4byte	.LVL117
 12497 0751 0100     		.2byte	0x1
 12498 0753 52       		.byte	0x52
 12499 0754 14000000 		.4byte	.LVL117
 12500 0758 78000000 		.4byte	.LFE28
 12501 075c 0100     		.2byte	0x1
 12502 075e 56       		.byte	0x56
 12503 075f 00000000 		.4byte	0
 12504 0763 00000000 		.4byte	0
 12505              	.LLST34:
ARM GAS  C:\Users\jenny\AppData\Local\Temp\ccLg5IEe.s 			page 221


 12506 0767 00000000 		.4byte	.LVL115
 12507 076b 3D000000 		.4byte	.LVL120-1
 12508 076f 0100     		.2byte	0x1
 12509 0771 53       		.byte	0x53
 12510 0772 3D000000 		.4byte	.LVL120-1
 12511 0776 68000000 		.4byte	.LVL123
 12512 077a 0400     		.2byte	0x4
 12513 077c F3       		.byte	0xf3
 12514 077d 01       		.uleb128 0x1
 12515 077e 53       		.byte	0x53
 12516 077f 9F       		.byte	0x9f
 12517 0780 68000000 		.4byte	.LVL123
 12518 0784 6C000000 		.4byte	.LVL124
 12519 0788 0100     		.2byte	0x1
 12520 078a 53       		.byte	0x53
 12521 078b 6C000000 		.4byte	.LVL124
 12522 078f 78000000 		.4byte	.LFE28
 12523 0793 0400     		.2byte	0x4
 12524 0795 F3       		.byte	0xf3
 12525 0796 01       		.uleb128 0x1
 12526 0797 53       		.byte	0x53
 12527 0798 9F       		.byte	0x9f
 12528 0799 00000000 		.4byte	0
 12529 079d 00000000 		.4byte	0
 12530              	.LLST36:
 12531 07a1 1A000000 		.4byte	.LVL119
 12532 07a5 68000000 		.4byte	.LVL123
 12533 07a9 0100     		.2byte	0x1
 12534 07ab 58       		.byte	0x58
 12535 07ac 00000000 		.4byte	0
 12536 07b0 00000000 		.4byte	0
 12537              	.LLST37:
 12538 07b4 00000000 		.4byte	.LFB26
 12539 07b8 04000000 		.4byte	.LCFI9
 12540 07bc 0200     		.2byte	0x2
 12541 07be 7D       		.byte	0x7d
 12542 07bf 00       		.sleb128 0
 12543 07c0 04000000 		.4byte	.LCFI9
 12544 07c4 F8000000 		.4byte	.LFE26
 12545 07c8 0200     		.2byte	0x2
 12546 07ca 7D       		.byte	0x7d
 12547 07cb 20       		.sleb128 32
 12548 07cc 00000000 		.4byte	0
 12549 07d0 00000000 		.4byte	0
 12550              	.LLST38:
 12551 07d4 00000000 		.4byte	.LVL125
 12552 07d8 18000000 		.4byte	.LVL129
 12553 07dc 0100     		.2byte	0x1
 12554 07de 50       		.byte	0x50
 12555 07df 18000000 		.4byte	.LVL129
 12556 07e3 30000000 		.4byte	.LVL131
 12557 07e7 0400     		.2byte	0x4
 12558 07e9 F3       		.byte	0xf3
 12559 07ea 01       		.uleb128 0x1
 12560 07eb 50       		.byte	0x50
 12561 07ec 9F       		.byte	0x9f
 12562 07ed 30000000 		.4byte	.LVL131
ARM GAS  C:\Users\jenny\AppData\Local\Temp\ccLg5IEe.s 			page 222


 12563 07f1 34000000 		.4byte	.LVL132
 12564 07f5 0100     		.2byte	0x1
 12565 07f7 50       		.byte	0x50
 12566 07f8 34000000 		.4byte	.LVL132
 12567 07fc E2000000 		.4byte	.LVL148
 12568 0800 0400     		.2byte	0x4
 12569 0802 F3       		.byte	0xf3
 12570 0803 01       		.uleb128 0x1
 12571 0804 50       		.byte	0x50
 12572 0805 9F       		.byte	0x9f
 12573 0806 E2000000 		.4byte	.LVL148
 12574 080a F8000000 		.4byte	.LFE26
 12575 080e 0100     		.2byte	0x1
 12576 0810 50       		.byte	0x50
 12577 0811 00000000 		.4byte	0
 12578 0815 00000000 		.4byte	0
 12579              	.LLST39:
 12580 0819 00000000 		.4byte	.LVL125
 12581 081d 34000000 		.4byte	.LVL132
 12582 0821 0100     		.2byte	0x1
 12583 0823 51       		.byte	0x51
 12584 0824 34000000 		.4byte	.LVL132
 12585 0828 38000000 		.4byte	.LVL133
 12586 082c 0400     		.2byte	0x4
 12587 082e F3       		.byte	0xf3
 12588 082f 01       		.uleb128 0x1
 12589 0830 51       		.byte	0x51
 12590 0831 9F       		.byte	0x9f
 12591 0832 38000000 		.4byte	.LVL133
 12592 0836 3A000000 		.4byte	.LVL134
 12593 083a 0100     		.2byte	0x1
 12594 083c 51       		.byte	0x51
 12595 083d 3A000000 		.4byte	.LVL134
 12596 0841 A4000000 		.4byte	.LVL141
 12597 0845 0400     		.2byte	0x4
 12598 0847 F3       		.byte	0xf3
 12599 0848 01       		.uleb128 0x1
 12600 0849 51       		.byte	0x51
 12601 084a 9F       		.byte	0x9f
 12602 084b A4000000 		.4byte	.LVL141
 12603 084f BE000000 		.4byte	.LVL142
 12604 0853 0100     		.2byte	0x1
 12605 0855 51       		.byte	0x51
 12606 0856 BE000000 		.4byte	.LVL142
 12607 085a C4000000 		.4byte	.LVL143
 12608 085e 0400     		.2byte	0x4
 12609 0860 F3       		.byte	0xf3
 12610 0861 01       		.uleb128 0x1
 12611 0862 51       		.byte	0x51
 12612 0863 9F       		.byte	0x9f
 12613 0864 C4000000 		.4byte	.LVL143
 12614 0868 CF000000 		.4byte	.LVL144-1
 12615 086c 0100     		.2byte	0x1
 12616 086e 51       		.byte	0x51
 12617 086f CF000000 		.4byte	.LVL144-1
 12618 0873 DE000000 		.4byte	.LVL147
 12619 0877 0400     		.2byte	0x4
ARM GAS  C:\Users\jenny\AppData\Local\Temp\ccLg5IEe.s 			page 223


 12620 0879 F3       		.byte	0xf3
 12621 087a 01       		.uleb128 0x1
 12622 087b 51       		.byte	0x51
 12623 087c 9F       		.byte	0x9f
 12624 087d DE000000 		.4byte	.LVL147
 12625 0881 F8000000 		.4byte	.LFE26
 12626 0885 0100     		.2byte	0x1
 12627 0887 51       		.byte	0x51
 12628 0888 00000000 		.4byte	0
 12629 088c 00000000 		.4byte	0
 12630              	.LLST40:
 12631 0890 00000000 		.4byte	.LVL125
 12632 0894 16000000 		.4byte	.LVL128
 12633 0898 0100     		.2byte	0x1
 12634 089a 52       		.byte	0x52
 12635 089b 16000000 		.4byte	.LVL128
 12636 089f 30000000 		.4byte	.LVL131
 12637 08a3 0400     		.2byte	0x4
 12638 08a5 F3       		.byte	0xf3
 12639 08a6 01       		.uleb128 0x1
 12640 08a7 52       		.byte	0x52
 12641 08a8 9F       		.byte	0x9f
 12642 08a9 30000000 		.4byte	.LVL131
 12643 08ad 34000000 		.4byte	.LVL132
 12644 08b1 0100     		.2byte	0x1
 12645 08b3 52       		.byte	0x52
 12646 08b4 34000000 		.4byte	.LVL132
 12647 08b8 E2000000 		.4byte	.LVL148
 12648 08bc 0400     		.2byte	0x4
 12649 08be F3       		.byte	0xf3
 12650 08bf 01       		.uleb128 0x1
 12651 08c0 52       		.byte	0x52
 12652 08c1 9F       		.byte	0x9f
 12653 08c2 E2000000 		.4byte	.LVL148
 12654 08c6 F8000000 		.4byte	.LFE26
 12655 08ca 0100     		.2byte	0x1
 12656 08cc 52       		.byte	0x52
 12657 08cd 00000000 		.4byte	0
 12658 08d1 00000000 		.4byte	0
 12659              	.LLST41:
 12660 08d5 08000000 		.4byte	.LVL126
 12661 08d9 34000000 		.4byte	.LVL132
 12662 08dd 0100     		.2byte	0x1
 12663 08df 54       		.byte	0x54
 12664 08e0 38000000 		.4byte	.LVL133
 12665 08e4 50000000 		.4byte	.LVL135
 12666 08e8 0100     		.2byte	0x1
 12667 08ea 54       		.byte	0x54
 12668 08eb A4000000 		.4byte	.LVL141
 12669 08ef D2000000 		.4byte	.LVL145
 12670 08f3 0100     		.2byte	0x1
 12671 08f5 54       		.byte	0x54
 12672 08f6 DE000000 		.4byte	.LVL147
 12673 08fa E4000000 		.4byte	.LVL149
 12674 08fe 0100     		.2byte	0x1
 12675 0900 54       		.byte	0x54
 12676 0901 E4000000 		.4byte	.LVL149
ARM GAS  C:\Users\jenny\AppData\Local\Temp\ccLg5IEe.s 			page 224


 12677 0905 F8000000 		.4byte	.LFE26
 12678 0909 0200     		.2byte	0x2
 12679 090b 70       		.byte	0x70
 12680 090c 18       		.sleb128 24
 12681 090d 00000000 		.4byte	0
 12682 0911 00000000 		.4byte	0
 12683              	.LLST42:
 12684 0915 52000000 		.4byte	.LVL136
 12685 0919 A4000000 		.4byte	.LVL141
 12686 091d 0100     		.2byte	0x1
 12687 091f 54       		.byte	0x54
 12688 0920 D2000000 		.4byte	.LVL145
 12689 0924 DE000000 		.4byte	.LVL147
 12690 0928 0100     		.2byte	0x1
 12691 092a 54       		.byte	0x54
 12692 092b 00000000 		.4byte	0
 12693 092f 00000000 		.4byte	0
 12694              	.LLST43:
 12695 0933 94000000 		.4byte	.LVL139
 12696 0937 A4000000 		.4byte	.LVL141
 12697 093b 0100     		.2byte	0x1
 12698 093d 50       		.byte	0x50
 12699 093e 00000000 		.4byte	0
 12700 0942 00000000 		.4byte	0
 12701              	.LLST44:
 12702 0946 0C000000 		.4byte	.LVL127
 12703 094a 30000000 		.4byte	.LVL131
 12704 094e 0100     		.2byte	0x1
 12705 0950 54       		.byte	0x54
 12706 0951 38000000 		.4byte	.LVL133
 12707 0955 50000000 		.4byte	.LVL135
 12708 0959 0100     		.2byte	0x1
 12709 095b 54       		.byte	0x54
 12710 095c A4000000 		.4byte	.LVL141
 12711 0960 D2000000 		.4byte	.LVL145
 12712 0964 0100     		.2byte	0x1
 12713 0966 54       		.byte	0x54
 12714 0967 DE000000 		.4byte	.LVL147
 12715 096b E2000000 		.4byte	.LVL148
 12716 096f 0100     		.2byte	0x1
 12717 0971 54       		.byte	0x54
 12718 0972 00000000 		.4byte	0
 12719 0976 00000000 		.4byte	0
 12720              	.LLST45:
 12721 097a 1C000000 		.4byte	.LVL130
 12722 097e 30000000 		.4byte	.LVL131
 12723 0982 0100     		.2byte	0x1
 12724 0984 58       		.byte	0x58
 12725 0985 38000000 		.4byte	.LVL133
 12726 0989 E2000000 		.4byte	.LVL148
 12727 098d 0100     		.2byte	0x1
 12728 098f 58       		.byte	0x58
 12729 0990 00000000 		.4byte	0
 12730 0994 00000000 		.4byte	0
 12731              	.LLST46:
 12732 0998 5A000000 		.4byte	.LVL137
 12733 099c 92000000 		.4byte	.LVL138
ARM GAS  C:\Users\jenny\AppData\Local\Temp\ccLg5IEe.s 			page 225


 12734 09a0 0200     		.2byte	0x2
 12735 09a2 30       		.byte	0x30
 12736 09a3 9F       		.byte	0x9f
 12737 09a4 D2000000 		.4byte	.LVL145
 12738 09a8 DE000000 		.4byte	.LVL147
 12739 09ac 0200     		.2byte	0x2
 12740 09ae 30       		.byte	0x30
 12741 09af 9F       		.byte	0x9f
 12742 09b0 00000000 		.4byte	0
 12743 09b4 00000000 		.4byte	0
 12744              	.LLST47:
 12745 09b8 00000000 		.4byte	.LFB12
 12746 09bc 04000000 		.4byte	.LCFI10
 12747 09c0 0200     		.2byte	0x2
 12748 09c2 7D       		.byte	0x7d
 12749 09c3 00       		.sleb128 0
 12750 09c4 04000000 		.4byte	.LCFI10
 12751 09c8 08000000 		.4byte	.LCFI11
 12752 09cc 0200     		.2byte	0x2
 12753 09ce 7D       		.byte	0x7d
 12754 09cf 18       		.sleb128 24
 12755 09d0 08000000 		.4byte	.LCFI11
 12756 09d4 54010000 		.4byte	.LFE12
 12757 09d8 0300     		.2byte	0x3
 12758 09da 7D       		.byte	0x7d
 12759 09db C000     		.sleb128 64
 12760 09dd 00000000 		.4byte	0
 12761 09e1 00000000 		.4byte	0
 12762              	.LLST48:
 12763 09e5 00000000 		.4byte	.LVL150
 12764 09e9 12000000 		.4byte	.LVL151
 12765 09ed 0100     		.2byte	0x1
 12766 09ef 50       		.byte	0x50
 12767 09f0 12000000 		.4byte	.LVL151
 12768 09f4 54010000 		.4byte	.LFE12
 12769 09f8 0400     		.2byte	0x4
 12770 09fa F3       		.byte	0xf3
 12771 09fb 01       		.uleb128 0x1
 12772 09fc 50       		.byte	0x50
 12773 09fd 9F       		.byte	0x9f
 12774 09fe 00000000 		.4byte	0
 12775 0a02 00000000 		.4byte	0
 12776              	.LLST49:
 12777 0a06 00000000 		.4byte	.LVL150
 12778 0a0a 16000000 		.4byte	.LVL152
 12779 0a0e 0100     		.2byte	0x1
 12780 0a10 51       		.byte	0x51
 12781 0a11 16000000 		.4byte	.LVL152
 12782 0a15 54010000 		.4byte	.LFE12
 12783 0a19 0100     		.2byte	0x1
 12784 0a1b 57       		.byte	0x57
 12785 0a1c 00000000 		.4byte	0
 12786 0a20 00000000 		.4byte	0
 12787              	.LLST50:
 12788 0a24 00000000 		.4byte	.LVL150
 12789 0a28 22000000 		.4byte	.LVL154
 12790 0a2c 0100     		.2byte	0x1
ARM GAS  C:\Users\jenny\AppData\Local\Temp\ccLg5IEe.s 			page 226


 12791 0a2e 52       		.byte	0x52
 12792 0a2f 22000000 		.4byte	.LVL154
 12793 0a33 40000000 		.4byte	.LVL156
 12794 0a37 0100     		.2byte	0x1
 12795 0a39 54       		.byte	0x54
 12796 0a3a 40000000 		.4byte	.LVL156
 12797 0a3e 44000000 		.4byte	.LVL157
 12798 0a42 0400     		.2byte	0x4
 12799 0a44 F3       		.byte	0xf3
 12800 0a45 01       		.uleb128 0x1
 12801 0a46 52       		.byte	0x52
 12802 0a47 9F       		.byte	0x9f
 12803 0a48 44000000 		.4byte	.LVL157
 12804 0a4c 48000000 		.4byte	.LVL158
 12805 0a50 0100     		.2byte	0x1
 12806 0a52 52       		.byte	0x52
 12807 0a53 48000000 		.4byte	.LVL158
 12808 0a57 50000000 		.4byte	.LVL159
 12809 0a5b 0400     		.2byte	0x4
 12810 0a5d F3       		.byte	0xf3
 12811 0a5e 01       		.uleb128 0x1
 12812 0a5f 52       		.byte	0x52
 12813 0a60 9F       		.byte	0x9f
 12814 0a61 50000000 		.4byte	.LVL159
 12815 0a65 BE000000 		.4byte	.LVL167
 12816 0a69 0100     		.2byte	0x1
 12817 0a6b 54       		.byte	0x54
 12818 0a6c BE000000 		.4byte	.LVL167
 12819 0a70 F4000000 		.4byte	.LVL173
 12820 0a74 0400     		.2byte	0x4
 12821 0a76 F3       		.byte	0xf3
 12822 0a77 01       		.uleb128 0x1
 12823 0a78 52       		.byte	0x52
 12824 0a79 9F       		.byte	0x9f
 12825 0a7a F4000000 		.4byte	.LVL173
 12826 0a7e 0A010000 		.4byte	.LVL178
 12827 0a82 0100     		.2byte	0x1
 12828 0a84 54       		.byte	0x54
 12829 0a85 0A010000 		.4byte	.LVL178
 12830 0a89 0C010000 		.4byte	.LVL179
 12831 0a8d 0400     		.2byte	0x4
 12832 0a8f F3       		.byte	0xf3
 12833 0a90 01       		.uleb128 0x1
 12834 0a91 52       		.byte	0x52
 12835 0a92 9F       		.byte	0x9f
 12836 0a93 0C010000 		.4byte	.LVL179
 12837 0a97 16010000 		.4byte	.LVL182
 12838 0a9b 0100     		.2byte	0x1
 12839 0a9d 54       		.byte	0x54
 12840 0a9e 16010000 		.4byte	.LVL182
 12841 0aa2 2E010000 		.4byte	.LVL183
 12842 0aa6 0400     		.2byte	0x4
 12843 0aa8 F3       		.byte	0xf3
 12844 0aa9 01       		.uleb128 0x1
 12845 0aaa 52       		.byte	0x52
 12846 0aab 9F       		.byte	0x9f
 12847 0aac 2E010000 		.4byte	.LVL183
ARM GAS  C:\Users\jenny\AppData\Local\Temp\ccLg5IEe.s 			page 227


 12848 0ab0 30010000 		.4byte	.LVL184
 12849 0ab4 0100     		.2byte	0x1
 12850 0ab6 54       		.byte	0x54
 12851 0ab7 30010000 		.4byte	.LVL184
 12852 0abb 54010000 		.4byte	.LFE12
 12853 0abf 0400     		.2byte	0x4
 12854 0ac1 F3       		.byte	0xf3
 12855 0ac2 01       		.uleb128 0x1
 12856 0ac3 52       		.byte	0x52
 12857 0ac4 9F       		.byte	0x9f
 12858 0ac5 00000000 		.4byte	0
 12859 0ac9 00000000 		.4byte	0
 12860              	.LLST51:
 12861 0acd DC000000 		.4byte	.LVL170
 12862 0ad1 EE000000 		.4byte	.LVL171
 12863 0ad5 0100     		.2byte	0x1
 12864 0ad7 56       		.byte	0x56
 12865 0ad8 00000000 		.4byte	0
 12866 0adc 00000000 		.4byte	0
 12867              	.LLST52:
 12868 0ae0 48000000 		.4byte	.LVL158
 12869 0ae4 02010000 		.4byte	.LVL177
 12870 0ae8 0200     		.2byte	0x2
 12871 0aea 91       		.byte	0x91
 12872 0aeb 50       		.sleb128 -48
 12873 0aec 0C010000 		.4byte	.LVL179
 12874 0af0 2E010000 		.4byte	.LVL183
 12875 0af4 0200     		.2byte	0x2
 12876 0af6 91       		.byte	0x91
 12877 0af7 50       		.sleb128 -48
 12878 0af8 3C010000 		.4byte	.LVL186
 12879 0afc 54010000 		.4byte	.LFE12
 12880 0b00 0200     		.2byte	0x2
 12881 0b02 91       		.byte	0x91
 12882 0b03 50       		.sleb128 -48
 12883 0b04 00000000 		.4byte	0
 12884 0b08 00000000 		.4byte	0
 12885              	.LLST53:
 12886 0b0c 48000000 		.4byte	.LVL158
 12887 0b10 50000000 		.4byte	.LVL159
 12888 0b14 0200     		.2byte	0x2
 12889 0b16 91       		.byte	0x91
 12890 0b17 4E       		.sleb128 -50
 12891 0b18 7E000000 		.4byte	.LVL163
 12892 0b1c F4000000 		.4byte	.LVL173
 12893 0b20 0200     		.2byte	0x2
 12894 0b22 91       		.byte	0x91
 12895 0b23 4E       		.sleb128 -50
 12896 0b24 3C010000 		.4byte	.LVL186
 12897 0b28 54010000 		.4byte	.LFE12
 12898 0b2c 0200     		.2byte	0x2
 12899 0b2e 91       		.byte	0x91
 12900 0b2f 4E       		.sleb128 -50
 12901 0b30 00000000 		.4byte	0
 12902 0b34 00000000 		.4byte	0
 12903              	.LLST54:
 12904 0b38 BE000000 		.4byte	.LVL167
ARM GAS  C:\Users\jenny\AppData\Local\Temp\ccLg5IEe.s 			page 228


 12905 0b3c C4000000 		.4byte	.LVL168
 12906 0b40 0100     		.2byte	0x1
 12907 0b42 50       		.byte	0x50
 12908 0b43 C4000000 		.4byte	.LVL168
 12909 0b47 EE000000 		.4byte	.LVL171
 12910 0b4b 0100     		.2byte	0x1
 12911 0b4d 54       		.byte	0x54
 12912 0b4e EE000000 		.4byte	.LVL171
 12913 0b52 F1000000 		.4byte	.LVL172-1
 12914 0b56 0100     		.2byte	0x1
 12915 0b58 50       		.byte	0x50
 12916 0b59 F1000000 		.4byte	.LVL172-1
 12917 0b5d F4000000 		.4byte	.LVL173
 12918 0b61 0100     		.2byte	0x1
 12919 0b63 54       		.byte	0x54
 12920 0b64 3C010000 		.4byte	.LVL186
 12921 0b68 3E010000 		.4byte	.LVL187
 12922 0b6c 0100     		.2byte	0x1
 12923 0b6e 50       		.byte	0x50
 12924 0b6f 3E010000 		.4byte	.LVL187
 12925 0b73 54010000 		.4byte	.LFE12
 12926 0b77 0100     		.2byte	0x1
 12927 0b79 54       		.byte	0x54
 12928 0b7a 00000000 		.4byte	0
 12929 0b7e 00000000 		.4byte	0
 12930              	.LLST55:
 12931 0b82 34000000 		.4byte	.LVL155
 12932 0b86 44000000 		.4byte	.LVL157
 12933 0b8a 0100     		.2byte	0x1
 12934 0b8c 50       		.byte	0x50
 12935 0b8d 50000000 		.4byte	.LVL159
 12936 0b91 52000000 		.4byte	.LVL160
 12937 0b95 0100     		.2byte	0x1
 12938 0b97 50       		.byte	0x50
 12939 0b98 6A000000 		.4byte	.LVL161
 12940 0b9c 76000000 		.4byte	.LVL162
 12941 0ba0 0100     		.2byte	0x1
 12942 0ba2 50       		.byte	0x50
 12943 0ba3 FC000000 		.4byte	.LVL175
 12944 0ba7 FF000000 		.4byte	.LVL176-1
 12945 0bab 0100     		.2byte	0x1
 12946 0bad 50       		.byte	0x50
 12947 0bae 0C010000 		.4byte	.LVL179
 12948 0bb2 0E010000 		.4byte	.LVL180
 12949 0bb6 0100     		.2byte	0x1
 12950 0bb8 50       		.byte	0x50
 12951 0bb9 2E010000 		.4byte	.LVL183
 12952 0bbd 3A010000 		.4byte	.LVL185
 12953 0bc1 0100     		.2byte	0x1
 12954 0bc3 50       		.byte	0x50
 12955 0bc4 00000000 		.4byte	0
 12956 0bc8 00000000 		.4byte	0
 12957              	.LLST57:
 12958 0bcc 18000000 		.4byte	.LVL153
 12959 0bd0 44000000 		.4byte	.LVL157
 12960 0bd4 0100     		.2byte	0x1
 12961 0bd6 55       		.byte	0x55
ARM GAS  C:\Users\jenny\AppData\Local\Temp\ccLg5IEe.s 			page 229


 12962 0bd7 50000000 		.4byte	.LVL159
 12963 0bdb 54010000 		.4byte	.LFE12
 12964 0bdf 0100     		.2byte	0x1
 12965 0be1 55       		.byte	0x55
 12966 0be2 00000000 		.4byte	0
 12967 0be6 00000000 		.4byte	0
 12968              	.LLST58:
 12969 0bea 00000000 		.4byte	.LFB13
 12970 0bee 02000000 		.4byte	.LCFI12
 12971 0bf2 0200     		.2byte	0x2
 12972 0bf4 7D       		.byte	0x7d
 12973 0bf5 00       		.sleb128 0
 12974 0bf6 02000000 		.4byte	.LCFI12
 12975 0bfa 06000000 		.4byte	.LCFI13
 12976 0bfe 0200     		.2byte	0x2
 12977 0c00 7D       		.byte	0x7d
 12978 0c01 10       		.sleb128 16
 12979 0c02 06000000 		.4byte	.LCFI13
 12980 0c06 78000000 		.4byte	.LFE13
 12981 0c0a 0200     		.2byte	0x2
 12982 0c0c 7D       		.byte	0x7d
 12983 0c0d 18       		.sleb128 24
 12984 0c0e 00000000 		.4byte	0
 12985 0c12 00000000 		.4byte	0
 12986              	.LLST59:
 12987 0c16 00000000 		.4byte	.LVL189
 12988 0c1a 0C000000 		.4byte	.LVL190
 12989 0c1e 0100     		.2byte	0x1
 12990 0c20 50       		.byte	0x50
 12991 0c21 0C000000 		.4byte	.LVL190
 12992 0c25 78000000 		.4byte	.LFE13
 12993 0c29 0400     		.2byte	0x4
 12994 0c2b F3       		.byte	0xf3
 12995 0c2c 01       		.uleb128 0x1
 12996 0c2d 50       		.byte	0x50
 12997 0c2e 9F       		.byte	0x9f
 12998 0c2f 00000000 		.4byte	0
 12999 0c33 00000000 		.4byte	0
 13000              	.LLST60:
 13001 0c37 00000000 		.4byte	.LVL189
 13002 0c3b 31000000 		.4byte	.LVL195-1
 13003 0c3f 0100     		.2byte	0x1
 13004 0c41 51       		.byte	0x51
 13005 0c42 31000000 		.4byte	.LVL195-1
 13006 0c46 42000000 		.4byte	.LVL197
 13007 0c4a 0400     		.2byte	0x4
 13008 0c4c F3       		.byte	0xf3
 13009 0c4d 01       		.uleb128 0x1
 13010 0c4e 51       		.byte	0x51
 13011 0c4f 9F       		.byte	0x9f
 13012 0c50 42000000 		.4byte	.LVL197
 13013 0c54 46000000 		.4byte	.LVL198
 13014 0c58 0100     		.2byte	0x1
 13015 0c5a 51       		.byte	0x51
 13016 0c5b 46000000 		.4byte	.LVL198
 13017 0c5f 4A000000 		.4byte	.LVL199
 13018 0c63 0400     		.2byte	0x4
ARM GAS  C:\Users\jenny\AppData\Local\Temp\ccLg5IEe.s 			page 230


 13019 0c65 F3       		.byte	0xf3
 13020 0c66 01       		.uleb128 0x1
 13021 0c67 51       		.byte	0x51
 13022 0c68 9F       		.byte	0x9f
 13023 0c69 4A000000 		.4byte	.LVL199
 13024 0c6d 4D000000 		.4byte	.LVL200-1
 13025 0c71 0100     		.2byte	0x1
 13026 0c73 51       		.byte	0x51
 13027 0c74 4D000000 		.4byte	.LVL200-1
 13028 0c78 78000000 		.4byte	.LFE13
 13029 0c7c 0400     		.2byte	0x4
 13030 0c7e F3       		.byte	0xf3
 13031 0c7f 01       		.uleb128 0x1
 13032 0c80 51       		.byte	0x51
 13033 0c81 9F       		.byte	0x9f
 13034 0c82 00000000 		.4byte	0
 13035 0c86 00000000 		.4byte	0
 13036              	.LLST61:
 13037 0c8a 00000000 		.4byte	.LVL189
 13038 0c8e 1C000000 		.4byte	.LVL192
 13039 0c92 0100     		.2byte	0x1
 13040 0c94 52       		.byte	0x52
 13041 0c95 1C000000 		.4byte	.LVL192
 13042 0c99 42000000 		.4byte	.LVL197
 13043 0c9d 0400     		.2byte	0x4
 13044 0c9f F3       		.byte	0xf3
 13045 0ca0 01       		.uleb128 0x1
 13046 0ca1 52       		.byte	0x52
 13047 0ca2 9F       		.byte	0x9f
 13048 0ca3 42000000 		.4byte	.LVL197
 13049 0ca7 46000000 		.4byte	.LVL198
 13050 0cab 0100     		.2byte	0x1
 13051 0cad 52       		.byte	0x52
 13052 0cae 46000000 		.4byte	.LVL198
 13053 0cb2 78000000 		.4byte	.LFE13
 13054 0cb6 0400     		.2byte	0x4
 13055 0cb8 F3       		.byte	0xf3
 13056 0cb9 01       		.uleb128 0x1
 13057 0cba 52       		.byte	0x52
 13058 0cbb 9F       		.byte	0x9f
 13059 0cbc 00000000 		.4byte	0
 13060 0cc0 00000000 		.4byte	0
 13061              	.LLST62:
 13062 0cc4 2E000000 		.4byte	.LVL194
 13063 0cc8 31000000 		.4byte	.LVL195-1
 13064 0ccc 0200     		.2byte	0x2
 13065 0cce 71       		.byte	0x71
 13066 0ccf 02       		.sleb128 2
 13067 0cd0 00000000 		.4byte	0
 13068 0cd4 00000000 		.4byte	0
 13069              	.LLST63:
 13070 0cd8 3C000000 		.4byte	.LVL196
 13071 0cdc 42000000 		.4byte	.LVL197
 13072 0ce0 0100     		.2byte	0x1
 13073 0ce2 50       		.byte	0x50
 13074 0ce3 58000000 		.4byte	.LVL201
 13075 0ce7 6C000000 		.4byte	.LVL202
ARM GAS  C:\Users\jenny\AppData\Local\Temp\ccLg5IEe.s 			page 231


 13076 0ceb 0100     		.2byte	0x1
 13077 0ced 50       		.byte	0x50
 13078 0cee 00000000 		.4byte	0
 13079 0cf2 00000000 		.4byte	0
 13080              	.LLST64:
 13081 0cf6 24000000 		.4byte	.LVL193
 13082 0cfa 31000000 		.4byte	.LVL195-1
 13083 0cfe 0100     		.2byte	0x1
 13084 0d00 51       		.byte	0x51
 13085 0d01 31000000 		.4byte	.LVL195-1
 13086 0d05 42000000 		.4byte	.LVL197
 13087 0d09 0400     		.2byte	0x4
 13088 0d0b F3       		.byte	0xf3
 13089 0d0c 01       		.uleb128 0x1
 13090 0d0d 51       		.byte	0x51
 13091 0d0e 9F       		.byte	0x9f
 13092 0d0f 58000000 		.4byte	.LVL201
 13093 0d13 78000000 		.4byte	.LFE13
 13094 0d17 0400     		.2byte	0x4
 13095 0d19 F3       		.byte	0xf3
 13096 0d1a 01       		.uleb128 0x1
 13097 0d1b 51       		.byte	0x51
 13098 0d1c 9F       		.byte	0x9f
 13099 0d1d 00000000 		.4byte	0
 13100 0d21 00000000 		.4byte	0
 13101              	.LLST66:
 13102 0d25 12000000 		.4byte	.LVL191
 13103 0d29 42000000 		.4byte	.LVL197
 13104 0d2d 0100     		.2byte	0x1
 13105 0d2f 56       		.byte	0x56
 13106 0d30 4A000000 		.4byte	.LVL199
 13107 0d34 78000000 		.4byte	.LFE13
 13108 0d38 0100     		.2byte	0x1
 13109 0d3a 56       		.byte	0x56
 13110 0d3b 00000000 		.4byte	0
 13111 0d3f 00000000 		.4byte	0
 13112              	.LLST67:
 13113 0d43 00000000 		.4byte	.LFB14
 13114 0d47 06000000 		.4byte	.LCFI14
 13115 0d4b 0200     		.2byte	0x2
 13116 0d4d 7D       		.byte	0x7d
 13117 0d4e 00       		.sleb128 0
 13118 0d4f 06000000 		.4byte	.LCFI14
 13119 0d53 58000000 		.4byte	.LFE14
 13120 0d57 0200     		.2byte	0x2
 13121 0d59 7D       		.byte	0x7d
 13122 0d5a 18       		.sleb128 24
 13123 0d5b 00000000 		.4byte	0
 13124 0d5f 00000000 		.4byte	0
 13125              	.LLST68:
 13126 0d63 00000000 		.4byte	.LVL203
 13127 0d67 0C000000 		.4byte	.LVL204
 13128 0d6b 0100     		.2byte	0x1
 13129 0d6d 50       		.byte	0x50
 13130 0d6e 0C000000 		.4byte	.LVL204
 13131 0d72 58000000 		.4byte	.LFE14
 13132 0d76 0400     		.2byte	0x4
ARM GAS  C:\Users\jenny\AppData\Local\Temp\ccLg5IEe.s 			page 232


 13133 0d78 F3       		.byte	0xf3
 13134 0d79 01       		.uleb128 0x1
 13135 0d7a 50       		.byte	0x50
 13136 0d7b 9F       		.byte	0x9f
 13137 0d7c 00000000 		.4byte	0
 13138 0d80 00000000 		.4byte	0
 13139              	.LLST69:
 13140 0d84 00000000 		.4byte	.LVL203
 13141 0d88 1C000000 		.4byte	.LVL206
 13142 0d8c 0200     		.2byte	0x2
 13143 0d8e 30       		.byte	0x30
 13144 0d8f 9F       		.byte	0x9f
 13145 0d90 1C000000 		.4byte	.LVL206
 13146 0d94 3E000000 		.4byte	.LVL210
 13147 0d98 0B00     		.2byte	0xb
 13148 0d9a 78       		.byte	0x78
 13149 0d9b 00       		.sleb128 0
 13150 0d9c 08       		.byte	0x8
 13151 0d9d FF       		.byte	0xff
 13152 0d9e 1A       		.byte	0x1a
 13153 0d9f 40       		.byte	0x40
 13154 0da0 29       		.byte	0x29
 13155 0da1 08       		.byte	0x8
 13156 0da2 FF       		.byte	0xff
 13157 0da3 1A       		.byte	0x1a
 13158 0da4 9F       		.byte	0x9f
 13159 0da5 3E000000 		.4byte	.LVL210
 13160 0da9 46000000 		.4byte	.LVL211
 13161 0dad 0200     		.2byte	0x2
 13162 0daf 30       		.byte	0x30
 13163 0db0 9F       		.byte	0x9f
 13164 0db1 46000000 		.4byte	.LVL211
 13165 0db5 58000000 		.4byte	.LFE14
 13166 0db9 0B00     		.2byte	0xb
 13167 0dbb 78       		.byte	0x78
 13168 0dbc 00       		.sleb128 0
 13169 0dbd 08       		.byte	0x8
 13170 0dbe FF       		.byte	0xff
 13171 0dbf 1A       		.byte	0x1a
 13172 0dc0 40       		.byte	0x40
 13173 0dc1 29       		.byte	0x29
 13174 0dc2 08       		.byte	0x8
 13175 0dc3 FF       		.byte	0xff
 13176 0dc4 1A       		.byte	0x1a
 13177 0dc5 9F       		.byte	0x9f
 13178 0dc6 00000000 		.4byte	0
 13179 0dca 00000000 		.4byte	0
 13180              	.LLST71:
 13181 0dce 12000000 		.4byte	.LVL205
 13182 0dd2 3E000000 		.4byte	.LVL210
 13183 0dd6 0100     		.2byte	0x1
 13184 0dd8 55       		.byte	0x55
 13185 0dd9 46000000 		.4byte	.LVL211
 13186 0ddd 58000000 		.4byte	.LFE14
 13187 0de1 0100     		.2byte	0x1
 13188 0de3 55       		.byte	0x55
 13189 0de4 00000000 		.4byte	0
ARM GAS  C:\Users\jenny\AppData\Local\Temp\ccLg5IEe.s 			page 233


 13190 0de8 00000000 		.4byte	0
 13191              	.LLST72:
 13192 0dec 20000000 		.4byte	.LVL207
 13193 0df0 3E000000 		.4byte	.LVL210
 13194 0df4 0B00     		.2byte	0xb
 13195 0df6 78       		.byte	0x78
 13196 0df7 00       		.sleb128 0
 13197 0df8 08       		.byte	0x8
 13198 0df9 FF       		.byte	0xff
 13199 0dfa 1A       		.byte	0x1a
 13200 0dfb 40       		.byte	0x40
 13201 0dfc 29       		.byte	0x29
 13202 0dfd 08       		.byte	0x8
 13203 0dfe FF       		.byte	0xff
 13204 0dff 1A       		.byte	0x1a
 13205 0e00 9F       		.byte	0x9f
 13206 0e01 46000000 		.4byte	.LVL211
 13207 0e05 58000000 		.4byte	.LFE14
 13208 0e09 0B00     		.2byte	0xb
 13209 0e0b 78       		.byte	0x78
 13210 0e0c 00       		.sleb128 0
 13211 0e0d 08       		.byte	0x8
 13212 0e0e FF       		.byte	0xff
 13213 0e0f 1A       		.byte	0x1a
 13214 0e10 40       		.byte	0x40
 13215 0e11 29       		.byte	0x29
 13216 0e12 08       		.byte	0x8
 13217 0e13 FF       		.byte	0xff
 13218 0e14 1A       		.byte	0x1a
 13219 0e15 9F       		.byte	0x9f
 13220 0e16 00000000 		.4byte	0
 13221 0e1a 00000000 		.4byte	0
 13222              	.LLST73:
 13223 0e1e 20000000 		.4byte	.LVL207
 13224 0e22 3E000000 		.4byte	.LVL210
 13225 0e26 0100     		.2byte	0x1
 13226 0e28 55       		.byte	0x55
 13227 0e29 46000000 		.4byte	.LVL211
 13228 0e2d 58000000 		.4byte	.LFE14
 13229 0e31 0100     		.2byte	0x1
 13230 0e33 55       		.byte	0x55
 13231 0e34 00000000 		.4byte	0
 13232 0e38 00000000 		.4byte	0
 13233              	.LLST74:
 13234 0e3c 22000000 		.4byte	.LVL208
 13235 0e40 37000000 		.4byte	.LVL209-1
 13236 0e44 0100     		.2byte	0x1
 13237 0e46 50       		.byte	0x50
 13238 0e47 46000000 		.4byte	.LVL211
 13239 0e4b 4D000000 		.4byte	.LVL212-1
 13240 0e4f 0100     		.2byte	0x1
 13241 0e51 50       		.byte	0x50
 13242 0e52 00000000 		.4byte	0
 13243 0e56 00000000 		.4byte	0
 13244              	.LLST75:
 13245 0e5a 00000000 		.4byte	.LFB15
 13246 0e5e 02000000 		.4byte	.LCFI15
ARM GAS  C:\Users\jenny\AppData\Local\Temp\ccLg5IEe.s 			page 234


 13247 0e62 0200     		.2byte	0x2
 13248 0e64 7D       		.byte	0x7d
 13249 0e65 00       		.sleb128 0
 13250 0e66 02000000 		.4byte	.LCFI15
 13251 0e6a 06000000 		.4byte	.LCFI16
 13252 0e6e 0200     		.2byte	0x2
 13253 0e70 7D       		.byte	0x7d
 13254 0e71 10       		.sleb128 16
 13255 0e72 06000000 		.4byte	.LCFI16
 13256 0e76 78000000 		.4byte	.LFE15
 13257 0e7a 0200     		.2byte	0x2
 13258 0e7c 7D       		.byte	0x7d
 13259 0e7d 18       		.sleb128 24
 13260 0e7e 00000000 		.4byte	0
 13261 0e82 00000000 		.4byte	0
 13262              	.LLST76:
 13263 0e86 00000000 		.4byte	.LVL213
 13264 0e8a 0C000000 		.4byte	.LVL214
 13265 0e8e 0100     		.2byte	0x1
 13266 0e90 50       		.byte	0x50
 13267 0e91 0C000000 		.4byte	.LVL214
 13268 0e95 78000000 		.4byte	.LFE15
 13269 0e99 0400     		.2byte	0x4
 13270 0e9b F3       		.byte	0xf3
 13271 0e9c 01       		.uleb128 0x1
 13272 0e9d 50       		.byte	0x50
 13273 0e9e 9F       		.byte	0x9f
 13274 0e9f 00000000 		.4byte	0
 13275 0ea3 00000000 		.4byte	0
 13276              	.LLST77:
 13277 0ea7 00000000 		.4byte	.LVL213
 13278 0eab 31000000 		.4byte	.LVL219-1
 13279 0eaf 0100     		.2byte	0x1
 13280 0eb1 51       		.byte	0x51
 13281 0eb2 31000000 		.4byte	.LVL219-1
 13282 0eb6 42000000 		.4byte	.LVL221
 13283 0eba 0400     		.2byte	0x4
 13284 0ebc F3       		.byte	0xf3
 13285 0ebd 01       		.uleb128 0x1
 13286 0ebe 51       		.byte	0x51
 13287 0ebf 9F       		.byte	0x9f
 13288 0ec0 42000000 		.4byte	.LVL221
 13289 0ec4 46000000 		.4byte	.LVL222
 13290 0ec8 0100     		.2byte	0x1
 13291 0eca 51       		.byte	0x51
 13292 0ecb 46000000 		.4byte	.LVL222
 13293 0ecf 4A000000 		.4byte	.LVL223
 13294 0ed3 0400     		.2byte	0x4
 13295 0ed5 F3       		.byte	0xf3
 13296 0ed6 01       		.uleb128 0x1
 13297 0ed7 51       		.byte	0x51
 13298 0ed8 9F       		.byte	0x9f
 13299 0ed9 4A000000 		.4byte	.LVL223
 13300 0edd 4D000000 		.4byte	.LVL224-1
 13301 0ee1 0100     		.2byte	0x1
 13302 0ee3 51       		.byte	0x51
 13303 0ee4 4D000000 		.4byte	.LVL224-1
ARM GAS  C:\Users\jenny\AppData\Local\Temp\ccLg5IEe.s 			page 235


 13304 0ee8 78000000 		.4byte	.LFE15
 13305 0eec 0400     		.2byte	0x4
 13306 0eee F3       		.byte	0xf3
 13307 0eef 01       		.uleb128 0x1
 13308 0ef0 51       		.byte	0x51
 13309 0ef1 9F       		.byte	0x9f
 13310 0ef2 00000000 		.4byte	0
 13311 0ef6 00000000 		.4byte	0
 13312              	.LLST78:
 13313 0efa 00000000 		.4byte	.LVL213
 13314 0efe 1C000000 		.4byte	.LVL216
 13315 0f02 0100     		.2byte	0x1
 13316 0f04 52       		.byte	0x52
 13317 0f05 1C000000 		.4byte	.LVL216
 13318 0f09 42000000 		.4byte	.LVL221
 13319 0f0d 0400     		.2byte	0x4
 13320 0f0f F3       		.byte	0xf3
 13321 0f10 01       		.uleb128 0x1
 13322 0f11 52       		.byte	0x52
 13323 0f12 9F       		.byte	0x9f
 13324 0f13 42000000 		.4byte	.LVL221
 13325 0f17 46000000 		.4byte	.LVL222
 13326 0f1b 0100     		.2byte	0x1
 13327 0f1d 52       		.byte	0x52
 13328 0f1e 46000000 		.4byte	.LVL222
 13329 0f22 78000000 		.4byte	.LFE15
 13330 0f26 0400     		.2byte	0x4
 13331 0f28 F3       		.byte	0xf3
 13332 0f29 01       		.uleb128 0x1
 13333 0f2a 52       		.byte	0x52
 13334 0f2b 9F       		.byte	0x9f
 13335 0f2c 00000000 		.4byte	0
 13336 0f30 00000000 		.4byte	0
 13337              	.LLST79:
 13338 0f34 3C000000 		.4byte	.LVL220
 13339 0f38 42000000 		.4byte	.LVL221
 13340 0f3c 0100     		.2byte	0x1
 13341 0f3e 50       		.byte	0x50
 13342 0f3f 58000000 		.4byte	.LVL225
 13343 0f43 6C000000 		.4byte	.LVL226
 13344 0f47 0100     		.2byte	0x1
 13345 0f49 50       		.byte	0x50
 13346 0f4a 00000000 		.4byte	0
 13347 0f4e 00000000 		.4byte	0
 13348              	.LLST80:
 13349 0f52 24000000 		.4byte	.LVL217
 13350 0f56 31000000 		.4byte	.LVL219-1
 13351 0f5a 0100     		.2byte	0x1
 13352 0f5c 51       		.byte	0x51
 13353 0f5d 31000000 		.4byte	.LVL219-1
 13354 0f61 42000000 		.4byte	.LVL221
 13355 0f65 0400     		.2byte	0x4
 13356 0f67 F3       		.byte	0xf3
 13357 0f68 01       		.uleb128 0x1
 13358 0f69 51       		.byte	0x51
 13359 0f6a 9F       		.byte	0x9f
 13360 0f6b 58000000 		.4byte	.LVL225
ARM GAS  C:\Users\jenny\AppData\Local\Temp\ccLg5IEe.s 			page 236


 13361 0f6f 78000000 		.4byte	.LFE15
 13362 0f73 0400     		.2byte	0x4
 13363 0f75 F3       		.byte	0xf3
 13364 0f76 01       		.uleb128 0x1
 13365 0f77 51       		.byte	0x51
 13366 0f78 9F       		.byte	0x9f
 13367 0f79 00000000 		.4byte	0
 13368 0f7d 00000000 		.4byte	0
 13369              	.LLST82:
 13370 0f81 12000000 		.4byte	.LVL215
 13371 0f85 42000000 		.4byte	.LVL221
 13372 0f89 0100     		.2byte	0x1
 13373 0f8b 55       		.byte	0x55
 13374 0f8c 4A000000 		.4byte	.LVL223
 13375 0f90 78000000 		.4byte	.LFE15
 13376 0f94 0100     		.2byte	0x1
 13377 0f96 55       		.byte	0x55
 13378 0f97 00000000 		.4byte	0
 13379 0f9b 00000000 		.4byte	0
 13380              	.LLST83:
 13381 0f9f 2E000000 		.4byte	.LVL218
 13382 0fa3 31000000 		.4byte	.LVL219-1
 13383 0fa7 0200     		.2byte	0x2
 13384 0fa9 71       		.byte	0x71
 13385 0faa 02       		.sleb128 2
 13386 0fab 00000000 		.4byte	0
 13387 0faf 00000000 		.4byte	0
 13388              	.LLST84:
 13389 0fb3 00000000 		.4byte	.LFB16
 13390 0fb7 04000000 		.4byte	.LCFI17
 13391 0fbb 0200     		.2byte	0x2
 13392 0fbd 7D       		.byte	0x7d
 13393 0fbe 00       		.sleb128 0
 13394 0fbf 04000000 		.4byte	.LCFI17
 13395 0fc3 64000000 		.4byte	.LFE16
 13396 0fc7 0200     		.2byte	0x2
 13397 0fc9 7D       		.byte	0x7d
 13398 0fca 08       		.sleb128 8
 13399 0fcb 00000000 		.4byte	0
 13400 0fcf 00000000 		.4byte	0
 13401              	.LLST85:
 13402 0fd3 00000000 		.4byte	.LVL227
 13403 0fd7 0A000000 		.4byte	.LVL228
 13404 0fdb 0100     		.2byte	0x1
 13405 0fdd 50       		.byte	0x50
 13406 0fde 0A000000 		.4byte	.LVL228
 13407 0fe2 64000000 		.4byte	.LFE16
 13408 0fe6 0400     		.2byte	0x4
 13409 0fe8 F3       		.byte	0xf3
 13410 0fe9 01       		.uleb128 0x1
 13411 0fea 50       		.byte	0x50
 13412 0feb 9F       		.byte	0x9f
 13413 0fec 00000000 		.4byte	0
 13414 0ff0 00000000 		.4byte	0
 13415              	.LLST86:
 13416 0ff4 00000000 		.4byte	.LVL227
 13417 0ff8 18000000 		.4byte	.LVL230
ARM GAS  C:\Users\jenny\AppData\Local\Temp\ccLg5IEe.s 			page 237


 13418 0ffc 0100     		.2byte	0x1
 13419 0ffe 51       		.byte	0x51
 13420 0fff 2E000000 		.4byte	.LVL233
 13421 1003 38000000 		.4byte	.LVL235
 13422 1007 0100     		.2byte	0x1
 13423 1009 51       		.byte	0x51
 13424 100a 38000000 		.4byte	.LVL235
 13425 100e 3A000000 		.4byte	.LVL236
 13426 1012 0400     		.2byte	0x4
 13427 1014 F3       		.byte	0xf3
 13428 1015 01       		.uleb128 0x1
 13429 1016 51       		.byte	0x51
 13430 1017 9F       		.byte	0x9f
 13431 1018 00000000 		.4byte	0
 13432 101c 00000000 		.4byte	0
 13433              	.LLST87:
 13434 1020 1E000000 		.4byte	.LVL231
 13435 1024 2A000000 		.4byte	.LVL232
 13436 1028 0100     		.2byte	0x1
 13437 102a 50       		.byte	0x50
 13438 102b 3E000000 		.4byte	.LVL237
 13439 102f 48000000 		.4byte	.LVL238
 13440 1033 0100     		.2byte	0x1
 13441 1035 50       		.byte	0x50
 13442 1036 00000000 		.4byte	0
 13443 103a 00000000 		.4byte	0
 13444              	.LLST89:
 13445 103e 10000000 		.4byte	.LVL229
 13446 1042 2E000000 		.4byte	.LVL233
 13447 1046 0100     		.2byte	0x1
 13448 1048 54       		.byte	0x54
 13449 1049 34000000 		.4byte	.LVL234
 13450 104d 64000000 		.4byte	.LFE16
 13451 1051 0100     		.2byte	0x1
 13452 1053 54       		.byte	0x54
 13453 1054 00000000 		.4byte	0
 13454 1058 00000000 		.4byte	0
 13455              	.LLST90:
 13456 105c 00000000 		.4byte	.LFB17
 13457 1060 04000000 		.4byte	.LCFI18
 13458 1064 0200     		.2byte	0x2
 13459 1066 7D       		.byte	0x7d
 13460 1067 00       		.sleb128 0
 13461 1068 04000000 		.4byte	.LCFI18
 13462 106c 06000000 		.4byte	.LCFI19
 13463 1070 0200     		.2byte	0x2
 13464 1072 7D       		.byte	0x7d
 13465 1073 24       		.sleb128 36
 13466 1074 06000000 		.4byte	.LCFI19
 13467 1078 38020000 		.4byte	.LFE17
 13468 107c 0300     		.2byte	0x3
 13469 107e 7D       		.byte	0x7d
 13470 107f D800     		.sleb128 88
 13471 1081 00000000 		.4byte	0
 13472 1085 00000000 		.4byte	0
 13473              	.LLST91:
 13474 1089 00000000 		.4byte	.LVL239
ARM GAS  C:\Users\jenny\AppData\Local\Temp\ccLg5IEe.s 			page 238


 13475 108d 18000000 		.4byte	.LVL241
 13476 1091 0100     		.2byte	0x1
 13477 1093 50       		.byte	0x50
 13478 1094 18000000 		.4byte	.LVL241
 13479 1098 38020000 		.4byte	.LFE17
 13480 109c 0400     		.2byte	0x4
 13481 109e F3       		.byte	0xf3
 13482 109f 01       		.uleb128 0x1
 13483 10a0 50       		.byte	0x50
 13484 10a1 9F       		.byte	0x9f
 13485 10a2 00000000 		.4byte	0
 13486 10a6 00000000 		.4byte	0
 13487              	.LLST92:
 13488 10aa 00000000 		.4byte	.LVL239
 13489 10ae 1C000000 		.4byte	.LVL243
 13490 10b2 0100     		.2byte	0x1
 13491 10b4 51       		.byte	0x51
 13492 10b5 1C000000 		.4byte	.LVL243
 13493 10b9 38020000 		.4byte	.LFE17
 13494 10bd 0300     		.2byte	0x3
 13495 10bf 91       		.byte	0x91
 13496 10c0 AC7F     		.sleb128 -84
 13497 10c2 00000000 		.4byte	0
 13498 10c6 00000000 		.4byte	0
 13499              	.LLST93:
 13500 10ca 00000000 		.4byte	.LVL239
 13501 10ce 20000000 		.4byte	.LVL245
 13502 10d2 0100     		.2byte	0x1
 13503 10d4 52       		.byte	0x52
 13504 10d5 20000000 		.4byte	.LVL245
 13505 10d9 6A010000 		.4byte	.LVL273
 13506 10dd 0100     		.2byte	0x1
 13507 10df 56       		.byte	0x56
 13508 10e0 6A010000 		.4byte	.LVL273
 13509 10e4 6E010000 		.4byte	.LVL274
 13510 10e8 0600     		.2byte	0x6
 13511 10ea 76       		.byte	0x76
 13512 10eb 00       		.sleb128 0
 13513 10ec 7B       		.byte	0x7b
 13514 10ed 00       		.sleb128 0
 13515 10ee 1C       		.byte	0x1c
 13516 10ef 9F       		.byte	0x9f
 13517 10f0 6E010000 		.4byte	.LVL274
 13518 10f4 38020000 		.4byte	.LFE17
 13519 10f8 0100     		.2byte	0x1
 13520 10fa 56       		.byte	0x56
 13521 10fb 00000000 		.4byte	0
 13522 10ff 00000000 		.4byte	0
 13523              	.LLST94:
 13524 1103 00000000 		.4byte	.LVL239
 13525 1107 1A000000 		.4byte	.LVL242
 13526 110b 0100     		.2byte	0x1
 13527 110d 53       		.byte	0x53
 13528 110e 1A000000 		.4byte	.LVL242
 13529 1112 3E000000 		.4byte	.LVL247
 13530 1116 0100     		.2byte	0x1
 13531 1118 5B       		.byte	0x5b
ARM GAS  C:\Users\jenny\AppData\Local\Temp\ccLg5IEe.s 			page 239


 13532 1119 3E000000 		.4byte	.LVL247
 13533 111d F6000000 		.4byte	.LVL263
 13534 1121 0300     		.2byte	0x3
 13535 1123 91       		.byte	0x91
 13536 1124 B07F     		.sleb128 -80
 13537 1126 F6000000 		.4byte	.LVL263
 13538 112a FA000000 		.4byte	.LVL264
 13539 112e 0100     		.2byte	0x1
 13540 1130 5B       		.byte	0x5b
 13541 1131 FA000000 		.4byte	.LVL264
 13542 1135 02010000 		.4byte	.LVL265
 13543 1139 0400     		.2byte	0x4
 13544 113b F3       		.byte	0xf3
 13545 113c 01       		.uleb128 0x1
 13546 113d 53       		.byte	0x53
 13547 113e 9F       		.byte	0x9f
 13548 113f 02010000 		.4byte	.LVL265
 13549 1143 38020000 		.4byte	.LFE17
 13550 1147 0300     		.2byte	0x3
 13551 1149 91       		.byte	0x91
 13552 114a B07F     		.sleb128 -80
 13553 114c 00000000 		.4byte	0
 13554 1150 00000000 		.4byte	0
 13555              	.LLST95:
 13556 1154 50000000 		.4byte	.LVL248
 13557 1158 7E000000 		.4byte	.LVL256
 13558 115c 0100     		.2byte	0x1
 13559 115e 59       		.byte	0x59
 13560 115f 66010000 		.4byte	.LVL272
 13561 1163 7E010000 		.4byte	.LVL275
 13562 1167 0100     		.2byte	0x1
 13563 1169 59       		.byte	0x59
 13564 116a 9E010000 		.4byte	.LVL278
 13565 116e B2010000 		.4byte	.LVL280
 13566 1172 0100     		.2byte	0x1
 13567 1174 59       		.byte	0x59
 13568 1175 E6010000 		.4byte	.LVL289
 13569 1179 EC010000 		.4byte	.LVL290
 13570 117d 0100     		.2byte	0x1
 13571 117f 59       		.byte	0x59
 13572 1180 00000000 		.4byte	0
 13573 1184 00000000 		.4byte	0
 13574              	.LLST96:
 13575 1188 56000000 		.4byte	.LVL249
 13576 118c 5A000000 		.4byte	.LVL250
 13577 1190 0200     		.2byte	0x2
 13578 1192 79       		.byte	0x79
 13579 1193 08       		.sleb128 8
 13580 1194 5A000000 		.4byte	.LVL250
 13581 1198 68000000 		.4byte	.LVL253
 13582 119c 0100     		.2byte	0x1
 13583 119e 50       		.byte	0x50
 13584 119f 68000000 		.4byte	.LVL253
 13585 11a3 E6000000 		.4byte	.LVL260
 13586 11a7 0100     		.2byte	0x1
 13587 11a9 57       		.byte	0x57
 13588 11aa 02010000 		.4byte	.LVL265
ARM GAS  C:\Users\jenny\AppData\Local\Temp\ccLg5IEe.s 			page 240


 13589 11ae 22010000 		.4byte	.LVL268
 13590 11b2 0100     		.2byte	0x1
 13591 11b4 57       		.byte	0x57
 13592 11b5 66010000 		.4byte	.LVL272
 13593 11b9 84010000 		.4byte	.LVL277
 13594 11bd 0100     		.2byte	0x1
 13595 11bf 57       		.byte	0x57
 13596 11c0 9E010000 		.4byte	.LVL278
 13597 11c4 CA010000 		.4byte	.LVL285
 13598 11c8 0100     		.2byte	0x1
 13599 11ca 57       		.byte	0x57
 13600 11cb E6010000 		.4byte	.LVL289
 13601 11cf EE010000 		.4byte	.LVL291
 13602 11d3 0100     		.2byte	0x1
 13603 11d5 57       		.byte	0x57
 13604 11d6 00000000 		.4byte	0
 13605 11da 00000000 		.4byte	0
 13606              	.LLST97:
 13607 11de 62000000 		.4byte	.LVL251
 13608 11e2 E8000000 		.4byte	.LVL261
 13609 11e6 0100     		.2byte	0x1
 13610 11e8 5B       		.byte	0x5b
 13611 11e9 02010000 		.4byte	.LVL265
 13612 11ed 2C010000 		.4byte	.LVL269
 13613 11f1 0100     		.2byte	0x1
 13614 11f3 5B       		.byte	0x5b
 13615 11f4 66010000 		.4byte	.LVL272
 13616 11f8 CA010000 		.4byte	.LVL285
 13617 11fc 0100     		.2byte	0x1
 13618 11fe 5B       		.byte	0x5b
 13619 11ff D0010000 		.4byte	.LVL287
 13620 1203 EE010000 		.4byte	.LVL291
 13621 1207 0100     		.2byte	0x1
 13622 1209 5B       		.byte	0x5b
 13623 120a 00000000 		.4byte	0
 13624 120e 00000000 		.4byte	0
 13625              	.LLST98:
 13626 1212 0C000000 		.4byte	.LVL240
 13627 1216 24000000 		.4byte	.LVL246
 13628 121a 0200     		.2byte	0x2
 13629 121c 30       		.byte	0x30
 13630 121d 9F       		.byte	0x9f
 13631 121e 24000000 		.4byte	.LVL246
 13632 1222 F6000000 		.4byte	.LVL263
 13633 1226 0100     		.2byte	0x1
 13634 1228 55       		.byte	0x55
 13635 1229 F6000000 		.4byte	.LVL263
 13636 122d FA000000 		.4byte	.LVL264
 13637 1231 0200     		.2byte	0x2
 13638 1233 30       		.byte	0x30
 13639 1234 9F       		.byte	0x9f
 13640 1235 02010000 		.4byte	.LVL265
 13641 1239 00020000 		.4byte	.LVL294
 13642 123d 0100     		.2byte	0x1
 13643 123f 55       		.byte	0x55
 13644 1240 1E020000 		.4byte	.LVL295
 13645 1244 2C020000 		.4byte	.LVL296
ARM GAS  C:\Users\jenny\AppData\Local\Temp\ccLg5IEe.s 			page 241


 13646 1248 0100     		.2byte	0x1
 13647 124a 55       		.byte	0x55
 13648 124b 00000000 		.4byte	0
 13649 124f 00000000 		.4byte	0
 13650              	.LLST99:
 13651 1253 98000000 		.4byte	.LVL257
 13652 1257 C1000000 		.4byte	.LVL258-1
 13653 125b 0100     		.2byte	0x1
 13654 125d 53       		.byte	0x53
 13655 125e BA010000 		.4byte	.LVL281
 13656 1262 BE010000 		.4byte	.LVL282
 13657 1266 0300     		.2byte	0x3
 13658 1268 91       		.byte	0x91
 13659 1269 44       		.sleb128 -60
 13660 126a 9F       		.byte	0x9f
 13661 126b BE010000 		.4byte	.LVL282
 13662 126f C5010000 		.4byte	.LVL283-1
 13663 1273 0100     		.2byte	0x1
 13664 1275 51       		.byte	0x51
 13665 1276 C5010000 		.4byte	.LVL283-1
 13666 127a C8010000 		.4byte	.LVL284
 13667 127e 0300     		.2byte	0x3
 13668 1280 91       		.byte	0x91
 13669 1281 44       		.sleb128 -60
 13670 1282 9F       		.byte	0x9f
 13671 1283 C8010000 		.4byte	.LVL284
 13672 1287 CA010000 		.4byte	.LVL285
 13673 128b 0100     		.2byte	0x1
 13674 128d 53       		.byte	0x53
 13675 128e 00000000 		.4byte	0
 13676 1292 00000000 		.4byte	0
 13677              	.LLST100:
 13678 1296 3E000000 		.4byte	.LVL247
 13679 129a F6000000 		.4byte	.LVL263
 13680 129e 0300     		.2byte	0x3
 13681 12a0 91       		.byte	0x91
 13682 12a1 BE7F     		.sleb128 -66
 13683 12a3 FA000000 		.4byte	.LVL264
 13684 12a7 38020000 		.4byte	.LFE17
 13685 12ab 0300     		.2byte	0x3
 13686 12ad 91       		.byte	0x91
 13687 12ae BE7F     		.sleb128 -66
 13688 12b0 00000000 		.4byte	0
 13689 12b4 00000000 		.4byte	0
 13690              	.LLST101:
 13691 12b8 0C000000 		.4byte	.LVL240
 13692 12bc 7E000000 		.4byte	.LVL256
 13693 12c0 0200     		.2byte	0x2
 13694 12c2 30       		.byte	0x30
 13695 12c3 9F       		.byte	0x9f
 13696 12c4 7E000000 		.4byte	.LVL256
 13697 12c8 E6000000 		.4byte	.LVL260
 13698 12cc 0200     		.2byte	0x2
 13699 12ce 31       		.byte	0x31
 13700 12cf 9F       		.byte	0x9f
 13701 12d0 F6000000 		.4byte	.LVL263
 13702 12d4 FA000000 		.4byte	.LVL264
ARM GAS  C:\Users\jenny\AppData\Local\Temp\ccLg5IEe.s 			page 242


 13703 12d8 0200     		.2byte	0x2
 13704 12da 30       		.byte	0x30
 13705 12db 9F       		.byte	0x9f
 13706 12dc 02010000 		.4byte	.LVL265
 13707 12e0 06010000 		.4byte	.LVL266
 13708 12e4 0200     		.2byte	0x2
 13709 12e6 31       		.byte	0x31
 13710 12e7 9F       		.byte	0x9f
 13711 12e8 22010000 		.4byte	.LVL268
 13712 12ec 80010000 		.4byte	.LVL276
 13713 12f0 0200     		.2byte	0x2
 13714 12f2 30       		.byte	0x30
 13715 12f3 9F       		.byte	0x9f
 13716 12f4 9E010000 		.4byte	.LVL278
 13717 12f8 BA010000 		.4byte	.LVL281
 13718 12fc 0200     		.2byte	0x2
 13719 12fe 30       		.byte	0x30
 13720 12ff 9F       		.byte	0x9f
 13721 1300 BA010000 		.4byte	.LVL281
 13722 1304 CA010000 		.4byte	.LVL285
 13723 1308 0200     		.2byte	0x2
 13724 130a 31       		.byte	0x31
 13725 130b 9F       		.byte	0x9f
 13726 130c CA010000 		.4byte	.LVL285
 13727 1310 D0010000 		.4byte	.LVL287
 13728 1314 0200     		.2byte	0x2
 13729 1316 30       		.byte	0x30
 13730 1317 9F       		.byte	0x9f
 13731 1318 E6010000 		.4byte	.LVL289
 13732 131c 38020000 		.4byte	.LFE17
 13733 1320 0200     		.2byte	0x2
 13734 1322 30       		.byte	0x30
 13735 1323 9F       		.byte	0x9f
 13736 1324 00000000 		.4byte	0
 13737 1328 00000000 		.4byte	0
 13738              	.LLST102:
 13739 132c 52010000 		.4byte	.LVL270
 13740 1330 60010000 		.4byte	.LVL271
 13741 1334 0100     		.2byte	0x1
 13742 1336 50       		.byte	0x50
 13743 1337 CE010000 		.4byte	.LVL286
 13744 133b D0010000 		.4byte	.LVL287
 13745 133f 0100     		.2byte	0x1
 13746 1341 50       		.byte	0x50
 13747 1342 EE010000 		.4byte	.LVL291
 13748 1346 F1010000 		.4byte	.LVL292-1
 13749 134a 0100     		.2byte	0x1
 13750 134c 50       		.byte	0x50
 13751 134d F8010000 		.4byte	.LVL293
 13752 1351 1E020000 		.4byte	.LVL295
 13753 1355 0100     		.2byte	0x1
 13754 1357 50       		.byte	0x50
 13755 1358 00000000 		.4byte	0
 13756 135c 00000000 		.4byte	0
 13757              	.LLST103:
 13758 1360 0C000000 		.4byte	.LVL240
 13759 1364 18000000 		.4byte	.LVL241
ARM GAS  C:\Users\jenny\AppData\Local\Temp\ccLg5IEe.s 			page 243


 13760 1368 0100     		.2byte	0x1
 13761 136a 50       		.byte	0x50
 13762 136b 18000000 		.4byte	.LVL241
 13763 136f 38020000 		.4byte	.LFE17
 13764 1373 0400     		.2byte	0x4
 13765 1375 F3       		.byte	0xf3
 13766 1376 01       		.uleb128 0x1
 13767 1377 50       		.byte	0x50
 13768 1378 9F       		.byte	0x9f
 13769 1379 00000000 		.4byte	0
 13770 137d 00000000 		.4byte	0
 13771              	.LLST104:
 13772 1381 1E000000 		.4byte	.LVL244
 13773 1385 F6000000 		.4byte	.LVL263
 13774 1389 0100     		.2byte	0x1
 13775 138b 54       		.byte	0x54
 13776 138c 02010000 		.4byte	.LVL265
 13777 1390 38020000 		.4byte	.LFE17
 13778 1394 0100     		.2byte	0x1
 13779 1396 54       		.byte	0x54
 13780 1397 00000000 		.4byte	0
 13781 139b 00000000 		.4byte	0
 13782              	.LLST105:
 13783 139f 00000000 		.4byte	.LFB18
 13784 13a3 02000000 		.4byte	.LCFI20
 13785 13a7 0200     		.2byte	0x2
 13786 13a9 7D       		.byte	0x7d
 13787 13aa 00       		.sleb128 0
 13788 13ab 02000000 		.4byte	.LCFI20
 13789 13af 04000000 		.4byte	.LCFI21
 13790 13b3 0200     		.2byte	0x2
 13791 13b5 7D       		.byte	0x7d
 13792 13b6 04       		.sleb128 4
 13793 13b7 04000000 		.4byte	.LCFI21
 13794 13bb 12000000 		.4byte	.LFE18
 13795 13bf 0200     		.2byte	0x2
 13796 13c1 7D       		.byte	0x7d
 13797 13c2 10       		.sleb128 16
 13798 13c3 00000000 		.4byte	0
 13799 13c7 00000000 		.4byte	0
 13800              	.LLST106:
 13801 13cb 00000000 		.4byte	.LVL297
 13802 13cf 0D000000 		.4byte	.LVL298-1
 13803 13d3 0100     		.2byte	0x1
 13804 13d5 50       		.byte	0x50
 13805 13d6 0D000000 		.4byte	.LVL298-1
 13806 13da 12000000 		.4byte	.LFE18
 13807 13de 0400     		.2byte	0x4
 13808 13e0 F3       		.byte	0xf3
 13809 13e1 01       		.uleb128 0x1
 13810 13e2 50       		.byte	0x50
 13811 13e3 9F       		.byte	0x9f
 13812 13e4 00000000 		.4byte	0
 13813 13e8 00000000 		.4byte	0
 13814              	.LLST107:
 13815 13ec 00000000 		.4byte	.LVL297
 13816 13f0 0D000000 		.4byte	.LVL298-1
ARM GAS  C:\Users\jenny\AppData\Local\Temp\ccLg5IEe.s 			page 244


 13817 13f4 0100     		.2byte	0x1
 13818 13f6 51       		.byte	0x51
 13819 13f7 0D000000 		.4byte	.LVL298-1
 13820 13fb 12000000 		.4byte	.LFE18
 13821 13ff 0400     		.2byte	0x4
 13822 1401 F3       		.byte	0xf3
 13823 1402 01       		.uleb128 0x1
 13824 1403 51       		.byte	0x51
 13825 1404 9F       		.byte	0x9f
 13826 1405 00000000 		.4byte	0
 13827 1409 00000000 		.4byte	0
 13828              	.LLST108:
 13829 140d 00000000 		.4byte	.LVL297
 13830 1411 0D000000 		.4byte	.LVL298-1
 13831 1415 0100     		.2byte	0x1
 13832 1417 52       		.byte	0x52
 13833 1418 0D000000 		.4byte	.LVL298-1
 13834 141c 12000000 		.4byte	.LFE18
 13835 1420 0400     		.2byte	0x4
 13836 1422 F3       		.byte	0xf3
 13837 1423 01       		.uleb128 0x1
 13838 1424 52       		.byte	0x52
 13839 1425 9F       		.byte	0x9f
 13840 1426 00000000 		.4byte	0
 13841 142a 00000000 		.4byte	0
 13842              	.LLST109:
 13843 142e 00000000 		.4byte	.LFB19
 13844 1432 02000000 		.4byte	.LCFI22
 13845 1436 0200     		.2byte	0x2
 13846 1438 7D       		.byte	0x7d
 13847 1439 00       		.sleb128 0
 13848 143a 02000000 		.4byte	.LCFI22
 13849 143e 04000000 		.4byte	.LCFI23
 13850 1442 0200     		.2byte	0x2
 13851 1444 7D       		.byte	0x7d
 13852 1445 08       		.sleb128 8
 13853 1446 04000000 		.4byte	.LCFI23
 13854 144a 12000000 		.4byte	.LFE19
 13855 144e 0200     		.2byte	0x2
 13856 1450 7D       		.byte	0x7d
 13857 1451 10       		.sleb128 16
 13858 1452 00000000 		.4byte	0
 13859 1456 00000000 		.4byte	0
 13860              	.LLST110:
 13861 145a 00000000 		.4byte	.LVL299
 13862 145e 0D000000 		.4byte	.LVL300-1
 13863 1462 0100     		.2byte	0x1
 13864 1464 50       		.byte	0x50
 13865 1465 0D000000 		.4byte	.LVL300-1
 13866 1469 12000000 		.4byte	.LFE19
 13867 146d 0400     		.2byte	0x4
 13868 146f F3       		.byte	0xf3
 13869 1470 01       		.uleb128 0x1
 13870 1471 50       		.byte	0x50
 13871 1472 9F       		.byte	0x9f
 13872 1473 00000000 		.4byte	0
 13873 1477 00000000 		.4byte	0
ARM GAS  C:\Users\jenny\AppData\Local\Temp\ccLg5IEe.s 			page 245


 13874              	.LLST111:
 13875 147b 00000000 		.4byte	.LVL299
 13876 147f 0D000000 		.4byte	.LVL300-1
 13877 1483 0100     		.2byte	0x1
 13878 1485 51       		.byte	0x51
 13879 1486 0D000000 		.4byte	.LVL300-1
 13880 148a 12000000 		.4byte	.LFE19
 13881 148e 0400     		.2byte	0x4
 13882 1490 F3       		.byte	0xf3
 13883 1491 01       		.uleb128 0x1
 13884 1492 51       		.byte	0x51
 13885 1493 9F       		.byte	0x9f
 13886 1494 00000000 		.4byte	0
 13887 1498 00000000 		.4byte	0
 13888              	.LLST112:
 13889 149c 00000000 		.4byte	.LVL299
 13890 14a0 0D000000 		.4byte	.LVL300-1
 13891 14a4 0100     		.2byte	0x1
 13892 14a6 52       		.byte	0x52
 13893 14a7 0D000000 		.4byte	.LVL300-1
 13894 14ab 12000000 		.4byte	.LFE19
 13895 14af 0400     		.2byte	0x4
 13896 14b1 F3       		.byte	0xf3
 13897 14b2 01       		.uleb128 0x1
 13898 14b3 52       		.byte	0x52
 13899 14b4 9F       		.byte	0x9f
 13900 14b5 00000000 		.4byte	0
 13901 14b9 00000000 		.4byte	0
 13902              	.LLST113:
 13903 14bd 00000000 		.4byte	.LVL299
 13904 14c1 0D000000 		.4byte	.LVL300-1
 13905 14c5 0100     		.2byte	0x1
 13906 14c7 53       		.byte	0x53
 13907 14c8 0D000000 		.4byte	.LVL300-1
 13908 14cc 12000000 		.4byte	.LFE19
 13909 14d0 0400     		.2byte	0x4
 13910 14d2 F3       		.byte	0xf3
 13911 14d3 01       		.uleb128 0x1
 13912 14d4 53       		.byte	0x53
 13913 14d5 9F       		.byte	0x9f
 13914 14d6 00000000 		.4byte	0
 13915 14da 00000000 		.4byte	0
 13916              	.LLST114:
 13917 14de 00000000 		.4byte	.LFB21
 13918 14e2 04000000 		.4byte	.LCFI24
 13919 14e6 0200     		.2byte	0x2
 13920 14e8 7D       		.byte	0x7d
 13921 14e9 00       		.sleb128 0
 13922 14ea 04000000 		.4byte	.LCFI24
 13923 14ee 06000000 		.4byte	.LCFI25
 13924 14f2 0200     		.2byte	0x2
 13925 14f4 7D       		.byte	0x7d
 13926 14f5 1C       		.sleb128 28
 13927 14f6 06000000 		.4byte	.LCFI25
 13928 14fa D8000000 		.4byte	.LFE21
 13929 14fe 0200     		.2byte	0x2
 13930 1500 7D       		.byte	0x7d
ARM GAS  C:\Users\jenny\AppData\Local\Temp\ccLg5IEe.s 			page 246


 13931 1501 30       		.sleb128 48
 13932 1502 00000000 		.4byte	0
 13933 1506 00000000 		.4byte	0
 13934              	.LLST115:
 13935 150a 00000000 		.4byte	.LVL301
 13936 150e 3C000000 		.4byte	.LVL305
 13937 1512 0100     		.2byte	0x1
 13938 1514 50       		.byte	0x50
 13939 1515 3C000000 		.4byte	.LVL305
 13940 1519 A2000000 		.4byte	.LVL315
 13941 151d 0400     		.2byte	0x4
 13942 151f F3       		.byte	0xf3
 13943 1520 01       		.uleb128 0x1
 13944 1521 50       		.byte	0x50
 13945 1522 9F       		.byte	0x9f
 13946 1523 A2000000 		.4byte	.LVL315
 13947 1527 A5000000 		.4byte	.LVL316-1
 13948 152b 0100     		.2byte	0x1
 13949 152d 50       		.byte	0x50
 13950 152e A5000000 		.4byte	.LVL316-1
 13951 1532 CA000000 		.4byte	.LVL325
 13952 1536 0400     		.2byte	0x4
 13953 1538 F3       		.byte	0xf3
 13954 1539 01       		.uleb128 0x1
 13955 153a 50       		.byte	0x50
 13956 153b 9F       		.byte	0x9f
 13957 153c CA000000 		.4byte	.LVL325
 13958 1540 CD000000 		.4byte	.LVL326-1
 13959 1544 0100     		.2byte	0x1
 13960 1546 50       		.byte	0x50
 13961 1547 CD000000 		.4byte	.LVL326-1
 13962 154b D8000000 		.4byte	.LFE21
 13963 154f 0400     		.2byte	0x4
 13964 1551 F3       		.byte	0xf3
 13965 1552 01       		.uleb128 0x1
 13966 1553 50       		.byte	0x50
 13967 1554 9F       		.byte	0x9f
 13968 1555 00000000 		.4byte	0
 13969 1559 00000000 		.4byte	0
 13970              	.LLST116:
 13971 155d 00000000 		.4byte	.LVL301
 13972 1561 3C000000 		.4byte	.LVL305
 13973 1565 0100     		.2byte	0x1
 13974 1567 51       		.byte	0x51
 13975 1568 3C000000 		.4byte	.LVL305
 13976 156c A2000000 		.4byte	.LVL315
 13977 1570 0100     		.2byte	0x1
 13978 1572 58       		.byte	0x58
 13979 1573 A2000000 		.4byte	.LVL315
 13980 1577 A5000000 		.4byte	.LVL316-1
 13981 157b 0100     		.2byte	0x1
 13982 157d 51       		.byte	0x51
 13983 157e A5000000 		.4byte	.LVL316-1
 13984 1582 CA000000 		.4byte	.LVL325
 13985 1586 0100     		.2byte	0x1
 13986 1588 58       		.byte	0x58
 13987 1589 CA000000 		.4byte	.LVL325
ARM GAS  C:\Users\jenny\AppData\Local\Temp\ccLg5IEe.s 			page 247


 13988 158d CD000000 		.4byte	.LVL326-1
 13989 1591 0100     		.2byte	0x1
 13990 1593 51       		.byte	0x51
 13991 1594 CD000000 		.4byte	.LVL326-1
 13992 1598 D8000000 		.4byte	.LFE21
 13993 159c 0100     		.2byte	0x1
 13994 159e 58       		.byte	0x58
 13995 159f 00000000 		.4byte	0
 13996 15a3 00000000 		.4byte	0
 13997              	.LLST117:
 13998 15a7 00000000 		.4byte	.LVL301
 13999 15ab 3C000000 		.4byte	.LVL305
 14000 15af 0100     		.2byte	0x1
 14001 15b1 52       		.byte	0x52
 14002 15b2 3C000000 		.4byte	.LVL305
 14003 15b6 A2000000 		.4byte	.LVL315
 14004 15ba 0100     		.2byte	0x1
 14005 15bc 55       		.byte	0x55
 14006 15bd A2000000 		.4byte	.LVL315
 14007 15c1 A5000000 		.4byte	.LVL316-1
 14008 15c5 0100     		.2byte	0x1
 14009 15c7 52       		.byte	0x52
 14010 15c8 A5000000 		.4byte	.LVL316-1
 14011 15cc CA000000 		.4byte	.LVL325
 14012 15d0 0100     		.2byte	0x1
 14013 15d2 55       		.byte	0x55
 14014 15d3 CA000000 		.4byte	.LVL325
 14015 15d7 CD000000 		.4byte	.LVL326-1
 14016 15db 0100     		.2byte	0x1
 14017 15dd 52       		.byte	0x52
 14018 15de CD000000 		.4byte	.LVL326-1
 14019 15e2 D8000000 		.4byte	.LFE21
 14020 15e6 0100     		.2byte	0x1
 14021 15e8 55       		.byte	0x55
 14022 15e9 00000000 		.4byte	0
 14023 15ed 00000000 		.4byte	0
 14024              	.LLST118:
 14025 15f1 00000000 		.4byte	.LVL301
 14026 15f5 3C000000 		.4byte	.LVL305
 14027 15f9 0100     		.2byte	0x1
 14028 15fb 53       		.byte	0x53
 14029 15fc 3C000000 		.4byte	.LVL305
 14030 1600 A2000000 		.4byte	.LVL315
 14031 1604 0400     		.2byte	0x4
 14032 1606 F3       		.byte	0xf3
 14033 1607 01       		.uleb128 0x1
 14034 1608 53       		.byte	0x53
 14035 1609 9F       		.byte	0x9f
 14036 160a A2000000 		.4byte	.LVL315
 14037 160e A5000000 		.4byte	.LVL316-1
 14038 1612 0100     		.2byte	0x1
 14039 1614 53       		.byte	0x53
 14040 1615 A5000000 		.4byte	.LVL316-1
 14041 1619 CA000000 		.4byte	.LVL325
 14042 161d 0400     		.2byte	0x4
 14043 161f F3       		.byte	0xf3
 14044 1620 01       		.uleb128 0x1
ARM GAS  C:\Users\jenny\AppData\Local\Temp\ccLg5IEe.s 			page 248


 14045 1621 53       		.byte	0x53
 14046 1622 9F       		.byte	0x9f
 14047 1623 CA000000 		.4byte	.LVL325
 14048 1627 CD000000 		.4byte	.LVL326-1
 14049 162b 0100     		.2byte	0x1
 14050 162d 53       		.byte	0x53
 14051 162e CD000000 		.4byte	.LVL326-1
 14052 1632 D8000000 		.4byte	.LFE21
 14053 1636 0400     		.2byte	0x4
 14054 1638 F3       		.byte	0xf3
 14055 1639 01       		.uleb128 0x1
 14056 163a 53       		.byte	0x53
 14057 163b 9F       		.byte	0x9f
 14058 163c 00000000 		.4byte	0
 14059 1640 00000000 		.4byte	0
 14060              	.LLST119:
 14061 1644 68000000 		.4byte	.LVL309
 14062 1648 6E000000 		.4byte	.LVL310
 14063 164c 0100     		.2byte	0x1
 14064 164e 50       		.byte	0x50
 14065 164f 6E000000 		.4byte	.LVL310
 14066 1653 8E000000 		.4byte	.LVL312
 14067 1657 0100     		.2byte	0x1
 14068 1659 54       		.byte	0x54
 14069 165a BC000000 		.4byte	.LVL321
 14070 165e C0000000 		.4byte	.LVL322
 14071 1662 0100     		.2byte	0x1
 14072 1664 50       		.byte	0x50
 14073 1665 C8000000 		.4byte	.LVL324
 14074 1669 CA000000 		.4byte	.LVL325
 14075 166d 0100     		.2byte	0x1
 14076 166f 50       		.byte	0x50
 14077 1670 00000000 		.4byte	0
 14078 1674 00000000 		.4byte	0
 14079              	.LLST120:
 14080 1678 38000000 		.4byte	.LVL304
 14081 167c 3C000000 		.4byte	.LVL305
 14082 1680 0100     		.2byte	0x1
 14083 1682 55       		.byte	0x55
 14084 1683 A8000000 		.4byte	.LVL317
 14085 1687 AC000000 		.4byte	.LVL318
 14086 168b 0100     		.2byte	0x1
 14087 168d 55       		.byte	0x55
 14088 168e 00000000 		.4byte	0
 14089 1692 00000000 		.4byte	0
 14090              	.LLST121:
 14091 1696 4C000000 		.4byte	.LVL306
 14092 169a 5E000000 		.4byte	.LVL308
 14093 169e 0100     		.2byte	0x1
 14094 16a0 54       		.byte	0x54
 14095 16a1 B0000000 		.4byte	.LVL319
 14096 16a5 BC000000 		.4byte	.LVL321
 14097 16a9 0200     		.2byte	0x2
 14098 16ab 30       		.byte	0x30
 14099 16ac 9F       		.byte	0x9f
 14100 16ad 00000000 		.4byte	0
 14101 16b1 00000000 		.4byte	0
ARM GAS  C:\Users\jenny\AppData\Local\Temp\ccLg5IEe.s 			page 249


 14102              	.LLST122:
 14103 16b5 5A000000 		.4byte	.LVL307
 14104 16b9 5E000000 		.4byte	.LVL308
 14105 16bd 0100     		.2byte	0x1
 14106 16bf 50       		.byte	0x50
 14107 16c0 B4000000 		.4byte	.LVL320
 14108 16c4 BC000000 		.4byte	.LVL321
 14109 16c8 0200     		.2byte	0x2
 14110 16ca 30       		.byte	0x30
 14111 16cb 9F       		.byte	0x9f
 14112 16cc 00000000 		.4byte	0
 14113 16d0 00000000 		.4byte	0
 14114              	.LLST123:
 14115 16d4 0A000000 		.4byte	.LVL302
 14116 16d8 3C000000 		.4byte	.LVL305
 14117 16dc 0100     		.2byte	0x1
 14118 16de 50       		.byte	0x50
 14119 16df 3C000000 		.4byte	.LVL305
 14120 16e3 A2000000 		.4byte	.LVL315
 14121 16e7 0400     		.2byte	0x4
 14122 16e9 F3       		.byte	0xf3
 14123 16ea 01       		.uleb128 0x1
 14124 16eb 50       		.byte	0x50
 14125 16ec 9F       		.byte	0x9f
 14126 16ed A2000000 		.4byte	.LVL315
 14127 16f1 A5000000 		.4byte	.LVL316-1
 14128 16f5 0100     		.2byte	0x1
 14129 16f7 50       		.byte	0x50
 14130 16f8 A5000000 		.4byte	.LVL316-1
 14131 16fc CA000000 		.4byte	.LVL325
 14132 1700 0400     		.2byte	0x4
 14133 1702 F3       		.byte	0xf3
 14134 1703 01       		.uleb128 0x1
 14135 1704 50       		.byte	0x50
 14136 1705 9F       		.byte	0x9f
 14137 1706 CA000000 		.4byte	.LVL325
 14138 170a CD000000 		.4byte	.LVL326-1
 14139 170e 0100     		.2byte	0x1
 14140 1710 50       		.byte	0x50
 14141 1711 CD000000 		.4byte	.LVL326-1
 14142 1715 D8000000 		.4byte	.LFE21
 14143 1719 0400     		.2byte	0x4
 14144 171b F3       		.byte	0xf3
 14145 171c 01       		.uleb128 0x1
 14146 171d 50       		.byte	0x50
 14147 171e 9F       		.byte	0x9f
 14148 171f 00000000 		.4byte	0
 14149 1723 00000000 		.4byte	0
 14150              	.LLST124:
 14151 1727 22000000 		.4byte	.LVL303
 14152 172b 98000000 		.4byte	.LVL314
 14153 172f 0100     		.2byte	0x1
 14154 1731 59       		.byte	0x59
 14155 1732 A2000000 		.4byte	.LVL315
 14156 1736 D8000000 		.4byte	.LFE21
 14157 173a 0100     		.2byte	0x1
 14158 173c 59       		.byte	0x59
ARM GAS  C:\Users\jenny\AppData\Local\Temp\ccLg5IEe.s 			page 250


 14159 173d 00000000 		.4byte	0
 14160 1741 00000000 		.4byte	0
 14161              	.LLST125:
 14162 1745 00000000 		.4byte	.LFB20
 14163 1749 02000000 		.4byte	.LCFI26
 14164 174d 0200     		.2byte	0x2
 14165 174f 7D       		.byte	0x7d
 14166 1750 00       		.sleb128 0
 14167 1751 02000000 		.4byte	.LCFI26
 14168 1755 06000000 		.4byte	.LCFI27
 14169 1759 0200     		.2byte	0x2
 14170 175b 7D       		.byte	0x7d
 14171 175c 14       		.sleb128 20
 14172 175d 06000000 		.4byte	.LCFI27
 14173 1761 78000000 		.4byte	.LFE20
 14174 1765 0200     		.2byte	0x2
 14175 1767 7D       		.byte	0x7d
 14176 1768 28       		.sleb128 40
 14177 1769 00000000 		.4byte	0
 14178 176d 00000000 		.4byte	0
 14179              	.LLST126:
 14180 1771 00000000 		.4byte	.LVL327
 14181 1775 2E000000 		.4byte	.LVL331
 14182 1779 0100     		.2byte	0x1
 14183 177b 50       		.byte	0x50
 14184 177c 2E000000 		.4byte	.LVL331
 14185 1780 64000000 		.4byte	.LVL339
 14186 1784 0400     		.2byte	0x4
 14187 1786 F3       		.byte	0xf3
 14188 1787 01       		.uleb128 0x1
 14189 1788 50       		.byte	0x50
 14190 1789 9F       		.byte	0x9f
 14191 178a 64000000 		.4byte	.LVL339
 14192 178e 6D000000 		.4byte	.LVL340-1
 14193 1792 0100     		.2byte	0x1
 14194 1794 50       		.byte	0x50
 14195 1795 6D000000 		.4byte	.LVL340-1
 14196 1799 78000000 		.4byte	.LFE20
 14197 179d 0400     		.2byte	0x4
 14198 179f F3       		.byte	0xf3
 14199 17a0 01       		.uleb128 0x1
 14200 17a1 50       		.byte	0x50
 14201 17a2 9F       		.byte	0x9f
 14202 17a3 00000000 		.4byte	0
 14203 17a7 00000000 		.4byte	0
 14204              	.LLST127:
 14205 17ab 00000000 		.4byte	.LVL327
 14206 17af 45000000 		.4byte	.LVL335-1
 14207 17b3 0100     		.2byte	0x1
 14208 17b5 51       		.byte	0x51
 14209 17b6 45000000 		.4byte	.LVL335-1
 14210 17ba 64000000 		.4byte	.LVL339
 14211 17be 0400     		.2byte	0x4
 14212 17c0 F3       		.byte	0xf3
 14213 17c1 01       		.uleb128 0x1
 14214 17c2 51       		.byte	0x51
 14215 17c3 9F       		.byte	0x9f
ARM GAS  C:\Users\jenny\AppData\Local\Temp\ccLg5IEe.s 			page 251


 14216 17c4 64000000 		.4byte	.LVL339
 14217 17c8 6D000000 		.4byte	.LVL340-1
 14218 17cc 0100     		.2byte	0x1
 14219 17ce 51       		.byte	0x51
 14220 17cf 6D000000 		.4byte	.LVL340-1
 14221 17d3 78000000 		.4byte	.LFE20
 14222 17d7 0400     		.2byte	0x4
 14223 17d9 F3       		.byte	0xf3
 14224 17da 01       		.uleb128 0x1
 14225 17db 51       		.byte	0x51
 14226 17dc 9F       		.byte	0x9f
 14227 17dd 00000000 		.4byte	0
 14228 17e1 00000000 		.4byte	0
 14229              	.LLST128:
 14230 17e5 00000000 		.4byte	.LVL327
 14231 17e9 45000000 		.4byte	.LVL335-1
 14232 17ed 0100     		.2byte	0x1
 14233 17ef 52       		.byte	0x52
 14234 17f0 45000000 		.4byte	.LVL335-1
 14235 17f4 64000000 		.4byte	.LVL339
 14236 17f8 0400     		.2byte	0x4
 14237 17fa F3       		.byte	0xf3
 14238 17fb 01       		.uleb128 0x1
 14239 17fc 52       		.byte	0x52
 14240 17fd 9F       		.byte	0x9f
 14241 17fe 64000000 		.4byte	.LVL339
 14242 1802 6D000000 		.4byte	.LVL340-1
 14243 1806 0100     		.2byte	0x1
 14244 1808 52       		.byte	0x52
 14245 1809 6D000000 		.4byte	.LVL340-1
 14246 180d 78000000 		.4byte	.LFE20
 14247 1811 0400     		.2byte	0x4
 14248 1813 F3       		.byte	0xf3
 14249 1814 01       		.uleb128 0x1
 14250 1815 52       		.byte	0x52
 14251 1816 9F       		.byte	0x9f
 14252 1817 00000000 		.4byte	0
 14253 181b 00000000 		.4byte	0
 14254              	.LLST129:
 14255 181f 00000000 		.4byte	.LVL327
 14256 1823 2C000000 		.4byte	.LVL330
 14257 1827 0100     		.2byte	0x1
 14258 1829 53       		.byte	0x53
 14259 182a 2C000000 		.4byte	.LVL330
 14260 182e 3C000000 		.4byte	.LVL333
 14261 1832 0100     		.2byte	0x1
 14262 1834 55       		.byte	0x55
 14263 1835 3C000000 		.4byte	.LVL333
 14264 1839 64000000 		.4byte	.LVL339
 14265 183d 0400     		.2byte	0x4
 14266 183f F3       		.byte	0xf3
 14267 1840 01       		.uleb128 0x1
 14268 1841 53       		.byte	0x53
 14269 1842 9F       		.byte	0x9f
 14270 1843 64000000 		.4byte	.LVL339
 14271 1847 6D000000 		.4byte	.LVL340-1
 14272 184b 0100     		.2byte	0x1
ARM GAS  C:\Users\jenny\AppData\Local\Temp\ccLg5IEe.s 			page 252


 14273 184d 53       		.byte	0x53
 14274 184e 6D000000 		.4byte	.LVL340-1
 14275 1852 78000000 		.4byte	.LFE20
 14276 1856 0100     		.2byte	0x1
 14277 1858 55       		.byte	0x55
 14278 1859 00000000 		.4byte	0
 14279 185d 00000000 		.4byte	0
 14280              	.LLST130:
 14281 1861 46000000 		.4byte	.LVL335
 14282 1865 5A000000 		.4byte	.LVL337
 14283 1869 0100     		.2byte	0x1
 14284 186b 50       		.byte	0x50
 14285 186c 00000000 		.4byte	0
 14286 1870 00000000 		.4byte	0
 14287              	.LLST131:
 14288 1874 3C000000 		.4byte	.LVL333
 14289 1878 42000000 		.4byte	.LVL334
 14290 187c 0600     		.2byte	0x6
 14291 187e 75       		.byte	0x75
 14292 187f 00       		.sleb128 0
 14293 1880 73       		.byte	0x73
 14294 1881 00       		.sleb128 0
 14295 1882 21       		.byte	0x21
 14296 1883 9F       		.byte	0x9f
 14297 1884 42000000 		.4byte	.LVL334
 14298 1888 5C000000 		.4byte	.LVL338
 14299 188c 1500     		.2byte	0x15
 14300 188e 31       		.byte	0x31
 14301 188f 33       		.byte	0x33
 14302 1890 F3       		.byte	0xf3
 14303 1891 01       		.uleb128 0x1
 14304 1892 53       		.byte	0x53
 14305 1893 09       		.byte	0x9
 14306 1894 FF       		.byte	0xff
 14307 1895 24       		.byte	0x24
 14308 1896 33       		.byte	0x33
 14309 1897 25       		.byte	0x25
 14310 1898 30       		.byte	0x30
 14311 1899 29       		.byte	0x29
 14312 189a 28       		.byte	0x28
 14313 189b 0100     		.2byte	0x1
 14314 189d 16       		.byte	0x16
 14315 189e 13       		.byte	0x13
 14316 189f 75       		.byte	0x75
 14317 18a0 00       		.sleb128 0
 14318 18a1 21       		.byte	0x21
 14319 18a2 9F       		.byte	0x9f
 14320 18a3 00000000 		.4byte	0
 14321 18a7 00000000 		.4byte	0
 14322              	.LLST132:
 14323 18ab 32000000 		.4byte	.LVL332
 14324 18af 58000000 		.4byte	.LVL336
 14325 18b3 0200     		.2byte	0x2
 14326 18b5 74       		.byte	0x74
 14327 18b6 7C       		.sleb128 -4
 14328 18b7 58000000 		.4byte	.LVL336
 14329 18bb 5C000000 		.4byte	.LVL338
ARM GAS  C:\Users\jenny\AppData\Local\Temp\ccLg5IEe.s 			page 253


 14330 18bf 0200     		.2byte	0x2
 14331 18c1 91       		.byte	0x91
 14332 18c2 64       		.sleb128 -28
 14333 18c3 5C000000 		.4byte	.LVL338
 14334 18c7 64000000 		.4byte	.LVL339
 14335 18cb 0200     		.2byte	0x2
 14336 18cd 74       		.byte	0x74
 14337 18ce 7C       		.sleb128 -4
 14338 18cf 00000000 		.4byte	0
 14339 18d3 00000000 		.4byte	0
 14340              	.LLST133:
 14341 18d7 08000000 		.4byte	.LVL328
 14342 18db 2E000000 		.4byte	.LVL331
 14343 18df 0100     		.2byte	0x1
 14344 18e1 50       		.byte	0x50
 14345 18e2 2E000000 		.4byte	.LVL331
 14346 18e6 64000000 		.4byte	.LVL339
 14347 18ea 0400     		.2byte	0x4
 14348 18ec F3       		.byte	0xf3
 14349 18ed 01       		.uleb128 0x1
 14350 18ee 50       		.byte	0x50
 14351 18ef 9F       		.byte	0x9f
 14352 18f0 64000000 		.4byte	.LVL339
 14353 18f4 6D000000 		.4byte	.LVL340-1
 14354 18f8 0100     		.2byte	0x1
 14355 18fa 50       		.byte	0x50
 14356 18fb 6D000000 		.4byte	.LVL340-1
 14357 18ff 78000000 		.4byte	.LFE20
 14358 1903 0400     		.2byte	0x4
 14359 1905 F3       		.byte	0xf3
 14360 1906 01       		.uleb128 0x1
 14361 1907 50       		.byte	0x50
 14362 1908 9F       		.byte	0x9f
 14363 1909 00000000 		.4byte	0
 14364 190d 00000000 		.4byte	0
 14365              	.LLST134:
 14366 1911 16000000 		.4byte	.LVL329
 14367 1915 5C000000 		.4byte	.LVL338
 14368 1919 0100     		.2byte	0x1
 14369 191b 57       		.byte	0x57
 14370 191c 64000000 		.4byte	.LVL339
 14371 1920 78000000 		.4byte	.LFE20
 14372 1924 0100     		.2byte	0x1
 14373 1926 57       		.byte	0x57
 14374 1927 00000000 		.4byte	0
 14375 192b 00000000 		.4byte	0
 14376              	.LLST135:
 14377 192f 00000000 		.4byte	.LFB22
 14378 1933 04000000 		.4byte	.LCFI28
 14379 1937 0200     		.2byte	0x2
 14380 1939 7D       		.byte	0x7d
 14381 193a 00       		.sleb128 0
 14382 193b 04000000 		.4byte	.LCFI28
 14383 193f 78000000 		.4byte	.LFE22
 14384 1943 0200     		.2byte	0x2
 14385 1945 7D       		.byte	0x7d
 14386 1946 10       		.sleb128 16
ARM GAS  C:\Users\jenny\AppData\Local\Temp\ccLg5IEe.s 			page 254


 14387 1947 00000000 		.4byte	0
 14388 194b 00000000 		.4byte	0
 14389              	.LLST136:
 14390 194f 00000000 		.4byte	.LVL341
 14391 1953 0E000000 		.4byte	.LVL342
 14392 1957 0100     		.2byte	0x1
 14393 1959 50       		.byte	0x50
 14394 195a 0E000000 		.4byte	.LVL342
 14395 195e 16000000 		.4byte	.LVL343
 14396 1962 0400     		.2byte	0x4
 14397 1964 F3       		.byte	0xf3
 14398 1965 01       		.uleb128 0x1
 14399 1966 50       		.byte	0x50
 14400 1967 9F       		.byte	0x9f
 14401 1968 16000000 		.4byte	.LVL343
 14402 196c 18000000 		.4byte	.LVL344
 14403 1970 0100     		.2byte	0x1
 14404 1972 50       		.byte	0x50
 14405 1973 18000000 		.4byte	.LVL344
 14406 1977 48000000 		.4byte	.LVL353
 14407 197b 0400     		.2byte	0x4
 14408 197d F3       		.byte	0xf3
 14409 197e 01       		.uleb128 0x1
 14410 197f 50       		.byte	0x50
 14411 1980 9F       		.byte	0x9f
 14412 1981 48000000 		.4byte	.LVL353
 14413 1985 4C000000 		.4byte	.LVL355
 14414 1989 0100     		.2byte	0x1
 14415 198b 50       		.byte	0x50
 14416 198c 4C000000 		.4byte	.LVL355
 14417 1990 5A000000 		.4byte	.LVL359
 14418 1994 0400     		.2byte	0x4
 14419 1996 F3       		.byte	0xf3
 14420 1997 01       		.uleb128 0x1
 14421 1998 50       		.byte	0x50
 14422 1999 9F       		.byte	0x9f
 14423 199a 5A000000 		.4byte	.LVL359
 14424 199e 62000000 		.4byte	.LVL360
 14425 19a2 0100     		.2byte	0x1
 14426 19a4 50       		.byte	0x50
 14427 19a5 62000000 		.4byte	.LVL360
 14428 19a9 78000000 		.4byte	.LFE22
 14429 19ad 0400     		.2byte	0x4
 14430 19af F3       		.byte	0xf3
 14431 19b0 01       		.uleb128 0x1
 14432 19b1 50       		.byte	0x50
 14433 19b2 9F       		.byte	0x9f
 14434 19b3 00000000 		.4byte	0
 14435 19b7 00000000 		.4byte	0
 14436              	.LLST137:
 14437 19bb 00000000 		.4byte	.LVL341
 14438 19bf 0E000000 		.4byte	.LVL342
 14439 19c3 0100     		.2byte	0x1
 14440 19c5 51       		.byte	0x51
 14441 19c6 0E000000 		.4byte	.LVL342
 14442 19ca 16000000 		.4byte	.LVL343
 14443 19ce 0400     		.2byte	0x4
ARM GAS  C:\Users\jenny\AppData\Local\Temp\ccLg5IEe.s 			page 255


 14444 19d0 F3       		.byte	0xf3
 14445 19d1 01       		.uleb128 0x1
 14446 19d2 51       		.byte	0x51
 14447 19d3 9F       		.byte	0x9f
 14448 19d4 16000000 		.4byte	.LVL343
 14449 19d8 1A000000 		.4byte	.LVL345
 14450 19dc 0100     		.2byte	0x1
 14451 19de 51       		.byte	0x51
 14452 19df 1A000000 		.4byte	.LVL345
 14453 19e3 48000000 		.4byte	.LVL353
 14454 19e7 0400     		.2byte	0x4
 14455 19e9 F3       		.byte	0xf3
 14456 19ea 01       		.uleb128 0x1
 14457 19eb 51       		.byte	0x51
 14458 19ec 9F       		.byte	0x9f
 14459 19ed 48000000 		.4byte	.LVL353
 14460 19f1 4A000000 		.4byte	.LVL354
 14461 19f5 0100     		.2byte	0x1
 14462 19f7 51       		.byte	0x51
 14463 19f8 4A000000 		.4byte	.LVL354
 14464 19fc 5A000000 		.4byte	.LVL359
 14465 1a00 0400     		.2byte	0x4
 14466 1a02 F3       		.byte	0xf3
 14467 1a03 01       		.uleb128 0x1
 14468 1a04 51       		.byte	0x51
 14469 1a05 9F       		.byte	0x9f
 14470 1a06 5A000000 		.4byte	.LVL359
 14471 1a0a 64000000 		.4byte	.LVL361
 14472 1a0e 0100     		.2byte	0x1
 14473 1a10 51       		.byte	0x51
 14474 1a11 64000000 		.4byte	.LVL361
 14475 1a15 78000000 		.4byte	.LFE22
 14476 1a19 0400     		.2byte	0x4
 14477 1a1b F3       		.byte	0xf3
 14478 1a1c 01       		.uleb128 0x1
 14479 1a1d 51       		.byte	0x51
 14480 1a1e 9F       		.byte	0x9f
 14481 1a1f 00000000 		.4byte	0
 14482 1a23 00000000 		.4byte	0
 14483              	.LLST138:
 14484 1a27 00000000 		.4byte	.LVL341
 14485 1a2b 0E000000 		.4byte	.LVL342
 14486 1a2f 0100     		.2byte	0x1
 14487 1a31 52       		.byte	0x52
 14488 1a32 0E000000 		.4byte	.LVL342
 14489 1a36 16000000 		.4byte	.LVL343
 14490 1a3a 0400     		.2byte	0x4
 14491 1a3c F3       		.byte	0xf3
 14492 1a3d 01       		.uleb128 0x1
 14493 1a3e 52       		.byte	0x52
 14494 1a3f 9F       		.byte	0x9f
 14495 1a40 16000000 		.4byte	.LVL343
 14496 1a44 1C000000 		.4byte	.LVL346
 14497 1a48 0100     		.2byte	0x1
 14498 1a4a 52       		.byte	0x52
 14499 1a4b 1C000000 		.4byte	.LVL346
 14500 1a4f 48000000 		.4byte	.LVL353
ARM GAS  C:\Users\jenny\AppData\Local\Temp\ccLg5IEe.s 			page 256


 14501 1a53 0400     		.2byte	0x4
 14502 1a55 F3       		.byte	0xf3
 14503 1a56 01       		.uleb128 0x1
 14504 1a57 52       		.byte	0x52
 14505 1a58 9F       		.byte	0x9f
 14506 1a59 48000000 		.4byte	.LVL353
 14507 1a5d 4E000000 		.4byte	.LVL356
 14508 1a61 0100     		.2byte	0x1
 14509 1a63 52       		.byte	0x52
 14510 1a64 4E000000 		.4byte	.LVL356
 14511 1a68 5A000000 		.4byte	.LVL359
 14512 1a6c 0400     		.2byte	0x4
 14513 1a6e F3       		.byte	0xf3
 14514 1a6f 01       		.uleb128 0x1
 14515 1a70 52       		.byte	0x52
 14516 1a71 9F       		.byte	0x9f
 14517 1a72 5A000000 		.4byte	.LVL359
 14518 1a76 66000000 		.4byte	.LVL362
 14519 1a7a 0100     		.2byte	0x1
 14520 1a7c 52       		.byte	0x52
 14521 1a7d 66000000 		.4byte	.LVL362
 14522 1a81 78000000 		.4byte	.LFE22
 14523 1a85 0400     		.2byte	0x4
 14524 1a87 F3       		.byte	0xf3
 14525 1a88 01       		.uleb128 0x1
 14526 1a89 52       		.byte	0x52
 14527 1a8a 9F       		.byte	0x9f
 14528 1a8b 00000000 		.4byte	0
 14529 1a8f 00000000 		.4byte	0
 14530              	.LLST139:
 14531 1a93 20000000 		.4byte	.LVL347
 14532 1a97 2C000000 		.4byte	.LVL348
 14533 1a9b 0100     		.2byte	0x1
 14534 1a9d 50       		.byte	0x50
 14535 1a9e 2C000000 		.4byte	.LVL348
 14536 1aa2 48000000 		.4byte	.LVL353
 14537 1aa6 0100     		.2byte	0x1
 14538 1aa8 55       		.byte	0x55
 14539 1aa9 54000000 		.4byte	.LVL358
 14540 1aad 5A000000 		.4byte	.LVL359
 14541 1ab1 0100     		.2byte	0x1
 14542 1ab3 50       		.byte	0x50
 14543 1ab4 6C000000 		.4byte	.LVL364
 14544 1ab8 78000000 		.4byte	.LFE22
 14545 1abc 0100     		.2byte	0x1
 14546 1abe 50       		.byte	0x50
 14547 1abf 00000000 		.4byte	0
 14548 1ac3 00000000 		.4byte	0
 14549              	.LLST140:
 14550 1ac7 3A000000 		.4byte	.LVL350
 14551 1acb 42000000 		.4byte	.LVL351
 14552 1acf 0100     		.2byte	0x1
 14553 1ad1 50       		.byte	0x50
 14554 1ad2 42000000 		.4byte	.LVL351
 14555 1ad6 48000000 		.4byte	.LVL353
 14556 1ada 0100     		.2byte	0x1
 14557 1adc 54       		.byte	0x54
ARM GAS  C:\Users\jenny\AppData\Local\Temp\ccLg5IEe.s 			page 257


 14558 1add 00000000 		.4byte	0
 14559 1ae1 00000000 		.4byte	0
 14560              	.LLST141:
 14561 1ae5 00000000 		.4byte	.LVL365
 14562 1ae9 05000000 		.4byte	.LVL366-1
 14563 1aed 0100     		.2byte	0x1
 14564 1aef 50       		.byte	0x50
 14565 1af0 05000000 		.4byte	.LVL366-1
 14566 1af4 06000000 		.4byte	.LFE23
 14567 1af8 0400     		.2byte	0x4
 14568 1afa F3       		.byte	0xf3
 14569 1afb 01       		.uleb128 0x1
 14570 1afc 50       		.byte	0x50
 14571 1afd 9F       		.byte	0x9f
 14572 1afe 00000000 		.4byte	0
 14573 1b02 00000000 		.4byte	0
 14574              	.LLST142:
 14575 1b06 00000000 		.4byte	.LVL365
 14576 1b0a 05000000 		.4byte	.LVL366-1
 14577 1b0e 0100     		.2byte	0x1
 14578 1b10 51       		.byte	0x51
 14579 1b11 05000000 		.4byte	.LVL366-1
 14580 1b15 06000000 		.4byte	.LFE23
 14581 1b19 0400     		.2byte	0x4
 14582 1b1b F3       		.byte	0xf3
 14583 1b1c 01       		.uleb128 0x1
 14584 1b1d 51       		.byte	0x51
 14585 1b1e 9F       		.byte	0x9f
 14586 1b1f 00000000 		.4byte	0
 14587 1b23 00000000 		.4byte	0
 14588              	.LLST143:
 14589 1b27 00000000 		.4byte	.LVL365
 14590 1b2b 05000000 		.4byte	.LVL366-1
 14591 1b2f 0100     		.2byte	0x1
 14592 1b31 52       		.byte	0x52
 14593 1b32 05000000 		.4byte	.LVL366-1
 14594 1b36 06000000 		.4byte	.LFE23
 14595 1b3a 0400     		.2byte	0x4
 14596 1b3c F3       		.byte	0xf3
 14597 1b3d 01       		.uleb128 0x1
 14598 1b3e 52       		.byte	0x52
 14599 1b3f 9F       		.byte	0x9f
 14600 1b40 00000000 		.4byte	0
 14601 1b44 00000000 		.4byte	0
 14602              	.LLST144:
 14603 1b48 00000000 		.4byte	.LFB25
 14604 1b4c 04000000 		.4byte	.LCFI29
 14605 1b50 0200     		.2byte	0x2
 14606 1b52 7D       		.byte	0x7d
 14607 1b53 00       		.sleb128 0
 14608 1b54 04000000 		.4byte	.LCFI29
 14609 1b58 06000000 		.4byte	.LCFI30
 14610 1b5c 0200     		.2byte	0x2
 14611 1b5e 7D       		.byte	0x7d
 14612 1b5f 24       		.sleb128 36
 14613 1b60 06000000 		.4byte	.LCFI30
 14614 1b64 30050000 		.4byte	.LFE25
ARM GAS  C:\Users\jenny\AppData\Local\Temp\ccLg5IEe.s 			page 258


 14615 1b68 0300     		.2byte	0x3
 14616 1b6a 7D       		.byte	0x7d
 14617 1b6b F000     		.sleb128 112
 14618 1b6d 00000000 		.4byte	0
 14619 1b71 00000000 		.4byte	0
 14620              	.LLST145:
 14621 1b75 00000000 		.4byte	.LVL367
 14622 1b79 1D000000 		.4byte	.LVL368-1
 14623 1b7d 0100     		.2byte	0x1
 14624 1b7f 50       		.byte	0x50
 14625 1b80 1D000000 		.4byte	.LVL368-1
 14626 1b84 30050000 		.4byte	.LFE25
 14627 1b88 0100     		.2byte	0x1
 14628 1b8a 5A       		.byte	0x5a
 14629 1b8b 00000000 		.4byte	0
 14630 1b8f 00000000 		.4byte	0
 14631              	.LLST146:
 14632 1b93 00000000 		.4byte	.LVL367
 14633 1b97 1D000000 		.4byte	.LVL368-1
 14634 1b9b 0100     		.2byte	0x1
 14635 1b9d 51       		.byte	0x51
 14636 1b9e 1D000000 		.4byte	.LVL368-1
 14637 1ba2 30050000 		.4byte	.LFE25
 14638 1ba6 0100     		.2byte	0x1
 14639 1ba8 54       		.byte	0x54
 14640 1ba9 00000000 		.4byte	0
 14641 1bad 00000000 		.4byte	0
 14642              	.LLST147:
 14643 1bb1 00000000 		.4byte	.LVL367
 14644 1bb5 1D000000 		.4byte	.LVL368-1
 14645 1bb9 0100     		.2byte	0x1
 14646 1bbb 52       		.byte	0x52
 14647 1bbc 1D000000 		.4byte	.LVL368-1
 14648 1bc0 30050000 		.4byte	.LFE25
 14649 1bc4 0100     		.2byte	0x1
 14650 1bc6 55       		.byte	0x55
 14651 1bc7 00000000 		.4byte	0
 14652 1bcb 00000000 		.4byte	0
 14653              	.LLST148:
 14654 1bcf 00000000 		.4byte	.LVL367
 14655 1bd3 1D000000 		.4byte	.LVL368-1
 14656 1bd7 0100     		.2byte	0x1
 14657 1bd9 53       		.byte	0x53
 14658 1bda 1D000000 		.4byte	.LVL368-1
 14659 1bde 30050000 		.4byte	.LFE25
 14660 1be2 0100     		.2byte	0x1
 14661 1be4 58       		.byte	0x58
 14662 1be5 00000000 		.4byte	0
 14663 1be9 00000000 		.4byte	0
 14664              	.LLST149:
 14665 1bed 00000000 		.4byte	.LVL367
 14666 1bf1 B8010000 		.4byte	.LVL379
 14667 1bf5 0200     		.2byte	0x2
 14668 1bf7 30       		.byte	0x30
 14669 1bf8 9F       		.byte	0x9f
 14670 1bf9 B8010000 		.4byte	.LVL379
 14671 1bfd 94020000 		.4byte	.LVL383
ARM GAS  C:\Users\jenny\AppData\Local\Temp\ccLg5IEe.s 			page 259


 14672 1c01 0300     		.2byte	0x3
 14673 1c03 91       		.byte	0x91
 14674 1c04 AC7F     		.sleb128 -84
 14675 1c06 BA020000 		.4byte	.LVL385
 14676 1c0a 50030000 		.4byte	.LVL391
 14677 1c0e 0200     		.2byte	0x2
 14678 1c10 30       		.byte	0x30
 14679 1c11 9F       		.byte	0x9f
 14680 1c12 50030000 		.4byte	.LVL391
 14681 1c16 58030000 		.4byte	.LVL392
 14682 1c1a 0100     		.2byte	0x1
 14683 1c1c 50       		.byte	0x50
 14684 1c1d 58030000 		.4byte	.LVL392
 14685 1c21 26040000 		.4byte	.LVL394
 14686 1c25 0300     		.2byte	0x3
 14687 1c27 91       		.byte	0x91
 14688 1c28 AC7F     		.sleb128 -84
 14689 1c2a 26040000 		.4byte	.LVL394
 14690 1c2e 9A040000 		.4byte	.LVL396
 14691 1c32 0200     		.2byte	0x2
 14692 1c34 30       		.byte	0x30
 14693 1c35 9F       		.byte	0x9f
 14694 1c36 9A040000 		.4byte	.LVL396
 14695 1c3a C2040000 		.4byte	.LVL401
 14696 1c3e 0300     		.2byte	0x3
 14697 1c40 91       		.byte	0x91
 14698 1c41 AC7F     		.sleb128 -84
 14699 1c43 C2040000 		.4byte	.LVL401
 14700 1c47 D6040000 		.4byte	.LVL405
 14701 1c4b 0200     		.2byte	0x2
 14702 1c4d 30       		.byte	0x30
 14703 1c4e 9F       		.byte	0x9f
 14704 1c4f D6040000 		.4byte	.LVL405
 14705 1c53 F4040000 		.4byte	.LVL408
 14706 1c57 0300     		.2byte	0x3
 14707 1c59 91       		.byte	0x91
 14708 1c5a AC7F     		.sleb128 -84
 14709 1c5c F4040000 		.4byte	.LVL408
 14710 1c60 FA040000 		.4byte	.LVL410
 14711 1c64 0200     		.2byte	0x2
 14712 1c66 30       		.byte	0x30
 14713 1c67 9F       		.byte	0x9f
 14714 1c68 FA040000 		.4byte	.LVL410
 14715 1c6c 12050000 		.4byte	.LVL414
 14716 1c70 0300     		.2byte	0x3
 14717 1c72 91       		.byte	0x91
 14718 1c73 AC7F     		.sleb128 -84
 14719 1c75 12050000 		.4byte	.LVL414
 14720 1c79 20050000 		.4byte	.LVL417
 14721 1c7d 0200     		.2byte	0x2
 14722 1c7f 30       		.byte	0x30
 14723 1c80 9F       		.byte	0x9f
 14724 1c81 20050000 		.4byte	.LVL417
 14725 1c85 2A050000 		.4byte	.LVL419
 14726 1c89 0300     		.2byte	0x3
 14727 1c8b 91       		.byte	0x91
 14728 1c8c AC7F     		.sleb128 -84
ARM GAS  C:\Users\jenny\AppData\Local\Temp\ccLg5IEe.s 			page 260


 14729 1c8e 2A050000 		.4byte	.LVL419
 14730 1c92 30050000 		.4byte	.LFE25
 14731 1c96 0200     		.2byte	0x2
 14732 1c98 30       		.byte	0x30
 14733 1c99 9F       		.byte	0x9f
 14734 1c9a 00000000 		.4byte	0
 14735 1c9e 00000000 		.4byte	0
 14736              	.LLST150:
 14737 1ca2 1E000000 		.4byte	.LVL368
 14738 1ca6 30000000 		.4byte	.LVL369
 14739 1caa 0100     		.2byte	0x1
 14740 1cac 50       		.byte	0x50
 14741 1cad 30000000 		.4byte	.LVL369
 14742 1cb1 A8000000 		.4byte	.LVL373
 14743 1cb5 0100     		.2byte	0x1
 14744 1cb7 59       		.byte	0x59
 14745 1cb8 AC010000 		.4byte	.LVL378
 14746 1cbc B8010000 		.4byte	.LVL379
 14747 1cc0 0100     		.2byte	0x1
 14748 1cc2 50       		.byte	0x50
 14749 1cc3 B8010000 		.4byte	.LVL379
 14750 1cc7 B2020000 		.4byte	.LVL384
 14751 1ccb 0100     		.2byte	0x1
 14752 1ccd 59       		.byte	0x59
 14753 1cce 18030000 		.4byte	.LVL386
 14754 1cd2 24030000 		.4byte	.LVL387
 14755 1cd6 0100     		.2byte	0x1
 14756 1cd8 50       		.byte	0x50
 14757 1cd9 24030000 		.4byte	.LVL387
 14758 1cdd 44040000 		.4byte	.LVL395
 14759 1ce1 0100     		.2byte	0x1
 14760 1ce3 59       		.byte	0x59
 14761 1ce4 9A040000 		.4byte	.LVL396
 14762 1ce8 C2040000 		.4byte	.LVL401
 14763 1cec 0100     		.2byte	0x1
 14764 1cee 59       		.byte	0x59
 14765 1cef D6040000 		.4byte	.LVL405
 14766 1cf3 F4040000 		.4byte	.LVL408
 14767 1cf7 0100     		.2byte	0x1
 14768 1cf9 59       		.byte	0x59
 14769 1cfa FA040000 		.4byte	.LVL410
 14770 1cfe 12050000 		.4byte	.LVL414
 14771 1d02 0100     		.2byte	0x1
 14772 1d04 59       		.byte	0x59
 14773 1d05 1C050000 		.4byte	.LVL416
 14774 1d09 20050000 		.4byte	.LVL417
 14775 1d0d 0100     		.2byte	0x1
 14776 1d0f 50       		.byte	0x50
 14777 1d10 20050000 		.4byte	.LVL417
 14778 1d14 2E050000 		.4byte	.LVL420
 14779 1d18 0100     		.2byte	0x1
 14780 1d1a 59       		.byte	0x59
 14781 1d1b 00000000 		.4byte	0
 14782 1d1f 00000000 		.4byte	0
 14783              	.LLST151:
 14784 1d23 42030000 		.4byte	.LVL388
 14785 1d27 48030000 		.4byte	.LVL389
ARM GAS  C:\Users\jenny\AppData\Local\Temp\ccLg5IEe.s 			page 261


 14786 1d2b 0100     		.2byte	0x1
 14787 1d2d 51       		.byte	0x51
 14788 1d2e 00000000 		.4byte	0
 14789 1d32 00000000 		.4byte	0
 14790              	.LLST152:
 14791 1d36 52000000 		.4byte	.LVL370
 14792 1d3a 80000000 		.4byte	.LVL371
 14793 1d3e 0100     		.2byte	0x1
 14794 1d40 50       		.byte	0x50
 14795 1d41 2A050000 		.4byte	.LVL419
 14796 1d45 30050000 		.4byte	.LFE25
 14797 1d49 0100     		.2byte	0x1
 14798 1d4b 50       		.byte	0x50
 14799 1d4c 00000000 		.4byte	0
 14800 1d50 00000000 		.4byte	0
 14801              	.LLST153:
 14802 1d54 88000000 		.4byte	.LVL372
 14803 1d58 C2000000 		.4byte	.LVL374
 14804 1d5c 0200     		.2byte	0x2
 14805 1d5e 30       		.byte	0x30
 14806 1d5f 9F       		.byte	0x9f
 14807 1d60 B8010000 		.4byte	.LVL379
 14808 1d64 EE010000 		.4byte	.LVL380
 14809 1d68 0200     		.2byte	0x2
 14810 1d6a 30       		.byte	0x30
 14811 1d6b 9F       		.byte	0x9f
 14812 1d6c 08040000 		.4byte	.LVL393
 14813 1d70 44040000 		.4byte	.LVL395
 14814 1d74 0200     		.2byte	0x2
 14815 1d76 30       		.byte	0x30
 14816 1d77 9F       		.byte	0x9f
 14817 1d78 B2040000 		.4byte	.LVL399
 14818 1d7c CE040000 		.4byte	.LVL403
 14819 1d80 0200     		.2byte	0x2
 14820 1d82 30       		.byte	0x30
 14821 1d83 9F       		.byte	0x9f
 14822 1d84 04050000 		.4byte	.LVL412
 14823 1d88 1C050000 		.4byte	.LVL416
 14824 1d8c 0200     		.2byte	0x2
 14825 1d8e 30       		.byte	0x30
 14826 1d8f 9F       		.byte	0x9f
 14827 1d90 00000000 		.4byte	0
 14828 1d94 00000000 		.4byte	0
 14829              	.LLST154:
 14830 1d98 00000000 		.4byte	.LFB27
 14831 1d9c 04000000 		.4byte	.LCFI31
 14832 1da0 0200     		.2byte	0x2
 14833 1da2 7D       		.byte	0x7d
 14834 1da3 00       		.sleb128 0
 14835 1da4 04000000 		.4byte	.LCFI31
 14836 1da8 70000000 		.4byte	.LFE27
 14837 1dac 0200     		.2byte	0x2
 14838 1dae 7D       		.byte	0x7d
 14839 1daf 08       		.sleb128 8
 14840 1db0 00000000 		.4byte	0
 14841 1db4 00000000 		.4byte	0
 14842              	.LLST155:
ARM GAS  C:\Users\jenny\AppData\Local\Temp\ccLg5IEe.s 			page 262


 14843 1db8 00000000 		.4byte	.LVL421
 14844 1dbc 0A000000 		.4byte	.LVL422
 14845 1dc0 0100     		.2byte	0x1
 14846 1dc2 50       		.byte	0x50
 14847 1dc3 0A000000 		.4byte	.LVL422
 14848 1dc7 70000000 		.4byte	.LFE27
 14849 1dcb 0400     		.2byte	0x4
 14850 1dcd F3       		.byte	0xf3
 14851 1dce 01       		.uleb128 0x1
 14852 1dcf 50       		.byte	0x50
 14853 1dd0 9F       		.byte	0x9f
 14854 1dd1 00000000 		.4byte	0
 14855 1dd5 00000000 		.4byte	0
 14856              	.LLST156:
 14857 1dd9 00000000 		.4byte	.LVL421
 14858 1ddd 3A000000 		.4byte	.LVL426
 14859 1de1 0100     		.2byte	0x1
 14860 1de3 51       		.byte	0x51
 14861 1de4 3A000000 		.4byte	.LVL426
 14862 1de8 5A000000 		.4byte	.LVL429
 14863 1dec 0400     		.2byte	0x4
 14864 1dee F3       		.byte	0xf3
 14865 1def 01       		.uleb128 0x1
 14866 1df0 51       		.byte	0x51
 14867 1df1 9F       		.byte	0x9f
 14868 1df2 5A000000 		.4byte	.LVL429
 14869 1df6 5E000000 		.4byte	.LVL430
 14870 1dfa 0100     		.2byte	0x1
 14871 1dfc 51       		.byte	0x51
 14872 1dfd 5E000000 		.4byte	.LVL430
 14873 1e01 60000000 		.4byte	.LVL431
 14874 1e05 0100     		.2byte	0x1
 14875 1e07 52       		.byte	0x52
 14876 1e08 60000000 		.4byte	.LVL431
 14877 1e0c 64000000 		.4byte	.LVL432
 14878 1e10 0100     		.2byte	0x1
 14879 1e12 51       		.byte	0x51
 14880 1e13 64000000 		.4byte	.LVL432
 14881 1e17 70000000 		.4byte	.LFE27
 14882 1e1b 0400     		.2byte	0x4
 14883 1e1d F3       		.byte	0xf3
 14884 1e1e 01       		.uleb128 0x1
 14885 1e1f 51       		.byte	0x51
 14886 1e20 9F       		.byte	0x9f
 14887 1e21 00000000 		.4byte	0
 14888 1e25 00000000 		.4byte	0
 14889              	.LLST157:
 14890 1e29 3E000000 		.4byte	.LVL427
 14891 1e2d 58000000 		.4byte	.LVL428
 14892 1e31 0100     		.2byte	0x1
 14893 1e33 50       		.byte	0x50
 14894 1e34 00000000 		.4byte	0
 14895 1e38 00000000 		.4byte	0
 14896              	.LLST158:
 14897 1e3c 00000000 		.4byte	.LVL421
 14898 1e40 3A000000 		.4byte	.LVL426
 14899 1e44 0200     		.2byte	0x2
ARM GAS  C:\Users\jenny\AppData\Local\Temp\ccLg5IEe.s 			page 263


 14900 1e46 30       		.byte	0x30
 14901 1e47 9F       		.byte	0x9f
 14902 1e48 3A000000 		.4byte	.LVL426
 14903 1e4c 3D000000 		.4byte	.LVL427-1
 14904 1e50 0100     		.2byte	0x1
 14905 1e52 51       		.byte	0x51
 14906 1e53 5A000000 		.4byte	.LVL429
 14907 1e57 70000000 		.4byte	.LFE27
 14908 1e5b 0200     		.2byte	0x2
 14909 1e5d 30       		.byte	0x30
 14910 1e5e 9F       		.byte	0x9f
 14911 1e5f 00000000 		.4byte	0
 14912 1e63 00000000 		.4byte	0
 14913              	.LLST159:
 14914 1e67 00000000 		.4byte	.LVL421
 14915 1e6b 3A000000 		.4byte	.LVL426
 14916 1e6f 0200     		.2byte	0x2
 14917 1e71 30       		.byte	0x30
 14918 1e72 9F       		.byte	0x9f
 14919 1e73 3A000000 		.4byte	.LVL426
 14920 1e77 3D000000 		.4byte	.LVL427-1
 14921 1e7b 0100     		.2byte	0x1
 14922 1e7d 52       		.byte	0x52
 14923 1e7e 5A000000 		.4byte	.LVL429
 14924 1e82 70000000 		.4byte	.LFE27
 14925 1e86 0200     		.2byte	0x2
 14926 1e88 30       		.byte	0x30
 14927 1e89 9F       		.byte	0x9f
 14928 1e8a 00000000 		.4byte	0
 14929 1e8e 00000000 		.4byte	0
 14930              	.LLST161:
 14931 1e92 10000000 		.4byte	.LVL423
 14932 1e96 20000000 		.4byte	.LVL424
 14933 1e9a 0100     		.2byte	0x1
 14934 1e9c 54       		.byte	0x54
 14935 1e9d 26000000 		.4byte	.LVL425
 14936 1ea1 70000000 		.4byte	.LFE27
 14937 1ea5 0100     		.2byte	0x1
 14938 1ea7 54       		.byte	0x54
 14939 1ea8 00000000 		.4byte	0
 14940 1eac 00000000 		.4byte	0
 14941              	.LLST162:
 14942 1eb0 00000000 		.4byte	.LVL433
 14943 1eb4 05000000 		.4byte	.LVL434-1
 14944 1eb8 0100     		.2byte	0x1
 14945 1eba 50       		.byte	0x50
 14946 1ebb 05000000 		.4byte	.LVL434-1
 14947 1ebf 06000000 		.4byte	.LFE29
 14948 1ec3 0400     		.2byte	0x4
 14949 1ec5 F3       		.byte	0xf3
 14950 1ec6 01       		.uleb128 0x1
 14951 1ec7 50       		.byte	0x50
 14952 1ec8 9F       		.byte	0x9f
 14953 1ec9 00000000 		.4byte	0
 14954 1ecd 00000000 		.4byte	0
 14955              	.LLST163:
 14956 1ed1 00000000 		.4byte	.LVL433
ARM GAS  C:\Users\jenny\AppData\Local\Temp\ccLg5IEe.s 			page 264


 14957 1ed5 05000000 		.4byte	.LVL434-1
 14958 1ed9 0100     		.2byte	0x1
 14959 1edb 51       		.byte	0x51
 14960 1edc 05000000 		.4byte	.LVL434-1
 14961 1ee0 06000000 		.4byte	.LFE29
 14962 1ee4 0400     		.2byte	0x4
 14963 1ee6 F3       		.byte	0xf3
 14964 1ee7 01       		.uleb128 0x1
 14965 1ee8 51       		.byte	0x51
 14966 1ee9 9F       		.byte	0x9f
 14967 1eea 00000000 		.4byte	0
 14968 1eee 00000000 		.4byte	0
 14969              	.LLST164:
 14970 1ef2 00000000 		.4byte	.LVL433
 14971 1ef6 05000000 		.4byte	.LVL434-1
 14972 1efa 0100     		.2byte	0x1
 14973 1efc 52       		.byte	0x52
 14974 1efd 05000000 		.4byte	.LVL434-1
 14975 1f01 06000000 		.4byte	.LFE29
 14976 1f05 0400     		.2byte	0x4
 14977 1f07 F3       		.byte	0xf3
 14978 1f08 01       		.uleb128 0x1
 14979 1f09 52       		.byte	0x52
 14980 1f0a 9F       		.byte	0x9f
 14981 1f0b 00000000 		.4byte	0
 14982 1f0f 00000000 		.4byte	0
 14983              	.LLST165:
 14984 1f13 00000000 		.4byte	.LVL435
 14985 1f17 05000000 		.4byte	.LVL436-1
 14986 1f1b 0100     		.2byte	0x1
 14987 1f1d 50       		.byte	0x50
 14988 1f1e 05000000 		.4byte	.LVL436-1
 14989 1f22 06000000 		.4byte	.LFE30
 14990 1f26 0400     		.2byte	0x4
 14991 1f28 F3       		.byte	0xf3
 14992 1f29 01       		.uleb128 0x1
 14993 1f2a 50       		.byte	0x50
 14994 1f2b 9F       		.byte	0x9f
 14995 1f2c 00000000 		.4byte	0
 14996 1f30 00000000 		.4byte	0
 14997              	.LLST166:
 14998 1f34 00000000 		.4byte	.LVL435
 14999 1f38 05000000 		.4byte	.LVL436-1
 15000 1f3c 0100     		.2byte	0x1
 15001 1f3e 51       		.byte	0x51
 15002 1f3f 05000000 		.4byte	.LVL436-1
 15003 1f43 06000000 		.4byte	.LFE30
 15004 1f47 0400     		.2byte	0x4
 15005 1f49 F3       		.byte	0xf3
 15006 1f4a 01       		.uleb128 0x1
 15007 1f4b 51       		.byte	0x51
 15008 1f4c 9F       		.byte	0x9f
 15009 1f4d 00000000 		.4byte	0
 15010 1f51 00000000 		.4byte	0
 15011              	.LLST167:
 15012 1f55 00000000 		.4byte	.LVL435
 15013 1f59 05000000 		.4byte	.LVL436-1
ARM GAS  C:\Users\jenny\AppData\Local\Temp\ccLg5IEe.s 			page 265


 15014 1f5d 0100     		.2byte	0x1
 15015 1f5f 52       		.byte	0x52
 15016 1f60 05000000 		.4byte	.LVL436-1
 15017 1f64 06000000 		.4byte	.LFE30
 15018 1f68 0400     		.2byte	0x4
 15019 1f6a F3       		.byte	0xf3
 15020 1f6b 01       		.uleb128 0x1
 15021 1f6c 52       		.byte	0x52
 15022 1f6d 9F       		.byte	0x9f
 15023 1f6e 00000000 		.4byte	0
 15024 1f72 00000000 		.4byte	0
 15025              	.LLST168:
 15026 1f76 00000000 		.4byte	.LFB31
 15027 1f7a 04000000 		.4byte	.LCFI32
 15028 1f7e 0200     		.2byte	0x2
 15029 1f80 7D       		.byte	0x7d
 15030 1f81 00       		.sleb128 0
 15031 1f82 04000000 		.4byte	.LCFI32
 15032 1f86 06000000 		.4byte	.LCFI33
 15033 1f8a 0200     		.2byte	0x2
 15034 1f8c 7D       		.byte	0x7d
 15035 1f8d 18       		.sleb128 24
 15036 1f8e 06000000 		.4byte	.LCFI33
 15037 1f92 FC000000 		.4byte	.LFE31
 15038 1f96 0200     		.2byte	0x2
 15039 1f98 7D       		.byte	0x7d
 15040 1f99 30       		.sleb128 48
 15041 1f9a 00000000 		.4byte	0
 15042 1f9e 00000000 		.4byte	0
 15043              	.LLST169:
 15044 1fa2 00000000 		.4byte	.LVL437
 15045 1fa6 14000000 		.4byte	.LVL438
 15046 1faa 0100     		.2byte	0x1
 15047 1fac 50       		.byte	0x50
 15048 1fad 14000000 		.4byte	.LVL438
 15049 1fb1 FC000000 		.4byte	.LFE31
 15050 1fb5 0400     		.2byte	0x4
 15051 1fb7 F3       		.byte	0xf3
 15052 1fb8 01       		.uleb128 0x1
 15053 1fb9 50       		.byte	0x50
 15054 1fba 9F       		.byte	0x9f
 15055 1fbb 00000000 		.4byte	0
 15056 1fbf 00000000 		.4byte	0
 15057              	.LLST170:
 15058 1fc3 00000000 		.4byte	.LVL437
 15059 1fc7 18000000 		.4byte	.LVL440
 15060 1fcb 0100     		.2byte	0x1
 15061 1fcd 51       		.byte	0x51
 15062 1fce 18000000 		.4byte	.LVL440
 15063 1fd2 FC000000 		.4byte	.LFE31
 15064 1fd6 0100     		.2byte	0x1
 15065 1fd8 54       		.byte	0x54
 15066 1fd9 00000000 		.4byte	0
 15067 1fdd 00000000 		.4byte	0
 15068              	.LLST171:
 15069 1fe1 00000000 		.4byte	.LVL437
 15070 1fe5 16000000 		.4byte	.LVL439
ARM GAS  C:\Users\jenny\AppData\Local\Temp\ccLg5IEe.s 			page 266


 15071 1fe9 0100     		.2byte	0x1
 15072 1feb 52       		.byte	0x52
 15073 1fec 16000000 		.4byte	.LVL439
 15074 1ff0 FC000000 		.4byte	.LFE31
 15075 1ff4 0100     		.2byte	0x1
 15076 1ff6 57       		.byte	0x57
 15077 1ff7 00000000 		.4byte	0
 15078 1ffb 00000000 		.4byte	0
 15079              	.LLST172:
 15080 1fff 00000000 		.4byte	.LVL437
 15081 2003 3E000000 		.4byte	.LVL443
 15082 2007 0100     		.2byte	0x1
 15083 2009 53       		.byte	0x53
 15084 200a 3E000000 		.4byte	.LVL443
 15085 200e 48000000 		.4byte	.LVL444
 15086 2012 0400     		.2byte	0x4
 15087 2014 F3       		.byte	0xf3
 15088 2015 01       		.uleb128 0x1
 15089 2016 53       		.byte	0x53
 15090 2017 9F       		.byte	0x9f
 15091 2018 48000000 		.4byte	.LVL444
 15092 201c 81000000 		.4byte	.LVL448-1
 15093 2020 0100     		.2byte	0x1
 15094 2022 53       		.byte	0x53
 15095 2023 81000000 		.4byte	.LVL448-1
 15096 2027 9A000000 		.4byte	.LVL451
 15097 202b 0400     		.2byte	0x4
 15098 202d F3       		.byte	0xf3
 15099 202e 01       		.uleb128 0x1
 15100 202f 53       		.byte	0x53
 15101 2030 9F       		.byte	0x9f
 15102 2031 9A000000 		.4byte	.LVL451
 15103 2035 FC000000 		.4byte	.LFE31
 15104 2039 0100     		.2byte	0x1
 15105 203b 53       		.byte	0x53
 15106 203c 00000000 		.4byte	0
 15107 2040 00000000 		.4byte	0
 15108              	.LLST173:
 15109 2044 00000000 		.4byte	.LVL437
 15110 2048 3C000000 		.4byte	.LVL442
 15111 204c 0200     		.2byte	0x2
 15112 204e 30       		.byte	0x30
 15113 204f 9F       		.byte	0x9f
 15114 2050 48000000 		.4byte	.LVL444
 15115 2054 5E000000 		.4byte	.LVL445
 15116 2058 0200     		.2byte	0x2
 15117 205a 30       		.byte	0x30
 15118 205b 9F       		.byte	0x9f
 15119 205c 60000000 		.4byte	.LVL446
 15120 2060 66000000 		.4byte	.LVL447
 15121 2064 0200     		.2byte	0x2
 15122 2066 30       		.byte	0x30
 15123 2067 9F       		.byte	0x9f
 15124 2068 90000000 		.4byte	.LVL450
 15125 206c 9A000000 		.4byte	.LVL451
 15126 2070 0200     		.2byte	0x2
 15127 2072 91       		.byte	0x91
ARM GAS  C:\Users\jenny\AppData\Local\Temp\ccLg5IEe.s 			page 267


 15128 2073 64       		.sleb128 -28
 15129 2074 9A000000 		.4byte	.LVL451
 15130 2078 CA000000 		.4byte	.LVL452
 15131 207c 0200     		.2byte	0x2
 15132 207e 30       		.byte	0x30
 15133 207f 9F       		.byte	0x9f
 15134 2080 CA000000 		.4byte	.LVL452
 15135 2084 E8000000 		.4byte	.LVL453
 15136 2088 0100     		.2byte	0x1
 15137 208a 52       		.byte	0x52
 15138 208b E8000000 		.4byte	.LVL453
 15139 208f FC000000 		.4byte	.LFE31
 15140 2093 0200     		.2byte	0x2
 15141 2095 30       		.byte	0x30
 15142 2096 9F       		.byte	0x9f
 15143 2097 00000000 		.4byte	0
 15144 209b 00000000 		.4byte	0
 15145              	.LLST175:
 15146 209f 1A000000 		.4byte	.LVL441
 15147 20a3 3E000000 		.4byte	.LVL443
 15148 20a7 0100     		.2byte	0x1
 15149 20a9 56       		.byte	0x56
 15150 20aa 48000000 		.4byte	.LVL444
 15151 20ae FC000000 		.4byte	.LFE31
 15152 20b2 0100     		.2byte	0x1
 15153 20b4 56       		.byte	0x56
 15154 20b5 00000000 		.4byte	0
 15155 20b9 00000000 		.4byte	0
 15156              	.LLST176:
 15157 20bd 00000000 		.4byte	.LFB33
 15158 20c1 02000000 		.4byte	.LCFI34
 15159 20c5 0200     		.2byte	0x2
 15160 20c7 7D       		.byte	0x7d
 15161 20c8 00       		.sleb128 0
 15162 20c9 02000000 		.4byte	.LCFI34
 15163 20cd 06000000 		.4byte	.LCFI35
 15164 20d1 0200     		.2byte	0x2
 15165 20d3 7D       		.byte	0x7d
 15166 20d4 14       		.sleb128 20
 15167 20d5 06000000 		.4byte	.LCFI35
 15168 20d9 E0000000 		.4byte	.LFE33
 15169 20dd 0200     		.2byte	0x2
 15170 20df 7D       		.byte	0x7d
 15171 20e0 30       		.sleb128 48
 15172 20e1 00000000 		.4byte	0
 15173 20e5 00000000 		.4byte	0
 15174              	.LLST177:
 15175 20e9 00000000 		.4byte	.LVL454
 15176 20ed 10000000 		.4byte	.LVL455
 15177 20f1 0100     		.2byte	0x1
 15178 20f3 50       		.byte	0x50
 15179 20f4 10000000 		.4byte	.LVL455
 15180 20f8 E0000000 		.4byte	.LFE33
 15181 20fc 0400     		.2byte	0x4
 15182 20fe F3       		.byte	0xf3
 15183 20ff 01       		.uleb128 0x1
 15184 2100 50       		.byte	0x50
ARM GAS  C:\Users\jenny\AppData\Local\Temp\ccLg5IEe.s 			page 268


 15185 2101 9F       		.byte	0x9f
 15186 2102 00000000 		.4byte	0
 15187 2106 00000000 		.4byte	0
 15188              	.LLST178:
 15189 210a 00000000 		.4byte	.LVL454
 15190 210e 14000000 		.4byte	.LVL457
 15191 2112 0100     		.2byte	0x1
 15192 2114 51       		.byte	0x51
 15193 2115 14000000 		.4byte	.LVL457
 15194 2119 E0000000 		.4byte	.LFE33
 15195 211d 0100     		.2byte	0x1
 15196 211f 54       		.byte	0x54
 15197 2120 00000000 		.4byte	0
 15198 2124 00000000 		.4byte	0
 15199              	.LLST179:
 15200 2128 00000000 		.4byte	.LVL454
 15201 212c 12000000 		.4byte	.LVL456
 15202 2130 0100     		.2byte	0x1
 15203 2132 52       		.byte	0x52
 15204 2133 12000000 		.4byte	.LVL456
 15205 2137 E0000000 		.4byte	.LFE33
 15206 213b 0100     		.2byte	0x1
 15207 213d 56       		.byte	0x56
 15208 213e 00000000 		.4byte	0
 15209 2142 00000000 		.4byte	0
 15210              	.LLST180:
 15211 2146 00000000 		.4byte	.LVL454
 15212 214a 36000000 		.4byte	.LVL461
 15213 214e 0100     		.2byte	0x1
 15214 2150 53       		.byte	0x53
 15215 2151 36000000 		.4byte	.LVL461
 15216 2155 3E000000 		.4byte	.LVL462
 15217 2159 0400     		.2byte	0x4
 15218 215b F3       		.byte	0xf3
 15219 215c 01       		.uleb128 0x1
 15220 215d 53       		.byte	0x53
 15221 215e 9F       		.byte	0x9f
 15222 215f 3E000000 		.4byte	.LVL462
 15223 2163 6C000000 		.4byte	.LVL466
 15224 2167 0100     		.2byte	0x1
 15225 2169 53       		.byte	0x53
 15226 216a 6C000000 		.4byte	.LVL466
 15227 216e 79000000 		.4byte	.LVL467-1
 15228 2172 0200     		.2byte	0x2
 15229 2174 73       		.byte	0x73
 15230 2175 5C       		.sleb128 -36
 15231 2176 79000000 		.4byte	.LVL467-1
 15232 217a 92000000 		.4byte	.LVL470
 15233 217e 0400     		.2byte	0x4
 15234 2180 F3       		.byte	0xf3
 15235 2181 01       		.uleb128 0x1
 15236 2182 53       		.byte	0x53
 15237 2183 9F       		.byte	0x9f
 15238 2184 92000000 		.4byte	.LVL470
 15239 2188 E0000000 		.4byte	.LFE33
 15240 218c 0100     		.2byte	0x1
 15241 218e 53       		.byte	0x53
ARM GAS  C:\Users\jenny\AppData\Local\Temp\ccLg5IEe.s 			page 269


 15242 218f 00000000 		.4byte	0
 15243 2193 00000000 		.4byte	0
 15244              	.LLST181:
 15245 2197 00000000 		.4byte	.LVL454
 15246 219b 58000000 		.4byte	.LVL464
 15247 219f 0200     		.2byte	0x2
 15248 21a1 91       		.byte	0x91
 15249 21a2 00       		.sleb128 0
 15250 21a3 58000000 		.4byte	.LVL464
 15251 21a7 5E000000 		.4byte	.LVL465
 15252 21ab 0100     		.2byte	0x1
 15253 21ad 50       		.byte	0x50
 15254 21ae 5E000000 		.4byte	.LVL465
 15255 21b2 E0000000 		.4byte	.LFE33
 15256 21b6 0200     		.2byte	0x2
 15257 21b8 91       		.byte	0x91
 15258 21b9 00       		.sleb128 0
 15259 21ba 00000000 		.4byte	0
 15260 21be 00000000 		.4byte	0
 15261              	.LLST182:
 15262 21c2 1A000000 		.4byte	.LVL459
 15263 21c6 34000000 		.4byte	.LVL460
 15264 21ca 0200     		.2byte	0x2
 15265 21cc 30       		.byte	0x30
 15266 21cd 9F       		.byte	0x9f
 15267 21ce 3E000000 		.4byte	.LVL462
 15268 21d2 56000000 		.4byte	.LVL463
 15269 21d6 0200     		.2byte	0x2
 15270 21d8 30       		.byte	0x30
 15271 21d9 9F       		.byte	0x9f
 15272 21da 58000000 		.4byte	.LVL464
 15273 21de 5E000000 		.4byte	.LVL465
 15274 21e2 0200     		.2byte	0x2
 15275 21e4 30       		.byte	0x30
 15276 21e5 9F       		.byte	0x9f
 15277 21e6 88000000 		.4byte	.LVL469
 15278 21ea 92000000 		.4byte	.LVL470
 15279 21ee 0200     		.2byte	0x2
 15280 21f0 91       		.byte	0x91
 15281 21f1 64       		.sleb128 -28
 15282 21f2 92000000 		.4byte	.LVL470
 15283 21f6 AE000000 		.4byte	.LVL471
 15284 21fa 0200     		.2byte	0x2
 15285 21fc 30       		.byte	0x30
 15286 21fd 9F       		.byte	0x9f
 15287 21fe AE000000 		.4byte	.LVL471
 15288 2202 CC000000 		.4byte	.LVL472
 15289 2206 0100     		.2byte	0x1
 15290 2208 52       		.byte	0x52
 15291 2209 CC000000 		.4byte	.LVL472
 15292 220d E0000000 		.4byte	.LFE33
 15293 2211 0200     		.2byte	0x2
 15294 2213 30       		.byte	0x30
 15295 2214 9F       		.byte	0x9f
 15296 2215 00000000 		.4byte	0
 15297 2219 00000000 		.4byte	0
 15298              	.LLST184:
ARM GAS  C:\Users\jenny\AppData\Local\Temp\ccLg5IEe.s 			page 270


 15299 221d 16000000 		.4byte	.LVL458
 15300 2221 36000000 		.4byte	.LVL461
 15301 2225 0100     		.2byte	0x1
 15302 2227 55       		.byte	0x55
 15303 2228 3E000000 		.4byte	.LVL462
 15304 222c E0000000 		.4byte	.LFE33
 15305 2230 0100     		.2byte	0x1
 15306 2232 55       		.byte	0x55
 15307 2233 00000000 		.4byte	0
 15308 2237 00000000 		.4byte	0
 15309              	.LLST185:
 15310 223b 00000000 		.4byte	.LFB35
 15311 223f 04000000 		.4byte	.LCFI36
 15312 2243 0200     		.2byte	0x2
 15313 2245 7D       		.byte	0x7d
 15314 2246 00       		.sleb128 0
 15315 2247 04000000 		.4byte	.LCFI36
 15316 224b 54000000 		.4byte	.LFE35
 15317 224f 0200     		.2byte	0x2
 15318 2251 7D       		.byte	0x7d
 15319 2252 04       		.sleb128 4
 15320 2253 00000000 		.4byte	0
 15321 2257 00000000 		.4byte	0
 15322              	.LLST186:
 15323 225b 00000000 		.4byte	.LVL473
 15324 225f 0A000000 		.4byte	.LVL474
 15325 2263 0100     		.2byte	0x1
 15326 2265 50       		.byte	0x50
 15327 2266 0A000000 		.4byte	.LVL474
 15328 226a 54000000 		.4byte	.LFE35
 15329 226e 0400     		.2byte	0x4
 15330 2270 F3       		.byte	0xf3
 15331 2271 01       		.uleb128 0x1
 15332 2272 50       		.byte	0x50
 15333 2273 9F       		.byte	0x9f
 15334 2274 00000000 		.4byte	0
 15335 2278 00000000 		.4byte	0
 15336              	.LLST187:
 15337 227c 00000000 		.4byte	.LVL473
 15338 2280 22000000 		.4byte	.LVL476
 15339 2284 0100     		.2byte	0x1
 15340 2286 51       		.byte	0x51
 15341 2287 22000000 		.4byte	.LVL476
 15342 228b 2A000000 		.4byte	.LVL477
 15343 228f 0400     		.2byte	0x4
 15344 2291 F3       		.byte	0xf3
 15345 2292 01       		.uleb128 0x1
 15346 2293 51       		.byte	0x51
 15347 2294 9F       		.byte	0x9f
 15348 2295 2A000000 		.4byte	.LVL477
 15349 2299 2E000000 		.4byte	.LVL478
 15350 229d 0100     		.2byte	0x1
 15351 229f 51       		.byte	0x51
 15352 22a0 2E000000 		.4byte	.LVL478
 15353 22a4 32000000 		.4byte	.LVL479
 15354 22a8 0400     		.2byte	0x4
 15355 22aa F3       		.byte	0xf3
ARM GAS  C:\Users\jenny\AppData\Local\Temp\ccLg5IEe.s 			page 271


 15356 22ab 01       		.uleb128 0x1
 15357 22ac 51       		.byte	0x51
 15358 22ad 9F       		.byte	0x9f
 15359 22ae 32000000 		.4byte	.LVL479
 15360 22b2 40000000 		.4byte	.LVL482
 15361 22b6 0100     		.2byte	0x1
 15362 22b8 51       		.byte	0x51
 15363 22b9 40000000 		.4byte	.LVL482
 15364 22bd 46000000 		.4byte	.LVL483
 15365 22c1 0400     		.2byte	0x4
 15366 22c3 F3       		.byte	0xf3
 15367 22c4 01       		.uleb128 0x1
 15368 22c5 51       		.byte	0x51
 15369 22c6 9F       		.byte	0x9f
 15370 22c7 46000000 		.4byte	.LVL483
 15371 22cb 4C000000 		.4byte	.LVL484
 15372 22cf 0100     		.2byte	0x1
 15373 22d1 51       		.byte	0x51
 15374 22d2 4C000000 		.4byte	.LVL484
 15375 22d6 54000000 		.4byte	.LFE35
 15376 22da 0400     		.2byte	0x4
 15377 22dc F3       		.byte	0xf3
 15378 22dd 01       		.uleb128 0x1
 15379 22de 51       		.byte	0x51
 15380 22df 9F       		.byte	0x9f
 15381 22e0 00000000 		.4byte	0
 15382 22e4 00000000 		.4byte	0
 15383              	.LLST188:
 15384 22e8 00000000 		.4byte	.LVL473
 15385 22ec 2E000000 		.4byte	.LVL478
 15386 22f0 0100     		.2byte	0x1
 15387 22f2 52       		.byte	0x52
 15388 22f3 2E000000 		.4byte	.LVL478
 15389 22f7 32000000 		.4byte	.LVL479
 15390 22fb 0400     		.2byte	0x4
 15391 22fd F3       		.byte	0xf3
 15392 22fe 01       		.uleb128 0x1
 15393 22ff 52       		.byte	0x52
 15394 2300 9F       		.byte	0x9f
 15395 2301 32000000 		.4byte	.LVL479
 15396 2305 36000000 		.4byte	.LVL480
 15397 2309 0100     		.2byte	0x1
 15398 230b 52       		.byte	0x52
 15399 230c 36000000 		.4byte	.LVL480
 15400 2310 54000000 		.4byte	.LFE35
 15401 2314 0400     		.2byte	0x4
 15402 2316 F3       		.byte	0xf3
 15403 2317 01       		.uleb128 0x1
 15404 2318 52       		.byte	0x52
 15405 2319 9F       		.byte	0x9f
 15406 231a 00000000 		.4byte	0
 15407 231e 00000000 		.4byte	0
 15408              	.LLST189:
 15409 2322 32000000 		.4byte	.LVL479
 15410 2326 38000000 		.4byte	.LVL481
 15411 232a 0200     		.2byte	0x2
 15412 232c 30       		.byte	0x30
ARM GAS  C:\Users\jenny\AppData\Local\Temp\ccLg5IEe.s 			page 272


 15413 232d 9F       		.byte	0x9f
 15414 232e 38000000 		.4byte	.LVL481
 15415 2332 40000000 		.4byte	.LVL482
 15416 2336 0200     		.2byte	0x2
 15417 2338 31       		.byte	0x31
 15418 2339 9F       		.byte	0x9f
 15419 233a 46000000 		.4byte	.LVL483
 15420 233e 54000000 		.4byte	.LFE35
 15421 2342 0200     		.2byte	0x2
 15422 2344 30       		.byte	0x30
 15423 2345 9F       		.byte	0x9f
 15424 2346 00000000 		.4byte	0
 15425 234a 00000000 		.4byte	0
 15426              	.LLST191:
 15427 234e 10000000 		.4byte	.LVL475
 15428 2352 2A000000 		.4byte	.LVL477
 15429 2356 0100     		.2byte	0x1
 15430 2358 54       		.byte	0x54
 15431 2359 32000000 		.4byte	.LVL479
 15432 235d 54000000 		.4byte	.LFE35
 15433 2361 0100     		.2byte	0x1
 15434 2363 54       		.byte	0x54
 15435 2364 00000000 		.4byte	0
 15436 2368 00000000 		.4byte	0
 15437              	.LLST192:
 15438 236c 00000000 		.4byte	.LVL485
 15439 2370 08000000 		.4byte	.LVL487
 15440 2374 0100     		.2byte	0x1
 15441 2376 50       		.byte	0x50
 15442 2377 08000000 		.4byte	.LVL487
 15443 237b 4C000000 		.4byte	.LFE36
 15444 237f 0400     		.2byte	0x4
 15445 2381 F3       		.byte	0xf3
 15446 2382 01       		.uleb128 0x1
 15447 2383 50       		.byte	0x50
 15448 2384 9F       		.byte	0x9f
 15449 2385 00000000 		.4byte	0
 15450 2389 00000000 		.4byte	0
 15451              	.LLST193:
 15452 238d 00000000 		.4byte	.LVL485
 15453 2391 18000000 		.4byte	.LVL489
 15454 2395 0100     		.2byte	0x1
 15455 2397 51       		.byte	0x51
 15456 2398 18000000 		.4byte	.LVL489
 15457 239c 1E000000 		.4byte	.LVL490
 15458 23a0 0400     		.2byte	0x4
 15459 23a2 F3       		.byte	0xf3
 15460 23a3 01       		.uleb128 0x1
 15461 23a4 51       		.byte	0x51
 15462 23a5 9F       		.byte	0x9f
 15463 23a6 1E000000 		.4byte	.LVL490
 15464 23aa 22000000 		.4byte	.LVL491
 15465 23ae 0100     		.2byte	0x1
 15466 23b0 51       		.byte	0x51
 15467 23b1 22000000 		.4byte	.LVL491
 15468 23b5 36000000 		.4byte	.LVL493
 15469 23b9 0400     		.2byte	0x4
ARM GAS  C:\Users\jenny\AppData\Local\Temp\ccLg5IEe.s 			page 273


 15470 23bb F3       		.byte	0xf3
 15471 23bc 01       		.uleb128 0x1
 15472 23bd 51       		.byte	0x51
 15473 23be 9F       		.byte	0x9f
 15474 23bf 36000000 		.4byte	.LVL493
 15475 23c3 3E000000 		.4byte	.LVL495
 15476 23c7 0100     		.2byte	0x1
 15477 23c9 51       		.byte	0x51
 15478 23ca 3E000000 		.4byte	.LVL495
 15479 23ce 4C000000 		.4byte	.LFE36
 15480 23d2 0400     		.2byte	0x4
 15481 23d4 F3       		.byte	0xf3
 15482 23d5 01       		.uleb128 0x1
 15483 23d6 51       		.byte	0x51
 15484 23d7 9F       		.byte	0x9f
 15485 23d8 00000000 		.4byte	0
 15486 23dc 00000000 		.4byte	0
 15487              	.LLST194:
 15488 23e0 00000000 		.4byte	.LVL485
 15489 23e4 2A000000 		.4byte	.LVL492
 15490 23e8 0100     		.2byte	0x1
 15491 23ea 52       		.byte	0x52
 15492 23eb 2A000000 		.4byte	.LVL492
 15493 23ef 36000000 		.4byte	.LVL493
 15494 23f3 0400     		.2byte	0x4
 15495 23f5 F3       		.byte	0xf3
 15496 23f6 01       		.uleb128 0x1
 15497 23f7 52       		.byte	0x52
 15498 23f8 9F       		.byte	0x9f
 15499 23f9 36000000 		.4byte	.LVL493
 15500 23fd 3E000000 		.4byte	.LVL495
 15501 2401 0100     		.2byte	0x1
 15502 2403 52       		.byte	0x52
 15503 2404 3E000000 		.4byte	.LVL495
 15504 2408 4C000000 		.4byte	.LFE36
 15505 240c 0400     		.2byte	0x4
 15506 240e F3       		.byte	0xf3
 15507 240f 01       		.uleb128 0x1
 15508 2410 52       		.byte	0x52
 15509 2411 9F       		.byte	0x9f
 15510 2412 00000000 		.4byte	0
 15511 2416 00000000 		.4byte	0
 15512              	.LLST195:
 15513 241a 10000000 		.4byte	.LVL488
 15514 241e 18000000 		.4byte	.LVL489
 15515 2422 0300     		.2byte	0x3
 15516 2424 09       		.byte	0x9
 15517 2425 FF       		.byte	0xff
 15518 2426 9F       		.byte	0x9f
 15519 2427 1E000000 		.4byte	.LVL490
 15520 242b 3C000000 		.4byte	.LVL494
 15521 242f 0300     		.2byte	0x3
 15522 2431 09       		.byte	0x9
 15523 2432 FF       		.byte	0xff
 15524 2433 9F       		.byte	0x9f
 15525 2434 3C000000 		.4byte	.LVL494
 15526 2438 3E000000 		.4byte	.LVL495
ARM GAS  C:\Users\jenny\AppData\Local\Temp\ccLg5IEe.s 			page 274


 15527 243c 0100     		.2byte	0x1
 15528 243e 50       		.byte	0x50
 15529 243f 3E000000 		.4byte	.LVL495
 15530 2443 4C000000 		.4byte	.LFE36
 15531 2447 0300     		.2byte	0x3
 15532 2449 09       		.byte	0x9
 15533 244a FF       		.byte	0xff
 15534 244b 9F       		.byte	0x9f
 15535 244c 00000000 		.4byte	0
 15536 2450 00000000 		.4byte	0
 15537              	.LLST197:
 15538 2454 04000000 		.4byte	.LVL486
 15539 2458 08000000 		.4byte	.LVL487
 15540 245c 0B00     		.2byte	0xb
 15541 245e 70       		.byte	0x70
 15542 245f 00       		.sleb128 0
 15543 2460 48       		.byte	0x48
 15544 2461 1E       		.byte	0x1e
 15545 2462 03       		.byte	0x3
 15546 2463 00000000 		.4byte	sockets
 15547 2467 22       		.byte	0x22
 15548 2468 9F       		.byte	0x9f
 15549 2469 08000000 		.4byte	.LVL487
 15550 246d 18000000 		.4byte	.LVL489
 15551 2471 0C00     		.2byte	0xc
 15552 2473 F3       		.byte	0xf3
 15553 2474 01       		.uleb128 0x1
 15554 2475 50       		.byte	0x50
 15555 2476 48       		.byte	0x48
 15556 2477 1E       		.byte	0x1e
 15557 2478 03       		.byte	0x3
 15558 2479 00000000 		.4byte	sockets
 15559 247d 22       		.byte	0x22
 15560 247e 9F       		.byte	0x9f
 15561 247f 1E000000 		.4byte	.LVL490
 15562 2483 4C000000 		.4byte	.LFE36
 15563 2487 0C00     		.2byte	0xc
 15564 2489 F3       		.byte	0xf3
 15565 248a 01       		.uleb128 0x1
 15566 248b 50       		.byte	0x50
 15567 248c 48       		.byte	0x48
 15568 248d 1E       		.byte	0x1e
 15569 248e 03       		.byte	0x3
 15570 248f 00000000 		.4byte	sockets
 15571 2493 22       		.byte	0x22
 15572 2494 9F       		.byte	0x9f
 15573 2495 00000000 		.4byte	0
 15574 2499 00000000 		.4byte	0
 15575              		.section	.debug_aranges,"",%progbits
 15576 0000 EC000000 		.4byte	0xec
 15577 0004 0200     		.2byte	0x2
 15578 0006 00000000 		.4byte	.Ldebug_info0
 15579 000a 04       		.byte	0x4
 15580 000b 00       		.byte	0
 15581 000c 0000     		.2byte	0
 15582 000e 0000     		.2byte	0
 15583 0010 00000000 		.4byte	.LFB10
ARM GAS  C:\Users\jenny\AppData\Local\Temp\ccLg5IEe.s 			page 275


 15584 0014 6C000000 		.4byte	.LFE10-.LFB10
 15585 0018 00000000 		.4byte	.LFB34
 15586 001c EC000000 		.4byte	.LFE34-.LFB34
 15587 0020 00000000 		.4byte	.LFB32
 15588 0024 0C010000 		.4byte	.LFE32-.LFB32
 15589 0028 00000000 		.4byte	.LFB24
 15590 002c 3A010000 		.4byte	.LFE24-.LFB24
 15591 0030 00000000 		.4byte	.LFB28
 15592 0034 78000000 		.4byte	.LFE28-.LFB28
 15593 0038 00000000 		.4byte	.LFB26
 15594 003c F8000000 		.4byte	.LFE26-.LFB26
 15595 0040 00000000 		.4byte	.LFB7
 15596 0044 02000000 		.4byte	.LFE7-.LFB7
 15597 0048 00000000 		.4byte	.LFB12
 15598 004c 54010000 		.4byte	.LFE12-.LFB12
 15599 0050 00000000 		.4byte	.LFB13
 15600 0054 78000000 		.4byte	.LFE13-.LFB13
 15601 0058 00000000 		.4byte	.LFB14
 15602 005c 58000000 		.4byte	.LFE14-.LFB14
 15603 0060 00000000 		.4byte	.LFB15
 15604 0064 78000000 		.4byte	.LFE15-.LFB15
 15605 0068 00000000 		.4byte	.LFB16
 15606 006c 64000000 		.4byte	.LFE16-.LFB16
 15607 0070 00000000 		.4byte	.LFB17
 15608 0074 38020000 		.4byte	.LFE17-.LFB17
 15609 0078 00000000 		.4byte	.LFB18
 15610 007c 12000000 		.4byte	.LFE18-.LFB18
 15611 0080 00000000 		.4byte	.LFB19
 15612 0084 12000000 		.4byte	.LFE19-.LFB19
 15613 0088 00000000 		.4byte	.LFB21
 15614 008c D8000000 		.4byte	.LFE21-.LFB21
 15615 0090 00000000 		.4byte	.LFB20
 15616 0094 78000000 		.4byte	.LFE20-.LFB20
 15617 0098 00000000 		.4byte	.LFB22
 15618 009c 78000000 		.4byte	.LFE22-.LFB22
 15619 00a0 00000000 		.4byte	.LFB23
 15620 00a4 06000000 		.4byte	.LFE23-.LFB23
 15621 00a8 00000000 		.4byte	.LFB25
 15622 00ac 30050000 		.4byte	.LFE25-.LFB25
 15623 00b0 00000000 		.4byte	.LFB27
 15624 00b4 70000000 		.4byte	.LFE27-.LFB27
 15625 00b8 00000000 		.4byte	.LFB29
 15626 00bc 06000000 		.4byte	.LFE29-.LFB29
 15627 00c0 00000000 		.4byte	.LFB30
 15628 00c4 06000000 		.4byte	.LFE30-.LFB30
 15629 00c8 00000000 		.4byte	.LFB31
 15630 00cc FC000000 		.4byte	.LFE31-.LFB31
 15631 00d0 00000000 		.4byte	.LFB33
 15632 00d4 E0000000 		.4byte	.LFE33-.LFB33
 15633 00d8 00000000 		.4byte	.LFB35
 15634 00dc 54000000 		.4byte	.LFE35-.LFB35
 15635 00e0 00000000 		.4byte	.LFB36
 15636 00e4 4C000000 		.4byte	.LFE36-.LFB36
 15637 00e8 00000000 		.4byte	0
 15638 00ec 00000000 		.4byte	0
 15639              		.section	.debug_ranges,"",%progbits
 15640              	.Ldebug_ranges0:
ARM GAS  C:\Users\jenny\AppData\Local\Temp\ccLg5IEe.s 			page 276


 15641 0000 1E000000 		.4byte	.LBB45
 15642 0004 F0000000 		.4byte	.LBE45
 15643 0008 18010000 		.4byte	.LBB50
 15644 000c 3A010000 		.4byte	.LBE50
 15645 0010 00000000 		.4byte	0
 15646 0014 00000000 		.4byte	0
 15647 0018 1E000000 		.4byte	.LBB46
 15648 001c 38000000 		.4byte	.LBE46
 15649 0020 18010000 		.4byte	.LBB49
 15650 0024 2A010000 		.4byte	.LBE49
 15651 0028 00000000 		.4byte	0
 15652 002c 00000000 		.4byte	0
 15653 0030 04000000 		.4byte	.LBB51
 15654 0034 06000000 		.4byte	.LBE51
 15655 0038 0C000000 		.4byte	.LBB55
 15656 003c 1E000000 		.4byte	.LBE55
 15657 0040 68000000 		.4byte	.LBB56
 15658 0044 6C000000 		.4byte	.LBE56
 15659 0048 00000000 		.4byte	0
 15660 004c 00000000 		.4byte	0
 15661 0050 04000000 		.4byte	.LBB52
 15662 0054 06000000 		.4byte	.LBE52
 15663 0058 0C000000 		.4byte	.LBB53
 15664 005c 1E000000 		.4byte	.LBE53
 15665 0060 68000000 		.4byte	.LBB54
 15666 0064 6C000000 		.4byte	.LBE54
 15667 0068 00000000 		.4byte	0
 15668 006c 00000000 		.4byte	0
 15669 0070 5A000000 		.4byte	.LBB59
 15670 0074 92000000 		.4byte	.LBE59
 15671 0078 D2000000 		.4byte	.LBB60
 15672 007c E2000000 		.4byte	.LBE60
 15673 0080 00000000 		.4byte	0
 15674 0084 00000000 		.4byte	0
 15675 0088 04000000 		.4byte	.LBB61
 15676 008c 06000000 		.4byte	.LBE61
 15677 0090 0C000000 		.4byte	.LBB65
 15678 0094 1C000000 		.4byte	.LBE65
 15679 0098 44000000 		.4byte	.LBB66
 15680 009c 48000000 		.4byte	.LBE66
 15681 00a0 00000000 		.4byte	0
 15682 00a4 00000000 		.4byte	0
 15683 00a8 04000000 		.4byte	.LBB62
 15684 00ac 06000000 		.4byte	.LBE62
 15685 00b0 0C000000 		.4byte	.LBB63
 15686 00b4 1C000000 		.4byte	.LBE63
 15687 00b8 44000000 		.4byte	.LBB64
 15688 00bc 48000000 		.4byte	.LBE64
 15689 00c0 00000000 		.4byte	0
 15690 00c4 00000000 		.4byte	0
 15691 00c8 02000000 		.4byte	.LBB67
 15692 00cc 04000000 		.4byte	.LBE67
 15693 00d0 06000000 		.4byte	.LBB71
 15694 00d4 16000000 		.4byte	.LBE71
 15695 00d8 42000000 		.4byte	.LBB72
 15696 00dc 46000000 		.4byte	.LBE72
 15697 00e0 00000000 		.4byte	0
ARM GAS  C:\Users\jenny\AppData\Local\Temp\ccLg5IEe.s 			page 277


 15698 00e4 00000000 		.4byte	0
 15699 00e8 02000000 		.4byte	.LBB68
 15700 00ec 04000000 		.4byte	.LBE68
 15701 00f0 06000000 		.4byte	.LBB69
 15702 00f4 16000000 		.4byte	.LBE69
 15703 00f8 42000000 		.4byte	.LBB70
 15704 00fc 46000000 		.4byte	.LBE70
 15705 0100 00000000 		.4byte	0
 15706 0104 00000000 		.4byte	0
 15707 0108 00000000 		.4byte	.LBB77
 15708 010c 02000000 		.4byte	.LBE77
 15709 0110 06000000 		.4byte	.LBB81
 15710 0114 16000000 		.4byte	.LBE81
 15711 0118 3E000000 		.4byte	.LBB85
 15712 011c 46000000 		.4byte	.LBE85
 15713 0120 00000000 		.4byte	0
 15714 0124 00000000 		.4byte	0
 15715 0128 00000000 		.4byte	.LBB78
 15716 012c 02000000 		.4byte	.LBE78
 15717 0130 06000000 		.4byte	.LBB79
 15718 0134 16000000 		.4byte	.LBE79
 15719 0138 3E000000 		.4byte	.LBB80
 15720 013c 46000000 		.4byte	.LBE80
 15721 0140 00000000 		.4byte	0
 15722 0144 00000000 		.4byte	0
 15723 0148 20000000 		.4byte	.LBB82
 15724 014c 3E000000 		.4byte	.LBE82
 15725 0150 4A000000 		.4byte	.LBB86
 15726 0154 58000000 		.4byte	.LBE86
 15727 0158 00000000 		.4byte	0
 15728 015c 00000000 		.4byte	0
 15729 0160 20000000 		.4byte	.LBB83
 15730 0164 3E000000 		.4byte	.LBE83
 15731 0168 4A000000 		.4byte	.LBB84
 15732 016c 58000000 		.4byte	.LBE84
 15733 0170 00000000 		.4byte	0
 15734 0174 00000000 		.4byte	0
 15735 0178 02000000 		.4byte	.LBB87
 15736 017c 04000000 		.4byte	.LBE87
 15737 0180 06000000 		.4byte	.LBB91
 15738 0184 16000000 		.4byte	.LBE91
 15739 0188 42000000 		.4byte	.LBB93
 15740 018c 46000000 		.4byte	.LBE93
 15741 0190 00000000 		.4byte	0
 15742 0194 00000000 		.4byte	0
 15743 0198 02000000 		.4byte	.LBB88
 15744 019c 04000000 		.4byte	.LBE88
 15745 01a0 06000000 		.4byte	.LBB89
 15746 01a4 16000000 		.4byte	.LBE89
 15747 01a8 42000000 		.4byte	.LBB90
 15748 01ac 46000000 		.4byte	.LBE90
 15749 01b0 00000000 		.4byte	0
 15750 01b4 00000000 		.4byte	0
 15751 01b8 00000000 		.4byte	.LBB94
 15752 01bc 02000000 		.4byte	.LBE94
 15753 01c0 04000000 		.4byte	.LBB98
 15754 01c4 14000000 		.4byte	.LBE98
ARM GAS  C:\Users\jenny\AppData\Local\Temp\ccLg5IEe.s 			page 278


 15755 01c8 2E000000 		.4byte	.LBB99
 15756 01cc 34000000 		.4byte	.LBE99
 15757 01d0 00000000 		.4byte	0
 15758 01d4 00000000 		.4byte	0
 15759 01d8 00000000 		.4byte	.LBB95
 15760 01dc 02000000 		.4byte	.LBE95
 15761 01e0 04000000 		.4byte	.LBB96
 15762 01e4 14000000 		.4byte	.LBE96
 15763 01e8 2E000000 		.4byte	.LBB97
 15764 01ec 34000000 		.4byte	.LBE97
 15765 01f0 00000000 		.4byte	0
 15766 01f4 00000000 		.4byte	0
 15767 01f8 08000000 		.4byte	.LBB100
 15768 01fc 0A000000 		.4byte	.LBE100
 15769 0200 12000000 		.4byte	.LBB104
 15770 0204 24000000 		.4byte	.LBE104
 15771 0208 F6000000 		.4byte	.LBB112
 15772 020c FA000000 		.4byte	.LBE112
 15773 0210 00000000 		.4byte	0
 15774 0214 00000000 		.4byte	0
 15775 0218 08000000 		.4byte	.LBB101
 15776 021c 0A000000 		.4byte	.LBE101
 15777 0220 12000000 		.4byte	.LBB102
 15778 0224 24000000 		.4byte	.LBE102
 15779 0228 F6000000 		.4byte	.LBB103
 15780 022c FA000000 		.4byte	.LBE103
 15781 0230 00000000 		.4byte	0
 15782 0234 00000000 		.4byte	0
 15783 0238 28000000 		.4byte	.LBB105
 15784 023c 2C000000 		.4byte	.LBE105
 15785 0240 32000000 		.4byte	.LBB110
 15786 0244 38000000 		.4byte	.LBE110
 15787 0248 7E000000 		.4byte	.LBB111
 15788 024c E0000000 		.4byte	.LBE111
 15789 0250 BA010000 		.4byte	.LBB113
 15790 0254 CA010000 		.4byte	.LBE113
 15791 0258 00000000 		.4byte	0
 15792 025c 00000000 		.4byte	0
 15793 0260 28000000 		.4byte	.LBB106
 15794 0264 2C000000 		.4byte	.LBE106
 15795 0268 32000000 		.4byte	.LBB107
 15796 026c 38000000 		.4byte	.LBE107
 15797 0270 88000000 		.4byte	.LBB108
 15798 0274 E0000000 		.4byte	.LBE108
 15799 0278 BA010000 		.4byte	.LBB109
 15800 027c CA010000 		.4byte	.LBE109
 15801 0280 00000000 		.4byte	0
 15802 0284 00000000 		.4byte	0
 15803 0288 06000000 		.4byte	.LBB114
 15804 028c 08000000 		.4byte	.LBE114
 15805 0290 12000000 		.4byte	.LBB117
 15806 0294 2A000000 		.4byte	.LBE117
 15807 0298 00000000 		.4byte	0
 15808 029c 00000000 		.4byte	0
 15809 02a0 06000000 		.4byte	.LBB115
 15810 02a4 08000000 		.4byte	.LBE115
 15811 02a8 12000000 		.4byte	.LBB116
ARM GAS  C:\Users\jenny\AppData\Local\Temp\ccLg5IEe.s 			page 279


 15812 02ac 2A000000 		.4byte	.LBE116
 15813 02b0 00000000 		.4byte	0
 15814 02b4 00000000 		.4byte	0
 15815 02b8 02000000 		.4byte	.LBB118
 15816 02bc 04000000 		.4byte	.LBE118
 15817 02c0 0A000000 		.4byte	.LBB121
 15818 02c4 1A000000 		.4byte	.LBE121
 15819 02c8 00000000 		.4byte	0
 15820 02cc 00000000 		.4byte	0
 15821 02d0 02000000 		.4byte	.LBB119
 15822 02d4 04000000 		.4byte	.LBE119
 15823 02d8 0A000000 		.4byte	.LBB120
 15824 02dc 1A000000 		.4byte	.LBE120
 15825 02e0 00000000 		.4byte	0
 15826 02e4 00000000 		.4byte	0
 15827 02e8 90000000 		.4byte	.LBB122
 15828 02ec 96000000 		.4byte	.LBE122
 15829 02f0 A4000000 		.4byte	.LBB135
 15830 02f4 BE000000 		.4byte	.LBE135
 15831 02f8 DE000000 		.4byte	.LBB136
 15832 02fc 08010000 		.4byte	.LBE136
 15833 0300 36010000 		.4byte	.LBB137
 15834 0304 50010000 		.4byte	.LBE137
 15835 0308 72010000 		.4byte	.LBB138
 15836 030c 8A010000 		.4byte	.LBE138
 15837 0310 F0020000 		.4byte	.LBB150
 15838 0314 18030000 		.4byte	.LBE150
 15839 0318 C2040000 		.4byte	.LBB153
 15840 031c D6040000 		.4byte	.LBE153
 15841 0320 F4040000 		.4byte	.LBB155
 15842 0324 FA040000 		.4byte	.LBE155
 15843 0328 12050000 		.4byte	.LBB157
 15844 032c 1C050000 		.4byte	.LBE157
 15845 0330 00000000 		.4byte	0
 15846 0334 00000000 		.4byte	0
 15847 0338 90000000 		.4byte	.LBB123
 15848 033c 96000000 		.4byte	.LBE123
 15849 0340 A4000000 		.4byte	.LBB130
 15850 0344 B2000000 		.4byte	.LBE130
 15851 0348 DE000000 		.4byte	.LBB131
 15852 034c F8000000 		.4byte	.LBE131
 15853 0350 36010000 		.4byte	.LBB132
 15854 0354 3E010000 		.4byte	.LBE132
 15855 0358 72010000 		.4byte	.LBB133
 15856 035c 7A010000 		.4byte	.LBE133
 15857 0360 F0020000 		.4byte	.LBB134
 15858 0364 18030000 		.4byte	.LBE134
 15859 0368 00000000 		.4byte	0
 15860 036c 00000000 		.4byte	0
 15861 0370 C2010000 		.4byte	.LBB139
 15862 0374 C8010000 		.4byte	.LBE139
 15863 0378 D6010000 		.4byte	.LBB148
 15864 037c EC010000 		.4byte	.LBE148
 15865 0380 0E020000 		.4byte	.LBB149
 15866 0384 32020000 		.4byte	.LBE149
 15867 0388 6C030000 		.4byte	.LBB151
 15868 038c 90030000 		.4byte	.LBE151
ARM GAS  C:\Users\jenny\AppData\Local\Temp\ccLg5IEe.s 			page 280


 15869 0390 9A040000 		.4byte	.LBB152
 15870 0394 C2040000 		.4byte	.LBE152
 15871 0398 D6040000 		.4byte	.LBB154
 15872 039c E0040000 		.4byte	.LBE154
 15873 03a0 FA040000 		.4byte	.LBB156
 15874 03a4 12050000 		.4byte	.LBE156
 15875 03a8 00000000 		.4byte	0
 15876 03ac 00000000 		.4byte	0
 15877 03b0 C2010000 		.4byte	.LBB140
 15878 03b4 C8010000 		.4byte	.LBE140
 15879 03b8 D6010000 		.4byte	.LBB145
 15880 03bc E0010000 		.4byte	.LBE145
 15881 03c0 0E020000 		.4byte	.LBB146
 15882 03c4 26020000 		.4byte	.LBE146
 15883 03c8 6C030000 		.4byte	.LBB147
 15884 03cc 84030000 		.4byte	.LBE147
 15885 03d0 00000000 		.4byte	0
 15886 03d4 00000000 		.4byte	0
 15887 03d8 00000000 		.4byte	.LBB158
 15888 03dc 02000000 		.4byte	.LBE158
 15889 03e0 04000000 		.4byte	.LBB162
 15890 03e4 14000000 		.4byte	.LBE162
 15891 03e8 20000000 		.4byte	.LBB163
 15892 03ec 26000000 		.4byte	.LBE163
 15893 03f0 00000000 		.4byte	0
 15894 03f4 00000000 		.4byte	0
 15895 03f8 00000000 		.4byte	.LBB159
 15896 03fc 02000000 		.4byte	.LBE159
 15897 0400 04000000 		.4byte	.LBB160
 15898 0404 14000000 		.4byte	.LBE160
 15899 0408 20000000 		.4byte	.LBB161
 15900 040c 26000000 		.4byte	.LBE161
 15901 0410 00000000 		.4byte	0
 15902 0414 00000000 		.4byte	0
 15903 0418 06000000 		.4byte	.LBB164
 15904 041c 08000000 		.4byte	.LBE164
 15905 0420 0E000000 		.4byte	.LBB167
 15906 0424 1E000000 		.4byte	.LBE167
 15907 0428 00000000 		.4byte	0
 15908 042c 00000000 		.4byte	0
 15909 0430 06000000 		.4byte	.LBB165
 15910 0434 08000000 		.4byte	.LBE165
 15911 0438 0E000000 		.4byte	.LBB166
 15912 043c 1E000000 		.4byte	.LBE166
 15913 0440 00000000 		.4byte	0
 15914 0444 00000000 		.4byte	0
 15915 0448 02000000 		.4byte	.LBB168
 15916 044c 04000000 		.4byte	.LBE168
 15917 0450 0A000000 		.4byte	.LBB171
 15918 0454 1A000000 		.4byte	.LBE171
 15919 0458 00000000 		.4byte	0
 15920 045c 00000000 		.4byte	0
 15921 0460 02000000 		.4byte	.LBB169
 15922 0464 04000000 		.4byte	.LBE169
 15923 0468 0A000000 		.4byte	.LBB170
 15924 046c 1A000000 		.4byte	.LBE170
 15925 0470 00000000 		.4byte	0
ARM GAS  C:\Users\jenny\AppData\Local\Temp\ccLg5IEe.s 			page 281


 15926 0474 00000000 		.4byte	0
 15927 0478 00000000 		.4byte	.LBB172
 15928 047c 02000000 		.4byte	.LBE172
 15929 0480 04000000 		.4byte	.LBB176
 15930 0484 14000000 		.4byte	.LBE176
 15931 0488 2A000000 		.4byte	.LBB177
 15932 048c 2E000000 		.4byte	.LBE177
 15933 0490 00000000 		.4byte	0
 15934 0494 00000000 		.4byte	0
 15935 0498 00000000 		.4byte	.LBB173
 15936 049c 02000000 		.4byte	.LBE173
 15937 04a0 04000000 		.4byte	.LBB174
 15938 04a4 14000000 		.4byte	.LBE174
 15939 04a8 2A000000 		.4byte	.LBB175
 15940 04ac 2E000000 		.4byte	.LBE175
 15941 04b0 00000000 		.4byte	0
 15942 04b4 00000000 		.4byte	0
 15943 04b8 00000000 		.4byte	.LFB10
 15944 04bc 6C000000 		.4byte	.LFE10
 15945 04c0 00000000 		.4byte	.LFB34
 15946 04c4 EC000000 		.4byte	.LFE34
 15947 04c8 00000000 		.4byte	.LFB32
 15948 04cc 0C010000 		.4byte	.LFE32
 15949 04d0 00000000 		.4byte	.LFB24
 15950 04d4 3A010000 		.4byte	.LFE24
 15951 04d8 00000000 		.4byte	.LFB28
 15952 04dc 78000000 		.4byte	.LFE28
 15953 04e0 00000000 		.4byte	.LFB26
 15954 04e4 F8000000 		.4byte	.LFE26
 15955 04e8 00000000 		.4byte	.LFB7
 15956 04ec 02000000 		.4byte	.LFE7
 15957 04f0 00000000 		.4byte	.LFB12
 15958 04f4 54010000 		.4byte	.LFE12
 15959 04f8 00000000 		.4byte	.LFB13
 15960 04fc 78000000 		.4byte	.LFE13
 15961 0500 00000000 		.4byte	.LFB14
 15962 0504 58000000 		.4byte	.LFE14
 15963 0508 00000000 		.4byte	.LFB15
 15964 050c 78000000 		.4byte	.LFE15
 15965 0510 00000000 		.4byte	.LFB16
 15966 0514 64000000 		.4byte	.LFE16
 15967 0518 00000000 		.4byte	.LFB17
 15968 051c 38020000 		.4byte	.LFE17
 15969 0520 00000000 		.4byte	.LFB18
 15970 0524 12000000 		.4byte	.LFE18
 15971 0528 00000000 		.4byte	.LFB19
 15972 052c 12000000 		.4byte	.LFE19
 15973 0530 00000000 		.4byte	.LFB21
 15974 0534 D8000000 		.4byte	.LFE21
 15975 0538 00000000 		.4byte	.LFB20
 15976 053c 78000000 		.4byte	.LFE20
 15977 0540 00000000 		.4byte	.LFB22
 15978 0544 78000000 		.4byte	.LFE22
 15979 0548 00000000 		.4byte	.LFB23
 15980 054c 06000000 		.4byte	.LFE23
 15981 0550 00000000 		.4byte	.LFB25
 15982 0554 30050000 		.4byte	.LFE25
ARM GAS  C:\Users\jenny\AppData\Local\Temp\ccLg5IEe.s 			page 282


 15983 0558 00000000 		.4byte	.LFB27
 15984 055c 70000000 		.4byte	.LFE27
 15985 0560 00000000 		.4byte	.LFB29
 15986 0564 06000000 		.4byte	.LFE29
 15987 0568 00000000 		.4byte	.LFB30
 15988 056c 06000000 		.4byte	.LFE30
 15989 0570 00000000 		.4byte	.LFB31
 15990 0574 FC000000 		.4byte	.LFE31
 15991 0578 00000000 		.4byte	.LFB33
 15992 057c E0000000 		.4byte	.LFE33
 15993 0580 00000000 		.4byte	.LFB35
 15994 0584 54000000 		.4byte	.LFE35
 15995 0588 00000000 		.4byte	.LFB36
 15996 058c 4C000000 		.4byte	.LFE36
 15997 0590 00000000 		.4byte	0
 15998 0594 00000000 		.4byte	0
 15999              		.section	.debug_line,"",%progbits
 16000              	.Ldebug_line0:
 16001 0000 BF0B0000 		.section	.debug_str,"MS",%progbits,1
 16001      02008602 
 16001      00000201 
 16001      FB0E0D00 
 16001      01010101 
 16002              	.LASF258:
 16003 0000 6C657863 		.ascii	"lexceptset\000"
 16003      65707473 
 16003      657400
 16004              	.LASF2:
 16005 000b 696E7438 		.ascii	"int8_t\000"
 16005      5F7400
 16006              	.LASF1:
 16007 0012 73697A65 		.ascii	"size_t\000"
 16007      5F7400
 16008              	.LASF51:
 16009 0019 73697A65 		.ascii	"sizetype\000"
 16009      74797065 
 16009      00
 16010              	.LASF262:
 16011 0022 6E616464 		.ascii	"naddr\000"
 16011      7200
 16012              	.LASF24:
 16013 0028 73797374 		.ascii	"systime_t\000"
 16013      696D655F 
 16013      7400
 16014              	.LASF154:
 16015 0032 7263765F 		.ascii	"rcv_ann_wnd\000"
 16015      616E6E5F 
 16015      776E6400 
 16016              	.LASF30:
 16017 003e 705F6374 		.ascii	"p_ctx\000"
 16017      7800
 16018              	.LASF21:
 16019 0044 74707269 		.ascii	"tprio_t\000"
 16019      6F5F7400 
 16020              	.LASF325:
 16021 004c 6C776970 		.ascii	"lwip_ntohs\000"
 16021      5F6E746F 
ARM GAS  C:\Users\jenny\AppData\Local\Temp\ccLg5IEe.s 			page 283


 16021      687300
 16022              	.LASF240:
 16023 0057 6765745F 		.ascii	"get_socket\000"
 16023      736F636B 
 16023      657400
 16024              	.LASF40:
 16025 0062 705F6D73 		.ascii	"p_msgqueue\000"
 16025      67717565 
 16025      756500
 16026              	.LASF213:
 16027 006d 70726F74 		.ascii	"proto\000"
 16027      6F00
 16028              	.LASF10:
 16029 0073 696E7433 		.ascii	"int32_t\000"
 16029      325F7400 
 16030              	.LASF84:
 16031 007b 73696E5F 		.ascii	"sin_family\000"
 16031      66616D69 
 16031      6C7900
 16032              	.LASF271:
 16033 0086 6C6F6361 		.ascii	"local_addr\000"
 16033      6C5F6164 
 16033      647200
 16034              	.LASF86:
 16035 0091 73696E5F 		.ascii	"sin_addr\000"
 16035      61646472 
 16035      00
 16036              	.LASF274:
 16037 009a 6C776970 		.ascii	"lwip_close\000"
 16037      5F636C6F 
 16037      736500
 16038              	.LASF153:
 16039 00a5 7263765F 		.ascii	"rcv_wnd\000"
 16039      776E6400 
 16040              	.LASF142:
 16041 00ad 736F5F6F 		.ascii	"so_options\000"
 16041      7074696F 
 16041      6E7300
 16042              	.LASF317:
 16043 00b8 6572725F 		.ascii	"err_to_errno_table\000"
 16043      746F5F65 
 16043      72726E6F 
 16043      5F746162 
 16043      6C6500
 16044              	.LASF59:
 16045 00cb 6D625F62 		.ascii	"mb_buffer\000"
 16045      75666665 
 16045      7200
 16046              	.LASF323:
 16047 00d5 6E657463 		.ascii	"netconn_accept\000"
 16047      6F6E6E5F 
 16047      61636365 
 16047      707400
 16048              	.LASF280:
 16049 00e4 66726F6D 		.ascii	"from\000"
 16049      00
 16050              	.LASF201:
ARM GAS  C:\Users\jenny\AppData\Local\Temp\ccLg5IEe.s 			page 284


 16051 00e9 4C495354 		.ascii	"LISTEN\000"
 16051      454E00
 16052              	.LASF130:
 16053 00f0 73746174 		.ascii	"state\000"
 16053      6500
 16054              	.LASF249:
 16055 00f6 72656164 		.ascii	"readset_in\000"
 16055      7365745F 
 16055      696E00
 16056              	.LASF113:
 16057 0101 4E455443 		.ascii	"NETCONN_UDPNOCHKSUM\000"
 16057      4F4E4E5F 
 16057      5544504E 
 16057      4F43484B 
 16057      53554D00 
 16058              	.LASF221:
 16059 0115 6C617374 		.ascii	"lastdata\000"
 16059      64617461 
 16059      00
 16060              	.LASF163:
 16061 011e 73737468 		.ascii	"ssthresh\000"
 16061      72657368 
 16061      00
 16062              	.LASF103:
 16063 0127 74797065 		.ascii	"type\000"
 16063      00
 16064              	.LASF215:
 16065 012c 6C6F6361 		.ascii	"local\000"
 16065      6C00
 16066              	.LASF345:
 16067 0132 474E5520 		.ascii	"GNU C 4.7.4 20130913 (release) [ARM/embedded-4_7-br"
 16067      4320342E 
 16067      372E3420 
 16067      32303133 
 16067      30393133 
 16068 0165 616E6368 		.ascii	"anch revision 202601]\000"
 16068      20726576 
 16068      6973696F 
 16068      6E203230 
 16068      32363031 
 16069              	.LASF231:
 16070 017b 65786365 		.ascii	"exceptset\000"
 16070      70747365 
 16070      7400
 16071              	.LASF210:
 16072 0185 54494D45 		.ascii	"TIME_WAIT\000"
 16072      5F574149 
 16072      5400
 16073              	.LASF192:
 16074 018f 636F6E6E 		.ascii	"conn\000"
 16074      00
 16075              	.LASF199:
 16076 0194 7463705F 		.ascii	"tcp_state\000"
 16076      73746174 
 16076      6500
 16077              	.LASF109:
 16078 019e 4E455443 		.ascii	"NETCONN_INVALID\000"
ARM GAS  C:\Users\jenny\AppData\Local\Temp\ccLg5IEe.s 			page 285


 16078      4F4E4E5F 
 16078      494E5641 
 16078      4C494400 
 16079              	.LASF146:
 16080 01ae 7072696F 		.ascii	"prio\000"
 16080      00
 16081              	.LASF57:
 16082 01b3 6D5F6F77 		.ascii	"m_owner\000"
 16082      6E657200 
 16083              	.LASF149:
 16084 01bb 706F6C6C 		.ascii	"polltmr\000"
 16084      746D7200 
 16085              	.LASF67:
 16086 01c3 65786974 		.ascii	"exitcode\000"
 16086      636F6465 
 16086      00
 16087              	.LASF301:
 16088 01cc 77616974 		.ascii	"waitres\000"
 16088      72657300 
 16089              	.LASF69:
 16090 01d4 65776D61 		.ascii	"ewmask\000"
 16090      736B00
 16091              	.LASF129:
 16092 01db 6E657463 		.ascii	"netconn\000"
 16092      6F6E6E00 
 16093              	.LASF214:
 16094 01e3 69706164 		.ascii	"ipaddr\000"
 16094      647200
 16095              	.LASF320:
 16096 01ea 7379735F 		.ascii	"sys_sem_signal\000"
 16096      73656D5F 
 16096      7369676E 
 16096      616C00
 16097              	.LASF132:
 16098 01f9 6F705F63 		.ascii	"op_completed\000"
 16098      6F6D706C 
 16098      65746564 
 16098      00
 16099              	.LASF31:
 16100 0206 705F6E65 		.ascii	"p_newer\000"
 16100      77657200 
 16101              	.LASF127:
 16102 020e 4E455443 		.ascii	"NETCONN_EVT_ERROR\000"
 16102      4F4E4E5F 
 16102      4556545F 
 16102      4552524F 
 16102      5200
 16103              	.LASF11:
 16104 0220 6C6F6E67 		.ascii	"long int\000"
 16104      20696E74 
 16104      00
 16105              	.LASF27:
 16106 0229 705F6E65 		.ascii	"p_next\000"
 16106      787400
 16107              	.LASF319:
 16108 0230 6C776970 		.ascii	"lwip_htons\000"
 16108      5F68746F 
ARM GAS  C:\Users\jenny\AppData\Local\Temp\ccLg5IEe.s 			page 286


 16108      6E7300
 16109              	.LASF241:
 16110 023b 6E657763 		.ascii	"newconn\000"
 16110      6F6E6E00 
 16111              	.LASF28:
 16112 0243 705F7072 		.ascii	"p_prev\000"
 16112      657600
 16113              	.LASF118:
 16114 024a 4E455443 		.ascii	"NETCONN_WRITE\000"
 16114      4F4E4E5F 
 16114      57524954 
 16114      4500
 16115              	.LASF352:
 16116 0258 72657475 		.ascii	"return_copy_fdsets\000"
 16116      726E5F63 
 16116      6F70795F 
 16116      66647365 
 16116      747300
 16117              	.LASF107:
 16118 026b 7379735F 		.ascii	"sys_sem_t\000"
 16118      73656D5F 
 16118      7400
 16119              	.LASF294:
 16120 0275 77726974 		.ascii	"write_flags\000"
 16120      655F666C 
 16120      61677300 
 16121              	.LASF18:
 16122 0281 74737461 		.ascii	"tstate_t\000"
 16122      74655F74 
 16122      00
 16123              	.LASF43:
 16124 028a 705F6D74 		.ascii	"p_mtxlist\000"
 16124      786C6973 
 16124      7400
 16125              	.LASF83:
 16126 0294 73696E5F 		.ascii	"sin_len\000"
 16126      6C656E00 
 16127              	.LASF48:
 16128 029c 72656761 		.ascii	"regarm_t\000"
 16128      726D5F74 
 16128      00
 16129              	.LASF204:
 16130 02a5 45535441 		.ascii	"ESTABLISHED\000"
 16130      424C4953 
 16130      48454400 
 16131              	.LASF297:
 16132 02b1 646F6D61 		.ascii	"domain\000"
 16132      696E00
 16133              	.LASF122:
 16134 02b8 6E657463 		.ascii	"netconn_evt\000"
 16134      6F6E6E5F 
 16134      65767400 
 16135              	.LASF211:
 16136 02c4 7261775F 		.ascii	"raw_recv_fn\000"
 16136      72656376 
 16136      5F666E00 
 16137              	.LASF326:
ARM GAS  C:\Users\jenny\AppData\Local\Temp\ccLg5IEe.s 			page 287


 16138 02d0 6E657463 		.ascii	"netconn_bind\000"
 16138      6F6E6E5F 
 16138      62696E64 
 16138      00
 16139              	.LASF195:
 16140 02dd 7463705F 		.ascii	"tcp_sent_fn\000"
 16140      73656E74 
 16140      5F666E00 
 16141              	.LASF339:
 16142 02e9 6E657463 		.ascii	"netconn_new_with_proto_and_callback\000"
 16142      6F6E6E5F 
 16142      6E65775F 
 16142      77697468 
 16142      5F70726F 
 16143              	.LASF278:
 16144 030d 6261636B 		.ascii	"backlog\000"
 16144      6C6F6700 
 16145              	.LASF222:
 16146 0315 6C617374 		.ascii	"lastoffset\000"
 16146      6F666673 
 16146      657400
 16147              	.LASF197:
 16148 0320 7463705F 		.ascii	"tcp_err_fn\000"
 16148      6572725F 
 16148      666E00
 16149              	.LASF3:
 16150 032b 7369676E 		.ascii	"signed char\000"
 16150      65642063 
 16150      68617200 
 16151              	.LASF37:
 16152 0337 705F7072 		.ascii	"p_preempt\000"
 16152      65656D70 
 16152      7400
 16153              	.LASF4:
 16154 0341 75696E74 		.ascii	"uint8_t\000"
 16154      385F7400 
 16155              	.LASF186:
 16156 0349 6B656570 		.ascii	"keep_cnt_sent\000"
 16156      5F636E74 
 16156      5F73656E 
 16156      7400
 16157              	.LASF293:
 16158 0357 6C776970 		.ascii	"lwip_send\000"
 16158      5F73656E 
 16158      6400
 16159              	.LASF62:
 16160 0361 6D625F72 		.ascii	"mb_rdptr\000"
 16160      64707472 
 16160      00
 16161              	.LASF261:
 16162 036a 6E616D65 		.ascii	"namelen\000"
 16162      6C656E00 
 16163              	.LASF23:
 16164 0372 6576656E 		.ascii	"eventmask_t\000"
 16164      746D6173 
 16164      6B5F7400 
 16165              	.LASF283:
ARM GAS  C:\Users\jenny\AppData\Local\Temp\ccLg5IEe.s 			page 288


 16166 037e 636F7079 		.ascii	"copylen\000"
 16166      6C656E00 
 16167              	.LASF50:
 16168 0386 636F6E74 		.ascii	"context\000"
 16168      65787400 
 16169              	.LASF140:
 16170 038e 6C6F6361 		.ascii	"local_ip\000"
 16170      6C5F6970 
 16170      00
 16171              	.LASF327:
 16172 0397 6E657462 		.ascii	"netbuf_delete\000"
 16172      75665F64 
 16172      656C6574 
 16172      6500
 16173              	.LASF5:
 16174 03a5 756E7369 		.ascii	"unsigned char\000"
 16174      676E6564 
 16174      20636861 
 16174      7200
 16175              	.LASF263:
 16176 03b3 6576656E 		.ascii	"event_callback\000"
 16176      745F6361 
 16176      6C6C6261 
 16176      636B00
 16177              	.LASF311:
 16178 03c2 6C776970 		.ascii	"lwip_ioctl\000"
 16178      5F696F63 
 16178      746C00
 16179              	.LASF225:
 16180 03cd 65727265 		.ascii	"errevent\000"
 16180      76656E74 
 16180      00
 16181              	.LASF16:
 16182 03d6 5F426F6F 		.ascii	"_Bool\000"
 16182      6C00
 16183              	.LASF205:
 16184 03dc 46494E5F 		.ascii	"FIN_WAIT_1\000"
 16184      57414954 
 16184      5F3100
 16185              	.LASF206:
 16186 03e7 46494E5F 		.ascii	"FIN_WAIT_2\000"
 16186      57414954 
 16186      5F3200
 16187              	.LASF110:
 16188 03f2 4E455443 		.ascii	"NETCONN_TCP\000"
 16188      4F4E4E5F 
 16188      54435000 
 16189              	.LASF353:
 16190 03fe 706F7274 		.ascii	"port_halt\000"
 16190      5F68616C 
 16190      7400
 16191              	.LASF104:
 16192 0408 666C6167 		.ascii	"flags\000"
 16192      7300
 16193              	.LASF202:
 16194 040e 53594E5F 		.ascii	"SYN_SENT\000"
 16194      53454E54 
ARM GAS  C:\Users\jenny\AppData\Local\Temp\ccLg5IEe.s 			page 289


 16194      00
 16195              	.LASF70:
 16196 0417 63686172 		.ascii	"char\000"
 16196      00
 16197              	.LASF99:
 16198 041c 70627566 		.ascii	"pbuf\000"
 16198      00
 16199              	.LASF250:
 16200 0421 77726974 		.ascii	"writeset_in\000"
 16200      65736574 
 16200      5F696E00 
 16201              	.LASF29:
 16202 042d 705F7072 		.ascii	"p_prio\000"
 16202      696F00
 16203              	.LASF209:
 16204 0434 4C415354 		.ascii	"LAST_ACK\000"
 16204      5F41434B 
 16204      00
 16205              	.LASF267:
 16206 043d 6E736F63 		.ascii	"nsock\000"
 16206      6B00
 16207              	.LASF64:
 16208 0443 6D625F65 		.ascii	"mb_emptysem\000"
 16208      6D707479 
 16208      73656D00 
 16209              	.LASF229:
 16210 044f 72656164 		.ascii	"readset\000"
 16210      73657400 
 16211              	.LASF68:
 16212 0457 77746F62 		.ascii	"wtobjp\000"
 16212      6A7000
 16213              	.LASF324:
 16214 045e 6E657463 		.ascii	"netconn_delete\000"
 16214      6F6E6E5F 
 16214      64656C65 
 16214      746500
 16215              	.LASF95:
 16216 046d 74696D65 		.ascii	"timeval\000"
 16216      76616C00 
 16217              	.LASF187:
 16218 0475 7564705F 		.ascii	"udp_pcb\000"
 16218      70636200 
 16219              	.LASF304:
 16220 047d 6C776970 		.ascii	"lwip_shutdown\000"
 16220      5F736875 
 16220      74646F77 
 16220      6E00
 16221              	.LASF147:
 16222 048b 6C6F6361 		.ascii	"local_port\000"
 16222      6C5F706F 
 16222      727400
 16223              	.LASF85:
 16224 0496 73696E5F 		.ascii	"sin_port\000"
 16224      706F7274 
 16224      00
 16225              	.LASF275:
 16226 049f 6C776970 		.ascii	"lwip_connect\000"
ARM GAS  C:\Users\jenny\AppData\Local\Temp\ccLg5IEe.s 			page 290


 16226      5F636F6E 
 16226      6E656374 
 16226      00
 16227              	.LASF143:
 16228 04ac 7463705F 		.ascii	"tcp_pcb\000"
 16228      70636200 
 16229              	.LASF105:
 16230 04b4 6E657462 		.ascii	"netbuf\000"
 16230      756600
 16231              	.LASF253:
 16232 04bb 77726974 		.ascii	"writeset_out\000"
 16232      65736574 
 16232      5F6F7574 
 16232      00
 16233              	.LASF220:
 16234 04c8 6C776970 		.ascii	"lwip_sock\000"
 16234      5F736F63 
 16234      6B00
 16235              	.LASF157:
 16236 04d2 72747465 		.ascii	"rttest\000"
 16236      737400
 16237              	.LASF77:
 16238 04d9 69705F61 		.ascii	"ip_addr\000"
 16238      64647200 
 16239              	.LASF218:
 16240 04e1 73687574 		.ascii	"shut\000"
 16240      00
 16241              	.LASF90:
 16242 04e6 73615F66 		.ascii	"sa_family\000"
 16242      616D696C 
 16242      7900
 16243              	.LASF87:
 16244 04f0 73696E5F 		.ascii	"sin_zero\000"
 16244      7A65726F 
 16244      00
 16245              	.LASF347:
 16246 04f9 443A5C6A 		.ascii	"D:\\jenny\\dev\\probe\\chibios\\chibios.workspace\\"
 16246      656E6E79 
 16246      5C646576 
 16246      5C70726F 
 16246      62655C63 
 16247 0526 64656D6F 		.ascii	"demos\\ARMCM4-STM32F407-LWIP-FATFS-USB\000"
 16247      735C4152 
 16247      4D434D34 
 16247      2D53544D 
 16247      33324634 
 16248              	.LASF251:
 16249 054c 65786365 		.ascii	"exceptset_in\000"
 16249      70747365 
 16249      745F696E 
 16249      00
 16250              	.LASF167:
 16251 0559 736E645F 		.ascii	"snd_lbb\000"
 16251      6C626200 
 16252              	.LASF309:
 16253 0561 6C776970 		.ascii	"lwip_getsockopt\000"
 16253      5F676574 
ARM GAS  C:\Users\jenny\AppData\Local\Temp\ccLg5IEe.s 			page 291


 16253      736F636B 
 16253      6F707400 
 16254              	.LASF25:
 16255 0571 636E745F 		.ascii	"cnt_t\000"
 16255      7400
 16256              	.LASF92:
 16257 0577 736F636B 		.ascii	"socklen_t\000"
 16257      6C656E5F 
 16257      7400
 16258              	.LASF184:
 16259 0581 70657273 		.ascii	"persist_cnt\000"
 16259      6973745F 
 16259      636E7400 
 16260              	.LASF207:
 16261 058d 434C4F53 		.ascii	"CLOSE_WAIT\000"
 16261      455F5741 
 16261      495400
 16262              	.LASF227:
 16263 0598 6C776970 		.ascii	"lwip_select_cb\000"
 16263      5F73656C 
 16263      6563745F 
 16263      636200
 16264              	.LASF155:
 16265 05a7 7263765F 		.ascii	"rcv_ann_right_edge\000"
 16265      616E6E5F 
 16265      72696768 
 16265      745F6564 
 16265      676500
 16266              	.LASF49:
 16267 05ba 696E7463 		.ascii	"intctx\000"
 16267      747800
 16268              	.LASF314:
 16269 05c1 736F636B 		.ascii	"sockets\000"
 16269      65747300 
 16270              	.LASF97:
 16271 05c9 74765F75 		.ascii	"tv_usec\000"
 16271      73656300 
 16272              	.LASF42:
 16273 05d1 705F6570 		.ascii	"p_epending\000"
 16273      656E6469 
 16273      6E6700
 16274              	.LASF158:
 16275 05dc 72747365 		.ascii	"rtseq\000"
 16275      7100
 16276              	.LASF266:
 16277 05e2 61646472 		.ascii	"addrlen\000"
 16277      6C656E00 
 16278              	.LASF151:
 16279 05ea 6C617374 		.ascii	"last_timer\000"
 16279      5F74696D 
 16279      657200
 16280              	.LASF245:
 16281 05f5 6C776970 		.ascii	"lwip_getsockopt_internal\000"
 16281      5F676574 
 16281      736F636B 
 16281      6F70745F 
 16281      696E7465 
ARM GAS  C:\Users\jenny\AppData\Local\Temp\ccLg5IEe.s 			page 292


 16282              	.LASF268:
 16283 060e 6E657773 		.ascii	"newsock\000"
 16283      6F636B00 
 16284              	.LASF307:
 16285 0616 6C776970 		.ascii	"lwip_getpeername\000"
 16285      5F676574 
 16285      70656572 
 16285      6E616D65 
 16285      00
 16286              	.LASF246:
 16287 0627 616C6C6F 		.ascii	"alloc_socket\000"
 16287      635F736F 
 16287      636B6574 
 16287      00
 16288              	.LASF65:
 16289 0634 4D61696C 		.ascii	"Mailbox\000"
 16289      626F7800 
 16290              	.LASF121:
 16291 063c 4E455443 		.ascii	"NETCONN_CLOSE\000"
 16291      4F4E4E5F 
 16291      434C4F53 
 16291      4500
 16292              	.LASF137:
 16293 064a 63757272 		.ascii	"current_msg\000"
 16293      656E745F 
 16293      6D736700 
 16294              	.LASF13:
 16295 0656 6C6F6E67 		.ascii	"long unsigned int\000"
 16295      20756E73 
 16295      69676E65 
 16295      6420696E 
 16295      7400
 16296              	.LASF331:
 16297 0668 70627566 		.ascii	"pbuf_copy_partial\000"
 16297      5F636F70 
 16297      795F7061 
 16297      72746961 
 16297      6C00
 16298              	.LASF125:
 16299 067a 4E455443 		.ascii	"NETCONN_EVT_SENDPLUS\000"
 16299      4F4E4E5F 
 16299      4556545F 
 16299      53454E44 
 16299      504C5553 
 16300              	.LASF299:
 16301 068f 6C776970 		.ascii	"lwip_select\000"
 16301      5F73656C 
 16301      65637400 
 16302              	.LASF276:
 16303 069b 72656D6F 		.ascii	"remote_addr\000"
 16303      74655F61 
 16303      64647200 
 16304              	.LASF196:
 16305 06a7 7463705F 		.ascii	"tcp_poll_fn\000"
 16305      706F6C6C 
 16305      5F666E00 
 16306              	.LASF134:
ARM GAS  C:\Users\jenny\AppData\Local\Temp\ccLg5IEe.s 			page 293


 16307 06b3 61636365 		.ascii	"acceptmbox\000"
 16307      70746D62 
 16307      6F7800
 16308              	.LASF138:
 16309 06be 63616C6C 		.ascii	"callback\000"
 16309      6261636B 
 16309      00
 16310              	.LASF101:
 16311 06c7 7061796C 		.ascii	"payload\000"
 16311      6F616400 
 16312              	.LASF341:
 16313 06cf 7379735F 		.ascii	"sys_sem_free\000"
 16313      73656D5F 
 16313      66726565 
 16313      00
 16314              	.LASF159:
 16315 06dc 6E727478 		.ascii	"nrtx\000"
 16315      00
 16316              	.LASF312:
 16317 06e1 61726770 		.ascii	"argp\000"
 16317      00
 16318              	.LASF242:
 16319 06e6 61636365 		.ascii	"accepted\000"
 16319      70746564 
 16319      00
 16320              	.LASF63:
 16321 06ef 6D625F66 		.ascii	"mb_fullsem\000"
 16321      756C6C73 
 16321      656D00
 16322              	.LASF322:
 16323 06fa 7379735F 		.ascii	"sys_sem_signal_S\000"
 16323      73656D5F 
 16323      7369676E 
 16323      616C5F53 
 16323      00
 16324              	.LASF161:
 16325 070b 6C617374 		.ascii	"lastack\000"
 16325      61636B00 
 16326              	.LASF338:
 16327 0713 6E657463 		.ascii	"netconn_write_partly\000"
 16327      6F6E6E5F 
 16327      77726974 
 16327      655F7061 
 16327      72746C79 
 16328              	.LASF164:
 16329 0728 736E645F 		.ascii	"snd_nxt\000"
 16329      6E787400 
 16330              	.LASF277:
 16331 0730 6C776970 		.ascii	"lwip_listen\000"
 16331      5F6C6973 
 16331      74656E00 
 16332              	.LASF108:
 16333 073c 7379735F 		.ascii	"sys_mbox_t\000"
 16333      6D626F78 
 16333      5F7400
 16334              	.LASF55:
 16335 0747 4D757465 		.ascii	"Mutex\000"
ARM GAS  C:\Users\jenny\AppData\Local\Temp\ccLg5IEe.s 			page 294


 16335      7800
 16336              	.LASF111:
 16337 074d 4E455443 		.ascii	"NETCONN_UDP\000"
 16337      4F4E4E5F 
 16337      55445000 
 16338              	.LASF190:
 16339 0759 70726F74 		.ascii	"protocol\000"
 16339      6F636F6C 
 16339      00
 16340              	.LASF178:
 16341 0762 73656E74 		.ascii	"sent\000"
 16341      00
 16342              	.LASF14:
 16343 0767 6C6F6E67 		.ascii	"long long int\000"
 16343      206C6F6E 
 16343      6720696E 
 16343      7400
 16344              	.LASF139:
 16345 0775 69705F70 		.ascii	"ip_pcb\000"
 16345      636200
 16346              	.LASF56:
 16347 077c 6D5F7175 		.ascii	"m_queue\000"
 16347      65756500 
 16348              	.LASF61:
 16349 0784 6D625F77 		.ascii	"mb_wrptr\000"
 16349      72707472 
 16349      00
 16350              	.LASF279:
 16351 078d 6C776970 		.ascii	"lwip_recvfrom\000"
 16351      5F726563 
 16351      7666726F 
 16351      6D00
 16352              	.LASF259:
 16353 079b 6C776970 		.ascii	"lwip_getaddrname\000"
 16353      5F676574 
 16353      61646472 
 16353      6E616D65 
 16353      00
 16354              	.LASF94:
 16355 07ac 66645F62 		.ascii	"fd_bits\000"
 16355      69747300 
 16356              	.LASF244:
 16357 07b4 6C776970 		.ascii	"lwip_setsockopt_internal\000"
 16357      5F736574 
 16357      736F636B 
 16357      6F70745F 
 16357      696E7465 
 16358              	.LASF232:
 16359 07cd 73656D5F 		.ascii	"sem_signalled\000"
 16359      7369676E 
 16359      616C6C65 
 16359      6400
 16360              	.LASF150:
 16361 07db 706F6C6C 		.ascii	"pollinterval\000"
 16361      696E7465 
 16361      7276616C 
 16361      00
ARM GAS  C:\Users\jenny\AppData\Local\Temp\ccLg5IEe.s 			page 295


 16362              	.LASF300:
 16363 07e8 74696D65 		.ascii	"timeout\000"
 16363      6F757400 
 16364              	.LASF116:
 16365 07f0 6E657463 		.ascii	"netconn_state\000"
 16365      6F6E6E5F 
 16365      73746174 
 16365      6500
 16366              	.LASF39:
 16367 07fe 705F7761 		.ascii	"p_waiting\000"
 16367      6974696E 
 16367      6700
 16368              	.LASF78:
 16369 0808 61646472 		.ascii	"addr\000"
 16369      00
 16370              	.LASF35:
 16371 080d 705F666C 		.ascii	"p_flags\000"
 16371      61677300 
 16372              	.LASF0:
 16373 0815 756E7369 		.ascii	"unsigned int\000"
 16373      676E6564 
 16373      20696E74 
 16373      00
 16374              	.LASF282:
 16375 0822 6275666C 		.ascii	"buflen\000"
 16375      656E00
 16376              	.LASF73:
 16377 0829 7531365F 		.ascii	"u16_t\000"
 16377      7400
 16378              	.LASF45:
 16379 082f 705F6D70 		.ascii	"p_mpool\000"
 16379      6F6F6C00 
 16380              	.LASF169:
 16381 0837 736E645F 		.ascii	"snd_wnd_max\000"
 16381      776E645F 
 16381      6D617800 
 16382              	.LASF152:
 16383 0843 7263765F 		.ascii	"rcv_nxt\000"
 16383      6E787400 
 16384              	.LASF234:
 16385 084b 736F636B 		.ascii	"sock\000"
 16385      00
 16386              	.LASF36:
 16387 0850 705F7265 		.ascii	"p_refs\000"
 16387      667300
 16388              	.LASF224:
 16389 0857 73656E64 		.ascii	"sendevent\000"
 16389      6576656E 
 16389      7400
 16390              	.LASF237:
 16391 0861 6F707476 		.ascii	"optval\000"
 16391      616C00
 16392              	.LASF47:
 16393 0868 54687265 		.ascii	"ThreadsList\000"
 16393      6164734C 
 16393      69737400 
 16394              	.LASF265:
ARM GAS  C:\Users\jenny\AppData\Local\Temp\ccLg5IEe.s 			page 296


 16395 0874 646F5F73 		.ascii	"do_signal\000"
 16395      69676E61 
 16395      6C00
 16396              	.LASF115:
 16397 087e 6E657463 		.ascii	"netconn_type\000"
 16397      6F6E6E5F 
 16397      74797065 
 16397      00
 16398              	.LASF315:
 16399 088b 73656C65 		.ascii	"select_cb_list\000"
 16399      63745F63 
 16399      625F6C69 
 16399      737400
 16400              	.LASF269:
 16401 089a 6C776970 		.ascii	"lwip_accept\000"
 16401      5F616363 
 16401      65707400 
 16402              	.LASF181:
 16403 08a6 706F6C6C 		.ascii	"poll\000"
 16403      00
 16404              	.LASF284:
 16405 08ab 646F6E65 		.ascii	"done\000"
 16405      00
 16406              	.LASF264:
 16407 08b0 6C617374 		.ascii	"last_select_cb_ctr\000"
 16407      5F73656C 
 16407      6563745F 
 16407      63625F63 
 16407      747200
 16408              	.LASF156:
 16409 08c3 7274696D 		.ascii	"rtime\000"
 16409      6500
 16410              	.LASF219:
 16411 08c9 74637069 		.ascii	"tcpip_callback_fn\000"
 16411      705F6361 
 16411      6C6C6261 
 16411      636B5F66 
 16411      6E00
 16412              	.LASF203:
 16413 08db 53594E5F 		.ascii	"SYN_RCVD\000"
 16413      52435644 
 16413      00
 16414              	.LASF296:
 16415 08e4 6C776970 		.ascii	"lwip_socket\000"
 16415      5F736F63 
 16415      6B657400 
 16416              	.LASF38:
 16417 08f0 705F7469 		.ascii	"p_time\000"
 16417      6D6500
 16418              	.LASF236:
 16419 08f7 6F70746E 		.ascii	"optname\000"
 16419      616D6500 
 16420              	.LASF179:
 16421 08ff 72656376 		.ascii	"recv\000"
 16421      00
 16422              	.LASF281:
 16423 0904 66726F6D 		.ascii	"fromlen\000"
ARM GAS  C:\Users\jenny\AppData\Local\Temp\ccLg5IEe.s 			page 297


 16423      6C656E00 
 16424              	.LASF120:
 16425 090c 4E455443 		.ascii	"NETCONN_CONNECT\000"
 16425      4F4E4E5F 
 16425      434F4E4E 
 16425      45435400 
 16426              	.LASF292:
 16427 091c 746F5F69 		.ascii	"to_in\000"
 16427      6E00
 16428              	.LASF102:
 16429 0922 746F745F 		.ascii	"tot_len\000"
 16429      6C656E00 
 16430              	.LASF305:
 16431 092a 73687574 		.ascii	"shut_rx\000"
 16431      5F727800 
 16432              	.LASF79:
 16433 0932 69705F61 		.ascii	"ip_addr_t\000"
 16433      6464725F 
 16433      7400
 16434              	.LASF52:
 16435 093c 53656D61 		.ascii	"Semaphore\000"
 16435      70686F72 
 16435      6500
 16436              	.LASF308:
 16437 0946 6C776970 		.ascii	"lwip_getsockname\000"
 16437      5F676574 
 16437      736F636B 
 16437      6E616D65 
 16437      00
 16438              	.LASF349:
 16439 0957 61676169 		.ascii	"again\000"
 16439      6E00
 16440              	.LASF44:
 16441 095d 705F7265 		.ascii	"p_realprio\000"
 16441      616C7072 
 16441      696F00
 16442              	.LASF98:
 16443 0968 6572725F 		.ascii	"err_t\000"
 16443      7400
 16444              	.LASF212:
 16445 096e 7564705F 		.ascii	"udp_recv_fn\000"
 16445      72656376 
 16445      5F666E00 
 16446              	.LASF60:
 16447 097a 6D625F74 		.ascii	"mb_top\000"
 16447      6F7000
 16448              	.LASF285:
 16449 0981 66726F6D 		.ascii	"fromaddr\000"
 16449      61646472 
 16449      00
 16450              	.LASF247:
 16451 098a 6C776970 		.ascii	"lwip_selscan\000"
 16451      5F73656C 
 16451      7363616E 
 16451      00
 16452              	.LASF257:
 16453 0997 6C777269 		.ascii	"lwriteset\000"
ARM GAS  C:\Users\jenny\AppData\Local\Temp\ccLg5IEe.s 			page 298


 16453      74657365 
 16453      7400
 16454              	.LASF54:
 16455 09a1 735F636E 		.ascii	"s_cnt\000"
 16455      7400
 16456              	.LASF198:
 16457 09a7 7463705F 		.ascii	"tcp_connected_fn\000"
 16457      636F6E6E 
 16457      65637465 
 16457      645F666E 
 16457      00
 16458              	.LASF248:
 16459 09b8 6D617866 		.ascii	"maxfdp1\000"
 16459      64703100 
 16460              	.LASF289:
 16461 09c0 73697A65 		.ascii	"size\000"
 16461      00
 16462              	.LASF15:
 16463 09c5 6C6F6E67 		.ascii	"long long unsigned int\000"
 16463      206C6F6E 
 16463      6720756E 
 16463      7369676E 
 16463      65642069 
 16464              	.LASF148:
 16465 09dc 72656D6F 		.ascii	"remote_port\000"
 16465      74655F70 
 16465      6F727400 
 16466              	.LASF32:
 16467 09e8 705F6F6C 		.ascii	"p_older\000"
 16467      64657200 
 16468              	.LASF8:
 16469 09f0 75696E74 		.ascii	"uint16_t\000"
 16469      31365F74 
 16469      00
 16470              	.LASF185:
 16471 09f9 70657273 		.ascii	"persist_backoff\000"
 16471      6973745F 
 16471      6261636B 
 16471      6F666600 
 16472              	.LASF337:
 16473 0a09 6E657463 		.ascii	"netconn_send\000"
 16473      6F6E6E5F 
 16473      73656E64 
 16473      00
 16474              	.LASF330:
 16475 0a16 6E657463 		.ascii	"netconn_listen_with_backlog\000"
 16475      6F6E6E5F 
 16475      6C697374 
 16475      656E5F77 
 16475      6974685F 
 16476              	.LASF22:
 16477 0a32 6D73675F 		.ascii	"msg_t\000"
 16477      7400
 16478              	.LASF318:
 16479 0a38 6E657463 		.ascii	"netconn_getaddr\000"
 16479      6F6E6E5F 
 16479      67657461 
ARM GAS  C:\Users\jenny\AppData\Local\Temp\ccLg5IEe.s 			page 299


 16479      64647200 
 16480              	.LASF162:
 16481 0a48 63776E64 		.ascii	"cwnd\000"
 16481      00
 16482              	.LASF20:
 16483 0a4d 74736C69 		.ascii	"tslices_t\000"
 16483      6365735F 
 16483      7400
 16484              	.LASF238:
 16485 0a57 6F70746C 		.ascii	"optlen\000"
 16485      656E00
 16486              	.LASF177:
 16487 0a5e 72656675 		.ascii	"refused_data\000"
 16487      7365645F 
 16487      64617461 
 16487      00
 16488              	.LASF126:
 16489 0a6b 4E455443 		.ascii	"NETCONN_EVT_SENDMINUS\000"
 16489      4F4E4E5F 
 16489      4556545F 
 16489      53454E44 
 16489      4D494E55 
 16490              	.LASF303:
 16491 0a81 73656C65 		.ascii	"select_cb\000"
 16491      63745F63 
 16491      6200
 16492              	.LASF91:
 16493 0a8b 73615F64 		.ascii	"sa_data\000"
 16493      61746100 
 16494              	.LASF172:
 16495 0a93 736E645F 		.ascii	"snd_queuelen\000"
 16495      71756575 
 16495      656C656E 
 16495      00
 16496              	.LASF286:
 16497 0aa0 6C776970 		.ascii	"lwip_read\000"
 16497      5F726561 
 16497      6400
 16498              	.LASF272:
 16499 0aaa 6E616D65 		.ascii	"name_in\000"
 16499      5F696E00 
 16500              	.LASF82:
 16501 0ab2 736F636B 		.ascii	"sockaddr_in\000"
 16501      61646472 
 16501      5F696E00 
 16502              	.LASF302:
 16503 0abe 6D736563 		.ascii	"msectimeout\000"
 16503      74696D65 
 16503      6F757400 
 16504              	.LASF188:
 16505 0aca 72656376 		.ascii	"recv_arg\000"
 16505      5F617267 
 16505      00
 16506              	.LASF88:
 16507 0ad3 736F636B 		.ascii	"sockaddr\000"
 16507      61646472 
 16507      00
ARM GAS  C:\Users\jenny\AppData\Local\Temp\ccLg5IEe.s 			page 300


 16508              	.LASF124:
 16509 0adc 4E455443 		.ascii	"NETCONN_EVT_RCVMINUS\000"
 16509      4F4E4E5F 
 16509      4556545F 
 16509      5243564D 
 16509      494E5553 
 16510              	.LASF174:
 16511 0af1 756E7365 		.ascii	"unsent\000"
 16511      6E7400
 16512              	.LASF329:
 16513 0af8 6E657463 		.ascii	"netconn_connect\000"
 16513      6F6E6E5F 
 16513      636F6E6E 
 16513      65637400 
 16514              	.LASF316:
 16515 0b08 73656C65 		.ascii	"select_cb_ctr\000"
 16515      63745F63 
 16515      625F6374 
 16515      7200
 16516              	.LASF291:
 16517 0b16 73686F72 		.ascii	"short_size\000"
 16517      745F7369 
 16517      7A6500
 16518              	.LASF173:
 16519 0b21 756E7365 		.ascii	"unsent_oversize\000"
 16519      6E745F6F 
 16519      76657273 
 16519      697A6500 
 16520              	.LASF328:
 16521 0b31 70627566 		.ascii	"pbuf_free\000"
 16521      5F667265 
 16521      6500
 16522              	.LASF342:
 16523 0b3b 7379735F 		.ascii	"sys_arch_sem_wait\000"
 16523      61726368 
 16523      5F73656D 
 16523      5F776169 
 16523      7400
 16524              	.LASF191:
 16525 0b4d 6170695F 		.ascii	"api_msg_msg\000"
 16525      6D73675F 
 16525      6D736700 
 16526              	.LASF141:
 16527 0b59 72656D6F 		.ascii	"remote_ip\000"
 16527      74655F69 
 16527      7000
 16528              	.LASF80:
 16529 0b63 696E5F61 		.ascii	"in_addr\000"
 16529      64647200 
 16530              	.LASF75:
 16531 0b6b 7533325F 		.ascii	"u32_t\000"
 16531      7400
 16532              	.LASF17:
 16533 0b71 746D6F64 		.ascii	"tmode_t\000"
 16533      655F7400 
 16534              	.LASF136:
 16535 0b79 77726974 		.ascii	"write_offset\000"
ARM GAS  C:\Users\jenny\AppData\Local\Temp\ccLg5IEe.s 			page 301


 16535      655F6F66 
 16535      66736574 
 16535      00
 16536              	.LASF230:
 16537 0b86 77726974 		.ascii	"writeset\000"
 16537      65736574 
 16537      00
 16538              	.LASF351:
 16539 0b8f 66726565 		.ascii	"free_socket\000"
 16539      5F736F63 
 16539      6B657400 
 16540              	.LASF256:
 16541 0b9b 6C726561 		.ascii	"lreadset\000"
 16541      64736574 
 16541      00
 16542              	.LASF313:
 16543 0ba4 6C776970 		.ascii	"lwip_fcntl\000"
 16543      5F66636E 
 16543      746C00
 16544              	.LASF114:
 16545 0baf 4E455443 		.ascii	"NETCONN_RAW\000"
 16545      4F4E4E5F 
 16545      52415700 
 16546              	.LASF287:
 16547 0bbb 6C776970 		.ascii	"lwip_recv\000"
 16547      5F726563 
 16547      7600
 16548              	.LASF298:
 16549 0bc5 6C776970 		.ascii	"lwip_write\000"
 16549      5F777269 
 16549      746500
 16550              	.LASF288:
 16551 0bd0 6C776970 		.ascii	"lwip_sendto\000"
 16551      5F73656E 
 16551      64746F00 
 16552              	.LASF260:
 16553 0bdc 6E616D65 		.ascii	"name\000"
 16553      00
 16554              	.LASF53:
 16555 0be1 735F7175 		.ascii	"s_queue\000"
 16555      65756500 
 16556              	.LASF106:
 16557 0be9 706F7274 		.ascii	"port\000"
 16557      00
 16558              	.LASF170:
 16559 0bee 61636B65 		.ascii	"acked\000"
 16559      6400
 16560              	.LASF340:
 16561 0bf4 7379735F 		.ascii	"sys_sem_new\000"
 16561      73656D5F 
 16561      6E657700 
 16562              	.LASF89:
 16563 0c00 73615F6C 		.ascii	"sa_len\000"
 16563      656E00
 16564              	.LASF183:
 16565 0c07 6B656570 		.ascii	"keep_idle\000"
 16565      5F69646C 
ARM GAS  C:\Users\jenny\AppData\Local\Temp\ccLg5IEe.s 			page 302


 16565      6500
 16566              	.LASF350:
 16567 0c11 6C776970 		.ascii	"lwip_socket_init\000"
 16567      5F736F63 
 16567      6B65745F 
 16567      696E6974 
 16567      00
 16568              	.LASF7:
 16569 0c22 73686F72 		.ascii	"short int\000"
 16569      7420696E 
 16569      7400
 16570              	.LASF119:
 16571 0c2c 4E455443 		.ascii	"NETCONN_LISTEN\000"
 16571      4F4E4E5F 
 16571      4C495354 
 16571      454E00
 16572              	.LASF254:
 16573 0c3b 65786365 		.ascii	"exceptset_out\000"
 16573      70747365 
 16573      745F6F75 
 16573      7400
 16574              	.LASF112:
 16575 0c49 4E455443 		.ascii	"NETCONN_UDPLITE\000"
 16575      4F4E4E5F 
 16575      5544504C 
 16575      49544500 
 16576              	.LASF346:
 16577 0c59 2E2E2F2E 		.ascii	"../../ext/lwip/src/api/sockets.c\000"
 16577      2E2F6578 
 16577      742F6C77 
 16577      69702F73 
 16577      72632F61 
 16578              	.LASF175:
 16579 0c7a 756E6163 		.ascii	"unacked\000"
 16579      6B656400 
 16580              	.LASF6:
 16581 0c82 696E7431 		.ascii	"int16_t\000"
 16581      365F7400 
 16582              	.LASF144:
 16583 0c8a 63616C6C 		.ascii	"callback_arg\000"
 16583      6261636B 
 16583      5F617267 
 16583      00
 16584              	.LASF333:
 16585 0c97 6E657463 		.ascii	"netconn_recv\000"
 16585      6F6E6E5F 
 16585      72656376 
 16585      00
 16586              	.LASF239:
 16587 0ca4 74727967 		.ascii	"tryget_socket\000"
 16587      65745F73 
 16587      6F636B65 
 16587      7400
 16588              	.LASF182:
 16589 0cb2 65727266 		.ascii	"errf\000"
 16589      00
 16590              	.LASF343:
ARM GAS  C:\Users\jenny\AppData\Local\Temp\ccLg5IEe.s 			page 303


 16591 0cb7 6E657463 		.ascii	"netconn_shutdown\000"
 16591      6F6E6E5F 
 16591      73687574 
 16591      646F776E 
 16591      00
 16592              	.LASF217:
 16593 0cc8 61706966 		.ascii	"apiflags\000"
 16593      6C616773 
 16593      00
 16594              	.LASF145:
 16595 0cd1 61636365 		.ascii	"accept\000"
 16595      707400
 16596              	.LASF233:
 16597 0cd8 6C776970 		.ascii	"lwip_setgetsockopt_data\000"
 16597      5F736574 
 16597      67657473 
 16597      6F636B6F 
 16597      70745F64 
 16598              	.LASF26:
 16599 0cf0 54687265 		.ascii	"Thread\000"
 16599      616400
 16600              	.LASF310:
 16601 0cf7 6C776970 		.ascii	"lwip_setsockopt\000"
 16601      5F736574 
 16601      736F636B 
 16601      6F707400 
 16602              	.LASF194:
 16603 0d07 7463705F 		.ascii	"tcp_recv_fn\000"
 16603      72656376 
 16603      5F666E00 
 16604              	.LASF117:
 16605 0d13 4E455443 		.ascii	"NETCONN_NONE\000"
 16605      4F4E4E5F 
 16605      4E4F4E45 
 16605      00
 16606              	.LASF165:
 16607 0d20 736E645F 		.ascii	"snd_wl1\000"
 16607      776C3100 
 16608              	.LASF166:
 16609 0d28 736E645F 		.ascii	"snd_wl2\000"
 16609      776C3200 
 16610              	.LASF93:
 16611 0d30 66645F73 		.ascii	"fd_set\000"
 16611      657400
 16612              	.LASF200:
 16613 0d37 434C4F53 		.ascii	"CLOSED\000"
 16613      454400
 16614              	.LASF135:
 16615 0d3e 736F636B 		.ascii	"socket\000"
 16615      657400
 16616              	.LASF160:
 16617 0d45 64757061 		.ascii	"dupacks\000"
 16617      636B7300 
 16618              	.LASF270:
 16619 0d4d 6C776970 		.ascii	"lwip_bind\000"
 16619      5F62696E 
 16619      6400
ARM GAS  C:\Users\jenny\AppData\Local\Temp\ccLg5IEe.s 			page 304


 16620              	.LASF74:
 16621 0d57 7331365F 		.ascii	"s16_t\000"
 16621      7400
 16622              	.LASF321:
 16623 0d5d 6D656D63 		.ascii	"memcpy\000"
 16623      707900
 16624              	.LASF295:
 16625 0d64 77726974 		.ascii	"written\000"
 16625      74656E00 
 16626              	.LASF19:
 16627 0d6c 74726566 		.ascii	"trefs_t\000"
 16627      735F7400 
 16628              	.LASF223:
 16629 0d74 72637665 		.ascii	"rcvevent\000"
 16629      76656E74 
 16629      00
 16630              	.LASF189:
 16631 0d7d 7261775F 		.ascii	"raw_pcb\000"
 16631      70636200 
 16632              	.LASF76:
 16633 0d85 6D656D5F 		.ascii	"mem_ptr_t\000"
 16633      7074725F 
 16633      7400
 16634              	.LASF344:
 16635 0d8f 74637069 		.ascii	"tcpip_callback_with_block\000"
 16635      705F6361 
 16635      6C6C6261 
 16635      636B5F77 
 16635      6974685F 
 16636              	.LASF81:
 16637 0da9 735F6164 		.ascii	"s_addr\000"
 16637      647200
 16638              	.LASF12:
 16639 0db0 75696E74 		.ascii	"uint32_t\000"
 16639      33325F74 
 16639      00
 16640              	.LASF128:
 16641 0db9 6E657463 		.ascii	"netconn_callback\000"
 16641      6F6E6E5F 
 16641      63616C6C 
 16641      6261636B 
 16641      00
 16642              	.LASF216:
 16643 0dca 64617461 		.ascii	"dataptr\000"
 16643      70747200 
 16644              	.LASF235:
 16645 0dd2 6C657665 		.ascii	"level\000"
 16645      6C00
 16646              	.LASF46:
 16647 0dd8 54687265 		.ascii	"ThreadsQueue\000"
 16647      61647351 
 16647      75657565 
 16647      00
 16648              	.LASF336:
 16649 0de5 6E657462 		.ascii	"netbuf_free\000"
 16649      75665F66 
 16649      72656500 
ARM GAS  C:\Users\jenny\AppData\Local\Temp\ccLg5IEe.s 			page 305


 16650              	.LASF332:
 16651 0df1 6E657463 		.ascii	"netconn_recved\000"
 16651      6F6E6E5F 
 16651      72656376 
 16651      656400
 16652              	.LASF226:
 16653 0e00 73656C65 		.ascii	"select_waiting\000"
 16653      63745F77 
 16653      61697469 
 16653      6E6700
 16654              	.LASF133:
 16655 0e0f 72656376 		.ascii	"recvmbox\000"
 16655      6D626F78 
 16655      00
 16656              	.LASF123:
 16657 0e18 4E455443 		.ascii	"NETCONN_EVT_RCVPLUS\000"
 16657      4F4E4E5F 
 16657      4556545F 
 16657      52435650 
 16657      4C555300 
 16658              	.LASF252:
 16659 0e2c 72656164 		.ascii	"readset_out\000"
 16659      7365745F 
 16659      6F757400 
 16660              	.LASF334:
 16661 0e38 6E657463 		.ascii	"netconn_recv_tcp_pbuf\000"
 16661      6F6E6E5F 
 16661      72656376 
 16661      5F746370 
 16661      5F706275 
 16662              	.LASF335:
 16663 0e4e 6E657462 		.ascii	"netbuf_ref\000"
 16663      75665F72 
 16663      656600
 16664              	.LASF66:
 16665 0e59 7264796D 		.ascii	"rdymsg\000"
 16665      736700
 16666              	.LASF9:
 16667 0e60 73686F72 		.ascii	"short unsigned int\000"
 16667      7420756E 
 16667      7369676E 
 16667      65642069 
 16667      6E7400
 16668              	.LASF72:
 16669 0e73 73385F74 		.ascii	"s8_t\000"
 16669      00
 16670              	.LASF71:
 16671 0e78 75385F74 		.ascii	"u8_t\000"
 16671      00
 16672              	.LASF208:
 16673 0e7d 434C4F53 		.ascii	"CLOSING\000"
 16673      494E4700 
 16674              	.LASF171:
 16675 0e85 736E645F 		.ascii	"snd_buf\000"
 16675      62756600 
 16676              	.LASF273:
 16677 0e8d 69735F74 		.ascii	"is_tcp\000"
ARM GAS  C:\Users\jenny\AppData\Local\Temp\ccLg5IEe.s 			page 306


 16677      637000
 16678              	.LASF168:
 16679 0e94 736E645F 		.ascii	"snd_wnd\000"
 16679      776E6400 
 16680              	.LASF306:
 16681 0e9c 73687574 		.ascii	"shut_tx\000"
 16681      5F747800 
 16682              	.LASF255:
 16683 0ea4 6E726561 		.ascii	"nready\000"
 16683      647900
 16684              	.LASF193:
 16685 0eab 7463705F 		.ascii	"tcp_accept_fn\000"
 16685      61636365 
 16685      70745F66 
 16685      6E00
 16686              	.LASF33:
 16687 0eb9 705F6E61 		.ascii	"p_name\000"
 16687      6D6500
 16688              	.LASF100:
 16689 0ec0 6E657874 		.ascii	"next\000"
 16689      00
 16690              	.LASF243:
 16691 0ec5 64617461 		.ascii	"data\000"
 16691      00
 16692              	.LASF58:
 16693 0eca 6D5F6E65 		.ascii	"m_next\000"
 16693      787400
 16694              	.LASF348:
 16695 0ed1 7463705F 		.ascii	"tcp_seg\000"
 16695      73656700 
 16696              	.LASF180:
 16697 0ed9 636F6E6E 		.ascii	"connected\000"
 16697      65637465 
 16697      6400
 16698              	.LASF290:
 16699 0ee3 746F6C65 		.ascii	"tolen\000"
 16699      6E00
 16700              	.LASF228:
 16701 0ee9 70726576 		.ascii	"prev\000"
 16701      00
 16702              	.LASF96:
 16703 0eee 74765F73 		.ascii	"tv_sec\000"
 16703      656300
 16704              	.LASF131:
 16705 0ef5 6C617374 		.ascii	"last_err\000"
 16705      5F657272 
 16705      00
 16706              	.LASF176:
 16707 0efe 6F6F7365 		.ascii	"ooseq\000"
 16707      7100
 16708              	.LASF41:
 16709 0f04 705F6D73 		.ascii	"p_msg\000"
 16709      6700
 16710              	.LASF34:
 16711 0f0a 705F7374 		.ascii	"p_state\000"
 16711      61746500 
 16712              		.ident	"GCC: (GNU Tools for ARM Embedded Processors) 4.7.4 20130913 (release) [ARM/embedded-4_7-br
ARM GAS  C:\Users\jenny\AppData\Local\Temp\ccLg5IEe.s 			page 307


ARM GAS  C:\Users\jenny\AppData\Local\Temp\ccLg5IEe.s 			page 308


DEFINED SYMBOLS
                            *ABS*:00000000 sockets.c
C:\Users\jenny\AppData\Local\Temp\ccLg5IEe.s:20     .text.alloc_socket:00000000 $t
C:\Users\jenny\AppData\Local\Temp\ccLg5IEe.s:25     .text.alloc_socket:00000000 alloc_socket
C:\Users\jenny\AppData\Local\Temp\ccLg5IEe.s:136    .text.alloc_socket:00000068 $d
C:\Users\jenny\AppData\Local\Temp\ccLg5IEe.s:141    .text.lwip_setsockopt_internal:00000000 $t
C:\Users\jenny\AppData\Local\Temp\ccLg5IEe.s:146    .text.lwip_setsockopt_internal:00000000 lwip_setsockopt_internal
C:\Users\jenny\AppData\Local\Temp\ccLg5IEe.s:354    .text.lwip_getsockopt_internal:00000000 $t
C:\Users\jenny\AppData\Local\Temp\ccLg5IEe.s:359    .text.lwip_getsockopt_internal:00000000 lwip_getsockopt_internal
C:\Users\jenny\AppData\Local\Temp\ccLg5IEe.s:592    .text.lwip_getsockopt_internal:00000108 $d
C:\Users\jenny\AppData\Local\Temp\ccLg5IEe.s:597    .text.lwip_selscan:00000000 $t
C:\Users\jenny\AppData\Local\Temp\ccLg5IEe.s:602    .text.lwip_selscan:00000000 lwip_selscan
C:\Users\jenny\AppData\Local\Temp\ccLg5IEe.s:4600   .bss.sockets:00000000 .LANCHOR0
C:\Users\jenny\AppData\Local\Temp\ccLg5IEe.s:813    .text.lwip_getaddrname:00000000 $t
C:\Users\jenny\AppData\Local\Temp\ccLg5IEe.s:818    .text.lwip_getaddrname:00000000 lwip_getaddrname
C:\Users\jenny\AppData\Local\Temp\ccLg5IEe.s:931    .text.lwip_getaddrname:00000074 $d
C:\Users\jenny\AppData\Local\Temp\ccLg5IEe.s:936    .text.event_callback:00000000 $t
C:\Users\jenny\AppData\Local\Temp\ccLg5IEe.s:941    .text.event_callback:00000000 event_callback
C:\Users\jenny\AppData\Local\Temp\ccLg5IEe.s:992    .text.event_callback:0000002a $d
C:\Users\jenny\AppData\Local\Temp\ccLg5IEe.s:1140   .text.event_callback:000000ec $d
C:\Users\jenny\AppData\Local\Temp\ccLg5IEe.s:1147   .text.lwip_socket_init:00000000 $t
C:\Users\jenny\AppData\Local\Temp\ccLg5IEe.s:1153   .text.lwip_socket_init:00000000 lwip_socket_init
C:\Users\jenny\AppData\Local\Temp\ccLg5IEe.s:1165   .text.lwip_accept:00000000 $t
C:\Users\jenny\AppData\Local\Temp\ccLg5IEe.s:1171   .text.lwip_accept:00000000 lwip_accept
C:\Users\jenny\AppData\Local\Temp\ccLg5IEe.s:1454   .text.lwip_accept:00000148 $d
C:\Users\jenny\AppData\Local\Temp\ccLg5IEe.s:1461   .text.lwip_bind:00000000 $t
C:\Users\jenny\AppData\Local\Temp\ccLg5IEe.s:1467   .text.lwip_bind:00000000 lwip_bind
C:\Users\jenny\AppData\Local\Temp\ccLg5IEe.s:1579   .text.lwip_bind:00000070 $d
C:\Users\jenny\AppData\Local\Temp\ccLg5IEe.s:1585   .text.lwip_close:00000000 $t
C:\Users\jenny\AppData\Local\Temp\ccLg5IEe.s:1591   .text.lwip_close:00000000 lwip_close
C:\Users\jenny\AppData\Local\Temp\ccLg5IEe.s:1690   .text.lwip_close:00000054 $d
C:\Users\jenny\AppData\Local\Temp\ccLg5IEe.s:1697   .text.lwip_connect:00000000 $t
C:\Users\jenny\AppData\Local\Temp\ccLg5IEe.s:1703   .text.lwip_connect:00000000 lwip_connect
C:\Users\jenny\AppData\Local\Temp\ccLg5IEe.s:1818   .text.lwip_connect:00000070 $d
C:\Users\jenny\AppData\Local\Temp\ccLg5IEe.s:1824   .text.lwip_listen:00000000 $t
C:\Users\jenny\AppData\Local\Temp\ccLg5IEe.s:1830   .text.lwip_listen:00000000 lwip_listen
C:\Users\jenny\AppData\Local\Temp\ccLg5IEe.s:1930   .text.lwip_listen:0000005c $d
C:\Users\jenny\AppData\Local\Temp\ccLg5IEe.s:1936   .text.lwip_recvfrom:00000000 $t
C:\Users\jenny\AppData\Local\Temp\ccLg5IEe.s:1942   .text.lwip_recvfrom:00000000 lwip_recvfrom
C:\Users\jenny\AppData\Local\Temp\ccLg5IEe.s:2398   .text.lwip_recvfrom:00000230 $d
C:\Users\jenny\AppData\Local\Temp\ccLg5IEe.s:2404   .text.lwip_read:00000000 $t
C:\Users\jenny\AppData\Local\Temp\ccLg5IEe.s:2410   .text.lwip_read:00000000 lwip_read
C:\Users\jenny\AppData\Local\Temp\ccLg5IEe.s:2437   .text.lwip_recv:00000000 $t
C:\Users\jenny\AppData\Local\Temp\ccLg5IEe.s:2443   .text.lwip_recv:00000000 lwip_recv
C:\Users\jenny\AppData\Local\Temp\ccLg5IEe.s:2471   .text.lwip_sendto:00000000 $t
C:\Users\jenny\AppData\Local\Temp\ccLg5IEe.s:2477   .text.lwip_sendto:00000000 lwip_sendto
C:\Users\jenny\AppData\Local\Temp\ccLg5IEe.s:2670   .text.lwip_send:00000000 lwip_send
C:\Users\jenny\AppData\Local\Temp\ccLg5IEe.s:2658   .text.lwip_sendto:000000d0 $d
C:\Users\jenny\AppData\Local\Temp\ccLg5IEe.s:2664   .text.lwip_send:00000000 $t
C:\Users\jenny\AppData\Local\Temp\ccLg5IEe.s:2780   .text.lwip_send:00000070 $d
C:\Users\jenny\AppData\Local\Temp\ccLg5IEe.s:2786   .text.lwip_socket:00000000 $t
C:\Users\jenny\AppData\Local\Temp\ccLg5IEe.s:2792   .text.lwip_socket:00000000 lwip_socket
C:\Users\jenny\AppData\Local\Temp\ccLg5IEe.s:2906   .text.lwip_socket:00000074 $d
C:\Users\jenny\AppData\Local\Temp\ccLg5IEe.s:2911   .text.lwip_write:00000000 $t
C:\Users\jenny\AppData\Local\Temp\ccLg5IEe.s:2917   .text.lwip_write:00000000 lwip_write
C:\Users\jenny\AppData\Local\Temp\ccLg5IEe.s:2935   .text.lwip_select:00000000 $t
C:\Users\jenny\AppData\Local\Temp\ccLg5IEe.s:2941   .text.lwip_select:00000000 lwip_select
ARM GAS  C:\Users\jenny\AppData\Local\Temp\ccLg5IEe.s 			page 309


C:\Users\jenny\AppData\Local\Temp\ccLg5IEe.s:4593   .bss.select_cb_list:00000000 .LANCHOR2
C:\Users\jenny\AppData\Local\Temp\ccLg5IEe.s:4607   .bss.select_cb_ctr:00000000 .LANCHOR3
C:\Users\jenny\AppData\Local\Temp\ccLg5IEe.s:3501   .text.lwip_select:00000354 $d
C:\Users\jenny\AppData\Local\Temp\ccLg5IEe.s:3505   .text.lwip_select:00000358 $t
C:\Users\jenny\AppData\Local\Temp\ccLg5IEe.s:3790   .text.lwip_shutdown:00000000 $t
C:\Users\jenny\AppData\Local\Temp\ccLg5IEe.s:3796   .text.lwip_shutdown:00000000 lwip_shutdown
C:\Users\jenny\AppData\Local\Temp\ccLg5IEe.s:3908   .text.lwip_shutdown:00000068 $d
C:\Users\jenny\AppData\Local\Temp\ccLg5IEe.s:3914   .text.lwip_getpeername:00000000 $t
C:\Users\jenny\AppData\Local\Temp\ccLg5IEe.s:3920   .text.lwip_getpeername:00000000 lwip_getpeername
C:\Users\jenny\AppData\Local\Temp\ccLg5IEe.s:3938   .text.lwip_getsockname:00000000 $t
C:\Users\jenny\AppData\Local\Temp\ccLg5IEe.s:3944   .text.lwip_getsockname:00000000 lwip_getsockname
C:\Users\jenny\AppData\Local\Temp\ccLg5IEe.s:3962   .text.lwip_getsockopt:00000000 $t
C:\Users\jenny\AppData\Local\Temp\ccLg5IEe.s:3968   .text.lwip_getsockopt:00000000 lwip_getsockopt
C:\Users\jenny\AppData\Local\Temp\ccLg5IEe.s:4175   .text.lwip_getsockopt:000000f4 $d
C:\Users\jenny\AppData\Local\Temp\ccLg5IEe.s:4181   .text.lwip_setsockopt:00000000 $t
C:\Users\jenny\AppData\Local\Temp\ccLg5IEe.s:4187   .text.lwip_setsockopt:00000000 lwip_setsockopt
C:\Users\jenny\AppData\Local\Temp\ccLg5IEe.s:4383   .text.lwip_setsockopt:000000d8 $d
C:\Users\jenny\AppData\Local\Temp\ccLg5IEe.s:4389   .text.lwip_ioctl:00000000 $t
C:\Users\jenny\AppData\Local\Temp\ccLg5IEe.s:4395   .text.lwip_ioctl:00000000 lwip_ioctl
C:\Users\jenny\AppData\Local\Temp\ccLg5IEe.s:4486   .text.lwip_ioctl:00000050 $d
C:\Users\jenny\AppData\Local\Temp\ccLg5IEe.s:4491   .text.lwip_fcntl:00000000 $t
C:\Users\jenny\AppData\Local\Temp\ccLg5IEe.s:4497   .text.lwip_fcntl:00000000 lwip_fcntl
C:\Users\jenny\AppData\Local\Temp\ccLg5IEe.s:4565   .text.lwip_fcntl:00000048 $d
C:\Users\jenny\AppData\Local\Temp\ccLg5IEe.s:4570   .rodata.err_to_errno_table:00000000 $d
C:\Users\jenny\AppData\Local\Temp\ccLg5IEe.s:4574   .rodata.err_to_errno_table:00000000 err_to_errno_table
C:\Users\jenny\AppData\Local\Temp\ccLg5IEe.s:4592   .bss.select_cb_list:00000000 $d
C:\Users\jenny\AppData\Local\Temp\ccLg5IEe.s:4596   .bss.select_cb_list:00000000 select_cb_list
C:\Users\jenny\AppData\Local\Temp\ccLg5IEe.s:4599   .bss.sockets:00000000 $d
C:\Users\jenny\AppData\Local\Temp\ccLg5IEe.s:4603   .bss.sockets:00000000 sockets
C:\Users\jenny\AppData\Local\Temp\ccLg5IEe.s:4606   .bss.select_cb_ctr:00000000 $d
C:\Users\jenny\AppData\Local\Temp\ccLg5IEe.s:4610   .bss.select_cb_ctr:00000000 select_cb_ctr
                     .debug_frame:00000010 $d
C:\Users\jenny\AppData\Local\Temp\ccLg5IEe.s:140    .text.alloc_socket:0000006c $t
C:\Users\jenny\AppData\Local\Temp\ccLg5IEe.s:596    .text.lwip_getsockopt_internal:0000010c $t
C:\Users\jenny\AppData\Local\Temp\ccLg5IEe.s:935    .text.lwip_getaddrname:00000078 $t
C:\Users\jenny\AppData\Local\Temp\ccLg5IEe.s:1146   .text.event_callback:000000f8 $t
C:\Users\jenny\AppData\Local\Temp\ccLg5IEe.s:1460   .text.lwip_accept:00000154 $t
C:\Users\jenny\AppData\Local\Temp\ccLg5IEe.s:1584   .text.lwip_bind:00000078 $t
C:\Users\jenny\AppData\Local\Temp\ccLg5IEe.s:1696   .text.lwip_close:00000058 $t
C:\Users\jenny\AppData\Local\Temp\ccLg5IEe.s:1823   .text.lwip_connect:00000078 $t
C:\Users\jenny\AppData\Local\Temp\ccLg5IEe.s:1935   .text.lwip_listen:00000064 $t
C:\Users\jenny\AppData\Local\Temp\ccLg5IEe.s:2403   .text.lwip_recvfrom:00000238 $t
C:\Users\jenny\AppData\Local\Temp\ccLg5IEe.s:2663   .text.lwip_sendto:000000d8 $t
C:\Users\jenny\AppData\Local\Temp\ccLg5IEe.s:2785   .text.lwip_send:00000078 $t
C:\Users\jenny\AppData\Local\Temp\ccLg5IEe.s:2910   .text.lwip_socket:00000078 $t
C:\Users\jenny\AppData\Local\Temp\ccLg5IEe.s:4180   .text.lwip_getsockopt:000000fc $t
C:\Users\jenny\AppData\Local\Temp\ccLg5IEe.s:4490   .text.lwip_ioctl:00000054 $t
C:\Users\jenny\AppData\Local\Temp\ccLg5IEe.s:4569   .text.lwip_fcntl:0000004c $t
C:\Users\jenny\AppData\Local\Temp\ccLg5IEe.s:997    .text.event_callback:0000002f $d
C:\Users\jenny\AppData\Local\Temp\ccLg5IEe.s:997    .text.event_callback:00000030 $t

UNDEFINED SYMBOLS
port_halt
sys_sem_signal
netconn_getaddr
lwip_htons
memcpy
ARM GAS  C:\Users\jenny\AppData\Local\Temp\ccLg5IEe.s 			page 310


sys_sem_signal_S
netconn_accept
netconn_delete
lwip_ntohs
netconn_bind
netbuf_delete
pbuf_free
netconn_connect
netconn_listen_with_backlog
pbuf_copy_partial
netconn_recved
netconn_recv
netconn_recv_tcp_pbuf
netbuf_ref
netbuf_free
netconn_send
netconn_write_partly
netconn_new_with_proto_and_callback
sys_sem_new
sys_sem_free
sys_arch_sem_wait
netconn_shutdown
tcpip_callback_with_block
