ARM GAS  C:\Users\jenny\AppData\Local\Temp\ccLg5IEe.s 			page 1


   1              		.syntax unified
   2              		.cpu cortex-m4
   3              		.eabi_attribute 27, 3
   4              		.fpu fpv4-sp-d16
   5              		.eabi_attribute 20, 1
   6              		.eabi_attribute 21, 1
   7              		.eabi_attribute 23, 3
   8              		.eabi_attribute 24, 1
   9              		.eabi_attribute 25, 1
  10              		.eabi_attribute 26, 1
  11              		.eabi_attribute 30, 2
  12              		.eabi_attribute 34, 1
  13              		.eabi_attribute 18, 4
  14              		.thumb
  15              		.file	"sockets.c"
  16              		.text
  17              	.Ltext0:
  18              		.cfi_sections	.debug_frame
  19              		.section	.text.alloc_socket,"ax",%progbits
  20              		.align	2
  21              		.p2align 4,,15
  22              		.thumb
  23              		.thumb_func
  24              		.type	alloc_socket, %function
  25              	alloc_socket:
  26              	.LFB10:
  27              		.file 1 "../../ext/lwip/src/api/sockets.c"
  28              		.loc 1 244 0
  29              		.cfi_startproc
  30              		@ args = 0, pretend = 0, frame = 0
  31              		@ frame_needed = 0, uses_anonymous_args = 0
  32              		@ link register save eliminated.
  33              	.LVL0:
  34              		.loc 1 252 0
  35 0000 194B     		ldr	r3, .L12
  36 0002 1A68     		ldr	r2, [r3, #0]
  37              		.loc 1 244 0
  38 0004 F0B4     		push	{r4, r5, r6, r7}
  39              	.LCFI0:
  40              		.cfi_def_cfa_offset 16
  41              		.cfi_offset 4, -16
  42              		.cfi_offset 5, -12
  43              		.cfi_offset 6, -8
  44              		.cfi_offset 7, -4
  45              		.loc 1 244 0
  46 0006 0446     		mov	r4, r0
  47              		.loc 1 252 0
  48 0008 002A     		cmp	r2, #0
  49 000a 28D0     		beq	.L5
  50              	.LVL1:
  51 000c 9869     		ldr	r0, [r3, #24]
  52              	.LVL2:
  53 000e 0028     		cmp	r0, #0
  54 0010 27D0     		beq	.L6
  55              	.LVL3:
  56 0012 1A6B     		ldr	r2, [r3, #48]
  57 0014 32B1     		cbz	r2, .L7
ARM GAS  C:\Users\jenny\AppData\Local\Temp\ccLg5IEe.s 			page 2


  58              	.LVL4:
  59 0016 9A6C     		ldr	r2, [r3, #72]
  60 0018 0320     		movs	r0, #3
  61 001a 22B1     		cbz	r2, .L2
  62              		.loc 1 270 0
  63 001c 4FF0FF30 		mov	r0, #-1
  64              	.LVL5:
  65              	.L3:
  66              		.loc 1 271 0
  67 0020 F0BC     		pop	{r4, r5, r6, r7}
  68 0022 7047     		bx	lr
  69              	.LVL6:
  70              	.L7:
  71              		.loc 1 249 0
  72 0024 0220     		movs	r0, #2
  73              	.LVL7:
  74              	.L2:
  75              		.loc 1 253 0
  76 0026 4600     		lsls	r6, r0, #1
  77 0028 3518     		adds	r5, r6, r0
  78              		.loc 1 262 0
  79 002a 2778     		ldrb	r7, [r4, #0]	@ zero_extendqisi2
  80              		.loc 1 253 0
  81 002c EA00     		lsls	r2, r5, #3
  82 002e 9D18     		adds	r5, r3, r2
  83 0030 9C50     		str	r4, [r3, r2]
  84              		.loc 1 257 0
  85 0032 0024     		movs	r4, #0
  86              	.LVL8:
  87              		.loc 1 262 0
  88 0034 102F     		cmp	r7, #16
  89              		.loc 1 257 0
  90 0036 6C60     		str	r4, [r5, #4]
  91              		.loc 1 258 0
  92 0038 2C81     		strh	r4, [r5, #8]	@ movhi
  93              		.loc 1 259 0
  94 003a 6C81     		strh	r4, [r5, #10]	@ movhi
  95              		.loc 1 262 0
  96 003c 0BD0     		beq	.L11
  97 003e 0121     		movs	r1, #1
  98              	.LVL9:
  99              	.L4:
 100              		.loc 1 262 0 is_stmt 0 discriminator 4
 101 0040 3618     		adds	r6, r6, r0
 102 0042 03EBC603 		add	r3, r3, r6, lsl #3
 103              		.loc 1 263 0 is_stmt 1 discriminator 4
 104 0046 0022     		movs	r2, #0
 105              		.loc 1 262 0 discriminator 4
 106 0048 03F10804 		add	r4, r3, #8
 107 004c 9981     		strh	r1, [r3, #12]	@ movhi
 108              		.loc 1 263 0 discriminator 4
 109 004e DA81     		strh	r2, [r3, #14]	@ movhi
 110              		.loc 1 264 0 discriminator 4
 111 0050 1A61     		str	r2, [r3, #16]
 112              		.loc 1 265 0 discriminator 4
 113 0052 5A61     		str	r2, [r3, #20]
 114              		.loc 1 266 0 discriminator 4
ARM GAS  C:\Users\jenny\AppData\Local\Temp\ccLg5IEe.s 			page 3


 115 0054 E4E7     		b	.L3
 116              	.LVL10:
 117              	.L11:
 118 0056 091B     		subs	r1, r1, r4
 119              	.LVL11:
 120 0058 18BF     		it	ne
 121 005a 0121     		movne	r1, #1
 122 005c F0E7     		b	.L4
 123              	.LVL12:
 124              	.L5:
 125              		.loc 1 249 0
 126 005e 1046     		mov	r0, r2
 127              	.LVL13:
 128 0060 E1E7     		b	.L2
 129              	.LVL14:
 130              	.L6:
 131 0062 0120     		movs	r0, #1
 132 0064 DFE7     		b	.L2
 133              	.L13:
 134 0066 00BF     		.align	2
 135              	.L12:
 136 0068 00000000 		.word	.LANCHOR0
 137              		.cfi_endproc
 138              	.LFE10:
 139              		.size	alloc_socket, .-alloc_socket
 140 006c AFF30080 		.section	.text.lwip_setsockopt_internal,"ax",%progbits
 141              		.align	2
 142              		.p2align 4,,15
 143              		.thumb
 144              		.thumb_func
 145              		.type	lwip_setsockopt_internal, %function
 146              	lwip_setsockopt_internal:
 147              	.LFB34:
 148              		.loc 1 2076 0
 149              		.cfi_startproc
 150              		@ args = 0, pretend = 0, frame = 8
 151              		@ frame_needed = 0, uses_anonymous_args = 0
 152              	.LVL15:
 153 0000 10B5     		push	{r4, lr}
 154              	.LCFI1:
 155              		.cfi_def_cfa_offset 8
 156              		.cfi_offset 4, -8
 157              		.cfi_offset 14, -4
 158 0002 82B0     		sub	sp, sp, #8
 159              	.LCFI2:
 160              		.cfi_def_cfa_offset 16
 161              		.loc 1 2085 0
 162 0004 0028     		cmp	r0, #0
 163 0006 54D0     		beq	.L43
 164              	.LVL16:
 165              	.L15:
 166              		.loc 1 2096 0
 167 0008 4368     		ldr	r3, [r0, #4]
 168              		.loc 1 2088 0
 169 000a 0468     		ldr	r4, [r0, #0]
 170              	.LVL17:
 171              		.loc 1 2093 0
ARM GAS  C:\Users\jenny\AppData\Local\Temp\ccLg5IEe.s 			page 4


 172 000c 8268     		ldr	r2, [r0, #8]
 173              	.LVL18:
 174              		.loc 1 2094 0
 175 000e C168     		ldr	r1, [r0, #12]
 176              	.LVL19:
 177              		.loc 1 2096 0
 178 0010 062B     		cmp	r3, #6
 179 0012 29D0     		beq	.L18
 180 0014 40F6FF70 		movw	r0, #4095
 181              	.LVL20:
 182 0018 8342     		cmp	r3, r0
 183 001a 13D0     		beq	.L19
 184 001c 43B1     		cbz	r3, .L17
 185              	.L39:
 186              		.loc 1 2277 0 discriminator 1
 187 001e FFF7FEFF 		bl	port_halt
 188              	.LVL21:
 189 0022 2068     		ldr	r0, [r4, #0]
 190              	.L24:
 191              		.loc 1 2280 0
 192 0024 0C30     		adds	r0, r0, #12
 193              		.loc 1 2281 0
 194 0026 02B0     		add	sp, sp, #8
 195 0028 BDE81040 		pop	{r4, lr}
 196              		.loc 1 2280 0
 197 002c FFF7FEBF 		b	sys_sem_signal
 198              	.LVL22:
 199              	.L17:
 200              		.loc 1 2153 0
 201 0030 012A     		cmp	r2, #1
 202 0032 2ED0     		beq	.L27
 203 0034 022A     		cmp	r2, #2
 204 0036 F2D1     		bne	.L39
 205              		.loc 1 2155 0
 206 0038 2368     		ldr	r3, [r4, #0]
 207              	.LVL23:
 208 003a 0A68     		ldr	r2, [r1, #0]
 209              	.LVL24:
 210 003c 5968     		ldr	r1, [r3, #4]
 211              	.LVL25:
 212 003e 8A72     		strb	r2, [r1, #10]
 213 0040 2068     		ldr	r0, [r4, #0]
 214              		.loc 1 2158 0
 215 0042 EFE7     		b	.L24
 216              	.LVL26:
 217              	.L19:
 218              		.loc 1 2100 0
 219 0044 202A     		cmp	r2, #32
 220 0046 05D0     		beq	.L21
 221 0048 41F20A00 		movw	r0, #4106
 222 004c 8242     		cmp	r2, r0
 223 004e 26D0     		beq	.L22
 224 0050 082A     		cmp	r2, #8
 225 0052 E4D1     		bne	.L39
 226              	.L21:
 227              		.loc 1 2113 0
 228 0054 0B68     		ldr	r3, [r1, #0]
ARM GAS  C:\Users\jenny\AppData\Local\Temp\ccLg5IEe.s 			page 5


 229              	.LVL27:
 230 0056 002B     		cmp	r3, #0
 231 0058 38D0     		beq	.L23
 232              		.loc 1 2114 0
 233 005a 2068     		ldr	r0, [r4, #0]
 234 005c 4368     		ldr	r3, [r0, #4]
 235 005e 197A     		ldrb	r1, [r3, #8]	@ zero_extendqisi2
 236              	.LVL28:
 237 0060 0A43     		orrs	r2, r2, r1
 238              	.LVL29:
 239 0062 1A72     		strb	r2, [r3, #8]
 240 0064 2068     		ldr	r0, [r4, #0]
 241 0066 DDE7     		b	.L24
 242              	.LVL30:
 243              	.L18:
 244              		.loc 1 2207 0
 245 0068 012A     		cmp	r2, #1
 246 006a 07D0     		beq	.L30
 247 006c 022A     		cmp	r2, #2
 248 006e D6D1     		bne	.L39
 249              		.loc 1 2218 0
 250 0070 2068     		ldr	r0, [r4, #0]
 251              	.LVL31:
 252 0072 0A68     		ldr	r2, [r1, #0]
 253              	.LVL32:
 254 0074 4368     		ldr	r3, [r0, #4]
 255              	.LVL33:
 256 0076 C3F89020 		str	r2, [r3, #144]
 257              		.loc 1 2221 0
 258 007a D3E7     		b	.L24
 259              	.LVL34:
 260              	.L30:
 261              		.loc 1 2209 0
 262 007c 0868     		ldr	r0, [r1, #0]
 263              	.LVL35:
 264 007e 0028     		cmp	r0, #0
 265 0080 2CD0     		beq	.L32
 266              		.loc 1 2210 0
 267 0082 2168     		ldr	r1, [r4, #0]
 268              	.LVL36:
 269 0084 4B68     		ldr	r3, [r1, #4]
 270              	.LVL37:
 271 0086 9A7F     		ldrb	r2, [r3, #30]	@ zero_extendqisi2
 272              	.LVL38:
 273 0088 42F04000 		orr	r0, r2, #64
 274 008c 9877     		strb	r0, [r3, #30]
 275 008e 2068     		ldr	r0, [r4, #0]
 276 0090 C8E7     		b	.L24
 277              	.LVL39:
 278              	.L27:
 279              		.loc 1 2160 0
 280 0092 2068     		ldr	r0, [r4, #0]
 281 0094 0A68     		ldr	r2, [r1, #0]
 282              	.LVL40:
 283 0096 4368     		ldr	r3, [r0, #4]
 284              	.LVL41:
 285 0098 5A72     		strb	r2, [r3, #9]
ARM GAS  C:\Users\jenny\AppData\Local\Temp\ccLg5IEe.s 			page 6


 286 009a 2068     		ldr	r0, [r4, #0]
 287              		.loc 1 2163 0
 288 009c C2E7     		b	.L24
 289              	.LVL42:
 290              	.L22:
 291              		.loc 1 2138 0
 292 009e 0968     		ldr	r1, [r1, #0]
 293              	.LVL43:
 294 00a0 61B1     		cbz	r1, .L25
 295              		.loc 1 2139 0
 296 00a2 2268     		ldr	r2, [r4, #0]
 297              	.LVL44:
 298 00a4 5368     		ldr	r3, [r2, #4]
 299              	.LVL45:
 300 00a6 187C     		ldrb	r0, [r3, #16]	@ zero_extendqisi2
 301 00a8 40F00101 		orr	r1, r0, #1
 302 00ac 1974     		strb	r1, [r3, #16]
 303 00ae 2068     		ldr	r0, [r4, #0]
 304 00b0 B8E7     		b	.L24
 305              	.LVL46:
 306              	.L43:
 307              		.loc 1 2085 0 discriminator 1
 308 00b2 0190     		str	r0, [sp, #4]
 309 00b4 FFF7FEFF 		bl	port_halt
 310              	.LVL47:
 311 00b8 0198     		ldr	r0, [sp, #4]
 312 00ba A5E7     		b	.L15
 313              	.LVL48:
 314              	.L25:
 315              		.loc 1 2141 0
 316 00bc 2268     		ldr	r2, [r4, #0]
 317              	.LVL49:
 318 00be 5368     		ldr	r3, [r2, #4]
 319              	.LVL50:
 320 00c0 187C     		ldrb	r0, [r3, #16]	@ zero_extendqisi2
 321 00c2 20F00101 		bic	r1, r0, #1
 322 00c6 1974     		strb	r1, [r3, #16]
 323 00c8 2068     		ldr	r0, [r4, #0]
 324 00ca ABE7     		b	.L24
 325              	.LVL51:
 326              	.L23:
 327              		.loc 1 2116 0
 328 00cc 2068     		ldr	r0, [r4, #0]
 329 00ce 4368     		ldr	r3, [r0, #4]
 330 00d0 197A     		ldrb	r1, [r3, #8]	@ zero_extendqisi2
 331              	.LVL52:
 332 00d2 21EA0202 		bic	r2, r1, r2
 333              	.LVL53:
 334 00d6 1A72     		strb	r2, [r3, #8]
 335 00d8 2068     		ldr	r0, [r4, #0]
 336 00da A3E7     		b	.L24
 337              	.LVL54:
 338              	.L32:
 339              		.loc 1 2212 0
 340 00dc 2168     		ldr	r1, [r4, #0]
 341              	.LVL55:
 342 00de 4B68     		ldr	r3, [r1, #4]
ARM GAS  C:\Users\jenny\AppData\Local\Temp\ccLg5IEe.s 			page 7


 343              	.LVL56:
 344 00e0 9A7F     		ldrb	r2, [r3, #30]	@ zero_extendqisi2
 345              	.LVL57:
 346 00e2 22F04000 		bic	r0, r2, #64
 347 00e6 9877     		strb	r0, [r3, #30]
 348 00e8 2068     		ldr	r0, [r4, #0]
 349 00ea 9BE7     		b	.L24
 350              		.cfi_endproc
 351              	.LFE34:
 352              		.size	lwip_setsockopt_internal, .-lwip_setsockopt_internal
 353 00ec AFF30080 		.section	.text.lwip_getsockopt_internal,"ax",%progbits
 354              		.align	2
 355              		.p2align 4,,15
 356              		.thumb
 357              		.thumb_func
 358              		.type	lwip_getsockopt_internal, %function
 359              	lwip_getsockopt_internal:
 360              	.LFB32:
 361              		.loc 1 1659 0
 362              		.cfi_startproc
 363              		@ args = 0, pretend = 0, frame = 8
 364              		@ frame_needed = 0, uses_anonymous_args = 0
 365              	.LVL58:
 366 0000 10B5     		push	{r4, lr}
 367              	.LCFI3:
 368              		.cfi_def_cfa_offset 8
 369              		.cfi_offset 4, -8
 370              		.cfi_offset 14, -4
 371 0002 82B0     		sub	sp, sp, #8
 372              	.LCFI4:
 373              		.cfi_def_cfa_offset 16
 374              		.loc 1 1668 0
 375 0004 0028     		cmp	r0, #0
 376 0006 5AD0     		beq	.L90
 377              	.LVL59:
 378              	.L45:
 379              		.loc 1 1679 0
 380 0008 4368     		ldr	r3, [r0, #4]
 381              		.loc 1 1671 0
 382 000a 0468     		ldr	r4, [r0, #0]
 383              	.LVL60:
 384              		.loc 1 1676 0
 385 000c 8268     		ldr	r2, [r0, #8]
 386              	.LVL61:
 387              		.loc 1 1677 0
 388 000e C168     		ldr	r1, [r0, #12]
 389              	.LVL62:
 390              		.loc 1 1679 0
 391 0010 062B     		cmp	r3, #6
 392 0012 23D0     		beq	.L48
 393 0014 40F6FF70 		movw	r0, #4095
 394              	.LVL63:
 395 0018 8342     		cmp	r3, r0
 396 001a 12D0     		beq	.L49
 397 001c 43B1     		cbz	r3, .L47
 398              	.LVL64:
 399              	.L86:
ARM GAS  C:\Users\jenny\AppData\Local\Temp\ccLg5IEe.s 			page 8


 400              		.loc 1 1859 0 discriminator 1
 401 001e FFF7FEFF 		bl	port_halt
 402              	.LVL65:
 403 0022 2068     		ldr	r0, [r4, #0]
 404              	.L56:
 405              		.loc 1 1862 0
 406 0024 0C30     		adds	r0, r0, #12
 407              		.loc 1 1863 0
 408 0026 02B0     		add	sp, sp, #8
 409 0028 BDE81040 		pop	{r4, lr}
 410              		.loc 1 1862 0
 411 002c FFF7FEBF 		b	sys_sem_signal
 412              	.LVL66:
 413              	.L47:
 414              		.loc 1 1762 0
 415 0030 012A     		cmp	r2, #1
 416 0032 24D0     		beq	.L65
 417 0034 022A     		cmp	r2, #2
 418 0036 F2D1     		bne	.L86
 419              		.loc 1 1764 0
 420 0038 2068     		ldr	r0, [r4, #0]
 421 003a 4368     		ldr	r3, [r0, #4]
 422              	.LVL67:
 423 003c 9A7A     		ldrb	r2, [r3, #10]	@ zero_extendqisi2
 424              	.LVL68:
 425 003e 0A60     		str	r2, [r1, #0]
 426              		.loc 1 1767 0
 427 0040 F0E7     		b	.L56
 428              	.LVL69:
 429              	.L49:
 430              		.loc 1 1683 0
 431 0042 202A     		cmp	r2, #32
 432 0044 04D0     		beq	.L51
 433 0046 1FDC     		bgt	.L55
 434 0048 022A     		cmp	r2, #2
 435 004a 01D0     		beq	.L51
 436 004c 082A     		cmp	r2, #8
 437 004e E6D1     		bne	.L86
 438              	.L51:
 439              		.loc 1 1697 0
 440 0050 2068     		ldr	r0, [r4, #0]
 441 0052 4368     		ldr	r3, [r0, #4]
 442              	.LVL70:
 443 0054 1B7A     		ldrb	r3, [r3, #8]	@ zero_extendqisi2
 444 0056 1A40     		ands	r2, r2, r3
 445              	.LVL71:
 446 0058 0A60     		str	r2, [r1, #0]
 447              		.loc 1 1700 0
 448 005a E3E7     		b	.L56
 449              	.LVL72:
 450              	.L48:
 451              		.loc 1 1803 0
 452 005c 012A     		cmp	r2, #1
 453 005e 07D0     		beq	.L68
 454 0060 022A     		cmp	r2, #2
 455 0062 DCD1     		bne	.L86
 456              		.loc 1 1810 0
ARM GAS  C:\Users\jenny\AppData\Local\Temp\ccLg5IEe.s 			page 9


 457 0064 2068     		ldr	r0, [r4, #0]
 458              	.LVL73:
 459 0066 4268     		ldr	r2, [r0, #4]
 460              	.LVL74:
 461 0068 D2F89030 		ldr	r3, [r2, #144]
 462              	.LVL75:
 463 006c 0B60     		str	r3, [r1, #0]
 464              		.loc 1 1813 0
 465 006e D9E7     		b	.L56
 466              	.LVL76:
 467              	.L68:
 468              		.loc 1 1805 0
 469 0070 2068     		ldr	r0, [r4, #0]
 470              	.LVL77:
 471 0072 4268     		ldr	r2, [r0, #4]
 472              	.LVL78:
 473 0074 937F     		ldrb	r3, [r2, #30]	@ zero_extendqisi2
 474              	.LVL79:
 475 0076 C3F38012 		ubfx	r2, r3, #6, #1
 476 007a 0A60     		str	r2, [r1, #0]
 477              		.loc 1 1808 0
 478 007c D2E7     		b	.L56
 479              	.LVL80:
 480              	.L65:
 481              		.loc 1 1769 0
 482 007e 2068     		ldr	r0, [r4, #0]
 483 0080 4368     		ldr	r3, [r0, #4]
 484              	.LVL81:
 485 0082 5A7A     		ldrb	r2, [r3, #9]	@ zero_extendqisi2
 486              	.LVL82:
 487 0084 0A60     		str	r2, [r1, #0]
 488              		.loc 1 1772 0
 489 0086 CDE7     		b	.L56
 490              	.LVL83:
 491              	.L55:
 492              		.loc 1 1683 0
 493 0088 41F20800 		movw	r0, #4104
 494 008c 8242     		cmp	r2, r0
 495 008e 1BD0     		beq	.L53
 496 0090 831C     		adds	r3, r0, #2
 497              	.LVL84:
 498 0092 9A42     		cmp	r2, r3
 499 0094 0CD0     		beq	.L54
 500 0096 41F20700 		movw	r0, #4103
 501 009a 8242     		cmp	r2, r0
 502 009c BFD1     		bne	.L86
 503              		.loc 1 1725 0
 504 009e 2369     		ldr	r3, [r4, #16]
 505              		.loc 1 1726 0
 506 00a0 2068     		ldr	r0, [r4, #0]
 507              		.loc 1 1725 0
 508 00a2 03B3     		cbz	r3, .L61
 509              		.loc 1 1725 0 is_stmt 0 discriminator 1
 510 00a4 732B     		cmp	r3, #115
 511 00a6 1ED0     		beq	.L61
 512              	.LVL85:
 513              	.L62:
ARM GAS  C:\Users\jenny\AppData\Local\Temp\ccLg5IEe.s 			page 10


 514              		.loc 1 1728 0 is_stmt 1
 515 00a8 0B60     		str	r3, [r1, #0]
 516              		.loc 1 1729 0
 517 00aa 0021     		movs	r1, #0
 518              	.LVL86:
 519 00ac 2161     		str	r1, [r4, #16]
 520              		.loc 1 1732 0
 521 00ae B9E7     		b	.L56
 522              	.LVL87:
 523              	.L54:
 524              		.loc 1 1751 0
 525 00b0 2068     		ldr	r0, [r4, #0]
 526 00b2 4268     		ldr	r2, [r0, #4]
 527              	.LVL88:
 528 00b4 137C     		ldrb	r3, [r2, #16]	@ zero_extendqisi2
 529 00b6 03F00102 		and	r2, r3, #1
 530 00ba 0A60     		str	r2, [r1, #0]
 531              		.loc 1 1752 0
 532 00bc B2E7     		b	.L56
 533              	.LVL89:
 534              	.L90:
 535              		.loc 1 1668 0 discriminator 1
 536 00be 0190     		str	r0, [sp, #4]
 537 00c0 FFF7FEFF 		bl	port_halt
 538              	.LVL90:
 539 00c4 0198     		ldr	r0, [sp, #4]
 540 00c6 9FE7     		b	.L45
 541              	.LVL91:
 542              	.L53:
 543              		.loc 1 1703 0
 544 00c8 2068     		ldr	r0, [r4, #0]
 545 00ca 0278     		ldrb	r2, [r0, #0]	@ zero_extendqisi2
 546              	.LVL92:
 547 00cc 02F0F003 		and	r3, r2, #240
 548              	.LVL93:
 549 00d0 202B     		cmp	r3, #32
 550 00d2 05D0     		beq	.L59
 551 00d4 402B     		cmp	r3, #64
 552 00d6 14D0     		beq	.L60
 553 00d8 102B     		cmp	r3, #16
 554 00da 0FD0     		beq	.L91
 555              		.loc 1 1714 0
 556 00dc 0A60     		str	r2, [r1, #0]
 557 00de A1E7     		b	.L56
 558              	.L59:
 559              		.loc 1 1711 0
 560 00e0 0222     		movs	r2, #2
 561 00e2 0A60     		str	r2, [r1, #0]
 562              		.loc 1 1712 0
 563 00e4 9EE7     		b	.L56
 564              	.LVL94:
 565              	.L61:
 566              		.loc 1 1726 0
 567 00e6 90F90830 		ldrsb	r3, [r0, #8]
 568 00ea 5B42     		negs	r3, r3
 569 00ec 0F2B     		cmp	r3, #15
 570 00ee 9ABF     		itte	ls
ARM GAS  C:\Users\jenny\AppData\Local\Temp\ccLg5IEe.s 			page 11


 571 00f0 054A     		ldrls	r2, .L92
 572              	.LVL95:
 573 00f2 52F82330 		ldrls	r3, [r2, r3, lsl #2]
 574 00f6 0523     		movhi	r3, #5
 575 00f8 2361     		str	r3, [r4, #16]
 576 00fa D5E7     		b	.L62
 577              	.L91:
 578              		.loc 1 1708 0
 579 00fc 0122     		movs	r2, #1
 580 00fe 0A60     		str	r2, [r1, #0]
 581              		.loc 1 1709 0
 582 0100 90E7     		b	.L56
 583              	.L60:
 584              		.loc 1 1705 0
 585 0102 0323     		movs	r3, #3
 586 0104 0B60     		str	r3, [r1, #0]
 587              		.loc 1 1706 0
 588 0106 8DE7     		b	.L56
 589              	.L93:
 590              		.align	2
 591              	.L92:
 592 0108 00000000 		.word	.LANCHOR1
 593              		.cfi_endproc
 594              	.LFE32:
 595              		.size	lwip_getsockopt_internal, .-lwip_getsockopt_internal
 596 010c AFF30080 		.section	.text.lwip_selscan,"ax",%progbits
 597              		.align	2
 598              		.p2align 4,,15
 599              		.thumb
 600              		.thumb_func
 601              		.type	lwip_selscan, %function
 602              	lwip_selscan:
 603              	.LFB24:
 604              		.loc 1 1028 0
 605              		.cfi_startproc
 606              		@ args = 12, pretend = 0, frame = 24
 607              		@ frame_needed = 0, uses_anonymous_args = 0
 608              		@ link register save eliminated.
 609              	.LVL96:
 610 0000 2DE9F00F 		push	{r4, r5, r6, r7, r8, r9, sl, fp}
 611              	.LCFI5:
 612              		.cfi_def_cfa_offset 32
 613              		.cfi_offset 4, -32
 614              		.cfi_offset 5, -28
 615              		.cfi_offset 6, -24
 616              		.cfi_offset 7, -20
 617              		.cfi_offset 8, -16
 618              		.cfi_offset 9, -12
 619              		.cfi_offset 10, -8
 620              		.cfi_offset 11, -4
 621 0004 86B0     		sub	sp, sp, #24
 622              	.LCFI6:
 623              		.cfi_def_cfa_offset 56
 624              		.loc 1 1034 0
 625 0006 0026     		movs	r6, #0
 626              		.loc 1 1040 0
 627 0008 B0F1000B 		subs	fp, r0, #0
ARM GAS  C:\Users\jenny\AppData\Local\Temp\ccLg5IEe.s 			page 12


 628              		.loc 1 1034 0
 629 000c 8DF80C60 		strb	r6, [sp, #12]
 630              		.loc 1 1035 0
 631 0010 8DF81060 		strb	r6, [sp, #16]
 632              		.loc 1 1036 0
 633 0014 8DF81460 		strb	r6, [sp, #20]
 634              	.LVL97:
 635              		.loc 1 1040 0
 636 0018 3046     		mov	r0, r6
 637              	.LVL98:
 638 001a 6DDD     		ble	.L95
 639 001c 3446     		mov	r4, r6
 640              	.LVL99:
 641              	.L101:
 642              	.LBB45:
 643              	.LBB46:
 644              	.LBB47:
 645              		.loc 1 225 0
 646 001e 032C     		cmp	r4, #3
 647 0020 7AD8     		bhi	.L103
 648              		.loc 1 228 0
 649 0022 40F20007 		movw	r7, #:lower16:.LANCHOR0
 650 0026 C0F20007 		movt	r7, #:upper16:.LANCHOR0
 651 002a F559     		ldr	r5, [r6, r7]
 652 002c 002D     		cmp	r5, #0
 653 002e 78D0     		beq	.L104
 654              		.loc 1 231 0
 655 0030 04EB4405 		add	r5, r4, r4, lsl #1
 656 0034 07EBC505 		add	r5, r7, r5, lsl #3
 657              	.LBE47:
 658              	.LBE46:
 659              		.loc 1 1050 0
 660 0038 B5F80A80 		ldrh	r8, [r5, #10]
 661              		.loc 1 1049 0
 662 003c D5F804A0 		ldr	sl, [r5, #4]
 663              	.LVL100:
 664              		.loc 1 1051 0
 665 0040 B5F80C90 		ldrh	r9, [r5, #12]
 666              		.loc 1 1052 0
 667 0044 ED89     		ldrh	r5, [r5, #14]
 668              		.loc 1 1050 0
 669 0046 CDF80480 		str	r8, [sp, #4]
 670              	.LVL101:
 671              	.L96:
 672              		.loc 1 1057 0
 673 004a D9B1     		cbz	r1, .L97
 674              		.loc 1 1057 0 is_stmt 0 discriminator 1
 675 004c 4FEAE40C 		asr	ip, r4, #3
 676 0050 04F00707 		and	r7, r4, #7
 677 0054 11F80C80 		ldrb	r8, [r1, ip]	@ zero_extendqisi2
 678 0058 48FA07F8 		asr	r8, r8, r7
 679 005c 18F0010F 		tst	r8, #1
 680 0060 10D0     		beq	.L97
 681 0062 BAF1000F 		cmp	sl, #0
 682 0066 60D0     		beq	.L130
 683              	.LVL102:
 684              	.L98:
ARM GAS  C:\Users\jenny\AppData\Local\Temp\ccLg5IEe.s 			page 13


 685              		.loc 1 1058 0 is_stmt 1
 686 0068 0DF1180A 		add	sl, sp, #24
 687 006c D444     		add	ip, sl, ip
 688 006e 4FF0010A 		mov	sl, #1
 689 0072 1CF80C8C 		ldrb	r8, [ip, #-12]	@ zero_extendqisi2
 690 0076 0AFA07F7 		lsl	r7, sl, r7
 691 007a 47EA0807 		orr	r7, r7, r8
 692 007e 0CF80C7C 		strb	r7, [ip, #-12]
 693              		.loc 1 1060 0
 694 0082 5044     		add	r0, r0, sl
 695              	.LVL103:
 696              	.L97:
 697              		.loc 1 1063 0
 698 0084 DAB1     		cbz	r2, .L99
 699              		.loc 1 1063 0 is_stmt 0 discriminator 1
 700 0086 4FEAE40C 		asr	ip, r4, #3
 701 008a 04F00707 		and	r7, r4, #7
 702 008e 12F80C80 		ldrb	r8, [r2, ip]	@ zero_extendqisi2
 703 0092 48FA07F8 		asr	r8, r8, r7
 704 0096 18F0010F 		tst	r8, #1
 705 009a 10D0     		beq	.L99
 706 009c B9F1000F 		cmp	r9, #0
 707 00a0 0DD0     		beq	.L99
 708              		.loc 1 1064 0 is_stmt 1
 709 00a2 0DF1180A 		add	sl, sp, #24
 710 00a6 D444     		add	ip, sl, ip
 711 00a8 4FF0010A 		mov	sl, #1
 712 00ac 1CF8088C 		ldrb	r8, [ip, #-8]	@ zero_extendqisi2
 713 00b0 0AFA07F7 		lsl	r7, sl, r7
 714 00b4 47EA0807 		orr	r7, r7, r8
 715 00b8 0CF8087C 		strb	r7, [ip, #-8]
 716              		.loc 1 1066 0
 717 00bc 5044     		add	r0, r0, sl
 718              	.LVL104:
 719              	.L99:
 720              		.loc 1 1069 0
 721 00be BBB1     		cbz	r3, .L100
 722              		.loc 1 1069 0 is_stmt 0 discriminator 1
 723 00c0 4FEAE40C 		asr	ip, r4, #3
 724 00c4 04F00707 		and	r7, r4, #7
 725 00c8 13F80C80 		ldrb	r8, [r3, ip]	@ zero_extendqisi2
 726 00cc 48FA07F8 		asr	r8, r8, r7
 727 00d0 18F0010F 		tst	r8, #1
 728 00d4 0CD0     		beq	.L100
 729 00d6 5DB1     		cbz	r5, .L100
 730              		.loc 1 1070 0 is_stmt 1
 731 00d8 06AD     		add	r5, sp, #24
 732              	.LVL105:
 733 00da AC44     		add	ip, r5, ip
 734 00dc 4FF00108 		mov	r8, #1
 735 00e0 1CF8045C 		ldrb	r5, [ip, #-4]	@ zero_extendqisi2
 736 00e4 08FA07F7 		lsl	r7, r8, r7
 737 00e8 2F43     		orrs	r7, r7, r5
 738 00ea 0CF8047C 		strb	r7, [ip, #-4]
 739              		.loc 1 1072 0
 740 00ee 4044     		add	r0, r0, r8
 741              	.LVL106:
ARM GAS  C:\Users\jenny\AppData\Local\Temp\ccLg5IEe.s 			page 14


 742              	.L100:
 743              	.LBE45:
 744              		.loc 1 1040 0
 745 00f0 0134     		adds	r4, r4, #1
 746              	.LVL107:
 747 00f2 1836     		adds	r6, r6, #24
 748 00f4 5C45     		cmp	r4, fp
 749 00f6 92D1     		bne	.L101
 750              	.LVL108:
 751              	.L95:
 752              		.loc 1 1076 0
 753 00f8 0E9B     		ldr	r3, [sp, #56]
 754              	.LVL109:
 755 00fa 9DF80C40 		ldrb	r4, [sp, #12]	@ zero_extendqisi2
 756              		.loc 1 1077 0
 757 00fe 9DF81010 		ldrb	r1, [sp, #16]	@ zero_extendqisi2
 758              	.LVL110:
 759              		.loc 1 1076 0
 760 0102 1C70     		strb	r4, [r3, #0]
 761              		.loc 1 1077 0
 762 0104 0F9B     		ldr	r3, [sp, #60]
 763              		.loc 1 1078 0
 764 0106 9DF81420 		ldrb	r2, [sp, #20]	@ zero_extendqisi2
 765              	.LVL111:
 766              		.loc 1 1077 0
 767 010a 1970     		strb	r1, [r3, #0]
 768              		.loc 1 1078 0
 769 010c 1099     		ldr	r1, [sp, #64]
 770 010e 0A70     		strb	r2, [r1, #0]
 771              		.loc 1 1082 0
 772 0110 06B0     		add	sp, sp, #24
 773 0112 BDE8F00F 		pop	{r4, r5, r6, r7, r8, r9, sl, fp}
 774 0116 7047     		bx	lr
 775              	.LVL112:
 776              	.L103:
 777              	.LBB50:
 778              	.LBB49:
 779              	.LBB48:
 780              		.loc 1 1044 0
 781 0118 0025     		movs	r5, #0
 782              		.loc 1 1043 0
 783 011a A946     		mov	r9, r5
 784              		.loc 1 1042 0
 785 011c 0195     		str	r5, [sp, #4]
 786              		.loc 1 1041 0
 787 011e AA46     		mov	sl, r5
 788 0120 93E7     		b	.L96
 789              	.L104:
 790              		.loc 1 1043 0
 791 0122 A946     		mov	r9, r5
 792              		.loc 1 1042 0
 793 0124 0195     		str	r5, [sp, #4]
 794              		.loc 1 1041 0
 795 0126 AA46     		mov	sl, r5
 796 0128 8FE7     		b	.L96
 797              	.LVL113:
 798              	.L130:
ARM GAS  C:\Users\jenny\AppData\Local\Temp\ccLg5IEe.s 			page 15


 799              	.LBE48:
 800              	.LBE49:
 801              		.loc 1 1057 0 discriminator 1
 802 012a DDF804A0 		ldr	sl, [sp, #4]
 803              	.LVL114:
 804 012e 0FFA8AF8 		sxth	r8, sl
 805 0132 B8F1000F 		cmp	r8, #0
 806 0136 97DC     		bgt	.L98
 807 0138 A4E7     		b	.L97
 808              	.LBE50:
 809              		.cfi_endproc
 810              	.LFE24:
 811              		.size	lwip_selscan, .-lwip_selscan
 812 013a 00BFAFF3 		.section	.text.lwip_getaddrname,"ax",%progbits
 812      0080
 813              		.align	2
 814              		.p2align 4,,15
 815              		.thumb
 816              		.thumb_func
 817              		.type	lwip_getaddrname, %function
 818              	lwip_getaddrname:
 819              	.LFB28:
 820              		.loc 1 1412 0
 821              		.cfi_startproc
 822              		@ args = 0, pretend = 0, frame = 24
 823              		@ frame_needed = 0, uses_anonymous_args = 0
 824              	.LVL115:
 825 0000 2DE9F041 		push	{r4, r5, r6, r7, r8, lr}
 826              	.LCFI7:
 827              		.cfi_def_cfa_offset 24
 828              		.cfi_offset 4, -24
 829              		.cfi_offset 5, -20
 830              		.cfi_offset 6, -16
 831              		.cfi_offset 7, -12
 832              		.cfi_offset 8, -8
 833              		.cfi_offset 14, -4
 834              	.LBB51:
 835              	.LBB52:
 836              		.loc 1 199 0
 837 0004 0328     		cmp	r0, #3
 838              	.LBE52:
 839              	.LBE51:
 840              		.loc 1 1412 0
 841 0006 86B0     		sub	sp, sp, #24
 842              	.LCFI8:
 843              		.cfi_def_cfa_offset 48
 844              		.loc 1 1412 0
 845 0008 0D46     		mov	r5, r1
 846 000a 1646     		mov	r6, r2
 847              	.LBB55:
 848              	.LBB53:
 849              		.loc 1 199 0
 850 000c 2CD8     		bhi	.L137
 851              		.loc 1 205 0
 852 000e 00EB4000 		add	r0, r0, r0, lsl #1
 853              	.LVL116:
 854 0012 184A     		ldr	r2, .L140
ARM GAS  C:\Users\jenny\AppData\Local\Temp\ccLg5IEe.s 			page 16


 855              	.LVL117:
 856 0014 C100     		lsls	r1, r0, #3
 857              	.LVL118:
 858 0016 02EB0108 		add	r8, r2, r1
 859              	.LVL119:
 860              		.loc 1 207 0
 861 001a 5058     		ldr	r0, [r2, r1]
 862 001c 20B3     		cbz	r0, .L137
 863              	.LBE53:
 864              	.LBE55:
 865              		.loc 1 1422 0
 866 001e 0024     		movs	r4, #0
 867 0020 0294     		str	r4, [sp, #8]
 868              		.loc 1 1427 0
 869 0022 0DF10A02 		add	r2, sp, #10
 870 0026 01A9     		add	r1, sp, #4
 871              		.loc 1 1423 0
 872 0028 1027     		movs	r7, #16
 873              		.loc 1 1422 0
 874 002a 0394     		str	r4, [sp, #12]
 875 002c 0494     		str	r4, [sp, #16]
 876 002e 0594     		str	r4, [sp, #20]
 877              		.loc 1 1424 0
 878 0030 0224     		movs	r4, #2
 879              		.loc 1 1423 0
 880 0032 8DF80870 		strb	r7, [sp, #8]
 881              		.loc 1 1424 0
 882 0036 8DF80940 		strb	r4, [sp, #9]
 883              		.loc 1 1427 0
 884 003a FFF7FEFF 		bl	netconn_getaddr
 885              	.LVL120:
 886              		.loc 1 1433 0
 887 003e BDF80A00 		ldrh	r0, [sp, #10]
 888 0042 FFF7FEFF 		bl	lwip_htons
 889              	.LVL121:
 890              		.loc 1 1436 0
 891 0046 3268     		ldr	r2, [r6, #0]
 892              		.loc 1 1434 0
 893 0048 019B     		ldr	r3, [sp, #4]
 894              		.loc 1 1433 0
 895 004a ADF80A00 		strh	r0, [sp, #10]	@ movhi
 896              		.loc 1 1436 0
 897 004e BA42     		cmp	r2, r7
 898              		.loc 1 1434 0
 899 0050 0393     		str	r3, [sp, #12]
 900              		.loc 1 1436 0
 901 0052 01D9     		bls	.L135
 902              		.loc 1 1437 0
 903 0054 3760     		str	r7, [r6, #0]
 904 0056 3A46     		mov	r2, r7
 905              	.L135:
 906              		.loc 1 1440 0
 907 0058 2846     		mov	r0, r5
 908 005a 02A9     		add	r1, sp, #8
 909 005c FFF7FEFF 		bl	memcpy
 910              	.LVL122:
 911              		.loc 1 1441 0
ARM GAS  C:\Users\jenny\AppData\Local\Temp\ccLg5IEe.s 			page 17


 912 0060 0020     		movs	r0, #0
 913 0062 C8F81000 		str	r0, [r8, #16]
 914 0066 01E0     		b	.L139
 915              	.LVL123:
 916              	.L137:
 917              	.LBB56:
 918              	.LBB54:
 919              		.loc 1 1419 0
 920 0068 4FF0FF30 		mov	r0, #-1
 921              	.LVL124:
 922              	.L139:
 923              	.LBE54:
 924              	.LBE56:
 925              		.loc 1 1443 0
 926 006c 06B0     		add	sp, sp, #24
 927 006e BDE8F081 		pop	{r4, r5, r6, r7, r8, pc}
 928              	.L141:
 929 0072 00BF     		.align	2
 930              	.L140:
 931 0074 00000000 		.word	.LANCHOR0
 932              		.cfi_endproc
 933              	.LFE28:
 934              		.size	lwip_getaddrname, .-lwip_getaddrname
 935 0078 AFF30080 		.section	.text.event_callback,"ax",%progbits
 935      AFF30080 
 936              		.align	2
 937              		.p2align 4,,15
 938              		.thumb
 939              		.thumb_func
 940              		.type	event_callback, %function
 941              	event_callback:
 942              	.LFB26:
 943              		.loc 1 1248 0
 944              		.cfi_startproc
 945              		@ args = 0, pretend = 0, frame = 0
 946              		@ frame_needed = 0, uses_anonymous_args = 0
 947              	.LVL125:
 948 0000 2DE9F843 		push	{r3, r4, r5, r6, r7, r8, r9, lr}
 949              	.LCFI9:
 950              		.cfi_def_cfa_offset 32
 951              		.cfi_offset 3, -32
 952              		.cfi_offset 4, -28
 953              		.cfi_offset 5, -24
 954              		.cfi_offset 6, -20
 955              		.cfi_offset 7, -16
 956              		.cfi_offset 8, -12
 957              		.cfi_offset 9, -8
 958              		.cfi_offset 14, -4
 959              		.loc 1 1258 0
 960 0004 B0B1     		cbz	r0, .L142
 961              		.loc 1 1259 0
 962 0006 8469     		ldr	r4, [r0, #24]
 963              	.LVL126:
 964              		.loc 1 1260 0
 965 0008 002C     		cmp	r4, #0
 966 000a 11DB     		blt	.L190
 967              	.LVL127:
ARM GAS  C:\Users\jenny\AppData\Local\Temp\ccLg5IEe.s 			page 18


 968              	.LBB57:
 969              	.LBB58:
 970              		.loc 1 199 0
 971 000c 032C     		cmp	r4, #3
 972 000e 11D8     		bhi	.L142
 973              		.loc 1 205 0
 974 0010 04EB4403 		add	r3, r4, r4, lsl #1
 975 0014 354A     		ldr	r2, .L193
 976              	.LVL128:
 977 0016 D800     		lsls	r0, r3, #3
 978              	.LVL129:
 979 0018 02EB0008 		add	r8, r2, r0
 980              	.LVL130:
 981              		.loc 1 207 0
 982 001c 1358     		ldr	r3, [r2, r0]
 983 001e 002B     		cmp	r3, #0
 984 0020 5DD0     		beq	.L191
 985              	.LBE58:
 986              	.LBE57:
 987              		.loc 1 1288 0
 988 0022 0429     		cmp	r1, #4
 989 0024 52D8     		bhi	.L154
 990 0026 DFE801F0 		tbb	[pc, r1]
 991              	.L161:
 992 002a 3D       		.byte	(.L148-.L161)/2
 993 002b 47       		.byte	(.L150-.L161)/2
 994 002c 43       		.byte	(.L151-.L161)/2
 995 002d 4D       		.byte	(.L152-.L161)/2
 996 002e 07       		.byte	(.L153-.L161)/2
 997 002f 00       		.align	1
 998              	.LVL131:
 999              	.L190:
 1000              		.loc 1 1268 0
 1001 0030 0029     		cmp	r1, #0
 1002 0032 56D0     		beq	.L192
 1003              	.LVL132:
 1004              	.L142:
 1005 0034 BDE8F883 		pop	{r3, r4, r5, r6, r7, r8, r9, pc}
 1006              	.LVL133:
 1007              	.L153:
 1008              		.loc 1 1302 0
 1009 0038 0121     		movs	r1, #1
 1010              	.LVL134:
 1011 003a A8F80E10 		strh	r1, [r8, #14]	@ movhi
 1012              	.L149:
 1013              		.loc 1 1309 0
 1014 003e D8F81430 		ldr	r3, [r8, #20]
 1015 0042 002B     		cmp	r3, #0
 1016 0044 F6D0     		beq	.L142
 1017 0046 0126     		movs	r6, #1
 1018 0048 294F     		ldr	r7, .L193+4
 1019 004a 2A4D     		ldr	r5, .L193+8
 1020 004c 06FA04F9 		lsl	r9, r6, r4
 1021              	.LVL135:
 1022              	.L159:
 1023              		.loc 1 1322 0
 1024 0050 3C68     		ldr	r4, [r7, #0]
ARM GAS  C:\Users\jenny\AppData\Local\Temp\ccLg5IEe.s 			page 19


 1025              	.LVL136:
 1026 0052 002C     		cmp	r4, #0
 1027 0054 EED0     		beq	.L142
 1028              	.L160:
 1029              		.loc 1 1323 0
 1030 0056 6169     		ldr	r1, [r4, #20]
 1031 0058 D9B9     		cbnz	r1, .L155
 1032              	.LVL137:
 1033              	.LBB59:
 1034              		.loc 1 1327 0
 1035 005a B8F90A20 		ldrsh	r2, [r8, #10]
 1036 005e 002A     		cmp	r2, #0
 1037 0060 05DD     		ble	.L156
 1038              		.loc 1 1328 0
 1039 0062 A068     		ldr	r0, [r4, #8]
 1040 0064 18B1     		cbz	r0, .L156
 1041              		.loc 1 1328 0 is_stmt 0 discriminator 1
 1042 0066 0378     		ldrb	r3, [r0, #0]	@ zero_extendqisi2
 1043 0068 13EA090F 		tst	r3, r9
 1044 006c 31D1     		bne	.L157
 1045              	.L156:
 1046              		.loc 1 1332 0 is_stmt 1
 1047 006e B8F80C10 		ldrh	r1, [r8, #12]
 1048 0072 29B1     		cbz	r1, .L189
 1049              		.loc 1 1333 0 discriminator 1
 1050 0074 E268     		ldr	r2, [r4, #12]
 1051 0076 1AB1     		cbz	r2, .L189
 1052 0078 1078     		ldrb	r0, [r2, #0]	@ zero_extendqisi2
 1053 007a 19EA000F 		tst	r9, r0
 1054 007e 28D1     		bne	.L157
 1055              	.L189:
 1056              		.loc 1 1337 0
 1057 0080 B8F80E30 		ldrh	r3, [r8, #14]
 1058 0084 2BB1     		cbz	r3, .L155
 1059              		.loc 1 1338 0 discriminator 1
 1060 0086 2169     		ldr	r1, [r4, #16]
 1061 0088 19B1     		cbz	r1, .L155
 1062 008a 0A78     		ldrb	r2, [r1, #0]	@ zero_extendqisi2
 1063 008c 19EA020F 		tst	r9, r2
 1064 0090 1FD1     		bne	.L157
 1065              	.LVL138:
 1066              	.L155:
 1067              	.LBE59:
 1068              		.loc 1 1353 0
 1069 0092 2868     		ldr	r0, [r5, #0]
 1070              	.LVL139:
 1071              		.loc 1 1357 0
 1072 0094 2B68     		ldr	r3, [r5, #0]
 1073 0096 9842     		cmp	r0, r3
 1074 0098 DAD1     		bne	.L159
 1075              		.loc 1 1322 0
 1076 009a 2468     		ldr	r4, [r4, #0]
 1077              	.LVL140:
 1078 009c 002C     		cmp	r4, #0
 1079 009e DAD1     		bne	.L160
 1080 00a0 BDE8F883 		pop	{r3, r4, r5, r6, r7, r8, r9, pc}
 1081              	.LVL141:
ARM GAS  C:\Users\jenny\AppData\Local\Temp\ccLg5IEe.s 			page 20


 1082              	.L148:
 1083              		.loc 1 1290 0
 1084 00a4 B8F80A20 		ldrh	r2, [r8, #10]
 1085 00a8 501C     		adds	r0, r2, #1
 1086 00aa A8F80A00 		strh	r0, [r8, #10]	@ movhi
 1087              		.loc 1 1291 0
 1088 00ae C6E7     		b	.L149
 1089              	.L151:
 1090              		.loc 1 1296 0
 1091 00b0 0120     		movs	r0, #1
 1092 00b2 A8F80C00 		strh	r0, [r8, #12]	@ movhi
 1093              		.loc 1 1297 0
 1094 00b6 C2E7     		b	.L149
 1095              	.L150:
 1096              		.loc 1 1293 0
 1097 00b8 B8F80A30 		ldrh	r3, [r8, #10]
 1098 00bc 591E     		subs	r1, r3, #1
 1099              	.LVL142:
 1100 00be A8F80A10 		strh	r1, [r8, #10]	@ movhi
 1101              		.loc 1 1294 0
 1102 00c2 BCE7     		b	.L149
 1103              	.LVL143:
 1104              	.L152:
 1105              		.loc 1 1299 0
 1106 00c4 0022     		movs	r2, #0
 1107 00c6 A8F80C20 		strh	r2, [r8, #12]	@ movhi
 1108              		.loc 1 1300 0
 1109 00ca B8E7     		b	.L149
 1110              	.L154:
 1111              		.loc 1 1305 0 discriminator 1
 1112 00cc FFF7FEFF 		bl	port_halt
 1113              	.LVL144:
 1114              		.loc 1 1306 0 discriminator 1
 1115 00d0 B5E7     		b	.L149
 1116              	.LVL145:
 1117              	.L157:
 1118              	.LBB60:
 1119              		.loc 1 1343 0
 1120 00d2 6661     		str	r6, [r4, #20]
 1121              		.loc 1 1349 0
 1122 00d4 04F11800 		add	r0, r4, #24
 1123 00d8 FFF7FEFF 		bl	sys_sem_signal_S
 1124              	.LVL146:
 1125 00dc D9E7     		b	.L155
 1126              	.LVL147:
 1127              	.L191:
 1128 00de BDE8F883 		pop	{r3, r4, r5, r6, r7, r8, r9, pc}
 1129              	.LVL148:
 1130              	.L192:
 1131              	.LBE60:
 1132              		.loc 1 1269 0
 1133 00e2 013C     		subs	r4, r4, #1
 1134              	.LVL149:
 1135 00e4 8461     		str	r4, [r0, #24]
 1136 00e6 BDE8F883 		pop	{r3, r4, r5, r6, r7, r8, r9, pc}
 1137              	.L194:
 1138 00ea 00BF     		.align	2
ARM GAS  C:\Users\jenny\AppData\Local\Temp\ccLg5IEe.s 			page 21


 1139              	.L193:
 1140 00ec 00000000 		.word	.LANCHOR0
 1141 00f0 00000000 		.word	.LANCHOR2
 1142 00f4 00000000 		.word	.LANCHOR3
 1143              		.cfi_endproc
 1144              	.LFE26:
 1145              		.size	event_callback, .-event_callback
 1146 00f8 AFF30080 		.section	.text.lwip_socket_init,"ax",%progbits
 1146      AFF30080 
 1147              		.align	2
 1148              		.p2align 4,,15
 1149              		.global	lwip_socket_init
 1150              		.thumb
 1151              		.thumb_func
 1152              		.type	lwip_socket_init, %function
 1153              	lwip_socket_init:
 1154              	.LFB7:
 1155              		.loc 1 185 0
 1156              		.cfi_startproc
 1157              		@ args = 0, pretend = 0, frame = 0
 1158              		@ frame_needed = 0, uses_anonymous_args = 0
 1159              		@ link register save eliminated.
 1160 0000 7047     		bx	lr
 1161              		.cfi_endproc
 1162              	.LFE7:
 1163              		.size	lwip_socket_init, .-lwip_socket_init
 1164 0002 00BFAFF3 		.section	.text.lwip_accept,"ax",%progbits
 1164      0080AFF3 
 1164      0080AFF3 
 1164      0080
 1165              		.align	2
 1166              		.p2align 4,,15
 1167              		.global	lwip_accept
 1168              		.thumb
 1169              		.thumb_func
 1170              		.type	lwip_accept, %function
 1171              	lwip_accept:
 1172              	.LFB12:
 1173              		.loc 1 313 0
 1174              		.cfi_startproc
 1175              		@ args = 0, pretend = 0, frame = 40
 1176              		@ frame_needed = 0, uses_anonymous_args = 0
 1177              	.LVL150:
 1178              		.loc 1 313 0
 1179 0000 2DE9F041 		push	{r4, r5, r6, r7, r8, lr}
 1180              	.LCFI10:
 1181              		.cfi_def_cfa_offset 24
 1182              		.cfi_offset 4, -24
 1183              		.cfi_offset 5, -20
 1184              		.cfi_offset 6, -16
 1185              		.cfi_offset 7, -12
 1186              		.cfi_offset 8, -8
 1187              		.cfi_offset 14, -4
 1188              	.LBB61:
 1189              	.LBB62:
 1190              		.loc 1 199 0
 1191 0004 0328     		cmp	r0, #3
ARM GAS  C:\Users\jenny\AppData\Local\Temp\ccLg5IEe.s 			page 22


 1192              	.LBE62:
 1193              	.LBE61:
 1194              		.loc 1 313 0
 1195 0006 8AB0     		sub	sp, sp, #40
 1196              	.LCFI11:
 1197              		.cfi_def_cfa_offset 64
 1198              		.loc 1 313 0
 1199 0008 0F46     		mov	r7, r1
 1200 000a 1446     		mov	r4, r2
 1201              	.LBB65:
 1202              	.LBB63:
 1203              		.loc 1 199 0
 1204 000c 1AD8     		bhi	.L214
 1205              		.loc 1 205 0
 1206 000e 00EB4000 		add	r0, r0, r0, lsl #1
 1207              	.LVL151:
 1208 0012 4D4E     		ldr	r6, .L228
 1209 0014 C100     		lsls	r1, r0, #3
 1210              	.LVL152:
 1211 0016 7518     		adds	r5, r6, r1
 1212              	.LVL153:
 1213              		.loc 1 207 0
 1214 0018 7058     		ldr	r0, [r6, r1]
 1215 001a 98B1     		cbz	r0, .L214
 1216              	.LBE63:
 1217              	.LBE65:
 1218              		.loc 1 329 0
 1219 001c 037F     		ldrb	r3, [r0, #28]	@ zero_extendqisi2
 1220 001e 03F00202 		and	r2, r3, #2
 1221              	.LVL154:
 1222 0022 D1B2     		uxtb	r1, r2
 1223 0024 19B1     		cbz	r1, .L199
 1224              		.loc 1 329 0 is_stmt 0 discriminator 1
 1225 0026 B5F90A30 		ldrsh	r3, [r5, #10]
 1226 002a 002B     		cmp	r3, #0
 1227 002c 69DD     		ble	.L222
 1228              	.L199:
 1229              		.loc 1 336 0 is_stmt 1
 1230 002e 04A9     		add	r1, sp, #16
 1231 0030 FFF7FEFF 		bl	netconn_accept
 1232              	.LVL155:
 1233              		.loc 1 337 0
 1234 0034 60B1     		cbz	r0, .L200
 1235              		.loc 1 339 0
 1236 0036 2B68     		ldr	r3, [r5, #0]
 1237 0038 1978     		ldrb	r1, [r3, #0]	@ zero_extendqisi2
 1238 003a 1029     		cmp	r1, #16
 1239 003c 77D0     		beq	.L201
 1240              		.loc 1 340 0
 1241 003e 5F24     		movs	r4, #95
 1242              	.LVL156:
 1243 0040 2C61     		str	r4, [r5, #16]
 1244 0042 01E0     		b	.L221
 1245              	.LVL157:
 1246              	.L214:
 1247              	.LBB66:
 1248              	.LBB64:
ARM GAS  C:\Users\jenny\AppData\Local\Temp\ccLg5IEe.s 			page 23


 1249              		.loc 1 326 0
 1250 0044 4FF0FF34 		mov	r4, #-1
 1251              	.LVL158:
 1252              	.L221:
 1253              	.LBE64:
 1254              	.LBE66:
 1255              		.loc 1 402 0
 1256 0048 2046     		mov	r0, r4
 1257 004a 0AB0     		add	sp, sp, #40
 1258 004c BDE8F081 		pop	{r4, r5, r6, r7, r8, pc}
 1259              	.LVL159:
 1260              	.L200:
 1261              		.loc 1 346 0
 1262 0050 0498     		ldr	r0, [sp, #16]
 1263              	.LVL160:
 1264 0052 0028     		cmp	r0, #0
 1265 0054 4ED0     		beq	.L223
 1266              	.L203:
 1267              		.loc 1 348 0 discriminator 1
 1268 0056 027F     		ldrb	r2, [r0, #28]	@ zero_extendqisi2
 1269 0058 42F00801 		orr	r1, r2, #8
 1270 005c 0177     		strb	r1, [r0, #28]
 1271              		.loc 1 351 0 discriminator 1
 1272 005e 0023     		movs	r3, #0
 1273 0060 05A9     		add	r1, sp, #20
 1274 0062 0DF10E02 		add	r2, sp, #14
 1275 0066 FFF7FEFF 		bl	netconn_getaddr
 1276              	.LVL161:
 1277              		.loc 1 352 0 discriminator 1
 1278 006a 0346     		mov	r3, r0
 1279 006c 0028     		cmp	r0, #0
 1280 006e 4DD1     		bne	.L224
 1281              		.loc 1 362 0
 1282 0070 FFB1     		cbz	r7, .L206
 1283              		.loc 1 363 0
 1284 0072 002C     		cmp	r4, #0
 1285 0074 42D0     		beq	.L225
 1286              	.LVL162:
 1287              	.L207:
 1288              		.loc 1 364 0
 1289 0076 0022     		movs	r2, #0
 1290              		.loc 1 365 0
 1291 0078 4FF01008 		mov	r8, #16
 1292              		.loc 1 366 0
 1293 007c 0221     		movs	r1, #2
 1294              	.LVL163:
 1295              		.loc 1 367 0
 1296 007e BDF80E00 		ldrh	r0, [sp, #14]
 1297              		.loc 1 364 0
 1298 0082 0692     		str	r2, [sp, #24]
 1299 0084 0792     		str	r2, [sp, #28]
 1300 0086 0892     		str	r2, [sp, #32]
 1301 0088 0992     		str	r2, [sp, #36]
 1302              		.loc 1 366 0
 1303 008a 8DF81910 		strb	r1, [sp, #25]
 1304              		.loc 1 365 0
 1305 008e 8DF81880 		strb	r8, [sp, #24]
ARM GAS  C:\Users\jenny\AppData\Local\Temp\ccLg5IEe.s 			page 24


 1306              		.loc 1 367 0
 1307 0092 FFF7FEFF 		bl	lwip_htons
 1308              	.LVL164:
 1309              		.loc 1 370 0
 1310 0096 2268     		ldr	r2, [r4, #0]
 1311              		.loc 1 367 0
 1312 0098 ADF81A00 		strh	r0, [sp, #26]	@ movhi
 1313              		.loc 1 368 0
 1314 009c 0598     		ldr	r0, [sp, #20]
 1315              		.loc 1 370 0
 1316 009e 4245     		cmp	r2, r8
 1317              		.loc 1 368 0
 1318 00a0 0790     		str	r0, [sp, #28]
 1319              		.loc 1 371 0
 1320 00a2 84BF     		itt	hi
 1321 00a4 C4F80080 		strhi	r8, [r4, #0]
 1322 00a8 4246     		movhi	r2, r8
 1323              		.loc 1 373 0
 1324 00aa 3846     		mov	r0, r7
 1325 00ac 06A9     		add	r1, sp, #24
 1326 00ae FFF7FEFF 		bl	memcpy
 1327              	.LVL165:
 1328              	.L206:
 1329              		.loc 1 376 0
 1330 00b2 0121     		movs	r1, #1
 1331 00b4 0498     		ldr	r0, [sp, #16]
 1332 00b6 FFF7FEFF 		bl	alloc_socket
 1333              	.LVL166:
 1334              		.loc 1 377 0
 1335 00ba 431C     		adds	r3, r0, #1
 1336              		.loc 1 376 0
 1337 00bc 0446     		mov	r4, r0
 1338              	.LVL167:
 1339              		.loc 1 377 0
 1340 00be 3DD0     		beq	.L226
 1341              		.loc 1 382 0
 1342 00c0 0328     		cmp	r0, #3
 1343 00c2 14D8     		bhi	.L227
 1344              	.LVL168:
 1345              	.L210:
 1346              		.loc 1 383 0
 1347 00c4 049B     		ldr	r3, [sp, #16]
 1348 00c6 2149     		ldr	r1, .L228+4
 1349 00c8 9A6A     		ldr	r2, [r3, #40]
 1350 00ca 8A42     		cmp	r2, r1
 1351 00cc 02D0     		beq	.L211
 1352              		.loc 1 383 0 is_stmt 0 discriminator 1
 1353 00ce FFF7FEFF 		bl	port_halt
 1354              	.LVL169:
 1355 00d2 049B     		ldr	r3, [sp, #16]
 1356              	.L211:
 1357              		.loc 1 384 0 is_stmt 1
 1358 00d4 04EB4400 		add	r0, r4, r4, lsl #1
 1359 00d8 06EBC006 		add	r6, r6, r0, lsl #3
 1360              	.LVL170:
 1361              		.loc 1 392 0
 1362 00dc 9A69     		ldr	r2, [r3, #24]
ARM GAS  C:\Users\jenny\AppData\Local\Temp\ccLg5IEe.s 			page 25


 1363 00de 7189     		ldrh	r1, [r6, #10]
 1364 00e0 D043     		mvns	r0, r2
 1365 00e2 4218     		adds	r2, r0, r1
 1366 00e4 7281     		strh	r2, [r6, #10]	@ movhi
 1367              		.loc 1 393 0
 1368 00e6 9C61     		str	r4, [r3, #24]
 1369              		.loc 1 400 0
 1370 00e8 0023     		movs	r3, #0
 1371 00ea 2B61     		str	r3, [r5, #16]
 1372 00ec ACE7     		b	.L221
 1373              	.LVL171:
 1374              	.L227:
 1375              		.loc 1 382 0 discriminator 1
 1376 00ee FFF7FEFF 		bl	port_halt
 1377              	.LVL172:
 1378 00f2 E7E7     		b	.L210
 1379              	.LVL173:
 1380              	.L223:
 1381              		.loc 1 346 0 discriminator 1
 1382 00f4 FFF7FEFF 		bl	port_halt
 1383              	.LVL174:
 1384 00f8 0498     		ldr	r0, [sp, #16]
 1385 00fa ACE7     		b	.L203
 1386              	.LVL175:
 1387              	.L225:
 1388              		.loc 1 363 0 discriminator 1
 1389 00fc FFF7FEFF 		bl	port_halt
 1390              	.LVL176:
 1391 0100 B9E7     		b	.L207
 1392              	.LVL177:
 1393              	.L222:
 1394              		.loc 1 331 0
 1395 0102 0B23     		movs	r3, #11
 1396 0104 2B61     		str	r3, [r5, #16]
 1397              		.loc 1 332 0
 1398 0106 4FF0FF34 		mov	r4, #-1
 1399              	.LVL178:
 1400 010a 9DE7     		b	.L221
 1401              	.LVL179:
 1402              	.L224:
 1403              		.loc 1 354 0
 1404 010c 0498     		ldr	r0, [sp, #16]
 1405              	.LVL180:
 1406 010e 0193     		str	r3, [sp, #4]
 1407 0110 FFF7FEFF 		bl	netconn_delete
 1408              	.LVL181:
 1409              		.loc 1 355 0
 1410 0114 019C     		ldr	r4, [sp, #4]
 1411              	.LVL182:
 1412 0116 6042     		negs	r0, r4
 1413 0118 0F28     		cmp	r0, #15
 1414 011a 06D8     		bhi	.L216
 1415              		.loc 1 355 0 is_stmt 0 discriminator 1
 1416 011c 0C4A     		ldr	r2, .L228+8
 1417 011e 52F82000 		ldr	r0, [r2, r0, lsl #2]
 1418              	.L205:
 1419              		.loc 1 355 0 discriminator 3
ARM GAS  C:\Users\jenny\AppData\Local\Temp\ccLg5IEe.s 			page 26


 1420 0122 2861     		str	r0, [r5, #16]
 1421              		.loc 1 356 0 is_stmt 1 discriminator 3
 1422 0124 4FF0FF34 		mov	r4, #-1
 1423 0128 8EE7     		b	.L221
 1424              	.L216:
 1425              		.loc 1 355 0
 1426 012a 0520     		movs	r0, #5
 1427 012c F9E7     		b	.L205
 1428              	.LVL183:
 1429              	.L201:
 1430              		.loc 1 343 0
 1431 012e 4442     		negs	r4, r0
 1432              	.LVL184:
 1433 0130 0F2C     		cmp	r4, #15
 1434 0132 FAD8     		bhi	.L216
 1435              		.loc 1 343 0 is_stmt 0 discriminator 1
 1436 0134 064A     		ldr	r2, .L228+8
 1437 0136 52F82400 		ldr	r0, [r2, r4, lsl #2]
 1438              	.LVL185:
 1439 013a F2E7     		b	.L205
 1440              	.LVL186:
 1441              	.L226:
 1442              		.loc 1 378 0 is_stmt 1
 1443 013c 0498     		ldr	r0, [sp, #16]
 1444              	.LVL187:
 1445 013e FFF7FEFF 		bl	netconn_delete
 1446              	.LVL188:
 1447              		.loc 1 379 0
 1448 0142 1721     		movs	r1, #23
 1449 0144 2961     		str	r1, [r5, #16]
 1450 0146 7FE7     		b	.L221
 1451              	.L229:
 1452              		.align	2
 1453              	.L228:
 1454 0148 00000000 		.word	.LANCHOR0
 1455 014c 00000000 		.word	event_callback
 1456 0150 00000000 		.word	.LANCHOR1
 1457              		.cfi_endproc
 1458              	.LFE12:
 1459              		.size	lwip_accept, .-lwip_accept
 1460 0154 AFF30080 		.section	.text.lwip_bind,"ax",%progbits
 1460      AFF30080 
 1460      AFF30080 
 1461              		.align	2
 1462              		.p2align 4,,15
 1463              		.global	lwip_bind
 1464              		.thumb
 1465              		.thumb_func
 1466              		.type	lwip_bind, %function
 1467              	lwip_bind:
 1468              	.LFB13:
 1469              		.loc 1 406 0
 1470              		.cfi_startproc
 1471              		@ args = 0, pretend = 0, frame = 8
 1472              		@ frame_needed = 0, uses_anonymous_args = 0
 1473              	.LVL189:
 1474 0000 70B5     		push	{r4, r5, r6, lr}
ARM GAS  C:\Users\jenny\AppData\Local\Temp\ccLg5IEe.s 			page 27


 1475              	.LCFI12:
 1476              		.cfi_def_cfa_offset 16
 1477              		.cfi_offset 4, -16
 1478              		.cfi_offset 5, -12
 1479              		.cfi_offset 6, -8
 1480              		.cfi_offset 14, -4
 1481              	.LBB67:
 1482              	.LBB68:
 1483              		.loc 1 199 0
 1484 0002 0328     		cmp	r0, #3
 1485              	.LBE68:
 1486              	.LBE67:
 1487              		.loc 1 406 0
 1488 0004 82B0     		sub	sp, sp, #8
 1489              	.LCFI13:
 1490              		.cfi_def_cfa_offset 24
 1491              	.LBB71:
 1492              	.LBB69:
 1493              		.loc 1 199 0
 1494 0006 1CD8     		bhi	.L239
 1495              		.loc 1 205 0
 1496 0008 00EB4000 		add	r0, r0, r0, lsl #1
 1497              	.LVL190:
 1498 000c 184B     		ldr	r3, .L245
 1499 000e C500     		lsls	r5, r0, #3
 1500 0010 5E19     		adds	r6, r3, r5
 1501              	.LVL191:
 1502              		.loc 1 207 0
 1503 0012 5D59     		ldr	r5, [r3, r5]
 1504 0014 ADB1     		cbz	r5, .L239
 1505              	.LBE69:
 1506              	.LBE71:
 1507              		.loc 1 419 0
 1508 0016 102A     		cmp	r2, #16
 1509 0018 17D1     		bne	.L233
 1510              		.loc 1 419 0 is_stmt 0 discriminator 2
 1511 001a 4A78     		ldrb	r2, [r1, #1]	@ zero_extendqisi2
 1512              	.LVL192:
 1513 001c 022A     		cmp	r2, #2
 1514 001e 14D1     		bne	.L233
 1515              		.loc 1 419 0 discriminator 3
 1516 0020 8A07     		lsls	r2, r1, #30
 1517 0022 12D1     		bne	.L233
 1518              	.LVL193:
 1519              		.loc 1 424 0 is_stmt 1
 1520 0024 4B68     		ldr	r3, [r1, #4]
 1521              		.loc 1 431 0
 1522 0026 4888     		ldrh	r0, [r1, #2]
 1523              		.loc 1 424 0
 1524 0028 02AC     		add	r4, sp, #8
 1525 002a 44F8043D 		str	r3, [r4, #-4]!
 1526              	.LVL194:
 1527              		.loc 1 431 0
 1528 002e FFF7FEFF 		bl	lwip_ntohs
 1529              	.LVL195:
 1530 0032 2146     		mov	r1, r4
 1531 0034 0246     		mov	r2, r0
ARM GAS  C:\Users\jenny\AppData\Local\Temp\ccLg5IEe.s 			page 28


 1532 0036 2846     		mov	r0, r5
 1533 0038 FFF7FEFF 		bl	netconn_bind
 1534              	.LVL196:
 1535              		.loc 1 433 0
 1536 003c 60B9     		cbnz	r0, .L244
 1537              		.loc 1 440 0
 1538 003e 3061     		str	r0, [r6, #16]
 1539 0040 01E0     		b	.L242
 1540              	.LVL197:
 1541              	.L239:
 1542              	.LBB72:
 1543              	.LBB70:
 1544              		.loc 1 415 0
 1545 0042 4FF0FF30 		mov	r0, #-1
 1546              	.LVL198:
 1547              	.L242:
 1548              	.LBE70:
 1549              	.LBE72:
 1550              		.loc 1 442 0
 1551 0046 02B0     		add	sp, sp, #8
 1552 0048 70BD     		pop	{r4, r5, r6, pc}
 1553              	.LVL199:
 1554              	.L233:
 1555              		.loc 1 419 0 discriminator 1
 1556 004a FFF7FEFF 		bl	port_halt
 1557              	.LVL200:
 1558 004e 0520     		movs	r0, #5
 1559 0050 3061     		str	r0, [r6, #16]
 1560 0052 4FF0FF30 		mov	r0, #-1
 1561 0056 F6E7     		b	.L242
 1562              	.LVL201:
 1563              	.L244:
 1564              		.loc 1 435 0
 1565 0058 4142     		negs	r1, r0
 1566 005a 0F29     		cmp	r1, #15
 1567 005c 9ABF     		itte	ls
 1568 005e 054B     		ldrls	r3, .L245+4
 1569 0060 53F82130 		ldrls	r3, [r3, r1, lsl #2]
 1570 0064 0523     		movhi	r3, #5
 1571 0066 3361     		str	r3, [r6, #16]
 1572              		.loc 1 436 0
 1573 0068 4FF0FF30 		mov	r0, #-1
 1574              	.LVL202:
 1575 006c EBE7     		b	.L242
 1576              	.L246:
 1577 006e 00BF     		.align	2
 1578              	.L245:
 1579 0070 00000000 		.word	.LANCHOR0
 1580 0074 00000000 		.word	.LANCHOR1
 1581              		.cfi_endproc
 1582              	.LFE13:
 1583              		.size	lwip_bind, .-lwip_bind
 1584 0078 AFF30080 		.section	.text.lwip_close,"ax",%progbits
 1584      AFF30080 
 1585              		.align	2
 1586              		.p2align 4,,15
 1587              		.global	lwip_close
ARM GAS  C:\Users\jenny\AppData\Local\Temp\ccLg5IEe.s 			page 29


 1588              		.thumb
 1589              		.thumb_func
 1590              		.type	lwip_close, %function
 1591              	lwip_close:
 1592              	.LFB14:
 1593              		.loc 1 446 0
 1594              		.cfi_startproc
 1595              		@ args = 0, pretend = 0, frame = 0
 1596              		@ frame_needed = 0, uses_anonymous_args = 0
 1597              	.LVL203:
 1598              	.LBB77:
 1599              	.LBB78:
 1600              		.loc 1 199 0
 1601 0000 0328     		cmp	r0, #3
 1602              	.LBE78:
 1603              	.LBE77:
 1604              		.loc 1 446 0
 1605 0002 2DE9F041 		push	{r4, r5, r6, r7, r8, lr}
 1606              	.LCFI14:
 1607              		.cfi_def_cfa_offset 24
 1608              		.cfi_offset 4, -24
 1609              		.cfi_offset 5, -20
 1610              		.cfi_offset 6, -16
 1611              		.cfi_offset 7, -12
 1612              		.cfi_offset 8, -8
 1613              		.cfi_offset 14, -4
 1614              	.LBB81:
 1615              	.LBB79:
 1616              		.loc 1 199 0
 1617 0006 1AD8     		bhi	.L253
 1618              		.loc 1 205 0
 1619 0008 00EB4000 		add	r0, r0, r0, lsl #1
 1620              	.LVL204:
 1621 000c 114F     		ldr	r7, .L258
 1622 000e C600     		lsls	r6, r0, #3
 1623 0010 BD19     		adds	r5, r7, r6
 1624              	.LVL205:
 1625              		.loc 1 207 0
 1626 0012 BB59     		ldr	r3, [r7, r6]
 1627 0014 9BB1     		cbz	r3, .L253
 1628              	.LBE79:
 1629              	.LBE81:
 1630              		.loc 1 463 0
 1631 0016 1846     		mov	r0, r3
 1632              		.loc 1 458 0
 1633 0018 93F80080 		ldrb	r8, [r3, #0]	@ zero_extendqisi2
 1634              	.LVL206:
 1635              		.loc 1 463 0
 1636 001c FFF7FEFF 		bl	netconn_delete
 1637              	.LVL207:
 1638              	.LBB82:
 1639              	.LBB83:
 1640              		.loc 1 285 0
 1641 0020 6868     		ldr	r0, [r5, #4]
 1642              	.LVL208:
 1643              		.loc 1 286 0
 1644 0022 0024     		movs	r4, #0
ARM GAS  C:\Users\jenny\AppData\Local\Temp\ccLg5IEe.s 			page 30


 1645 0024 6C60     		str	r4, [r5, #4]
 1646              		.loc 1 287 0
 1647 0026 2C81     		strh	r4, [r5, #8]	@ movhi
 1648              		.loc 1 288 0
 1649 0028 2C61     		str	r4, [r5, #16]
 1650              		.loc 1 292 0
 1651 002a BC51     		str	r4, [r7, r6]
 1652              		.loc 1 296 0
 1653 002c 58B1     		cbz	r0, .L256
 1654              		.loc 1 297 0
 1655 002e B8F1100F 		cmp	r8, #16
 1656 0032 0AD0     		beq	.L257
 1657              		.loc 1 300 0
 1658 0034 FFF7FEFF 		bl	netbuf_delete
 1659              	.LVL209:
 1660              		.loc 1 467 0
 1661 0038 2046     		mov	r0, r4
 1662 003a BDE8F081 		pop	{r4, r5, r6, r7, r8, pc}
 1663              	.LVL210:
 1664              	.L253:
 1665              	.LBE83:
 1666              	.LBE82:
 1667              	.LBB85:
 1668              	.LBB80:
 1669              		.loc 1 454 0
 1670 003e 4FF0FF30 		mov	r0, #-1
 1671 0042 BDE8F081 		pop	{r4, r5, r6, r7, r8, pc}
 1672              	.LVL211:
 1673              	.L256:
 1674              	.LBE80:
 1675              	.LBE85:
 1676              		.loc 1 468 0
 1677 0046 BDE8F081 		pop	{r4, r5, r6, r7, r8, pc}
 1678              	.L257:
 1679              	.LBB86:
 1680              	.LBB84:
 1681              		.loc 1 298 0
 1682 004a FFF7FEFF 		bl	pbuf_free
 1683              	.LVL212:
 1684              		.loc 1 467 0
 1685 004e 2046     		mov	r0, r4
 1686 0050 BDE8F081 		pop	{r4, r5, r6, r7, r8, pc}
 1687              	.L259:
 1688              		.align	2
 1689              	.L258:
 1690 0054 00000000 		.word	.LANCHOR0
 1691              	.LBE84:
 1692              	.LBE86:
 1693              		.cfi_endproc
 1694              	.LFE14:
 1695              		.size	lwip_close, .-lwip_close
 1696 0058 AFF30080 		.section	.text.lwip_connect,"ax",%progbits
 1696      AFF30080 
 1697              		.align	2
 1698              		.p2align 4,,15
 1699              		.global	lwip_connect
 1700              		.thumb
ARM GAS  C:\Users\jenny\AppData\Local\Temp\ccLg5IEe.s 			page 31


 1701              		.thumb_func
 1702              		.type	lwip_connect, %function
 1703              	lwip_connect:
 1704              	.LFB15:
 1705              		.loc 1 472 0
 1706              		.cfi_startproc
 1707              		@ args = 0, pretend = 0, frame = 8
 1708              		@ frame_needed = 0, uses_anonymous_args = 0
 1709              	.LVL213:
 1710 0000 70B5     		push	{r4, r5, r6, lr}
 1711              	.LCFI15:
 1712              		.cfi_def_cfa_offset 16
 1713              		.cfi_offset 4, -16
 1714              		.cfi_offset 5, -12
 1715              		.cfi_offset 6, -8
 1716              		.cfi_offset 14, -4
 1717              	.LBB87:
 1718              	.LBB88:
 1719              		.loc 1 199 0
 1720 0002 0328     		cmp	r0, #3
 1721              	.LBE88:
 1722              	.LBE87:
 1723              		.loc 1 472 0
 1724 0004 82B0     		sub	sp, sp, #8
 1725              	.LCFI16:
 1726              		.cfi_def_cfa_offset 24
 1727              	.LBB91:
 1728              	.LBB89:
 1729              		.loc 1 199 0
 1730 0006 1CD8     		bhi	.L269
 1731              		.loc 1 205 0
 1732 0008 00EB4000 		add	r0, r0, r0, lsl #1
 1733              	.LVL214:
 1734 000c 184B     		ldr	r3, .L275
 1735 000e C600     		lsls	r6, r0, #3
 1736 0010 9D19     		adds	r5, r3, r6
 1737              	.LVL215:
 1738              		.loc 1 207 0
 1739 0012 9E59     		ldr	r6, [r3, r6]
 1740 0014 AEB1     		cbz	r6, .L269
 1741              	.LBE89:
 1742              	.LBE91:
 1743              		.loc 1 483 0
 1744 0016 102A     		cmp	r2, #16
 1745 0018 17D1     		bne	.L263
 1746              		.loc 1 483 0 is_stmt 0 discriminator 2
 1747 001a 4A78     		ldrb	r2, [r1, #1]	@ zero_extendqisi2
 1748              	.LVL216:
 1749 001c 022A     		cmp	r2, #2
 1750 001e 14D1     		bne	.L263
 1751              		.loc 1 483 0 discriminator 3
 1752 0020 8807     		lsls	r0, r1, #30
 1753 0022 12D1     		bne	.L263
 1754              	.LVL217:
 1755              	.LBB92:
 1756              		.loc 1 495 0 is_stmt 1
 1757 0024 4B68     		ldr	r3, [r1, #4]
ARM GAS  C:\Users\jenny\AppData\Local\Temp\ccLg5IEe.s 			page 32


 1758              		.loc 1 502 0
 1759 0026 4888     		ldrh	r0, [r1, #2]
 1760              		.loc 1 495 0
 1761 0028 02AC     		add	r4, sp, #8
 1762 002a 44F8043D 		str	r3, [r4, #-4]!
 1763              	.LVL218:
 1764              		.loc 1 502 0
 1765 002e FFF7FEFF 		bl	lwip_ntohs
 1766              	.LVL219:
 1767 0032 2146     		mov	r1, r4
 1768 0034 0246     		mov	r2, r0
 1769 0036 3046     		mov	r0, r6
 1770 0038 FFF7FEFF 		bl	netconn_connect
 1771              	.LVL220:
 1772              	.LBE92:
 1773              		.loc 1 505 0
 1774 003c 60B9     		cbnz	r0, .L274
 1775              		.loc 1 512 0
 1776 003e 2861     		str	r0, [r5, #16]
 1777              		.loc 1 513 0
 1778 0040 01E0     		b	.L272
 1779              	.LVL221:
 1780              	.L269:
 1781              	.LBB93:
 1782              	.LBB90:
 1783              		.loc 1 479 0
 1784 0042 4FF0FF30 		mov	r0, #-1
 1785              	.LVL222:
 1786              	.L272:
 1787              	.LBE90:
 1788              	.LBE93:
 1789              		.loc 1 514 0
 1790 0046 02B0     		add	sp, sp, #8
 1791 0048 70BD     		pop	{r4, r5, r6, pc}
 1792              	.LVL223:
 1793              	.L263:
 1794              		.loc 1 483 0 discriminator 1
 1795 004a FFF7FEFF 		bl	port_halt
 1796              	.LVL224:
 1797 004e 0520     		movs	r0, #5
 1798 0050 2861     		str	r0, [r5, #16]
 1799 0052 4FF0FF30 		mov	r0, #-1
 1800 0056 F6E7     		b	.L272
 1801              	.LVL225:
 1802              	.L274:
 1803              		.loc 1 507 0
 1804 0058 4142     		negs	r1, r0
 1805 005a 0F29     		cmp	r1, #15
 1806 005c 9ABF     		itte	ls
 1807 005e 054B     		ldrls	r3, .L275+4
 1808 0060 53F82130 		ldrls	r3, [r3, r1, lsl #2]
 1809 0064 0523     		movhi	r3, #5
 1810 0066 2B61     		str	r3, [r5, #16]
 1811              		.loc 1 508 0
 1812 0068 4FF0FF30 		mov	r0, #-1
 1813              	.LVL226:
 1814 006c EBE7     		b	.L272
ARM GAS  C:\Users\jenny\AppData\Local\Temp\ccLg5IEe.s 			page 33


 1815              	.L276:
 1816 006e 00BF     		.align	2
 1817              	.L275:
 1818 0070 00000000 		.word	.LANCHOR0
 1819 0074 00000000 		.word	.LANCHOR1
 1820              		.cfi_endproc
 1821              	.LFE15:
 1822              		.size	lwip_connect, .-lwip_connect
 1823 0078 AFF30080 		.section	.text.lwip_listen,"ax",%progbits
 1823      AFF30080 
 1824              		.align	2
 1825              		.p2align 4,,15
 1826              		.global	lwip_listen
 1827              		.thumb
 1828              		.thumb_func
 1829              		.type	lwip_listen, %function
 1830              	lwip_listen:
 1831              	.LFB16:
 1832              		.loc 1 526 0
 1833              		.cfi_startproc
 1834              		@ args = 0, pretend = 0, frame = 0
 1835              		@ frame_needed = 0, uses_anonymous_args = 0
 1836              	.LVL227:
 1837              	.LBB94:
 1838              	.LBB95:
 1839              		.loc 1 199 0
 1840 0000 0328     		cmp	r0, #3
 1841              	.LBE95:
 1842              	.LBE94:
 1843              		.loc 1 526 0
 1844 0002 10B5     		push	{r4, lr}
 1845              	.LCFI17:
 1846              		.cfi_def_cfa_offset 8
 1847              		.cfi_offset 4, -8
 1848              		.cfi_offset 14, -4
 1849              	.LBB98:
 1850              	.LBB96:
 1851              		.loc 1 199 0
 1852 0004 13D8     		bhi	.L286
 1853              		.loc 1 205 0
 1854 0006 00EB4000 		add	r0, r0, r0, lsl #1
 1855              	.LVL228:
 1856 000a 144B     		ldr	r3, .L291
 1857 000c C200     		lsls	r2, r0, #3
 1858 000e 9C18     		adds	r4, r3, r2
 1859              	.LVL229:
 1860              		.loc 1 207 0
 1861 0010 9858     		ldr	r0, [r3, r2]
 1862 0012 60B1     		cbz	r0, .L286
 1863              	.LBE96:
 1864              	.LBE98:
 1865              		.loc 1 538 0
 1866 0014 FE29     		cmp	r1, #254
 1867 0016 0DDD     		ble	.L283
 1868              	.LVL230:
 1869 0018 FF21     		movs	r1, #255
 1870              		.loc 1 540 0
ARM GAS  C:\Users\jenny\AppData\Local\Temp\ccLg5IEe.s 			page 34


 1871 001a FFF7FEFF 		bl	netconn_listen_with_backlog
 1872              	.LVL231:
 1873              		.loc 1 542 0
 1874 001e 80B1     		cbz	r0, .L280
 1875              	.L290:
 1876              		.loc 1 544 0
 1877 0020 2368     		ldr	r3, [r4, #0]
 1878 0022 1A78     		ldrb	r2, [r3, #0]	@ zero_extendqisi2
 1879 0024 102A     		cmp	r2, #16
 1880 0026 0ED0     		beq	.L281
 1881              		.loc 1 545 0
 1882 0028 5F20     		movs	r0, #95
 1883              	.LVL232:
 1884 002a 2061     		str	r0, [r4, #16]
 1885              		.loc 1 546 0
 1886 002c 10BD     		pop	{r4, pc}
 1887              	.LVL233:
 1888              	.L286:
 1889              	.LBB99:
 1890              	.LBB97:
 1891              		.loc 1 534 0
 1892 002e 4FF0FF30 		mov	r0, #-1
 1893 0032 10BD     		pop	{r4, pc}
 1894              	.LVL234:
 1895              	.L283:
 1896              	.LBE97:
 1897              	.LBE99:
 1898              		.loc 1 538 0 discriminator 1
 1899 0034 21EAE171 		bic	r1, r1, r1, asr #31
 1900              	.LVL235:
 1901 0038 C9B2     		uxtb	r1, r1
 1902              	.LVL236:
 1903              		.loc 1 540 0 discriminator 1
 1904 003a FFF7FEFF 		bl	netconn_listen_with_backlog
 1905              	.LVL237:
 1906              		.loc 1 542 0 discriminator 1
 1907 003e 0028     		cmp	r0, #0
 1908 0040 EED1     		bne	.L290
 1909              	.L280:
 1910              		.loc 1 552 0
 1911 0042 2061     		str	r0, [r4, #16]
 1912              		.loc 1 553 0
 1913 0044 10BD     		pop	{r4, pc}
 1914              	.L281:
 1915              		.loc 1 548 0
 1916 0046 4042     		negs	r0, r0
 1917              	.LVL238:
 1918 0048 0F28     		cmp	r0, #15
 1919 004a 9ABF     		itte	ls
 1920 004c 044A     		ldrls	r2, .L291+4
 1921 004e 52F82020 		ldrls	r2, [r2, r0, lsl #2]
 1922 0052 0522     		movhi	r2, #5
 1923 0054 2261     		str	r2, [r4, #16]
 1924              		.loc 1 549 0
 1925 0056 4FF0FF30 		mov	r0, #-1
 1926 005a 10BD     		pop	{r4, pc}
 1927              	.L292:
ARM GAS  C:\Users\jenny\AppData\Local\Temp\ccLg5IEe.s 			page 35


 1928              		.align	2
 1929              	.L291:
 1930 005c 00000000 		.word	.LANCHOR0
 1931 0060 00000000 		.word	.LANCHOR1
 1932              		.cfi_endproc
 1933              	.LFE16:
 1934              		.size	lwip_listen, .-lwip_listen
 1935 0064 AFF30080 		.section	.text.lwip_recvfrom,"ax",%progbits
 1935      AFF30080 
 1935      AFF30080 
 1936              		.align	2
 1937              		.p2align 4,,15
 1938              		.global	lwip_recvfrom
 1939              		.thumb
 1940              		.thumb_func
 1941              		.type	lwip_recvfrom, %function
 1942              	lwip_recvfrom:
 1943              	.LFB17:
 1944              		.loc 1 559 0
 1945              		.cfi_startproc
 1946              		@ args = 8, pretend = 0, frame = 48
 1947              		@ frame_needed = 0, uses_anonymous_args = 0
 1948              	.LVL239:
 1949 0000 2DE9F04F 		push	{r4, r5, r6, r7, r8, r9, sl, fp, lr}
 1950              	.LCFI18:
 1951              		.cfi_def_cfa_offset 36
 1952              		.cfi_offset 4, -36
 1953              		.cfi_offset 5, -32
 1954              		.cfi_offset 6, -28
 1955              		.cfi_offset 7, -24
 1956              		.cfi_offset 8, -20
 1957              		.cfi_offset 9, -16
 1958              		.cfi_offset 10, -12
 1959              		.cfi_offset 11, -8
 1960              		.cfi_offset 14, -4
 1961 0004 8DB0     		sub	sp, sp, #52
 1962              	.LCFI19:
 1963              		.cfi_def_cfa_offset 88
 1964              		.loc 1 561 0
 1965 0006 0025     		movs	r5, #0
 1966              	.LBB100:
 1967              	.LBB101:
 1968              		.loc 1 199 0
 1969 0008 0328     		cmp	r0, #3
 1970              	.LBE101:
 1971              	.LBE100:
 1972              		.loc 1 561 0
 1973 000a 0695     		str	r5, [sp, #24]
 1974              	.LVL240:
 1975              		.loc 1 559 0
 1976 000c 0191     		str	r1, [sp, #4]
 1977 000e 1646     		mov	r6, r2
 1978 0010 9B46     		mov	fp, r3
 1979              	.LBB104:
 1980              	.LBB102:
 1981              		.loc 1 199 0
 1982 0012 70D8     		bhi	.L328
ARM GAS  C:\Users\jenny\AppData\Local\Temp\ccLg5IEe.s 			page 36


 1983              		.loc 1 205 0
 1984 0014 00EB4000 		add	r0, r0, r0, lsl #1
 1985              	.LVL241:
 1986 0018 854B     		ldr	r3, .L363
 1987              	.LVL242:
 1988 001a C100     		lsls	r1, r0, #3
 1989              	.LVL243:
 1990 001c 5C18     		adds	r4, r3, r1
 1991              	.LVL244:
 1992              		.loc 1 207 0
 1993 001e 5A58     		ldr	r2, [r3, r1]
 1994              	.LVL245:
 1995 0020 002A     		cmp	r2, #0
 1996 0022 68D0     		beq	.L328
 1997              	.LVL246:
 1998              	.LBE102:
 1999              	.LBE104:
 2000              		.loc 1 579 0
 2001 0024 D4F80490 		ldr	r9, [r4, #4]
 2002              	.LBB105:
 2003              	.LBB106:
 2004              		.loc 1 680 0
 2005 0028 CDF808B0 		str	fp, [sp, #8]
 2006              	.LBE106:
 2007              	.LBE105:
 2008              		.loc 1 583 0
 2009 002c 0BF00800 		and	r0, fp, #8
 2010 0030 0390     		str	r0, [sp, #12]
 2011              	.LBB110:
 2012              	.LBB107:
 2013              		.loc 1 679 0
 2014 0032 A846     		mov	r8, r5
 2015              		.loc 1 680 0
 2016 0034 DDF858A0 		ldr	sl, [sp, #88]
 2017              	.LBE107:
 2018              	.LBE110:
 2019              		.loc 1 579 0
 2020 0038 B9F1000F 		cmp	r9, #0
 2021 003c 76D0     		beq	.L295
 2022              	.LVL247:
 2023              	.L357:
 2024              		.loc 1 580 0
 2025 003e CDF81890 		str	r9, [sp, #24]
 2026              	.L296:
 2027              		.loc 1 629 0
 2028 0042 2768     		ldr	r7, [r4, #0]
 2029              		.loc 1 638 0
 2030 0044 2389     		ldrh	r3, [r4, #8]
 2031              		.loc 1 629 0
 2032 0046 3A78     		ldrb	r2, [r7, #0]	@ zero_extendqisi2
 2033 0048 102A     		cmp	r2, #16
 2034              		.loc 1 632 0
 2035 004a 18BF     		it	ne
 2036 004c D9F80090 		ldrne	r9, [r9, #0]
 2037              	.LVL248:
 2038              		.loc 1 648 0
 2039 0050 019A     		ldr	r2, [sp, #4]
ARM GAS  C:\Users\jenny\AppData\Local\Temp\ccLg5IEe.s 			page 37


 2040              		.loc 1 634 0
 2041 0052 B9F80810 		ldrh	r1, [r9, #8]
 2042              	.LVL249:
 2043              		.loc 1 638 0
 2044 0056 C81A     		subs	r0, r1, r3
 2045 0058 87B2     		uxth	r7, r0
 2046              	.LVL250:
 2047              		.loc 1 640 0
 2048 005a BE42     		cmp	r6, r7
 2049              		.loc 1 643 0
 2050 005c 94BF     		ite	ls
 2051 005e 1FFA86FB 		uxthls	fp, r6
 2052              	.LVL251:
 2053              		.loc 1 641 0
 2054 0062 BB46     		movhi	fp, r7
 2055              	.LVL252:
 2056              		.loc 1 648 0
 2057 0064 5119     		adds	r1, r2, r5
 2058 0066 4846     		mov	r0, r9
 2059              	.LVL253:
 2060 0068 5A46     		mov	r2, fp
 2061 006a FFF7FEFF 		bl	pbuf_copy_partial
 2062              	.LVL254:
 2063              		.loc 1 652 0
 2064 006e 2368     		ldr	r3, [r4, #0]
 2065 0070 1978     		ldrb	r1, [r3, #0]	@ zero_extendqisi2
 2066 0072 1029     		cmp	r1, #16
 2067              		.loc 1 650 0
 2068 0074 5D44     		add	r5, r5, fp
 2069              	.LVL255:
 2070              		.loc 1 652 0
 2071 0076 76D0     		beq	.L353
 2072              	.L309:
 2073 0078 029A     		ldr	r2, [sp, #8]
 2074 007a 02F00109 		and	r9, r2, #1
 2075              	.LVL256:
 2076              	.L312:
 2077              	.LBB111:
 2078              		.loc 1 668 0
 2079 007e BAF1000F 		cmp	sl, #0
 2080 0082 2DD0     		beq	.L316
 2081              		.loc 1 668 0 is_stmt 0 discriminator 1
 2082 0084 179B     		ldr	r3, [sp, #92]
 2083 0086 5BB3     		cbz	r3, .L316
 2084              	.LBB108:
 2085              		.loc 1 671 0 is_stmt 1
 2086 0088 2068     		ldr	r0, [r4, #0]
 2087 008a 0178     		ldrb	r1, [r0, #0]	@ zero_extendqisi2
 2088 008c 1029     		cmp	r1, #16
 2089 008e 00F09480 		beq	.L354
 2090              		.loc 1 675 0
 2091 0092 069B     		ldr	r3, [sp, #24]
 2092              		.loc 1 676 0
 2093 0094 9889     		ldrh	r0, [r3, #12]
 2094              		.loc 1 675 0
 2095 0096 0833     		adds	r3, r3, #8
 2096              	.LVL257:
ARM GAS  C:\Users\jenny\AppData\Local\Temp\ccLg5IEe.s 			page 38


 2097              		.loc 1 676 0
 2098 0098 ADF81600 		strh	r0, [sp, #22]	@ movhi
 2099              	.L318:
 2100              		.loc 1 680 0
 2101 009c 1022     		movs	r2, #16
 2102              		.loc 1 681 0
 2103 009e 0221     		movs	r1, #2
 2104              		.loc 1 682 0
 2105 00a0 BDF81600 		ldrh	r0, [sp, #22]
 2106              		.loc 1 679 0
 2107 00a4 CDF82080 		str	r8, [sp, #32]
 2108              		.loc 1 682 0
 2109 00a8 0093     		str	r3, [sp, #0]
 2110              		.loc 1 680 0
 2111 00aa 8DF82020 		strb	r2, [sp, #32]
 2112              		.loc 1 681 0
 2113 00ae 8DF82110 		strb	r1, [sp, #33]
 2114              		.loc 1 679 0
 2115 00b2 CDF82480 		str	r8, [sp, #36]
 2116 00b6 CDF82880 		str	r8, [sp, #40]
 2117 00ba CDF82C80 		str	r8, [sp, #44]
 2118              		.loc 1 682 0
 2119 00be FFF7FEFF 		bl	lwip_htons
 2120              	.LVL258:
 2121              		.loc 1 685 0
 2122 00c2 1799     		ldr	r1, [sp, #92]
 2123              		.loc 1 683 0
 2124 00c4 009B     		ldr	r3, [sp, #0]
 2125              		.loc 1 685 0
 2126 00c6 0A68     		ldr	r2, [r1, #0]
 2127              		.loc 1 683 0
 2128 00c8 1B68     		ldr	r3, [r3, #0]
 2129              		.loc 1 682 0
 2130 00ca ADF82200 		strh	r0, [sp, #34]	@ movhi
 2131              		.loc 1 685 0
 2132 00ce 102A     		cmp	r2, #16
 2133              		.loc 1 683 0
 2134 00d0 0993     		str	r3, [sp, #36]
 2135              		.loc 1 685 0
 2136 00d2 01D9     		bls	.L319
 2137              		.loc 1 686 0
 2138 00d4 1022     		movs	r2, #16
 2139 00d6 0A60     		str	r2, [r1, #0]
 2140              	.L319:
 2141              		.loc 1 689 0
 2142 00d8 5046     		mov	r0, sl
 2143 00da 08A9     		add	r1, sp, #32
 2144 00dc FFF7FEFF 		bl	memcpy
 2145              	.LVL259:
 2146              	.L316:
 2147              	.LBE108:
 2148              	.LBE111:
 2149              		.loc 1 712 0
 2150 00e0 B9F1000F 		cmp	r9, #0
 2151 00e4 0DD0     		beq	.L355
 2152              	.LVL260:
 2153              	.L320:
ARM GAS  C:\Users\jenny\AppData\Local\Temp\ccLg5IEe.s 			page 39


 2154              		.loc 1 733 0
 2155 00e6 1DB1     		cbz	r5, .L324
 2156              	.LVL261:
 2157              	.L351:
 2158              		.loc 1 735 0
 2159 00e8 2068     		ldr	r0, [r4, #0]
 2160 00ea 2946     		mov	r1, r5
 2161 00ec FFF7FEFF 		bl	netconn_recved
 2162              	.LVL262:
 2163              	.L324:
 2164              		.loc 1 737 0
 2165 00f0 0020     		movs	r0, #0
 2166 00f2 2061     		str	r0, [r4, #16]
 2167 00f4 01E0     		b	.L350
 2168              	.LVL263:
 2169              	.L328:
 2170              	.LBB112:
 2171              	.LBB103:
 2172              		.loc 1 573 0
 2173 00f6 4FF0FF35 		mov	r5, #-1
 2174              	.LVL264:
 2175              	.L350:
 2176              	.LBE103:
 2177              	.LBE112:
 2178              		.loc 1 739 0
 2179 00fa 2846     		mov	r0, r5
 2180 00fc 0DB0     		add	sp, sp, #52
 2181 00fe BDE8F08F 		pop	{r4, r5, r6, r7, r8, r9, sl, fp, pc}
 2182              	.LVL265:
 2183              	.L355:
 2184              		.loc 1 712 0
 2185 0102 4FF00109 		mov	r9, #1
 2186              	.LVL266:
 2187              	.L315:
 2188              		.loc 1 716 0
 2189 0106 2068     		ldr	r0, [r4, #0]
 2190 0108 0278     		ldrb	r2, [r0, #0]	@ zero_extendqisi2
 2191 010a 102A     		cmp	r2, #16
 2192 010c 38D0     		beq	.L356
 2193              		.loc 1 727 0
 2194 010e 0698     		ldr	r0, [sp, #24]
 2195              		.loc 1 721 0
 2196 0110 C4F80480 		str	r8, [r4, #4]
 2197              		.loc 1 722 0
 2198 0114 A4F80880 		strh	r8, [r4, #8]	@ movhi
 2199              		.loc 1 727 0
 2200 0118 FFF7FEFF 		bl	netbuf_delete
 2201              	.LVL267:
 2202              		.loc 1 731 0
 2203 011c B9F1000F 		cmp	r9, #0
 2204 0120 E1D1     		bne	.L320
 2205              	.LVL268:
 2206              	.L352:
 2207              		.loc 1 579 0
 2208 0122 D4F80490 		ldr	r9, [r4, #4]
 2209 0126 B9F1000F 		cmp	r9, #0
 2210 012a 88D1     		bne	.L357
ARM GAS  C:\Users\jenny\AppData\Local\Temp\ccLg5IEe.s 			page 40


 2211              	.LVL269:
 2212              	.L295:
 2213              		.loc 1 583 0
 2214 012c 039B     		ldr	r3, [sp, #12]
 2215 012e 2BB9     		cbnz	r3, .L297
 2216              		.loc 1 583 0 is_stmt 0 discriminator 2
 2217 0130 2068     		ldr	r0, [r4, #0]
 2218 0132 017F     		ldrb	r1, [r0, #28]	@ zero_extendqisi2
 2219 0134 01F00202 		and	r2, r1, #2
 2220 0138 D3B2     		uxtb	r3, r2
 2221 013a 23B1     		cbz	r3, .L298
 2222              	.L297:
 2223              		.loc 1 583 0 discriminator 1
 2224 013c B4F90A00 		ldrsh	r0, [r4, #10]
 2225 0140 0028     		cmp	r0, #0
 2226 0142 6CDD     		ble	.L299
 2227 0144 2068     		ldr	r0, [r4, #0]
 2228              	.L298:
 2229              		.loc 1 599 0 is_stmt 1
 2230 0146 0278     		ldrb	r2, [r0, #0]	@ zero_extendqisi2
 2231 0148 102A     		cmp	r2, #16
 2232              		.loc 1 600 0
 2233 014a 06A9     		add	r1, sp, #24
 2234              		.loc 1 599 0
 2235 014c 3DD0     		beq	.L358
 2236              		.loc 1 602 0
 2237 014e FFF7FEFF 		bl	netconn_recv
 2238              	.LVL270:
 2239              	.L302:
 2240              		.loc 1 607 0
 2241 0152 0028     		cmp	r0, #0
 2242 0154 50D1     		bne	.L359
 2243              		.loc 1 625 0
 2244 0156 DDF81890 		ldr	r9, [sp, #24]
 2245 015a B9F1000F 		cmp	r9, #0
 2246 015e 46D0     		beq	.L360
 2247              	.LVL271:
 2248              	.L306:
 2249              		.loc 1 626 0
 2250 0160 C4F80490 		str	r9, [r4, #4]
 2251 0164 6DE7     		b	.L296
 2252              	.LVL272:
 2253              	.L353:
 2254              		.loc 1 653 0
 2255 0166 5E45     		cmp	r6, fp
 2256 0168 19D3     		bcc	.L361
 2257              	.L310:
 2258              	.LVL273:
 2259              		.loc 1 655 0
 2260 016a B6EB0B06 		subs	r6, r6, fp
 2261              	.LVL274:
 2262 016e 83D0     		beq	.L309
 2263              		.loc 1 656 0 discriminator 1
 2264 0170 99F80D00 		ldrb	r0, [r9, #13]	@ zero_extendqisi2
 2265              		.loc 1 655 0 discriminator 1
 2266 0174 C307     		lsls	r3, r0, #31
 2267 0176 15D5     		bpl	.L313
ARM GAS  C:\Users\jenny\AppData\Local\Temp\ccLg5IEe.s 			page 41


 2268 0178 0298     		ldr	r0, [sp, #8]
 2269 017a 00F00109 		and	r9, r0, #1
 2270              	.LVL275:
 2271 017e 7EE7     		b	.L312
 2272              	.LVL276:
 2273              	.L356:
 2274              		.loc 1 716 0 discriminator 1
 2275 0180 CBEB0707 		rsb	r7, fp, r7
 2276              	.LVL277:
 2277 0184 002F     		cmp	r7, #0
 2278 0186 23DD     		ble	.L322
 2279              		.loc 1 718 0
 2280 0188 2389     		ldrh	r3, [r4, #8]
 2281              		.loc 1 717 0
 2282 018a 0699     		ldr	r1, [sp, #24]
 2283              		.loc 1 718 0
 2284 018c 0BEB030C 		add	ip, fp, r3
 2285              		.loc 1 717 0
 2286 0190 6160     		str	r1, [r4, #4]
 2287              		.loc 1 718 0
 2288 0192 A4F808C0 		strh	ip, [r4, #8]	@ movhi
 2289              		.loc 1 731 0
 2290 0196 B9F1000F 		cmp	r9, #0
 2291 019a C2D0     		beq	.L352
 2292 019c A3E7     		b	.L320
 2293              	.LVL278:
 2294              	.L361:
 2295              		.loc 1 653 0 discriminator 1
 2296 019e FFF7FEFF 		bl	port_halt
 2297              	.LVL279:
 2298 01a2 E2E7     		b	.L310
 2299              	.L313:
 2300              		.loc 1 656 0
 2301 01a4 B4F90A20 		ldrsh	r2, [r4, #10]
 2302 01a8 002A     		cmp	r2, #0
 2303 01aa 1CDD     		ble	.L362
 2304              		.loc 1 657 0
 2305 01ac 029B     		ldr	r3, [sp, #8]
 2306 01ae 13F00109 		ands	r9, r3, #1
 2307              	.LVL280:
 2308 01b2 A8D0     		beq	.L315
 2309 01b4 4FF00109 		mov	r9, #1
 2310 01b8 61E7     		b	.L312
 2311              	.LVL281:
 2312              	.L354:
 2313              	.LBB113:
 2314              	.LBB109:
 2315              		.loc 1 673 0
 2316 01ba 0023     		movs	r3, #0
 2317 01bc 07A9     		add	r1, sp, #28
 2318              	.LVL282:
 2319 01be 0DF11602 		add	r2, sp, #22
 2320 01c2 FFF7FEFF 		bl	netconn_getaddr
 2321              	.LVL283:
 2322              		.loc 1 672 0
 2323 01c6 07AB     		add	r3, sp, #28
 2324              	.LVL284:
ARM GAS  C:\Users\jenny\AppData\Local\Temp\ccLg5IEe.s 			page 42


 2325 01c8 68E7     		b	.L318
 2326              	.LVL285:
 2327              	.L358:
 2328              	.LBE109:
 2329              	.LBE113:
 2330              		.loc 1 600 0
 2331 01ca FFF7FEFF 		bl	netconn_recv_tcp_pbuf
 2332              	.LVL286:
 2333 01ce C0E7     		b	.L302
 2334              	.LVL287:
 2335              	.L322:
 2336              		.loc 1 725 0
 2337 01d0 0698     		ldr	r0, [sp, #24]
 2338              		.loc 1 721 0
 2339 01d2 C4F80480 		str	r8, [r4, #4]
 2340              		.loc 1 722 0
 2341 01d6 A4F80880 		strh	r8, [r4, #8]	@ movhi
 2342              		.loc 1 725 0
 2343 01da FFF7FEFF 		bl	pbuf_free
 2344              	.LVL288:
 2345              		.loc 1 731 0
 2346 01de B9F1000F 		cmp	r9, #0
 2347 01e2 9ED0     		beq	.L352
 2348 01e4 7FE7     		b	.L320
 2349              	.LVL289:
 2350              	.L362:
 2351 01e6 0299     		ldr	r1, [sp, #8]
 2352 01e8 01F00109 		and	r9, r1, #1
 2353              	.LVL290:
 2354 01ec 47E7     		b	.L312
 2355              	.LVL291:
 2356              	.L360:
 2357              		.loc 1 625 0 discriminator 1
 2358 01ee FFF7FEFF 		bl	port_halt
 2359              	.LVL292:
 2360 01f2 DDF81890 		ldr	r9, [sp, #24]
 2361 01f6 B3E7     		b	.L306
 2362              	.LVL293:
 2363              	.L359:
 2364              		.loc 1 608 0
 2365 01f8 002D     		cmp	r5, #0
 2366 01fa 7FF475AF 		bne	.L351
 2367              		.loc 1 618 0
 2368 01fe 45B2     		sxtb	r5, r0
 2369              	.LVL294:
 2370 0200 6942     		negs	r1, r5
 2371 0202 0F29     		cmp	r1, #15
 2372 0204 9ABF     		itte	ls
 2373 0206 0B4B     		ldrls	r3, .L363+4
 2374 0208 53F82110 		ldrls	r1, [r3, r1, lsl #2]
 2375 020c 0521     		movhi	r1, #5
 2376 020e 2161     		str	r1, [r4, #16]
 2377              		.loc 1 620 0
 2378 0210 15F10C0F 		cmn	r5, #12
 2379 0214 14BF     		ite	ne
 2380 0216 4FF0FF35 		movne	r5, #-1
 2381 021a 0025     		moveq	r5, #0
ARM GAS  C:\Users\jenny\AppData\Local\Temp\ccLg5IEe.s 			page 43


 2382 021c 6DE7     		b	.L350
 2383              	.LVL295:
 2384              	.L299:
 2385              		.loc 1 585 0
 2386 021e 002D     		cmp	r5, #0
 2387 0220 7FF462AF 		bne	.L351
 2388              		.loc 1 593 0
 2389 0224 0B20     		movs	r0, #11
 2390 0226 2061     		str	r0, [r4, #16]
 2391              		.loc 1 594 0
 2392 0228 4FF0FF35 		mov	r5, #-1
 2393              	.LVL296:
 2394 022c 65E7     		b	.L350
 2395              	.L364:
 2396 022e 00BF     		.align	2
 2397              	.L363:
 2398 0230 00000000 		.word	.LANCHOR0
 2399 0234 00000000 		.word	.LANCHOR1
 2400              		.cfi_endproc
 2401              	.LFE17:
 2402              		.size	lwip_recvfrom, .-lwip_recvfrom
 2403 0238 AFF30080 		.section	.text.lwip_read,"ax",%progbits
 2403      AFF30080 
 2404              		.align	2
 2405              		.p2align 4,,15
 2406              		.global	lwip_read
 2407              		.thumb
 2408              		.thumb_func
 2409              		.type	lwip_read, %function
 2410              	lwip_read:
 2411              	.LFB18:
 2412              		.loc 1 743 0
 2413              		.cfi_startproc
 2414              		@ args = 0, pretend = 0, frame = 0
 2415              		@ frame_needed = 0, uses_anonymous_args = 0
 2416              	.LVL297:
 2417 0000 00B5     		push	{lr}
 2418              	.LCFI20:
 2419              		.cfi_def_cfa_offset 4
 2420              		.cfi_offset 14, -4
 2421 0002 83B0     		sub	sp, sp, #12
 2422              	.LCFI21:
 2423              		.cfi_def_cfa_offset 16
 2424              		.loc 1 744 0
 2425 0004 0023     		movs	r3, #0
 2426 0006 0093     		str	r3, [sp, #0]
 2427 0008 0193     		str	r3, [sp, #4]
 2428 000a FFF7FEFF 		bl	lwip_recvfrom
 2429              	.LVL298:
 2430              		.loc 1 745 0
 2431 000e 03B0     		add	sp, sp, #12
 2432 0010 00BD     		pop	{pc}
 2433              		.cfi_endproc
 2434              	.LFE18:
 2435              		.size	lwip_read, .-lwip_read
 2436 0012 00BFAFF3 		.section	.text.lwip_recv,"ax",%progbits
 2436      0080AFF3 
ARM GAS  C:\Users\jenny\AppData\Local\Temp\ccLg5IEe.s 			page 44


 2436      0080AFF3 
 2436      0080
 2437              		.align	2
 2438              		.p2align 4,,15
 2439              		.global	lwip_recv
 2440              		.thumb
 2441              		.thumb_func
 2442              		.type	lwip_recv, %function
 2443              	lwip_recv:
 2444              	.LFB19:
 2445              		.loc 1 749 0
 2446              		.cfi_startproc
 2447              		@ args = 0, pretend = 0, frame = 0
 2448              		@ frame_needed = 0, uses_anonymous_args = 0
 2449              	.LVL299:
 2450 0000 10B5     		push	{r4, lr}
 2451              	.LCFI22:
 2452              		.cfi_def_cfa_offset 8
 2453              		.cfi_offset 4, -8
 2454              		.cfi_offset 14, -4
 2455 0002 82B0     		sub	sp, sp, #8
 2456              	.LCFI23:
 2457              		.cfi_def_cfa_offset 16
 2458              		.loc 1 750 0
 2459 0004 0024     		movs	r4, #0
 2460 0006 0094     		str	r4, [sp, #0]
 2461 0008 0194     		str	r4, [sp, #4]
 2462 000a FFF7FEFF 		bl	lwip_recvfrom
 2463              	.LVL300:
 2464              		.loc 1 751 0
 2465 000e 02B0     		add	sp, sp, #8
 2466 0010 10BD     		pop	{r4, pc}
 2467              		.cfi_endproc
 2468              	.LFE19:
 2469              		.size	lwip_recv, .-lwip_recv
 2470 0012 00BFAFF3 		.section	.text.lwip_sendto,"ax",%progbits
 2470      0080AFF3 
 2470      0080AFF3 
 2470      0080
 2471              		.align	2
 2472              		.p2align 4,,15
 2473              		.global	lwip_sendto
 2474              		.thumb
 2475              		.thumb_func
 2476              		.type	lwip_sendto, %function
 2477              	lwip_sendto:
 2478              	.LFB21:
 2479              		.loc 1 792 0
 2480              		.cfi_startproc
 2481              		@ args = 8, pretend = 0, frame = 16
 2482              		@ frame_needed = 0, uses_anonymous_args = 0
 2483              	.LVL301:
 2484 0000 2DE9F043 		push	{r4, r5, r6, r7, r8, r9, lr}
 2485              	.LCFI24:
 2486              		.cfi_def_cfa_offset 28
 2487              		.cfi_offset 4, -28
 2488              		.cfi_offset 5, -24
ARM GAS  C:\Users\jenny\AppData\Local\Temp\ccLg5IEe.s 			page 45


 2489              		.cfi_offset 6, -20
 2490              		.cfi_offset 7, -16
 2491              		.cfi_offset 8, -12
 2492              		.cfi_offset 9, -8
 2493              		.cfi_offset 14, -4
 2494 0004 85B0     		sub	sp, sp, #20
 2495              	.LCFI25:
 2496              		.cfi_def_cfa_offset 48
 2497              	.LBB114:
 2498              	.LBB115:
 2499              		.loc 1 199 0
 2500 0006 0328     		cmp	r0, #3
 2501              	.LBE115:
 2502              	.LBE114:
 2503              		.loc 1 792 0
 2504 0008 0646     		mov	r6, r0
 2505              	.LVL302:
 2506 000a 8846     		mov	r8, r1
 2507 000c 1546     		mov	r5, r2
 2508 000e 0C9C     		ldr	r4, [sp, #48]
 2509 0010 0D9F     		ldr	r7, [sp, #52]
 2510              	.LBB117:
 2511              	.LBB116:
 2512              		.loc 1 199 0
 2513 0012 41D8     		bhi	.L389
 2514              		.loc 1 205 0
 2515 0014 00EB4006 		add	r6, r0, r0, lsl #1
 2516 0018 DFF8B8C0 		ldr	ip, .L394+4
 2517 001c F600     		lsls	r6, r6, #3
 2518 001e 0CEB0609 		add	r9, ip, r6
 2519              	.LVL303:
 2520              		.loc 1 207 0
 2521 0022 5CF80660 		ldr	r6, [ip, r6]
 2522 0026 002E     		cmp	r6, #0
 2523 0028 36D0     		beq	.L389
 2524              	.LBE116:
 2525              	.LBE117:
 2526              		.loc 1 807 0
 2527 002a 3678     		ldrb	r6, [r6, #0]	@ zero_extendqisi2
 2528 002c 102E     		cmp	r6, #16
 2529 002e 4CD0     		beq	.L390
 2530              		.loc 1 818 0
 2531 0030 B5F5803F 		cmp	r5, #65536
 2532 0034 35D2     		bcs	.L391
 2533              		.loc 1 819 0
 2534 0036 AEB2     		uxth	r6, r5
 2535              	.LVL304:
 2536              		.loc 1 820 0
 2537 0038 002C     		cmp	r4, #0
 2538 003a 37D0     		beq	.L392
 2539              	.LVL305:
 2540              	.L373:
 2541              		.loc 1 820 0 is_stmt 0 discriminator 1
 2542 003c 102F     		cmp	r7, #16
 2543 003e 26D1     		bne	.L375
 2544              		.loc 1 820 0 discriminator 4
 2545 0040 6378     		ldrb	r3, [r4, #1]	@ zero_extendqisi2
ARM GAS  C:\Users\jenny\AppData\Local\Temp\ccLg5IEe.s 			page 46


 2546 0042 022B     		cmp	r3, #2
 2547 0044 23D1     		bne	.L375
 2548              		.loc 1 820 0 discriminator 5
 2549 0046 14F00301 		ands	r1, r4, #3
 2550 004a 20D1     		bne	.L375
 2551              	.LVL306:
 2552              		.loc 1 901 0 is_stmt 1
 2553 004c 6268     		ldr	r2, [r4, #4]
 2554              		.loc 1 902 0
 2555 004e 6088     		ldrh	r0, [r4, #2]
 2556              		.loc 1 896 0
 2557 0050 0191     		str	r1, [sp, #4]
 2558 0052 0091     		str	r1, [sp, #0]
 2559              		.loc 1 901 0
 2560 0054 0292     		str	r2, [sp, #8]
 2561              		.loc 1 902 0
 2562 0056 FFF7FEFF 		bl	lwip_ntohs
 2563              	.LVL307:
 2564              		.loc 1 903 0
 2565 005a ADF80C00 		strh	r0, [sp, #12]	@ movhi
 2566              	.LVL308:
 2567              	.L381:
 2568              		.loc 1 933 0
 2569 005e 6846     		mov	r0, sp
 2570 0060 4146     		mov	r1, r8
 2571 0062 3246     		mov	r2, r6
 2572 0064 FFF7FEFF 		bl	netbuf_ref
 2573              	.LVL309:
 2574              		.loc 1 935 0
 2575 0068 0446     		mov	r4, r0
 2576 006a 0028     		cmp	r0, #0
 2577 006c 26D0     		beq	.L393
 2578              	.LVL310:
 2579              	.L377:
 2580              		.loc 1 941 0
 2581 006e 6846     		mov	r0, sp
 2582 0070 FFF7FEFF 		bl	netbuf_free
 2583              	.LVL311:
 2584              		.loc 1 943 0
 2585 0074 60B2     		sxtb	r0, r4
 2586 0076 4342     		negs	r3, r0
 2587 0078 0F2B     		cmp	r3, #15
 2588 007a 9ABF     		itte	ls
 2589 007c 1449     		ldrls	r1, .L394
 2590 007e 51F82330 		ldrls	r3, [r1, r3, lsl #2]
 2591 0082 0523     		movhi	r3, #5
 2592 0084 C9F81030 		str	r3, [r9, #16]
 2593              		.loc 1 944 0
 2594 0088 34B9     		cbnz	r4, .L389
 2595              		.loc 1 2375 0 discriminator 1
 2596 008a A8B2     		uxth	r0, r5
 2597 008c 06E0     		b	.L386
 2598              	.LVL312:
 2599              	.L375:
 2600              		.loc 1 820 0 discriminator 3
 2601 008e FFF7FEFF 		bl	port_halt
 2602              	.LVL313:
ARM GAS  C:\Users\jenny\AppData\Local\Temp\ccLg5IEe.s 			page 47


 2603 0092 0522     		movs	r2, #5
 2604 0094 C9F81020 		str	r2, [r9, #16]
 2605              	.LVL314:
 2606              	.L389:
 2607 0098 4FF0FF30 		mov	r0, #-1
 2608              	.L386:
 2609              		.loc 1 945 0
 2610 009c 05B0     		add	sp, sp, #20
 2611 009e BDE8F083 		pop	{r4, r5, r6, r7, r8, r9, pc}
 2612              	.LVL315:
 2613              	.L391:
 2614              		.loc 1 818 0 discriminator 1
 2615 00a2 FFF7FEFF 		bl	port_halt
 2616              	.LVL316:
 2617              		.loc 1 819 0 discriminator 1
 2618 00a6 AEB2     		uxth	r6, r5
 2619              	.LVL317:
 2620              		.loc 1 820 0 discriminator 1
 2621 00a8 002C     		cmp	r4, #0
 2622 00aa C7D1     		bne	.L373
 2623              	.LVL318:
 2624              	.L392:
 2625              		.loc 1 820 0 is_stmt 0 discriminator 2
 2626 00ac 002F     		cmp	r7, #0
 2627 00ae C5D1     		bne	.L373
 2628              	.LVL319:
 2629              		.loc 1 896 0 is_stmt 1
 2630 00b0 0197     		str	r7, [sp, #4]
 2631 00b2 0097     		str	r7, [sp, #0]
 2632              	.LVL320:
 2633              		.loc 1 906 0
 2634 00b4 0297     		str	r7, [sp, #8]
 2635              		.loc 1 907 0
 2636 00b6 ADF80C70 		strh	r7, [sp, #12]	@ movhi
 2637 00ba D0E7     		b	.L381
 2638              	.LVL321:
 2639              	.L393:
 2640              		.loc 1 937 0
 2641 00bc D9F80000 		ldr	r0, [r9, #0]
 2642              	.LVL322:
 2643 00c0 6946     		mov	r1, sp
 2644 00c2 FFF7FEFF 		bl	netconn_send
 2645              	.LVL323:
 2646 00c6 0446     		mov	r4, r0
 2647              	.LVL324:
 2648 00c8 D1E7     		b	.L377
 2649              	.LVL325:
 2650              	.L390:
 2651              		.loc 1 809 0
 2652 00ca FFF7FEFF 		bl	lwip_send
 2653              	.LVL326:
 2654 00ce E5E7     		b	.L386
 2655              	.L395:
 2656              		.align	2
 2657              	.L394:
 2658 00d0 00000000 		.word	.LANCHOR1
 2659 00d4 00000000 		.word	.LANCHOR0
ARM GAS  C:\Users\jenny\AppData\Local\Temp\ccLg5IEe.s 			page 48


 2660              		.cfi_endproc
 2661              	.LFE21:
 2662              		.size	lwip_sendto, .-lwip_sendto
 2663 00d8 AFF30080 		.section	.text.lwip_send,"ax",%progbits
 2663      AFF30080 
 2664              		.align	2
 2665              		.p2align 4,,15
 2666              		.global	lwip_send
 2667              		.thumb
 2668              		.thumb_func
 2669              		.type	lwip_send, %function
 2670              	lwip_send:
 2671              	.LFB20:
 2672              		.loc 1 755 0
 2673              		.cfi_startproc
 2674              		@ args = 0, pretend = 0, frame = 8
 2675              		@ frame_needed = 0, uses_anonymous_args = 0
 2676              	.LVL327:
 2677 0000 F0B5     		push	{r4, r5, r6, r7, lr}
 2678              	.LCFI26:
 2679              		.cfi_def_cfa_offset 20
 2680              		.cfi_offset 4, -20
 2681              		.cfi_offset 5, -16
 2682              		.cfi_offset 6, -12
 2683              		.cfi_offset 7, -8
 2684              		.cfi_offset 14, -4
 2685              	.LBB118:
 2686              	.LBB119:
 2687              		.loc 1 199 0
 2688 0002 0328     		cmp	r0, #3
 2689              	.LBE119:
 2690              	.LBE118:
 2691              		.loc 1 755 0
 2692 0004 85B0     		sub	sp, sp, #20
 2693              	.LCFI27:
 2694              		.cfi_def_cfa_offset 40
 2695              		.loc 1 755 0
 2696 0006 0446     		mov	r4, r0
 2697              	.LVL328:
 2698 0008 1D46     		mov	r5, r3
 2699              	.LBB121:
 2700              	.LBB120:
 2701              		.loc 1 199 0
 2702 000a 27D8     		bhi	.L399
 2703              		.loc 1 205 0
 2704 000c 00EB4004 		add	r4, r0, r0, lsl #1
 2705 0010 174E     		ldr	r6, .L416
 2706 0012 E400     		lsls	r4, r4, #3
 2707 0014 3719     		adds	r7, r6, r4
 2708              	.LVL329:
 2709              		.loc 1 207 0
 2710 0016 3659     		ldr	r6, [r6, r4]
 2711 0018 06B3     		cbz	r6, .L399
 2712              	.LBE120:
 2713              	.LBE121:
 2714              		.loc 1 769 0
 2715 001a 3478     		ldrb	r4, [r6, #0]	@ zero_extendqisi2
ARM GAS  C:\Users\jenny\AppData\Local\Temp\ccLg5IEe.s 			page 49


 2716 001c 102C     		cmp	r4, #16
 2717 001e 21D1     		bne	.L415
 2718              		.loc 1 778 0
 2719 0020 15F0100F 		tst	r5, #16
 2720              		.loc 1 781 0
 2721 0024 04AC     		add	r4, sp, #16
 2722              		.loc 1 778 0
 2723 0026 0CBF     		ite	eq
 2724 0028 0123     		moveq	r3, #1
 2725 002a 0323     		movne	r3, #3
 2726              	.LVL330:
 2727              		.loc 1 781 0
 2728 002c 0020     		movs	r0, #0
 2729              	.LVL331:
 2730 002e 44F8040D 		str	r0, [r4, #-4]!
 2731              	.LVL332:
 2732              		.loc 1 778 0
 2733 0032 15F0080F 		tst	r5, #8
 2734 0036 0CBF     		ite	eq
 2735 0038 0546     		moveq	r5, r0
 2736 003a 0425     		movne	r5, #4
 2737              	.LVL333:
 2738              		.loc 1 782 0
 2739 003c 0094     		str	r4, [sp, #0]
 2740 003e 3046     		mov	r0, r6
 2741 0040 2B43     		orrs	r3, r3, r5
 2742              	.LVL334:
 2743 0042 FFF7FEFF 		bl	netconn_write_partly
 2744              	.LVL335:
 2745              		.loc 1 785 0
 2746 0046 4142     		negs	r1, r0
 2747 0048 0F29     		cmp	r1, #15
 2748 004a 9ABF     		itte	ls
 2749 004c 094A     		ldrls	r2, .L416+4
 2750 004e 52F82110 		ldrls	r1, [r2, r1, lsl #2]
 2751 0052 0521     		movhi	r1, #5
 2752 0054 3961     		str	r1, [r7, #16]
 2753              		.loc 1 786 0
 2754 0056 08B9     		cbnz	r0, .L399
 2755              	.LVL336:
 2756              		.loc 1 786 0 is_stmt 0 discriminator 1
 2757 0058 0398     		ldr	r0, [sp, #12]
 2758              	.LVL337:
 2759 005a 01E0     		b	.L412
 2760              	.LVL338:
 2761              	.L399:
 2762              		.loc 1 766 0 is_stmt 1
 2763 005c 4FF0FF30 		mov	r0, #-1
 2764              	.L412:
 2765              		.loc 1 787 0
 2766 0060 05B0     		add	sp, sp, #20
 2767 0062 F0BD     		pop	{r4, r5, r6, r7, pc}
 2768              	.LVL339:
 2769              	.L415:
 2770              		.loc 1 771 0
 2771 0064 0024     		movs	r4, #0
 2772 0066 0094     		str	r4, [sp, #0]
ARM GAS  C:\Users\jenny\AppData\Local\Temp\ccLg5IEe.s 			page 50


 2773 0068 0194     		str	r4, [sp, #4]
 2774 006a FFF7FEFF 		bl	lwip_sendto
 2775              	.LVL340:
 2776 006e F7E7     		b	.L412
 2777              	.L417:
 2778              		.align	2
 2779              	.L416:
 2780 0070 00000000 		.word	.LANCHOR0
 2781 0074 00000000 		.word	.LANCHOR1
 2782              		.cfi_endproc
 2783              	.LFE20:
 2784              		.size	lwip_send, .-lwip_send
 2785 0078 AFF30080 		.section	.text.lwip_socket,"ax",%progbits
 2785      AFF30080 
 2786              		.align	2
 2787              		.p2align 4,,15
 2788              		.global	lwip_socket
 2789              		.thumb
 2790              		.thumb_func
 2791              		.type	lwip_socket, %function
 2792              	lwip_socket:
 2793              	.LFB22:
 2794              		.loc 1 949 0
 2795              		.cfi_startproc
 2796              		@ args = 0, pretend = 0, frame = 0
 2797              		@ frame_needed = 0, uses_anonymous_args = 0
 2798              	.LVL341:
 2799              		.loc 1 956 0
 2800 0000 0229     		cmp	r1, #2
 2801              		.loc 1 949 0
 2802 0002 38B5     		push	{r3, r4, r5, lr}
 2803              	.LCFI28:
 2804              		.cfi_def_cfa_offset 16
 2805              		.cfi_offset 3, -16
 2806              		.cfi_offset 4, -12
 2807              		.cfi_offset 5, -8
 2808              		.cfi_offset 14, -4
 2809              		.loc 1 956 0
 2810 0004 29D0     		beq	.L421
 2811 0006 0329     		cmp	r1, #3
 2812 0008 1ED0     		beq	.L422
 2813 000a 0129     		cmp	r1, #1
 2814 000c 03D0     		beq	.L435
 2815              	.LVL342:
 2816              	.L434:
 2817              		.loc 1 981 0
 2818 000e 4FF0FF34 		mov	r4, #-1
 2819              	.L419:
 2820              		.loc 1 1001 0
 2821 0012 2046     		mov	r0, r4
 2822 0014 38BD     		pop	{r3, r4, r5, pc}
 2823              	.LVL343:
 2824              	.L435:
 2825              		.loc 1 969 0
 2826 0016 1020     		movs	r0, #16
 2827              	.LVL344:
 2828 0018 0021     		movs	r1, #0
ARM GAS  C:\Users\jenny\AppData\Local\Temp\ccLg5IEe.s 			page 51


 2829              	.LVL345:
 2830 001a 164A     		ldr	r2, .L436
 2831              	.LVL346:
 2832 001c FFF7FEFF 		bl	netconn_new_with_proto_and_callback
 2833              	.LVL347:
 2834              		.loc 1 972 0
 2835 0020 0546     		mov	r5, r0
 2836 0022 0028     		cmp	r0, #0
 2837 0024 F3D0     		beq	.L434
 2838              		.loc 1 974 0 discriminator 1
 2839 0026 037F     		ldrb	r3, [r0, #28]	@ zero_extendqisi2
 2840 0028 43F00800 		orr	r0, r3, #8
 2841              	.LVL348:
 2842 002c 2877     		strb	r0, [r5, #28]
 2843              	.L426:
 2844              		.loc 1 990 0
 2845 002e 0021     		movs	r1, #0
 2846 0030 2846     		mov	r0, r5
 2847 0032 FFF7FEFF 		bl	alloc_socket
 2848              	.LVL349:
 2849              		.loc 1 992 0
 2850 0036 421C     		adds	r2, r0, #1
 2851              		.loc 1 990 0
 2852 0038 0446     		mov	r4, r0
 2853              	.LVL350:
 2854              		.loc 1 997 0
 2855 003a 18BF     		it	ne
 2856 003c A861     		strne	r0, [r5, #24]
 2857              		.loc 1 992 0
 2858 003e E8D1     		bne	.L419
 2859              		.loc 1 993 0
 2860 0040 2846     		mov	r0, r5
 2861              	.LVL351:
 2862 0042 FFF7FEFF 		bl	netconn_delete
 2863              	.LVL352:
 2864              		.loc 1 995 0
 2865 0046 E4E7     		b	.L419
 2866              	.LVL353:
 2867              	.L422:
 2868              		.loc 1 958 0
 2869 0048 D1B2     		uxtb	r1, r2
 2870              	.LVL354:
 2871 004a 4020     		movs	r0, #64
 2872              	.LVL355:
 2873 004c 094A     		ldr	r2, .L436
 2874              	.LVL356:
 2875 004e FFF7FEFF 		bl	netconn_new_with_proto_and_callback
 2876              	.LVL357:
 2877 0052 0546     		mov	r5, r0
 2878              	.LVL358:
 2879              		.loc 1 984 0
 2880 0054 002D     		cmp	r5, #0
 2881 0056 EAD1     		bne	.L426
 2882 0058 D9E7     		b	.L434
 2883              	.LVL359:
 2884              	.L421:
 2885              		.loc 1 963 0
ARM GAS  C:\Users\jenny\AppData\Local\Temp\ccLg5IEe.s 			page 52


 2886 005a 882A     		cmp	r2, #136
 2887 005c 14BF     		ite	ne
 2888 005e 2020     		movne	r0, #32
 2889 0060 2120     		moveq	r0, #33
 2890              	.LVL360:
 2891 0062 0021     		movs	r1, #0
 2892              	.LVL361:
 2893 0064 034A     		ldr	r2, .L436
 2894              	.LVL362:
 2895 0066 FFF7FEFF 		bl	netconn_new_with_proto_and_callback
 2896              	.LVL363:
 2897 006a 0546     		mov	r5, r0
 2898              	.LVL364:
 2899              		.loc 1 984 0
 2900 006c 002D     		cmp	r5, #0
 2901 006e DED1     		bne	.L426
 2902 0070 CDE7     		b	.L434
 2903              	.L437:
 2904 0072 00BF     		.align	2
 2905              	.L436:
 2906 0074 00000000 		.word	event_callback
 2907              		.cfi_endproc
 2908              	.LFE22:
 2909              		.size	lwip_socket, .-lwip_socket
 2910 0078 AFF30080 		.section	.text.lwip_write,"ax",%progbits
 2910      AFF30080 
 2911              		.align	2
 2912              		.p2align 4,,15
 2913              		.global	lwip_write
 2914              		.thumb
 2915              		.thumb_func
 2916              		.type	lwip_write, %function
 2917              	lwip_write:
 2918              	.LFB23:
 2919              		.loc 1 1005 0
 2920              		.cfi_startproc
 2921              		@ args = 0, pretend = 0, frame = 0
 2922              		@ frame_needed = 0, uses_anonymous_args = 0
 2923              		@ link register save eliminated.
 2924              	.LVL365:
 2925              		.loc 1 1006 0
 2926 0000 0023     		movs	r3, #0
 2927              		.loc 1 1007 0
 2928              		.loc 1 1006 0
 2929 0002 FFF7FEBF 		b	lwip_send
 2930              	.LVL366:
 2931              		.cfi_endproc
 2932              	.LFE23:
 2933              		.size	lwip_write, .-lwip_write
 2934 0006 00BFAFF3 		.section	.text.lwip_select,"ax",%progbits
 2934      0080AFF3 
 2934      0080
 2935              		.align	2
 2936              		.p2align 4,,15
 2937              		.global	lwip_select
 2938              		.thumb
 2939              		.thumb_func
ARM GAS  C:\Users\jenny\AppData\Local\Temp\ccLg5IEe.s 			page 53


 2940              		.type	lwip_select, %function
 2941              	lwip_select:
 2942              	.LFB25:
 2943              		.loc 1 1090 0
 2944              		.cfi_startproc
 2945              		@ args = 4, pretend = 0, frame = 56
 2946              		@ frame_needed = 0, uses_anonymous_args = 0
 2947              	.LVL367:
 2948 0000 2DE9F04F 		push	{r4, r5, r6, r7, r8, r9, sl, fp, lr}
 2949              	.LCFI29:
 2950              		.cfi_def_cfa_offset 36
 2951              		.cfi_offset 4, -36
 2952              		.cfi_offset 5, -32
 2953              		.cfi_offset 6, -28
 2954              		.cfi_offset 7, -24
 2955              		.cfi_offset 8, -20
 2956              		.cfi_offset 9, -16
 2957              		.cfi_offset 10, -12
 2958              		.cfi_offset 11, -8
 2959              		.cfi_offset 14, -4
 2960 0004 93B0     		sub	sp, sp, #76
 2961              	.LCFI30:
 2962              		.cfi_def_cfa_offset 112
 2963              		.loc 1 1107 0
 2964 0006 08AC     		add	r4, sp, #32
 2965 0008 0AAF     		add	r7, sp, #40
 2966 000a 09AE     		add	r6, sp, #36
 2967 000c 0094     		str	r4, [sp, #0]
 2968 000e 0196     		str	r6, [sp, #4]
 2969 0010 0297     		str	r7, [sp, #8]
 2970              		.loc 1 1090 0
 2971 0012 8246     		mov	sl, r0
 2972 0014 0C46     		mov	r4, r1
 2973 0016 1546     		mov	r5, r2
 2974 0018 9846     		mov	r8, r3
 2975              		.loc 1 1107 0
 2976 001a FFF7FEFF 		bl	lwip_selscan
 2977              	.LVL368:
 2978              		.loc 1 1110 0
 2979 001e 8146     		mov	r9, r0
 2980 0020 0028     		cmp	r0, #0
 2981 0022 40F03781 		bne	.L440
 2982              		.loc 1 1111 0
 2983 0026 1C9E     		ldr	r6, [sp, #112]
 2984 0028 2EB1     		cbz	r6, .L441
 2985              		.loc 1 1111 0 is_stmt 0 discriminator 1
 2986 002a 3368     		ldr	r3, [r6, #0]
 2987 002c 1BB9     		cbnz	r3, .L441
 2988 002e 7068     		ldr	r0, [r6, #4]
 2989              	.LVL369:
 2990 0030 0028     		cmp	r0, #0
 2991 0032 00F02F81 		beq	.L440
 2992              	.L441:
 2993              		.loc 1 1123 0 is_stmt 1
 2994 0036 0022     		movs	r2, #0
 2995              		.loc 1 1129 0
 2996 0038 0BAE     		add	r6, sp, #44
ARM GAS  C:\Users\jenny\AppData\Local\Temp\ccLg5IEe.s 			page 54


 2997 003a 11A8     		add	r0, sp, #68
 2998 003c 1146     		mov	r1, r2
 2999              		.loc 1 1123 0
 3000 003e 0B92     		str	r2, [sp, #44]
 3001              		.loc 1 1124 0
 3002 0040 0C92     		str	r2, [sp, #48]
 3003              		.loc 1 1125 0
 3004 0042 0D94     		str	r4, [sp, #52]
 3005              		.loc 1 1126 0
 3006 0044 0E95     		str	r5, [sp, #56]
 3007              		.loc 1 1127 0
 3008 0046 CDF83C80 		str	r8, [sp, #60]
 3009              		.loc 1 1128 0
 3010 004a 1092     		str	r2, [sp, #64]
 3011              		.loc 1 1129 0
 3012 004c 0696     		str	r6, [sp, #24]
 3013 004e FFF7FEFF 		bl	sys_sem_new
 3014              	.LVL370:
 3015              		.loc 1 1130 0
 3016 0052 0028     		cmp	r0, #0
 3017 0054 40F06982 		bne	.L475
 3018              		.loc 1 1140 0
 3019 0058 40F20001 		movw	r1, #:lower16:.LANCHOR2
 3020 005c C0F20001 		movt	r1, #:upper16:.LANCHOR2
 3021 0060 0E68     		ldr	r6, [r1, #0]
 3022 0062 0B96     		str	r6, [sp, #44]
 3023              		.loc 1 1141 0
 3024 0064 0EB1     		cbz	r6, .L443
 3025              		.loc 1 1142 0
 3026 0066 0BAB     		add	r3, sp, #44
 3027 0068 7360     		str	r3, [r6, #4]
 3028              	.L443:
 3029              		.loc 1 1146 0
 3030 006a 40F20001 		movw	r1, #:lower16:.LANCHOR3
 3031 006e C0F20001 		movt	r1, #:upper16:.LANCHOR3
 3032              		.loc 1 1144 0
 3033 0072 40F20002 		movw	r2, #:lower16:.LANCHOR2
 3034              		.loc 1 1146 0
 3035 0076 0E68     		ldr	r6, [r1, #0]
 3036              		.loc 1 1144 0
 3037 0078 C0F20002 		movt	r2, #:upper16:.LANCHOR2
 3038              		.loc 1 1146 0
 3039 007c 731C     		adds	r3, r6, #1
 3040              		.loc 1 1144 0
 3041 007e 0BA8     		add	r0, sp, #44
 3042              	.LVL371:
 3043              		.loc 1 1152 0
 3044 0080 BAF1000F 		cmp	sl, #0
 3045              		.loc 1 1144 0
 3046 0084 1060     		str	r0, [r2, #0]
 3047              		.loc 1 1146 0
 3048 0086 0B60     		str	r3, [r1, #0]
 3049              	.LVL372:
 3050              		.loc 1 1152 0
 3051 0088 40F38580 		ble	.L454
 3052 008c 0AF1FF30 		add	r0, sl, #-1
 3053              	.LBB122:
ARM GAS  C:\Users\jenny\AppData\Local\Temp\ccLg5IEe.s 			page 55


 3054              	.LBB123:
 3055              	.LBB124:
 3056              		.loc 1 228 0
 3057 0090 B04E     		ldr	r6, .L652
 3058 0092 00F00101 		and	r1, r0, #1
 3059              	.LBE124:
 3060              	.LBE123:
 3061              	.LBE122:
 3062              		.loc 1 1153 0
 3063 0096 002C     		cmp	r4, #0
 3064 0098 00F0C581 		beq	.L537
 3065 009c 2278     		ldrb	r2, [r4, #0]	@ zero_extendqisi2
 3066 009e D307     		lsls	r3, r2, #31
 3067 00a0 40F1C181 		bpl	.L537
 3068              	.L542:
 3069              	.LBB135:
 3070              	.LBB130:
 3071              	.LBB125:
 3072              		.loc 1 228 0
 3073 00a4 D6F80090 		ldr	r9, [r6, #0]
 3074              	.LVL373:
 3075 00a8 B9F1000F 		cmp	r9, #0
 3076 00ac 00F00982 		beq	.L642
 3077              		.loc 1 231 0
 3078 00b0 3246     		mov	r2, r6
 3079              	.L618:
 3080              	.LBE125:
 3081              	.LBE130:
 3082              		.loc 1 1159 0
 3083 00b2 5369     		ldr	r3, [r2, #20]
 3084 00b4 581C     		adds	r0, r3, #1
 3085              		.loc 1 1160 0
 3086 00b6 0028     		cmp	r0, #0
 3087              		.loc 1 1159 0
 3088 00b8 5061     		str	r0, [r2, #20]
 3089              		.loc 1 1160 0
 3090 00ba 40F32A82 		ble	.L643
 3091              	.L539:
 3092              	.LBE135:
 3093              		.loc 1 1152 0
 3094 00be 4FF00109 		mov	r9, #1
 3095              	.LVL374:
 3096 00c2 D145     		cmp	r9, sl
 3097 00c4 4FF0180B 		mov	fp, #24
 3098 00c8 65D0     		beq	.L454
 3099 00ca E9B1     		cbz	r1, .L444
 3100              		.loc 1 1153 0
 3101 00cc 002C     		cmp	r4, #0
 3102 00ce 00F0C981 		beq	.L544
 3103 00d2 2178     		ldrb	r1, [r4, #0]	@ zero_extendqisi2
 3104 00d4 41FA09F2 		asr	r2, r1, r9
 3105 00d8 D207     		lsls	r2, r2, #31
 3106 00da 40F1C381 		bpl	.L544
 3107              	.L549:
 3108              	.LBB136:
 3109              	.LBB131:
 3110              	.LBB126:
ARM GAS  C:\Users\jenny\AppData\Local\Temp\ccLg5IEe.s 			page 56


 3111              		.loc 1 225 0
 3112 00de B9F1030F 		cmp	r9, #3
 3113 00e2 00F2F481 		bhi	.L545
 3114              		.loc 1 228 0
 3115 00e6 5BF80630 		ldr	r3, [fp, r6]
 3116 00ea 002B     		cmp	r3, #0
 3117 00ec 00F0EF81 		beq	.L545
 3118              		.loc 1 231 0
 3119 00f0 09EB4900 		add	r0, r9, r9, lsl #1
 3120 00f4 06EBC001 		add	r1, r6, r0, lsl #3
 3121              	.L622:
 3122              	.LBE126:
 3123              	.LBE131:
 3124              		.loc 1 1159 0
 3125 00f8 4A69     		ldr	r2, [r1, #20]
 3126 00fa 531C     		adds	r3, r2, #1
 3127              		.loc 1 1160 0
 3128 00fc 002B     		cmp	r3, #0
 3129              		.loc 1 1159 0
 3130 00fe 4B61     		str	r3, [r1, #20]
 3131              		.loc 1 1160 0
 3132 0100 43DC     		bgt	.L554
 3133              	.L634:
 3134 0102 FFF7FEFF 		bl	port_halt
 3135              	.LVL375:
 3136 0106 40E0     		b	.L554
 3137              	.L444:
 3138              	.LBE136:
 3139              		.loc 1 1153 0
 3140 0108 44B1     		cbz	r4, .L447
 3141              		.loc 1 1153 0 is_stmt 0 discriminator 1
 3142 010a 4FEAE902 		asr	r2, r9, #3
 3143 010e 09F00703 		and	r3, r9, #7
 3144 0112 A15C     		ldrb	r1, [r4, r2]	@ zero_extendqisi2
 3145 0114 41FA03F0 		asr	r0, r1, r3
 3146 0118 C107     		lsls	r1, r0, #31
 3147 011a 0CD4     		bmi	.L448
 3148              	.L447:
 3149              		.loc 1 1153 0 discriminator 2
 3150 011c 002D     		cmp	r5, #0
 3151 011e 00F09181 		beq	.L449
 3152              		.loc 1 1154 0 is_stmt 1
 3153 0122 4FEAE902 		asr	r2, r9, #3
 3154 0126 09F00703 		and	r3, r9, #7
 3155 012a A95C     		ldrb	r1, [r5, r2]	@ zero_extendqisi2
 3156 012c 41FA03F0 		asr	r0, r1, r3
 3157 0130 C207     		lsls	r2, r0, #31
 3158 0132 40F18781 		bpl	.L449
 3159              	.L448:
 3160              	.LBB137:
 3161              	.LBB132:
 3162              	.LBB127:
 3163              		.loc 1 225 0
 3164 0136 B9F1030F 		cmp	r9, #3
 3165 013a 40F2E380 		bls	.L644
 3166              	.L453:
 3167              	.LBE127:
ARM GAS  C:\Users\jenny\AppData\Local\Temp\ccLg5IEe.s 			page 57


 3168              	.LBE132:
 3169              		.loc 1 1157 0
 3170 013e FFF7FEFF 		bl	port_halt
 3171              	.LVL376:
 3172 0142 0021     		movs	r1, #0
 3173              	.L473:
 3174              		.loc 1 1159 0
 3175 0144 4869     		ldr	r0, [r1, #20]
 3176 0146 421C     		adds	r2, r0, #1
 3177              		.loc 1 1160 0
 3178 0148 002A     		cmp	r2, #0
 3179              		.loc 1 1159 0
 3180 014a 4A61     		str	r2, [r1, #20]
 3181              		.loc 1 1160 0
 3182 014c 40F3D281 		ble	.L645
 3183              	.L451:
 3184              	.LBE137:
 3185              		.loc 1 1152 0
 3186 0150 09F10109 		add	r9, r9, #1
 3187 0154 0BF1180B 		add	fp, fp, #24
 3188              		.loc 1 1153 0
 3189 0158 002C     		cmp	r4, #0
 3190 015a 00F0AE80 		beq	.L552
 3191 015e 4FEAE901 		asr	r1, r9, #3
 3192 0162 09F00703 		and	r3, r9, #7
 3193 0166 605C     		ldrb	r0, [r4, r1]	@ zero_extendqisi2
 3194 0168 40FA03F2 		asr	r2, r0, r3
 3195 016c D107     		lsls	r1, r2, #31
 3196 016e 40F1A480 		bpl	.L552
 3197              	.L557:
 3198              	.LBB138:
 3199              	.LBB133:
 3200              	.LBB128:
 3201              		.loc 1 225 0
 3202 0172 B9F1030F 		cmp	r9, #3
 3203 0176 40F2BB80 		bls	.L624
 3204              	.L553:
 3205              	.LBE128:
 3206              	.LBE133:
 3207              		.loc 1 1157 0
 3208 017a FFF7FEFF 		bl	port_halt
 3209              	.LVL377:
 3210 017e 0020     		movs	r0, #0
 3211              	.L625:
 3212              		.loc 1 1159 0
 3213 0180 4269     		ldr	r2, [r0, #20]
 3214 0182 511C     		adds	r1, r2, #1
 3215              		.loc 1 1160 0
 3216 0184 0029     		cmp	r1, #0
 3217              		.loc 1 1159 0
 3218 0186 4161     		str	r1, [r0, #20]
 3219              		.loc 1 1160 0
 3220 0188 BBDD     		ble	.L634
 3221              	.L554:
 3222              	.LBE138:
 3223              		.loc 1 1152 0
 3224 018a 09F10109 		add	r9, r9, #1
ARM GAS  C:\Users\jenny\AppData\Local\Temp\ccLg5IEe.s 			page 58


 3225 018e D145     		cmp	r9, sl
 3226 0190 0BF1180B 		add	fp, fp, #24
 3227 0194 B8D1     		bne	.L444
 3228              	.L454:
 3229              		.loc 1 1167 0
 3230 0196 09A8     		add	r0, sp, #36
 3231 0198 08AE     		add	r6, sp, #32
 3232 019a 0190     		str	r0, [sp, #4]
 3233 019c 0096     		str	r6, [sp, #0]
 3234 019e 0297     		str	r7, [sp, #8]
 3235 01a0 5046     		mov	r0, sl
 3236 01a2 2146     		mov	r1, r4
 3237 01a4 2A46     		mov	r2, r5
 3238 01a6 4346     		mov	r3, r8
 3239 01a8 FFF7FEFF 		bl	lwip_selscan
 3240              	.LVL378:
 3241              		.loc 1 1168 0
 3242 01ac 8146     		mov	r9, r0
 3243 01ae 0028     		cmp	r0, #0
 3244 01b0 00F0B280 		beq	.L445
 3245              		.loc 1 1091 0
 3246 01b4 0021     		movs	r1, #0
 3247 01b6 0791     		str	r1, [sp, #28]
 3248              	.LVL379:
 3249              	.L446:
 3250              		.loc 1 1184 0
 3251 01b8 BAF1000F 		cmp	sl, #0
 3252 01bc 3FDD     		ble	.L466
 3253 01be 0AF1FF30 		add	r0, sl, #-1
 3254              	.LBB139:
 3255              	.LBB140:
 3256              	.LBB141:
 3257              		.loc 1 228 0
 3258 01c2 644A     		ldr	r2, .L652
 3259 01c4 00F00103 		and	r3, r0, #1
 3260              	.LBE141:
 3261              	.LBE140:
 3262              	.LBE139:
 3263              		.loc 1 1185 0
 3264 01c8 002C     		cmp	r4, #0
 3265 01ca 00F01D81 		beq	.L515
 3266 01ce 2178     		ldrb	r1, [r4, #0]	@ zero_extendqisi2
 3267 01d0 C907     		lsls	r1, r1, #31
 3268 01d2 40F11981 		bpl	.L515
 3269              	.L520:
 3270              	.LBB148:
 3271              	.LBB145:
 3272              	.LBB142:
 3273              		.loc 1 228 0
 3274 01d6 1668     		ldr	r6, [r2, #0]
 3275 01d8 002E     		cmp	r6, #0
 3276 01da 00F06A81 		beq	.L646
 3277              		.loc 1 231 0
 3278 01de 1046     		mov	r0, r2
 3279              	.L608:
 3280              	.LBE142:
 3281              	.LBE145:
ARM GAS  C:\Users\jenny\AppData\Local\Temp\ccLg5IEe.s 			page 59


 3282              		.loc 1 1191 0
 3283 01e0 4169     		ldr	r1, [r0, #20]
 3284 01e2 4E1E     		subs	r6, r1, #1
 3285              		.loc 1 1192 0
 3286 01e4 002E     		cmp	r6, #0
 3287              		.loc 1 1191 0
 3288 01e6 4661     		str	r6, [r0, #20]
 3289              		.loc 1 1192 0
 3290 01e8 C0F28C81 		blt	.L647
 3291              	.L517:
 3292              	.LBE148:
 3293              		.loc 1 1184 0
 3294 01ec 0126     		movs	r6, #1
 3295              	.LVL380:
 3296 01ee 5645     		cmp	r6, sl
 3297 01f0 4FF0180B 		mov	fp, #24
 3298 01f4 23D0     		beq	.L466
 3299 01f6 002B     		cmp	r3, #0
 3300 01f8 00F0AE80 		beq	.L456
 3301              		.loc 1 1185 0
 3302 01fc 002C     		cmp	r4, #0
 3303 01fe 00F0D480 		beq	.L530
 3304 0202 2378     		ldrb	r3, [r4, #0]	@ zero_extendqisi2
 3305 0204 43FA06F3 		asr	r3, r3, r6
 3306 0208 DB07     		lsls	r3, r3, #31
 3307 020a 40F1CE80 		bpl	.L530
 3308              	.L535:
 3309              	.LBB149:
 3310              	.LBB146:
 3311              	.LBB143:
 3312              		.loc 1 225 0
 3313 020e 032E     		cmp	r6, #3
 3314 0210 00F24381 		bhi	.L531
 3315              		.loc 1 228 0
 3316 0214 52F80B00 		ldr	r0, [r2, fp]
 3317 0218 0028     		cmp	r0, #0
 3318 021a 00F03E81 		beq	.L531
 3319              		.loc 1 231 0
 3320 021e 06EB4601 		add	r1, r6, r6, lsl #1
 3321 0222 02EBC100 		add	r0, r2, r1, lsl #3
 3322              	.L615:
 3323              	.LBE143:
 3324              	.LBE146:
 3325              		.loc 1 1191 0
 3326 0226 4369     		ldr	r3, [r0, #20]
 3327 0228 591E     		subs	r1, r3, #1
 3328              		.loc 1 1192 0
 3329 022a 0029     		cmp	r1, #0
 3330              		.loc 1 1191 0
 3331 022c 4161     		str	r1, [r0, #20]
 3332              		.loc 1 1192 0
 3333 022e C0F25281 		blt	.L648
 3334              	.L532:
 3335              	.LBE149:
 3336              		.loc 1 1184 0
 3337 0232 0136     		adds	r6, r6, #1
 3338 0234 5645     		cmp	r6, sl
ARM GAS  C:\Users\jenny\AppData\Local\Temp\ccLg5IEe.s 			page 60


 3339 0236 0BF1180B 		add	fp, fp, #24
 3340 023a 40F08D80 		bne	.L456
 3341              	.L466:
 3342              		.loc 1 1198 0
 3343 023e 0B9B     		ldr	r3, [sp, #44]
 3344 0240 0BB1     		cbz	r3, .L458
 3345              		.loc 1 1199 0
 3346 0242 0C9A     		ldr	r2, [sp, #48]
 3347 0244 5A60     		str	r2, [r3, #4]
 3348              	.L458:
 3349              		.loc 1 1201 0
 3350 0246 40F20000 		movw	r0, #:lower16:.LANCHOR2
 3351 024a C0F20000 		movt	r0, #:upper16:.LANCHOR2
 3352 024e 069E     		ldr	r6, [sp, #24]
 3353 0250 0168     		ldr	r1, [r0, #0]
 3354              		.loc 1 1202 0
 3355 0252 0C9A     		ldr	r2, [sp, #48]
 3356              		.loc 1 1201 0
 3357 0254 B142     		cmp	r1, r6
 3358 0256 00F04381 		beq	.L649
 3359              		.loc 1 1205 0
 3360 025a 002A     		cmp	r2, #0
 3361 025c 00F06081 		beq	.L650
 3362              	.L470:
 3363              		.loc 1 1206 0
 3364 0260 1360     		str	r3, [r2, #0]
 3365              	.L469:
 3366              		.loc 1 1209 0
 3367 0262 40F20001 		movw	r1, #:lower16:.LANCHOR3
 3368 0266 C0F20001 		movt	r1, #:upper16:.LANCHOR3
 3369              		.loc 1 1212 0
 3370 026a 11A8     		add	r0, sp, #68
 3371              		.loc 1 1209 0
 3372 026c 0A68     		ldr	r2, [r1, #0]
 3373 026e 531C     		adds	r3, r2, #1
 3374 0270 0B60     		str	r3, [r1, #0]
 3375              		.loc 1 1212 0
 3376 0272 FFF7FEFF 		bl	sys_sem_free
 3377              	.LVL381:
 3378              		.loc 1 1213 0
 3379 0276 0798     		ldr	r0, [sp, #28]
 3380 0278 431C     		adds	r3, r0, #1
 3381 027a 0BD0     		beq	.L440
 3382              		.loc 1 1222 0
 3383 027c 09A9     		add	r1, sp, #36
 3384 027e 08AE     		add	r6, sp, #32
 3385 0280 0191     		str	r1, [sp, #4]
 3386 0282 0096     		str	r6, [sp, #0]
 3387 0284 0297     		str	r7, [sp, #8]
 3388 0286 5046     		mov	r0, sl
 3389 0288 2146     		mov	r1, r4
 3390 028a 2A46     		mov	r2, r5
 3391 028c 4346     		mov	r3, r8
 3392 028e FFF7FEFF 		bl	lwip_selscan
 3393              	.LVL382:
 3394 0292 8146     		mov	r9, r0
 3395              	.LVL383:
ARM GAS  C:\Users\jenny\AppData\Local\Temp\ccLg5IEe.s 			page 61


 3396              	.L440:
 3397              		.loc 1 1228 0
 3398 0294 14B1     		cbz	r4, .L471
 3399              		.loc 1 1229 0
 3400 0296 9DF82030 		ldrb	r3, [sp, #32]	@ zero_extendqisi2
 3401 029a 2370     		strb	r3, [r4, #0]
 3402              	.L471:
 3403              		.loc 1 1231 0
 3404 029c 15B1     		cbz	r5, .L472
 3405              		.loc 1 1232 0
 3406 029e 9DF82400 		ldrb	r0, [sp, #36]	@ zero_extendqisi2
 3407 02a2 2870     		strb	r0, [r5, #0]
 3408              	.L472:
 3409              		.loc 1 1234 0
 3410 02a4 B8F1000F 		cmp	r8, #0
 3411 02a8 03D0     		beq	.L496
 3412              		.loc 1 1235 0
 3413 02aa 9DF82820 		ldrb	r2, [sp, #40]	@ zero_extendqisi2
 3414 02ae 88F80020 		strb	r2, [r8, #0]
 3415              	.LVL384:
 3416              	.L496:
 3417              		.loc 1 1240 0
 3418 02b2 4846     		mov	r0, r9
 3419 02b4 13B0     		add	sp, sp, #76
 3420 02b6 BDE8F08F 		pop	{r4, r5, r6, r7, r8, r9, sl, fp, pc}
 3421              	.LVL385:
 3422              	.L552:
 3423              		.loc 1 1153 0
 3424 02ba 4DB1     		cbz	r5, .L555
 3425              		.loc 1 1154 0
 3426 02bc 4FEAE901 		asr	r1, r9, #3
 3427 02c0 09F00703 		and	r3, r9, #7
 3428 02c4 685C     		ldrb	r0, [r5, r1]	@ zero_extendqisi2
 3429 02c6 40FA03F2 		asr	r2, r0, r3
 3430 02ca D007     		lsls	r0, r2, #31
 3431 02cc 3FF551AF 		bmi	.L557
 3432              	.L555:
 3433 02d0 B8F1000F 		cmp	r8, #0
 3434 02d4 3FF459AF 		beq	.L554
 3435              		.loc 1 1155 0
 3436 02d8 4FEAE901 		asr	r1, r9, #3
 3437 02dc 09F00703 		and	r3, r9, #7
 3438 02e0 18F80100 		ldrb	r0, [r8, r1]	@ zero_extendqisi2
 3439 02e4 40FA03F2 		asr	r2, r0, r3
 3440 02e8 D307     		lsls	r3, r2, #31
 3441 02ea 7FF54EAF 		bpl	.L554
 3442 02ee 40E7     		b	.L557
 3443              	.L624:
 3444              	.LBB150:
 3445              	.LBB134:
 3446              	.LBB129:
 3447              		.loc 1 228 0
 3448 02f0 56F80B10 		ldr	r1, [r6, fp]
 3449 02f4 0029     		cmp	r1, #0
 3450 02f6 3FF440AF 		beq	.L553
 3451              		.loc 1 231 0
 3452 02fa 09EB4903 		add	r3, r9, r9, lsl #1
ARM GAS  C:\Users\jenny\AppData\Local\Temp\ccLg5IEe.s 			page 62


 3453 02fe 06EBC300 		add	r0, r6, r3, lsl #3
 3454 0302 3DE7     		b	.L625
 3455              	.L644:
 3456              		.loc 1 228 0
 3457 0304 5BF80620 		ldr	r2, [fp, r6]
 3458 0308 002A     		cmp	r2, #0
 3459 030a 3FF418AF 		beq	.L453
 3460              		.loc 1 231 0
 3461 030e 09EB4903 		add	r3, r9, r9, lsl #1
 3462 0312 06EBC301 		add	r1, r6, r3, lsl #3
 3463 0316 15E7     		b	.L473
 3464              	.LVL386:
 3465              	.L445:
 3466              	.LBE129:
 3467              	.LBE134:
 3468              	.LBE150:
 3469              		.loc 1 1170 0
 3470 0318 1C9A     		ldr	r2, [sp, #112]
 3471 031a 002A     		cmp	r2, #0
 3472 031c 00F0FE80 		beq	.L477
 3473              		.loc 1 1174 0
 3474 0320 92E80900 		ldmia	r2, {r0, r3}
 3475              	.LVL387:
 3476 0324 44F6D356 		movw	r6, #19923
 3477 0328 03F5FA73 		add	r3, r3, #500
 3478 032c C1F26206 		movt	r6, 4194
 3479 0330 86FB0312 		smull	r1, r2, r6, r3
 3480 0334 D917     		asrs	r1, r3, #31
 3481 0336 C1EBA216 		rsb	r6, r1, r2, asr #6
 3482 033a 4FF47A73 		mov	r3, #1000
 3483 033e 03FB0061 		mla	r1, r3, r0, r6
 3484              	.LVL388:
 3485              		.loc 1 1177 0
 3486 0342 0029     		cmp	r1, #0
 3487 0344 08BF     		it	eq
 3488 0346 0121     		moveq	r1, #1
 3489              	.LVL389:
 3490              	.L455:
 3491              		.loc 1 1181 0
 3492 0348 11A8     		add	r0, sp, #68
 3493 034a FFF7FEFF 		bl	sys_arch_sem_wait
 3494              	.LVL390:
 3495 034e 0790     		str	r0, [sp, #28]
 3496              	.LVL391:
 3497 0350 32E7     		b	.L446
 3498              	.L653:
 3499 0352 00BF     		.align	2
 3500              	.L652:
 3501 0354 00000000 		.word	.LANCHOR0
 3502              	.LVL392:
 3503              	.L456:
 3504              		.loc 1 1185 0
 3505 0358 002C     		cmp	r4, #0
 3506 035a 3FD0     		beq	.L459
 3507              		.loc 1 1185 0 is_stmt 0 discriminator 1
 3508 035c F010     		asrs	r0, r6, #3
 3509 035e 06F00703 		and	r3, r6, #7
ARM GAS  C:\Users\jenny\AppData\Local\Temp\ccLg5IEe.s 			page 63


 3510 0362 215C     		ldrb	r1, [r4, r0]	@ zero_extendqisi2
 3511 0364 41FA03F0 		asr	r0, r1, r3
 3512 0368 C007     		lsls	r0, r0, #31
 3513 036a 37D5     		bpl	.L459
 3514              	.L460:
 3515              	.LBB151:
 3516              	.LBB147:
 3517              	.LBB144:
 3518              		.loc 1 225 0 is_stmt 1
 3519 036c 032E     		cmp	r6, #3
 3520 036e 00F29A80 		bhi	.L465
 3521              		.loc 1 228 0
 3522 0372 5BF80230 		ldr	r3, [fp, r2]
 3523 0376 002B     		cmp	r3, #0
 3524 0378 00F09580 		beq	.L465
 3525              		.loc 1 231 0
 3526 037c 06EB4601 		add	r1, r6, r6, lsl #1
 3527 0380 02EBC100 		add	r0, r2, r1, lsl #3
 3528              	.L474:
 3529              	.LBE144:
 3530              	.LBE147:
 3531              		.loc 1 1191 0
 3532 0384 4369     		ldr	r3, [r0, #20]
 3533 0386 591E     		subs	r1, r3, #1
 3534              		.loc 1 1192 0
 3535 0388 0029     		cmp	r1, #0
 3536              		.loc 1 1191 0
 3537 038a 4161     		str	r1, [r0, #20]
 3538              		.loc 1 1192 0
 3539 038c C0F2B580 		blt	.L651
 3540              	.L463:
 3541              	.LBE151:
 3542              		.loc 1 1184 0
 3543 0390 0136     		adds	r6, r6, #1
 3544 0392 0BF1180B 		add	fp, fp, #24
 3545              		.loc 1 1185 0
 3546 0396 44B1     		cbz	r4, .L530
 3547 0398 F010     		asrs	r0, r6, #3
 3548 039a 06F00703 		and	r3, r6, #7
 3549 039e 215C     		ldrb	r1, [r4, r0]	@ zero_extendqisi2
 3550 03a0 41FA03F0 		asr	r0, r1, r3
 3551 03a4 C307     		lsls	r3, r0, #31
 3552 03a6 3FF532AF 		bmi	.L535
 3553              	.L530:
 3554 03aa 45B1     		cbz	r5, .L533
 3555              		.loc 1 1186 0
 3556 03ac F110     		asrs	r1, r6, #3
 3557 03ae 06F00703 		and	r3, r6, #7
 3558 03b2 685C     		ldrb	r0, [r5, r1]	@ zero_extendqisi2
 3559 03b4 40FA03F1 		asr	r1, r0, r3
 3560 03b8 C907     		lsls	r1, r1, #31
 3561 03ba 3FF528AF 		bmi	.L535
 3562              	.L533:
 3563 03be B8F1000F 		cmp	r8, #0
 3564 03c2 3FF436AF 		beq	.L532
 3565              		.loc 1 1187 0
 3566 03c6 F010     		asrs	r0, r6, #3
ARM GAS  C:\Users\jenny\AppData\Local\Temp\ccLg5IEe.s 			page 64


 3567 03c8 06F00703 		and	r3, r6, #7
 3568 03cc 18F80010 		ldrb	r1, [r8, r0]	@ zero_extendqisi2
 3569 03d0 41FA03F0 		asr	r0, r1, r3
 3570 03d4 C007     		lsls	r0, r0, #31
 3571 03d6 7FF52CAF 		bpl	.L532
 3572 03da 18E7     		b	.L535
 3573              	.L459:
 3574              		.loc 1 1185 0 discriminator 2
 3575 03dc 3DB1     		cbz	r5, .L461
 3576              		.loc 1 1186 0
 3577 03de F110     		asrs	r1, r6, #3
 3578 03e0 06F00703 		and	r3, r6, #7
 3579 03e4 685C     		ldrb	r0, [r5, r1]	@ zero_extendqisi2
 3580 03e6 40FA03F1 		asr	r1, r0, r3
 3581 03ea C907     		lsls	r1, r1, #31
 3582 03ec BED4     		bmi	.L460
 3583              	.L461:
 3584              		.loc 1 1186 0 is_stmt 0 discriminator 1
 3585 03ee B8F1000F 		cmp	r8, #0
 3586 03f2 CDD0     		beq	.L463
 3587              		.loc 1 1187 0 is_stmt 1
 3588 03f4 F010     		asrs	r0, r6, #3
 3589 03f6 06F00703 		and	r3, r6, #7
 3590 03fa 18F80010 		ldrb	r1, [r8, r0]	@ zero_extendqisi2
 3591 03fe 41FA03F0 		asr	r0, r1, r3
 3592 0402 C307     		lsls	r3, r0, #31
 3593 0404 C4D5     		bpl	.L463
 3594 0406 B1E7     		b	.L460
 3595              	.LVL393:
 3596              	.L515:
 3597              		.loc 1 1185 0
 3598 0408 1DB1     		cbz	r5, .L518
 3599              		.loc 1 1186 0
 3600 040a 2E78     		ldrb	r6, [r5, #0]	@ zero_extendqisi2
 3601 040c F007     		lsls	r0, r6, #31
 3602 040e 3FF5E2AE 		bmi	.L520
 3603              	.L518:
 3604 0412 B8F1000F 		cmp	r8, #0
 3605 0416 3FF4E9AE 		beq	.L517
 3606              		.loc 1 1187 0
 3607 041a 98F80000 		ldrb	r0, [r8, #0]	@ zero_extendqisi2
 3608 041e C607     		lsls	r6, r0, #31
 3609 0420 7FF5E4AE 		bpl	.L517
 3610 0424 D7E6     		b	.L520
 3611              	.LVL394:
 3612              	.L537:
 3613              		.loc 1 1153 0
 3614 0426 1DB1     		cbz	r5, .L540
 3615              		.loc 1 1154 0
 3616 0428 2B78     		ldrb	r3, [r5, #0]	@ zero_extendqisi2
 3617 042a DA07     		lsls	r2, r3, #31
 3618 042c 3FF53AAE 		bmi	.L542
 3619              	.L540:
 3620 0430 B8F1000F 		cmp	r8, #0
 3621 0434 3FF443AE 		beq	.L539
 3622              		.loc 1 1155 0
 3623 0438 98F80000 		ldrb	r0, [r8, #0]	@ zero_extendqisi2
ARM GAS  C:\Users\jenny\AppData\Local\Temp\ccLg5IEe.s 			page 65


 3624 043c C007     		lsls	r0, r0, #31
 3625 043e 7FF53EAE 		bpl	.L539
 3626 0442 2FE6     		b	.L542
 3627              	.LVL395:
 3628              	.L449:
 3629              		.loc 1 1154 0 discriminator 1
 3630 0444 B8F1000F 		cmp	r8, #0
 3631 0448 3FF482AE 		beq	.L451
 3632              		.loc 1 1155 0
 3633 044c 4FEAE902 		asr	r2, r9, #3
 3634 0450 09F00703 		and	r3, r9, #7
 3635 0454 18F80210 		ldrb	r1, [r8, r2]	@ zero_extendqisi2
 3636 0458 41FA03F0 		asr	r0, r1, r3
 3637 045c C307     		lsls	r3, r0, #31
 3638 045e 7FF577AE 		bpl	.L451
 3639 0462 68E6     		b	.L448
 3640              	.L544:
 3641              		.loc 1 1153 0
 3642 0464 4DB1     		cbz	r5, .L547
 3643              		.loc 1 1154 0
 3644 0466 4FEAE903 		asr	r3, r9, #3
 3645 046a 09F00700 		and	r0, r9, #7
 3646 046e E95C     		ldrb	r1, [r5, r3]	@ zero_extendqisi2
 3647 0470 41FA00F2 		asr	r2, r1, r0
 3648 0474 D107     		lsls	r1, r2, #31
 3649 0476 3FF532AE 		bmi	.L549
 3650              	.L547:
 3651 047a B8F1000F 		cmp	r8, #0
 3652 047e 3FF484AE 		beq	.L554
 3653              		.loc 1 1155 0
 3654 0482 4FEAE903 		asr	r3, r9, #3
 3655 0486 09F00700 		and	r0, r9, #7
 3656 048a 18F80310 		ldrb	r1, [r8, r3]	@ zero_extendqisi2
 3657 048e 41FA00F2 		asr	r2, r1, r0
 3658 0492 D007     		lsls	r0, r2, #31
 3659 0494 7FF579AE 		bpl	.L554
 3660 0498 21E6     		b	.L549
 3661              	.LVL396:
 3662              	.L531:
 3663              	.LBB152:
 3664              		.loc 1 1189 0
 3665 049a 0492     		str	r2, [sp, #16]
 3666 049c FFF7FEFF 		bl	port_halt
 3667              	.LVL397:
 3668 04a0 0020     		movs	r0, #0
 3669 04a2 049A     		ldr	r2, [sp, #16]
 3670 04a4 BFE6     		b	.L615
 3671              	.L465:
 3672 04a6 0492     		str	r2, [sp, #16]
 3673 04a8 FFF7FEFF 		bl	port_halt
 3674              	.LVL398:
 3675 04ac 0020     		movs	r0, #0
 3676 04ae 049A     		ldr	r2, [sp, #16]
 3677 04b0 68E7     		b	.L474
 3678              	.LVL399:
 3679              	.L646:
 3680 04b2 0492     		str	r2, [sp, #16]
ARM GAS  C:\Users\jenny\AppData\Local\Temp\ccLg5IEe.s 			page 66


 3681 04b4 0593     		str	r3, [sp, #20]
 3682 04b6 FFF7FEFF 		bl	port_halt
 3683              	.LVL400:
 3684 04ba 3046     		mov	r0, r6
 3685 04bc 059B     		ldr	r3, [sp, #20]
 3686 04be 049A     		ldr	r2, [sp, #16]
 3687 04c0 8EE6     		b	.L608
 3688              	.LVL401:
 3689              	.L642:
 3690              	.LBE152:
 3691              	.LBB153:
 3692              		.loc 1 1157 0
 3693 04c2 0591     		str	r1, [sp, #20]
 3694 04c4 FFF7FEFF 		bl	port_halt
 3695              	.LVL402:
 3696 04c8 4A46     		mov	r2, r9
 3697 04ca 0599     		ldr	r1, [sp, #20]
 3698 04cc F1E5     		b	.L618
 3699              	.LVL403:
 3700              	.L545:
 3701 04ce FFF7FEFF 		bl	port_halt
 3702              	.LVL404:
 3703 04d2 0021     		movs	r1, #0
 3704 04d4 10E6     		b	.L622
 3705              	.LVL405:
 3706              	.L648:
 3707              	.LBE153:
 3708              	.LBB154:
 3709              		.loc 1 1192 0
 3710 04d6 0492     		str	r2, [sp, #16]
 3711 04d8 FFF7FEFF 		bl	port_halt
 3712              	.LVL406:
 3713 04dc 049A     		ldr	r2, [sp, #16]
 3714 04de A8E6     		b	.L532
 3715              	.L649:
 3716              	.LBE154:
 3717              		.loc 1 1202 0
 3718 04e0 12B1     		cbz	r2, .L468
 3719              		.loc 1 1202 0 is_stmt 0 discriminator 1
 3720 04e2 FFF7FEFF 		bl	port_halt
 3721              	.LVL407:
 3722 04e6 0B9B     		ldr	r3, [sp, #44]
 3723              	.L468:
 3724              		.loc 1 1203 0 is_stmt 1
 3725 04e8 40F20000 		movw	r0, #:lower16:.LANCHOR2
 3726 04ec C0F20000 		movt	r0, #:upper16:.LANCHOR2
 3727 04f0 0360     		str	r3, [r0, #0]
 3728 04f2 B6E6     		b	.L469
 3729              	.LVL408:
 3730              	.L645:
 3731              	.LBB155:
 3732              		.loc 1 1160 0 discriminator 1
 3733 04f4 FFF7FEFF 		bl	port_halt
 3734              	.LVL409:
 3735 04f8 2AE6     		b	.L451
 3736              	.LVL410:
 3737              	.L651:
ARM GAS  C:\Users\jenny\AppData\Local\Temp\ccLg5IEe.s 			page 67


 3738              	.LBE155:
 3739              	.LBB156:
 3740              		.loc 1 1192 0 discriminator 1
 3741 04fa 0492     		str	r2, [sp, #16]
 3742 04fc FFF7FEFF 		bl	port_halt
 3743              	.LVL411:
 3744 0500 049A     		ldr	r2, [sp, #16]
 3745 0502 45E7     		b	.L463
 3746              	.LVL412:
 3747              	.L647:
 3748              		.loc 1 1192 0 is_stmt 0
 3749 0504 0492     		str	r2, [sp, #16]
 3750 0506 0593     		str	r3, [sp, #20]
 3751 0508 FFF7FEFF 		bl	port_halt
 3752              	.LVL413:
 3753 050c 049A     		ldr	r2, [sp, #16]
 3754 050e 059B     		ldr	r3, [sp, #20]
 3755 0510 6CE6     		b	.L517
 3756              	.LVL414:
 3757              	.L643:
 3758              	.LBE156:
 3759              	.LBB157:
 3760              		.loc 1 1160 0 is_stmt 1
 3761 0512 0591     		str	r1, [sp, #20]
 3762 0514 FFF7FEFF 		bl	port_halt
 3763              	.LVL415:
 3764 0518 0599     		ldr	r1, [sp, #20]
 3765 051a D0E5     		b	.L539
 3766              	.LVL416:
 3767              	.L477:
 3768              	.LBE157:
 3769              		.loc 1 1172 0
 3770 051c 0146     		mov	r1, r0
 3771 051e 13E7     		b	.L455
 3772              	.LVL417:
 3773              	.L650:
 3774              		.loc 1 1205 0 discriminator 1
 3775 0520 FFF7FEFF 		bl	port_halt
 3776              	.LVL418:
 3777 0524 0C9A     		ldr	r2, [sp, #48]
 3778 0526 0B9B     		ldr	r3, [sp, #44]
 3779 0528 9AE6     		b	.L470
 3780              	.LVL419:
 3781              	.L475:
 3782              		.loc 1 1133 0
 3783 052a 4FF0FF39 		mov	r9, #-1
 3784              	.LVL420:
 3785 052e C0E6     		b	.L496
 3786              		.cfi_endproc
 3787              	.LFE25:
 3788              		.size	lwip_select, .-lwip_select
 3789              		.section	.text.lwip_shutdown,"ax",%progbits
 3790              		.align	2
 3791              		.p2align 4,,15
 3792              		.global	lwip_shutdown
 3793              		.thumb
 3794              		.thumb_func
ARM GAS  C:\Users\jenny\AppData\Local\Temp\ccLg5IEe.s 			page 68


 3795              		.type	lwip_shutdown, %function
 3796              	lwip_shutdown:
 3797              	.LFB27:
 3798              		.loc 1 1371 0
 3799              		.cfi_startproc
 3800              		@ args = 0, pretend = 0, frame = 0
 3801              		@ frame_needed = 0, uses_anonymous_args = 0
 3802              	.LVL421:
 3803              	.LBB158:
 3804              	.LBB159:
 3805              		.loc 1 199 0
 3806 0000 0328     		cmp	r0, #3
 3807              	.LBE159:
 3808              	.LBE158:
 3809              		.loc 1 1371 0
 3810 0002 10B5     		push	{r4, lr}
 3811              	.LCFI31:
 3812              		.cfi_def_cfa_offset 8
 3813              		.cfi_offset 4, -8
 3814              		.cfi_offset 14, -4
 3815              	.LBB162:
 3816              	.LBB160:
 3817              		.loc 1 199 0
 3818 0004 0CD8     		bhi	.L662
 3819              		.loc 1 205 0
 3820 0006 00EB4000 		add	r0, r0, r0, lsl #1
 3821              	.LVL422:
 3822 000a 174B     		ldr	r3, .L672
 3823 000c C200     		lsls	r2, r0, #3
 3824 000e 9C18     		adds	r4, r3, r2
 3825              	.LVL423:
 3826              		.loc 1 207 0
 3827 0010 9858     		ldr	r0, [r3, r2]
 3828 0012 28B1     		cbz	r0, .L662
 3829              	.LBE160:
 3830              	.LBE162:
 3831              		.loc 1 1384 0
 3832 0014 0378     		ldrb	r3, [r0, #0]	@ zero_extendqisi2
 3833 0016 102B     		cmp	r3, #16
 3834 0018 05D0     		beq	.L671
 3835              		.loc 1 1385 0
 3836 001a 5F20     		movs	r0, #95
 3837 001c 2061     		str	r0, [r4, #16]
 3838              		.loc 1 1386 0
 3839 001e 10BD     		pop	{r4, pc}
 3840              	.LVL424:
 3841              	.L662:
 3842              	.LBB163:
 3843              	.LBB161:
 3844              		.loc 1 1380 0
 3845 0020 4FF0FF30 		mov	r0, #-1
 3846 0024 10BD     		pop	{r4, pc}
 3847              	.LVL425:
 3848              	.L671:
 3849              	.LBE161:
 3850              	.LBE163:
 3851              		.loc 1 1393 0
ARM GAS  C:\Users\jenny\AppData\Local\Temp\ccLg5IEe.s 			page 69


 3852 0026 31B1     		cbz	r1, .L663
 3853              		.loc 1 1395 0
 3854 0028 0129     		cmp	r1, #1
 3855 002a 16D0     		beq	.L664
 3856              		.loc 1 1397 0
 3857 002c 0229     		cmp	r1, #2
 3858 002e 17D0     		beq	.L665
 3859              		.loc 1 1401 0
 3860 0030 1620     		movs	r0, #22
 3861 0032 2061     		str	r0, [r4, #16]
 3862              		.loc 1 1402 0
 3863 0034 10BD     		pop	{r4, pc}
 3864              	.L663:
 3865              		.loc 1 1374 0
 3866 0036 0A46     		mov	r2, r1
 3867              		.loc 1 1394 0
 3868 0038 0121     		movs	r1, #1
 3869              	.LVL426:
 3870              	.L657:
 3871              		.loc 1 1404 0
 3872 003a FFF7FEFF 		bl	netconn_shutdown
 3873              	.LVL427:
 3874              		.loc 1 1406 0
 3875 003e 4142     		negs	r1, r0
 3876 0040 0F29     		cmp	r1, #15
 3877 0042 9ABF     		itte	ls
 3878 0044 094A     		ldrls	r2, .L672+4
 3879 0046 52F82110 		ldrls	r1, [r2, r1, lsl #2]
 3880 004a 0521     		movhi	r1, #5
 3881 004c 2161     		str	r1, [r4, #16]
 3882              		.loc 1 1407 0
 3883 004e 0028     		cmp	r0, #0
 3884 0050 14BF     		ite	ne
 3885 0052 4FF0FF30 		movne	r0, #-1
 3886 0056 0020     		moveq	r0, #0
 3887              	.LVL428:
 3888 0058 10BD     		pop	{r4, pc}
 3889              	.LVL429:
 3890              	.L664:
 3891              		.loc 1 1396 0
 3892 005a 0A46     		mov	r2, r1
 3893              		.loc 1 1374 0
 3894 005c 0021     		movs	r1, #0
 3895              	.LVL430:
 3896 005e ECE7     		b	.L657
 3897              	.LVL431:
 3898              	.L665:
 3899              		.loc 1 1399 0
 3900 0060 0122     		movs	r2, #1
 3901              		.loc 1 1398 0
 3902 0062 1146     		mov	r1, r2
 3903              	.LVL432:
 3904 0064 E9E7     		b	.L657
 3905              	.L673:
 3906 0066 00BF     		.align	2
 3907              	.L672:
 3908 0068 00000000 		.word	.LANCHOR0
ARM GAS  C:\Users\jenny\AppData\Local\Temp\ccLg5IEe.s 			page 70


 3909 006c 00000000 		.word	.LANCHOR1
 3910              		.cfi_endproc
 3911              	.LFE27:
 3912              		.size	lwip_shutdown, .-lwip_shutdown
 3913              		.section	.text.lwip_getpeername,"ax",%progbits
 3914              		.align	2
 3915              		.p2align 4,,15
 3916              		.global	lwip_getpeername
 3917              		.thumb
 3918              		.thumb_func
 3919              		.type	lwip_getpeername, %function
 3920              	lwip_getpeername:
 3921              	.LFB29:
 3922              		.loc 1 1447 0
 3923              		.cfi_startproc
 3924              		@ args = 0, pretend = 0, frame = 0
 3925              		@ frame_needed = 0, uses_anonymous_args = 0
 3926              		@ link register save eliminated.
 3927              	.LVL433:
 3928              		.loc 1 1448 0
 3929 0000 0023     		movs	r3, #0
 3930              		.loc 1 1449 0
 3931              		.loc 1 1448 0
 3932 0002 FFF7FEBF 		b	lwip_getaddrname
 3933              	.LVL434:
 3934              		.cfi_endproc
 3935              	.LFE29:
 3936              		.size	lwip_getpeername, .-lwip_getpeername
 3937 0006 00BFAFF3 		.section	.text.lwip_getsockname,"ax",%progbits
 3937      0080AFF3 
 3937      0080
 3938              		.align	2
 3939              		.p2align 4,,15
 3940              		.global	lwip_getsockname
 3941              		.thumb
 3942              		.thumb_func
 3943              		.type	lwip_getsockname, %function
 3944              	lwip_getsockname:
 3945              	.LFB30:
 3946              		.loc 1 1453 0
 3947              		.cfi_startproc
 3948              		@ args = 0, pretend = 0, frame = 0
 3949              		@ frame_needed = 0, uses_anonymous_args = 0
 3950              		@ link register save eliminated.
 3951              	.LVL435:
 3952              		.loc 1 1454 0
 3953 0000 0123     		movs	r3, #1
 3954              		.loc 1 1455 0
 3955              		.loc 1 1454 0
 3956 0002 FFF7FEBF 		b	lwip_getaddrname
 3957              	.LVL436:
 3958              		.cfi_endproc
 3959              	.LFE30:
 3960              		.size	lwip_getsockname, .-lwip_getsockname
 3961 0006 00BFAFF3 		.section	.text.lwip_getsockopt,"ax",%progbits
 3961      0080AFF3 
 3961      0080
ARM GAS  C:\Users\jenny\AppData\Local\Temp\ccLg5IEe.s 			page 71


 3962              		.align	2
 3963              		.p2align 4,,15
 3964              		.global	lwip_getsockopt
 3965              		.thumb
 3966              		.thumb_func
 3967              		.type	lwip_getsockopt, %function
 3968              	lwip_getsockopt:
 3969              	.LFB31:
 3970              		.loc 1 1459 0
 3971              		.cfi_startproc
 3972              		@ args = 4, pretend = 0, frame = 24
 3973              		@ frame_needed = 0, uses_anonymous_args = 0
 3974              	.LVL437:
 3975 0000 2DE9F041 		push	{r4, r5, r6, r7, r8, lr}
 3976              	.LCFI32:
 3977              		.cfi_def_cfa_offset 24
 3978              		.cfi_offset 4, -24
 3979              		.cfi_offset 5, -20
 3980              		.cfi_offset 6, -16
 3981              		.cfi_offset 7, -12
 3982              		.cfi_offset 8, -8
 3983              		.cfi_offset 14, -4
 3984 0004 86B0     		sub	sp, sp, #24
 3985              	.LCFI33:
 3986              		.cfi_def_cfa_offset 48
 3987              	.LBB164:
 3988              	.LBB165:
 3989              		.loc 1 199 0
 3990 0006 0328     		cmp	r0, #3
 3991              	.LBE165:
 3992              	.LBE164:
 3993              		.loc 1 1459 0
 3994 0008 0C46     		mov	r4, r1
 3995 000a 1746     		mov	r7, r2
 3996 000c 0C9D     		ldr	r5, [sp, #48]
 3997              	.LBB167:
 3998              	.LBB166:
 3999              		.loc 1 199 0
 4000 000e 16D8     		bhi	.L729
 4001              		.loc 1 205 0
 4002 0010 00EB4000 		add	r0, r0, r0, lsl #1
 4003              	.LVL438:
 4004 0014 374A     		ldr	r2, .L733
 4005              	.LVL439:
 4006 0016 C100     		lsls	r1, r0, #3
 4007              	.LVL440:
 4008 0018 5618     		adds	r6, r2, r1
 4009              	.LVL441:
 4010              		.loc 1 207 0
 4011 001a 5158     		ldr	r1, [r2, r1]
 4012 001c 79B1     		cbz	r1, .L729
 4013              	.LBE166:
 4014              	.LBE167:
 4015              		.loc 1 1468 0
 4016 001e 002B     		cmp	r3, #0
 4017 0020 62D0     		beq	.L693
 4018              		.loc 1 1468 0 is_stmt 0 discriminator 1
ARM GAS  C:\Users\jenny\AppData\Local\Temp\ccLg5IEe.s 			page 72


 4019 0022 002D     		cmp	r5, #0
 4020 0024 60D0     		beq	.L693
 4021              		.loc 1 1474 0 is_stmt 1
 4022 0026 062C     		cmp	r4, #6
 4023 0028 37D0     		beq	.L684
 4024 002a 40F6FF70 		movw	r0, #4095
 4025 002e 8442     		cmp	r4, r0
 4026 0030 0AD0     		beq	.L685
 4027 0032 14B9     		cbnz	r4, .L702
 4028              		.loc 1 1533 0
 4029 0034 7A1E     		subs	r2, r7, #1
 4030 0036 012A     		cmp	r2, #1
 4031 0038 0DD9     		bls	.L730
 4032              	.L702:
 4033 003a 5C20     		movs	r0, #92
 4034              	.LVL442:
 4035              	.L695:
 4036              		.loc 1 1634 0
 4037 003c 3061     		str	r0, [r6, #16]
 4038              	.LVL443:
 4039              	.L729:
 4040              		.loc 1 1635 0
 4041 003e 4FF0FF30 		mov	r0, #-1
 4042              	.L724:
 4043              		.loc 1 1655 0
 4044 0042 06B0     		add	sp, sp, #24
 4045 0044 BDE8F081 		pop	{r4, r5, r6, r7, r8, pc}
 4046              	.LVL444:
 4047              	.L685:
 4048              		.loc 1 1478 0
 4049 0048 202F     		cmp	r7, #32
 4050 004a 04D0     		beq	.L730
 4051 004c 2DDC     		bgt	.L688
 4052 004e 022F     		cmp	r7, #2
 4053 0050 01D0     		beq	.L730
 4054 0052 082F     		cmp	r7, #8
 4055 0054 F1D1     		bne	.L702
 4056              	.L730:
 4057              		.loc 1 1539 0
 4058 0056 2A68     		ldr	r2, [r5, #0]
 4059 0058 032A     		cmp	r2, #3
 4060 005a 04D8     		bhi	.L689
 4061              	.L704:
 4062              		.loc 1 1574 0
 4063 005c 1620     		movs	r0, #22
 4064              	.LVL445:
 4065 005e EDE7     		b	.L695
 4066              	.LVL446:
 4067              	.L731:
 4068 0060 7A1E     		subs	r2, r7, #1
 4069 0062 012A     		cmp	r2, #1
 4070 0064 E9D8     		bhi	.L702
 4071              	.LVL447:
 4072              	.L689:
 4073              		.loc 1 1647 0
 4074 0066 4FF00008 		mov	r8, #0
 4075              		.loc 1 1648 0
ARM GAS  C:\Users\jenny\AppData\Local\Temp\ccLg5IEe.s 			page 73


 4076 006a 6946     		mov	r1, sp
 4077 006c 0122     		movs	r2, #1
 4078 006e 2248     		ldr	r0, .L733+4
 4079              		.loc 1 1645 0
 4080 0070 0393     		str	r3, [sp, #12]
 4081              		.loc 1 1639 0
 4082 0072 0096     		str	r6, [sp, #0]
 4083              		.loc 1 1643 0
 4084 0074 0194     		str	r4, [sp, #4]
 4085              		.loc 1 1644 0
 4086 0076 0297     		str	r7, [sp, #8]
 4087              		.loc 1 1646 0
 4088 0078 0495     		str	r5, [sp, #16]
 4089              		.loc 1 1647 0
 4090 007a 8DF81480 		strb	r8, [sp, #20]
 4091              		.loc 1 1648 0
 4092 007e FFF7FEFF 		bl	tcpip_callback_with_block
 4093              	.LVL448:
 4094              		.loc 1 1649 0
 4095 0082 3068     		ldr	r0, [r6, #0]
 4096 0084 4146     		mov	r1, r8
 4097 0086 0C30     		adds	r0, r0, #12
 4098 0088 FFF7FEFF 		bl	sys_arch_sem_wait
 4099              	.LVL449:
 4100              		.loc 1 1651 0
 4101 008c 9DF81400 		ldrb	r0, [sp, #20]	@ zero_extendqisi2
 4102              	.LVL450:
 4103              		.loc 1 1653 0
 4104 0090 43B2     		sxtb	r3, r0
 4105 0092 3361     		str	r3, [r6, #16]
 4106              		.loc 1 1654 0
 4107 0094 0028     		cmp	r0, #0
 4108 0096 D2D1     		bne	.L729
 4109 0098 D3E7     		b	.L724
 4110              	.LVL451:
 4111              	.L684:
 4112              		.loc 1 1574 0
 4113 009a 2868     		ldr	r0, [r5, #0]
 4114 009c 0328     		cmp	r0, #3
 4115 009e DDD9     		bls	.L704
 4116              		.loc 1 1580 0
 4117 00a0 0978     		ldrb	r1, [r1, #0]	@ zero_extendqisi2
 4118 00a2 1029     		cmp	r1, #16
 4119 00a4 DCD0     		beq	.L731
 4120              		.loc 1 1581 0
 4121 00a6 0020     		movs	r0, #0
 4122 00a8 CBE7     		b	.L724
 4123              	.L688:
 4124              		.loc 1 1478 0
 4125 00aa 41F20700 		movw	r0, #4103
 4126 00ae 8742     		cmp	r7, r0
 4127 00b0 C3DB     		blt	.L702
 4128 00b2 421C     		adds	r2, r0, #1
 4129 00b4 9742     		cmp	r7, r2
 4130 00b6 CEDD     		ble	.L730
 4131 00b8 901C     		adds	r0, r2, #2
 4132 00ba 8742     		cmp	r7, r0
ARM GAS  C:\Users\jenny\AppData\Local\Temp\ccLg5IEe.s 			page 74


 4133 00bc BDD1     		bne	.L702
 4134              		.loc 1 1512 0
 4135 00be 2A68     		ldr	r2, [r5, #0]
 4136              		.loc 1 1516 0
 4137 00c0 0878     		ldrb	r0, [r1, #0]	@ zero_extendqisi2
 4138              		.loc 1 1460 0
 4139 00c2 032A     		cmp	r2, #3
 4140 00c4 94BF     		ite	ls
 4141 00c6 1622     		movls	r2, #22
 4142 00c8 0022     		movhi	r2, #0
 4143              	.LVL452:
 4144              		.loc 1 1516 0
 4145 00ca 2028     		cmp	r0, #32
 4146 00cc 01D0     		beq	.L732
 4147              	.L701:
 4148 00ce 6120     		movs	r0, #97
 4149 00d0 B4E7     		b	.L695
 4150              	.L732:
 4151              		.loc 1 1517 0 discriminator 1
 4152 00d2 4968     		ldr	r1, [r1, #4]
 4153 00d4 087C     		ldrb	r0, [r1, #16]	@ zero_extendqisi2
 4154              		.loc 1 1516 0 discriminator 1
 4155 00d6 00F00201 		and	r1, r0, #2
 4156 00da C8B2     		uxtb	r0, r1
 4157 00dc 0028     		cmp	r0, #0
 4158 00de F6D1     		bne	.L701
 4159              		.loc 1 1633 0
 4160 00e0 002A     		cmp	r2, #0
 4161 00e2 C0D0     		beq	.L689
 4162 00e4 50B2     		sxtb	r0, r2
 4163 00e6 A9E7     		b	.L695
 4164              	.LVL453:
 4165              	.L693:
 4166              		.loc 1 1469 0
 4167 00e8 0E21     		movs	r1, #14
 4168 00ea 3161     		str	r1, [r6, #16]
 4169              		.loc 1 1470 0
 4170 00ec 4FF0FF30 		mov	r0, #-1
 4171 00f0 A7E7     		b	.L724
 4172              	.L734:
 4173 00f2 00BF     		.align	2
 4174              	.L733:
 4175 00f4 00000000 		.word	.LANCHOR0
 4176 00f8 00000000 		.word	lwip_getsockopt_internal
 4177              		.cfi_endproc
 4178              	.LFE31:
 4179              		.size	lwip_getsockopt, .-lwip_getsockopt
 4180 00fc AFF30080 		.section	.text.lwip_setsockopt,"ax",%progbits
 4181              		.align	2
 4182              		.p2align 4,,15
 4183              		.global	lwip_setsockopt
 4184              		.thumb
 4185              		.thumb_func
 4186              		.type	lwip_setsockopt, %function
 4187              	lwip_setsockopt:
 4188              	.LFB33:
 4189              		.loc 1 1867 0
ARM GAS  C:\Users\jenny\AppData\Local\Temp\ccLg5IEe.s 			page 75


 4190              		.cfi_startproc
 4191              		@ args = 4, pretend = 0, frame = 24
 4192              		@ frame_needed = 0, uses_anonymous_args = 0
 4193              	.LVL454:
 4194 0000 F0B5     		push	{r4, r5, r6, r7, lr}
 4195              	.LCFI34:
 4196              		.cfi_def_cfa_offset 20
 4197              		.cfi_offset 4, -20
 4198              		.cfi_offset 5, -16
 4199              		.cfi_offset 6, -12
 4200              		.cfi_offset 7, -8
 4201              		.cfi_offset 14, -4
 4202              	.LBB168:
 4203              	.LBB169:
 4204              		.loc 1 199 0
 4205 0002 0328     		cmp	r0, #3
 4206              	.LBE169:
 4207              	.LBE168:
 4208              		.loc 1 1867 0
 4209 0004 87B0     		sub	sp, sp, #28
 4210              	.LCFI35:
 4211              		.cfi_def_cfa_offset 48
 4212              		.loc 1 1867 0
 4213 0006 0C46     		mov	r4, r1
 4214 0008 1646     		mov	r6, r2
 4215              	.LBB171:
 4216              	.LBB170:
 4217              		.loc 1 199 0
 4218 000a 14D8     		bhi	.L781
 4219              		.loc 1 205 0
 4220 000c 00EB4000 		add	r0, r0, r0, lsl #1
 4221              	.LVL455:
 4222 0010 314A     		ldr	r2, .L786
 4223              	.LVL456:
 4224 0012 C100     		lsls	r1, r0, #3
 4225              	.LVL457:
 4226 0014 5518     		adds	r5, r2, r1
 4227              	.LVL458:
 4228              		.loc 1 207 0
 4229 0016 5158     		ldr	r1, [r2, r1]
 4230 0018 69B1     		cbz	r1, .L781
 4231              	.LVL459:
 4232              	.LBE170:
 4233              	.LBE171:
 4234              		.loc 1 1876 0
 4235 001a 002B     		cmp	r3, #0
 4236 001c 56D0     		beq	.L783
 4237              		.loc 1 1882 0
 4238 001e 062C     		cmp	r4, #6
 4239 0020 37D0     		beq	.L742
 4240 0022 40F6FF70 		movw	r0, #4095
 4241 0026 8442     		cmp	r4, r0
 4242 0028 09D0     		beq	.L743
 4243 002a 14B9     		cbnz	r4, .L759
 4244              		.loc 1 1936 0
 4245 002c 721E     		subs	r2, r6, #1
 4246 002e 012A     		cmp	r2, #1
ARM GAS  C:\Users\jenny\AppData\Local\Temp\ccLg5IEe.s 			page 76


 4247 0030 0DD9     		bls	.L782
 4248              	.L759:
 4249 0032 5C20     		movs	r0, #92
 4250              	.LVL460:
 4251              	.L752:
 4252              		.loc 1 2050 0
 4253 0034 2861     		str	r0, [r5, #16]
 4254              	.LVL461:
 4255              	.L781:
 4256              		.loc 1 2051 0
 4257 0036 4FF0FF30 		mov	r0, #-1
 4258              	.L775:
 4259              		.loc 1 2072 0
 4260 003a 07B0     		add	sp, sp, #28
 4261 003c F0BD     		pop	{r4, r5, r6, r7, pc}
 4262              	.LVL462:
 4263              	.L743:
 4264              		.loc 1 1886 0
 4265 003e 202E     		cmp	r6, #32
 4266 0040 05D0     		beq	.L782
 4267 0042 41F20A00 		movw	r0, #4106
 4268 0046 8642     		cmp	r6, r0
 4269 0048 2BD0     		beq	.L745
 4270 004a 082E     		cmp	r6, #8
 4271 004c F1D1     		bne	.L759
 4272              	.L782:
 4273              		.loc 1 1942 0
 4274 004e 0C9A     		ldr	r2, [sp, #48]
 4275 0050 032A     		cmp	r2, #3
 4276 0052 04D8     		bhi	.L746
 4277              	.L761:
 4278              		.loc 1 1991 0
 4279 0054 1620     		movs	r0, #22
 4280              	.LVL463:
 4281 0056 EDE7     		b	.L752
 4282              	.LVL464:
 4283              	.L784:
 4284 0058 721E     		subs	r2, r6, #1
 4285 005a 012A     		cmp	r2, #1
 4286 005c E9D8     		bhi	.L759
 4287              	.LVL465:
 4288              	.L746:
 4289              		.loc 1 2064 0
 4290 005e 0027     		movs	r7, #0
 4291              		.loc 1 2065 0
 4292 0060 6946     		mov	r1, sp
 4293 0062 0122     		movs	r2, #1
 4294              		.loc 1 2062 0
 4295 0064 0393     		str	r3, [sp, #12]
 4296              		.loc 1 2065 0
 4297 0066 1D48     		ldr	r0, .L786+4
 4298              		.loc 1 2056 0
 4299 0068 0095     		str	r5, [sp, #0]
 4300              		.loc 1 2063 0
 4301 006a 0CAB     		add	r3, sp, #48
 4302              	.LVL466:
 4303 006c 0493     		str	r3, [sp, #16]
ARM GAS  C:\Users\jenny\AppData\Local\Temp\ccLg5IEe.s 			page 77


 4304              		.loc 1 2060 0
 4305 006e 0194     		str	r4, [sp, #4]
 4306              		.loc 1 2061 0
 4307 0070 0296     		str	r6, [sp, #8]
 4308              		.loc 1 2064 0
 4309 0072 8DF81470 		strb	r7, [sp, #20]
 4310              		.loc 1 2065 0
 4311 0076 FFF7FEFF 		bl	tcpip_callback_with_block
 4312              	.LVL467:
 4313              		.loc 1 2066 0
 4314 007a 2868     		ldr	r0, [r5, #0]
 4315 007c 3946     		mov	r1, r7
 4316 007e 0C30     		adds	r0, r0, #12
 4317 0080 FFF7FEFF 		bl	sys_arch_sem_wait
 4318              	.LVL468:
 4319              		.loc 1 2068 0
 4320 0084 9DF81400 		ldrb	r0, [sp, #20]	@ zero_extendqisi2
 4321              	.LVL469:
 4322              		.loc 1 2070 0
 4323 0088 41B2     		sxtb	r1, r0
 4324 008a 2961     		str	r1, [r5, #16]
 4325              		.loc 1 2071 0
 4326 008c 0028     		cmp	r0, #0
 4327 008e D2D1     		bne	.L781
 4328 0090 D3E7     		b	.L775
 4329              	.LVL470:
 4330              	.L742:
 4331              		.loc 1 1991 0
 4332 0092 0C98     		ldr	r0, [sp, #48]
 4333 0094 0328     		cmp	r0, #3
 4334 0096 DDD9     		bls	.L761
 4335              		.loc 1 1997 0
 4336 0098 0978     		ldrb	r1, [r1, #0]	@ zero_extendqisi2
 4337 009a 1029     		cmp	r1, #16
 4338 009c DCD0     		beq	.L784
 4339              		.loc 1 1998 0
 4340 009e 0020     		movs	r0, #0
 4341 00a0 CBE7     		b	.L775
 4342              	.L745:
 4343              		.loc 1 1920 0
 4344 00a2 0878     		ldrb	r0, [r1, #0]	@ zero_extendqisi2
 4345              		.loc 1 1869 0
 4346 00a4 0C9A     		ldr	r2, [sp, #48]
 4347 00a6 032A     		cmp	r2, #3
 4348 00a8 94BF     		ite	ls
 4349 00aa 1622     		movls	r2, #22
 4350 00ac 0022     		movhi	r2, #0
 4351              	.LVL471:
 4352              		.loc 1 1920 0
 4353 00ae 2028     		cmp	r0, #32
 4354 00b0 01D0     		beq	.L785
 4355              	.L758:
 4356 00b2 6120     		movs	r0, #97
 4357 00b4 BEE7     		b	.L752
 4358              	.L785:
 4359              		.loc 1 1921 0 discriminator 1
 4360 00b6 4968     		ldr	r1, [r1, #4]
ARM GAS  C:\Users\jenny\AppData\Local\Temp\ccLg5IEe.s 			page 78


 4361 00b8 087C     		ldrb	r0, [r1, #16]	@ zero_extendqisi2
 4362              		.loc 1 1920 0 discriminator 1
 4363 00ba 00F00201 		and	r1, r0, #2
 4364 00be C8B2     		uxtb	r0, r1
 4365 00c0 0028     		cmp	r0, #0
 4366 00c2 F6D1     		bne	.L758
 4367              		.loc 1 2049 0
 4368 00c4 002A     		cmp	r2, #0
 4369 00c6 CAD0     		beq	.L746
 4370 00c8 50B2     		sxtb	r0, r2
 4371 00ca B3E7     		b	.L752
 4372              	.LVL472:
 4373              	.L783:
 4374              		.loc 1 1877 0
 4375 00cc 0E22     		movs	r2, #14
 4376 00ce 2A61     		str	r2, [r5, #16]
 4377              		.loc 1 1878 0
 4378 00d0 4FF0FF30 		mov	r0, #-1
 4379 00d4 B1E7     		b	.L775
 4380              	.L787:
 4381 00d6 00BF     		.align	2
 4382              	.L786:
 4383 00d8 00000000 		.word	.LANCHOR0
 4384 00dc 00000000 		.word	lwip_setsockopt_internal
 4385              		.cfi_endproc
 4386              	.LFE33:
 4387              		.size	lwip_setsockopt, .-lwip_setsockopt
 4388              		.section	.text.lwip_ioctl,"ax",%progbits
 4389              		.align	2
 4390              		.p2align 4,,15
 4391              		.global	lwip_ioctl
 4392              		.thumb
 4393              		.thumb_func
 4394              		.type	lwip_ioctl, %function
 4395              	lwip_ioctl:
 4396              	.LFB35:
 4397              		.loc 1 2285 0
 4398              		.cfi_startproc
 4399              		@ args = 0, pretend = 0, frame = 0
 4400              		@ frame_needed = 0, uses_anonymous_args = 0
 4401              		@ link register save eliminated.
 4402              	.LVL473:
 4403              	.LBB172:
 4404              	.LBB173:
 4405              		.loc 1 199 0
 4406 0000 0328     		cmp	r0, #3
 4407              	.LBE173:
 4408              	.LBE172:
 4409              		.loc 1 2285 0
 4410 0002 10B4     		push	{r4}
 4411              	.LCFI36:
 4412              		.cfi_def_cfa_offset 4
 4413              		.cfi_offset 4, -4
 4414              	.LBB176:
 4415              	.LBB174:
 4416              		.loc 1 199 0
 4417 0004 11D8     		bhi	.L797
ARM GAS  C:\Users\jenny\AppData\Local\Temp\ccLg5IEe.s 			page 79


 4418              		.loc 1 205 0
 4419 0006 00EB4000 		add	r0, r0, r0, lsl #1
 4420              	.LVL474:
 4421 000a 114B     		ldr	r3, .L805
 4422 000c C000     		lsls	r0, r0, #3
 4423 000e 1C18     		adds	r4, r3, r0
 4424              	.LVL475:
 4425              		.loc 1 207 0
 4426 0010 1B58     		ldr	r3, [r3, r0]
 4427 0012 53B1     		cbz	r3, .L797
 4428              	.LBE174:
 4429              	.LBE176:
 4430              		.loc 1 2297 0
 4431 0014 46F27E60 		movw	r0, #26238
 4432 0018 C8F20400 		movt	r0, 32772
 4433 001c 8142     		cmp	r1, r0
 4434 001e 08D0     		beq	.L804
 4435              		.loc 1 2340 0
 4436 0020 2621     		movs	r1, #38
 4437              	.LVL476:
 4438 0022 2161     		str	r1, [r4, #16]
 4439              		.loc 1 2341 0
 4440 0024 4FF0FF30 		mov	r0, #-1
 4441 0028 01E0     		b	.L802
 4442              	.LVL477:
 4443              	.L797:
 4444              	.LBB177:
 4445              	.LBB175:
 4446              		.loc 1 2294 0
 4447 002a 4FF0FF30 		mov	r0, #-1
 4448              	.LVL478:
 4449              	.L802:
 4450              	.LBE175:
 4451              	.LBE177:
 4452              		.loc 1 2343 0
 4453 002e 10BC     		pop	{r4}
 4454 0030 7047     		bx	lr
 4455              	.LVL479:
 4456              	.L804:
 4457              		.loc 1 2330 0
 4458 0032 42B1     		cbz	r2, .L792
 4459              		.loc 1 2330 0 is_stmt 0 discriminator 1
 4460 0034 1268     		ldr	r2, [r2, #0]
 4461              	.LVL480:
 4462 0036 32B1     		cbz	r2, .L792
 4463              	.LVL481:
 4464              		.loc 1 2333 0 is_stmt 1
 4465 0038 1A7F     		ldrb	r2, [r3, #28]	@ zero_extendqisi2
 4466 003a 42F00200 		orr	r0, r2, #2
 4467 003e 1877     		strb	r0, [r3, #28]
 4468              	.LVL482:
 4469              	.L795:
 4470              		.loc 1 2335 0
 4471 0040 0020     		movs	r0, #0
 4472 0042 2061     		str	r0, [r4, #16]
 4473              		.loc 1 2336 0
 4474 0044 F3E7     		b	.L802
ARM GAS  C:\Users\jenny\AppData\Local\Temp\ccLg5IEe.s 			page 80


 4475              	.LVL483:
 4476              	.L792:
 4477              		.loc 1 2333 0
 4478 0046 187F     		ldrb	r0, [r3, #28]	@ zero_extendqisi2
 4479 0048 20F00201 		bic	r1, r0, #2
 4480              	.LVL484:
 4481 004c 1977     		strb	r1, [r3, #28]
 4482 004e F7E7     		b	.L795
 4483              	.L806:
 4484              		.align	2
 4485              	.L805:
 4486 0050 00000000 		.word	.LANCHOR0
 4487              		.cfi_endproc
 4488              	.LFE35:
 4489              		.size	lwip_ioctl, .-lwip_ioctl
 4490 0054 AFF30080 		.section	.text.lwip_fcntl,"ax",%progbits
 4490      AFF30080 
 4490      AFF30080 
 4491              		.align	2
 4492              		.p2align 4,,15
 4493              		.global	lwip_fcntl
 4494              		.thumb
 4495              		.thumb_func
 4496              		.type	lwip_fcntl, %function
 4497              	lwip_fcntl:
 4498              	.LFB36:
 4499              		.loc 1 2351 0
 4500              		.cfi_startproc
 4501              		@ args = 0, pretend = 0, frame = 0
 4502              		@ frame_needed = 0, uses_anonymous_args = 0
 4503              		@ link register save eliminated.
 4504              	.LVL485:
 4505              	.LBB178:
 4506              	.LBB179:
 4507              		.loc 1 199 0
 4508 0000 0328     		cmp	r0, #3
 4509 0002 09D8     		bhi	.L819
 4510              	.LVL486:
 4511              		.loc 1 205 0
 4512 0004 00EB4000 		add	r0, r0, r0, lsl #1
 4513              	.LVL487:
 4514              		.loc 1 207 0
 4515 0008 0F4B     		ldr	r3, .L821
 4516 000a 53F83030 		ldr	r3, [r3, r0, lsl #3]
 4517 000e 1BB1     		cbz	r3, .L819
 4518              	.LVL488:
 4519              	.LBE179:
 4520              	.LBE178:
 4521              		.loc 1 2359 0
 4522 0010 0329     		cmp	r1, #3
 4523 0012 10D0     		beq	.L810
 4524 0014 0429     		cmp	r1, #4
 4525 0016 02D0     		beq	.L820
 4526              	.LVL489:
 4527              	.L819:
 4528              		.loc 1 2353 0
 4529 0018 4FF0FF30 		mov	r0, #-1
ARM GAS  C:\Users\jenny\AppData\Local\Temp\ccLg5IEe.s 			page 81


 4530 001c 7047     		bx	lr
 4531              	.LVL490:
 4532              	.L820:
 4533              		.loc 1 2364 0
 4534 001e 32F00101 		bics	r1, r2, #1
 4535              	.LVL491:
 4536 0022 F9D1     		bne	.L819
 4537              		.loc 1 2366 0
 4538 0024 12F00100 		ands	r0, r2, #1
 4539 0028 1A7F     		ldrb	r2, [r3, #28]	@ zero_extendqisi2
 4540              	.LVL492:
 4541 002a 08D0     		beq	.L812
 4542              		.loc 1 2366 0 is_stmt 0 discriminator 1
 4543 002c 42F00200 		orr	r0, r2, #2
 4544 0030 1877     		strb	r0, [r3, #28]
 4545              		.loc 1 2367 0 is_stmt 1 discriminator 1
 4546 0032 0846     		mov	r0, r1
 4547 0034 7047     		bx	lr
 4548              	.LVL493:
 4549              	.L810:
 4550              		.loc 1 2361 0
 4551 0036 1B7F     		ldrb	r3, [r3, #28]	@ zero_extendqisi2
 4552 0038 C3F34000 		ubfx	r0, r3, #1, #1
 4553              	.LVL494:
 4554              		.loc 1 2362 0
 4555 003c 7047     		bx	lr
 4556              	.LVL495:
 4557              	.L812:
 4558              		.loc 1 2366 0 discriminator 2
 4559 003e 22F00201 		bic	r1, r2, #2
 4560 0042 1977     		strb	r1, [r3, #28]
 4561 0044 7047     		bx	lr
 4562              	.L822:
 4563 0046 00BF     		.align	2
 4564              	.L821:
 4565 0048 00000000 		.word	.LANCHOR0
 4566              		.cfi_endproc
 4567              	.LFE36:
 4568              		.size	lwip_fcntl, .-lwip_fcntl
 4569 004c AFF30080 		.section	.rodata.err_to_errno_table,"a",%progbits
 4570              		.align	2
 4571              		.set	.LANCHOR1,. + 0
 4572              		.type	err_to_errno_table, %object
 4573              		.size	err_to_errno_table, 64
 4574              	err_to_errno_table:
 4575 0000 00000000 		.word	0
 4576 0004 0C000000 		.word	12
 4577 0008 69000000 		.word	105
 4578 000c 0B000000 		.word	11
 4579 0010 71000000 		.word	113
 4580 0014 73000000 		.word	115
 4581 0018 16000000 		.word	22
 4582 001c 0B000000 		.word	11
 4583 0020 62000000 		.word	98
 4584 0024 72000000 		.word	114
 4585 0028 67000000 		.word	103
 4586 002c 68000000 		.word	104
ARM GAS  C:\Users\jenny\AppData\Local\Temp\ccLg5IEe.s 			page 82


 4587 0030 6B000000 		.word	107
 4588 0034 6B000000 		.word	107
 4589 0038 05000000 		.word	5
 4590 003c FFFFFFFF 		.word	-1
 4591              		.section	.bss.select_cb_list,"aw",%nobits
 4592              		.align	2
 4593              		.set	.LANCHOR2,. + 0
 4594              		.type	select_cb_list, %object
 4595              		.size	select_cb_list, 4
 4596              	select_cb_list:
 4597 0000 00000000 		.space	4
 4598              		.section	.bss.sockets,"aw",%nobits
 4599              		.align	2
 4600              		.set	.LANCHOR0,. + 0
 4601              		.type	sockets, %object
 4602              		.size	sockets, 96
 4603              	sockets:
 4604 0000 00000000 		.space	96
 4604      00000000 
 4604      00000000 
 4604      00000000 
 4604      00000000 
 4605              		.section	.bss.select_cb_ctr,"aw",%nobits
 4606              		.align	2
 4607              		.set	.LANCHOR3,. + 0
 4608              		.type	select_cb_ctr, %object
 4609              		.size	select_cb_ctr, 4
 4610              	select_cb_ctr:
 4611 0000 00000000 		.space	4
 4612              		.text
 4613              	.Letext0:
 4614              		.file 2 "c:\\fbin\\yagarto\\bin\\../lib/gcc/arm-none-eabi/4.7.4/include/stddef.h"
 4615              		.file 3 "c:\\fbin\\yagarto\\bin\\../lib/gcc/arm-none-eabi/4.7.4/../../../../arm-none-eabi/include/
 4616              		.file 4 "../../os/ports/GCC/ARMCMx/chtypes.h"
 4617              		.file 5 "../../os/kernel/include/chlists.h"
 4618              		.file 6 "../../os/kernel/include/chthreads.h"
 4619              		.file 7 "../../os/ports/GCC/ARMCMx/chcore_v7m.h"
 4620              		.file 8 "../../os/kernel/include/chsem.h"
 4621              		.file 9 "../../os/kernel/include/chmtx.h"
 4622              		.file 10 "../../os/kernel/include/chmboxes.h"
 4623              		.file 11 "../../os/various/lwip_bindings/arch/cc.h"
 4624              		.file 12 "../../ext/lwip/src/include/ipv4/lwip/ip_addr.h"
 4625              		.file 13 "../../ext/lwip/src/include/ipv4/lwip/inet.h"
 4626              		.file 14 "../../ext/lwip/src/include/lwip/sockets.h"
 4627              		.file 15 "../../ext/lwip/src/include/lwip/err.h"
 4628              		.file 16 "../../ext/lwip/src/include/lwip/pbuf.h"
 4629              		.file 17 "../../ext/lwip/src/include/lwip/netbuf.h"
 4630              		.file 18 "../../os/various/lwip_bindings/arch/sys_arch.h"
 4631              		.file 19 "../../ext/lwip/src/include/lwip/api.h"
 4632              		.file 20 "../../ext/lwip/src/include/ipv4/lwip/ip.h"
 4633              		.file 21 "../../ext/lwip/src/include/lwip/tcp.h"
 4634              		.file 22 "../../ext/lwip/src/include/lwip/udp.h"
 4635              		.file 23 "../../ext/lwip/src/include/lwip/raw.h"
 4636              		.file 24 "../../ext/lwip/src/include/lwip/api_msg.h"
 4637              		.file 25 "../../ext/lwip/src/include/lwip/tcpip.h"
 4638              		.file 26 "../../ext/lwip/src/include/lwip/def.h"
 4639              		.file 27 "../../ext/lwip/src/include/lwip/sys.h"
ARM GAS  C:\Users\jenny\AppData\Local\Temp\ccLg5IEe.s 			page 83

