ARM GAS  C:\Users\jenny\AppData\Local\Temp\cc4L9JBz.s 			page 1


   1              		.syntax unified
   2              		.cpu cortex-m4
   3              		.eabi_attribute 27, 3
   4              		.fpu fpv4-sp-d16
   5              		.eabi_attribute 20, 1
   6              		.eabi_attribute 21, 1
   7              		.eabi_attribute 23, 3
   8              		.eabi_attribute 24, 1
   9              		.eabi_attribute 25, 1
  10              		.eabi_attribute 26, 1
  11              		.eabi_attribute 30, 2
  12              		.eabi_attribute 34, 1
  13              		.eabi_attribute 18, 4
  14              		.thumb
  15              		.file	"sys.c"
  16              		.text
  17              	.Ltext0:
  18              		.cfi_sections	.debug_frame
  19              		.section	.text.sys_msleep,"ax",%progbits
  20              		.align	2
  21              		.p2align 4,,15
  22              		.global	sys_msleep
  23              		.thumb
  24              		.thumb_func
  25              		.type	sys_msleep, %function
  26              	sys_msleep:
  27              	.LFB7:
  28              		.file 1 "../../ext/lwip/src/core/sys.c"
  29              		.loc 1 56 0
  30              		.cfi_startproc
  31              		@ args = 0, pretend = 0, frame = 8
  32              		@ frame_needed = 0, uses_anonymous_args = 0
  33              	.LVL0:
  34 0000 10B5     		push	{r4, lr}
  35              	.LCFI0:
  36              		.cfi_def_cfa_offset 8
  37              		.cfi_offset 4, -8
  38              		.cfi_offset 14, -4
  39              		.loc 1 57 0
  40 0002 0446     		mov	r4, r0
  41              		.loc 1 56 0
  42 0004 82B0     		sub	sp, sp, #8
  43              	.LCFI1:
  44              		.cfi_def_cfa_offset 16
  45              		.loc 1 57 0
  46 0006 08B9     		cbnz	r0, .L8
  47              	.LVL1:
  48              	.L1:
  49              		.loc 1 65 0
  50 0008 02B0     		add	sp, sp, #8
  51 000a 10BD     		pop	{r4, pc}
  52              	.LVL2:
  53              	.L8:
  54              	.LBB2:
  55              		.loc 1 59 0
  56 000c 01A8     		add	r0, sp, #4
  57              	.LVL3:
ARM GAS  C:\Users\jenny\AppData\Local\Temp\cc4L9JBz.s 			page 2


  58 000e 0021     		movs	r1, #0
  59 0010 FFF7FEFF 		bl	sys_sem_new
  60              	.LVL4:
  61              		.loc 1 60 0
  62 0014 0028     		cmp	r0, #0
  63 0016 F7D1     		bne	.L1
  64              		.loc 1 61 0
  65 0018 01A8     		add	r0, sp, #4
  66              	.LVL5:
  67 001a 2146     		mov	r1, r4
  68 001c FFF7FEFF 		bl	sys_arch_sem_wait
  69              	.LVL6:
  70              		.loc 1 62 0
  71 0020 01A8     		add	r0, sp, #4
  72 0022 FFF7FEFF 		bl	sys_sem_free
  73              	.LVL7:
  74 0026 EFE7     		b	.L1
  75              	.LBE2:
  76              		.cfi_endproc
  77              	.LFE7:
  78              		.size	sys_msleep, .-sys_msleep
  79 0028 AFF30080 		.text
  79      AFF30080 
  80              	.Letext0:
  81              		.file 2 "c:\\fbin\\yagarto\\bin\\../lib/gcc/arm-none-eabi/4.7.4/../../../../arm-none-eabi/include/
  82              		.file 3 "../../os/ports/GCC/ARMCMx/chtypes.h"
  83              		.file 4 "../../os/kernel/include/chlists.h"
  84              		.file 5 "../../os/kernel/include/chthreads.h"
  85              		.file 6 "../../os/ports/GCC/ARMCMx/chcore_v7m.h"
  86              		.file 7 "../../os/kernel/include/chsem.h"
  87              		.file 8 "../../os/kernel/include/chmtx.h"
  88              		.file 9 "../../os/various/lwip_bindings/arch/cc.h"
  89              		.file 10 "../../ext/lwip/src/include/lwip/err.h"
  90              		.file 11 "../../os/various/lwip_bindings/arch/sys_arch.h"
  91              		.file 12 "../../ext/lwip/src/include/lwip/sys.h"
  92              		.section	.debug_info,"",%progbits
  93              	.Ldebug_info0:
  94 0000 2D060000 		.4byte	0x62d
  95 0004 0200     		.2byte	0x2
  96 0006 00000000 		.4byte	.Ldebug_abbrev0
  97 000a 04       		.byte	0x4
  98 000b 01       		.uleb128 0x1
  99 000c 97000000 		.4byte	.LASF69
 100 0010 01       		.byte	0x1
 101 0011 5F000000 		.4byte	.LASF70
 102 0015 CD020000 		.4byte	.LASF71
 103 0019 00000000 		.4byte	.Ldebug_ranges0+0
 104 001d 00000000 		.4byte	0
 105 0021 00000000 		.4byte	0
 106 0025 00000000 		.4byte	.Ldebug_line0
 107 0029 02       		.uleb128 0x2
 108 002a 04       		.byte	0x4
 109 002b 05       		.byte	0x5
 110 002c 696E7400 		.ascii	"int\000"
 111 0030 03       		.uleb128 0x3
 112 0031 04       		.byte	0x4
 113 0032 07       		.byte	0x7
ARM GAS  C:\Users\jenny\AppData\Local\Temp\cc4L9JBz.s 			page 3


 114 0033 1A010000 		.4byte	.LASF0
 115 0037 04       		.uleb128 0x4
 116 0038 96020000 		.4byte	.LASF2
 117 003c 02       		.byte	0x2
 118 003d 29       		.byte	0x29
 119 003e 42000000 		.4byte	0x42
 120 0042 03       		.uleb128 0x3
 121 0043 01       		.byte	0x1
 122 0044 06       		.byte	0x6
 123 0045 53000000 		.4byte	.LASF1
 124 0049 04       		.uleb128 0x4
 125 004a C5020000 		.4byte	.LASF3
 126 004e 02       		.byte	0x2
 127 004f 2A       		.byte	0x2a
 128 0050 54000000 		.4byte	0x54
 129 0054 03       		.uleb128 0x3
 130 0055 01       		.byte	0x1
 131 0056 08       		.byte	0x8
 132 0057 04020000 		.4byte	.LASF4
 133 005b 03       		.uleb128 0x3
 134 005c 02       		.byte	0x2
 135 005d 05       		.byte	0x5
 136 005e 1C020000 		.4byte	.LASF5
 137 0062 03       		.uleb128 0x3
 138 0063 02       		.byte	0x2
 139 0064 07       		.byte	0x7
 140 0065 58010000 		.4byte	.LASF6
 141 0069 04       		.uleb128 0x4
 142 006a FC010000 		.4byte	.LASF7
 143 006e 02       		.byte	0x2
 144 006f 4F       		.byte	0x4f
 145 0070 74000000 		.4byte	0x74
 146 0074 03       		.uleb128 0x3
 147 0075 04       		.byte	0x4
 148 0076 05       		.byte	0x5
 149 0077 E0000000 		.4byte	.LASF8
 150 007b 04       		.uleb128 0x4
 151 007c 65020000 		.4byte	.LASF9
 152 0080 02       		.byte	0x2
 153 0081 50       		.byte	0x50
 154 0082 86000000 		.4byte	0x86
 155 0086 03       		.uleb128 0x3
 156 0087 04       		.byte	0x4
 157 0088 07       		.byte	0x7
 158 0089 32010000 		.4byte	.LASF10
 159 008d 03       		.uleb128 0x3
 160 008e 08       		.byte	0x8
 161 008f 05       		.byte	0x5
 162 0090 45000000 		.4byte	.LASF11
 163 0094 03       		.uleb128 0x3
 164 0095 08       		.byte	0x8
 165 0096 07       		.byte	0x7
 166 0097 1D000000 		.4byte	.LASF12
 167 009b 03       		.uleb128 0x3
 168 009c 01       		.byte	0x1
 169 009d 02       		.byte	0x2
 170 009e F6010000 		.4byte	.LASF13
ARM GAS  C:\Users\jenny\AppData\Local\Temp\cc4L9JBz.s 			page 4


 171 00a2 04       		.uleb128 0x4
 172 00a3 71010000 		.4byte	.LASF14
 173 00a7 03       		.byte	0x3
 174 00a8 2C       		.byte	0x2c
 175 00a9 49000000 		.4byte	0x49
 176 00ad 04       		.uleb128 0x4
 177 00ae E9000000 		.4byte	.LASF15
 178 00b2 03       		.byte	0x3
 179 00b3 2D       		.byte	0x2d
 180 00b4 49000000 		.4byte	0x49
 181 00b8 04       		.uleb128 0x4
 182 00b9 DF010000 		.4byte	.LASF16
 183 00bd 03       		.byte	0x3
 184 00be 2E       		.byte	0x2e
 185 00bf 49000000 		.4byte	0x49
 186 00c3 04       		.uleb128 0x4
 187 00c4 8D000000 		.4byte	.LASF17
 188 00c8 03       		.byte	0x3
 189 00c9 2F       		.byte	0x2f
 190 00ca 49000000 		.4byte	0x49
 191 00ce 04       		.uleb128 0x4
 192 00cf EE010000 		.4byte	.LASF18
 193 00d3 03       		.byte	0x3
 194 00d4 30       		.byte	0x30
 195 00d5 7B000000 		.4byte	0x7b
 196 00d9 04       		.uleb128 0x4
 197 00da 6B010000 		.4byte	.LASF19
 198 00de 03       		.byte	0x3
 199 00df 31       		.byte	0x31
 200 00e0 69000000 		.4byte	0x69
 201 00e4 04       		.uleb128 0x4
 202 00e5 85010000 		.4byte	.LASF20
 203 00e9 03       		.byte	0x3
 204 00ea 33       		.byte	0x33
 205 00eb 7B000000 		.4byte	0x7b
 206 00ef 04       		.uleb128 0x4
 207 00f0 7A020000 		.4byte	.LASF21
 208 00f4 03       		.byte	0x3
 209 00f5 35       		.byte	0x35
 210 00f6 7B000000 		.4byte	0x7b
 211 00fa 04       		.uleb128 0x4
 212 00fb 14010000 		.4byte	.LASF22
 213 00ff 03       		.byte	0x3
 214 0100 36       		.byte	0x36
 215 0101 69000000 		.4byte	0x69
 216 0105 04       		.uleb128 0x4
 217 0106 4E020000 		.4byte	.LASF23
 218 010a 04       		.byte	0x4
 219 010b 2A       		.byte	0x2a
 220 010c 10010000 		.4byte	0x110
 221 0110 05       		.uleb128 0x5
 222 0111 4E020000 		.4byte	.LASF23
 223 0115 48       		.byte	0x48
 224 0116 05       		.byte	0x5
 225 0117 5E       		.byte	0x5e
 226 0118 35020000 		.4byte	0x235
 227 011c 06       		.uleb128 0x6
ARM GAS  C:\Users\jenny\AppData\Local\Temp\cc4L9JBz.s 			page 5


 228 011d 3F020000 		.4byte	.LASF24
 229 0121 05       		.byte	0x5
 230 0122 5F       		.byte	0x5f
 231 0123 5A020000 		.4byte	0x25a
 232 0127 02       		.byte	0x2
 233 0128 23       		.byte	0x23
 234 0129 00       		.uleb128 0
 235 012a 06       		.uleb128 0x6
 236 012b E7010000 		.4byte	.LASF25
 237 012f 05       		.byte	0x5
 238 0130 61       		.byte	0x61
 239 0131 5A020000 		.4byte	0x25a
 240 0135 02       		.byte	0x2
 241 0136 23       		.byte	0x23
 242 0137 04       		.uleb128 0x4
 243 0138 06       		.uleb128 0x6
 244 0139 34000000 		.4byte	.LASF26
 245 013d 05       		.byte	0x5
 246 013e 63       		.byte	0x63
 247 013f CE000000 		.4byte	0xce
 248 0143 02       		.byte	0x2
 249 0144 23       		.byte	0x23
 250 0145 08       		.uleb128 0x8
 251 0146 06       		.uleb128 0x6
 252 0147 36030000 		.4byte	.LASF27
 253 014b 05       		.byte	0x5
 254 014c 64       		.byte	0x64
 255 014d 18040000 		.4byte	0x418
 256 0151 02       		.byte	0x2
 257 0152 23       		.byte	0x23
 258 0153 0C       		.uleb128 0xc
 259 0154 06       		.uleb128 0x6
 260 0155 F2000000 		.4byte	.LASF28
 261 0159 05       		.byte	0x5
 262 015a 66       		.byte	0x66
 263 015b 5A020000 		.4byte	0x25a
 264 015f 02       		.byte	0x2
 265 0160 23       		.byte	0x23
 266 0161 10       		.uleb128 0x10
 267 0162 06       		.uleb128 0x6
 268 0163 CA010000 		.4byte	.LASF29
 269 0167 05       		.byte	0x5
 270 0168 67       		.byte	0x67
 271 0169 5A020000 		.4byte	0x25a
 272 016d 02       		.byte	0x2
 273 016e 23       		.byte	0x23
 274 016f 14       		.uleb128 0x14
 275 0170 06       		.uleb128 0x6
 276 0171 27030000 		.4byte	.LASF30
 277 0175 05       		.byte	0x5
 278 0176 6E       		.byte	0x6e
 279 0177 F8040000 		.4byte	0x4f8
 280 017b 02       		.byte	0x2
 281 017c 23       		.byte	0x23
 282 017d 18       		.uleb128 0x18
 283 017e 06       		.uleb128 0x6
 284 017f 26020000 		.4byte	.LASF31
ARM GAS  C:\Users\jenny\AppData\Local\Temp\cc4L9JBz.s 			page 6


 285 0183 05       		.byte	0x5
 286 0184 79       		.byte	0x79
 287 0185 AD000000 		.4byte	0xad
 288 0189 02       		.byte	0x2
 289 018a 23       		.byte	0x23
 290 018b 1C       		.uleb128 0x1c
 291 018c 06       		.uleb128 0x6
 292 018d 46020000 		.4byte	.LASF32
 293 0191 05       		.byte	0x5
 294 0192 7D       		.byte	0x7d
 295 0193 A2000000 		.4byte	0xa2
 296 0197 02       		.byte	0x2
 297 0198 23       		.byte	0x23
 298 0199 1D       		.uleb128 0x1d
 299 019a 06       		.uleb128 0x6
 300 019b BE020000 		.4byte	.LASF33
 301 019f 05       		.byte	0x5
 302 01a0 82       		.byte	0x82
 303 01a1 B8000000 		.4byte	0xb8
 304 01a5 02       		.byte	0x2
 305 01a6 23       		.byte	0x23
 306 01a7 1E       		.uleb128 0x1e
 307 01a8 06       		.uleb128 0x6
 308 01a9 2E020000 		.4byte	.LASF34
 309 01ad 05       		.byte	0x5
 310 01ae 88       		.byte	0x88
 311 01af C3000000 		.4byte	0xc3
 312 01b3 02       		.byte	0x2
 313 01b4 23       		.byte	0x23
 314 01b5 1F       		.uleb128 0x1f
 315 01b6 06       		.uleb128 0x6
 316 01b7 8F020000 		.4byte	.LASF35
 317 01bb 05       		.byte	0x5
 318 01bc 8F       		.byte	0x8f
 319 01bd 42040000 		.4byte	0x442
 320 01c1 02       		.byte	0x2
 321 01c2 23       		.byte	0x23
 322 01c3 20       		.uleb128 0x20
 323 01c4 07       		.uleb128 0x7
 324 01c5 705F7500 		.ascii	"p_u\000"
 325 01c9 05       		.byte	0x5
 326 01ca B4       		.byte	0xb4
 327 01cb C3040000 		.4byte	0x4c3
 328 01cf 02       		.byte	0x2
 329 01d0 23       		.byte	0x23
 330 01d1 24       		.uleb128 0x24
 331 01d2 06       		.uleb128 0x6
 332 01d3 3C030000 		.4byte	.LASF36
 333 01d7 05       		.byte	0x5
 334 01d8 B9       		.byte	0xb9
 335 01d9 82020000 		.4byte	0x282
 336 01dd 02       		.byte	0x2
 337 01de 23       		.byte	0x23
 338 01df 28       		.uleb128 0x28
 339 01e0 06       		.uleb128 0x6
 340 01e1 9D020000 		.4byte	.LASF37
 341 01e5 05       		.byte	0x5
ARM GAS  C:\Users\jenny\AppData\Local\Temp\cc4L9JBz.s 			page 7


 342 01e6 BF       		.byte	0xbf
 343 01e7 60020000 		.4byte	0x260
 344 01eb 02       		.byte	0x2
 345 01ec 23       		.byte	0x23
 346 01ed 2C       		.uleb128 0x2c
 347 01ee 06       		.uleb128 0x6
 348 01ef 07000000 		.4byte	.LASF38
 349 01f3 05       		.byte	0x5
 350 01f4 C3       		.byte	0xc3
 351 01f5 D9000000 		.4byte	0xd9
 352 01f9 02       		.byte	0x2
 353 01fa 23       		.byte	0x23
 354 01fb 34       		.uleb128 0x34
 355 01fc 06       		.uleb128 0x6
 356 01fd 5A020000 		.4byte	.LASF39
 357 0201 05       		.byte	0x5
 358 0202 C9       		.byte	0xc9
 359 0203 E4000000 		.4byte	0xe4
 360 0207 02       		.byte	0x2
 361 0208 23       		.byte	0x23
 362 0209 38       		.uleb128 0x38
 363 020a 06       		.uleb128 0x6
 364 020b 12020000 		.4byte	.LASF40
 365 020f 05       		.byte	0x5
 366 0210 D0       		.byte	0xd0
 367 0211 0A050000 		.4byte	0x50a
 368 0215 02       		.byte	0x2
 369 0216 23       		.byte	0x23
 370 0217 3C       		.uleb128 0x3c
 371 0218 06       		.uleb128 0x6
 372 0219 84020000 		.4byte	.LASF41
 373 021d 05       		.byte	0x5
 374 021e D4       		.byte	0xd4
 375 021f CE000000 		.4byte	0xce
 376 0223 02       		.byte	0x2
 377 0224 23       		.byte	0x23
 378 0225 40       		.uleb128 0x40
 379 0226 06       		.uleb128 0x6
 380 0227 7D000000 		.4byte	.LASF42
 381 022b 05       		.byte	0x5
 382 022c DA       		.byte	0xda
 383 022d 98020000 		.4byte	0x298
 384 0231 02       		.byte	0x2
 385 0232 23       		.byte	0x23
 386 0233 44       		.uleb128 0x44
 387 0234 00       		.byte	0
 388 0235 08       		.uleb128 0x8
 389 0236 08       		.byte	0x8
 390 0237 04       		.byte	0x4
 391 0238 61       		.byte	0x61
 392 0239 5A020000 		.4byte	0x25a
 393 023d 06       		.uleb128 0x6
 394 023e 3F020000 		.4byte	.LASF24
 395 0242 04       		.byte	0x4
 396 0243 62       		.byte	0x62
 397 0244 5A020000 		.4byte	0x25a
 398 0248 02       		.byte	0x2
ARM GAS  C:\Users\jenny\AppData\Local\Temp\cc4L9JBz.s 			page 8


 399 0249 23       		.byte	0x23
 400 024a 00       		.uleb128 0
 401 024b 06       		.uleb128 0x6
 402 024c E7010000 		.4byte	.LASF25
 403 0250 04       		.byte	0x4
 404 0251 64       		.byte	0x64
 405 0252 5A020000 		.4byte	0x25a
 406 0256 02       		.byte	0x2
 407 0257 23       		.byte	0x23
 408 0258 04       		.uleb128 0x4
 409 0259 00       		.byte	0
 410 025a 09       		.uleb128 0x9
 411 025b 04       		.byte	0x4
 412 025c 05010000 		.4byte	0x105
 413 0260 04       		.uleb128 0x4
 414 0261 D2010000 		.4byte	.LASF43
 415 0265 04       		.byte	0x4
 416 0266 66       		.byte	0x66
 417 0267 35020000 		.4byte	0x235
 418 026b 08       		.uleb128 0x8
 419 026c 04       		.byte	0x4
 420 026d 04       		.byte	0x4
 421 026e 6B       		.byte	0x6b
 422 026f 82020000 		.4byte	0x282
 423 0273 06       		.uleb128 0x6
 424 0274 3F020000 		.4byte	.LASF24
 425 0278 04       		.byte	0x4
 426 0279 6D       		.byte	0x6d
 427 027a 5A020000 		.4byte	0x25a
 428 027e 02       		.byte	0x2
 429 027f 23       		.byte	0x23
 430 0280 00       		.uleb128 0
 431 0281 00       		.byte	0
 432 0282 04       		.uleb128 0x4
 433 0283 79010000 		.4byte	.LASF44
 434 0287 04       		.byte	0x4
 435 0288 70       		.byte	0x70
 436 0289 6B020000 		.4byte	0x26b
 437 028d 04       		.uleb128 0x4
 438 028e 0B010000 		.4byte	.LASF45
 439 0292 06       		.byte	0x6
 440 0293 E5       		.byte	0xe5
 441 0294 98020000 		.4byte	0x298
 442 0298 0A       		.uleb128 0xa
 443 0299 04       		.byte	0x4
 444 029a 0B       		.uleb128 0xb
 445 029b 00000000 		.4byte	.LASF46
 446 029f 64       		.byte	0x64
 447 02a0 06       		.byte	0x6
 448 02a1 0C01     		.2byte	0x10c
 449 02a3 18040000 		.4byte	0x418
 450 02a7 0C       		.uleb128 0xc
 451 02a8 73313600 		.ascii	"s16\000"
 452 02ac 06       		.byte	0x6
 453 02ad 0E01     		.2byte	0x10e
 454 02af 8D020000 		.4byte	0x28d
 455 02b3 02       		.byte	0x2
ARM GAS  C:\Users\jenny\AppData\Local\Temp\cc4L9JBz.s 			page 9


 456 02b4 23       		.byte	0x23
 457 02b5 00       		.uleb128 0
 458 02b6 0C       		.uleb128 0xc
 459 02b7 73313700 		.ascii	"s17\000"
 460 02bb 06       		.byte	0x6
 461 02bc 0F01     		.2byte	0x10f
 462 02be 8D020000 		.4byte	0x28d
 463 02c2 02       		.byte	0x2
 464 02c3 23       		.byte	0x23
 465 02c4 04       		.uleb128 0x4
 466 02c5 0C       		.uleb128 0xc
 467 02c6 73313800 		.ascii	"s18\000"
 468 02ca 06       		.byte	0x6
 469 02cb 1001     		.2byte	0x110
 470 02cd 8D020000 		.4byte	0x28d
 471 02d1 02       		.byte	0x2
 472 02d2 23       		.byte	0x23
 473 02d3 08       		.uleb128 0x8
 474 02d4 0C       		.uleb128 0xc
 475 02d5 73313900 		.ascii	"s19\000"
 476 02d9 06       		.byte	0x6
 477 02da 1101     		.2byte	0x111
 478 02dc 8D020000 		.4byte	0x28d
 479 02e0 02       		.byte	0x2
 480 02e1 23       		.byte	0x23
 481 02e2 0C       		.uleb128 0xc
 482 02e3 0C       		.uleb128 0xc
 483 02e4 73323000 		.ascii	"s20\000"
 484 02e8 06       		.byte	0x6
 485 02e9 1201     		.2byte	0x112
 486 02eb 8D020000 		.4byte	0x28d
 487 02ef 02       		.byte	0x2
 488 02f0 23       		.byte	0x23
 489 02f1 10       		.uleb128 0x10
 490 02f2 0C       		.uleb128 0xc
 491 02f3 73323100 		.ascii	"s21\000"
 492 02f7 06       		.byte	0x6
 493 02f8 1301     		.2byte	0x113
 494 02fa 8D020000 		.4byte	0x28d
 495 02fe 02       		.byte	0x2
 496 02ff 23       		.byte	0x23
 497 0300 14       		.uleb128 0x14
 498 0301 0C       		.uleb128 0xc
 499 0302 73323200 		.ascii	"s22\000"
 500 0306 06       		.byte	0x6
 501 0307 1401     		.2byte	0x114
 502 0309 8D020000 		.4byte	0x28d
 503 030d 02       		.byte	0x2
 504 030e 23       		.byte	0x23
 505 030f 18       		.uleb128 0x18
 506 0310 0C       		.uleb128 0xc
 507 0311 73323300 		.ascii	"s23\000"
 508 0315 06       		.byte	0x6
 509 0316 1501     		.2byte	0x115
 510 0318 8D020000 		.4byte	0x28d
 511 031c 02       		.byte	0x2
 512 031d 23       		.byte	0x23
ARM GAS  C:\Users\jenny\AppData\Local\Temp\cc4L9JBz.s 			page 10


 513 031e 1C       		.uleb128 0x1c
 514 031f 0C       		.uleb128 0xc
 515 0320 73323400 		.ascii	"s24\000"
 516 0324 06       		.byte	0x6
 517 0325 1601     		.2byte	0x116
 518 0327 8D020000 		.4byte	0x28d
 519 032b 02       		.byte	0x2
 520 032c 23       		.byte	0x23
 521 032d 20       		.uleb128 0x20
 522 032e 0C       		.uleb128 0xc
 523 032f 73323500 		.ascii	"s25\000"
 524 0333 06       		.byte	0x6
 525 0334 1701     		.2byte	0x117
 526 0336 8D020000 		.4byte	0x28d
 527 033a 02       		.byte	0x2
 528 033b 23       		.byte	0x23
 529 033c 24       		.uleb128 0x24
 530 033d 0C       		.uleb128 0xc
 531 033e 73323600 		.ascii	"s26\000"
 532 0342 06       		.byte	0x6
 533 0343 1801     		.2byte	0x118
 534 0345 8D020000 		.4byte	0x28d
 535 0349 02       		.byte	0x2
 536 034a 23       		.byte	0x23
 537 034b 28       		.uleb128 0x28
 538 034c 0C       		.uleb128 0xc
 539 034d 73323700 		.ascii	"s27\000"
 540 0351 06       		.byte	0x6
 541 0352 1901     		.2byte	0x119
 542 0354 8D020000 		.4byte	0x28d
 543 0358 02       		.byte	0x2
 544 0359 23       		.byte	0x23
 545 035a 2C       		.uleb128 0x2c
 546 035b 0C       		.uleb128 0xc
 547 035c 73323800 		.ascii	"s28\000"
 548 0360 06       		.byte	0x6
 549 0361 1A01     		.2byte	0x11a
 550 0363 8D020000 		.4byte	0x28d
 551 0367 02       		.byte	0x2
 552 0368 23       		.byte	0x23
 553 0369 30       		.uleb128 0x30
 554 036a 0C       		.uleb128 0xc
 555 036b 73323900 		.ascii	"s29\000"
 556 036f 06       		.byte	0x6
 557 0370 1B01     		.2byte	0x11b
 558 0372 8D020000 		.4byte	0x28d
 559 0376 02       		.byte	0x2
 560 0377 23       		.byte	0x23
 561 0378 34       		.uleb128 0x34
 562 0379 0C       		.uleb128 0xc
 563 037a 73333000 		.ascii	"s30\000"
 564 037e 06       		.byte	0x6
 565 037f 1C01     		.2byte	0x11c
 566 0381 8D020000 		.4byte	0x28d
 567 0385 02       		.byte	0x2
 568 0386 23       		.byte	0x23
 569 0387 38       		.uleb128 0x38
ARM GAS  C:\Users\jenny\AppData\Local\Temp\cc4L9JBz.s 			page 11


 570 0388 0C       		.uleb128 0xc
 571 0389 73333100 		.ascii	"s31\000"
 572 038d 06       		.byte	0x6
 573 038e 1D01     		.2byte	0x11d
 574 0390 8D020000 		.4byte	0x28d
 575 0394 02       		.byte	0x2
 576 0395 23       		.byte	0x23
 577 0396 3C       		.uleb128 0x3c
 578 0397 0C       		.uleb128 0xc
 579 0398 723400   		.ascii	"r4\000"
 580 039b 06       		.byte	0x6
 581 039c 1F01     		.2byte	0x11f
 582 039e 8D020000 		.4byte	0x28d
 583 03a2 02       		.byte	0x2
 584 03a3 23       		.byte	0x23
 585 03a4 40       		.uleb128 0x40
 586 03a5 0C       		.uleb128 0xc
 587 03a6 723500   		.ascii	"r5\000"
 588 03a9 06       		.byte	0x6
 589 03aa 2001     		.2byte	0x120
 590 03ac 8D020000 		.4byte	0x28d
 591 03b0 02       		.byte	0x2
 592 03b1 23       		.byte	0x23
 593 03b2 44       		.uleb128 0x44
 594 03b3 0C       		.uleb128 0xc
 595 03b4 723600   		.ascii	"r6\000"
 596 03b7 06       		.byte	0x6
 597 03b8 2101     		.2byte	0x121
 598 03ba 8D020000 		.4byte	0x28d
 599 03be 02       		.byte	0x2
 600 03bf 23       		.byte	0x23
 601 03c0 48       		.uleb128 0x48
 602 03c1 0C       		.uleb128 0xc
 603 03c2 723700   		.ascii	"r7\000"
 604 03c5 06       		.byte	0x6
 605 03c6 2201     		.2byte	0x122
 606 03c8 8D020000 		.4byte	0x28d
 607 03cc 02       		.byte	0x2
 608 03cd 23       		.byte	0x23
 609 03ce 4C       		.uleb128 0x4c
 610 03cf 0C       		.uleb128 0xc
 611 03d0 723800   		.ascii	"r8\000"
 612 03d3 06       		.byte	0x6
 613 03d4 2301     		.2byte	0x123
 614 03d6 8D020000 		.4byte	0x28d
 615 03da 02       		.byte	0x2
 616 03db 23       		.byte	0x23
 617 03dc 50       		.uleb128 0x50
 618 03dd 0C       		.uleb128 0xc
 619 03de 723900   		.ascii	"r9\000"
 620 03e1 06       		.byte	0x6
 621 03e2 2401     		.2byte	0x124
 622 03e4 8D020000 		.4byte	0x28d
 623 03e8 02       		.byte	0x2
 624 03e9 23       		.byte	0x23
 625 03ea 54       		.uleb128 0x54
 626 03eb 0C       		.uleb128 0xc
ARM GAS  C:\Users\jenny\AppData\Local\Temp\cc4L9JBz.s 			page 12


 627 03ec 72313000 		.ascii	"r10\000"
 628 03f0 06       		.byte	0x6
 629 03f1 2501     		.2byte	0x125
 630 03f3 8D020000 		.4byte	0x28d
 631 03f7 02       		.byte	0x2
 632 03f8 23       		.byte	0x23
 633 03f9 58       		.uleb128 0x58
 634 03fa 0C       		.uleb128 0xc
 635 03fb 72313100 		.ascii	"r11\000"
 636 03ff 06       		.byte	0x6
 637 0400 2601     		.2byte	0x126
 638 0402 8D020000 		.4byte	0x28d
 639 0406 02       		.byte	0x2
 640 0407 23       		.byte	0x23
 641 0408 5C       		.uleb128 0x5c
 642 0409 0C       		.uleb128 0xc
 643 040a 6C7200   		.ascii	"lr\000"
 644 040d 06       		.byte	0x6
 645 040e 2701     		.2byte	0x127
 646 0410 8D020000 		.4byte	0x28d
 647 0414 02       		.byte	0x2
 648 0415 23       		.byte	0x23
 649 0416 60       		.uleb128 0x60
 650 0417 00       		.byte	0
 651 0418 0B       		.uleb128 0xb
 652 0419 50010000 		.4byte	.LASF47
 653 041d 04       		.byte	0x4
 654 041e 06       		.byte	0x6
 655 041f 3101     		.2byte	0x131
 656 0421 35040000 		.4byte	0x435
 657 0425 0C       		.uleb128 0xc
 658 0426 72313300 		.ascii	"r13\000"
 659 042a 06       		.byte	0x6
 660 042b 3201     		.2byte	0x132
 661 042d 35040000 		.4byte	0x435
 662 0431 02       		.byte	0x2
 663 0432 23       		.byte	0x23
 664 0433 00       		.uleb128 0
 665 0434 00       		.byte	0
 666 0435 09       		.uleb128 0x9
 667 0436 04       		.byte	0x4
 668 0437 9A020000 		.4byte	0x29a
 669 043b 03       		.uleb128 0x3
 670 043c 04       		.byte	0x4
 671 043d 07       		.byte	0x7
 672 043e AF010000 		.4byte	.LASF48
 673 0442 0D       		.uleb128 0xd
 674 0443 EF000000 		.4byte	0xef
 675 0447 05       		.uleb128 0x5
 676 0448 A8020000 		.4byte	.LASF49
 677 044c 0C       		.byte	0xc
 678 044d 07       		.byte	0x7
 679 044e 2C       		.byte	0x2c
 680 044f 70040000 		.4byte	0x470
 681 0453 06       		.uleb128 0x6
 682 0454 FA000000 		.4byte	.LASF50
 683 0458 07       		.byte	0x7
ARM GAS  C:\Users\jenny\AppData\Local\Temp\cc4L9JBz.s 			page 13


 684 0459 2D       		.byte	0x2d
 685 045a 60020000 		.4byte	0x260
 686 045e 02       		.byte	0x2
 687 045f 23       		.byte	0x23
 688 0460 00       		.uleb128 0
 689 0461 06       		.uleb128 0x6
 690 0462 4A010000 		.4byte	.LASF51
 691 0466 07       		.byte	0x7
 692 0467 2F       		.byte	0x2f
 693 0468 FA000000 		.4byte	0xfa
 694 046c 02       		.byte	0x2
 695 046d 23       		.byte	0x23
 696 046e 08       		.uleb128 0x8
 697 046f 00       		.byte	0
 698 0470 04       		.uleb128 0x4
 699 0471 A8020000 		.4byte	.LASF49
 700 0475 07       		.byte	0x7
 701 0476 30       		.byte	0x30
 702 0477 47040000 		.4byte	0x447
 703 047b 05       		.uleb128 0x5
 704 047c 91010000 		.4byte	.LASF52
 705 0480 10       		.byte	0x10
 706 0481 08       		.byte	0x8
 707 0482 2C       		.byte	0x2c
 708 0483 B2040000 		.4byte	0x4b2
 709 0487 06       		.uleb128 0x6
 710 0488 85000000 		.4byte	.LASF53
 711 048c 08       		.byte	0x8
 712 048d 2D       		.byte	0x2d
 713 048e 60020000 		.4byte	0x260
 714 0492 02       		.byte	0x2
 715 0493 23       		.byte	0x23
 716 0494 00       		.uleb128 0
 717 0495 06       		.uleb128 0x6
 718 0496 2E030000 		.4byte	.LASF54
 719 049a 08       		.byte	0x8
 720 049b 2F       		.byte	0x2f
 721 049c 5A020000 		.4byte	0x25a
 722 04a0 02       		.byte	0x2
 723 04a1 23       		.byte	0x23
 724 04a2 08       		.uleb128 0x8
 725 04a3 06       		.uleb128 0x6
 726 04a4 73020000 		.4byte	.LASF55
 727 04a8 08       		.byte	0x8
 728 04a9 31       		.byte	0x31
 729 04aa B2040000 		.4byte	0x4b2
 730 04ae 02       		.byte	0x2
 731 04af 23       		.byte	0x23
 732 04b0 0C       		.uleb128 0xc
 733 04b1 00       		.byte	0
 734 04b2 09       		.uleb128 0x9
 735 04b3 04       		.byte	0x4
 736 04b4 7B040000 		.4byte	0x47b
 737 04b8 04       		.uleb128 0x4
 738 04b9 91010000 		.4byte	.LASF52
 739 04bd 08       		.byte	0x8
 740 04be 33       		.byte	0x33
ARM GAS  C:\Users\jenny\AppData\Local\Temp\cc4L9JBz.s 			page 14


 741 04bf 7B040000 		.4byte	0x47b
 742 04c3 0E       		.uleb128 0xe
 743 04c4 04       		.byte	0x4
 744 04c5 05       		.byte	0x5
 745 04c6 96       		.byte	0x96
 746 04c7 F8040000 		.4byte	0x4f8
 747 04cb 0F       		.uleb128 0xf
 748 04cc 0D000000 		.4byte	.LASF56
 749 04d0 05       		.byte	0x5
 750 04d1 9D       		.byte	0x9d
 751 04d2 D9000000 		.4byte	0xd9
 752 04d6 0F       		.uleb128 0xf
 753 04d7 02010000 		.4byte	.LASF57
 754 04db 05       		.byte	0x5
 755 04dc A4       		.byte	0xa4
 756 04dd D9000000 		.4byte	0xd9
 757 04e1 0F       		.uleb128 0xf
 758 04e2 20030000 		.4byte	.LASF58
 759 04e6 05       		.byte	0x5
 760 04e7 AB       		.byte	0xab
 761 04e8 98020000 		.4byte	0x298
 762 04ec 0F       		.uleb128 0xf
 763 04ed 38020000 		.4byte	.LASF59
 764 04f1 05       		.byte	0x5
 765 04f2 B2       		.byte	0xb2
 766 04f3 E4000000 		.4byte	0xe4
 767 04f7 00       		.byte	0
 768 04f8 09       		.uleb128 0x9
 769 04f9 04       		.byte	0x4
 770 04fa FE040000 		.4byte	0x4fe
 771 04fe 10       		.uleb128 0x10
 772 04ff 03050000 		.4byte	0x503
 773 0503 03       		.uleb128 0x3
 774 0504 01       		.byte	0x1
 775 0505 08       		.byte	0x8
 776 0506 6E020000 		.4byte	.LASF60
 777 050a 09       		.uleb128 0x9
 778 050b 04       		.byte	0x4
 779 050c B8040000 		.4byte	0x4b8
 780 0510 04       		.uleb128 0x4
 781 0511 AA010000 		.4byte	.LASF61
 782 0515 09       		.byte	0x9
 783 0516 38       		.byte	0x38
 784 0517 49000000 		.4byte	0x49
 785 051b 04       		.uleb128 0x4
 786 051c 55020000 		.4byte	.LASF62
 787 0520 09       		.byte	0x9
 788 0521 39       		.byte	0x39
 789 0522 37000000 		.4byte	0x37
 790 0526 04       		.uleb128 0x4
 791 0527 44010000 		.4byte	.LASF63
 792 052b 09       		.byte	0x9
 793 052c 3C       		.byte	0x3c
 794 052d 7B000000 		.4byte	0x7b
 795 0531 04       		.uleb128 0x4
 796 0532 A4010000 		.4byte	.LASF64
 797 0536 0A       		.byte	0xa
ARM GAS  C:\Users\jenny\AppData\Local\Temp\cc4L9JBz.s 			page 15


 798 0537 2F       		.byte	0x2f
 799 0538 1B050000 		.4byte	0x51b
 800 053c 04       		.uleb128 0x4
 801 053d 3B000000 		.4byte	.LASF65
 802 0541 0B       		.byte	0xb
 803 0542 38       		.byte	0x38
 804 0543 47050000 		.4byte	0x547
 805 0547 09       		.uleb128 0x9
 806 0548 04       		.byte	0x4
 807 0549 70040000 		.4byte	0x470
 808 054d 11       		.uleb128 0x11
 809 054e 01       		.byte	0x1
 810 054f 27010000 		.4byte	.LASF72
 811 0553 01       		.byte	0x1
 812 0554 37       		.byte	0x37
 813 0555 01       		.byte	0x1
 814 0556 00000000 		.4byte	.LFB7
 815 055a 28000000 		.4byte	.LFE7
 816 055e 00000000 		.4byte	.LLST0
 817 0562 01       		.byte	0x1
 818 0563 E0050000 		.4byte	0x5e0
 819 0567 12       		.uleb128 0x12
 820 0568 6D7300   		.ascii	"ms\000"
 821 056b 01       		.byte	0x1
 822 056c 37       		.byte	0x37
 823 056d 26050000 		.4byte	0x526
 824 0571 2C000000 		.4byte	.LLST1
 825 0575 13       		.uleb128 0x13
 826 0576 0C000000 		.4byte	.LBB2
 827 057a 28000000 		.4byte	.LBE2
 828 057e 14       		.uleb128 0x14
 829 057f 14000000 		.4byte	.LASF66
 830 0583 01       		.byte	0x1
 831 0584 3A       		.byte	0x3a
 832 0585 3C050000 		.4byte	0x53c
 833 0589 02       		.byte	0x2
 834 058a 91       		.byte	0x91
 835 058b 74       		.sleb128 -12
 836 058c 15       		.uleb128 0x15
 837 058d 65727200 		.ascii	"err\000"
 838 0591 01       		.byte	0x1
 839 0592 3B       		.byte	0x3b
 840 0593 31050000 		.4byte	0x531
 841 0597 60000000 		.4byte	.LLST2
 842 059b 16       		.uleb128 0x16
 843 059c 14000000 		.4byte	.LVL4
 844 05a0 E0050000 		.4byte	0x5e0
 845 05a4 B4050000 		.4byte	0x5b4
 846 05a8 17       		.uleb128 0x17
 847 05a9 01       		.byte	0x1
 848 05aa 51       		.byte	0x51
 849 05ab 01       		.byte	0x1
 850 05ac 30       		.byte	0x30
 851 05ad 17       		.uleb128 0x17
 852 05ae 01       		.byte	0x1
 853 05af 50       		.byte	0x50
 854 05b0 02       		.byte	0x2
ARM GAS  C:\Users\jenny\AppData\Local\Temp\cc4L9JBz.s 			page 16


 855 05b1 91       		.byte	0x91
 856 05b2 74       		.sleb128 -12
 857 05b3 00       		.byte	0
 858 05b4 16       		.uleb128 0x16
 859 05b5 20000000 		.4byte	.LVL6
 860 05b9 03060000 		.4byte	0x603
 861 05bd CE050000 		.4byte	0x5ce
 862 05c1 17       		.uleb128 0x17
 863 05c2 01       		.byte	0x1
 864 05c3 51       		.byte	0x51
 865 05c4 02       		.byte	0x2
 866 05c5 74       		.byte	0x74
 867 05c6 00       		.sleb128 0
 868 05c7 17       		.uleb128 0x17
 869 05c8 01       		.byte	0x1
 870 05c9 50       		.byte	0x50
 871 05ca 02       		.byte	0x2
 872 05cb 91       		.byte	0x91
 873 05cc 74       		.sleb128 -12
 874 05cd 00       		.byte	0
 875 05ce 18       		.uleb128 0x18
 876 05cf 26000000 		.4byte	.LVL7
 877 05d3 20060000 		.4byte	0x620
 878 05d7 17       		.uleb128 0x17
 879 05d8 01       		.byte	0x1
 880 05d9 50       		.byte	0x50
 881 05da 02       		.byte	0x2
 882 05db 91       		.byte	0x91
 883 05dc 74       		.sleb128 -12
 884 05dd 00       		.byte	0
 885 05de 00       		.byte	0
 886 05df 00       		.byte	0
 887 05e0 19       		.uleb128 0x19
 888 05e1 01       		.byte	0x1
 889 05e2 B2020000 		.4byte	.LASF67
 890 05e6 0C       		.byte	0xc
 891 05e7 8B       		.byte	0x8b
 892 05e8 01       		.byte	0x1
 893 05e9 31050000 		.4byte	0x531
 894 05ed 01       		.byte	0x1
 895 05ee FD050000 		.4byte	0x5fd
 896 05f2 1A       		.uleb128 0x1a
 897 05f3 FD050000 		.4byte	0x5fd
 898 05f7 1A       		.uleb128 0x1a
 899 05f8 10050000 		.4byte	0x510
 900 05fc 00       		.byte	0
 901 05fd 09       		.uleb128 0x9
 902 05fe 04       		.byte	0x4
 903 05ff 3C050000 		.4byte	0x53c
 904 0603 19       		.uleb128 0x19
 905 0604 01       		.byte	0x1
 906 0605 B8010000 		.4byte	.LASF68
 907 0609 0C       		.byte	0xc
 908 060a 97       		.byte	0x97
 909 060b 01       		.byte	0x1
 910 060c 26050000 		.4byte	0x526
 911 0610 01       		.byte	0x1
ARM GAS  C:\Users\jenny\AppData\Local\Temp\cc4L9JBz.s 			page 17


 912 0611 20060000 		.4byte	0x620
 913 0615 1A       		.uleb128 0x1a
 914 0616 FD050000 		.4byte	0x5fd
 915 061a 1A       		.uleb128 0x1a
 916 061b 26050000 		.4byte	0x526
 917 061f 00       		.byte	0
 918 0620 1B       		.uleb128 0x1b
 919 0621 01       		.byte	0x1
 920 0622 97010000 		.4byte	.LASF73
 921 0626 0C       		.byte	0xc
 922 0627 9A       		.byte	0x9a
 923 0628 01       		.byte	0x1
 924 0629 01       		.byte	0x1
 925 062a 1A       		.uleb128 0x1a
 926 062b FD050000 		.4byte	0x5fd
 927 062f 00       		.byte	0
 928 0630 00       		.byte	0
 929              		.section	.debug_abbrev,"",%progbits
 930              	.Ldebug_abbrev0:
 931 0000 01       		.uleb128 0x1
 932 0001 11       		.uleb128 0x11
 933 0002 01       		.byte	0x1
 934 0003 25       		.uleb128 0x25
 935 0004 0E       		.uleb128 0xe
 936 0005 13       		.uleb128 0x13
 937 0006 0B       		.uleb128 0xb
 938 0007 03       		.uleb128 0x3
 939 0008 0E       		.uleb128 0xe
 940 0009 1B       		.uleb128 0x1b
 941 000a 0E       		.uleb128 0xe
 942 000b 55       		.uleb128 0x55
 943 000c 06       		.uleb128 0x6
 944 000d 11       		.uleb128 0x11
 945 000e 01       		.uleb128 0x1
 946 000f 52       		.uleb128 0x52
 947 0010 01       		.uleb128 0x1
 948 0011 10       		.uleb128 0x10
 949 0012 06       		.uleb128 0x6
 950 0013 00       		.byte	0
 951 0014 00       		.byte	0
 952 0015 02       		.uleb128 0x2
 953 0016 24       		.uleb128 0x24
 954 0017 00       		.byte	0
 955 0018 0B       		.uleb128 0xb
 956 0019 0B       		.uleb128 0xb
 957 001a 3E       		.uleb128 0x3e
 958 001b 0B       		.uleb128 0xb
 959 001c 03       		.uleb128 0x3
 960 001d 08       		.uleb128 0x8
 961 001e 00       		.byte	0
 962 001f 00       		.byte	0
 963 0020 03       		.uleb128 0x3
 964 0021 24       		.uleb128 0x24
 965 0022 00       		.byte	0
 966 0023 0B       		.uleb128 0xb
 967 0024 0B       		.uleb128 0xb
 968 0025 3E       		.uleb128 0x3e
ARM GAS  C:\Users\jenny\AppData\Local\Temp\cc4L9JBz.s 			page 18


 969 0026 0B       		.uleb128 0xb
 970 0027 03       		.uleb128 0x3
 971 0028 0E       		.uleb128 0xe
 972 0029 00       		.byte	0
 973 002a 00       		.byte	0
 974 002b 04       		.uleb128 0x4
 975 002c 16       		.uleb128 0x16
 976 002d 00       		.byte	0
 977 002e 03       		.uleb128 0x3
 978 002f 0E       		.uleb128 0xe
 979 0030 3A       		.uleb128 0x3a
 980 0031 0B       		.uleb128 0xb
 981 0032 3B       		.uleb128 0x3b
 982 0033 0B       		.uleb128 0xb
 983 0034 49       		.uleb128 0x49
 984 0035 13       		.uleb128 0x13
 985 0036 00       		.byte	0
 986 0037 00       		.byte	0
 987 0038 05       		.uleb128 0x5
 988 0039 13       		.uleb128 0x13
 989 003a 01       		.byte	0x1
 990 003b 03       		.uleb128 0x3
 991 003c 0E       		.uleb128 0xe
 992 003d 0B       		.uleb128 0xb
 993 003e 0B       		.uleb128 0xb
 994 003f 3A       		.uleb128 0x3a
 995 0040 0B       		.uleb128 0xb
 996 0041 3B       		.uleb128 0x3b
 997 0042 0B       		.uleb128 0xb
 998 0043 01       		.uleb128 0x1
 999 0044 13       		.uleb128 0x13
 1000 0045 00       		.byte	0
 1001 0046 00       		.byte	0
 1002 0047 06       		.uleb128 0x6
 1003 0048 0D       		.uleb128 0xd
 1004 0049 00       		.byte	0
 1005 004a 03       		.uleb128 0x3
 1006 004b 0E       		.uleb128 0xe
 1007 004c 3A       		.uleb128 0x3a
 1008 004d 0B       		.uleb128 0xb
 1009 004e 3B       		.uleb128 0x3b
 1010 004f 0B       		.uleb128 0xb
 1011 0050 49       		.uleb128 0x49
 1012 0051 13       		.uleb128 0x13
 1013 0052 38       		.uleb128 0x38
 1014 0053 0A       		.uleb128 0xa
 1015 0054 00       		.byte	0
 1016 0055 00       		.byte	0
 1017 0056 07       		.uleb128 0x7
 1018 0057 0D       		.uleb128 0xd
 1019 0058 00       		.byte	0
 1020 0059 03       		.uleb128 0x3
 1021 005a 08       		.uleb128 0x8
 1022 005b 3A       		.uleb128 0x3a
 1023 005c 0B       		.uleb128 0xb
 1024 005d 3B       		.uleb128 0x3b
 1025 005e 0B       		.uleb128 0xb
ARM GAS  C:\Users\jenny\AppData\Local\Temp\cc4L9JBz.s 			page 19


 1026 005f 49       		.uleb128 0x49
 1027 0060 13       		.uleb128 0x13
 1028 0061 38       		.uleb128 0x38
 1029 0062 0A       		.uleb128 0xa
 1030 0063 00       		.byte	0
 1031 0064 00       		.byte	0
 1032 0065 08       		.uleb128 0x8
 1033 0066 13       		.uleb128 0x13
 1034 0067 01       		.byte	0x1
 1035 0068 0B       		.uleb128 0xb
 1036 0069 0B       		.uleb128 0xb
 1037 006a 3A       		.uleb128 0x3a
 1038 006b 0B       		.uleb128 0xb
 1039 006c 3B       		.uleb128 0x3b
 1040 006d 0B       		.uleb128 0xb
 1041 006e 01       		.uleb128 0x1
 1042 006f 13       		.uleb128 0x13
 1043 0070 00       		.byte	0
 1044 0071 00       		.byte	0
 1045 0072 09       		.uleb128 0x9
 1046 0073 0F       		.uleb128 0xf
 1047 0074 00       		.byte	0
 1048 0075 0B       		.uleb128 0xb
 1049 0076 0B       		.uleb128 0xb
 1050 0077 49       		.uleb128 0x49
 1051 0078 13       		.uleb128 0x13
 1052 0079 00       		.byte	0
 1053 007a 00       		.byte	0
 1054 007b 0A       		.uleb128 0xa
 1055 007c 0F       		.uleb128 0xf
 1056 007d 00       		.byte	0
 1057 007e 0B       		.uleb128 0xb
 1058 007f 0B       		.uleb128 0xb
 1059 0080 00       		.byte	0
 1060 0081 00       		.byte	0
 1061 0082 0B       		.uleb128 0xb
 1062 0083 13       		.uleb128 0x13
 1063 0084 01       		.byte	0x1
 1064 0085 03       		.uleb128 0x3
 1065 0086 0E       		.uleb128 0xe
 1066 0087 0B       		.uleb128 0xb
 1067 0088 0B       		.uleb128 0xb
 1068 0089 3A       		.uleb128 0x3a
 1069 008a 0B       		.uleb128 0xb
 1070 008b 3B       		.uleb128 0x3b
 1071 008c 05       		.uleb128 0x5
 1072 008d 01       		.uleb128 0x1
 1073 008e 13       		.uleb128 0x13
 1074 008f 00       		.byte	0
 1075 0090 00       		.byte	0
 1076 0091 0C       		.uleb128 0xc
 1077 0092 0D       		.uleb128 0xd
 1078 0093 00       		.byte	0
 1079 0094 03       		.uleb128 0x3
 1080 0095 08       		.uleb128 0x8
 1081 0096 3A       		.uleb128 0x3a
 1082 0097 0B       		.uleb128 0xb
ARM GAS  C:\Users\jenny\AppData\Local\Temp\cc4L9JBz.s 			page 20


 1083 0098 3B       		.uleb128 0x3b
 1084 0099 05       		.uleb128 0x5
 1085 009a 49       		.uleb128 0x49
 1086 009b 13       		.uleb128 0x13
 1087 009c 38       		.uleb128 0x38
 1088 009d 0A       		.uleb128 0xa
 1089 009e 00       		.byte	0
 1090 009f 00       		.byte	0
 1091 00a0 0D       		.uleb128 0xd
 1092 00a1 35       		.uleb128 0x35
 1093 00a2 00       		.byte	0
 1094 00a3 49       		.uleb128 0x49
 1095 00a4 13       		.uleb128 0x13
 1096 00a5 00       		.byte	0
 1097 00a6 00       		.byte	0
 1098 00a7 0E       		.uleb128 0xe
 1099 00a8 17       		.uleb128 0x17
 1100 00a9 01       		.byte	0x1
 1101 00aa 0B       		.uleb128 0xb
 1102 00ab 0B       		.uleb128 0xb
 1103 00ac 3A       		.uleb128 0x3a
 1104 00ad 0B       		.uleb128 0xb
 1105 00ae 3B       		.uleb128 0x3b
 1106 00af 0B       		.uleb128 0xb
 1107 00b0 01       		.uleb128 0x1
 1108 00b1 13       		.uleb128 0x13
 1109 00b2 00       		.byte	0
 1110 00b3 00       		.byte	0
 1111 00b4 0F       		.uleb128 0xf
 1112 00b5 0D       		.uleb128 0xd
 1113 00b6 00       		.byte	0
 1114 00b7 03       		.uleb128 0x3
 1115 00b8 0E       		.uleb128 0xe
 1116 00b9 3A       		.uleb128 0x3a
 1117 00ba 0B       		.uleb128 0xb
 1118 00bb 3B       		.uleb128 0x3b
 1119 00bc 0B       		.uleb128 0xb
 1120 00bd 49       		.uleb128 0x49
 1121 00be 13       		.uleb128 0x13
 1122 00bf 00       		.byte	0
 1123 00c0 00       		.byte	0
 1124 00c1 10       		.uleb128 0x10
 1125 00c2 26       		.uleb128 0x26
 1126 00c3 00       		.byte	0
 1127 00c4 49       		.uleb128 0x49
 1128 00c5 13       		.uleb128 0x13
 1129 00c6 00       		.byte	0
 1130 00c7 00       		.byte	0
 1131 00c8 11       		.uleb128 0x11
 1132 00c9 2E       		.uleb128 0x2e
 1133 00ca 01       		.byte	0x1
 1134 00cb 3F       		.uleb128 0x3f
 1135 00cc 0C       		.uleb128 0xc
 1136 00cd 03       		.uleb128 0x3
 1137 00ce 0E       		.uleb128 0xe
 1138 00cf 3A       		.uleb128 0x3a
 1139 00d0 0B       		.uleb128 0xb
ARM GAS  C:\Users\jenny\AppData\Local\Temp\cc4L9JBz.s 			page 21


 1140 00d1 3B       		.uleb128 0x3b
 1141 00d2 0B       		.uleb128 0xb
 1142 00d3 27       		.uleb128 0x27
 1143 00d4 0C       		.uleb128 0xc
 1144 00d5 11       		.uleb128 0x11
 1145 00d6 01       		.uleb128 0x1
 1146 00d7 12       		.uleb128 0x12
 1147 00d8 01       		.uleb128 0x1
 1148 00d9 40       		.uleb128 0x40
 1149 00da 06       		.uleb128 0x6
 1150 00db 9742     		.uleb128 0x2117
 1151 00dd 0C       		.uleb128 0xc
 1152 00de 01       		.uleb128 0x1
 1153 00df 13       		.uleb128 0x13
 1154 00e0 00       		.byte	0
 1155 00e1 00       		.byte	0
 1156 00e2 12       		.uleb128 0x12
 1157 00e3 05       		.uleb128 0x5
 1158 00e4 00       		.byte	0
 1159 00e5 03       		.uleb128 0x3
 1160 00e6 08       		.uleb128 0x8
 1161 00e7 3A       		.uleb128 0x3a
 1162 00e8 0B       		.uleb128 0xb
 1163 00e9 3B       		.uleb128 0x3b
 1164 00ea 0B       		.uleb128 0xb
 1165 00eb 49       		.uleb128 0x49
 1166 00ec 13       		.uleb128 0x13
 1167 00ed 02       		.uleb128 0x2
 1168 00ee 06       		.uleb128 0x6
 1169 00ef 00       		.byte	0
 1170 00f0 00       		.byte	0
 1171 00f1 13       		.uleb128 0x13
 1172 00f2 0B       		.uleb128 0xb
 1173 00f3 01       		.byte	0x1
 1174 00f4 11       		.uleb128 0x11
 1175 00f5 01       		.uleb128 0x1
 1176 00f6 12       		.uleb128 0x12
 1177 00f7 01       		.uleb128 0x1
 1178 00f8 00       		.byte	0
 1179 00f9 00       		.byte	0
 1180 00fa 14       		.uleb128 0x14
 1181 00fb 34       		.uleb128 0x34
 1182 00fc 00       		.byte	0
 1183 00fd 03       		.uleb128 0x3
 1184 00fe 0E       		.uleb128 0xe
 1185 00ff 3A       		.uleb128 0x3a
 1186 0100 0B       		.uleb128 0xb
 1187 0101 3B       		.uleb128 0x3b
 1188 0102 0B       		.uleb128 0xb
 1189 0103 49       		.uleb128 0x49
 1190 0104 13       		.uleb128 0x13
 1191 0105 02       		.uleb128 0x2
 1192 0106 0A       		.uleb128 0xa
 1193 0107 00       		.byte	0
 1194 0108 00       		.byte	0
 1195 0109 15       		.uleb128 0x15
 1196 010a 34       		.uleb128 0x34
ARM GAS  C:\Users\jenny\AppData\Local\Temp\cc4L9JBz.s 			page 22


 1197 010b 00       		.byte	0
 1198 010c 03       		.uleb128 0x3
 1199 010d 08       		.uleb128 0x8
 1200 010e 3A       		.uleb128 0x3a
 1201 010f 0B       		.uleb128 0xb
 1202 0110 3B       		.uleb128 0x3b
 1203 0111 0B       		.uleb128 0xb
 1204 0112 49       		.uleb128 0x49
 1205 0113 13       		.uleb128 0x13
 1206 0114 02       		.uleb128 0x2
 1207 0115 06       		.uleb128 0x6
 1208 0116 00       		.byte	0
 1209 0117 00       		.byte	0
 1210 0118 16       		.uleb128 0x16
 1211 0119 898201   		.uleb128 0x4109
 1212 011c 01       		.byte	0x1
 1213 011d 11       		.uleb128 0x11
 1214 011e 01       		.uleb128 0x1
 1215 011f 31       		.uleb128 0x31
 1216 0120 13       		.uleb128 0x13
 1217 0121 01       		.uleb128 0x1
 1218 0122 13       		.uleb128 0x13
 1219 0123 00       		.byte	0
 1220 0124 00       		.byte	0
 1221 0125 17       		.uleb128 0x17
 1222 0126 8A8201   		.uleb128 0x410a
 1223 0129 00       		.byte	0
 1224 012a 02       		.uleb128 0x2
 1225 012b 0A       		.uleb128 0xa
 1226 012c 9142     		.uleb128 0x2111
 1227 012e 0A       		.uleb128 0xa
 1228 012f 00       		.byte	0
 1229 0130 00       		.byte	0
 1230 0131 18       		.uleb128 0x18
 1231 0132 898201   		.uleb128 0x4109
 1232 0135 01       		.byte	0x1
 1233 0136 11       		.uleb128 0x11
 1234 0137 01       		.uleb128 0x1
 1235 0138 31       		.uleb128 0x31
 1236 0139 13       		.uleb128 0x13
 1237 013a 00       		.byte	0
 1238 013b 00       		.byte	0
 1239 013c 19       		.uleb128 0x19
 1240 013d 2E       		.uleb128 0x2e
 1241 013e 01       		.byte	0x1
 1242 013f 3F       		.uleb128 0x3f
 1243 0140 0C       		.uleb128 0xc
 1244 0141 03       		.uleb128 0x3
 1245 0142 0E       		.uleb128 0xe
 1246 0143 3A       		.uleb128 0x3a
 1247 0144 0B       		.uleb128 0xb
 1248 0145 3B       		.uleb128 0x3b
 1249 0146 0B       		.uleb128 0xb
 1250 0147 27       		.uleb128 0x27
 1251 0148 0C       		.uleb128 0xc
 1252 0149 49       		.uleb128 0x49
 1253 014a 13       		.uleb128 0x13
ARM GAS  C:\Users\jenny\AppData\Local\Temp\cc4L9JBz.s 			page 23


 1254 014b 3C       		.uleb128 0x3c
 1255 014c 0C       		.uleb128 0xc
 1256 014d 01       		.uleb128 0x1
 1257 014e 13       		.uleb128 0x13
 1258 014f 00       		.byte	0
 1259 0150 00       		.byte	0
 1260 0151 1A       		.uleb128 0x1a
 1261 0152 05       		.uleb128 0x5
 1262 0153 00       		.byte	0
 1263 0154 49       		.uleb128 0x49
 1264 0155 13       		.uleb128 0x13
 1265 0156 00       		.byte	0
 1266 0157 00       		.byte	0
 1267 0158 1B       		.uleb128 0x1b
 1268 0159 2E       		.uleb128 0x2e
 1269 015a 01       		.byte	0x1
 1270 015b 3F       		.uleb128 0x3f
 1271 015c 0C       		.uleb128 0xc
 1272 015d 03       		.uleb128 0x3
 1273 015e 0E       		.uleb128 0xe
 1274 015f 3A       		.uleb128 0x3a
 1275 0160 0B       		.uleb128 0xb
 1276 0161 3B       		.uleb128 0x3b
 1277 0162 0B       		.uleb128 0xb
 1278 0163 27       		.uleb128 0x27
 1279 0164 0C       		.uleb128 0xc
 1280 0165 3C       		.uleb128 0x3c
 1281 0166 0C       		.uleb128 0xc
 1282 0167 00       		.byte	0
 1283 0168 00       		.byte	0
 1284 0169 00       		.byte	0
 1285              		.section	.debug_loc,"",%progbits
 1286              	.Ldebug_loc0:
 1287              	.LLST0:
 1288 0000 00000000 		.4byte	.LFB7
 1289 0004 02000000 		.4byte	.LCFI0
 1290 0008 0200     		.2byte	0x2
 1291 000a 7D       		.byte	0x7d
 1292 000b 00       		.sleb128 0
 1293 000c 02000000 		.4byte	.LCFI0
 1294 0010 06000000 		.4byte	.LCFI1
 1295 0014 0200     		.2byte	0x2
 1296 0016 7D       		.byte	0x7d
 1297 0017 08       		.sleb128 8
 1298 0018 06000000 		.4byte	.LCFI1
 1299 001c 28000000 		.4byte	.LFE7
 1300 0020 0200     		.2byte	0x2
 1301 0022 7D       		.byte	0x7d
 1302 0023 10       		.sleb128 16
 1303 0024 00000000 		.4byte	0
 1304 0028 00000000 		.4byte	0
 1305              	.LLST1:
 1306 002c 00000000 		.4byte	.LVL0
 1307 0030 08000000 		.4byte	.LVL1
 1308 0034 0100     		.2byte	0x1
 1309 0036 50       		.byte	0x50
 1310 0037 08000000 		.4byte	.LVL1
ARM GAS  C:\Users\jenny\AppData\Local\Temp\cc4L9JBz.s 			page 24


 1311 003b 0C000000 		.4byte	.LVL2
 1312 003f 0100     		.2byte	0x1
 1313 0041 54       		.byte	0x54
 1314 0042 0C000000 		.4byte	.LVL2
 1315 0046 0E000000 		.4byte	.LVL3
 1316 004a 0100     		.2byte	0x1
 1317 004c 50       		.byte	0x50
 1318 004d 0E000000 		.4byte	.LVL3
 1319 0051 28000000 		.4byte	.LFE7
 1320 0055 0100     		.2byte	0x1
 1321 0057 54       		.byte	0x54
 1322 0058 00000000 		.4byte	0
 1323 005c 00000000 		.4byte	0
 1324              	.LLST2:
 1325 0060 14000000 		.4byte	.LVL4
 1326 0064 1A000000 		.4byte	.LVL5
 1327 0068 0100     		.2byte	0x1
 1328 006a 50       		.byte	0x50
 1329 006b 00000000 		.4byte	0
 1330 006f 00000000 		.4byte	0
 1331              		.section	.debug_aranges,"",%progbits
 1332 0000 1C000000 		.4byte	0x1c
 1333 0004 0200     		.2byte	0x2
 1334 0006 00000000 		.4byte	.Ldebug_info0
 1335 000a 04       		.byte	0x4
 1336 000b 00       		.byte	0
 1337 000c 0000     		.2byte	0
 1338 000e 0000     		.2byte	0
 1339 0010 00000000 		.4byte	.LFB7
 1340 0014 28000000 		.4byte	.LFE7-.LFB7
 1341 0018 00000000 		.4byte	0
 1342 001c 00000000 		.4byte	0
 1343              		.section	.debug_ranges,"",%progbits
 1344              	.Ldebug_ranges0:
 1345 0000 00000000 		.4byte	.LFB7
 1346 0004 28000000 		.4byte	.LFE7
 1347 0008 00000000 		.4byte	0
 1348 000c 00000000 		.4byte	0
 1349              		.section	.debug_line,"",%progbits
 1350              	.Ldebug_line0:
 1351 0000 A1010000 		.section	.debug_str,"MS",%progbits,1
 1351      02008201 
 1351      00000201 
 1351      FB0E0D00 
 1351      01010101 
 1352              	.LASF46:
 1353 0000 696E7463 		.ascii	"intctx\000"
 1353      747800
 1354              	.LASF38:
 1355 0007 705F6D73 		.ascii	"p_msg\000"
 1355      6700
 1356              	.LASF56:
 1357 000d 7264796D 		.ascii	"rdymsg\000"
 1357      736700
 1358              	.LASF66:
 1359 0014 64656C61 		.ascii	"delaysem\000"
 1359      7973656D 
ARM GAS  C:\Users\jenny\AppData\Local\Temp\cc4L9JBz.s 			page 25


 1359      00
 1360              	.LASF12:
 1361 001d 6C6F6E67 		.ascii	"long long unsigned int\000"
 1361      206C6F6E 
 1361      6720756E 
 1361      7369676E 
 1361      65642069 
 1362              	.LASF26:
 1363 0034 705F7072 		.ascii	"p_prio\000"
 1363      696F00
 1364              	.LASF65:
 1365 003b 7379735F 		.ascii	"sys_sem_t\000"
 1365      73656D5F 
 1365      7400
 1366              	.LASF11:
 1367 0045 6C6F6E67 		.ascii	"long long int\000"
 1367      206C6F6E 
 1367      6720696E 
 1367      7400
 1368              	.LASF1:
 1369 0053 7369676E 		.ascii	"signed char\000"
 1369      65642063 
 1369      68617200 
 1370              	.LASF70:
 1371 005f 2E2E2F2E 		.ascii	"../../ext/lwip/src/core/sys.c\000"
 1371      2E2F6578 
 1371      742F6C77 
 1371      69702F73 
 1371      72632F63 
 1372              	.LASF42:
 1373 007d 705F6D70 		.ascii	"p_mpool\000"
 1373      6F6F6C00 
 1374              	.LASF53:
 1375 0085 6D5F7175 		.ascii	"m_queue\000"
 1375      65756500 
 1376              	.LASF17:
 1377 008d 74736C69 		.ascii	"tslices_t\000"
 1377      6365735F 
 1377      7400
 1378              	.LASF69:
 1379 0097 474E5520 		.ascii	"GNU C 4.7.4 20130913 (release) [ARM/embedded-4_7-br"
 1379      4320342E 
 1379      372E3420 
 1379      32303133 
 1379      30393133 
 1380 00ca 616E6368 		.ascii	"anch revision 202601]\000"
 1380      20726576 
 1380      6973696F 
 1380      6E203230 
 1380      32363031 
 1381              	.LASF8:
 1382 00e0 6C6F6E67 		.ascii	"long int\000"
 1382      20696E74 
 1382      00
 1383              	.LASF15:
 1384 00e9 74737461 		.ascii	"tstate_t\000"
 1384      74655F74 
ARM GAS  C:\Users\jenny\AppData\Local\Temp\cc4L9JBz.s 			page 26


 1384      00
 1385              	.LASF28:
 1386 00f2 705F6E65 		.ascii	"p_newer\000"
 1386      77657200 
 1387              	.LASF50:
 1388 00fa 735F7175 		.ascii	"s_queue\000"
 1388      65756500 
 1389              	.LASF57:
 1390 0102 65786974 		.ascii	"exitcode\000"
 1390      636F6465 
 1390      00
 1391              	.LASF45:
 1392 010b 72656761 		.ascii	"regarm_t\000"
 1392      726D5F74 
 1392      00
 1393              	.LASF22:
 1394 0114 636E745F 		.ascii	"cnt_t\000"
 1394      7400
 1395              	.LASF0:
 1396 011a 756E7369 		.ascii	"unsigned int\000"
 1396      676E6564 
 1396      20696E74 
 1396      00
 1397              	.LASF72:
 1398 0127 7379735F 		.ascii	"sys_msleep\000"
 1398      6D736C65 
 1398      657000
 1399              	.LASF10:
 1400 0132 6C6F6E67 		.ascii	"long unsigned int\000"
 1400      20756E73 
 1400      69676E65 
 1400      6420696E 
 1400      7400
 1401              	.LASF63:
 1402 0144 7533325F 		.ascii	"u32_t\000"
 1402      7400
 1403              	.LASF51:
 1404 014a 735F636E 		.ascii	"s_cnt\000"
 1404      7400
 1405              	.LASF47:
 1406 0150 636F6E74 		.ascii	"context\000"
 1406      65787400 
 1407              	.LASF6:
 1408 0158 73686F72 		.ascii	"short unsigned int\000"
 1408      7420756E 
 1408      7369676E 
 1408      65642069 
 1408      6E7400
 1409              	.LASF19:
 1410 016b 6D73675F 		.ascii	"msg_t\000"
 1410      7400
 1411              	.LASF14:
 1412 0171 746D6F64 		.ascii	"tmode_t\000"
 1412      655F7400 
 1413              	.LASF44:
 1414 0179 54687265 		.ascii	"ThreadsList\000"
 1414      6164734C 
ARM GAS  C:\Users\jenny\AppData\Local\Temp\cc4L9JBz.s 			page 27


 1414      69737400 
 1415              	.LASF20:
 1416 0185 6576656E 		.ascii	"eventmask_t\000"
 1416      746D6173 
 1416      6B5F7400 
 1417              	.LASF52:
 1418 0191 4D757465 		.ascii	"Mutex\000"
 1418      7800
 1419              	.LASF73:
 1420 0197 7379735F 		.ascii	"sys_sem_free\000"
 1420      73656D5F 
 1420      66726565 
 1420      00
 1421              	.LASF64:
 1422 01a4 6572725F 		.ascii	"err_t\000"
 1422      7400
 1423              	.LASF61:
 1424 01aa 75385F74 		.ascii	"u8_t\000"
 1424      00
 1425              	.LASF48:
 1426 01af 73697A65 		.ascii	"sizetype\000"
 1426      74797065 
 1426      00
 1427              	.LASF68:
 1428 01b8 7379735F 		.ascii	"sys_arch_sem_wait\000"
 1428      61726368 
 1428      5F73656D 
 1428      5F776169 
 1428      7400
 1429              	.LASF29:
 1430 01ca 705F6F6C 		.ascii	"p_older\000"
 1430      64657200 
 1431              	.LASF43:
 1432 01d2 54687265 		.ascii	"ThreadsQueue\000"
 1432      61647351 
 1432      75657565 
 1432      00
 1433              	.LASF16:
 1434 01df 74726566 		.ascii	"trefs_t\000"
 1434      735F7400 
 1435              	.LASF25:
 1436 01e7 705F7072 		.ascii	"p_prev\000"
 1436      657600
 1437              	.LASF18:
 1438 01ee 74707269 		.ascii	"tprio_t\000"
 1438      6F5F7400 
 1439              	.LASF13:
 1440 01f6 5F426F6F 		.ascii	"_Bool\000"
 1440      6C00
 1441              	.LASF7:
 1442 01fc 696E7433 		.ascii	"int32_t\000"
 1442      325F7400 
 1443              	.LASF4:
 1444 0204 756E7369 		.ascii	"unsigned char\000"
 1444      676E6564 
 1444      20636861 
 1444      7200
ARM GAS  C:\Users\jenny\AppData\Local\Temp\cc4L9JBz.s 			page 28


 1445              	.LASF40:
 1446 0212 705F6D74 		.ascii	"p_mtxlist\000"
 1446      786C6973 
 1446      7400
 1447              	.LASF5:
 1448 021c 73686F72 		.ascii	"short int\000"
 1448      7420696E 
 1448      7400
 1449              	.LASF31:
 1450 0226 705F7374 		.ascii	"p_state\000"
 1450      61746500 
 1451              	.LASF34:
 1452 022e 705F7072 		.ascii	"p_preempt\000"
 1452      65656D70 
 1452      7400
 1453              	.LASF59:
 1454 0238 65776D61 		.ascii	"ewmask\000"
 1454      736B00
 1455              	.LASF24:
 1456 023f 705F6E65 		.ascii	"p_next\000"
 1456      787400
 1457              	.LASF32:
 1458 0246 705F666C 		.ascii	"p_flags\000"
 1458      61677300 
 1459              	.LASF23:
 1460 024e 54687265 		.ascii	"Thread\000"
 1460      616400
 1461              	.LASF62:
 1462 0255 73385F74 		.ascii	"s8_t\000"
 1462      00
 1463              	.LASF39:
 1464 025a 705F6570 		.ascii	"p_epending\000"
 1464      656E6469 
 1464      6E6700
 1465              	.LASF9:
 1466 0265 75696E74 		.ascii	"uint32_t\000"
 1466      33325F74 
 1466      00
 1467              	.LASF60:
 1468 026e 63686172 		.ascii	"char\000"
 1468      00
 1469              	.LASF55:
 1470 0273 6D5F6E65 		.ascii	"m_next\000"
 1470      787400
 1471              	.LASF21:
 1472 027a 73797374 		.ascii	"systime_t\000"
 1472      696D655F 
 1472      7400
 1473              	.LASF41:
 1474 0284 705F7265 		.ascii	"p_realprio\000"
 1474      616C7072 
 1474      696F00
 1475              	.LASF35:
 1476 028f 705F7469 		.ascii	"p_time\000"
 1476      6D6500
 1477              	.LASF2:
 1478 0296 696E7438 		.ascii	"int8_t\000"
ARM GAS  C:\Users\jenny\AppData\Local\Temp\cc4L9JBz.s 			page 29


 1478      5F7400
 1479              	.LASF37:
 1480 029d 705F6D73 		.ascii	"p_msgqueue\000"
 1480      67717565 
 1480      756500
 1481              	.LASF49:
 1482 02a8 53656D61 		.ascii	"Semaphore\000"
 1482      70686F72 
 1482      6500
 1483              	.LASF67:
 1484 02b2 7379735F 		.ascii	"sys_sem_new\000"
 1484      73656D5F 
 1484      6E657700 
 1485              	.LASF33:
 1486 02be 705F7265 		.ascii	"p_refs\000"
 1486      667300
 1487              	.LASF3:
 1488 02c5 75696E74 		.ascii	"uint8_t\000"
 1488      385F7400 
 1489              	.LASF71:
 1490 02cd 443A5C6A 		.ascii	"D:\\jenny\\dev\\probe\\chibios\\chibios.workspace\\"
 1490      656E6E79 
 1490      5C646576 
 1490      5C70726F 
 1490      62655C63 
 1491 02fa 64656D6F 		.ascii	"demos\\ARMCM4-STM32F407-LWIP-FATFS-USB\000"
 1491      735C4152 
 1491      4D434D34 
 1491      2D53544D 
 1491      33324634 
 1492              	.LASF58:
 1493 0320 77746F62 		.ascii	"wtobjp\000"
 1493      6A7000
 1494              	.LASF30:
 1495 0327 705F6E61 		.ascii	"p_name\000"
 1495      6D6500
 1496              	.LASF54:
 1497 032e 6D5F6F77 		.ascii	"m_owner\000"
 1497      6E657200 
 1498              	.LASF27:
 1499 0336 705F6374 		.ascii	"p_ctx\000"
 1499      7800
 1500              	.LASF36:
 1501 033c 705F7761 		.ascii	"p_waiting\000"
 1501      6974696E 
 1501      6700
 1502              		.ident	"GCC: (GNU Tools for ARM Embedded Processors) 4.7.4 20130913 (release) [ARM/embedded-4_7-br
ARM GAS  C:\Users\jenny\AppData\Local\Temp\cc4L9JBz.s 			page 30


DEFINED SYMBOLS
                            *ABS*:00000000 sys.c
C:\Users\jenny\AppData\Local\Temp\cc4L9JBz.s:20     .text.sys_msleep:00000000 $t
C:\Users\jenny\AppData\Local\Temp\cc4L9JBz.s:26     .text.sys_msleep:00000000 sys_msleep
                     .debug_frame:00000010 $d

UNDEFINED SYMBOLS
sys_sem_new
sys_arch_sem_wait
sys_sem_free
