ARM GAS  C:\Users\jenny\AppData\Local\Temp\ccPGDPsp.s 			page 1


   1              		.syntax unified
   2              		.cpu cortex-m4
   3              		.eabi_attribute 27, 3
   4              		.fpu fpv4-sp-d16
   5              		.eabi_attribute 20, 1
   6              		.eabi_attribute 21, 1
   7              		.eabi_attribute 23, 3
   8              		.eabi_attribute 24, 1
   9              		.eabi_attribute 25, 1
  10              		.eabi_attribute 26, 1
  11              		.eabi_attribute 30, 2
  12              		.eabi_attribute 34, 1
  13              		.eabi_attribute 18, 4
  14              		.thumb
  15              		.file	"sys_arch.c"
  16              		.text
  17              	.Ltext0:
  18              		.cfi_sections	.debug_frame
  19              		.section	.text.sys_init,"ax",%progbits
  20              		.align	2
  21              		.p2align 4,,15
  22              		.global	sys_init
  23              		.thumb
  24              		.thumb_func
  25              		.type	sys_init, %function
  26              	sys_init:
  27              	.LFB7:
  28              		.file 1 "../../os/various/lwip_bindings/arch/sys_arch.c"
  29              		.loc 1 63 0
  30              		.cfi_startproc
  31              		@ args = 0, pretend = 0, frame = 0
  32              		@ frame_needed = 0, uses_anonymous_args = 0
  33              		@ link register save eliminated.
  34 0000 7047     		bx	lr
  35              		.cfi_endproc
  36              	.LFE7:
  37              		.size	sys_init, .-sys_init
  38 0002 00BFAFF3 		.section	.text.sys_sem_new,"ax",%progbits
  38      0080AFF3 
  38      0080AFF3 
  38      0080
  39              		.align	2
  40              		.p2align 4,,15
  41              		.global	sys_sem_new
  42              		.thumb
  43              		.thumb_func
  44              		.type	sys_sem_new, %function
  45              	sys_sem_new:
  46              	.LFB8:
  47              		.loc 1 67 0
  48              		.cfi_startproc
  49              		@ args = 0, pretend = 0, frame = 0
  50              		@ frame_needed = 0, uses_anonymous_args = 0
  51              	.LVL0:
  52              		.loc 1 67 0
  53 0000 38B5     		push	{r3, r4, r5, lr}
  54              	.LCFI0:
ARM GAS  C:\Users\jenny\AppData\Local\Temp\ccPGDPsp.s 			page 2


  55              		.cfi_def_cfa_offset 16
  56              		.cfi_offset 3, -16
  57              		.cfi_offset 4, -12
  58              		.cfi_offset 5, -8
  59              		.cfi_offset 14, -4
  60              		.loc 1 67 0
  61 0002 0446     		mov	r4, r0
  62 0004 0D46     		mov	r5, r1
  63              		.loc 1 69 0
  64 0006 0020     		movs	r0, #0
  65              	.LVL1:
  66 0008 0C21     		movs	r1, #12
  67              	.LVL2:
  68 000a FFF7FEFF 		bl	chHeapAlloc
  69              	.LVL3:
  70 000e 2060     		str	r0, [r4, #0]
  71              		.loc 1 70 0
  72 0010 90B1     		cbz	r0, .L7
  73              		.loc 1 75 0
  74 0012 2946     		mov	r1, r5
  75 0014 FFF7FEFF 		bl	chSemInit
  76              	.LVL4:
  77              		.loc 1 76 0
  78 0018 0B48     		ldr	r0, .L8
  79 001a B0F83E21 		ldrh	r2, [r0, #318]
  80 001e B0F84011 		ldrh	r1, [r0, #320]
  81 0022 531C     		adds	r3, r2, #1
  82 0024 9AB2     		uxth	r2, r3
  83 0026 9142     		cmp	r1, r2
  84 0028 A0F83E21 		strh	r2, [r0, #318]	@ movhi
  85 002c 38BF     		it	cc
  86 002e A0F84021 		strhcc	r2, [r0, #320]	@ movhi
  87              		.loc 1 77 0
  88 0032 0020     		movs	r0, #0
  89              	.L4:
  90              		.loc 1 79 0
  91 0034 40B2     		sxtb	r0, r0
  92 0036 38BD     		pop	{r3, r4, r5, pc}
  93              	.L7:
  94              		.loc 1 71 0
  95 0038 0349     		ldr	r1, .L8
  96 003a B1F84231 		ldrh	r3, [r1, #322]
  97 003e 5A1C     		adds	r2, r3, #1
  98 0040 A1F84221 		strh	r2, [r1, #322]	@ movhi
  99              		.loc 1 72 0
 100 0044 FF20     		movs	r0, #255
 101 0046 F5E7     		b	.L4
 102              	.L9:
 103              		.align	2
 104              	.L8:
 105 0048 00000000 		.word	lwip_stats
 106              		.cfi_endproc
 107              	.LFE8:
 108              		.size	sys_sem_new, .-sys_sem_new
 109 004c AFF30080 		.section	.text.sys_sem_free,"ax",%progbits
 110              		.align	2
 111              		.p2align 4,,15
ARM GAS  C:\Users\jenny\AppData\Local\Temp\ccPGDPsp.s 			page 3


 112              		.global	sys_sem_free
 113              		.thumb
 114              		.thumb_func
 115              		.type	sys_sem_free, %function
 116              	sys_sem_free:
 117              	.LFB9:
 118              		.loc 1 81 0
 119              		.cfi_startproc
 120              		@ args = 0, pretend = 0, frame = 0
 121              		@ frame_needed = 0, uses_anonymous_args = 0
 122              	.LVL5:
 123 0000 10B5     		push	{r4, lr}
 124              	.LCFI1:
 125              		.cfi_def_cfa_offset 8
 126              		.cfi_offset 4, -8
 127              		.cfi_offset 14, -4
 128              		.loc 1 81 0
 129 0002 0446     		mov	r4, r0
 130              		.loc 1 83 0
 131 0004 0068     		ldr	r0, [r0, #0]
 132              	.LVL6:
 133 0006 FFF7FEFF 		bl	chHeapFree
 134              	.LVL7:
 135              		.loc 1 85 0
 136 000a 40F20003 		movw	r3, #:lower16:lwip_stats
 137 000e C0F20003 		movt	r3, #:upper16:lwip_stats
 138              		.loc 1 84 0
 139 0012 0021     		movs	r1, #0
 140              		.loc 1 85 0
 141 0014 B3F83E21 		ldrh	r2, [r3, #318]
 142              		.loc 1 84 0
 143 0018 2160     		str	r1, [r4, #0]
 144              		.loc 1 85 0
 145 001a 501E     		subs	r0, r2, #1
 146 001c A3F83E01 		strh	r0, [r3, #318]	@ movhi
 147 0020 10BD     		pop	{r4, pc}
 148              		.cfi_endproc
 149              	.LFE9:
 150              		.size	sys_sem_free, .-sys_sem_free
 151 0022 00BFAFF3 		.section	.text.sys_sem_signal,"ax",%progbits
 151      0080AFF3 
 151      0080AFF3 
 151      0080
 152              		.align	2
 153              		.p2align 4,,15
 154              		.global	sys_sem_signal
 155              		.thumb
 156              		.thumb_func
 157              		.type	sys_sem_signal, %function
 158              	sys_sem_signal:
 159              	.LFB10:
 160              		.loc 1 88 0
 161              		.cfi_startproc
 162              		@ args = 0, pretend = 0, frame = 0
 163              		@ frame_needed = 0, uses_anonymous_args = 0
 164              		@ link register save eliminated.
 165              	.LVL8:
ARM GAS  C:\Users\jenny\AppData\Local\Temp\ccPGDPsp.s 			page 4


 166              		.loc 1 90 0
 167 0000 0068     		ldr	r0, [r0, #0]
 168              	.LVL9:
 169              		.loc 1 91 0
 170              		.loc 1 90 0
 171 0002 FFF7FEBF 		b	chSemSignal
 172              	.LVL10:
 173              		.cfi_endproc
 174              	.LFE10:
 175              		.size	sys_sem_signal, .-sys_sem_signal
 176 0006 00BFAFF3 		.section	.text.sys_sem_signal_S,"ax",%progbits
 176      0080AFF3 
 176      0080
 177              		.align	2
 178              		.p2align 4,,15
 179              		.global	sys_sem_signal_S
 180              		.thumb
 181              		.thumb_func
 182              		.type	sys_sem_signal_S, %function
 183              	sys_sem_signal_S:
 184              	.LFB11:
 185              		.loc 1 95 0
 186              		.cfi_startproc
 187              		@ args = 0, pretend = 0, frame = 0
 188              		@ frame_needed = 0, uses_anonymous_args = 0
 189              	.LVL11:
 190 0000 08B5     		push	{r3, lr}
 191              	.LCFI2:
 192              		.cfi_def_cfa_offset 8
 193              		.cfi_offset 3, -8
 194              		.cfi_offset 14, -4
 195              		.loc 1 97 0
 196 0002 0068     		ldr	r0, [r0, #0]
 197              	.LVL12:
 198 0004 FFF7FEFF 		bl	chSemSignalI
 199              	.LVL13:
 200              		.loc 1 99 0
 201 0008 BDE80840 		pop	{r3, lr}
 202              		.loc 1 98 0
 203 000c FFF7FEBF 		b	chSchRescheduleS
 204              	.LVL14:
 205              		.cfi_endproc
 206              	.LFE11:
 207              		.size	sys_sem_signal_S, .-sys_sem_signal_S
 208              		.section	.text.sys_arch_sem_wait,"ax",%progbits
 209              		.align	2
 210              		.p2align 4,,15
 211              		.global	sys_arch_sem_wait
 212              		.thumb
 213              		.thumb_func
 214              		.type	sys_arch_sem_wait, %function
 215              	sys_arch_sem_wait:
 216              	.LFB12:
 217              		.loc 1 101 0
 218              		.cfi_startproc
 219              		@ args = 0, pretend = 0, frame = 0
 220              		@ frame_needed = 0, uses_anonymous_args = 0
ARM GAS  C:\Users\jenny\AppData\Local\Temp\ccPGDPsp.s 			page 5


 221              	.LVL15:
 222 0000 38B5     		push	{r3, r4, r5, lr}
 223              	.LCFI3:
 224              		.cfi_def_cfa_offset 16
 225              		.cfi_offset 3, -16
 226              		.cfi_offset 4, -12
 227              		.cfi_offset 5, -8
 228              		.cfi_offset 14, -4
 229              	.LBB2:
 230              		.loc 1 104 0
 231 0002 2023     		movs	r3, #32
 232              	.LVL16:
 233              	@ 104 "../../os/various/lwip_bindings/arch/sys_arch.c" 1
 234 0004 83F31188 		msr     BASEPRI, r3
 235              	@ 0 "" 2
 236              	.LVL17:
 237              		.thumb
 238              	.LBE2:
 239              		.loc 1 106 0
 240 0008 094C     		ldr	r4, .L19
 241              		.loc 1 107 0
 242 000a 0068     		ldr	r0, [r0, #0]
 243              	.LVL18:
 244              		.loc 1 106 0
 245 000c E568     		ldr	r5, [r4, #12]
 246              	.LVL19:
 247              		.loc 1 107 0
 248 000e 0029     		cmp	r1, #0
 249 0010 08BF     		it	eq
 250 0012 4FF0FF31 		moveq	r1, #-1
 251              	.LVL20:
 252 0016 FFF7FEFF 		bl	chSemWaitTimeoutS
 253              	.LVL21:
 254 001a 28B1     		cbz	r0, .L18
 255              		.loc 1 108 0
 256 001c 4FF0FF30 		mov	r0, #-1
 257              	.LVL22:
 258              	.L15:
 259              	.LBB3:
 260              		.loc 1 111 0
 261 0020 0023     		movs	r3, #0
 262              	.LVL23:
 263              	@ 111 "../../os/various/lwip_bindings/arch/sys_arch.c" 1
 264 0022 83F31188 		msr     BASEPRI, r3
 265              	@ 0 "" 2
 266              	.LVL24:
 267              		.thumb
 268              	.LBE3:
 269              		.loc 1 113 0
 270 0026 38BD     		pop	{r3, r4, r5, pc}
 271              	.LVL25:
 272              	.L18:
 273              		.loc 1 110 0
 274 0028 E068     		ldr	r0, [r4, #12]
 275 002a 401B     		subs	r0, r0, r5
 276              	.LVL26:
 277 002c F8E7     		b	.L15
ARM GAS  C:\Users\jenny\AppData\Local\Temp\ccPGDPsp.s 			page 6


 278              	.L20:
 279 002e 00BF     		.align	2
 280              	.L19:
 281 0030 00000000 		.word	vtlist
 282              		.cfi_endproc
 283              	.LFE12:
 284              		.size	sys_arch_sem_wait, .-sys_arch_sem_wait
 285 0034 AFF30080 		.section	.text.sys_sem_valid,"ax",%progbits
 285      AFF30080 
 285      AFF30080 
 286              		.align	2
 287              		.p2align 4,,15
 288              		.global	sys_sem_valid
 289              		.thumb
 290              		.thumb_func
 291              		.type	sys_sem_valid, %function
 292              	sys_sem_valid:
 293              	.LFB13:
 294              		.loc 1 115 0
 295              		.cfi_startproc
 296              		@ args = 0, pretend = 0, frame = 0
 297              		@ frame_needed = 0, uses_anonymous_args = 0
 298              		@ link register save eliminated.
 299              	.LVL27:
 300              		.loc 1 116 0
 301 0000 0068     		ldr	r0, [r0, #0]
 302              	.LVL28:
 303              		.loc 1 117 0
 304 0002 0030     		adds	r0, r0, #0
 305 0004 18BF     		it	ne
 306 0006 0120     		movne	r0, #1
 307 0008 7047     		bx	lr
 308              		.cfi_endproc
 309              	.LFE13:
 310              		.size	sys_sem_valid, .-sys_sem_valid
 311 000a 00BFAFF3 		.section	.text.sys_sem_set_invalid,"ax",%progbits
 311      0080
 312              		.align	2
 313              		.p2align 4,,15
 314              		.global	sys_sem_set_invalid
 315              		.thumb
 316              		.thumb_func
 317              		.type	sys_sem_set_invalid, %function
 318              	sys_sem_set_invalid:
 319              	.LFB14:
 320              		.loc 1 121 0
 321              		.cfi_startproc
 322              		@ args = 0, pretend = 0, frame = 0
 323              		@ frame_needed = 0, uses_anonymous_args = 0
 324              		@ link register save eliminated.
 325              	.LVL29:
 326              		.loc 1 122 0
 327 0000 0023     		movs	r3, #0
 328 0002 0360     		str	r3, [r0, #0]
 329 0004 7047     		bx	lr
 330              		.cfi_endproc
 331              	.LFE14:
ARM GAS  C:\Users\jenny\AppData\Local\Temp\ccPGDPsp.s 			page 7


 332              		.size	sys_sem_set_invalid, .-sys_sem_set_invalid
 333 0006 00BFAFF3 		.section	.text.sys_mbox_new,"ax",%progbits
 333      0080AFF3 
 333      0080
 334              		.align	2
 335              		.p2align 4,,15
 336              		.global	sys_mbox_new
 337              		.thumb
 338              		.thumb_func
 339              		.type	sys_mbox_new, %function
 340              	sys_mbox_new:
 341              	.LFB15:
 342              		.loc 1 125 0
 343              		.cfi_startproc
 344              		@ args = 0, pretend = 0, frame = 0
 345              		@ frame_needed = 0, uses_anonymous_args = 0
 346              	.LVL30:
 347 0000 38B5     		push	{r3, r4, r5, lr}
 348              	.LCFI4:
 349              		.cfi_def_cfa_offset 16
 350              		.cfi_offset 3, -16
 351              		.cfi_offset 4, -12
 352              		.cfi_offset 5, -8
 353              		.cfi_offset 14, -4
 354              		.loc 1 125 0
 355 0002 0C46     		mov	r4, r1
 356              		.loc 1 127 0
 357 0004 01F10A01 		add	r1, r1, #10
 358              	.LVL31:
 359              		.loc 1 125 0
 360 0008 0546     		mov	r5, r0
 361              		.loc 1 127 0
 362 000a 8900     		lsls	r1, r1, #2
 363 000c 0020     		movs	r0, #0
 364              	.LVL32:
 365 000e FFF7FEFF 		bl	chHeapAlloc
 366              	.LVL33:
 367 0012 0146     		mov	r1, r0
 368 0014 2860     		str	r0, [r5, #0]
 369              		.loc 1 128 0
 370 0016 60B1     		cbz	r0, .L26
 371              		.loc 1 133 0
 372 0018 2831     		adds	r1, r1, #40
 373 001a 2246     		mov	r2, r4
 374 001c FFF7FEFF 		bl	chMBInit
 375              	.LVL34:
 376              		.loc 1 134 0
 377 0020 084B     		ldr	r3, .L27
 378 0022 B3F84A21 		ldrh	r2, [r3, #330]
 379 0026 501C     		adds	r0, r2, #1
 380 0028 A3F84A01 		strh	r0, [r3, #330]	@ movhi
 381              		.loc 1 135 0
 382 002c 0021     		movs	r1, #0
 383              	.L25:
 384              		.loc 1 137 0
 385 002e 48B2     		sxtb	r0, r1
 386 0030 38BD     		pop	{r3, r4, r5, pc}
ARM GAS  C:\Users\jenny\AppData\Local\Temp\ccPGDPsp.s 			page 8


 387              	.L26:
 388              		.loc 1 129 0
 389 0032 044B     		ldr	r3, .L27
 390 0034 B3F84E21 		ldrh	r2, [r3, #334]
 391 0038 501C     		adds	r0, r2, #1
 392 003a A3F84E01 		strh	r0, [r3, #334]	@ movhi
 393              		.loc 1 130 0
 394 003e FF21     		movs	r1, #255
 395 0040 F5E7     		b	.L25
 396              	.L28:
 397 0042 00BF     		.align	2
 398              	.L27:
 399 0044 00000000 		.word	lwip_stats
 400              		.cfi_endproc
 401              	.LFE15:
 402              		.size	sys_mbox_new, .-sys_mbox_new
 403 0048 AFF30080 		.section	.text.sys_mbox_free,"ax",%progbits
 403      AFF30080 
 404              		.align	2
 405              		.p2align 4,,15
 406              		.global	sys_mbox_free
 407              		.thumb
 408              		.thumb_func
 409              		.type	sys_mbox_free, %function
 410              	sys_mbox_free:
 411              	.LFB16:
 412              		.loc 1 139 0
 413              		.cfi_startproc
 414              		@ args = 0, pretend = 0, frame = 0
 415              		@ frame_needed = 0, uses_anonymous_args = 0
 416              	.LVL35:
 417 0000 38B5     		push	{r3, r4, r5, lr}
 418              	.LCFI5:
 419              		.cfi_def_cfa_offset 16
 420              		.cfi_offset 3, -16
 421              		.cfi_offset 4, -12
 422              		.cfi_offset 5, -8
 423              		.cfi_offset 14, -4
 424              		.loc 1 139 0
 425 0002 0546     		mov	r5, r0
 426              		.loc 1 141 0
 427 0004 0068     		ldr	r0, [r0, #0]
 428              	.LVL36:
 429              		.loc 1 145 0
 430 0006 0A4C     		ldr	r4, .L34
 431              		.loc 1 141 0
 432 0008 8369     		ldr	r3, [r0, #24]
 433 000a 3BB1     		cbz	r3, .L30
 434              		.loc 1 145 0
 435 000c B4F84E11 		ldrh	r1, [r4, #334]
 436 0010 4A1C     		adds	r2, r1, #1
 437 0012 A4F84E21 		strh	r2, [r4, #334]	@ movhi
 438              		.loc 1 146 0
 439 0016 FFF7FEFF 		bl	chMBReset
 440              	.LVL37:
 441 001a 2868     		ldr	r0, [r5, #0]
 442              	.L30:
ARM GAS  C:\Users\jenny\AppData\Local\Temp\ccPGDPsp.s 			page 9


 443              		.loc 1 148 0
 444 001c FFF7FEFF 		bl	chHeapFree
 445              	.LVL38:
 446              		.loc 1 150 0
 447 0020 B4F84A01 		ldrh	r0, [r4, #330]
 448              		.loc 1 149 0
 449 0024 0021     		movs	r1, #0
 450              		.loc 1 150 0
 451 0026 431E     		subs	r3, r0, #1
 452              		.loc 1 149 0
 453 0028 2960     		str	r1, [r5, #0]
 454              		.loc 1 150 0
 455 002a A4F84A31 		strh	r3, [r4, #330]	@ movhi
 456 002e 38BD     		pop	{r3, r4, r5, pc}
 457              	.L35:
 458              		.align	2
 459              	.L34:
 460 0030 00000000 		.word	lwip_stats
 461              		.cfi_endproc
 462              	.LFE16:
 463              		.size	sys_mbox_free, .-sys_mbox_free
 464 0034 AFF30080 		.section	.text.sys_mbox_post,"ax",%progbits
 464      AFF30080 
 464      AFF30080 
 465              		.align	2
 466              		.p2align 4,,15
 467              		.global	sys_mbox_post
 468              		.thumb
 469              		.thumb_func
 470              		.type	sys_mbox_post, %function
 471              	sys_mbox_post:
 472              	.LFB17:
 473              		.loc 1 153 0
 474              		.cfi_startproc
 475              		@ args = 0, pretend = 0, frame = 0
 476              		@ frame_needed = 0, uses_anonymous_args = 0
 477              		@ link register save eliminated.
 478              	.LVL39:
 479              		.loc 1 155 0
 480 0000 0068     		ldr	r0, [r0, #0]
 481              	.LVL40:
 482 0002 4FF0FF32 		mov	r2, #-1
 483              		.loc 1 156 0
 484              		.loc 1 155 0
 485 0006 FFF7FEBF 		b	chMBPost
 486              	.LVL41:
 487              		.cfi_endproc
 488              	.LFE17:
 489              		.size	sys_mbox_post, .-sys_mbox_post
 490 000a 00BFAFF3 		.section	.text.sys_mbox_trypost,"ax",%progbits
 490      0080
 491              		.align	2
 492              		.p2align 4,,15
 493              		.global	sys_mbox_trypost
 494              		.thumb
 495              		.thumb_func
 496              		.type	sys_mbox_trypost, %function
ARM GAS  C:\Users\jenny\AppData\Local\Temp\ccPGDPsp.s 			page 10


 497              	sys_mbox_trypost:
 498              	.LFB18:
 499              		.loc 1 158 0
 500              		.cfi_startproc
 501              		@ args = 0, pretend = 0, frame = 0
 502              		@ frame_needed = 0, uses_anonymous_args = 0
 503              	.LVL42:
 504              		.loc 1 160 0
 505 0000 0022     		movs	r2, #0
 506              		.loc 1 158 0
 507 0002 08B5     		push	{r3, lr}
 508              	.LCFI6:
 509              		.cfi_def_cfa_offset 8
 510              		.cfi_offset 3, -8
 511              		.cfi_offset 14, -4
 512              		.loc 1 160 0
 513 0004 0068     		ldr	r0, [r0, #0]
 514              	.LVL43:
 515 0006 FFF7FEFF 		bl	chMBPost
 516              	.LVL44:
 517 000a 0130     		adds	r0, r0, #1
 518 000c 02D0     		beq	.L40
 519              		.loc 1 164 0
 520 000e 0020     		movs	r0, #0
 521              	.L38:
 522              		.loc 1 165 0
 523 0010 40B2     		sxtb	r0, r0
 524 0012 08BD     		pop	{r3, pc}
 525              	.L40:
 526              		.loc 1 161 0
 527 0014 034B     		ldr	r3, .L41
 528 0016 B3F84E21 		ldrh	r2, [r3, #334]
 529 001a 511C     		adds	r1, r2, #1
 530 001c A3F84E11 		strh	r1, [r3, #334]	@ movhi
 531              		.loc 1 162 0
 532 0020 FF20     		movs	r0, #255
 533 0022 F5E7     		b	.L38
 534              	.L42:
 535              		.align	2
 536              	.L41:
 537 0024 00000000 		.word	lwip_stats
 538              		.cfi_endproc
 539              	.LFE18:
 540              		.size	sys_mbox_trypost, .-sys_mbox_trypost
 541 0028 AFF30080 		.section	.text.sys_arch_mbox_fetch,"ax",%progbits
 541      AFF30080 
 542              		.align	2
 543              		.p2align 4,,15
 544              		.global	sys_arch_mbox_fetch
 545              		.thumb
 546              		.thumb_func
 547              		.type	sys_arch_mbox_fetch, %function
 548              	sys_arch_mbox_fetch:
 549              	.LFB19:
 550              		.loc 1 167 0
 551              		.cfi_startproc
 552              		@ args = 0, pretend = 0, frame = 0
ARM GAS  C:\Users\jenny\AppData\Local\Temp\ccPGDPsp.s 			page 11


 553              		@ frame_needed = 0, uses_anonymous_args = 0
 554              	.LVL45:
 555 0000 38B5     		push	{r3, r4, r5, lr}
 556              	.LCFI7:
 557              		.cfi_def_cfa_offset 16
 558              		.cfi_offset 3, -16
 559              		.cfi_offset 4, -12
 560              		.cfi_offset 5, -8
 561              		.cfi_offset 14, -4
 562              	.LBB4:
 563              		.loc 1 170 0
 564 0002 2023     		movs	r3, #32
 565              	.LVL46:
 566              	@ 170 "../../os/various/lwip_bindings/arch/sys_arch.c" 1
 567 0004 83F31188 		msr     BASEPRI, r3
 568              	@ 0 "" 2
 569              	.LVL47:
 570              		.thumb
 571              	.LBE4:
 572              		.loc 1 172 0
 573 0008 094C     		ldr	r4, .L49
 574              		.loc 1 173 0
 575 000a 0068     		ldr	r0, [r0, #0]
 576              	.LVL48:
 577              		.loc 1 172 0
 578 000c E568     		ldr	r5, [r4, #12]
 579              	.LVL49:
 580              		.loc 1 173 0
 581 000e 002A     		cmp	r2, #0
 582 0010 08BF     		it	eq
 583 0012 4FF0FF32 		moveq	r2, #-1
 584              	.LVL50:
 585 0016 FFF7FEFF 		bl	chMBFetchS
 586              	.LVL51:
 587 001a 28B1     		cbz	r0, .L48
 588              		.loc 1 174 0
 589 001c 4FF0FF30 		mov	r0, #-1
 590              	.LVL52:
 591              	.L45:
 592              	.LBB5:
 593              		.loc 1 177 0
 594 0020 0023     		movs	r3, #0
 595              	.LVL53:
 596              	@ 177 "../../os/various/lwip_bindings/arch/sys_arch.c" 1
 597 0022 83F31188 		msr     BASEPRI, r3
 598              	@ 0 "" 2
 599              	.LVL54:
 600              		.thumb
 601              	.LBE5:
 602              		.loc 1 179 0
 603 0026 38BD     		pop	{r3, r4, r5, pc}
 604              	.LVL55:
 605              	.L48:
 606              		.loc 1 176 0
 607 0028 E068     		ldr	r0, [r4, #12]
 608 002a 401B     		subs	r0, r0, r5
 609              	.LVL56:
ARM GAS  C:\Users\jenny\AppData\Local\Temp\ccPGDPsp.s 			page 12


 610 002c F8E7     		b	.L45
 611              	.L50:
 612 002e 00BF     		.align	2
 613              	.L49:
 614 0030 00000000 		.word	vtlist
 615              		.cfi_endproc
 616              	.LFE19:
 617              		.size	sys_arch_mbox_fetch, .-sys_arch_mbox_fetch
 618 0034 AFF30080 		.section	.text.sys_arch_mbox_tryfetch,"ax",%progbits
 618      AFF30080 
 618      AFF30080 
 619              		.align	2
 620              		.p2align 4,,15
 621              		.global	sys_arch_mbox_tryfetch
 622              		.thumb
 623              		.thumb_func
 624              		.type	sys_arch_mbox_tryfetch, %function
 625              	sys_arch_mbox_tryfetch:
 626              	.LFB20:
 627              		.loc 1 181 0
 628              		.cfi_startproc
 629              		@ args = 0, pretend = 0, frame = 0
 630              		@ frame_needed = 0, uses_anonymous_args = 0
 631              	.LVL57:
 632 0000 08B5     		push	{r3, lr}
 633              	.LCFI8:
 634              		.cfi_def_cfa_offset 8
 635              		.cfi_offset 3, -8
 636              		.cfi_offset 14, -4
 637              		.loc 1 183 0
 638 0002 0022     		movs	r2, #0
 639 0004 0068     		ldr	r0, [r0, #0]
 640              	.LVL58:
 641 0006 FFF7FEFF 		bl	chMBFetch
 642              	.LVL59:
 643              		.loc 1 186 0
 644 000a B0F1FF3F 		cmp	r0, #-1
 645 000e 0CBF     		ite	eq
 646 0010 4FF0FF30 		moveq	r0, #-1
 647 0014 0020     		movne	r0, #0
 648 0016 08BD     		pop	{r3, pc}
 649              		.cfi_endproc
 650              	.LFE20:
 651              		.size	sys_arch_mbox_tryfetch, .-sys_arch_mbox_tryfetch
 652 0018 AFF30080 		.section	.text.sys_mbox_valid,"ax",%progbits
 652      AFF30080 
 653              		.align	2
 654              		.p2align 4,,15
 655              		.global	sys_mbox_valid
 656              		.thumb
 657              		.thumb_func
 658              		.type	sys_mbox_valid, %function
 659              	sys_mbox_valid:
 660              	.LFB21:
 661              		.loc 1 188 0
 662              		.cfi_startproc
 663              		@ args = 0, pretend = 0, frame = 0
ARM GAS  C:\Users\jenny\AppData\Local\Temp\ccPGDPsp.s 			page 13


 664              		@ frame_needed = 0, uses_anonymous_args = 0
 665              		@ link register save eliminated.
 666              	.LVL60:
 667              		.loc 1 189 0
 668 0000 0068     		ldr	r0, [r0, #0]
 669              	.LVL61:
 670              		.loc 1 190 0
 671 0002 0030     		adds	r0, r0, #0
 672 0004 18BF     		it	ne
 673 0006 0120     		movne	r0, #1
 674 0008 7047     		bx	lr
 675              		.cfi_endproc
 676              	.LFE21:
 677              		.size	sys_mbox_valid, .-sys_mbox_valid
 678 000a 00BFAFF3 		.section	.text.sys_mbox_set_invalid,"ax",%progbits
 678      0080
 679              		.align	2
 680              		.p2align 4,,15
 681              		.global	sys_mbox_set_invalid
 682              		.thumb
 683              		.thumb_func
 684              		.type	sys_mbox_set_invalid, %function
 685              	sys_mbox_set_invalid:
 686              	.LFB22:
 687              		.loc 1 194 0
 688              		.cfi_startproc
 689              		@ args = 0, pretend = 0, frame = 0
 690              		@ frame_needed = 0, uses_anonymous_args = 0
 691              		@ link register save eliminated.
 692              	.LVL62:
 693              		.loc 1 195 0
 694 0000 0023     		movs	r3, #0
 695 0002 0360     		str	r3, [r0, #0]
 696 0004 7047     		bx	lr
 697              		.cfi_endproc
 698              	.LFE22:
 699              		.size	sys_mbox_set_invalid, .-sys_mbox_set_invalid
 700 0006 00BFAFF3 		.section	.text.sys_thread_new,"ax",%progbits
 700      0080AFF3 
 700      0080
 701              		.align	2
 702              		.p2align 4,,15
 703              		.global	sys_thread_new
 704              		.thumb
 705              		.thumb_func
 706              		.type	sys_thread_new, %function
 707              	sys_thread_new:
 708              	.LFB23:
 709              		.loc 1 199 0
 710              		.cfi_startproc
 711              		@ args = 4, pretend = 0, frame = 0
 712              		@ frame_needed = 0, uses_anonymous_args = 0
 713              	.LVL63:
 714              		.loc 1 205 0
 715 0000 03F23313 		addw	r3, r3, #307
 716              	.LVL64:
 717              		.loc 1 199 0
ARM GAS  C:\Users\jenny\AppData\Local\Temp\ccPGDPsp.s 			page 14


 718 0004 2DE9F041 		push	{r4, r5, r6, r7, r8, lr}
 719              	.LCFI9:
 720              		.cfi_def_cfa_offset 24
 721              		.cfi_offset 4, -24
 722              		.cfi_offset 5, -20
 723              		.cfi_offset 6, -16
 724              		.cfi_offset 7, -12
 725              		.cfi_offset 8, -8
 726              		.cfi_offset 14, -4
 727              		.loc 1 205 0
 728 0008 43F00704 		orr	r4, r3, #7
 729 000c 0134     		adds	r4, r4, #1
 730              	.LVL65:
 731              		.loc 1 206 0
 732 000e 2046     		mov	r0, r4
 733              	.LVL66:
 734              		.loc 1 199 0
 735 0010 0D46     		mov	r5, r1
 736 0012 1746     		mov	r7, r2
 737 0014 069E     		ldr	r6, [sp, #24]
 738              		.loc 1 206 0
 739 0016 FFF7FEFF 		bl	chCoreAlloc
 740              	.LVL67:
 741              		.loc 1 207 0
 742 001a 38B1     		cbz	r0, .L57
 743              		.loc 1 209 0
 744 001c 2146     		mov	r1, r4
 745 001e 3246     		mov	r2, r6
 746 0020 2B46     		mov	r3, r5
 747 0022 0697     		str	r7, [sp, #24]
 748              		.loc 1 210 0
 749 0024 BDE8F041 		pop	{r4, r5, r6, r7, r8, lr}
 750              		.loc 1 209 0
 751 0028 FFF7FEBF 		b	chThdCreateStatic
 752              	.LVL68:
 753              	.L57:
 754              		.loc 1 210 0
 755 002c BDE8F081 		pop	{r4, r5, r6, r7, r8, pc}
 756              		.cfi_endproc
 757              	.LFE23:
 758              		.size	sys_thread_new, .-sys_thread_new
 759              		.section	.text.sys_arch_protect,"ax",%progbits
 760              		.align	2
 761              		.p2align 4,,15
 762              		.global	sys_arch_protect
 763              		.thumb
 764              		.thumb_func
 765              		.type	sys_arch_protect, %function
 766              	sys_arch_protect:
 767              	.LFB24:
 768              		.loc 1 212 0
 769              		.cfi_startproc
 770              		@ args = 0, pretend = 0, frame = 0
 771              		@ frame_needed = 0, uses_anonymous_args = 0
 772              		@ link register save eliminated.
 773              	.LBB6:
 774              		.loc 1 214 0
ARM GAS  C:\Users\jenny\AppData\Local\Temp\ccPGDPsp.s 			page 15


 775 0000 2023     		movs	r3, #32
 776              	.LVL69:
 777              	@ 214 "../../os/various/lwip_bindings/arch/sys_arch.c" 1
 778 0002 83F31188 		msr     BASEPRI, r3
 779              	@ 0 "" 2
 780              	.LVL70:
 781              		.thumb
 782              	.LBE6:
 783              		.loc 1 216 0
 784 0006 0020     		movs	r0, #0
 785 0008 7047     		bx	lr
 786              		.cfi_endproc
 787              	.LFE24:
 788              		.size	sys_arch_protect, .-sys_arch_protect
 789 000a 00BFAFF3 		.section	.text.sys_arch_unprotect,"ax",%progbits
 789      0080
 790              		.align	2
 791              		.p2align 4,,15
 792              		.global	sys_arch_unprotect
 793              		.thumb
 794              		.thumb_func
 795              		.type	sys_arch_unprotect, %function
 796              	sys_arch_unprotect:
 797              	.LFB25:
 798              		.loc 1 218 0
 799              		.cfi_startproc
 800              		@ args = 0, pretend = 0, frame = 0
 801              		@ frame_needed = 0, uses_anonymous_args = 0
 802              		@ link register save eliminated.
 803              	.LVL71:
 804              	.LBB7:
 805              		.loc 1 221 0
 806 0000 0023     		movs	r3, #0
 807              	.LVL72:
 808              	@ 221 "../../os/various/lwip_bindings/arch/sys_arch.c" 1
 809 0002 83F31188 		msr     BASEPRI, r3
 810              	@ 0 "" 2
 811              	.LVL73:
 812              		.thumb
 813 0006 7047     		bx	lr
 814              	.LBE7:
 815              		.cfi_endproc
 816              	.LFE25:
 817              		.size	sys_arch_unprotect, .-sys_arch_unprotect
 818 0008 AFF30080 		.section	.text.sys_now,"ax",%progbits
 818      AFF30080 
 819              		.align	2
 820              		.p2align 4,,15
 821              		.global	sys_now
 822              		.thumb
 823              		.thumb_func
 824              		.type	sys_now, %function
 825              	sys_now:
 826              	.LFB26:
 827              		.loc 1 224 0
 828              		.cfi_startproc
 829              		@ args = 0, pretend = 0, frame = 0
ARM GAS  C:\Users\jenny\AppData\Local\Temp\ccPGDPsp.s 			page 16


 830              		@ frame_needed = 0, uses_anonymous_args = 0
 831              		@ link register save eliminated.
 832              		.loc 1 227 0
 833 0000 40F20003 		movw	r3, #:lower16:vtlist
 834 0004 C0F20003 		movt	r3, #:upper16:vtlist
 835 0008 D868     		ldr	r0, [r3, #12]
 836              		.loc 1 235 0
 837 000a 7047     		bx	lr
 838              		.cfi_endproc
 839              	.LFE26:
 840              		.size	sys_now, .-sys_now
 841 000c AFF30080 		.text
 842              	.Letext0:
 843              		.file 2 "c:\\fbin\\yagarto\\bin\\../lib/gcc/arm-none-eabi/4.7.4/include/stddef.h"
 844              		.file 3 "c:\\fbin\\yagarto\\bin\\../lib/gcc/arm-none-eabi/4.7.4/../../../../arm-none-eabi/include/
 845              		.file 4 "../../os/ports/GCC/ARMCMx/chtypes.h"
 846              		.file 5 "../../os/kernel/include/chlists.h"
 847              		.file 6 "../../os/kernel/include/chthreads.h"
 848              		.file 7 "../../os/ports/GCC/ARMCMx/chcore_v7m.h"
 849              		.file 8 "../../os/kernel/include/chvt.h"
 850              		.file 9 "../../os/kernel/include/chsem.h"
 851              		.file 10 "../../os/kernel/include/chmtx.h"
 852              		.file 11 "../../os/kernel/include/chmboxes.h"
 853              		.file 12 "../../os/kernel/include/chmemcore.h"
 854              		.file 13 "../../os/kernel/include/chheap.h"
 855              		.file 14 "../../os/various/lwip_bindings/arch/cc.h"
 856              		.file 15 "../../ext/lwip/src/include/lwip/mem.h"
 857              		.file 16 "../../ext/lwip/src/include/lwip/err.h"
 858              		.file 17 "../../os/various/lwip_bindings/arch/sys_arch.h"
 859              		.file 18 "../../ext/lwip/src/include/lwip/sys.h"
 860              		.file 19 "../../ext/lwip/src/include/lwip/stats.h"
 861              		.file 20 "../../os/kernel/include/chschd.h"