ARM GAS  C:\Users\jenny\AppData\Local\Temp\ccPGDPsp.s 			page 1


   1              		.syntax unified
   2              		.cpu cortex-m4
   3              		.eabi_attribute 27, 3
   4              		.fpu fpv4-sp-d16
   5              		.eabi_attribute 20, 1
   6              		.eabi_attribute 21, 1
   7              		.eabi_attribute 23, 3
   8              		.eabi_attribute 24, 1
   9              		.eabi_attribute 25, 1
  10              		.eabi_attribute 26, 1
  11              		.eabi_attribute 30, 2
  12              		.eabi_attribute 34, 1
  13              		.eabi_attribute 18, 4
  14              		.thumb
  15              		.file	"sys_arch.c"
  16              		.text
  17              	.Ltext0:
  18              		.cfi_sections	.debug_frame
  19              		.section	.text.sys_init,"ax",%progbits
  20              		.align	2
  21              		.p2align 4,,15
  22              		.global	sys_init
  23              		.thumb
  24              		.thumb_func
  25              		.type	sys_init, %function
  26              	sys_init:
  27              	.LFB7:
  28              		.file 1 "../../os/various/lwip_bindings/arch/sys_arch.c"
  29              		.loc 1 63 0
  30              		.cfi_startproc
  31              		@ args = 0, pretend = 0, frame = 0
  32              		@ frame_needed = 0, uses_anonymous_args = 0
  33              		@ link register save eliminated.
  34 0000 7047     		bx	lr
  35              		.cfi_endproc
  36              	.LFE7:
  37              		.size	sys_init, .-sys_init
  38 0002 00BFAFF3 		.section	.text.sys_sem_new,"ax",%progbits
  38      0080AFF3 
  38      0080AFF3 
  38      0080
  39              		.align	2
  40              		.p2align 4,,15
  41              		.global	sys_sem_new
  42              		.thumb
  43              		.thumb_func
  44              		.type	sys_sem_new, %function
  45              	sys_sem_new:
  46              	.LFB8:
  47              		.loc 1 67 0
  48              		.cfi_startproc
  49              		@ args = 0, pretend = 0, frame = 0
  50              		@ frame_needed = 0, uses_anonymous_args = 0
  51              	.LVL0:
  52              		.loc 1 67 0
  53 0000 38B5     		push	{r3, r4, r5, lr}
  54              	.LCFI0:
ARM GAS  C:\Users\jenny\AppData\Local\Temp\ccPGDPsp.s 			page 2


  55              		.cfi_def_cfa_offset 16
  56              		.cfi_offset 3, -16
  57              		.cfi_offset 4, -12
  58              		.cfi_offset 5, -8
  59              		.cfi_offset 14, -4
  60              		.loc 1 67 0
  61 0002 0446     		mov	r4, r0
  62 0004 0D46     		mov	r5, r1
  63              		.loc 1 69 0
  64 0006 0020     		movs	r0, #0
  65              	.LVL1:
  66 0008 0C21     		movs	r1, #12
  67              	.LVL2:
  68 000a FFF7FEFF 		bl	chHeapAlloc
  69              	.LVL3:
  70 000e 2060     		str	r0, [r4, #0]
  71              		.loc 1 70 0
  72 0010 90B1     		cbz	r0, .L7
  73              		.loc 1 75 0
  74 0012 2946     		mov	r1, r5
  75 0014 FFF7FEFF 		bl	chSemInit
  76              	.LVL4:
  77              		.loc 1 76 0
  78 0018 0B48     		ldr	r0, .L8
  79 001a B0F83E21 		ldrh	r2, [r0, #318]
  80 001e B0F84011 		ldrh	r1, [r0, #320]
  81 0022 531C     		adds	r3, r2, #1
  82 0024 9AB2     		uxth	r2, r3
  83 0026 9142     		cmp	r1, r2
  84 0028 A0F83E21 		strh	r2, [r0, #318]	@ movhi
  85 002c 38BF     		it	cc
  86 002e A0F84021 		strhcc	r2, [r0, #320]	@ movhi
  87              		.loc 1 77 0
  88 0032 0020     		movs	r0, #0
  89              	.L4:
  90              		.loc 1 79 0
  91 0034 40B2     		sxtb	r0, r0
  92 0036 38BD     		pop	{r3, r4, r5, pc}
  93              	.L7:
  94              		.loc 1 71 0
  95 0038 0349     		ldr	r1, .L8
  96 003a B1F84231 		ldrh	r3, [r1, #322]
  97 003e 5A1C     		adds	r2, r3, #1
  98 0040 A1F84221 		strh	r2, [r1, #322]	@ movhi
  99              		.loc 1 72 0
 100 0044 FF20     		movs	r0, #255
 101 0046 F5E7     		b	.L4
 102              	.L9:
 103              		.align	2
 104              	.L8:
 105 0048 00000000 		.word	lwip_stats
 106              		.cfi_endproc
 107              	.LFE8:
 108              		.size	sys_sem_new, .-sys_sem_new
 109 004c AFF30080 		.section	.text.sys_sem_free,"ax",%progbits
 110              		.align	2
 111              		.p2align 4,,15
ARM GAS  C:\Users\jenny\AppData\Local\Temp\ccPGDPsp.s 			page 3


 112              		.global	sys_sem_free
 113              		.thumb
 114              		.thumb_func
 115              		.type	sys_sem_free, %function
 116              	sys_sem_free:
 117              	.LFB9:
 118              		.loc 1 81 0
 119              		.cfi_startproc
 120              		@ args = 0, pretend = 0, frame = 0
 121              		@ frame_needed = 0, uses_anonymous_args = 0
 122              	.LVL5:
 123 0000 10B5     		push	{r4, lr}
 124              	.LCFI1:
 125              		.cfi_def_cfa_offset 8
 126              		.cfi_offset 4, -8
 127              		.cfi_offset 14, -4
 128              		.loc 1 81 0
 129 0002 0446     		mov	r4, r0
 130              		.loc 1 83 0
 131 0004 0068     		ldr	r0, [r0, #0]
 132              	.LVL6:
 133 0006 FFF7FEFF 		bl	chHeapFree
 134              	.LVL7:
 135              		.loc 1 85 0
 136 000a 40F20003 		movw	r3, #:lower16:lwip_stats
 137 000e C0F20003 		movt	r3, #:upper16:lwip_stats
 138              		.loc 1 84 0
 139 0012 0021     		movs	r1, #0
 140              		.loc 1 85 0
 141 0014 B3F83E21 		ldrh	r2, [r3, #318]
 142              		.loc 1 84 0
 143 0018 2160     		str	r1, [r4, #0]
 144              		.loc 1 85 0
 145 001a 501E     		subs	r0, r2, #1
 146 001c A3F83E01 		strh	r0, [r3, #318]	@ movhi
 147 0020 10BD     		pop	{r4, pc}
 148              		.cfi_endproc
 149              	.LFE9:
 150              		.size	sys_sem_free, .-sys_sem_free
 151 0022 00BFAFF3 		.section	.text.sys_sem_signal,"ax",%progbits
 151      0080AFF3 
 151      0080AFF3 
 151      0080
 152              		.align	2
 153              		.p2align 4,,15
 154              		.global	sys_sem_signal
 155              		.thumb
 156              		.thumb_func
 157              		.type	sys_sem_signal, %function
 158              	sys_sem_signal:
 159              	.LFB10:
 160              		.loc 1 88 0
 161              		.cfi_startproc
 162              		@ args = 0, pretend = 0, frame = 0
 163              		@ frame_needed = 0, uses_anonymous_args = 0
 164              		@ link register save eliminated.
 165              	.LVL8:
ARM GAS  C:\Users\jenny\AppData\Local\Temp\ccPGDPsp.s 			page 4


 166              		.loc 1 90 0
 167 0000 0068     		ldr	r0, [r0, #0]
 168              	.LVL9:
 169              		.loc 1 91 0
 170              		.loc 1 90 0
 171 0002 FFF7FEBF 		b	chSemSignal
 172              	.LVL10:
 173              		.cfi_endproc
 174              	.LFE10:
 175              		.size	sys_sem_signal, .-sys_sem_signal
 176 0006 00BFAFF3 		.section	.text.sys_sem_signal_S,"ax",%progbits
 176      0080AFF3 
 176      0080
 177              		.align	2
 178              		.p2align 4,,15
 179              		.global	sys_sem_signal_S
 180              		.thumb
 181              		.thumb_func
 182              		.type	sys_sem_signal_S, %function
 183              	sys_sem_signal_S:
 184              	.LFB11:
 185              		.loc 1 95 0
 186              		.cfi_startproc
 187              		@ args = 0, pretend = 0, frame = 0
 188              		@ frame_needed = 0, uses_anonymous_args = 0
 189              	.LVL11:
 190 0000 08B5     		push	{r3, lr}
 191              	.LCFI2:
 192              		.cfi_def_cfa_offset 8
 193              		.cfi_offset 3, -8
 194              		.cfi_offset 14, -4
 195              		.loc 1 97 0
 196 0002 0068     		ldr	r0, [r0, #0]
 197              	.LVL12:
 198 0004 FFF7FEFF 		bl	chSemSignalI
 199              	.LVL13:
 200              		.loc 1 99 0
 201 0008 BDE80840 		pop	{r3, lr}
 202              		.loc 1 98 0
 203 000c FFF7FEBF 		b	chSchRescheduleS
 204              	.LVL14:
 205              		.cfi_endproc
 206              	.LFE11:
 207              		.size	sys_sem_signal_S, .-sys_sem_signal_S
 208              		.section	.text.sys_arch_sem_wait,"ax",%progbits
 209              		.align	2
 210              		.p2align 4,,15
 211              		.global	sys_arch_sem_wait
 212              		.thumb
 213              		.thumb_func
 214              		.type	sys_arch_sem_wait, %function
 215              	sys_arch_sem_wait:
 216              	.LFB12:
 217              		.loc 1 101 0
 218              		.cfi_startproc
 219              		@ args = 0, pretend = 0, frame = 0
 220              		@ frame_needed = 0, uses_anonymous_args = 0
ARM GAS  C:\Users\jenny\AppData\Local\Temp\ccPGDPsp.s 			page 5


 221              	.LVL15:
 222 0000 38B5     		push	{r3, r4, r5, lr}
 223              	.LCFI3:
 224              		.cfi_def_cfa_offset 16
 225              		.cfi_offset 3, -16
 226              		.cfi_offset 4, -12
 227              		.cfi_offset 5, -8
 228              		.cfi_offset 14, -4
 229              	.LBB2:
 230              		.loc 1 104 0
 231 0002 2023     		movs	r3, #32
 232              	.LVL16:
 233              	@ 104 "../../os/various/lwip_bindings/arch/sys_arch.c" 1
 234 0004 83F31188 		msr     BASEPRI, r3
 235              	@ 0 "" 2
 236              	.LVL17:
 237              		.thumb
 238              	.LBE2:
 239              		.loc 1 106 0
 240 0008 094C     		ldr	r4, .L19
 241              		.loc 1 107 0
 242 000a 0068     		ldr	r0, [r0, #0]
 243              	.LVL18:
 244              		.loc 1 106 0
 245 000c E568     		ldr	r5, [r4, #12]
 246              	.LVL19:
 247              		.loc 1 107 0
 248 000e 0029     		cmp	r1, #0
 249 0010 08BF     		it	eq
 250 0012 4FF0FF31 		moveq	r1, #-1
 251              	.LVL20:
 252 0016 FFF7FEFF 		bl	chSemWaitTimeoutS
 253              	.LVL21:
 254 001a 28B1     		cbz	r0, .L18
 255              		.loc 1 108 0
 256 001c 4FF0FF30 		mov	r0, #-1
 257              	.LVL22:
 258              	.L15:
 259              	.LBB3:
 260              		.loc 1 111 0
 261 0020 0023     		movs	r3, #0
 262              	.LVL23:
 263              	@ 111 "../../os/various/lwip_bindings/arch/sys_arch.c" 1
 264 0022 83F31188 		msr     BASEPRI, r3
 265              	@ 0 "" 2
 266              	.LVL24:
 267              		.thumb
 268              	.LBE3:
 269              		.loc 1 113 0
 270 0026 38BD     		pop	{r3, r4, r5, pc}
 271              	.LVL25:
 272              	.L18:
 273              		.loc 1 110 0
 274 0028 E068     		ldr	r0, [r4, #12]
 275 002a 401B     		subs	r0, r0, r5
 276              	.LVL26:
 277 002c F8E7     		b	.L15
ARM GAS  C:\Users\jenny\AppData\Local\Temp\ccPGDPsp.s 			page 6


 278              	.L20:
 279 002e 00BF     		.align	2
 280              	.L19:
 281 0030 00000000 		.word	vtlist
 282              		.cfi_endproc
 283              	.LFE12:
 284              		.size	sys_arch_sem_wait, .-sys_arch_sem_wait
 285 0034 AFF30080 		.section	.text.sys_sem_valid,"ax",%progbits
 285      AFF30080 
 285      AFF30080 
 286              		.align	2
 287              		.p2align 4,,15
 288              		.global	sys_sem_valid
 289              		.thumb
 290              		.thumb_func
 291              		.type	sys_sem_valid, %function
 292              	sys_sem_valid:
 293              	.LFB13:
 294              		.loc 1 115 0
 295              		.cfi_startproc
 296              		@ args = 0, pretend = 0, frame = 0
 297              		@ frame_needed = 0, uses_anonymous_args = 0
 298              		@ link register save eliminated.
 299              	.LVL27:
 300              		.loc 1 116 0
 301 0000 0068     		ldr	r0, [r0, #0]
 302              	.LVL28:
 303              		.loc 1 117 0
 304 0002 0030     		adds	r0, r0, #0
 305 0004 18BF     		it	ne
 306 0006 0120     		movne	r0, #1
 307 0008 7047     		bx	lr
 308              		.cfi_endproc
 309              	.LFE13:
 310              		.size	sys_sem_valid, .-sys_sem_valid
 311 000a 00BFAFF3 		.section	.text.sys_sem_set_invalid,"ax",%progbits
 311      0080
 312              		.align	2
 313              		.p2align 4,,15
 314              		.global	sys_sem_set_invalid
 315              		.thumb
 316              		.thumb_func
 317              		.type	sys_sem_set_invalid, %function
 318              	sys_sem_set_invalid:
 319              	.LFB14:
 320              		.loc 1 121 0
 321              		.cfi_startproc
 322              		@ args = 0, pretend = 0, frame = 0
 323              		@ frame_needed = 0, uses_anonymous_args = 0
 324              		@ link register save eliminated.
 325              	.LVL29:
 326              		.loc 1 122 0
 327 0000 0023     		movs	r3, #0
 328 0002 0360     		str	r3, [r0, #0]
 329 0004 7047     		bx	lr
 330              		.cfi_endproc
 331              	.LFE14:
ARM GAS  C:\Users\jenny\AppData\Local\Temp\ccPGDPsp.s 			page 7


 332              		.size	sys_sem_set_invalid, .-sys_sem_set_invalid
 333 0006 00BFAFF3 		.section	.text.sys_mbox_new,"ax",%progbits
 333      0080AFF3 
 333      0080
 334              		.align	2
 335              		.p2align 4,,15
 336              		.global	sys_mbox_new
 337              		.thumb
 338              		.thumb_func
 339              		.type	sys_mbox_new, %function
 340              	sys_mbox_new:
 341              	.LFB15:
 342              		.loc 1 125 0
 343              		.cfi_startproc
 344              		@ args = 0, pretend = 0, frame = 0
 345              		@ frame_needed = 0, uses_anonymous_args = 0
 346              	.LVL30:
 347 0000 38B5     		push	{r3, r4, r5, lr}
 348              	.LCFI4:
 349              		.cfi_def_cfa_offset 16
 350              		.cfi_offset 3, -16
 351              		.cfi_offset 4, -12
 352              		.cfi_offset 5, -8
 353              		.cfi_offset 14, -4
 354              		.loc 1 125 0
 355 0002 0C46     		mov	r4, r1
 356              		.loc 1 127 0
 357 0004 01F10A01 		add	r1, r1, #10
 358              	.LVL31:
 359              		.loc 1 125 0
 360 0008 0546     		mov	r5, r0
 361              		.loc 1 127 0
 362 000a 8900     		lsls	r1, r1, #2
 363 000c 0020     		movs	r0, #0
 364              	.LVL32:
 365 000e FFF7FEFF 		bl	chHeapAlloc
 366              	.LVL33:
 367 0012 0146     		mov	r1, r0
 368 0014 2860     		str	r0, [r5, #0]
 369              		.loc 1 128 0
 370 0016 60B1     		cbz	r0, .L26
 371              		.loc 1 133 0
 372 0018 2831     		adds	r1, r1, #40
 373 001a 2246     		mov	r2, r4
 374 001c FFF7FEFF 		bl	chMBInit
 375              	.LVL34:
 376              		.loc 1 134 0
 377 0020 084B     		ldr	r3, .L27
 378 0022 B3F84A21 		ldrh	r2, [r3, #330]
 379 0026 501C     		adds	r0, r2, #1
 380 0028 A3F84A01 		strh	r0, [r3, #330]	@ movhi
 381              		.loc 1 135 0
 382 002c 0021     		movs	r1, #0
 383              	.L25:
 384              		.loc 1 137 0
 385 002e 48B2     		sxtb	r0, r1
 386 0030 38BD     		pop	{r3, r4, r5, pc}
ARM GAS  C:\Users\jenny\AppData\Local\Temp\ccPGDPsp.s 			page 8


 387              	.L26:
 388              		.loc 1 129 0
 389 0032 044B     		ldr	r3, .L27
 390 0034 B3F84E21 		ldrh	r2, [r3, #334]
 391 0038 501C     		adds	r0, r2, #1
 392 003a A3F84E01 		strh	r0, [r3, #334]	@ movhi
 393              		.loc 1 130 0
 394 003e FF21     		movs	r1, #255
 395 0040 F5E7     		b	.L25
 396              	.L28:
 397 0042 00BF     		.align	2
 398              	.L27:
 399 0044 00000000 		.word	lwip_stats
 400              		.cfi_endproc
 401              	.LFE15:
 402              		.size	sys_mbox_new, .-sys_mbox_new
 403 0048 AFF30080 		.section	.text.sys_mbox_free,"ax",%progbits
 403      AFF30080 
 404              		.align	2
 405              		.p2align 4,,15
 406              		.global	sys_mbox_free
 407              		.thumb
 408              		.thumb_func
 409              		.type	sys_mbox_free, %function
 410              	sys_mbox_free:
 411              	.LFB16:
 412              		.loc 1 139 0
 413              		.cfi_startproc
 414              		@ args = 0, pretend = 0, frame = 0
 415              		@ frame_needed = 0, uses_anonymous_args = 0
 416              	.LVL35:
 417 0000 38B5     		push	{r3, r4, r5, lr}
 418              	.LCFI5:
 419              		.cfi_def_cfa_offset 16
 420              		.cfi_offset 3, -16
 421              		.cfi_offset 4, -12
 422              		.cfi_offset 5, -8
 423              		.cfi_offset 14, -4
 424              		.loc 1 139 0
 425 0002 0546     		mov	r5, r0
 426              		.loc 1 141 0
 427 0004 0068     		ldr	r0, [r0, #0]
 428              	.LVL36:
 429              		.loc 1 145 0
 430 0006 0A4C     		ldr	r4, .L34
 431              		.loc 1 141 0
 432 0008 8369     		ldr	r3, [r0, #24]
 433 000a 3BB1     		cbz	r3, .L30
 434              		.loc 1 145 0
 435 000c B4F84E11 		ldrh	r1, [r4, #334]
 436 0010 4A1C     		adds	r2, r1, #1
 437 0012 A4F84E21 		strh	r2, [r4, #334]	@ movhi
 438              		.loc 1 146 0
 439 0016 FFF7FEFF 		bl	chMBReset
 440              	.LVL37:
 441 001a 2868     		ldr	r0, [r5, #0]
 442              	.L30:
ARM GAS  C:\Users\jenny\AppData\Local\Temp\ccPGDPsp.s 			page 9


 443              		.loc 1 148 0
 444 001c FFF7FEFF 		bl	chHeapFree
 445              	.LVL38:
 446              		.loc 1 150 0
 447 0020 B4F84A01 		ldrh	r0, [r4, #330]
 448              		.loc 1 149 0
 449 0024 0021     		movs	r1, #0
 450              		.loc 1 150 0
 451 0026 431E     		subs	r3, r0, #1
 452              		.loc 1 149 0
 453 0028 2960     		str	r1, [r5, #0]
 454              		.loc 1 150 0
 455 002a A4F84A31 		strh	r3, [r4, #330]	@ movhi
 456 002e 38BD     		pop	{r3, r4, r5, pc}
 457              	.L35:
 458              		.align	2
 459              	.L34:
 460 0030 00000000 		.word	lwip_stats
 461              		.cfi_endproc
 462              	.LFE16:
 463              		.size	sys_mbox_free, .-sys_mbox_free
 464 0034 AFF30080 		.section	.text.sys_mbox_post,"ax",%progbits
 464      AFF30080 
 464      AFF30080 
 465              		.align	2
 466              		.p2align 4,,15
 467              		.global	sys_mbox_post
 468              		.thumb
 469              		.thumb_func
 470              		.type	sys_mbox_post, %function
 471              	sys_mbox_post:
 472              	.LFB17:
 473              		.loc 1 153 0
 474              		.cfi_startproc
 475              		@ args = 0, pretend = 0, frame = 0
 476              		@ frame_needed = 0, uses_anonymous_args = 0
 477              		@ link register save eliminated.
 478              	.LVL39:
 479              		.loc 1 155 0
 480 0000 0068     		ldr	r0, [r0, #0]
 481              	.LVL40:
 482 0002 4FF0FF32 		mov	r2, #-1
 483              		.loc 1 156 0
 484              		.loc 1 155 0
 485 0006 FFF7FEBF 		b	chMBPost
 486              	.LVL41:
 487              		.cfi_endproc
 488              	.LFE17:
 489              		.size	sys_mbox_post, .-sys_mbox_post
 490 000a 00BFAFF3 		.section	.text.sys_mbox_trypost,"ax",%progbits
 490      0080
 491              		.align	2
 492              		.p2align 4,,15
 493              		.global	sys_mbox_trypost
 494              		.thumb
 495              		.thumb_func
 496              		.type	sys_mbox_trypost, %function
ARM GAS  C:\Users\jenny\AppData\Local\Temp\ccPGDPsp.s 			page 10


 497              	sys_mbox_trypost:
 498              	.LFB18:
 499              		.loc 1 158 0
 500              		.cfi_startproc
 501              		@ args = 0, pretend = 0, frame = 0
 502              		@ frame_needed = 0, uses_anonymous_args = 0
 503              	.LVL42:
 504              		.loc 1 160 0
 505 0000 0022     		movs	r2, #0
 506              		.loc 1 158 0
 507 0002 08B5     		push	{r3, lr}
 508              	.LCFI6:
 509              		.cfi_def_cfa_offset 8
 510              		.cfi_offset 3, -8
 511              		.cfi_offset 14, -4
 512              		.loc 1 160 0
 513 0004 0068     		ldr	r0, [r0, #0]
 514              	.LVL43:
 515 0006 FFF7FEFF 		bl	chMBPost
 516              	.LVL44:
 517 000a 0130     		adds	r0, r0, #1
 518 000c 02D0     		beq	.L40
 519              		.loc 1 164 0
 520 000e 0020     		movs	r0, #0
 521              	.L38:
 522              		.loc 1 165 0
 523 0010 40B2     		sxtb	r0, r0
 524 0012 08BD     		pop	{r3, pc}
 525              	.L40:
 526              		.loc 1 161 0
 527 0014 034B     		ldr	r3, .L41
 528 0016 B3F84E21 		ldrh	r2, [r3, #334]
 529 001a 511C     		adds	r1, r2, #1
 530 001c A3F84E11 		strh	r1, [r3, #334]	@ movhi
 531              		.loc 1 162 0
 532 0020 FF20     		movs	r0, #255
 533 0022 F5E7     		b	.L38
 534              	.L42:
 535              		.align	2
 536              	.L41:
 537 0024 00000000 		.word	lwip_stats
 538              		.cfi_endproc
 539              	.LFE18:
 540              		.size	sys_mbox_trypost, .-sys_mbox_trypost
 541 0028 AFF30080 		.section	.text.sys_arch_mbox_fetch,"ax",%progbits
 541      AFF30080 
 542              		.align	2
 543              		.p2align 4,,15
 544              		.global	sys_arch_mbox_fetch
 545              		.thumb
 546              		.thumb_func
 547              		.type	sys_arch_mbox_fetch, %function
 548              	sys_arch_mbox_fetch:
 549              	.LFB19:
 550              		.loc 1 167 0
 551              		.cfi_startproc
 552              		@ args = 0, pretend = 0, frame = 0
ARM GAS  C:\Users\jenny\AppData\Local\Temp\ccPGDPsp.s 			page 11


 553              		@ frame_needed = 0, uses_anonymous_args = 0
 554              	.LVL45:
 555 0000 38B5     		push	{r3, r4, r5, lr}
 556              	.LCFI7:
 557              		.cfi_def_cfa_offset 16
 558              		.cfi_offset 3, -16
 559              		.cfi_offset 4, -12
 560              		.cfi_offset 5, -8
 561              		.cfi_offset 14, -4
 562              	.LBB4:
 563              		.loc 1 170 0
 564 0002 2023     		movs	r3, #32
 565              	.LVL46:
 566              	@ 170 "../../os/various/lwip_bindings/arch/sys_arch.c" 1
 567 0004 83F31188 		msr     BASEPRI, r3
 568              	@ 0 "" 2
 569              	.LVL47:
 570              		.thumb
 571              	.LBE4:
 572              		.loc 1 172 0
 573 0008 094C     		ldr	r4, .L49
 574              		.loc 1 173 0
 575 000a 0068     		ldr	r0, [r0, #0]
 576              	.LVL48:
 577              		.loc 1 172 0
 578 000c E568     		ldr	r5, [r4, #12]
 579              	.LVL49:
 580              		.loc 1 173 0
 581 000e 002A     		cmp	r2, #0
 582 0010 08BF     		it	eq
 583 0012 4FF0FF32 		moveq	r2, #-1
 584              	.LVL50:
 585 0016 FFF7FEFF 		bl	chMBFetchS
 586              	.LVL51:
 587 001a 28B1     		cbz	r0, .L48
 588              		.loc 1 174 0
 589 001c 4FF0FF30 		mov	r0, #-1
 590              	.LVL52:
 591              	.L45:
 592              	.LBB5:
 593              		.loc 1 177 0
 594 0020 0023     		movs	r3, #0
 595              	.LVL53:
 596              	@ 177 "../../os/various/lwip_bindings/arch/sys_arch.c" 1
 597 0022 83F31188 		msr     BASEPRI, r3
 598              	@ 0 "" 2
 599              	.LVL54:
 600              		.thumb
 601              	.LBE5:
 602              		.loc 1 179 0
 603 0026 38BD     		pop	{r3, r4, r5, pc}
 604              	.LVL55:
 605              	.L48:
 606              		.loc 1 176 0
 607 0028 E068     		ldr	r0, [r4, #12]
 608 002a 401B     		subs	r0, r0, r5
 609              	.LVL56:
ARM GAS  C:\Users\jenny\AppData\Local\Temp\ccPGDPsp.s 			page 12


 610 002c F8E7     		b	.L45
 611              	.L50:
 612 002e 00BF     		.align	2
 613              	.L49:
 614 0030 00000000 		.word	vtlist
 615              		.cfi_endproc
 616              	.LFE19:
 617              		.size	sys_arch_mbox_fetch, .-sys_arch_mbox_fetch
 618 0034 AFF30080 		.section	.text.sys_arch_mbox_tryfetch,"ax",%progbits
 618      AFF30080 
 618      AFF30080 
 619              		.align	2
 620              		.p2align 4,,15
 621              		.global	sys_arch_mbox_tryfetch
 622              		.thumb
 623              		.thumb_func
 624              		.type	sys_arch_mbox_tryfetch, %function
 625              	sys_arch_mbox_tryfetch:
 626              	.LFB20:
 627              		.loc 1 181 0
 628              		.cfi_startproc
 629              		@ args = 0, pretend = 0, frame = 0
 630              		@ frame_needed = 0, uses_anonymous_args = 0
 631              	.LVL57:
 632 0000 08B5     		push	{r3, lr}
 633              	.LCFI8:
 634              		.cfi_def_cfa_offset 8
 635              		.cfi_offset 3, -8
 636              		.cfi_offset 14, -4
 637              		.loc 1 183 0
 638 0002 0022     		movs	r2, #0
 639 0004 0068     		ldr	r0, [r0, #0]
 640              	.LVL58:
 641 0006 FFF7FEFF 		bl	chMBFetch
 642              	.LVL59:
 643              		.loc 1 186 0
 644 000a B0F1FF3F 		cmp	r0, #-1
 645 000e 0CBF     		ite	eq
 646 0010 4FF0FF30 		moveq	r0, #-1
 647 0014 0020     		movne	r0, #0
 648 0016 08BD     		pop	{r3, pc}
 649              		.cfi_endproc
 650              	.LFE20:
 651              		.size	sys_arch_mbox_tryfetch, .-sys_arch_mbox_tryfetch
 652 0018 AFF30080 		.section	.text.sys_mbox_valid,"ax",%progbits
 652      AFF30080 
 653              		.align	2
 654              		.p2align 4,,15
 655              		.global	sys_mbox_valid
 656              		.thumb
 657              		.thumb_func
 658              		.type	sys_mbox_valid, %function
 659              	sys_mbox_valid:
 660              	.LFB21:
 661              		.loc 1 188 0
 662              		.cfi_startproc
 663              		@ args = 0, pretend = 0, frame = 0
ARM GAS  C:\Users\jenny\AppData\Local\Temp\ccPGDPsp.s 			page 13


 664              		@ frame_needed = 0, uses_anonymous_args = 0
 665              		@ link register save eliminated.
 666              	.LVL60:
 667              		.loc 1 189 0
 668 0000 0068     		ldr	r0, [r0, #0]
 669              	.LVL61:
 670              		.loc 1 190 0
 671 0002 0030     		adds	r0, r0, #0
 672 0004 18BF     		it	ne
 673 0006 0120     		movne	r0, #1
 674 0008 7047     		bx	lr
 675              		.cfi_endproc
 676              	.LFE21:
 677              		.size	sys_mbox_valid, .-sys_mbox_valid
 678 000a 00BFAFF3 		.section	.text.sys_mbox_set_invalid,"ax",%progbits
 678      0080
 679              		.align	2
 680              		.p2align 4,,15
 681              		.global	sys_mbox_set_invalid
 682              		.thumb
 683              		.thumb_func
 684              		.type	sys_mbox_set_invalid, %function
 685              	sys_mbox_set_invalid:
 686              	.LFB22:
 687              		.loc 1 194 0
 688              		.cfi_startproc
 689              		@ args = 0, pretend = 0, frame = 0
 690              		@ frame_needed = 0, uses_anonymous_args = 0
 691              		@ link register save eliminated.
 692              	.LVL62:
 693              		.loc 1 195 0
 694 0000 0023     		movs	r3, #0
 695 0002 0360     		str	r3, [r0, #0]
 696 0004 7047     		bx	lr
 697              		.cfi_endproc
 698              	.LFE22:
 699              		.size	sys_mbox_set_invalid, .-sys_mbox_set_invalid
 700 0006 00BFAFF3 		.section	.text.sys_thread_new,"ax",%progbits
 700      0080AFF3 
 700      0080
 701              		.align	2
 702              		.p2align 4,,15
 703              		.global	sys_thread_new
 704              		.thumb
 705              		.thumb_func
 706              		.type	sys_thread_new, %function
 707              	sys_thread_new:
 708              	.LFB23:
 709              		.loc 1 199 0
 710              		.cfi_startproc
 711              		@ args = 4, pretend = 0, frame = 0
 712              		@ frame_needed = 0, uses_anonymous_args = 0
 713              	.LVL63:
 714              		.loc 1 205 0
 715 0000 03F23313 		addw	r3, r3, #307
 716              	.LVL64:
 717              		.loc 1 199 0
ARM GAS  C:\Users\jenny\AppData\Local\Temp\ccPGDPsp.s 			page 14


 718 0004 2DE9F041 		push	{r4, r5, r6, r7, r8, lr}
 719              	.LCFI9:
 720              		.cfi_def_cfa_offset 24
 721              		.cfi_offset 4, -24
 722              		.cfi_offset 5, -20
 723              		.cfi_offset 6, -16
 724              		.cfi_offset 7, -12
 725              		.cfi_offset 8, -8
 726              		.cfi_offset 14, -4
 727              		.loc 1 205 0
 728 0008 43F00704 		orr	r4, r3, #7
 729 000c 0134     		adds	r4, r4, #1
 730              	.LVL65:
 731              		.loc 1 206 0
 732 000e 2046     		mov	r0, r4
 733              	.LVL66:
 734              		.loc 1 199 0
 735 0010 0D46     		mov	r5, r1
 736 0012 1746     		mov	r7, r2
 737 0014 069E     		ldr	r6, [sp, #24]
 738              		.loc 1 206 0
 739 0016 FFF7FEFF 		bl	chCoreAlloc
 740              	.LVL67:
 741              		.loc 1 207 0
 742 001a 38B1     		cbz	r0, .L57
 743              		.loc 1 209 0
 744 001c 2146     		mov	r1, r4
 745 001e 3246     		mov	r2, r6
 746 0020 2B46     		mov	r3, r5
 747 0022 0697     		str	r7, [sp, #24]
 748              		.loc 1 210 0
 749 0024 BDE8F041 		pop	{r4, r5, r6, r7, r8, lr}
 750              		.loc 1 209 0
 751 0028 FFF7FEBF 		b	chThdCreateStatic
 752              	.LVL68:
 753              	.L57:
 754              		.loc 1 210 0
 755 002c BDE8F081 		pop	{r4, r5, r6, r7, r8, pc}
 756              		.cfi_endproc
 757              	.LFE23:
 758              		.size	sys_thread_new, .-sys_thread_new
 759              		.section	.text.sys_arch_protect,"ax",%progbits
 760              		.align	2
 761              		.p2align 4,,15
 762              		.global	sys_arch_protect
 763              		.thumb
 764              		.thumb_func
 765              		.type	sys_arch_protect, %function
 766              	sys_arch_protect:
 767              	.LFB24:
 768              		.loc 1 212 0
 769              		.cfi_startproc
 770              		@ args = 0, pretend = 0, frame = 0
 771              		@ frame_needed = 0, uses_anonymous_args = 0
 772              		@ link register save eliminated.
 773              	.LBB6:
 774              		.loc 1 214 0
ARM GAS  C:\Users\jenny\AppData\Local\Temp\ccPGDPsp.s 			page 15


 775 0000 2023     		movs	r3, #32
 776              	.LVL69:
 777              	@ 214 "../../os/various/lwip_bindings/arch/sys_arch.c" 1
 778 0002 83F31188 		msr     BASEPRI, r3
 779              	@ 0 "" 2
 780              	.LVL70:
 781              		.thumb
 782              	.LBE6:
 783              		.loc 1 216 0
 784 0006 0020     		movs	r0, #0
 785 0008 7047     		bx	lr
 786              		.cfi_endproc
 787              	.LFE24:
 788              		.size	sys_arch_protect, .-sys_arch_protect
 789 000a 00BFAFF3 		.section	.text.sys_arch_unprotect,"ax",%progbits
 789      0080
 790              		.align	2
 791              		.p2align 4,,15
 792              		.global	sys_arch_unprotect
 793              		.thumb
 794              		.thumb_func
 795              		.type	sys_arch_unprotect, %function
 796              	sys_arch_unprotect:
 797              	.LFB25:
 798              		.loc 1 218 0
 799              		.cfi_startproc
 800              		@ args = 0, pretend = 0, frame = 0
 801              		@ frame_needed = 0, uses_anonymous_args = 0
 802              		@ link register save eliminated.
 803              	.LVL71:
 804              	.LBB7:
 805              		.loc 1 221 0
 806 0000 0023     		movs	r3, #0
 807              	.LVL72:
 808              	@ 221 "../../os/various/lwip_bindings/arch/sys_arch.c" 1
 809 0002 83F31188 		msr     BASEPRI, r3
 810              	@ 0 "" 2
 811              	.LVL73:
 812              		.thumb
 813 0006 7047     		bx	lr
 814              	.LBE7:
 815              		.cfi_endproc
 816              	.LFE25:
 817              		.size	sys_arch_unprotect, .-sys_arch_unprotect
 818 0008 AFF30080 		.section	.text.sys_now,"ax",%progbits
 818      AFF30080 
 819              		.align	2
 820              		.p2align 4,,15
 821              		.global	sys_now
 822              		.thumb
 823              		.thumb_func
 824              		.type	sys_now, %function
 825              	sys_now:
 826              	.LFB26:
 827              		.loc 1 224 0
 828              		.cfi_startproc
 829              		@ args = 0, pretend = 0, frame = 0
ARM GAS  C:\Users\jenny\AppData\Local\Temp\ccPGDPsp.s 			page 16


 830              		@ frame_needed = 0, uses_anonymous_args = 0
 831              		@ link register save eliminated.
 832              		.loc 1 227 0
 833 0000 40F20003 		movw	r3, #:lower16:vtlist
 834 0004 C0F20003 		movt	r3, #:upper16:vtlist
 835 0008 D868     		ldr	r0, [r3, #12]
 836              		.loc 1 235 0
 837 000a 7047     		bx	lr
 838              		.cfi_endproc
 839              	.LFE26:
 840              		.size	sys_now, .-sys_now
 841 000c AFF30080 		.text
 842              	.Letext0:
 843              		.file 2 "c:\\fbin\\yagarto\\bin\\../lib/gcc/arm-none-eabi/4.7.4/include/stddef.h"
 844              		.file 3 "c:\\fbin\\yagarto\\bin\\../lib/gcc/arm-none-eabi/4.7.4/../../../../arm-none-eabi/include/
 845              		.file 4 "../../os/ports/GCC/ARMCMx/chtypes.h"
 846              		.file 5 "../../os/kernel/include/chlists.h"
 847              		.file 6 "../../os/kernel/include/chthreads.h"
 848              		.file 7 "../../os/ports/GCC/ARMCMx/chcore_v7m.h"
 849              		.file 8 "../../os/kernel/include/chvt.h"
 850              		.file 9 "../../os/kernel/include/chsem.h"
 851              		.file 10 "../../os/kernel/include/chmtx.h"
 852              		.file 11 "../../os/kernel/include/chmboxes.h"
 853              		.file 12 "../../os/kernel/include/chmemcore.h"
 854              		.file 13 "../../os/kernel/include/chheap.h"
 855              		.file 14 "../../os/various/lwip_bindings/arch/cc.h"
 856              		.file 15 "../../ext/lwip/src/include/lwip/mem.h"
 857              		.file 16 "../../ext/lwip/src/include/lwip/err.h"
 858              		.file 17 "../../os/various/lwip_bindings/arch/sys_arch.h"
 859              		.file 18 "../../ext/lwip/src/include/lwip/sys.h"
 860              		.file 19 "../../ext/lwip/src/include/lwip/stats.h"
 861              		.file 20 "../../os/kernel/include/chschd.h"
 862              		.section	.debug_info,"",%progbits
 863              	.Ldebug_info0:
 864 0000 D2110000 		.4byte	0x11d2
 865 0004 0200     		.2byte	0x2
 866 0006 00000000 		.4byte	.Ldebug_abbrev0
 867 000a 04       		.byte	0x4
 868 000b 01       		.uleb128 0x1
 869 000c A6040000 		.4byte	.LASF169
 870 0010 01       		.byte	0x1
 871 0011 20020000 		.4byte	.LASF170
 872 0015 91020000 		.4byte	.LASF171
 873 0019 00000000 		.4byte	.Ldebug_ranges0+0
 874 001d 00000000 		.4byte	0
 875 0021 00000000 		.4byte	0
 876 0025 00000000 		.4byte	.Ldebug_line0
 877 0029 02       		.uleb128 0x2
 878 002a 04       		.byte	0x4
 879 002b 05       		.byte	0x5
 880 002c 696E7400 		.ascii	"int\000"
 881 0030 03       		.uleb128 0x3
 882 0031 5B020000 		.4byte	.LASF1
 883 0035 02       		.byte	0x2
 884 0036 D5       		.byte	0xd5
 885 0037 3B000000 		.4byte	0x3b
 886 003b 04       		.uleb128 0x4
ARM GAS  C:\Users\jenny\AppData\Local\Temp\ccPGDPsp.s 			page 17


 887 003c 04       		.byte	0x4
 888 003d 07       		.byte	0x7
 889 003e 86000000 		.4byte	.LASF0
 890 0042 03       		.uleb128 0x3
 891 0043 3A010000 		.4byte	.LASF2
 892 0047 03       		.byte	0x3
 893 0048 29       		.byte	0x29
 894 0049 4D000000 		.4byte	0x4d
 895 004d 04       		.uleb128 0x4
 896 004e 01       		.byte	0x1
 897 004f 06       		.byte	0x6
 898 0050 ED060000 		.4byte	.LASF3
 899 0054 03       		.uleb128 0x3
 900 0055 A2030000 		.4byte	.LASF4
 901 0059 03       		.byte	0x3
 902 005a 2A       		.byte	0x2a
 903 005b 5F000000 		.4byte	0x5f
 904 005f 04       		.uleb128 0x4
 905 0060 01       		.byte	0x1
 906 0061 08       		.byte	0x8
 907 0062 8C060000 		.4byte	.LASF5
 908 0066 04       		.uleb128 0x4
 909 0067 02       		.byte	0x2
 910 0068 05       		.byte	0x5
 911 0069 4B050000 		.4byte	.LASF6
 912 006d 03       		.uleb128 0x3
 913 006e 15050000 		.4byte	.LASF7
 914 0072 03       		.byte	0x3
 915 0073 36       		.byte	0x36
 916 0074 78000000 		.4byte	0x78
 917 0078 04       		.uleb128 0x4
 918 0079 02       		.byte	0x2
 919 007a 07       		.byte	0x7
 920 007b F9060000 		.4byte	.LASF8
 921 007f 03       		.uleb128 0x3
 922 0080 5D060000 		.4byte	.LASF9
 923 0084 03       		.byte	0x3
 924 0085 4F       		.byte	0x4f
 925 0086 8A000000 		.4byte	0x8a
 926 008a 04       		.uleb128 0x4
 927 008b 04       		.byte	0x4
 928 008c 05       		.byte	0x5
 929 008d 7D050000 		.4byte	.LASF10
 930 0091 03       		.uleb128 0x3
 931 0092 31010000 		.4byte	.LASF11
 932 0096 03       		.byte	0x3
 933 0097 50       		.byte	0x50
 934 0098 9C000000 		.4byte	0x9c
 935 009c 04       		.uleb128 0x4
 936 009d 04       		.byte	0x4
 937 009e 07       		.byte	0x7
 938 009f 41060000 		.4byte	.LASF12
 939 00a3 04       		.uleb128 0x4
 940 00a4 08       		.byte	0x8
 941 00a5 05       		.byte	0x5
 942 00a6 E8030000 		.4byte	.LASF13
 943 00aa 03       		.uleb128 0x3
ARM GAS  C:\Users\jenny\AppData\Local\Temp\ccPGDPsp.s 			page 18


 944 00ab 99050000 		.4byte	.LASF14
 945 00af 03       		.byte	0x3
 946 00b0 78       		.byte	0x78
 947 00b1 B5000000 		.4byte	0xb5
 948 00b5 04       		.uleb128 0x4
 949 00b6 08       		.byte	0x8
 950 00b7 07       		.byte	0x7
 951 00b8 AC010000 		.4byte	.LASF15
 952 00bc 04       		.uleb128 0x4
 953 00bd 01       		.byte	0x1
 954 00be 02       		.byte	0x2
 955 00bf 69020000 		.4byte	.LASF16
 956 00c3 03       		.uleb128 0x3
 957 00c4 9E040000 		.4byte	.LASF17
 958 00c8 04       		.byte	0x4
 959 00c9 2C       		.byte	0x2c
 960 00ca 54000000 		.4byte	0x54
 961 00ce 03       		.uleb128 0x3
 962 00cf 76030000 		.4byte	.LASF18
 963 00d3 04       		.byte	0x4
 964 00d4 2D       		.byte	0x2d
 965 00d5 54000000 		.4byte	0x54
 966 00d9 03       		.uleb128 0x3
 967 00da 39060000 		.4byte	.LASF19
 968 00de 04       		.byte	0x4
 969 00df 2E       		.byte	0x2e
 970 00e0 54000000 		.4byte	0x54
 971 00e4 03       		.uleb128 0x3
 972 00e5 75040000 		.4byte	.LASF20
 973 00e9 04       		.byte	0x4
 974 00ea 2F       		.byte	0x2f
 975 00eb 54000000 		.4byte	0x54
 976 00ef 03       		.uleb128 0x3
 977 00f0 69010000 		.4byte	.LASF21
 978 00f4 04       		.byte	0x4
 979 00f5 30       		.byte	0x30
 980 00f6 91000000 		.4byte	0x91
 981 00fa 03       		.uleb128 0x3
 982 00fb 16040000 		.4byte	.LASF22
 983 00ff 04       		.byte	0x4
 984 0100 31       		.byte	0x31
 985 0101 7F000000 		.4byte	0x7f
 986 0105 03       		.uleb128 0x3
 987 0106 41010000 		.4byte	.LASF23
 988 010a 04       		.byte	0x4
 989 010b 33       		.byte	0x33
 990 010c 91000000 		.4byte	0x91
 991 0110 03       		.uleb128 0x3
 992 0111 41000000 		.4byte	.LASF24
 993 0115 04       		.byte	0x4
 994 0116 35       		.byte	0x35
 995 0117 91000000 		.4byte	0x91
 996 011b 03       		.uleb128 0x3
 997 011c C3010000 		.4byte	.LASF25
 998 0120 04       		.byte	0x4
 999 0121 36       		.byte	0x36
 1000 0122 7F000000 		.4byte	0x7f
ARM GAS  C:\Users\jenny\AppData\Local\Temp\ccPGDPsp.s 			page 19


 1001 0126 03       		.uleb128 0x3
 1002 0127 6F030000 		.4byte	.LASF26
 1003 012b 05       		.byte	0x5
 1004 012c 2A       		.byte	0x2a
 1005 012d 31010000 		.4byte	0x131
 1006 0131 05       		.uleb128 0x5
 1007 0132 6F030000 		.4byte	.LASF26
 1008 0136 48       		.byte	0x48
 1009 0137 06       		.byte	0x6
 1010 0138 5E       		.byte	0x5e
 1011 0139 56020000 		.4byte	0x256
 1012 013d 06       		.uleb128 0x6
 1013 013e 92050000 		.4byte	.LASF27
 1014 0142 06       		.byte	0x6
 1015 0143 5F       		.byte	0x5f
 1016 0144 7B020000 		.4byte	0x27b
 1017 0148 02       		.byte	0x2
 1018 0149 23       		.byte	0x23
 1019 014a 00       		.uleb128 0
 1020 014b 06       		.uleb128 0x6
 1021 014c 29060000 		.4byte	.LASF28
 1022 0150 06       		.byte	0x6
 1023 0151 61       		.byte	0x61
 1024 0152 7B020000 		.4byte	0x27b
 1025 0156 02       		.byte	0x2
 1026 0157 23       		.byte	0x23
 1027 0158 04       		.uleb128 0x4
 1028 0159 06       		.uleb128 0x6
 1029 015a 3A000000 		.4byte	.LASF29
 1030 015e 06       		.byte	0x6
 1031 015f 63       		.byte	0x63
 1032 0160 EF000000 		.4byte	0xef
 1033 0164 02       		.byte	0x2
 1034 0165 23       		.byte	0x23
 1035 0166 08       		.uleb128 0x8
 1036 0167 06       		.uleb128 0x6
 1037 0168 A2050000 		.4byte	.LASF30
 1038 016c 06       		.byte	0x6
 1039 016d 64       		.byte	0x64
 1040 016e 44040000 		.4byte	0x444
 1041 0172 02       		.byte	0x2
 1042 0173 23       		.byte	0x23
 1043 0174 0C       		.uleb128 0xc
 1044 0175 06       		.uleb128 0x6
 1045 0176 DD010000 		.4byte	.LASF31
 1046 017a 06       		.byte	0x6
 1047 017b 66       		.byte	0x66
 1048 017c 7B020000 		.4byte	0x27b
 1049 0180 02       		.byte	0x2
 1050 0181 23       		.byte	0x23
 1051 0182 10       		.uleb128 0x10
 1052 0183 06       		.uleb128 0x6
 1053 0184 86030000 		.4byte	.LASF32
 1054 0188 06       		.byte	0x6
 1055 0189 67       		.byte	0x67
 1056 018a 7B020000 		.4byte	0x27b
 1057 018e 02       		.byte	0x2
ARM GAS  C:\Users\jenny\AppData\Local\Temp\ccPGDPsp.s 			page 20


 1058 018f 23       		.byte	0x23
 1059 0190 14       		.uleb128 0x14
 1060 0191 06       		.uleb128 0x6
 1061 0192 24030000 		.4byte	.LASF33
 1062 0196 06       		.byte	0x6
 1063 0197 6E       		.byte	0x6e
 1064 0198 31070000 		.4byte	0x731
 1065 019c 02       		.byte	0x2
 1066 019d 23       		.byte	0x23
 1067 019e 18       		.uleb128 0x18
 1068 019f 06       		.uleb128 0x6
 1069 01a0 8E030000 		.4byte	.LASF34
 1070 01a4 06       		.byte	0x6
 1071 01a5 79       		.byte	0x79
 1072 01a6 CE000000 		.4byte	0xce
 1073 01aa 02       		.byte	0x2
 1074 01ab 23       		.byte	0x23
 1075 01ac 1C       		.uleb128 0x1c
 1076 01ad 06       		.uleb128 0x6
 1077 01ae 34040000 		.4byte	.LASF35
 1078 01b2 06       		.byte	0x6
 1079 01b3 7D       		.byte	0x7d
 1080 01b4 C3000000 		.4byte	0xc3
 1081 01b8 02       		.byte	0x2
 1082 01b9 23       		.byte	0x23
 1083 01ba 1D       		.uleb128 0x1d
 1084 01bb 06       		.uleb128 0x6
 1085 01bc 9A060000 		.4byte	.LASF36
 1086 01c0 06       		.byte	0x6
 1087 01c1 82       		.byte	0x82
 1088 01c2 D9000000 		.4byte	0xd9
 1089 01c6 02       		.byte	0x2
 1090 01c7 23       		.byte	0x23
 1091 01c8 1E       		.uleb128 0x1e
 1092 01c9 06       		.uleb128 0x6
 1093 01ca AF060000 		.4byte	.LASF37
 1094 01ce 06       		.byte	0x6
 1095 01cf 88       		.byte	0x88
 1096 01d0 E4000000 		.4byte	0xe4
 1097 01d4 02       		.byte	0x2
 1098 01d5 23       		.byte	0x23
 1099 01d6 1F       		.uleb128 0x1f
 1100 01d7 06       		.uleb128 0x6
 1101 01d8 2A000000 		.4byte	.LASF38
 1102 01dc 06       		.byte	0x6
 1103 01dd 8F       		.byte	0x8f
 1104 01de 30050000 		.4byte	0x530
 1105 01e2 02       		.byte	0x2
 1106 01e3 23       		.byte	0x23
 1107 01e4 20       		.uleb128 0x20
 1108 01e5 07       		.uleb128 0x7
 1109 01e6 705F7500 		.ascii	"p_u\000"
 1110 01ea 06       		.byte	0x6
 1111 01eb B4       		.byte	0xb4
 1112 01ec FC060000 		.4byte	0x6fc
 1113 01f0 02       		.byte	0x2
 1114 01f1 23       		.byte	0x23
ARM GAS  C:\Users\jenny\AppData\Local\Temp\ccPGDPsp.s 			page 21


 1115 01f2 24       		.uleb128 0x24
 1116 01f3 06       		.uleb128 0x6
 1117 01f4 15000000 		.4byte	.LASF39
 1118 01f8 06       		.byte	0x6
 1119 01f9 B9       		.byte	0xb9
 1120 01fa A3020000 		.4byte	0x2a3
 1121 01fe 02       		.byte	0x2
 1122 01ff 23       		.byte	0x23
 1123 0200 28       		.uleb128 0x28
 1124 0201 06       		.uleb128 0x6
 1125 0202 7B000000 		.4byte	.LASF40
 1126 0206 06       		.byte	0x6
 1127 0207 BF       		.byte	0xbf
 1128 0208 81020000 		.4byte	0x281
 1129 020c 02       		.byte	0x2
 1130 020d 23       		.byte	0x23
 1131 020e 2C       		.uleb128 0x2c
 1132 020f 06       		.uleb128 0x6
 1133 0210 98040000 		.4byte	.LASF41
 1134 0214 06       		.byte	0x6
 1135 0215 C3       		.byte	0xc3
 1136 0216 FA000000 		.4byte	0xfa
 1137 021a 02       		.byte	0x2
 1138 021b 23       		.byte	0x23
 1139 021c 34       		.uleb128 0x34
 1140 021d 06       		.uleb128 0x6
 1141 021e 6A050000 		.4byte	.LASF42
 1142 0222 06       		.byte	0x6
 1143 0223 C9       		.byte	0xc9
 1144 0224 05010000 		.4byte	0x105
 1145 0228 02       		.byte	0x2
 1146 0229 23       		.byte	0x23
 1147 022a 38       		.uleb128 0x38
 1148 022b 06       		.uleb128 0x6
 1149 022c D8030000 		.4byte	.LASF43
 1150 0230 06       		.byte	0x6
 1151 0231 D0       		.byte	0xd0
 1152 0232 43070000 		.4byte	0x743
 1153 0236 02       		.byte	0x2
 1154 0237 23       		.byte	0x23
 1155 0238 3C       		.uleb128 0x3c
 1156 0239 06       		.uleb128 0x6
 1157 023a 3A050000 		.4byte	.LASF44
 1158 023e 06       		.byte	0x6
 1159 023f D4       		.byte	0xd4
 1160 0240 EF000000 		.4byte	0xef
 1161 0244 02       		.byte	0x2
 1162 0245 23       		.byte	0x23
 1163 0246 40       		.uleb128 0x40
 1164 0247 06       		.uleb128 0x6
 1165 0248 D0030000 		.4byte	.LASF45
 1166 024c 06       		.byte	0x6
 1167 024d DA       		.byte	0xda
 1168 024e B9020000 		.4byte	0x2b9
 1169 0252 02       		.byte	0x2
 1170 0253 23       		.byte	0x23
 1171 0254 44       		.uleb128 0x44
ARM GAS  C:\Users\jenny\AppData\Local\Temp\ccPGDPsp.s 			page 22


 1172 0255 00       		.byte	0
 1173 0256 08       		.uleb128 0x8
 1174 0257 08       		.byte	0x8
 1175 0258 05       		.byte	0x5
 1176 0259 61       		.byte	0x61
 1177 025a 7B020000 		.4byte	0x27b
 1178 025e 06       		.uleb128 0x6
 1179 025f 92050000 		.4byte	.LASF27
 1180 0263 05       		.byte	0x5
 1181 0264 62       		.byte	0x62
 1182 0265 7B020000 		.4byte	0x27b
 1183 0269 02       		.byte	0x2
 1184 026a 23       		.byte	0x23
 1185 026b 00       		.uleb128 0
 1186 026c 06       		.uleb128 0x6
 1187 026d 29060000 		.4byte	.LASF28
 1188 0271 05       		.byte	0x5
 1189 0272 64       		.byte	0x64
 1190 0273 7B020000 		.4byte	0x27b
 1191 0277 02       		.byte	0x2
 1192 0278 23       		.byte	0x23
 1193 0279 04       		.uleb128 0x4
 1194 027a 00       		.byte	0
 1195 027b 09       		.uleb128 0x9
 1196 027c 04       		.byte	0x4
 1197 027d 26010000 		.4byte	0x126
 1198 0281 03       		.uleb128 0x3
 1199 0282 3B030000 		.4byte	.LASF46
 1200 0286 05       		.byte	0x5
 1201 0287 66       		.byte	0x66
 1202 0288 56020000 		.4byte	0x256
 1203 028c 08       		.uleb128 0x8
 1204 028d 04       		.byte	0x4
 1205 028e 05       		.byte	0x5
 1206 028f 6B       		.byte	0x6b
 1207 0290 A3020000 		.4byte	0x2a3
 1208 0294 06       		.uleb128 0x6
 1209 0295 92050000 		.4byte	.LASF27
 1210 0299 05       		.byte	0x5
 1211 029a 6D       		.byte	0x6d
 1212 029b 7B020000 		.4byte	0x27b
 1213 029f 02       		.byte	0x2
 1214 02a0 23       		.byte	0x23
 1215 02a1 00       		.uleb128 0
 1216 02a2 00       		.byte	0
 1217 02a3 03       		.uleb128 0x3
 1218 02a4 09000000 		.4byte	.LASF47
 1219 02a8 05       		.byte	0x5
 1220 02a9 70       		.byte	0x70
 1221 02aa 8C020000 		.4byte	0x28c
 1222 02ae 03       		.uleb128 0x3
 1223 02af 31000000 		.4byte	.LASF48
 1224 02b3 07       		.byte	0x7
 1225 02b4 E5       		.byte	0xe5
 1226 02b5 B9020000 		.4byte	0x2b9
 1227 02b9 0A       		.uleb128 0xa
 1228 02ba 04       		.byte	0x4
ARM GAS  C:\Users\jenny\AppData\Local\Temp\ccPGDPsp.s 			page 23


 1229 02bb 03       		.uleb128 0x3
 1230 02bc 0C070000 		.4byte	.LASF49
 1231 02c0 07       		.byte	0x7
 1232 02c1 EB       		.byte	0xeb
 1233 02c2 AA000000 		.4byte	0xaa
 1234 02c6 0B       		.uleb128 0xb
 1235 02c7 1E050000 		.4byte	.LASF50
 1236 02cb 64       		.byte	0x64
 1237 02cc 07       		.byte	0x7
 1238 02cd 0C01     		.2byte	0x10c
 1239 02cf 44040000 		.4byte	0x444
 1240 02d3 0C       		.uleb128 0xc
 1241 02d4 73313600 		.ascii	"s16\000"
 1242 02d8 07       		.byte	0x7
 1243 02d9 0E01     		.2byte	0x10e
 1244 02db AE020000 		.4byte	0x2ae
 1245 02df 02       		.byte	0x2
 1246 02e0 23       		.byte	0x23
 1247 02e1 00       		.uleb128 0
 1248 02e2 0C       		.uleb128 0xc
 1249 02e3 73313700 		.ascii	"s17\000"
 1250 02e7 07       		.byte	0x7
 1251 02e8 0F01     		.2byte	0x10f
 1252 02ea AE020000 		.4byte	0x2ae
 1253 02ee 02       		.byte	0x2
 1254 02ef 23       		.byte	0x23
 1255 02f0 04       		.uleb128 0x4
 1256 02f1 0C       		.uleb128 0xc
 1257 02f2 73313800 		.ascii	"s18\000"
 1258 02f6 07       		.byte	0x7
 1259 02f7 1001     		.2byte	0x110
 1260 02f9 AE020000 		.4byte	0x2ae
 1261 02fd 02       		.byte	0x2
 1262 02fe 23       		.byte	0x23
 1263 02ff 08       		.uleb128 0x8
 1264 0300 0C       		.uleb128 0xc
 1265 0301 73313900 		.ascii	"s19\000"
 1266 0305 07       		.byte	0x7
 1267 0306 1101     		.2byte	0x111
 1268 0308 AE020000 		.4byte	0x2ae
 1269 030c 02       		.byte	0x2
 1270 030d 23       		.byte	0x23
 1271 030e 0C       		.uleb128 0xc
 1272 030f 0C       		.uleb128 0xc
 1273 0310 73323000 		.ascii	"s20\000"
 1274 0314 07       		.byte	0x7
 1275 0315 1201     		.2byte	0x112
 1276 0317 AE020000 		.4byte	0x2ae
 1277 031b 02       		.byte	0x2
 1278 031c 23       		.byte	0x23
 1279 031d 10       		.uleb128 0x10
 1280 031e 0C       		.uleb128 0xc
 1281 031f 73323100 		.ascii	"s21\000"
 1282 0323 07       		.byte	0x7
 1283 0324 1301     		.2byte	0x113
 1284 0326 AE020000 		.4byte	0x2ae
 1285 032a 02       		.byte	0x2
ARM GAS  C:\Users\jenny\AppData\Local\Temp\ccPGDPsp.s 			page 24


 1286 032b 23       		.byte	0x23
 1287 032c 14       		.uleb128 0x14
 1288 032d 0C       		.uleb128 0xc
 1289 032e 73323200 		.ascii	"s22\000"
 1290 0332 07       		.byte	0x7
 1291 0333 1401     		.2byte	0x114
 1292 0335 AE020000 		.4byte	0x2ae
 1293 0339 02       		.byte	0x2
 1294 033a 23       		.byte	0x23
 1295 033b 18       		.uleb128 0x18
 1296 033c 0C       		.uleb128 0xc
 1297 033d 73323300 		.ascii	"s23\000"
 1298 0341 07       		.byte	0x7
 1299 0342 1501     		.2byte	0x115
 1300 0344 AE020000 		.4byte	0x2ae
 1301 0348 02       		.byte	0x2
 1302 0349 23       		.byte	0x23
 1303 034a 1C       		.uleb128 0x1c
 1304 034b 0C       		.uleb128 0xc
 1305 034c 73323400 		.ascii	"s24\000"
 1306 0350 07       		.byte	0x7
 1307 0351 1601     		.2byte	0x116
 1308 0353 AE020000 		.4byte	0x2ae
 1309 0357 02       		.byte	0x2
 1310 0358 23       		.byte	0x23
 1311 0359 20       		.uleb128 0x20
 1312 035a 0C       		.uleb128 0xc
 1313 035b 73323500 		.ascii	"s25\000"
 1314 035f 07       		.byte	0x7
 1315 0360 1701     		.2byte	0x117
 1316 0362 AE020000 		.4byte	0x2ae
 1317 0366 02       		.byte	0x2
 1318 0367 23       		.byte	0x23
 1319 0368 24       		.uleb128 0x24
 1320 0369 0C       		.uleb128 0xc
 1321 036a 73323600 		.ascii	"s26\000"
 1322 036e 07       		.byte	0x7
 1323 036f 1801     		.2byte	0x118
 1324 0371 AE020000 		.4byte	0x2ae
 1325 0375 02       		.byte	0x2
 1326 0376 23       		.byte	0x23
 1327 0377 28       		.uleb128 0x28
 1328 0378 0C       		.uleb128 0xc
 1329 0379 73323700 		.ascii	"s27\000"
 1330 037d 07       		.byte	0x7
 1331 037e 1901     		.2byte	0x119
 1332 0380 AE020000 		.4byte	0x2ae
 1333 0384 02       		.byte	0x2
 1334 0385 23       		.byte	0x23
 1335 0386 2C       		.uleb128 0x2c
 1336 0387 0C       		.uleb128 0xc
 1337 0388 73323800 		.ascii	"s28\000"
 1338 038c 07       		.byte	0x7
 1339 038d 1A01     		.2byte	0x11a
 1340 038f AE020000 		.4byte	0x2ae
 1341 0393 02       		.byte	0x2
 1342 0394 23       		.byte	0x23
ARM GAS  C:\Users\jenny\AppData\Local\Temp\ccPGDPsp.s 			page 25


 1343 0395 30       		.uleb128 0x30
 1344 0396 0C       		.uleb128 0xc
 1345 0397 73323900 		.ascii	"s29\000"
 1346 039b 07       		.byte	0x7
 1347 039c 1B01     		.2byte	0x11b
 1348 039e AE020000 		.4byte	0x2ae
 1349 03a2 02       		.byte	0x2
 1350 03a3 23       		.byte	0x23
 1351 03a4 34       		.uleb128 0x34
 1352 03a5 0C       		.uleb128 0xc
 1353 03a6 73333000 		.ascii	"s30\000"
 1354 03aa 07       		.byte	0x7
 1355 03ab 1C01     		.2byte	0x11c
 1356 03ad AE020000 		.4byte	0x2ae
 1357 03b1 02       		.byte	0x2
 1358 03b2 23       		.byte	0x23
 1359 03b3 38       		.uleb128 0x38
 1360 03b4 0C       		.uleb128 0xc
 1361 03b5 73333100 		.ascii	"s31\000"
 1362 03b9 07       		.byte	0x7
 1363 03ba 1D01     		.2byte	0x11d
 1364 03bc AE020000 		.4byte	0x2ae
 1365 03c0 02       		.byte	0x2
 1366 03c1 23       		.byte	0x23
 1367 03c2 3C       		.uleb128 0x3c
 1368 03c3 0C       		.uleb128 0xc
 1369 03c4 723400   		.ascii	"r4\000"
 1370 03c7 07       		.byte	0x7
 1371 03c8 1F01     		.2byte	0x11f
 1372 03ca AE020000 		.4byte	0x2ae
 1373 03ce 02       		.byte	0x2
 1374 03cf 23       		.byte	0x23
 1375 03d0 40       		.uleb128 0x40
 1376 03d1 0C       		.uleb128 0xc
 1377 03d2 723500   		.ascii	"r5\000"
 1378 03d5 07       		.byte	0x7
 1379 03d6 2001     		.2byte	0x120
 1380 03d8 AE020000 		.4byte	0x2ae
 1381 03dc 02       		.byte	0x2
 1382 03dd 23       		.byte	0x23
 1383 03de 44       		.uleb128 0x44
 1384 03df 0C       		.uleb128 0xc
 1385 03e0 723600   		.ascii	"r6\000"
 1386 03e3 07       		.byte	0x7
 1387 03e4 2101     		.2byte	0x121
 1388 03e6 AE020000 		.4byte	0x2ae
 1389 03ea 02       		.byte	0x2
 1390 03eb 23       		.byte	0x23
 1391 03ec 48       		.uleb128 0x48
 1392 03ed 0C       		.uleb128 0xc
 1393 03ee 723700   		.ascii	"r7\000"
 1394 03f1 07       		.byte	0x7
 1395 03f2 2201     		.2byte	0x122
 1396 03f4 AE020000 		.4byte	0x2ae
 1397 03f8 02       		.byte	0x2
 1398 03f9 23       		.byte	0x23
 1399 03fa 4C       		.uleb128 0x4c
ARM GAS  C:\Users\jenny\AppData\Local\Temp\ccPGDPsp.s 			page 26


 1400 03fb 0C       		.uleb128 0xc
 1401 03fc 723800   		.ascii	"r8\000"
 1402 03ff 07       		.byte	0x7
 1403 0400 2301     		.2byte	0x123
 1404 0402 AE020000 		.4byte	0x2ae
 1405 0406 02       		.byte	0x2
 1406 0407 23       		.byte	0x23
 1407 0408 50       		.uleb128 0x50
 1408 0409 0C       		.uleb128 0xc
 1409 040a 723900   		.ascii	"r9\000"
 1410 040d 07       		.byte	0x7
 1411 040e 2401     		.2byte	0x124
 1412 0410 AE020000 		.4byte	0x2ae
 1413 0414 02       		.byte	0x2
 1414 0415 23       		.byte	0x23
 1415 0416 54       		.uleb128 0x54
 1416 0417 0C       		.uleb128 0xc
 1417 0418 72313000 		.ascii	"r10\000"
 1418 041c 07       		.byte	0x7
 1419 041d 2501     		.2byte	0x125
 1420 041f AE020000 		.4byte	0x2ae
 1421 0423 02       		.byte	0x2
 1422 0424 23       		.byte	0x23
 1423 0425 58       		.uleb128 0x58
 1424 0426 0C       		.uleb128 0xc
 1425 0427 72313100 		.ascii	"r11\000"
 1426 042b 07       		.byte	0x7
 1427 042c 2601     		.2byte	0x126
 1428 042e AE020000 		.4byte	0x2ae
 1429 0432 02       		.byte	0x2
 1430 0433 23       		.byte	0x23
 1431 0434 5C       		.uleb128 0x5c
 1432 0435 0C       		.uleb128 0xc
 1433 0436 6C7200   		.ascii	"lr\000"
 1434 0439 07       		.byte	0x7
 1435 043a 2701     		.2byte	0x127
 1436 043c AE020000 		.4byte	0x2ae
 1437 0440 02       		.byte	0x2
 1438 0441 23       		.byte	0x23
 1439 0442 60       		.uleb128 0x60
 1440 0443 00       		.byte	0
 1441 0444 0B       		.uleb128 0xb
 1442 0445 27040000 		.4byte	.LASF51
 1443 0449 04       		.byte	0x4
 1444 044a 07       		.byte	0x7
 1445 044b 3101     		.2byte	0x131
 1446 044d 61040000 		.4byte	0x461
 1447 0451 0C       		.uleb128 0xc
 1448 0452 72313300 		.ascii	"r13\000"
 1449 0456 07       		.byte	0x7
 1450 0457 3201     		.2byte	0x132
 1451 0459 61040000 		.4byte	0x461
 1452 045d 02       		.byte	0x2
 1453 045e 23       		.byte	0x23
 1454 045f 00       		.uleb128 0
 1455 0460 00       		.byte	0
 1456 0461 09       		.uleb128 0x9
ARM GAS  C:\Users\jenny\AppData\Local\Temp\ccPGDPsp.s 			page 27


 1457 0462 04       		.byte	0x4
 1458 0463 C6020000 		.4byte	0x2c6
 1459 0467 04       		.uleb128 0x4
 1460 0468 04       		.byte	0x4
 1461 0469 07       		.byte	0x7
 1462 046a 30060000 		.4byte	.LASF52
 1463 046e 03       		.uleb128 0x3
 1464 046f 00000000 		.4byte	.LASF53
 1465 0473 08       		.byte	0x8
 1466 0474 58       		.byte	0x58
 1467 0475 79040000 		.4byte	0x479
 1468 0479 09       		.uleb128 0x9
 1469 047a 04       		.byte	0x4
 1470 047b 7F040000 		.4byte	0x47f
 1471 047f 0D       		.uleb128 0xd
 1472 0480 01       		.byte	0x1
 1473 0481 8B040000 		.4byte	0x48b
 1474 0485 0E       		.uleb128 0xe
 1475 0486 B9020000 		.4byte	0x2b9
 1476 048a 00       		.byte	0
 1477 048b 03       		.uleb128 0x3
 1478 048c C8050000 		.4byte	.LASF54
 1479 0490 08       		.byte	0x8
 1480 0491 5D       		.byte	0x5d
 1481 0492 96040000 		.4byte	0x496
 1482 0496 05       		.uleb128 0x5
 1483 0497 C8050000 		.4byte	.LASF54
 1484 049b 14       		.byte	0x14
 1485 049c 08       		.byte	0x8
 1486 049d 64       		.byte	0x64
 1487 049e E9040000 		.4byte	0x4e9
 1488 04a2 06       		.uleb128 0x6
 1489 04a3 BE060000 		.4byte	.LASF55
 1490 04a7 08       		.byte	0x8
 1491 04a8 65       		.byte	0x65
 1492 04a9 E9040000 		.4byte	0x4e9
 1493 04ad 02       		.byte	0x2
 1494 04ae 23       		.byte	0x23
 1495 04af 00       		.uleb128 0
 1496 04b0 06       		.uleb128 0x6
 1497 04b1 2F070000 		.4byte	.LASF56
 1498 04b5 08       		.byte	0x8
 1499 04b6 67       		.byte	0x67
 1500 04b7 E9040000 		.4byte	0x4e9
 1501 04bb 02       		.byte	0x2
 1502 04bc 23       		.byte	0x23
 1503 04bd 04       		.uleb128 0x4
 1504 04be 06       		.uleb128 0x6
 1505 04bf 29010000 		.4byte	.LASF57
 1506 04c3 08       		.byte	0x8
 1507 04c4 69       		.byte	0x69
 1508 04c5 10010000 		.4byte	0x110
 1509 04c9 02       		.byte	0x2
 1510 04ca 23       		.byte	0x23
 1511 04cb 08       		.uleb128 0x8
 1512 04cc 06       		.uleb128 0x6
 1513 04cd 27070000 		.4byte	.LASF58
ARM GAS  C:\Users\jenny\AppData\Local\Temp\ccPGDPsp.s 			page 28


 1514 04d1 08       		.byte	0x8
 1515 04d2 6A       		.byte	0x6a
 1516 04d3 6E040000 		.4byte	0x46e
 1517 04d7 02       		.byte	0x2
 1518 04d8 23       		.byte	0x23
 1519 04d9 0C       		.uleb128 0xc
 1520 04da 06       		.uleb128 0x6
 1521 04db 4D010000 		.4byte	.LASF59
 1522 04df 08       		.byte	0x8
 1523 04e0 6C       		.byte	0x6c
 1524 04e1 B9020000 		.4byte	0x2b9
 1525 04e5 02       		.byte	0x2
 1526 04e6 23       		.byte	0x23
 1527 04e7 10       		.uleb128 0x10
 1528 04e8 00       		.byte	0
 1529 04e9 09       		.uleb128 0x9
 1530 04ea 04       		.byte	0x4
 1531 04eb 8B040000 		.4byte	0x48b
 1532 04ef 08       		.uleb128 0x8
 1533 04f0 10       		.byte	0x10
 1534 04f1 08       		.byte	0x8
 1535 04f2 76       		.byte	0x76
 1536 04f3 30050000 		.4byte	0x530
 1537 04f7 06       		.uleb128 0x6
 1538 04f8 BE060000 		.4byte	.LASF55
 1539 04fc 08       		.byte	0x8
 1540 04fd 77       		.byte	0x77
 1541 04fe E9040000 		.4byte	0x4e9
 1542 0502 02       		.byte	0x2
 1543 0503 23       		.byte	0x23
 1544 0504 00       		.uleb128 0
 1545 0505 06       		.uleb128 0x6
 1546 0506 2F070000 		.4byte	.LASF56
 1547 050a 08       		.byte	0x8
 1548 050b 79       		.byte	0x79
 1549 050c E9040000 		.4byte	0x4e9
 1550 0510 02       		.byte	0x2
 1551 0511 23       		.byte	0x23
 1552 0512 04       		.uleb128 0x4
 1553 0513 06       		.uleb128 0x6
 1554 0514 29010000 		.4byte	.LASF57
 1555 0518 08       		.byte	0x8
 1556 0519 7B       		.byte	0x7b
 1557 051a 10010000 		.4byte	0x110
 1558 051e 02       		.byte	0x2
 1559 051f 23       		.byte	0x23
 1560 0520 08       		.uleb128 0x8
 1561 0521 06       		.uleb128 0x6
 1562 0522 5B000000 		.4byte	.LASF60
 1563 0526 08       		.byte	0x8
 1564 0527 7C       		.byte	0x7c
 1565 0528 30050000 		.4byte	0x530
 1566 052c 02       		.byte	0x2
 1567 052d 23       		.byte	0x23
 1568 052e 0C       		.uleb128 0xc
 1569 052f 00       		.byte	0
 1570 0530 0F       		.uleb128 0xf
ARM GAS  C:\Users\jenny\AppData\Local\Temp\ccPGDPsp.s 			page 29


 1571 0531 10010000 		.4byte	0x110
 1572 0535 03       		.uleb128 0x3
 1573 0536 7F030000 		.4byte	.LASF61
 1574 053a 08       		.byte	0x8
 1575 053b 7D       		.byte	0x7d
 1576 053c EF040000 		.4byte	0x4ef
 1577 0540 05       		.uleb128 0x5
 1578 0541 D5050000 		.4byte	.LASF62
 1579 0545 0C       		.byte	0xc
 1580 0546 09       		.byte	0x9
 1581 0547 2C       		.byte	0x2c
 1582 0548 69050000 		.4byte	0x569
 1583 054c 06       		.uleb128 0x6
 1584 054d 53000000 		.4byte	.LASF63
 1585 0551 09       		.byte	0x9
 1586 0552 2D       		.byte	0x2d
 1587 0553 81020000 		.4byte	0x281
 1588 0557 02       		.byte	0x2
 1589 0558 23       		.byte	0x23
 1590 0559 00       		.uleb128 0
 1591 055a 06       		.uleb128 0x6
 1592 055b F8000000 		.4byte	.LASF64
 1593 055f 09       		.byte	0x9
 1594 0560 2F       		.byte	0x2f
 1595 0561 1B010000 		.4byte	0x11b
 1596 0565 02       		.byte	0x2
 1597 0566 23       		.byte	0x23
 1598 0567 08       		.uleb128 0x8
 1599 0568 00       		.byte	0
 1600 0569 03       		.uleb128 0x3
 1601 056a D5050000 		.4byte	.LASF62
 1602 056e 09       		.byte	0x9
 1603 056f 30       		.byte	0x30
 1604 0570 40050000 		.4byte	0x540
 1605 0574 05       		.uleb128 0x5
 1606 0575 F5020000 		.4byte	.LASF65
 1607 0579 10       		.byte	0x10
 1608 057a 0A       		.byte	0xa
 1609 057b 2C       		.byte	0x2c
 1610 057c AB050000 		.4byte	0x5ab
 1611 0580 06       		.uleb128 0x6
 1612 0581 75050000 		.4byte	.LASF66
 1613 0585 0A       		.byte	0xa
 1614 0586 2D       		.byte	0x2d
 1615 0587 81020000 		.4byte	0x281
 1616 058b 02       		.byte	0x2
 1617 058c 23       		.byte	0x23
 1618 058d 00       		.uleb128 0
 1619 058e 06       		.uleb128 0x6
 1620 058f 4B000000 		.4byte	.LASF67
 1621 0593 0A       		.byte	0xa
 1622 0594 2F       		.byte	0x2f
 1623 0595 7B020000 		.4byte	0x27b
 1624 0599 02       		.byte	0x2
 1625 059a 23       		.byte	0x23
 1626 059b 08       		.uleb128 0x8
 1627 059c 06       		.uleb128 0x6
ARM GAS  C:\Users\jenny\AppData\Local\Temp\ccPGDPsp.s 			page 30


 1628 059d E6060000 		.4byte	.LASF68
 1629 05a1 0A       		.byte	0xa
 1630 05a2 31       		.byte	0x31
 1631 05a3 AB050000 		.4byte	0x5ab
 1632 05a7 02       		.byte	0x2
 1633 05a8 23       		.byte	0x23
 1634 05a9 0C       		.uleb128 0xc
 1635 05aa 00       		.byte	0
 1636 05ab 09       		.uleb128 0x9
 1637 05ac 04       		.byte	0x4
 1638 05ad 74050000 		.4byte	0x574
 1639 05b1 03       		.uleb128 0x3
 1640 05b2 F5020000 		.4byte	.LASF65
 1641 05b6 0A       		.byte	0xa
 1642 05b7 33       		.byte	0x33
 1643 05b8 74050000 		.4byte	0x574
 1644 05bc 08       		.uleb128 0x8
 1645 05bd 28       		.byte	0x28
 1646 05be 0B       		.byte	0xb
 1647 05bf 33       		.byte	0x33
 1648 05c0 19060000 		.4byte	0x619
 1649 05c4 06       		.uleb128 0x6
 1650 05c5 53060000 		.4byte	.LASF69
 1651 05c9 0B       		.byte	0xb
 1652 05ca 34       		.byte	0x34
 1653 05cb 19060000 		.4byte	0x619
 1654 05cf 02       		.byte	0x2
 1655 05d0 23       		.byte	0x23
 1656 05d1 00       		.uleb128 0
 1657 05d2 06       		.uleb128 0x6
 1658 05d3 58040000 		.4byte	.LASF70
 1659 05d7 0B       		.byte	0xb
 1660 05d8 36       		.byte	0x36
 1661 05d9 19060000 		.4byte	0x619
 1662 05dd 02       		.byte	0x2
 1663 05de 23       		.byte	0x23
 1664 05df 04       		.uleb128 0x4
 1665 05e0 06       		.uleb128 0x6
 1666 05e1 61050000 		.4byte	.LASF71
 1667 05e5 0B       		.byte	0xb
 1668 05e6 38       		.byte	0x38
 1669 05e7 19060000 		.4byte	0x619
 1670 05eb 02       		.byte	0x2
 1671 05ec 23       		.byte	0x23
 1672 05ed 08       		.uleb128 0x8
 1673 05ee 06       		.uleb128 0x6
 1674 05ef 6F020000 		.4byte	.LASF72
 1675 05f3 0B       		.byte	0xb
 1676 05f4 39       		.byte	0x39
 1677 05f5 19060000 		.4byte	0x619
 1678 05f9 02       		.byte	0x2
 1679 05fa 23       		.byte	0x23
 1680 05fb 0C       		.uleb128 0xc
 1681 05fc 06       		.uleb128 0x6
 1682 05fd AA030000 		.4byte	.LASF73
 1683 0601 0B       		.byte	0xb
 1684 0602 3A       		.byte	0x3a
ARM GAS  C:\Users\jenny\AppData\Local\Temp\ccPGDPsp.s 			page 31


 1685 0603 69050000 		.4byte	0x569
 1686 0607 02       		.byte	0x2
 1687 0608 23       		.byte	0x23
 1688 0609 10       		.uleb128 0x10
 1689 060a 06       		.uleb128 0x6
 1690 060b FB020000 		.4byte	.LASF74
 1691 060f 0B       		.byte	0xb
 1692 0610 3C       		.byte	0x3c
 1693 0611 69050000 		.4byte	0x569
 1694 0615 02       		.byte	0x2
 1695 0616 23       		.byte	0x23
 1696 0617 1C       		.uleb128 0x1c
 1697 0618 00       		.byte	0
 1698 0619 09       		.uleb128 0x9
 1699 061a 04       		.byte	0x4
 1700 061b FA000000 		.4byte	0xfa
 1701 061f 03       		.uleb128 0x3
 1702 0620 E5000000 		.4byte	.LASF75
 1703 0624 0B       		.byte	0xb
 1704 0625 3E       		.byte	0x3e
 1705 0626 BC050000 		.4byte	0x5bc
 1706 062a 03       		.uleb128 0x3
 1707 062b DF050000 		.4byte	.LASF76
 1708 062f 0C       		.byte	0xc
 1709 0630 2C       		.byte	0x2c
 1710 0631 35060000 		.4byte	0x635
 1711 0635 09       		.uleb128 0x9
 1712 0636 04       		.byte	0x4
 1713 0637 3B060000 		.4byte	0x63b
 1714 063b 10       		.uleb128 0x10
 1715 063c 01       		.byte	0x1
 1716 063d B9020000 		.4byte	0x2b9
 1717 0641 4B060000 		.4byte	0x64b
 1718 0645 0E       		.uleb128 0xe
 1719 0646 30000000 		.4byte	0x30
 1720 064a 00       		.byte	0
 1721 064b 03       		.uleb128 0x3
 1722 064c 17070000 		.4byte	.LASF77
 1723 0650 0D       		.byte	0xd
 1724 0651 34       		.byte	0x34
 1725 0652 56060000 		.4byte	0x656
 1726 0656 05       		.uleb128 0x5
 1727 0657 55050000 		.4byte	.LASF78
 1728 065b 20       		.byte	0x20
 1729 065c 0D       		.byte	0xd
 1730 065d 47       		.byte	0x47
 1731 065e 8D060000 		.4byte	0x68d
 1732 0662 06       		.uleb128 0x6
 1733 0663 30030000 		.4byte	.LASF79
 1734 0667 0D       		.byte	0xd
 1735 0668 48       		.byte	0x48
 1736 0669 2A060000 		.4byte	0x62a
 1737 066d 02       		.byte	0x2
 1738 066e 23       		.byte	0x23
 1739 066f 00       		.uleb128 0
 1740 0670 06       		.uleb128 0x6
 1741 0671 AD000000 		.4byte	.LASF80
ARM GAS  C:\Users\jenny\AppData\Local\Temp\ccPGDPsp.s 			page 32


 1742 0675 0D       		.byte	0xd
 1743 0676 4A       		.byte	0x4a
 1744 0677 AC060000 		.4byte	0x6ac
 1745 067b 02       		.byte	0x2
 1746 067c 23       		.byte	0x23
 1747 067d 08       		.uleb128 0x8
 1748 067e 06       		.uleb128 0x6
 1749 067f E2030000 		.4byte	.LASF81
 1750 0683 0D       		.byte	0xd
 1751 0684 4C       		.byte	0x4c
 1752 0685 B1050000 		.4byte	0x5b1
 1753 0689 02       		.byte	0x2
 1754 068a 23       		.byte	0x23
 1755 068b 10       		.uleb128 0x10
 1756 068c 00       		.byte	0
 1757 068d 11       		.uleb128 0x11
 1758 068e 04       		.byte	0x4
 1759 068f 0D       		.byte	0xd
 1760 0690 3C       		.byte	0x3c
 1761 0691 AC060000 		.4byte	0x6ac
 1762 0695 12       		.uleb128 0x12
 1763 0696 93000000 		.4byte	.LASF82
 1764 069a 0D       		.byte	0xd
 1765 069b 3D       		.byte	0x3d
 1766 069c CD060000 		.4byte	0x6cd
 1767 06a0 12       		.uleb128 0x12
 1768 06a1 B4000000 		.4byte	.LASF83
 1769 06a5 0D       		.byte	0xd
 1770 06a6 3E       		.byte	0x3e
 1771 06a7 D3060000 		.4byte	0x6d3
 1772 06ab 00       		.byte	0
 1773 06ac 13       		.uleb128 0x13
 1774 06ad 4F020000 		.4byte	.LASF172
 1775 06b1 08       		.byte	0x8
 1776 06b2 0D       		.byte	0xd
 1777 06b3 39       		.byte	0x39
 1778 06b4 CD060000 		.4byte	0x6cd
 1779 06b8 12       		.uleb128 0x12
 1780 06b9 37070000 		.4byte	.LASF84
 1781 06bd 0D       		.byte	0xd
 1782 06be 3A       		.byte	0x3a
 1783 06bf BB020000 		.4byte	0x2bb
 1784 06c3 14       		.uleb128 0x14
 1785 06c4 6800     		.ascii	"h\000"
 1786 06c6 0D       		.byte	0xd
 1787 06c7 41       		.byte	0x41
 1788 06c8 D9060000 		.4byte	0x6d9
 1789 06cc 00       		.byte	0
 1790 06cd 09       		.uleb128 0x9
 1791 06ce 04       		.byte	0x4
 1792 06cf AC060000 		.4byte	0x6ac
 1793 06d3 09       		.uleb128 0x9
 1794 06d4 04       		.byte	0x4
 1795 06d5 4B060000 		.4byte	0x64b
 1796 06d9 08       		.uleb128 0x8
 1797 06da 08       		.byte	0x8
 1798 06db 0D       		.byte	0xd
ARM GAS  C:\Users\jenny\AppData\Local\Temp\ccPGDPsp.s 			page 33


 1799 06dc 3B       		.byte	0x3b
 1800 06dd FC060000 		.4byte	0x6fc
 1801 06e1 07       		.uleb128 0x7
 1802 06e2 7500     		.ascii	"u\000"
 1803 06e4 0D       		.byte	0xd
 1804 06e5 3F       		.byte	0x3f
 1805 06e6 8D060000 		.4byte	0x68d
 1806 06ea 02       		.byte	0x2
 1807 06eb 23       		.byte	0x23
 1808 06ec 00       		.uleb128 0
 1809 06ed 06       		.uleb128 0x6
 1810 06ee 53040000 		.4byte	.LASF85
 1811 06f2 0D       		.byte	0xd
 1812 06f3 40       		.byte	0x40
 1813 06f4 30000000 		.4byte	0x30
 1814 06f8 02       		.byte	0x2
 1815 06f9 23       		.byte	0x23
 1816 06fa 04       		.uleb128 0x4
 1817 06fb 00       		.byte	0
 1818 06fc 11       		.uleb128 0x11
 1819 06fd 04       		.byte	0x4
 1820 06fe 06       		.byte	0x6
 1821 06ff 96       		.byte	0x96
 1822 0700 31070000 		.4byte	0x731
 1823 0704 12       		.uleb128 0x12
 1824 0705 62020000 		.4byte	.LASF86
 1825 0709 06       		.byte	0x6
 1826 070a 9D       		.byte	0x9d
 1827 070b FA000000 		.4byte	0xfa
 1828 070f 12       		.uleb128 0x12
 1829 0710 45070000 		.4byte	.LASF87
 1830 0714 06       		.byte	0x6
 1831 0715 A4       		.byte	0xa4
 1832 0716 FA000000 		.4byte	0xfa
 1833 071a 12       		.uleb128 0x12
 1834 071b B9000000 		.4byte	.LASF88
 1835 071f 06       		.byte	0x6
 1836 0720 AB       		.byte	0xab
 1837 0721 B9020000 		.4byte	0x2b9
 1838 0725 12       		.uleb128 0x12
 1839 0726 DE000000 		.4byte	.LASF89
 1840 072a 06       		.byte	0x6
 1841 072b B2       		.byte	0xb2
 1842 072c 05010000 		.4byte	0x105
 1843 0730 00       		.byte	0
 1844 0731 09       		.uleb128 0x9
 1845 0732 04       		.byte	0x4
 1846 0733 37070000 		.4byte	0x737
 1847 0737 15       		.uleb128 0x15
 1848 0738 3C070000 		.4byte	0x73c
 1849 073c 04       		.uleb128 0x4
 1850 073d 01       		.byte	0x1
 1851 073e 08       		.byte	0x8
 1852 073f 48030000 		.4byte	.LASF90
 1853 0743 09       		.uleb128 0x9
 1854 0744 04       		.byte	0x4
 1855 0745 B1050000 		.4byte	0x5b1
ARM GAS  C:\Users\jenny\AppData\Local\Temp\ccPGDPsp.s 			page 34


 1856 0749 03       		.uleb128 0x3
 1857 074a 8C010000 		.4byte	.LASF91
 1858 074e 06       		.byte	0x6
 1859 074f E5       		.byte	0xe5
 1860 0750 54070000 		.4byte	0x754
 1861 0754 09       		.uleb128 0x9
 1862 0755 04       		.byte	0x4
 1863 0756 5A070000 		.4byte	0x75a
 1864 075a 10       		.uleb128 0x10
 1865 075b 01       		.byte	0x1
 1866 075c FA000000 		.4byte	0xfa
 1867 0760 6A070000 		.4byte	0x76a
 1868 0764 0E       		.uleb128 0xe
 1869 0765 B9020000 		.4byte	0x2b9
 1870 0769 00       		.byte	0
 1871 076a 03       		.uleb128 0x3
 1872 076b 2F040000 		.4byte	.LASF92
 1873 076f 0E       		.byte	0xe
 1874 0770 38       		.byte	0x38
 1875 0771 54000000 		.4byte	0x54
 1876 0775 03       		.uleb128 0x3
 1877 0776 82020000 		.4byte	.LASF93
 1878 077a 0E       		.byte	0xe
 1879 077b 39       		.byte	0x39
 1880 077c 42000000 		.4byte	0x42
 1881 0780 03       		.uleb128 0x3
 1882 0781 25050000 		.4byte	.LASF94
 1883 0785 0E       		.byte	0xe
 1884 0786 3A       		.byte	0x3a
 1885 0787 6D000000 		.4byte	0x6d
 1886 078b 03       		.uleb128 0x3
 1887 078c 45050000 		.4byte	.LASF95
 1888 0790 0E       		.byte	0xe
 1889 0791 3C       		.byte	0x3c
 1890 0792 91000000 		.4byte	0x91
 1891 0796 03       		.uleb128 0x3
 1892 0797 4D030000 		.4byte	.LASF96
 1893 079b 0F       		.byte	0xf
 1894 079c 4C       		.byte	0x4c
 1895 079d 80070000 		.4byte	0x780
 1896 07a1 03       		.uleb128 0x3
 1897 07a2 A7000000 		.4byte	.LASF97
 1898 07a6 10       		.byte	0x10
 1899 07a7 2F       		.byte	0x2f
 1900 07a8 75070000 		.4byte	0x775
 1901 07ac 03       		.uleb128 0x3
 1902 07ad 78020000 		.4byte	.LASF98
 1903 07b1 11       		.byte	0x11
 1904 07b2 38       		.byte	0x38
 1905 07b3 B7070000 		.4byte	0x7b7
 1906 07b7 09       		.uleb128 0x9
 1907 07b8 04       		.byte	0x4
 1908 07b9 69050000 		.4byte	0x569
 1909 07bd 03       		.uleb128 0x3
 1910 07be 1F000000 		.4byte	.LASF99
 1911 07c2 11       		.byte	0x11
 1912 07c3 39       		.byte	0x39
ARM GAS  C:\Users\jenny\AppData\Local\Temp\ccPGDPsp.s 			page 35


 1913 07c4 C8070000 		.4byte	0x7c8
 1914 07c8 09       		.uleb128 0x9
 1915 07c9 04       		.byte	0x4
 1916 07ca 1F060000 		.4byte	0x61f
 1917 07ce 03       		.uleb128 0x3
 1918 07cf 7F010000 		.4byte	.LASF100
 1919 07d3 11       		.byte	0x11
 1920 07d4 3A       		.byte	0x3a
 1921 07d5 7B020000 		.4byte	0x27b
 1922 07d9 03       		.uleb128 0x3
 1923 07da 64030000 		.4byte	.LASF101
 1924 07de 11       		.byte	0x11
 1925 07df 3B       		.byte	0x3b
 1926 07e0 29000000 		.4byte	0x29
 1927 07e4 03       		.uleb128 0x3
 1928 07e5 C9010000 		.4byte	.LASF102
 1929 07e9 12       		.byte	0x12
 1930 07ea 59       		.byte	0x59
 1931 07eb 79040000 		.4byte	0x479
 1932 07ef 05       		.uleb128 0x5
 1933 07f0 58030000 		.4byte	.LASF103
 1934 07f4 18       		.byte	0x18
 1935 07f5 13       		.byte	0x13
 1936 07f6 3A       		.byte	0x3a
 1937 07f7 A3080000 		.4byte	0x8a3
 1938 07fb 06       		.uleb128 0x6
 1939 07fc 22070000 		.4byte	.LASF104
 1940 0800 13       		.byte	0x13
 1941 0801 3B       		.byte	0x3b
 1942 0802 80070000 		.4byte	0x780
 1943 0806 02       		.byte	0x2
 1944 0807 23       		.byte	0x23
 1945 0808 00       		.uleb128 0
 1946 0809 06       		.uleb128 0x6
 1947 080a E1060000 		.4byte	.LASF105
 1948 080e 13       		.byte	0x13
 1949 080f 3C       		.byte	0x3c
 1950 0810 80070000 		.4byte	0x780
 1951 0814 02       		.byte	0x2
 1952 0815 23       		.byte	0x23
 1953 0816 02       		.uleb128 0x2
 1954 0817 07       		.uleb128 0x7
 1955 0818 667700   		.ascii	"fw\000"
 1956 081b 13       		.byte	0x13
 1957 081c 3D       		.byte	0x3d
 1958 081d 80070000 		.4byte	0x780
 1959 0821 02       		.byte	0x2
 1960 0822 23       		.byte	0x23
 1961 0823 04       		.uleb128 0x4
 1962 0824 06       		.uleb128 0x6
 1963 0825 B9060000 		.4byte	.LASF106
 1964 0829 13       		.byte	0x13
 1965 082a 3E       		.byte	0x3e
 1966 082b 80070000 		.4byte	0x780
 1967 082f 02       		.byte	0x2
 1968 0830 23       		.byte	0x23
 1969 0831 06       		.uleb128 0x6
ARM GAS  C:\Users\jenny\AppData\Local\Temp\ccPGDPsp.s 			page 36


 1970 0832 06       		.uleb128 0x6
 1971 0833 6E040000 		.4byte	.LASF107
 1972 0837 13       		.byte	0x13
 1973 0838 3F       		.byte	0x3f
 1974 0839 80070000 		.4byte	0x780
 1975 083d 02       		.byte	0x2
 1976 083e 23       		.byte	0x23
 1977 083f 08       		.uleb128 0x8
 1978 0840 06       		.uleb128 0x6
 1979 0841 33050000 		.4byte	.LASF108
 1980 0845 13       		.byte	0x13
 1981 0846 40       		.byte	0x40
 1982 0847 80070000 		.4byte	0x780
 1983 084b 02       		.byte	0x2
 1984 084c 23       		.byte	0x23
 1985 084d 0A       		.uleb128 0xa
 1986 084e 06       		.uleb128 0x6
 1987 084f 7F040000 		.4byte	.LASF109
 1988 0853 13       		.byte	0x13
 1989 0854 41       		.byte	0x41
 1990 0855 80070000 		.4byte	0x780
 1991 0859 02       		.byte	0x2
 1992 085a 23       		.byte	0x23
 1993 085b 0C       		.uleb128 0xc
 1994 085c 06       		.uleb128 0x6
 1995 085d 86050000 		.4byte	.LASF110
 1996 0861 13       		.byte	0x13
 1997 0862 42       		.byte	0x42
 1998 0863 80070000 		.4byte	0x780
 1999 0867 02       		.byte	0x2
 2000 0868 23       		.byte	0x23
 2001 0869 0E       		.uleb128 0xe
 2002 086a 06       		.uleb128 0x6
 2003 086b 6C060000 		.4byte	.LASF111
 2004 086f 13       		.byte	0x13
 2005 0870 43       		.byte	0x43
 2006 0871 80070000 		.4byte	0x780
 2007 0875 02       		.byte	0x2
 2008 0876 23       		.byte	0x23
 2009 0877 10       		.uleb128 0x10
 2010 0878 06       		.uleb128 0x6
 2011 0879 54010000 		.4byte	.LASF112
 2012 087d 13       		.byte	0x13
 2013 087e 44       		.byte	0x44
 2014 087f 80070000 		.4byte	0x780
 2015 0883 02       		.byte	0x2
 2016 0884 23       		.byte	0x23
 2017 0885 12       		.uleb128 0x12
 2018 0886 07       		.uleb128 0x7
 2019 0887 65727200 		.ascii	"err\000"
 2020 088b 13       		.byte	0x13
 2021 088c 45       		.byte	0x45
 2022 088d 80070000 		.4byte	0x780
 2023 0891 02       		.byte	0x2
 2024 0892 23       		.byte	0x23
 2025 0893 14       		.uleb128 0x14
 2026 0894 06       		.uleb128 0x6
ARM GAS  C:\Users\jenny\AppData\Local\Temp\ccPGDPsp.s 			page 37


 2027 0895 BF050000 		.4byte	.LASF113
 2028 0899 13       		.byte	0x13
 2029 089a 46       		.byte	0x46
 2030 089b 80070000 		.4byte	0x780
 2031 089f 02       		.byte	0x2
 2032 08a0 23       		.byte	0x23
 2033 08a1 16       		.uleb128 0x16
 2034 08a2 00       		.byte	0
 2035 08a3 05       		.uleb128 0x5
 2036 08a4 D4000000 		.4byte	.LASF114
 2037 08a8 0A       		.byte	0xa
 2038 08a9 13       		.byte	0x13
 2039 08aa 5A       		.byte	0x5a
 2040 08ab F6080000 		.4byte	0x8f6
 2041 08af 06       		.uleb128 0x6
 2042 08b0 8C050000 		.4byte	.LASF115
 2043 08b4 13       		.byte	0x13
 2044 08b5 5E       		.byte	0x5e
 2045 08b6 96070000 		.4byte	0x796
 2046 08ba 02       		.byte	0x2
 2047 08bb 23       		.byte	0x23
 2048 08bc 00       		.uleb128 0
 2049 08bd 06       		.uleb128 0x6
 2050 08be F4010000 		.4byte	.LASF116
 2051 08c2 13       		.byte	0x13
 2052 08c3 5F       		.byte	0x5f
 2053 08c4 96070000 		.4byte	0x796
 2054 08c8 02       		.byte	0x2
 2055 08c9 23       		.byte	0x23
 2056 08ca 02       		.uleb128 0x2
 2057 08cb 07       		.uleb128 0x7
 2058 08cc 6D617800 		.ascii	"max\000"
 2059 08d0 13       		.byte	0x13
 2060 08d1 60       		.byte	0x60
 2061 08d2 96070000 		.4byte	0x796
 2062 08d6 02       		.byte	0x2
 2063 08d7 23       		.byte	0x23
 2064 08d8 04       		.uleb128 0x4
 2065 08d9 07       		.uleb128 0x7
 2066 08da 65727200 		.ascii	"err\000"
 2067 08de 13       		.byte	0x13
 2068 08df 61       		.byte	0x61
 2069 08e0 80070000 		.4byte	0x780
 2070 08e4 02       		.byte	0x2
 2071 08e5 23       		.byte	0x23
 2072 08e6 06       		.uleb128 0x6
 2073 08e7 06       		.uleb128 0x6
 2074 08e8 77010000 		.4byte	.LASF117
 2075 08ec 13       		.byte	0x13
 2076 08ed 62       		.byte	0x62
 2077 08ee 80070000 		.4byte	0x780
 2078 08f2 02       		.byte	0x2
 2079 08f3 23       		.byte	0x23
 2080 08f4 08       		.uleb128 0x8
 2081 08f5 00       		.byte	0
 2082 08f6 05       		.uleb128 0x5
 2083 08f7 FE000000 		.4byte	.LASF118
ARM GAS  C:\Users\jenny\AppData\Local\Temp\ccPGDPsp.s 			page 38


 2084 08fb 06       		.byte	0x6
 2085 08fc 13       		.byte	0x13
 2086 08fd 65       		.byte	0x65
 2087 08fe 2D090000 		.4byte	0x92d
 2088 0902 06       		.uleb128 0x6
 2089 0903 F4010000 		.4byte	.LASF116
 2090 0907 13       		.byte	0x13
 2091 0908 66       		.byte	0x66
 2092 0909 80070000 		.4byte	0x780
 2093 090d 02       		.byte	0x2
 2094 090e 23       		.byte	0x23
 2095 090f 00       		.uleb128 0
 2096 0910 07       		.uleb128 0x7
 2097 0911 6D617800 		.ascii	"max\000"
 2098 0915 13       		.byte	0x13
 2099 0916 67       		.byte	0x67
 2100 0917 80070000 		.4byte	0x780
 2101 091b 02       		.byte	0x2
 2102 091c 23       		.byte	0x23
 2103 091d 02       		.uleb128 0x2
 2104 091e 07       		.uleb128 0x7
 2105 091f 65727200 		.ascii	"err\000"
 2106 0923 13       		.byte	0x13
 2107 0924 68       		.byte	0x68
 2108 0925 80070000 		.4byte	0x780
 2109 0929 02       		.byte	0x2
 2110 092a 23       		.byte	0x23
 2111 092b 04       		.uleb128 0x4
 2112 092c 00       		.byte	0
 2113 092d 05       		.uleb128 0x5
 2114 092e 82060000 		.4byte	.LASF119
 2115 0932 12       		.byte	0x12
 2116 0933 13       		.byte	0x13
 2117 0934 6B       		.byte	0x6b
 2118 0935 64090000 		.4byte	0x964
 2119 0939 07       		.uleb128 0x7
 2120 093a 73656D00 		.ascii	"sem\000"
 2121 093e 13       		.byte	0x13
 2122 093f 6C       		.byte	0x6c
 2123 0940 F6080000 		.4byte	0x8f6
 2124 0944 02       		.byte	0x2
 2125 0945 23       		.byte	0x23
 2126 0946 00       		.uleb128 0
 2127 0947 06       		.uleb128 0x6
 2128 0948 5B010000 		.4byte	.LASF120
 2129 094c 13       		.byte	0x13
 2130 094d 6D       		.byte	0x6d
 2131 094e F6080000 		.4byte	0x8f6
 2132 0952 02       		.byte	0x2
 2133 0953 23       		.byte	0x23
 2134 0954 06       		.uleb128 0x6
 2135 0955 06       		.uleb128 0x6
 2136 0956 A8050000 		.4byte	.LASF121
 2137 095a 13       		.byte	0x13
 2138 095b 6E       		.byte	0x6e
 2139 095c F6080000 		.4byte	0x8f6
 2140 0960 02       		.byte	0x2
ARM GAS  C:\Users\jenny\AppData\Local\Temp\ccPGDPsp.s 			page 39


 2141 0961 23       		.byte	0x23
 2142 0962 0C       		.uleb128 0xc
 2143 0963 00       		.byte	0
 2144 0964 16       		.uleb128 0x16
 2145 0965 F9010000 		.4byte	.LASF122
 2146 0969 5001     		.2byte	0x150
 2147 096b 13       		.byte	0x13
 2148 096c 71       		.byte	0x71
 2149 096d 010A0000 		.4byte	0xa01
 2150 0971 06       		.uleb128 0x6
 2151 0972 A1060000 		.4byte	.LASF123
 2152 0976 13       		.byte	0x13
 2153 0977 73       		.byte	0x73
 2154 0978 EF070000 		.4byte	0x7ef
 2155 097c 02       		.byte	0x2
 2156 097d 23       		.byte	0x23
 2157 097e 00       		.uleb128 0
 2158 097f 06       		.uleb128 0x6
 2159 0980 94010000 		.4byte	.LASF124
 2160 0984 13       		.byte	0x13
 2161 0985 76       		.byte	0x76
 2162 0986 EF070000 		.4byte	0x7ef
 2163 098a 02       		.byte	0x2
 2164 098b 23       		.byte	0x23
 2165 098c 18       		.uleb128 0x18
 2166 098d 06       		.uleb128 0x6
 2167 098e 61010000 		.4byte	.LASF125
 2168 0992 13       		.byte	0x13
 2169 0993 79       		.byte	0x79
 2170 0994 EF070000 		.4byte	0x7ef
 2171 0998 02       		.byte	0x2
 2172 0999 23       		.byte	0x23
 2173 099a 30       		.uleb128 0x30
 2174 099b 07       		.uleb128 0x7
 2175 099c 697000   		.ascii	"ip\000"
 2176 099f 13       		.byte	0x13
 2177 09a0 7C       		.byte	0x7c
 2178 09a1 EF070000 		.4byte	0x7ef
 2179 09a5 02       		.byte	0x2
 2180 09a6 23       		.byte	0x23
 2181 09a7 48       		.uleb128 0x48
 2182 09a8 06       		.uleb128 0x6
 2183 09a9 4E070000 		.4byte	.LASF126
 2184 09ad 13       		.byte	0x13
 2185 09ae 7F       		.byte	0x7f
 2186 09af EF070000 		.4byte	0x7ef
 2187 09b3 02       		.byte	0x2
 2188 09b4 23       		.byte	0x23
 2189 09b5 60       		.uleb128 0x60
 2190 09b6 07       		.uleb128 0x7
 2191 09b7 75647000 		.ascii	"udp\000"
 2192 09bb 13       		.byte	0x13
 2193 09bc 85       		.byte	0x85
 2194 09bd EF070000 		.4byte	0x7ef
 2195 09c1 02       		.byte	0x2
 2196 09c2 23       		.byte	0x23
 2197 09c3 78       		.uleb128 0x78
ARM GAS  C:\Users\jenny\AppData\Local\Temp\ccPGDPsp.s 			page 40


 2198 09c4 07       		.uleb128 0x7
 2199 09c5 74637000 		.ascii	"tcp\000"
 2200 09c9 13       		.byte	0x13
 2201 09ca 88       		.byte	0x88
 2202 09cb EF070000 		.4byte	0x7ef
 2203 09cf 03       		.byte	0x3
 2204 09d0 23       		.byte	0x23
 2205 09d1 9001     		.uleb128 0x90
 2206 09d3 07       		.uleb128 0x7
 2207 09d4 6D656D00 		.ascii	"mem\000"
 2208 09d8 13       		.byte	0x13
 2209 09d9 8B       		.byte	0x8b
 2210 09da A3080000 		.4byte	0x8a3
 2211 09de 03       		.byte	0x3
 2212 09df 23       		.byte	0x23
 2213 09e0 A801     		.uleb128 0xa8
 2214 09e2 06       		.uleb128 0x6
 2215 09e3 24060000 		.4byte	.LASF127
 2216 09e7 13       		.byte	0x13
 2217 09e8 8E       		.byte	0x8e
 2218 09e9 010A0000 		.4byte	0xa01
 2219 09ed 03       		.byte	0x3
 2220 09ee 23       		.byte	0x23
 2221 09ef B201     		.uleb128 0xb2
 2222 09f1 07       		.uleb128 0x7
 2223 09f2 73797300 		.ascii	"sys\000"
 2224 09f6 13       		.byte	0x13
 2225 09f7 91       		.byte	0x91
 2226 09f8 2D090000 		.4byte	0x92d
 2227 09fc 03       		.byte	0x3
 2228 09fd 23       		.byte	0x23
 2229 09fe BE02     		.uleb128 0x13e
 2230 0a00 00       		.byte	0
 2231 0a01 17       		.uleb128 0x17
 2232 0a02 A3080000 		.4byte	0x8a3
 2233 0a06 110A0000 		.4byte	0xa11
 2234 0a0a 18       		.uleb128 0x18
 2235 0a0b 67040000 		.4byte	0x467
 2236 0a0f 0D       		.byte	0xd
 2237 0a10 00       		.byte	0
 2238 0a11 19       		.uleb128 0x19
 2239 0a12 01       		.byte	0x1
 2240 0a13 1B030000 		.4byte	.LASF173
 2241 0a17 01       		.byte	0x1
 2242 0a18 3F       		.byte	0x3f
 2243 0a19 01       		.byte	0x1
 2244 0a1a 00000000 		.4byte	.LFB7
 2245 0a1e 02000000 		.4byte	.LFE7
 2246 0a22 02       		.byte	0x2
 2247 0a23 7D       		.byte	0x7d
 2248 0a24 00       		.sleb128 0
 2249 0a25 01       		.byte	0x1
 2250 0a26 1A       		.uleb128 0x1a
 2251 0a27 01       		.byte	0x1
 2252 0a28 0A040000 		.4byte	.LASF132
 2253 0a2c 01       		.byte	0x1
 2254 0a2d 43       		.byte	0x43
ARM GAS  C:\Users\jenny\AppData\Local\Temp\ccPGDPsp.s 			page 41


 2255 0a2e 01       		.byte	0x1
 2256 0a2f A1070000 		.4byte	0x7a1
 2257 0a33 00000000 		.4byte	.LFB8
 2258 0a37 4C000000 		.4byte	.LFE8
 2259 0a3b 00000000 		.4byte	.LLST0
 2260 0a3f 01       		.byte	0x1
 2261 0a40 8B0A0000 		.4byte	0xa8b
 2262 0a44 1B       		.uleb128 0x1b
 2263 0a45 73656D00 		.ascii	"sem\000"
 2264 0a49 01       		.byte	0x1
 2265 0a4a 43       		.byte	0x43
 2266 0a4b 8B0A0000 		.4byte	0xa8b
 2267 0a4f 20000000 		.4byte	.LLST1
 2268 0a53 1C       		.uleb128 0x1c
 2269 0a54 71010000 		.4byte	.LASF128
 2270 0a58 01       		.byte	0x1
 2271 0a59 43       		.byte	0x43
 2272 0a5a 6A070000 		.4byte	0x76a
 2273 0a5e 3E000000 		.4byte	.LLST2
 2274 0a62 1D       		.uleb128 0x1d
 2275 0a63 0E000000 		.4byte	.LVL3
 2276 0a67 63100000 		.4byte	0x1063
 2277 0a6b 7A0A0000 		.4byte	0xa7a
 2278 0a6f 1E       		.uleb128 0x1e
 2279 0a70 01       		.byte	0x1
 2280 0a71 51       		.byte	0x51
 2281 0a72 01       		.byte	0x1
 2282 0a73 3C       		.byte	0x3c
 2283 0a74 1E       		.uleb128 0x1e
 2284 0a75 01       		.byte	0x1
 2285 0a76 50       		.byte	0x50
 2286 0a77 01       		.byte	0x1
 2287 0a78 30       		.byte	0x30
 2288 0a79 00       		.byte	0
 2289 0a7a 1F       		.uleb128 0x1f
 2290 0a7b 18000000 		.4byte	.LVL4
 2291 0a7f 80100000 		.4byte	0x1080
 2292 0a83 1E       		.uleb128 0x1e
 2293 0a84 01       		.byte	0x1
 2294 0a85 51       		.byte	0x51
 2295 0a86 02       		.byte	0x2
 2296 0a87 75       		.byte	0x75
 2297 0a88 00       		.sleb128 0
 2298 0a89 00       		.byte	0
 2299 0a8a 00       		.byte	0
 2300 0a8b 09       		.uleb128 0x9
 2301 0a8c 04       		.byte	0x4
 2302 0a8d AC070000 		.4byte	0x7ac
 2303 0a91 20       		.uleb128 0x20
 2304 0a92 01       		.byte	0x1
 2305 0a93 17060000 		.4byte	.LASF129
 2306 0a97 01       		.byte	0x1
 2307 0a98 51       		.byte	0x51
 2308 0a99 01       		.byte	0x1
 2309 0a9a 00000000 		.4byte	.LFB9
 2310 0a9e 22000000 		.4byte	.LFE9
 2311 0aa2 5F000000 		.4byte	.LLST3
ARM GAS  C:\Users\jenny\AppData\Local\Temp\ccPGDPsp.s 			page 42


 2312 0aa6 01       		.byte	0x1
 2313 0aa7 C40A0000 		.4byte	0xac4
 2314 0aab 1B       		.uleb128 0x1b
 2315 0aac 73656D00 		.ascii	"sem\000"
 2316 0ab0 01       		.byte	0x1
 2317 0ab1 51       		.byte	0x51
 2318 0ab2 8B0A0000 		.4byte	0xa8b
 2319 0ab6 7F000000 		.4byte	.LLST4
 2320 0aba 21       		.uleb128 0x21
 2321 0abb 0A000000 		.4byte	.LVL7
 2322 0abf 99100000 		.4byte	0x1099
 2323 0ac3 00       		.byte	0
 2324 0ac4 22       		.uleb128 0x22
 2325 0ac5 01       		.byte	0x1
 2326 0ac6 E5010000 		.4byte	.LASF130
 2327 0aca 01       		.byte	0x1
 2328 0acb 58       		.byte	0x58
 2329 0acc 01       		.byte	0x1
 2330 0acd 00000000 		.4byte	.LFB10
 2331 0ad1 06000000 		.4byte	.LFE10
 2332 0ad5 02       		.byte	0x2
 2333 0ad6 7D       		.byte	0x7d
 2334 0ad7 00       		.sleb128 0
 2335 0ad8 01       		.byte	0x1
 2336 0ad9 F70A0000 		.4byte	0xaf7
 2337 0add 1B       		.uleb128 0x1b
 2338 0ade 73656D00 		.ascii	"sem\000"
 2339 0ae2 01       		.byte	0x1
 2340 0ae3 58       		.byte	0x58
 2341 0ae4 8B0A0000 		.4byte	0xa8b
 2342 0ae8 9D000000 		.4byte	.LLST5
 2343 0aec 23       		.uleb128 0x23
 2344 0aed 06000000 		.4byte	.LVL10
 2345 0af1 01       		.byte	0x1
 2346 0af2 AD100000 		.4byte	0x10ad
 2347 0af6 00       		.byte	0
 2348 0af7 20       		.uleb128 0x20
 2349 0af8 01       		.byte	0x1
 2350 0af9 9B010000 		.4byte	.LASF131
 2351 0afd 01       		.byte	0x1
 2352 0afe 5F       		.byte	0x5f
 2353 0aff 01       		.byte	0x1
 2354 0b00 00000000 		.4byte	.LFB11
 2355 0b04 10000000 		.4byte	.LFE11
 2356 0b08 BE000000 		.4byte	.LLST6
 2357 0b0c 01       		.byte	0x1
 2358 0b0d 340B0000 		.4byte	0xb34
 2359 0b11 1B       		.uleb128 0x1b
 2360 0b12 73656D00 		.ascii	"sem\000"
 2361 0b16 01       		.byte	0x1
 2362 0b17 5F       		.byte	0x5f
 2363 0b18 8B0A0000 		.4byte	0xa8b
 2364 0b1c DE000000 		.4byte	.LLST7
 2365 0b20 21       		.uleb128 0x21
 2366 0b21 08000000 		.4byte	.LVL13
 2367 0b25 C1100000 		.4byte	0x10c1
 2368 0b29 23       		.uleb128 0x23
ARM GAS  C:\Users\jenny\AppData\Local\Temp\ccPGDPsp.s 			page 43


 2369 0b2a 10000000 		.4byte	.LVL14
 2370 0b2e 01       		.byte	0x1
 2371 0b2f D5100000 		.4byte	0x10d5
 2372 0b33 00       		.byte	0
 2373 0b34 1A       		.uleb128 0x1a
 2374 0b35 01       		.byte	0x1
 2375 0b36 AD050000 		.4byte	.LASF133
 2376 0b3a 01       		.byte	0x1
 2377 0b3b 65       		.byte	0x65
 2378 0b3c 01       		.byte	0x1
 2379 0b3d 8B070000 		.4byte	0x78b
 2380 0b41 00000000 		.4byte	.LFB12
 2381 0b45 34000000 		.4byte	.LFE12
 2382 0b49 FF000000 		.4byte	.LLST8
 2383 0b4d 01       		.byte	0x1
 2384 0b4e E60B0000 		.4byte	0xbe6
 2385 0b52 1B       		.uleb128 0x1b
 2386 0b53 73656D00 		.ascii	"sem\000"
 2387 0b57 01       		.byte	0x1
 2388 0b58 65       		.byte	0x65
 2389 0b59 8B0A0000 		.4byte	0xa8b
 2390 0b5d 1F010000 		.4byte	.LLST9
 2391 0b61 1C       		.uleb128 0x1c
 2392 0b62 2B050000 		.4byte	.LASF134
 2393 0b66 01       		.byte	0x1
 2394 0b67 65       		.byte	0x65
 2395 0b68 8B070000 		.4byte	0x78b
 2396 0b6c 40010000 		.4byte	.LLST10
 2397 0b70 24       		.uleb128 0x24
 2398 0b71 D8010000 		.4byte	.LASF135
 2399 0b75 01       		.byte	0x1
 2400 0b76 66       		.byte	0x66
 2401 0b77 10010000 		.4byte	0x110
 2402 0b7b 61010000 		.4byte	.LLST11
 2403 0b7f 25       		.uleb128 0x25
 2404 0b80 746D6F00 		.ascii	"tmo\000"
 2405 0b84 01       		.byte	0x1
 2406 0b85 66       		.byte	0x66
 2407 0b86 10010000 		.4byte	0x110
 2408 0b8a 95010000 		.4byte	.LLST12
 2409 0b8e 26       		.uleb128 0x26
 2410 0b8f 02000000 		.4byte	.LBB2
 2411 0b93 08000000 		.4byte	.LBE2
 2412 0b97 AB0B0000 		.4byte	0xbab
 2413 0b9b 25       		.uleb128 0x25
 2414 0b9c 746D7000 		.ascii	"tmp\000"
 2415 0ba0 01       		.byte	0x1
 2416 0ba1 68       		.byte	0x68
 2417 0ba2 91000000 		.4byte	0x91
 2418 0ba6 DA010000 		.4byte	.LLST13
 2419 0baa 00       		.byte	0
 2420 0bab 26       		.uleb128 0x26
 2421 0bac 20000000 		.4byte	.LBB3
 2422 0bb0 26000000 		.4byte	.LBE3
 2423 0bb4 C80B0000 		.4byte	0xbc8
 2424 0bb8 25       		.uleb128 0x25
 2425 0bb9 746D7000 		.ascii	"tmp\000"
ARM GAS  C:\Users\jenny\AppData\Local\Temp\ccPGDPsp.s 			page 44


 2426 0bbd 01       		.byte	0x1
 2427 0bbe 6F       		.byte	0x6f
 2428 0bbf 91000000 		.4byte	0x91
 2429 0bc3 ED010000 		.4byte	.LLST14
 2430 0bc7 00       		.byte	0
 2431 0bc8 1F       		.uleb128 0x1f
 2432 0bc9 1A000000 		.4byte	.LVL21
 2433 0bcd DF100000 		.4byte	0x10df
 2434 0bd1 1E       		.uleb128 0x1e
 2435 0bd2 01       		.byte	0x1
 2436 0bd3 51       		.byte	0x51
 2437 0bd4 0F       		.byte	0xf
 2438 0bd5 F3       		.byte	0xf3
 2439 0bd6 01       		.uleb128 0x1
 2440 0bd7 51       		.byte	0x51
 2441 0bd8 09       		.byte	0x9
 2442 0bd9 FF       		.byte	0xff
 2443 0bda F3       		.byte	0xf3
 2444 0bdb 01       		.uleb128 0x1
 2445 0bdc 51       		.byte	0x51
 2446 0bdd 30       		.byte	0x30
 2447 0bde 2E       		.byte	0x2e
 2448 0bdf 28       		.byte	0x28
 2449 0be0 0100     		.2byte	0x1
 2450 0be2 16       		.byte	0x16
 2451 0be3 13       		.byte	0x13
 2452 0be4 00       		.byte	0
 2453 0be5 00       		.byte	0
 2454 0be6 27       		.uleb128 0x27
 2455 0be7 01       		.byte	0x1
 2456 0be8 C6060000 		.4byte	.LASF136
 2457 0bec 01       		.byte	0x1
 2458 0bed 73       		.byte	0x73
 2459 0bee 01       		.byte	0x1
 2460 0bef 29000000 		.4byte	0x29
 2461 0bf3 00000000 		.4byte	.LFB13
 2462 0bf7 0A000000 		.4byte	.LFE13
 2463 0bfb 02       		.byte	0x2
 2464 0bfc 7D       		.byte	0x7d
 2465 0bfd 00       		.sleb128 0
 2466 0bfe 01       		.byte	0x1
 2467 0bff 130C0000 		.4byte	0xc13
 2468 0c03 1B       		.uleb128 0x1b
 2469 0c04 73656D00 		.ascii	"sem\000"
 2470 0c08 01       		.byte	0x1
 2471 0c09 73       		.byte	0x73
 2472 0c0a 8B0A0000 		.4byte	0xa8b
 2473 0c0e 00020000 		.4byte	.LLST15
 2474 0c12 00       		.byte	0
 2475 0c13 22       		.uleb128 0x22
 2476 0c14 01       		.byte	0x1
 2477 0c15 07030000 		.4byte	.LASF137
 2478 0c19 01       		.byte	0x1
 2479 0c1a 79       		.byte	0x79
 2480 0c1b 01       		.byte	0x1
 2481 0c1c 00000000 		.4byte	.LFB14
 2482 0c20 06000000 		.4byte	.LFE14
ARM GAS  C:\Users\jenny\AppData\Local\Temp\ccPGDPsp.s 			page 45


 2483 0c24 02       		.byte	0x2
 2484 0c25 7D       		.byte	0x7d
 2485 0c26 00       		.sleb128 0
 2486 0c27 01       		.byte	0x1
 2487 0c28 3A0C0000 		.4byte	0xc3a
 2488 0c2c 28       		.uleb128 0x28
 2489 0c2d 73656D00 		.ascii	"sem\000"
 2490 0c31 01       		.byte	0x1
 2491 0c32 79       		.byte	0x79
 2492 0c33 8B0A0000 		.4byte	0xa8b
 2493 0c37 01       		.byte	0x1
 2494 0c38 50       		.byte	0x50
 2495 0c39 00       		.byte	0
 2496 0c3a 1A       		.uleb128 0x1a
 2497 0c3b 01       		.byte	0x1
 2498 0c3c D4060000 		.4byte	.LASF138
 2499 0c40 01       		.byte	0x1
 2500 0c41 7D       		.byte	0x7d
 2501 0c42 01       		.byte	0x1
 2502 0c43 A1070000 		.4byte	0x7a1
 2503 0c47 00000000 		.4byte	.LFB15
 2504 0c4b 48000000 		.4byte	.LFE15
 2505 0c4f 21020000 		.4byte	.LLST16
 2506 0c53 01       		.byte	0x1
 2507 0c54 A20C0000 		.4byte	0xca2
 2508 0c58 1C       		.uleb128 0x1c
 2509 0c59 A8050000 		.4byte	.LASF121
 2510 0c5d 01       		.byte	0x1
 2511 0c5e 7D       		.byte	0x7d
 2512 0c5f A20C0000 		.4byte	0xca2
 2513 0c63 41020000 		.4byte	.LLST17
 2514 0c67 1C       		.uleb128 0x1c
 2515 0c68 53040000 		.4byte	.LASF85
 2516 0c6c 01       		.byte	0x1
 2517 0c6d 7D       		.byte	0x7d
 2518 0c6e 29000000 		.4byte	0x29
 2519 0c72 5F020000 		.4byte	.LLST18
 2520 0c76 1D       		.uleb128 0x1d
 2521 0c77 12000000 		.4byte	.LVL33
 2522 0c7b 63100000 		.4byte	0x1063
 2523 0c7f 910C0000 		.4byte	0xc91
 2524 0c83 1E       		.uleb128 0x1e
 2525 0c84 01       		.byte	0x1
 2526 0c85 51       		.byte	0x51
 2527 0c86 04       		.byte	0x4
 2528 0c87 74       		.byte	0x74
 2529 0c88 0A       		.sleb128 10
 2530 0c89 32       		.byte	0x32
 2531 0c8a 24       		.byte	0x24
 2532 0c8b 1E       		.uleb128 0x1e
 2533 0c8c 01       		.byte	0x1
 2534 0c8d 50       		.byte	0x50
 2535 0c8e 01       		.byte	0x1
 2536 0c8f 30       		.byte	0x30
 2537 0c90 00       		.byte	0
 2538 0c91 1F       		.uleb128 0x1f
 2539 0c92 20000000 		.4byte	.LVL34
ARM GAS  C:\Users\jenny\AppData\Local\Temp\ccPGDPsp.s 			page 46


 2540 0c96 FC100000 		.4byte	0x10fc
 2541 0c9a 1E       		.uleb128 0x1e
 2542 0c9b 01       		.byte	0x1
 2543 0c9c 52       		.byte	0x52
 2544 0c9d 02       		.byte	0x2
 2545 0c9e 74       		.byte	0x74
 2546 0c9f 00       		.sleb128 0
 2547 0ca0 00       		.byte	0
 2548 0ca1 00       		.byte	0
 2549 0ca2 09       		.uleb128 0x9
 2550 0ca3 04       		.byte	0x4
 2551 0ca4 BD070000 		.4byte	0x7bd
 2552 0ca8 20       		.uleb128 0x20
 2553 0ca9 01       		.byte	0x1
 2554 0caa 00020000 		.4byte	.LASF139
 2555 0cae 01       		.byte	0x1
 2556 0caf 8B       		.byte	0x8b
 2557 0cb0 01       		.byte	0x1
 2558 0cb1 00000000 		.4byte	.LFB16
 2559 0cb5 34000000 		.4byte	.LFE16
 2560 0cb9 7D020000 		.4byte	.LLST19
 2561 0cbd 01       		.byte	0x1
 2562 0cbe E40C0000 		.4byte	0xce4
 2563 0cc2 1C       		.uleb128 0x1c
 2564 0cc3 A8050000 		.4byte	.LASF121
 2565 0cc7 01       		.byte	0x1
 2566 0cc8 8B       		.byte	0x8b
 2567 0cc9 A20C0000 		.4byte	0xca2
 2568 0ccd 9D020000 		.4byte	.LLST20
 2569 0cd1 21       		.uleb128 0x21
 2570 0cd2 1A000000 		.4byte	.LVL37
 2571 0cd6 1A110000 		.4byte	0x111a
 2572 0cda 21       		.uleb128 0x21
 2573 0cdb 20000000 		.4byte	.LVL38
 2574 0cdf 99100000 		.4byte	0x1099
 2575 0ce3 00       		.byte	0
 2576 0ce4 22       		.uleb128 0x22
 2577 0ce5 01       		.byte	0x1
 2578 0ce6 74060000 		.4byte	.LASF140
 2579 0cea 01       		.byte	0x1
 2580 0ceb 99       		.byte	0x99
 2581 0cec 01       		.byte	0x1
 2582 0ced 00000000 		.4byte	.LFB17
 2583 0cf1 0A000000 		.4byte	.LFE17
 2584 0cf5 02       		.byte	0x2
 2585 0cf6 7D       		.byte	0x7d
 2586 0cf7 00       		.sleb128 0
 2587 0cf8 01       		.byte	0x1
 2588 0cf9 340D0000 		.4byte	0xd34
 2589 0cfd 1C       		.uleb128 0x1c
 2590 0cfe A8050000 		.4byte	.LASF121
 2591 0d02 01       		.byte	0x1
 2592 0d03 99       		.byte	0x99
 2593 0d04 A20C0000 		.4byte	0xca2
 2594 0d08 BB020000 		.4byte	.LLST21
 2595 0d0c 1B       		.uleb128 0x1b
 2596 0d0d 6D736700 		.ascii	"msg\000"
ARM GAS  C:\Users\jenny\AppData\Local\Temp\ccPGDPsp.s 			page 47


 2597 0d11 01       		.byte	0x1
 2598 0d12 99       		.byte	0x99
 2599 0d13 B9020000 		.4byte	0x2b9
 2600 0d17 DC020000 		.4byte	.LLST22
 2601 0d1b 29       		.uleb128 0x29
 2602 0d1c 0A000000 		.4byte	.LVL41
 2603 0d20 01       		.byte	0x1
 2604 0d21 2E110000 		.4byte	0x112e
 2605 0d25 1E       		.uleb128 0x1e
 2606 0d26 01       		.byte	0x1
 2607 0d27 52       		.byte	0x52
 2608 0d28 02       		.byte	0x2
 2609 0d29 09       		.byte	0x9
 2610 0d2a FF       		.byte	0xff
 2611 0d2b 1E       		.uleb128 0x1e
 2612 0d2c 01       		.byte	0x1
 2613 0d2d 51       		.byte	0x51
 2614 0d2e 03       		.byte	0x3
 2615 0d2f F3       		.byte	0xf3
 2616 0d30 01       		.uleb128 0x1
 2617 0d31 51       		.byte	0x51
 2618 0d32 00       		.byte	0
 2619 0d33 00       		.byte	0
 2620 0d34 1A       		.uleb128 0x1a
 2621 0d35 01       		.byte	0x1
 2622 0d36 FA040000 		.4byte	.LASF141
 2623 0d3a 01       		.byte	0x1
 2624 0d3b 9E       		.byte	0x9e
 2625 0d3c 01       		.byte	0x1
 2626 0d3d A1070000 		.4byte	0x7a1
 2627 0d41 00000000 		.4byte	.LFB18
 2628 0d45 28000000 		.4byte	.LFE18
 2629 0d49 FD020000 		.4byte	.LLST23
 2630 0d4d 01       		.byte	0x1
 2631 0d4e 870D0000 		.4byte	0xd87
 2632 0d52 1C       		.uleb128 0x1c
 2633 0d53 A8050000 		.4byte	.LASF121
 2634 0d57 01       		.byte	0x1
 2635 0d58 9E       		.byte	0x9e
 2636 0d59 A20C0000 		.4byte	0xca2
 2637 0d5d 1D030000 		.4byte	.LLST24
 2638 0d61 1B       		.uleb128 0x1b
 2639 0d62 6D736700 		.ascii	"msg\000"
 2640 0d66 01       		.byte	0x1
 2641 0d67 9E       		.byte	0x9e
 2642 0d68 B9020000 		.4byte	0x2b9
 2643 0d6c 3E030000 		.4byte	.LLST25
 2644 0d70 1F       		.uleb128 0x1f
 2645 0d71 0A000000 		.4byte	.LVL44
 2646 0d75 2E110000 		.4byte	0x112e
 2647 0d79 1E       		.uleb128 0x1e
 2648 0d7a 01       		.byte	0x1
 2649 0d7b 52       		.byte	0x52
 2650 0d7c 01       		.byte	0x1
 2651 0d7d 30       		.byte	0x30
 2652 0d7e 1E       		.uleb128 0x1e
 2653 0d7f 01       		.byte	0x1
ARM GAS  C:\Users\jenny\AppData\Local\Temp\ccPGDPsp.s 			page 48


 2654 0d80 51       		.byte	0x51
 2655 0d81 03       		.byte	0x3
 2656 0d82 F3       		.byte	0xf3
 2657 0d83 01       		.uleb128 0x1
 2658 0d84 51       		.byte	0x51
 2659 0d85 00       		.byte	0
 2660 0d86 00       		.byte	0
 2661 0d87 1A       		.uleb128 0x1a
 2662 0d88 01       		.byte	0x1
 2663 0d89 F6030000 		.4byte	.LASF142
 2664 0d8d 01       		.byte	0x1
 2665 0d8e A7       		.byte	0xa7
 2666 0d8f 01       		.byte	0x1
 2667 0d90 8B070000 		.4byte	0x78b
 2668 0d94 00000000 		.4byte	.LFB19
 2669 0d98 34000000 		.4byte	.LFE19
 2670 0d9c 5F030000 		.4byte	.LLST26
 2671 0da0 01       		.byte	0x1
 2672 0da1 4F0E0000 		.4byte	0xe4f
 2673 0da5 1C       		.uleb128 0x1c
 2674 0da6 A8050000 		.4byte	.LASF121
 2675 0daa 01       		.byte	0x1
 2676 0dab A7       		.byte	0xa7
 2677 0dac A20C0000 		.4byte	0xca2
 2678 0db0 7F030000 		.4byte	.LLST27
 2679 0db4 1B       		.uleb128 0x1b
 2680 0db5 6D736700 		.ascii	"msg\000"
 2681 0db9 01       		.byte	0x1
 2682 0dba A7       		.byte	0xa7
 2683 0dbb 4F0E0000 		.4byte	0xe4f
 2684 0dbf A0030000 		.4byte	.LLST28
 2685 0dc3 1C       		.uleb128 0x1c
 2686 0dc4 2B050000 		.4byte	.LASF134
 2687 0dc8 01       		.byte	0x1
 2688 0dc9 A7       		.byte	0xa7
 2689 0dca 8B070000 		.4byte	0x78b
 2690 0dce C1030000 		.4byte	.LLST29
 2691 0dd2 24       		.uleb128 0x24
 2692 0dd3 D8010000 		.4byte	.LASF135
 2693 0dd7 01       		.byte	0x1
 2694 0dd8 A8       		.byte	0xa8
 2695 0dd9 10010000 		.4byte	0x110
 2696 0ddd E2030000 		.4byte	.LLST30
 2697 0de1 25       		.uleb128 0x25
 2698 0de2 746D6F00 		.ascii	"tmo\000"
 2699 0de6 01       		.byte	0x1
 2700 0de7 A8       		.byte	0xa8
 2701 0de8 10010000 		.4byte	0x110
 2702 0dec 16040000 		.4byte	.LLST31
 2703 0df0 26       		.uleb128 0x26
 2704 0df1 02000000 		.4byte	.LBB4
 2705 0df5 08000000 		.4byte	.LBE4
 2706 0df9 0D0E0000 		.4byte	0xe0d
 2707 0dfd 25       		.uleb128 0x25
 2708 0dfe 746D7000 		.ascii	"tmp\000"
 2709 0e02 01       		.byte	0x1
 2710 0e03 AA       		.byte	0xaa
ARM GAS  C:\Users\jenny\AppData\Local\Temp\ccPGDPsp.s 			page 49


 2711 0e04 91000000 		.4byte	0x91
 2712 0e08 5B040000 		.4byte	.LLST32
 2713 0e0c 00       		.byte	0
 2714 0e0d 26       		.uleb128 0x26
 2715 0e0e 20000000 		.4byte	.LBB5
 2716 0e12 26000000 		.4byte	.LBE5
 2717 0e16 2A0E0000 		.4byte	0xe2a
 2718 0e1a 25       		.uleb128 0x25
 2719 0e1b 746D7000 		.ascii	"tmp\000"
 2720 0e1f 01       		.byte	0x1
 2721 0e20 B1       		.byte	0xb1
 2722 0e21 91000000 		.4byte	0x91
 2723 0e25 6E040000 		.4byte	.LLST33
 2724 0e29 00       		.byte	0
 2725 0e2a 1F       		.uleb128 0x1f
 2726 0e2b 1A000000 		.4byte	.LVL51
 2727 0e2f 50110000 		.4byte	0x1150
 2728 0e33 1E       		.uleb128 0x1e
 2729 0e34 01       		.byte	0x1
 2730 0e35 52       		.byte	0x52
 2731 0e36 0F       		.byte	0xf
 2732 0e37 F3       		.byte	0xf3
 2733 0e38 01       		.uleb128 0x1
 2734 0e39 52       		.byte	0x52
 2735 0e3a 09       		.byte	0x9
 2736 0e3b FF       		.byte	0xff
 2737 0e3c F3       		.byte	0xf3
 2738 0e3d 01       		.uleb128 0x1
 2739 0e3e 52       		.byte	0x52
 2740 0e3f 30       		.byte	0x30
 2741 0e40 2E       		.byte	0x2e
 2742 0e41 28       		.byte	0x28
 2743 0e42 0100     		.2byte	0x1
 2744 0e44 16       		.byte	0x16
 2745 0e45 13       		.byte	0x13
 2746 0e46 1E       		.uleb128 0x1e
 2747 0e47 01       		.byte	0x1
 2748 0e48 51       		.byte	0x51
 2749 0e49 03       		.byte	0x3
 2750 0e4a F3       		.byte	0xf3
 2751 0e4b 01       		.uleb128 0x1
 2752 0e4c 51       		.byte	0x51
 2753 0e4d 00       		.byte	0
 2754 0e4e 00       		.byte	0
 2755 0e4f 09       		.uleb128 0x9
 2756 0e50 04       		.byte	0x4
 2757 0e51 B9020000 		.4byte	0x2b9
 2758 0e55 1A       		.uleb128 0x1a
 2759 0e56 01       		.byte	0x1
 2760 0e57 3C040000 		.4byte	.LASF143
 2761 0e5b 01       		.byte	0x1
 2762 0e5c B5       		.byte	0xb5
 2763 0e5d 01       		.byte	0x1
 2764 0e5e 8B070000 		.4byte	0x78b
 2765 0e62 00000000 		.4byte	.LFB20
 2766 0e66 18000000 		.4byte	.LFE20
 2767 0e6a 81040000 		.4byte	.LLST34
ARM GAS  C:\Users\jenny\AppData\Local\Temp\ccPGDPsp.s 			page 50


 2768 0e6e 01       		.byte	0x1
 2769 0e6f A80E0000 		.4byte	0xea8
 2770 0e73 1C       		.uleb128 0x1c
 2771 0e74 A8050000 		.4byte	.LASF121
 2772 0e78 01       		.byte	0x1
 2773 0e79 B5       		.byte	0xb5
 2774 0e7a A20C0000 		.4byte	0xca2
 2775 0e7e A1040000 		.4byte	.LLST35
 2776 0e82 1B       		.uleb128 0x1b
 2777 0e83 6D736700 		.ascii	"msg\000"
 2778 0e87 01       		.byte	0x1
 2779 0e88 B5       		.byte	0xb5
 2780 0e89 4F0E0000 		.4byte	0xe4f
 2781 0e8d C2040000 		.4byte	.LLST36
 2782 0e91 1F       		.uleb128 0x1f
 2783 0e92 0A000000 		.4byte	.LVL59
 2784 0e96 72110000 		.4byte	0x1172
 2785 0e9a 1E       		.uleb128 0x1e
 2786 0e9b 01       		.byte	0x1
 2787 0e9c 52       		.byte	0x52
 2788 0e9d 01       		.byte	0x1
 2789 0e9e 30       		.byte	0x30
 2790 0e9f 1E       		.uleb128 0x1e
 2791 0ea0 01       		.byte	0x1
 2792 0ea1 51       		.byte	0x51
 2793 0ea2 03       		.byte	0x3
 2794 0ea3 F3       		.byte	0xf3
 2795 0ea4 01       		.uleb128 0x1
 2796 0ea5 51       		.byte	0x51
 2797 0ea6 00       		.byte	0
 2798 0ea7 00       		.byte	0
 2799 0ea8 27       		.uleb128 0x27
 2800 0ea9 01       		.byte	0x1
 2801 0eaa 5F040000 		.4byte	.LASF144
 2802 0eae 01       		.byte	0x1
 2803 0eaf BC       		.byte	0xbc
 2804 0eb0 01       		.byte	0x1
 2805 0eb1 29000000 		.4byte	0x29
 2806 0eb5 00000000 		.4byte	.LFB21
 2807 0eb9 0A000000 		.4byte	.LFE21
 2808 0ebd 02       		.byte	0x2
 2809 0ebe 7D       		.byte	0x7d
 2810 0ebf 00       		.sleb128 0
 2811 0ec0 01       		.byte	0x1
 2812 0ec1 D50E0000 		.4byte	0xed5
 2813 0ec5 1C       		.uleb128 0x1c
 2814 0ec6 A8050000 		.4byte	.LASF121
 2815 0eca 01       		.byte	0x1
 2816 0ecb BC       		.byte	0xbc
 2817 0ecc A20C0000 		.4byte	0xca2
 2818 0ed0 E3040000 		.4byte	.LLST37
 2819 0ed4 00       		.byte	0
 2820 0ed5 22       		.uleb128 0x22
 2821 0ed6 01       		.byte	0x1
 2822 0ed7 66000000 		.4byte	.LASF145
 2823 0edb 01       		.byte	0x1
 2824 0edc C2       		.byte	0xc2
ARM GAS  C:\Users\jenny\AppData\Local\Temp\ccPGDPsp.s 			page 51


 2825 0edd 01       		.byte	0x1
 2826 0ede 00000000 		.4byte	.LFB22
 2827 0ee2 06000000 		.4byte	.LFE22
 2828 0ee6 02       		.byte	0x2
 2829 0ee7 7D       		.byte	0x7d
 2830 0ee8 00       		.sleb128 0
 2831 0ee9 01       		.byte	0x1
 2832 0eea FC0E0000 		.4byte	0xefc
 2833 0eee 2A       		.uleb128 0x2a
 2834 0eef A8050000 		.4byte	.LASF121
 2835 0ef3 01       		.byte	0x1
 2836 0ef4 C2       		.byte	0xc2
 2837 0ef5 A20C0000 		.4byte	0xca2
 2838 0ef9 01       		.byte	0x1
 2839 0efa 50       		.byte	0x50
 2840 0efb 00       		.byte	0
 2841 0efc 1A       		.uleb128 0x1a
 2842 0efd 01       		.byte	0x1
 2843 0efe 98000000 		.4byte	.LASF146
 2844 0f02 01       		.byte	0x1
 2845 0f03 C6       		.byte	0xc6
 2846 0f04 01       		.byte	0x1
 2847 0f05 CE070000 		.4byte	0x7ce
 2848 0f09 00000000 		.4byte	.LFB23
 2849 0f0d 30000000 		.4byte	.LFE23
 2850 0f11 04050000 		.4byte	.LLST38
 2851 0f15 01       		.byte	0x1
 2852 0f16 B90F0000 		.4byte	0xfb9
 2853 0f1a 1C       		.uleb128 0x1c
 2854 0f1b EC050000 		.4byte	.LASF147
 2855 0f1f 01       		.byte	0x1
 2856 0f20 C6       		.byte	0xc6
 2857 0f21 31070000 		.4byte	0x731
 2858 0f25 24050000 		.4byte	.LLST39
 2859 0f29 1C       		.uleb128 0x1c
 2860 0f2a 65060000 		.4byte	.LASF148
 2861 0f2e 01       		.byte	0x1
 2862 0f2f C6       		.byte	0xc6
 2863 0f30 E4070000 		.4byte	0x7e4
 2864 0f34 45050000 		.4byte	.LLST40
 2865 0f38 1B       		.uleb128 0x1b
 2866 0f39 61726700 		.ascii	"arg\000"
 2867 0f3d 01       		.byte	0x1
 2868 0f3e C7       		.byte	0xc7
 2869 0f3f B9020000 		.4byte	0x2b9
 2870 0f43 63050000 		.4byte	.LLST41
 2871 0f47 1C       		.uleb128 0x1c
 2872 0f48 BA030000 		.4byte	.LASF149
 2873 0f4c 01       		.byte	0x1
 2874 0f4d C7       		.byte	0xc7
 2875 0f4e 29000000 		.4byte	0x29
 2876 0f52 81050000 		.4byte	.LLST42
 2877 0f56 2A       		.uleb128 0x2a
 2878 0f57 2B030000 		.4byte	.LASF150
 2879 0f5b 01       		.byte	0x1
 2880 0f5c C7       		.byte	0xc7
 2881 0f5d 29000000 		.4byte	0x29
ARM GAS  C:\Users\jenny\AppData\Local\Temp\ccPGDPsp.s 			page 52


 2882 0f61 02       		.byte	0x2
 2883 0f62 91       		.byte	0x91
 2884 0f63 00       		.sleb128 0
 2885 0f64 2B       		.uleb128 0x2b
 2886 0f65 77737A00 		.ascii	"wsz\000"
 2887 0f69 01       		.byte	0x1
 2888 0f6a C9       		.byte	0xc9
 2889 0f6b 30000000 		.4byte	0x30
 2890 0f6f 01       		.byte	0x1
 2891 0f70 54       		.byte	0x54
 2892 0f71 25       		.uleb128 0x25
 2893 0f72 77737000 		.ascii	"wsp\000"
 2894 0f76 01       		.byte	0x1
 2895 0f77 CA       		.byte	0xca
 2896 0f78 B9020000 		.4byte	0x2b9
 2897 0f7c B0050000 		.4byte	.LLST43
 2898 0f80 1D       		.uleb128 0x1d
 2899 0f81 1A000000 		.4byte	.LVL67
 2900 0f85 94110000 		.4byte	0x1194
 2901 0f89 940F0000 		.4byte	0xf94
 2902 0f8d 1E       		.uleb128 0x1e
 2903 0f8e 01       		.byte	0x1
 2904 0f8f 50       		.byte	0x50
 2905 0f90 02       		.byte	0x2
 2906 0f91 74       		.byte	0x74
 2907 0f92 00       		.sleb128 0
 2908 0f93 00       		.byte	0
 2909 0f94 29       		.uleb128 0x29
 2910 0f95 2C000000 		.4byte	.LVL68
 2911 0f99 01       		.byte	0x1
 2912 0f9a AC110000 		.4byte	0x11ac
 2913 0f9e 1E       		.uleb128 0x1e
 2914 0f9f 01       		.byte	0x1
 2915 0fa0 53       		.byte	0x53
 2916 0fa1 02       		.byte	0x2
 2917 0fa2 75       		.byte	0x75
 2918 0fa3 00       		.sleb128 0
 2919 0fa4 1E       		.uleb128 0x1e
 2920 0fa5 01       		.byte	0x1
 2921 0fa6 52       		.byte	0x52
 2922 0fa7 02       		.byte	0x2
 2923 0fa8 76       		.byte	0x76
 2924 0fa9 00       		.sleb128 0
 2925 0faa 1E       		.uleb128 0x1e
 2926 0fab 01       		.byte	0x1
 2927 0fac 51       		.byte	0x51
 2928 0fad 02       		.byte	0x2
 2929 0fae 74       		.byte	0x74
 2930 0faf 00       		.sleb128 0
 2931 0fb0 1E       		.uleb128 0x1e
 2932 0fb1 02       		.byte	0x2
 2933 0fb2 91       		.byte	0x91
 2934 0fb3 00       		.sleb128 0
 2935 0fb4 02       		.byte	0x2
 2936 0fb5 77       		.byte	0x77
 2937 0fb6 00       		.sleb128 0
 2938 0fb7 00       		.byte	0
ARM GAS  C:\Users\jenny\AppData\Local\Temp\ccPGDPsp.s 			page 53


 2939 0fb8 00       		.byte	0
 2940 0fb9 27       		.uleb128 0x27
 2941 0fba 01       		.byte	0x1
 2942 0fbb 06060000 		.4byte	.LASF151
 2943 0fbf 01       		.byte	0x1
 2944 0fc0 D4       		.byte	0xd4
 2945 0fc1 01       		.byte	0x1
 2946 0fc2 D9070000 		.4byte	0x7d9
 2947 0fc6 00000000 		.4byte	.LFB24
 2948 0fca 0A000000 		.4byte	.LFE24
 2949 0fce 02       		.byte	0x2
 2950 0fcf 7D       		.byte	0x7d
 2951 0fd0 00       		.sleb128 0
 2952 0fd1 01       		.byte	0x1
 2953 0fd2 F00F0000 		.4byte	0xff0
 2954 0fd6 2C       		.uleb128 0x2c
 2955 0fd7 00000000 		.4byte	.LBB6
 2956 0fdb 06000000 		.4byte	.LBE6
 2957 0fdf 25       		.uleb128 0x25
 2958 0fe0 746D7000 		.ascii	"tmp\000"
 2959 0fe4 01       		.byte	0x1
 2960 0fe5 D6       		.byte	0xd6
 2961 0fe6 91000000 		.4byte	0x91
 2962 0fea CE050000 		.4byte	.LLST44
 2963 0fee 00       		.byte	0
 2964 0fef 00       		.byte	0
 2965 0ff0 22       		.uleb128 0x22
 2966 0ff1 01       		.byte	0x1
 2967 0ff2 0C010000 		.4byte	.LASF152
 2968 0ff6 01       		.byte	0x1
 2969 0ff7 DA       		.byte	0xda
 2970 0ff8 01       		.byte	0x1
 2971 0ff9 00000000 		.4byte	.LFB25
 2972 0ffd 08000000 		.4byte	.LFE25
 2973 1001 02       		.byte	0x2
 2974 1002 7D       		.byte	0x7d
 2975 1003 00       		.sleb128 0
 2976 1004 01       		.byte	0x1
 2977 1005 30100000 		.4byte	0x1030
 2978 1009 2A       		.uleb128 0x2a
 2979 100a B5030000 		.4byte	.LASF153
 2980 100e 01       		.byte	0x1
 2981 100f DA       		.byte	0xda
 2982 1010 D9070000 		.4byte	0x7d9
 2983 1014 01       		.byte	0x1
 2984 1015 50       		.byte	0x50
 2985 1016 2C       		.uleb128 0x2c
 2986 1017 00000000 		.4byte	.LBB7
 2987 101b 08000000 		.4byte	.LBE7
 2988 101f 25       		.uleb128 0x25
 2989 1020 746D7000 		.ascii	"tmp\000"
 2990 1024 01       		.byte	0x1
 2991 1025 DD       		.byte	0xdd
 2992 1026 91000000 		.4byte	0x91
 2993 102a E1050000 		.4byte	.LLST45
 2994 102e 00       		.byte	0
 2995 102f 00       		.byte	0
ARM GAS  C:\Users\jenny\AppData\Local\Temp\ccPGDPsp.s 			page 54


 2996 1030 2D       		.uleb128 0x2d
 2997 1031 01       		.byte	0x1
 2998 1032 3D070000 		.4byte	.LASF174
 2999 1036 01       		.byte	0x1
 3000 1037 E0       		.byte	0xe0
 3001 1038 01       		.byte	0x1
 3002 1039 8B070000 		.4byte	0x78b
 3003 103d 00000000 		.4byte	.LFB26
 3004 1041 0C000000 		.4byte	.LFE26
 3005 1045 02       		.byte	0x2
 3006 1046 7D       		.byte	0x7d
 3007 1047 00       		.sleb128 0
 3008 1048 01       		.byte	0x1
 3009 1049 2E       		.uleb128 0x2e
 3010 104a C0000000 		.4byte	.LASF154
 3011 104e 08       		.byte	0x8
 3012 104f DB       		.byte	0xdb
 3013 1050 35050000 		.4byte	0x535
 3014 1054 01       		.byte	0x1
 3015 1055 01       		.byte	0x1
 3016 1056 2E       		.uleb128 0x2e
 3017 1057 ED000000 		.4byte	.LASF155
 3018 105b 13       		.byte	0x13
 3019 105c 95       		.byte	0x95
 3020 105d 64090000 		.4byte	0x964
 3021 1061 01       		.byte	0x1
 3022 1062 01       		.byte	0x1
 3023 1063 2F       		.uleb128 0x2f
 3024 1064 01       		.byte	0x1
 3025 1065 C4030000 		.4byte	.LASF160
 3026 1069 0D       		.byte	0xd
 3027 106a 59       		.byte	0x59
 3028 106b 01       		.byte	0x1
 3029 106c B9020000 		.4byte	0x2b9
 3030 1070 01       		.byte	0x1
 3031 1071 80100000 		.4byte	0x1080
 3032 1075 0E       		.uleb128 0xe
 3033 1076 D3060000 		.4byte	0x6d3
 3034 107a 0E       		.uleb128 0xe
 3035 107b 30000000 		.4byte	0x30
 3036 107f 00       		.byte	0
 3037 1080 30       		.uleb128 0x30
 3038 1081 01       		.byte	0x1
 3039 1082 87020000 		.4byte	.LASF156
 3040 1086 09       		.byte	0x9
 3041 1087 35       		.byte	0x35
 3042 1088 01       		.byte	0x1
 3043 1089 01       		.byte	0x1
 3044 108a 99100000 		.4byte	0x1099
 3045 108e 0E       		.uleb128 0xe
 3046 108f B7070000 		.4byte	0x7b7
 3047 1093 0E       		.uleb128 0xe
 3048 1094 1B010000 		.4byte	0x11b
 3049 1098 00       		.byte	0
 3050 1099 30       		.uleb128 0x30
 3051 109a 01       		.byte	0x1
 3052 109b 1C040000 		.4byte	.LASF157
ARM GAS  C:\Users\jenny\AppData\Local\Temp\ccPGDPsp.s 			page 55


 3053 109f 0D       		.byte	0xd
 3054 10a0 5A       		.byte	0x5a
 3055 10a1 01       		.byte	0x1
 3056 10a2 01       		.byte	0x1
 3057 10a3 AD100000 		.4byte	0x10ad
 3058 10a7 0E       		.uleb128 0xe
 3059 10a8 B9020000 		.4byte	0x2b9
 3060 10ac 00       		.byte	0
 3061 10ad 30       		.uleb128 0x30
 3062 10ae 01       		.byte	0x1
 3063 10af FA050000 		.4byte	.LASF158
 3064 10b3 09       		.byte	0x9
 3065 10b4 3C       		.byte	0x3c
 3066 10b5 01       		.byte	0x1
 3067 10b6 01       		.byte	0x1
 3068 10b7 C1100000 		.4byte	0x10c1
 3069 10bb 0E       		.uleb128 0xe
 3070 10bc B7070000 		.4byte	0x7b7
 3071 10c0 00       		.byte	0
 3072 10c1 30       		.uleb128 0x30
 3073 10c2 01       		.byte	0x1
 3074 10c3 C7000000 		.4byte	.LASF159
 3075 10c7 09       		.byte	0x9
 3076 10c8 3D       		.byte	0x3d
 3077 10c9 01       		.byte	0x1
 3078 10ca 01       		.byte	0x1
 3079 10cb D5100000 		.4byte	0x10d5
 3080 10cf 0E       		.uleb128 0xe
 3081 10d0 B7070000 		.4byte	0x7b7
 3082 10d4 00       		.byte	0
 3083 10d5 31       		.uleb128 0x31
 3084 10d6 01       		.byte	0x1
 3085 10d7 E4020000 		.4byte	.LASF175
 3086 10db 14       		.byte	0x14
 3087 10dc 9C       		.byte	0x9c
 3088 10dd 01       		.byte	0x1
 3089 10de 01       		.byte	0x1
 3090 10df 2F       		.uleb128 0x2f
 3091 10e0 01       		.byte	0x1
 3092 10e1 0E020000 		.4byte	.LASF161
 3093 10e5 09       		.byte	0x9
 3094 10e6 3B       		.byte	0x3b
 3095 10e7 01       		.byte	0x1
 3096 10e8 FA000000 		.4byte	0xfa
 3097 10ec 01       		.byte	0x1
 3098 10ed FC100000 		.4byte	0x10fc
 3099 10f1 0E       		.uleb128 0xe
 3100 10f2 B7070000 		.4byte	0x7b7
 3101 10f6 0E       		.uleb128 0xe
 3102 10f7 10010000 		.4byte	0x110
 3103 10fb 00       		.byte	0
 3104 10fc 30       		.uleb128 0x30
 3105 10fd 01       		.byte	0x1
 3106 10fe F1050000 		.4byte	.LASF162
 3107 1102 0B       		.byte	0xb
 3108 1103 43       		.byte	0x43
 3109 1104 01       		.byte	0x1
ARM GAS  C:\Users\jenny\AppData\Local\Temp\ccPGDPsp.s 			page 56


 3110 1105 01       		.byte	0x1
 3111 1106 1A110000 		.4byte	0x111a
 3112 110a 0E       		.uleb128 0xe
 3113 110b C8070000 		.4byte	0x7c8
 3114 110f 0E       		.uleb128 0xe
 3115 1110 19060000 		.4byte	0x619
 3116 1114 0E       		.uleb128 0xe
 3117 1115 1B010000 		.4byte	0x11b
 3118 1119 00       		.byte	0
 3119 111a 30       		.uleb128 0x30
 3120 111b 01       		.byte	0x1
 3121 111c 1F010000 		.4byte	.LASF163
 3122 1120 0B       		.byte	0xb
 3123 1121 44       		.byte	0x44
 3124 1122 01       		.byte	0x1
 3125 1123 01       		.byte	0x1
 3126 1124 2E110000 		.4byte	0x112e
 3127 1128 0E       		.uleb128 0xe
 3128 1129 C8070000 		.4byte	0x7c8
 3129 112d 00       		.byte	0
 3130 112e 2F       		.uleb128 0x2f
 3131 112f 01       		.byte	0x1
 3132 1130 A6060000 		.4byte	.LASF164
 3133 1134 0B       		.byte	0xb
 3134 1135 45       		.byte	0x45
 3135 1136 01       		.byte	0x1
 3136 1137 FA000000 		.4byte	0xfa
 3137 113b 01       		.byte	0x1
 3138 113c 50110000 		.4byte	0x1150
 3139 1140 0E       		.uleb128 0xe
 3140 1141 C8070000 		.4byte	0x7c8
 3141 1145 0E       		.uleb128 0xe
 3142 1146 FA000000 		.4byte	0xfa
 3143 114a 0E       		.uleb128 0xe
 3144 114b 10010000 		.4byte	0x110
 3145 114f 00       		.byte	0
 3146 1150 2F       		.uleb128 0x2f
 3147 1151 01       		.byte	0x1
 3148 1152 EF040000 		.4byte	.LASF165
 3149 1156 0B       		.byte	0xb
 3150 1157 4C       		.byte	0x4c
 3151 1158 01       		.byte	0x1
 3152 1159 FA000000 		.4byte	0xfa
 3153 115d 01       		.byte	0x1
 3154 115e 72110000 		.4byte	0x1172
 3155 1162 0E       		.uleb128 0xe
 3156 1163 C8070000 		.4byte	0x7c8
 3157 1167 0E       		.uleb128 0xe
 3158 1168 19060000 		.4byte	0x619
 3159 116c 0E       		.uleb128 0xe
 3160 116d 10010000 		.4byte	0x110
 3161 1171 00       		.byte	0
 3162 1172 2F       		.uleb128 0x2f
 3163 1173 01       		.byte	0x1
 3164 1174 0B050000 		.4byte	.LASF166
 3165 1178 0B       		.byte	0xb
 3166 1179 4B       		.byte	0x4b
ARM GAS  C:\Users\jenny\AppData\Local\Temp\ccPGDPsp.s 			page 57


 3167 117a 01       		.byte	0x1
 3168 117b FA000000 		.4byte	0xfa
 3169 117f 01       		.byte	0x1
 3170 1180 94110000 		.4byte	0x1194
 3171 1184 0E       		.uleb128 0xe
 3172 1185 C8070000 		.4byte	0x7c8
 3173 1189 0E       		.uleb128 0xe
 3174 118a 19060000 		.4byte	0x619
 3175 118e 0E       		.uleb128 0xe
 3176 118f 10010000 		.4byte	0x110
 3177 1193 00       		.byte	0
 3178 1194 2F       		.uleb128 0x2f
 3179 1195 01       		.byte	0x1
 3180 1196 96030000 		.4byte	.LASF167
 3181 119a 0C       		.byte	0xc
 3182 119b 52       		.byte	0x52
 3183 119c 01       		.byte	0x1
 3184 119d B9020000 		.4byte	0x2b9
 3185 11a1 01       		.byte	0x1
 3186 11a2 AC110000 		.4byte	0x11ac
 3187 11a6 0E       		.uleb128 0xe
 3188 11a7 30000000 		.4byte	0x30
 3189 11ab 00       		.byte	0
 3190 11ac 32       		.uleb128 0x32
 3191 11ad 01       		.byte	0x1
 3192 11ae 86040000 		.4byte	.LASF168
 3193 11b2 06       		.byte	0x6
 3194 11b3 7001     		.2byte	0x170
 3195 11b5 01       		.byte	0x1
 3196 11b6 7B020000 		.4byte	0x27b
 3197 11ba 01       		.byte	0x1
 3198 11bb 0E       		.uleb128 0xe
 3199 11bc B9020000 		.4byte	0x2b9
 3200 11c0 0E       		.uleb128 0xe
 3201 11c1 30000000 		.4byte	0x30
 3202 11c5 0E       		.uleb128 0xe
 3203 11c6 EF000000 		.4byte	0xef
 3204 11ca 0E       		.uleb128 0xe
 3205 11cb 49070000 		.4byte	0x749
 3206 11cf 0E       		.uleb128 0xe
 3207 11d0 B9020000 		.4byte	0x2b9
 3208 11d4 00       		.byte	0
 3209 11d5 00       		.byte	0
 3210              		.section	.debug_abbrev,"",%progbits
 3211              	.Ldebug_abbrev0:
 3212 0000 01       		.uleb128 0x1
 3213 0001 11       		.uleb128 0x11
 3214 0002 01       		.byte	0x1
 3215 0003 25       		.uleb128 0x25
 3216 0004 0E       		.uleb128 0xe
 3217 0005 13       		.uleb128 0x13
 3218 0006 0B       		.uleb128 0xb
 3219 0007 03       		.uleb128 0x3
 3220 0008 0E       		.uleb128 0xe
 3221 0009 1B       		.uleb128 0x1b
 3222 000a 0E       		.uleb128 0xe
 3223 000b 55       		.uleb128 0x55
ARM GAS  C:\Users\jenny\AppData\Local\Temp\ccPGDPsp.s 			page 58


 3224 000c 06       		.uleb128 0x6
 3225 000d 11       		.uleb128 0x11
 3226 000e 01       		.uleb128 0x1
 3227 000f 52       		.uleb128 0x52
 3228 0010 01       		.uleb128 0x1
 3229 0011 10       		.uleb128 0x10
 3230 0012 06       		.uleb128 0x6
 3231 0013 00       		.byte	0
 3232 0014 00       		.byte	0
 3233 0015 02       		.uleb128 0x2
 3234 0016 24       		.uleb128 0x24
 3235 0017 00       		.byte	0
 3236 0018 0B       		.uleb128 0xb
 3237 0019 0B       		.uleb128 0xb
 3238 001a 3E       		.uleb128 0x3e
 3239 001b 0B       		.uleb128 0xb
 3240 001c 03       		.uleb128 0x3
 3241 001d 08       		.uleb128 0x8
 3242 001e 00       		.byte	0
 3243 001f 00       		.byte	0
 3244 0020 03       		.uleb128 0x3
 3245 0021 16       		.uleb128 0x16
 3246 0022 00       		.byte	0
 3247 0023 03       		.uleb128 0x3
 3248 0024 0E       		.uleb128 0xe
 3249 0025 3A       		.uleb128 0x3a
 3250 0026 0B       		.uleb128 0xb
 3251 0027 3B       		.uleb128 0x3b
 3252 0028 0B       		.uleb128 0xb
 3253 0029 49       		.uleb128 0x49
 3254 002a 13       		.uleb128 0x13
 3255 002b 00       		.byte	0
 3256 002c 00       		.byte	0
 3257 002d 04       		.uleb128 0x4
 3258 002e 24       		.uleb128 0x24
 3259 002f 00       		.byte	0
 3260 0030 0B       		.uleb128 0xb
 3261 0031 0B       		.uleb128 0xb
 3262 0032 3E       		.uleb128 0x3e
 3263 0033 0B       		.uleb128 0xb
 3264 0034 03       		.uleb128 0x3
 3265 0035 0E       		.uleb128 0xe
 3266 0036 00       		.byte	0
 3267 0037 00       		.byte	0
 3268 0038 05       		.uleb128 0x5
 3269 0039 13       		.uleb128 0x13
 3270 003a 01       		.byte	0x1
 3271 003b 03       		.uleb128 0x3
 3272 003c 0E       		.uleb128 0xe
 3273 003d 0B       		.uleb128 0xb
 3274 003e 0B       		.uleb128 0xb
 3275 003f 3A       		.uleb128 0x3a
 3276 0040 0B       		.uleb128 0xb
 3277 0041 3B       		.uleb128 0x3b
 3278 0042 0B       		.uleb128 0xb
 3279 0043 01       		.uleb128 0x1
 3280 0044 13       		.uleb128 0x13
ARM GAS  C:\Users\jenny\AppData\Local\Temp\ccPGDPsp.s 			page 59


 3281 0045 00       		.byte	0
 3282 0046 00       		.byte	0
 3283 0047 06       		.uleb128 0x6
 3284 0048 0D       		.uleb128 0xd
 3285 0049 00       		.byte	0
 3286 004a 03       		.uleb128 0x3
 3287 004b 0E       		.uleb128 0xe
 3288 004c 3A       		.uleb128 0x3a
 3289 004d 0B       		.uleb128 0xb
 3290 004e 3B       		.uleb128 0x3b
 3291 004f 0B       		.uleb128 0xb
 3292 0050 49       		.uleb128 0x49
 3293 0051 13       		.uleb128 0x13
 3294 0052 38       		.uleb128 0x38
 3295 0053 0A       		.uleb128 0xa
 3296 0054 00       		.byte	0
 3297 0055 00       		.byte	0
 3298 0056 07       		.uleb128 0x7
 3299 0057 0D       		.uleb128 0xd
 3300 0058 00       		.byte	0
 3301 0059 03       		.uleb128 0x3
 3302 005a 08       		.uleb128 0x8
 3303 005b 3A       		.uleb128 0x3a
 3304 005c 0B       		.uleb128 0xb
 3305 005d 3B       		.uleb128 0x3b
 3306 005e 0B       		.uleb128 0xb
 3307 005f 49       		.uleb128 0x49
 3308 0060 13       		.uleb128 0x13
 3309 0061 38       		.uleb128 0x38
 3310 0062 0A       		.uleb128 0xa
 3311 0063 00       		.byte	0
 3312 0064 00       		.byte	0
 3313 0065 08       		.uleb128 0x8
 3314 0066 13       		.uleb128 0x13
 3315 0067 01       		.byte	0x1
 3316 0068 0B       		.uleb128 0xb
 3317 0069 0B       		.uleb128 0xb
 3318 006a 3A       		.uleb128 0x3a
 3319 006b 0B       		.uleb128 0xb
 3320 006c 3B       		.uleb128 0x3b
 3321 006d 0B       		.uleb128 0xb
 3322 006e 01       		.uleb128 0x1
 3323 006f 13       		.uleb128 0x13
 3324 0070 00       		.byte	0
 3325 0071 00       		.byte	0
 3326 0072 09       		.uleb128 0x9
 3327 0073 0F       		.uleb128 0xf
 3328 0074 00       		.byte	0
 3329 0075 0B       		.uleb128 0xb
 3330 0076 0B       		.uleb128 0xb
 3331 0077 49       		.uleb128 0x49
 3332 0078 13       		.uleb128 0x13
 3333 0079 00       		.byte	0
 3334 007a 00       		.byte	0
 3335 007b 0A       		.uleb128 0xa
 3336 007c 0F       		.uleb128 0xf
 3337 007d 00       		.byte	0
ARM GAS  C:\Users\jenny\AppData\Local\Temp\ccPGDPsp.s 			page 60


 3338 007e 0B       		.uleb128 0xb
 3339 007f 0B       		.uleb128 0xb
 3340 0080 00       		.byte	0
 3341 0081 00       		.byte	0
 3342 0082 0B       		.uleb128 0xb
 3343 0083 13       		.uleb128 0x13
 3344 0084 01       		.byte	0x1
 3345 0085 03       		.uleb128 0x3
 3346 0086 0E       		.uleb128 0xe
 3347 0087 0B       		.uleb128 0xb
 3348 0088 0B       		.uleb128 0xb
 3349 0089 3A       		.uleb128 0x3a
 3350 008a 0B       		.uleb128 0xb
 3351 008b 3B       		.uleb128 0x3b
 3352 008c 05       		.uleb128 0x5
 3353 008d 01       		.uleb128 0x1
 3354 008e 13       		.uleb128 0x13
 3355 008f 00       		.byte	0
 3356 0090 00       		.byte	0
 3357 0091 0C       		.uleb128 0xc
 3358 0092 0D       		.uleb128 0xd
 3359 0093 00       		.byte	0
 3360 0094 03       		.uleb128 0x3
 3361 0095 08       		.uleb128 0x8
 3362 0096 3A       		.uleb128 0x3a
 3363 0097 0B       		.uleb128 0xb
 3364 0098 3B       		.uleb128 0x3b
 3365 0099 05       		.uleb128 0x5
 3366 009a 49       		.uleb128 0x49
 3367 009b 13       		.uleb128 0x13
 3368 009c 38       		.uleb128 0x38
 3369 009d 0A       		.uleb128 0xa
 3370 009e 00       		.byte	0
 3371 009f 00       		.byte	0
 3372 00a0 0D       		.uleb128 0xd
 3373 00a1 15       		.uleb128 0x15
 3374 00a2 01       		.byte	0x1
 3375 00a3 27       		.uleb128 0x27
 3376 00a4 0C       		.uleb128 0xc
 3377 00a5 01       		.uleb128 0x1
 3378 00a6 13       		.uleb128 0x13
 3379 00a7 00       		.byte	0
 3380 00a8 00       		.byte	0
 3381 00a9 0E       		.uleb128 0xe
 3382 00aa 05       		.uleb128 0x5
 3383 00ab 00       		.byte	0
 3384 00ac 49       		.uleb128 0x49
 3385 00ad 13       		.uleb128 0x13
 3386 00ae 00       		.byte	0
 3387 00af 00       		.byte	0
 3388 00b0 0F       		.uleb128 0xf
 3389 00b1 35       		.uleb128 0x35
 3390 00b2 00       		.byte	0
 3391 00b3 49       		.uleb128 0x49
 3392 00b4 13       		.uleb128 0x13
 3393 00b5 00       		.byte	0
 3394 00b6 00       		.byte	0
ARM GAS  C:\Users\jenny\AppData\Local\Temp\ccPGDPsp.s 			page 61


 3395 00b7 10       		.uleb128 0x10
 3396 00b8 15       		.uleb128 0x15
 3397 00b9 01       		.byte	0x1
 3398 00ba 27       		.uleb128 0x27
 3399 00bb 0C       		.uleb128 0xc
 3400 00bc 49       		.uleb128 0x49
 3401 00bd 13       		.uleb128 0x13
 3402 00be 01       		.uleb128 0x1
 3403 00bf 13       		.uleb128 0x13
 3404 00c0 00       		.byte	0
 3405 00c1 00       		.byte	0
 3406 00c2 11       		.uleb128 0x11
 3407 00c3 17       		.uleb128 0x17
 3408 00c4 01       		.byte	0x1
 3409 00c5 0B       		.uleb128 0xb
 3410 00c6 0B       		.uleb128 0xb
 3411 00c7 3A       		.uleb128 0x3a
 3412 00c8 0B       		.uleb128 0xb
 3413 00c9 3B       		.uleb128 0x3b
 3414 00ca 0B       		.uleb128 0xb
 3415 00cb 01       		.uleb128 0x1
 3416 00cc 13       		.uleb128 0x13
 3417 00cd 00       		.byte	0
 3418 00ce 00       		.byte	0
 3419 00cf 12       		.uleb128 0x12
 3420 00d0 0D       		.uleb128 0xd
 3421 00d1 00       		.byte	0
 3422 00d2 03       		.uleb128 0x3
 3423 00d3 0E       		.uleb128 0xe
 3424 00d4 3A       		.uleb128 0x3a
 3425 00d5 0B       		.uleb128 0xb
 3426 00d6 3B       		.uleb128 0x3b
 3427 00d7 0B       		.uleb128 0xb
 3428 00d8 49       		.uleb128 0x49
 3429 00d9 13       		.uleb128 0x13
 3430 00da 00       		.byte	0
 3431 00db 00       		.byte	0
 3432 00dc 13       		.uleb128 0x13
 3433 00dd 17       		.uleb128 0x17
 3434 00de 01       		.byte	0x1
 3435 00df 03       		.uleb128 0x3
 3436 00e0 0E       		.uleb128 0xe
 3437 00e1 0B       		.uleb128 0xb
 3438 00e2 0B       		.uleb128 0xb
 3439 00e3 3A       		.uleb128 0x3a
 3440 00e4 0B       		.uleb128 0xb
 3441 00e5 3B       		.uleb128 0x3b
 3442 00e6 0B       		.uleb128 0xb
 3443 00e7 01       		.uleb128 0x1
 3444 00e8 13       		.uleb128 0x13
 3445 00e9 00       		.byte	0
 3446 00ea 00       		.byte	0
 3447 00eb 14       		.uleb128 0x14
 3448 00ec 0D       		.uleb128 0xd
 3449 00ed 00       		.byte	0
 3450 00ee 03       		.uleb128 0x3
 3451 00ef 08       		.uleb128 0x8
ARM GAS  C:\Users\jenny\AppData\Local\Temp\ccPGDPsp.s 			page 62


 3452 00f0 3A       		.uleb128 0x3a
 3453 00f1 0B       		.uleb128 0xb
 3454 00f2 3B       		.uleb128 0x3b
 3455 00f3 0B       		.uleb128 0xb
 3456 00f4 49       		.uleb128 0x49
 3457 00f5 13       		.uleb128 0x13
 3458 00f6 00       		.byte	0
 3459 00f7 00       		.byte	0
 3460 00f8 15       		.uleb128 0x15
 3461 00f9 26       		.uleb128 0x26
 3462 00fa 00       		.byte	0
 3463 00fb 49       		.uleb128 0x49
 3464 00fc 13       		.uleb128 0x13
 3465 00fd 00       		.byte	0
 3466 00fe 00       		.byte	0
 3467 00ff 16       		.uleb128 0x16
 3468 0100 13       		.uleb128 0x13
 3469 0101 01       		.byte	0x1
 3470 0102 03       		.uleb128 0x3
 3471 0103 0E       		.uleb128 0xe
 3472 0104 0B       		.uleb128 0xb
 3473 0105 05       		.uleb128 0x5
 3474 0106 3A       		.uleb128 0x3a
 3475 0107 0B       		.uleb128 0xb
 3476 0108 3B       		.uleb128 0x3b
 3477 0109 0B       		.uleb128 0xb
 3478 010a 01       		.uleb128 0x1
 3479 010b 13       		.uleb128 0x13
 3480 010c 00       		.byte	0
 3481 010d 00       		.byte	0
 3482 010e 17       		.uleb128 0x17
 3483 010f 01       		.uleb128 0x1
 3484 0110 01       		.byte	0x1
 3485 0111 49       		.uleb128 0x49
 3486 0112 13       		.uleb128 0x13
 3487 0113 01       		.uleb128 0x1
 3488 0114 13       		.uleb128 0x13
 3489 0115 00       		.byte	0
 3490 0116 00       		.byte	0
 3491 0117 18       		.uleb128 0x18
 3492 0118 21       		.uleb128 0x21
 3493 0119 00       		.byte	0
 3494 011a 49       		.uleb128 0x49
 3495 011b 13       		.uleb128 0x13
 3496 011c 2F       		.uleb128 0x2f
 3497 011d 0B       		.uleb128 0xb
 3498 011e 00       		.byte	0
 3499 011f 00       		.byte	0
 3500 0120 19       		.uleb128 0x19
 3501 0121 2E       		.uleb128 0x2e
 3502 0122 00       		.byte	0
 3503 0123 3F       		.uleb128 0x3f
 3504 0124 0C       		.uleb128 0xc
 3505 0125 03       		.uleb128 0x3
 3506 0126 0E       		.uleb128 0xe
 3507 0127 3A       		.uleb128 0x3a
 3508 0128 0B       		.uleb128 0xb
ARM GAS  C:\Users\jenny\AppData\Local\Temp\ccPGDPsp.s 			page 63


 3509 0129 3B       		.uleb128 0x3b
 3510 012a 0B       		.uleb128 0xb
 3511 012b 27       		.uleb128 0x27
 3512 012c 0C       		.uleb128 0xc
 3513 012d 11       		.uleb128 0x11
 3514 012e 01       		.uleb128 0x1
 3515 012f 12       		.uleb128 0x12
 3516 0130 01       		.uleb128 0x1
 3517 0131 40       		.uleb128 0x40
 3518 0132 0A       		.uleb128 0xa
 3519 0133 9742     		.uleb128 0x2117
 3520 0135 0C       		.uleb128 0xc
 3521 0136 00       		.byte	0
 3522 0137 00       		.byte	0
 3523 0138 1A       		.uleb128 0x1a
 3524 0139 2E       		.uleb128 0x2e
 3525 013a 01       		.byte	0x1
 3526 013b 3F       		.uleb128 0x3f
 3527 013c 0C       		.uleb128 0xc
 3528 013d 03       		.uleb128 0x3
 3529 013e 0E       		.uleb128 0xe
 3530 013f 3A       		.uleb128 0x3a
 3531 0140 0B       		.uleb128 0xb
 3532 0141 3B       		.uleb128 0x3b
 3533 0142 0B       		.uleb128 0xb
 3534 0143 27       		.uleb128 0x27
 3535 0144 0C       		.uleb128 0xc
 3536 0145 49       		.uleb128 0x49
 3537 0146 13       		.uleb128 0x13
 3538 0147 11       		.uleb128 0x11
 3539 0148 01       		.uleb128 0x1
 3540 0149 12       		.uleb128 0x12
 3541 014a 01       		.uleb128 0x1
 3542 014b 40       		.uleb128 0x40
 3543 014c 06       		.uleb128 0x6
 3544 014d 9742     		.uleb128 0x2117
 3545 014f 0C       		.uleb128 0xc
 3546 0150 01       		.uleb128 0x1
 3547 0151 13       		.uleb128 0x13
 3548 0152 00       		.byte	0
 3549 0153 00       		.byte	0
 3550 0154 1B       		.uleb128 0x1b
 3551 0155 05       		.uleb128 0x5
 3552 0156 00       		.byte	0
 3553 0157 03       		.uleb128 0x3
 3554 0158 08       		.uleb128 0x8
 3555 0159 3A       		.uleb128 0x3a
 3556 015a 0B       		.uleb128 0xb
 3557 015b 3B       		.uleb128 0x3b
 3558 015c 0B       		.uleb128 0xb
 3559 015d 49       		.uleb128 0x49
 3560 015e 13       		.uleb128 0x13
 3561 015f 02       		.uleb128 0x2
 3562 0160 06       		.uleb128 0x6
 3563 0161 00       		.byte	0
 3564 0162 00       		.byte	0
 3565 0163 1C       		.uleb128 0x1c
ARM GAS  C:\Users\jenny\AppData\Local\Temp\ccPGDPsp.s 			page 64


 3566 0164 05       		.uleb128 0x5
 3567 0165 00       		.byte	0
 3568 0166 03       		.uleb128 0x3
 3569 0167 0E       		.uleb128 0xe
 3570 0168 3A       		.uleb128 0x3a
 3571 0169 0B       		.uleb128 0xb
 3572 016a 3B       		.uleb128 0x3b
 3573 016b 0B       		.uleb128 0xb
 3574 016c 49       		.uleb128 0x49
 3575 016d 13       		.uleb128 0x13
 3576 016e 02       		.uleb128 0x2
 3577 016f 06       		.uleb128 0x6
 3578 0170 00       		.byte	0
 3579 0171 00       		.byte	0
 3580 0172 1D       		.uleb128 0x1d
 3581 0173 898201   		.uleb128 0x4109
 3582 0176 01       		.byte	0x1
 3583 0177 11       		.uleb128 0x11
 3584 0178 01       		.uleb128 0x1
 3585 0179 31       		.uleb128 0x31
 3586 017a 13       		.uleb128 0x13
 3587 017b 01       		.uleb128 0x1
 3588 017c 13       		.uleb128 0x13
 3589 017d 00       		.byte	0
 3590 017e 00       		.byte	0
 3591 017f 1E       		.uleb128 0x1e
 3592 0180 8A8201   		.uleb128 0x410a
 3593 0183 00       		.byte	0
 3594 0184 02       		.uleb128 0x2
 3595 0185 0A       		.uleb128 0xa
 3596 0186 9142     		.uleb128 0x2111
 3597 0188 0A       		.uleb128 0xa
 3598 0189 00       		.byte	0
 3599 018a 00       		.byte	0
 3600 018b 1F       		.uleb128 0x1f
 3601 018c 898201   		.uleb128 0x4109
 3602 018f 01       		.byte	0x1
 3603 0190 11       		.uleb128 0x11
 3604 0191 01       		.uleb128 0x1
 3605 0192 31       		.uleb128 0x31
 3606 0193 13       		.uleb128 0x13
 3607 0194 00       		.byte	0
 3608 0195 00       		.byte	0
 3609 0196 20       		.uleb128 0x20
 3610 0197 2E       		.uleb128 0x2e
 3611 0198 01       		.byte	0x1
 3612 0199 3F       		.uleb128 0x3f
 3613 019a 0C       		.uleb128 0xc
 3614 019b 03       		.uleb128 0x3
 3615 019c 0E       		.uleb128 0xe
 3616 019d 3A       		.uleb128 0x3a
 3617 019e 0B       		.uleb128 0xb
 3618 019f 3B       		.uleb128 0x3b
 3619 01a0 0B       		.uleb128 0xb
 3620 01a1 27       		.uleb128 0x27
 3621 01a2 0C       		.uleb128 0xc
 3622 01a3 11       		.uleb128 0x11
ARM GAS  C:\Users\jenny\AppData\Local\Temp\ccPGDPsp.s 			page 65


 3623 01a4 01       		.uleb128 0x1
 3624 01a5 12       		.uleb128 0x12
 3625 01a6 01       		.uleb128 0x1
 3626 01a7 40       		.uleb128 0x40
 3627 01a8 06       		.uleb128 0x6
 3628 01a9 9742     		.uleb128 0x2117
 3629 01ab 0C       		.uleb128 0xc
 3630 01ac 01       		.uleb128 0x1
 3631 01ad 13       		.uleb128 0x13
 3632 01ae 00       		.byte	0
 3633 01af 00       		.byte	0
 3634 01b0 21       		.uleb128 0x21
 3635 01b1 898201   		.uleb128 0x4109
 3636 01b4 00       		.byte	0
 3637 01b5 11       		.uleb128 0x11
 3638 01b6 01       		.uleb128 0x1
 3639 01b7 31       		.uleb128 0x31
 3640 01b8 13       		.uleb128 0x13
 3641 01b9 00       		.byte	0
 3642 01ba 00       		.byte	0
 3643 01bb 22       		.uleb128 0x22
 3644 01bc 2E       		.uleb128 0x2e
 3645 01bd 01       		.byte	0x1
 3646 01be 3F       		.uleb128 0x3f
 3647 01bf 0C       		.uleb128 0xc
 3648 01c0 03       		.uleb128 0x3
 3649 01c1 0E       		.uleb128 0xe
 3650 01c2 3A       		.uleb128 0x3a
 3651 01c3 0B       		.uleb128 0xb
 3652 01c4 3B       		.uleb128 0x3b
 3653 01c5 0B       		.uleb128 0xb
 3654 01c6 27       		.uleb128 0x27
 3655 01c7 0C       		.uleb128 0xc
 3656 01c8 11       		.uleb128 0x11
 3657 01c9 01       		.uleb128 0x1
 3658 01ca 12       		.uleb128 0x12
 3659 01cb 01       		.uleb128 0x1
 3660 01cc 40       		.uleb128 0x40
 3661 01cd 0A       		.uleb128 0xa
 3662 01ce 9742     		.uleb128 0x2117
 3663 01d0 0C       		.uleb128 0xc
 3664 01d1 01       		.uleb128 0x1
 3665 01d2 13       		.uleb128 0x13
 3666 01d3 00       		.byte	0
 3667 01d4 00       		.byte	0
 3668 01d5 23       		.uleb128 0x23
 3669 01d6 898201   		.uleb128 0x4109
 3670 01d9 00       		.byte	0
 3671 01da 11       		.uleb128 0x11
 3672 01db 01       		.uleb128 0x1
 3673 01dc 9542     		.uleb128 0x2115
 3674 01de 0C       		.uleb128 0xc
 3675 01df 31       		.uleb128 0x31
 3676 01e0 13       		.uleb128 0x13
 3677 01e1 00       		.byte	0
 3678 01e2 00       		.byte	0
 3679 01e3 24       		.uleb128 0x24
ARM GAS  C:\Users\jenny\AppData\Local\Temp\ccPGDPsp.s 			page 66


 3680 01e4 34       		.uleb128 0x34
 3681 01e5 00       		.byte	0
 3682 01e6 03       		.uleb128 0x3
 3683 01e7 0E       		.uleb128 0xe
 3684 01e8 3A       		.uleb128 0x3a
 3685 01e9 0B       		.uleb128 0xb
 3686 01ea 3B       		.uleb128 0x3b
 3687 01eb 0B       		.uleb128 0xb
 3688 01ec 49       		.uleb128 0x49
 3689 01ed 13       		.uleb128 0x13
 3690 01ee 02       		.uleb128 0x2
 3691 01ef 06       		.uleb128 0x6
 3692 01f0 00       		.byte	0
 3693 01f1 00       		.byte	0
 3694 01f2 25       		.uleb128 0x25
 3695 01f3 34       		.uleb128 0x34
 3696 01f4 00       		.byte	0
 3697 01f5 03       		.uleb128 0x3
 3698 01f6 08       		.uleb128 0x8
 3699 01f7 3A       		.uleb128 0x3a
 3700 01f8 0B       		.uleb128 0xb
 3701 01f9 3B       		.uleb128 0x3b
 3702 01fa 0B       		.uleb128 0xb
 3703 01fb 49       		.uleb128 0x49
 3704 01fc 13       		.uleb128 0x13
 3705 01fd 02       		.uleb128 0x2
 3706 01fe 06       		.uleb128 0x6
 3707 01ff 00       		.byte	0
 3708 0200 00       		.byte	0
 3709 0201 26       		.uleb128 0x26
 3710 0202 0B       		.uleb128 0xb
 3711 0203 01       		.byte	0x1
 3712 0204 11       		.uleb128 0x11
 3713 0205 01       		.uleb128 0x1
 3714 0206 12       		.uleb128 0x12
 3715 0207 01       		.uleb128 0x1
 3716 0208 01       		.uleb128 0x1
 3717 0209 13       		.uleb128 0x13
 3718 020a 00       		.byte	0
 3719 020b 00       		.byte	0
 3720 020c 27       		.uleb128 0x27
 3721 020d 2E       		.uleb128 0x2e
 3722 020e 01       		.byte	0x1
 3723 020f 3F       		.uleb128 0x3f
 3724 0210 0C       		.uleb128 0xc
 3725 0211 03       		.uleb128 0x3
 3726 0212 0E       		.uleb128 0xe
 3727 0213 3A       		.uleb128 0x3a
 3728 0214 0B       		.uleb128 0xb
 3729 0215 3B       		.uleb128 0x3b
 3730 0216 0B       		.uleb128 0xb
 3731 0217 27       		.uleb128 0x27
 3732 0218 0C       		.uleb128 0xc
 3733 0219 49       		.uleb128 0x49
 3734 021a 13       		.uleb128 0x13
 3735 021b 11       		.uleb128 0x11
 3736 021c 01       		.uleb128 0x1
ARM GAS  C:\Users\jenny\AppData\Local\Temp\ccPGDPsp.s 			page 67


 3737 021d 12       		.uleb128 0x12
 3738 021e 01       		.uleb128 0x1
 3739 021f 40       		.uleb128 0x40
 3740 0220 0A       		.uleb128 0xa
 3741 0221 9742     		.uleb128 0x2117
 3742 0223 0C       		.uleb128 0xc
 3743 0224 01       		.uleb128 0x1
 3744 0225 13       		.uleb128 0x13
 3745 0226 00       		.byte	0
 3746 0227 00       		.byte	0
 3747 0228 28       		.uleb128 0x28
 3748 0229 05       		.uleb128 0x5
 3749 022a 00       		.byte	0
 3750 022b 03       		.uleb128 0x3
 3751 022c 08       		.uleb128 0x8
 3752 022d 3A       		.uleb128 0x3a
 3753 022e 0B       		.uleb128 0xb
 3754 022f 3B       		.uleb128 0x3b
 3755 0230 0B       		.uleb128 0xb
 3756 0231 49       		.uleb128 0x49
 3757 0232 13       		.uleb128 0x13
 3758 0233 02       		.uleb128 0x2
 3759 0234 0A       		.uleb128 0xa
 3760 0235 00       		.byte	0
 3761 0236 00       		.byte	0
 3762 0237 29       		.uleb128 0x29
 3763 0238 898201   		.uleb128 0x4109
 3764 023b 01       		.byte	0x1
 3765 023c 11       		.uleb128 0x11
 3766 023d 01       		.uleb128 0x1
 3767 023e 9542     		.uleb128 0x2115
 3768 0240 0C       		.uleb128 0xc
 3769 0241 31       		.uleb128 0x31
 3770 0242 13       		.uleb128 0x13
 3771 0243 00       		.byte	0
 3772 0244 00       		.byte	0
 3773 0245 2A       		.uleb128 0x2a
 3774 0246 05       		.uleb128 0x5
 3775 0247 00       		.byte	0
 3776 0248 03       		.uleb128 0x3
 3777 0249 0E       		.uleb128 0xe
 3778 024a 3A       		.uleb128 0x3a
 3779 024b 0B       		.uleb128 0xb
 3780 024c 3B       		.uleb128 0x3b
 3781 024d 0B       		.uleb128 0xb
 3782 024e 49       		.uleb128 0x49
 3783 024f 13       		.uleb128 0x13
 3784 0250 02       		.uleb128 0x2
 3785 0251 0A       		.uleb128 0xa
 3786 0252 00       		.byte	0
 3787 0253 00       		.byte	0
 3788 0254 2B       		.uleb128 0x2b
 3789 0255 34       		.uleb128 0x34
 3790 0256 00       		.byte	0
 3791 0257 03       		.uleb128 0x3
 3792 0258 08       		.uleb128 0x8
 3793 0259 3A       		.uleb128 0x3a
ARM GAS  C:\Users\jenny\AppData\Local\Temp\ccPGDPsp.s 			page 68


 3794 025a 0B       		.uleb128 0xb
 3795 025b 3B       		.uleb128 0x3b
 3796 025c 0B       		.uleb128 0xb
 3797 025d 49       		.uleb128 0x49
 3798 025e 13       		.uleb128 0x13
 3799 025f 02       		.uleb128 0x2
 3800 0260 0A       		.uleb128 0xa
 3801 0261 00       		.byte	0
 3802 0262 00       		.byte	0
 3803 0263 2C       		.uleb128 0x2c
 3804 0264 0B       		.uleb128 0xb
 3805 0265 01       		.byte	0x1
 3806 0266 11       		.uleb128 0x11
 3807 0267 01       		.uleb128 0x1
 3808 0268 12       		.uleb128 0x12
 3809 0269 01       		.uleb128 0x1
 3810 026a 00       		.byte	0
 3811 026b 00       		.byte	0
 3812 026c 2D       		.uleb128 0x2d
 3813 026d 2E       		.uleb128 0x2e
 3814 026e 00       		.byte	0
 3815 026f 3F       		.uleb128 0x3f
 3816 0270 0C       		.uleb128 0xc
 3817 0271 03       		.uleb128 0x3
 3818 0272 0E       		.uleb128 0xe
 3819 0273 3A       		.uleb128 0x3a
 3820 0274 0B       		.uleb128 0xb
 3821 0275 3B       		.uleb128 0x3b
 3822 0276 0B       		.uleb128 0xb
 3823 0277 27       		.uleb128 0x27
 3824 0278 0C       		.uleb128 0xc
 3825 0279 49       		.uleb128 0x49
 3826 027a 13       		.uleb128 0x13
 3827 027b 11       		.uleb128 0x11
 3828 027c 01       		.uleb128 0x1
 3829 027d 12       		.uleb128 0x12
 3830 027e 01       		.uleb128 0x1
 3831 027f 40       		.uleb128 0x40
 3832 0280 0A       		.uleb128 0xa
 3833 0281 9742     		.uleb128 0x2117
 3834 0283 0C       		.uleb128 0xc
 3835 0284 00       		.byte	0
 3836 0285 00       		.byte	0
 3837 0286 2E       		.uleb128 0x2e
 3838 0287 34       		.uleb128 0x34
 3839 0288 00       		.byte	0
 3840 0289 03       		.uleb128 0x3
 3841 028a 0E       		.uleb128 0xe
 3842 028b 3A       		.uleb128 0x3a
 3843 028c 0B       		.uleb128 0xb
 3844 028d 3B       		.uleb128 0x3b
 3845 028e 0B       		.uleb128 0xb
 3846 028f 49       		.uleb128 0x49
 3847 0290 13       		.uleb128 0x13
 3848 0291 3F       		.uleb128 0x3f
 3849 0292 0C       		.uleb128 0xc
 3850 0293 3C       		.uleb128 0x3c
ARM GAS  C:\Users\jenny\AppData\Local\Temp\ccPGDPsp.s 			page 69


 3851 0294 0C       		.uleb128 0xc
 3852 0295 00       		.byte	0
 3853 0296 00       		.byte	0
 3854 0297 2F       		.uleb128 0x2f
 3855 0298 2E       		.uleb128 0x2e
 3856 0299 01       		.byte	0x1
 3857 029a 3F       		.uleb128 0x3f
 3858 029b 0C       		.uleb128 0xc
 3859 029c 03       		.uleb128 0x3
 3860 029d 0E       		.uleb128 0xe
 3861 029e 3A       		.uleb128 0x3a
 3862 029f 0B       		.uleb128 0xb
 3863 02a0 3B       		.uleb128 0x3b
 3864 02a1 0B       		.uleb128 0xb
 3865 02a2 27       		.uleb128 0x27
 3866 02a3 0C       		.uleb128 0xc
 3867 02a4 49       		.uleb128 0x49
 3868 02a5 13       		.uleb128 0x13
 3869 02a6 3C       		.uleb128 0x3c
 3870 02a7 0C       		.uleb128 0xc
 3871 02a8 01       		.uleb128 0x1
 3872 02a9 13       		.uleb128 0x13
 3873 02aa 00       		.byte	0
 3874 02ab 00       		.byte	0
 3875 02ac 30       		.uleb128 0x30
 3876 02ad 2E       		.uleb128 0x2e
 3877 02ae 01       		.byte	0x1
 3878 02af 3F       		.uleb128 0x3f
 3879 02b0 0C       		.uleb128 0xc
 3880 02b1 03       		.uleb128 0x3
 3881 02b2 0E       		.uleb128 0xe
 3882 02b3 3A       		.uleb128 0x3a
 3883 02b4 0B       		.uleb128 0xb
 3884 02b5 3B       		.uleb128 0x3b
 3885 02b6 0B       		.uleb128 0xb
 3886 02b7 27       		.uleb128 0x27
 3887 02b8 0C       		.uleb128 0xc
 3888 02b9 3C       		.uleb128 0x3c
 3889 02ba 0C       		.uleb128 0xc
 3890 02bb 01       		.uleb128 0x1
 3891 02bc 13       		.uleb128 0x13
 3892 02bd 00       		.byte	0
 3893 02be 00       		.byte	0
 3894 02bf 31       		.uleb128 0x31
 3895 02c0 2E       		.uleb128 0x2e
 3896 02c1 00       		.byte	0
 3897 02c2 3F       		.uleb128 0x3f
 3898 02c3 0C       		.uleb128 0xc
 3899 02c4 03       		.uleb128 0x3
 3900 02c5 0E       		.uleb128 0xe
 3901 02c6 3A       		.uleb128 0x3a
 3902 02c7 0B       		.uleb128 0xb
 3903 02c8 3B       		.uleb128 0x3b
 3904 02c9 0B       		.uleb128 0xb
 3905 02ca 27       		.uleb128 0x27
 3906 02cb 0C       		.uleb128 0xc
 3907 02cc 3C       		.uleb128 0x3c
ARM GAS  C:\Users\jenny\AppData\Local\Temp\ccPGDPsp.s 			page 70


 3908 02cd 0C       		.uleb128 0xc
 3909 02ce 00       		.byte	0
 3910 02cf 00       		.byte	0
 3911 02d0 32       		.uleb128 0x32
 3912 02d1 2E       		.uleb128 0x2e
 3913 02d2 01       		.byte	0x1
 3914 02d3 3F       		.uleb128 0x3f
 3915 02d4 0C       		.uleb128 0xc
 3916 02d5 03       		.uleb128 0x3
 3917 02d6 0E       		.uleb128 0xe
 3918 02d7 3A       		.uleb128 0x3a
 3919 02d8 0B       		.uleb128 0xb
 3920 02d9 3B       		.uleb128 0x3b
 3921 02da 05       		.uleb128 0x5
 3922 02db 27       		.uleb128 0x27
 3923 02dc 0C       		.uleb128 0xc
 3924 02dd 49       		.uleb128 0x49
 3925 02de 13       		.uleb128 0x13
 3926 02df 3C       		.uleb128 0x3c
 3927 02e0 0C       		.uleb128 0xc
 3928 02e1 00       		.byte	0
 3929 02e2 00       		.byte	0
 3930 02e3 00       		.byte	0
 3931              		.section	.debug_loc,"",%progbits
 3932              	.Ldebug_loc0:
 3933              	.LLST0:
 3934 0000 00000000 		.4byte	.LFB8
 3935 0004 02000000 		.4byte	.LCFI0
 3936 0008 0200     		.2byte	0x2
 3937 000a 7D       		.byte	0x7d
 3938 000b 00       		.sleb128 0
 3939 000c 02000000 		.4byte	.LCFI0
 3940 0010 4C000000 		.4byte	.LFE8
 3941 0014 0200     		.2byte	0x2
 3942 0016 7D       		.byte	0x7d
 3943 0017 10       		.sleb128 16
 3944 0018 00000000 		.4byte	0
 3945 001c 00000000 		.4byte	0
 3946              	.LLST1:
 3947 0020 00000000 		.4byte	.LVL0
 3948 0024 08000000 		.4byte	.LVL1
 3949 0028 0100     		.2byte	0x1
 3950 002a 50       		.byte	0x50
 3951 002b 08000000 		.4byte	.LVL1
 3952 002f 4C000000 		.4byte	.LFE8
 3953 0033 0100     		.2byte	0x1
 3954 0035 54       		.byte	0x54
 3955 0036 00000000 		.4byte	0
 3956 003a 00000000 		.4byte	0
 3957              	.LLST2:
 3958 003e 00000000 		.4byte	.LVL0
 3959 0042 0A000000 		.4byte	.LVL2
 3960 0046 0100     		.2byte	0x1
 3961 0048 51       		.byte	0x51
 3962 0049 0A000000 		.4byte	.LVL2
 3963 004d 4C000000 		.4byte	.LFE8
 3964 0051 0400     		.2byte	0x4
ARM GAS  C:\Users\jenny\AppData\Local\Temp\ccPGDPsp.s 			page 71


 3965 0053 F3       		.byte	0xf3
 3966 0054 01       		.uleb128 0x1
 3967 0055 51       		.byte	0x51
 3968 0056 9F       		.byte	0x9f
 3969 0057 00000000 		.4byte	0
 3970 005b 00000000 		.4byte	0
 3971              	.LLST3:
 3972 005f 00000000 		.4byte	.LFB9
 3973 0063 02000000 		.4byte	.LCFI1
 3974 0067 0200     		.2byte	0x2
 3975 0069 7D       		.byte	0x7d
 3976 006a 00       		.sleb128 0
 3977 006b 02000000 		.4byte	.LCFI1
 3978 006f 22000000 		.4byte	.LFE9
 3979 0073 0200     		.2byte	0x2
 3980 0075 7D       		.byte	0x7d
 3981 0076 08       		.sleb128 8
 3982 0077 00000000 		.4byte	0
 3983 007b 00000000 		.4byte	0
 3984              	.LLST4:
 3985 007f 00000000 		.4byte	.LVL5
 3986 0083 06000000 		.4byte	.LVL6
 3987 0087 0100     		.2byte	0x1
 3988 0089 50       		.byte	0x50
 3989 008a 06000000 		.4byte	.LVL6
 3990 008e 22000000 		.4byte	.LFE9
 3991 0092 0100     		.2byte	0x1
 3992 0094 54       		.byte	0x54
 3993 0095 00000000 		.4byte	0
 3994 0099 00000000 		.4byte	0
 3995              	.LLST5:
 3996 009d 00000000 		.4byte	.LVL8
 3997 00a1 02000000 		.4byte	.LVL9
 3998 00a5 0100     		.2byte	0x1
 3999 00a7 50       		.byte	0x50
 4000 00a8 02000000 		.4byte	.LVL9
 4001 00ac 06000000 		.4byte	.LFE10
 4002 00b0 0400     		.2byte	0x4
 4003 00b2 F3       		.byte	0xf3
 4004 00b3 01       		.uleb128 0x1
 4005 00b4 50       		.byte	0x50
 4006 00b5 9F       		.byte	0x9f
 4007 00b6 00000000 		.4byte	0
 4008 00ba 00000000 		.4byte	0
 4009              	.LLST6:
 4010 00be 00000000 		.4byte	.LFB11
 4011 00c2 02000000 		.4byte	.LCFI2
 4012 00c6 0200     		.2byte	0x2
 4013 00c8 7D       		.byte	0x7d
 4014 00c9 00       		.sleb128 0
 4015 00ca 02000000 		.4byte	.LCFI2
 4016 00ce 10000000 		.4byte	.LFE11
 4017 00d2 0200     		.2byte	0x2
 4018 00d4 7D       		.byte	0x7d
 4019 00d5 08       		.sleb128 8
 4020 00d6 00000000 		.4byte	0
 4021 00da 00000000 		.4byte	0
ARM GAS  C:\Users\jenny\AppData\Local\Temp\ccPGDPsp.s 			page 72


 4022              	.LLST7:
 4023 00de 00000000 		.4byte	.LVL11
 4024 00e2 04000000 		.4byte	.LVL12
 4025 00e6 0100     		.2byte	0x1
 4026 00e8 50       		.byte	0x50
 4027 00e9 04000000 		.4byte	.LVL12
 4028 00ed 10000000 		.4byte	.LFE11
 4029 00f1 0400     		.2byte	0x4
 4030 00f3 F3       		.byte	0xf3
 4031 00f4 01       		.uleb128 0x1
 4032 00f5 50       		.byte	0x50
 4033 00f6 9F       		.byte	0x9f
 4034 00f7 00000000 		.4byte	0
 4035 00fb 00000000 		.4byte	0
 4036              	.LLST8:
 4037 00ff 00000000 		.4byte	.LFB12
 4038 0103 02000000 		.4byte	.LCFI3
 4039 0107 0200     		.2byte	0x2
 4040 0109 7D       		.byte	0x7d
 4041 010a 00       		.sleb128 0
 4042 010b 02000000 		.4byte	.LCFI3
 4043 010f 34000000 		.4byte	.LFE12
 4044 0113 0200     		.2byte	0x2
 4045 0115 7D       		.byte	0x7d
 4046 0116 10       		.sleb128 16
 4047 0117 00000000 		.4byte	0
 4048 011b 00000000 		.4byte	0
 4049              	.LLST9:
 4050 011f 00000000 		.4byte	.LVL15
 4051 0123 0C000000 		.4byte	.LVL18
 4052 0127 0100     		.2byte	0x1
 4053 0129 50       		.byte	0x50
 4054 012a 0C000000 		.4byte	.LVL18
 4055 012e 34000000 		.4byte	.LFE12
 4056 0132 0400     		.2byte	0x4
 4057 0134 F3       		.byte	0xf3
 4058 0135 01       		.uleb128 0x1
 4059 0136 50       		.byte	0x50
 4060 0137 9F       		.byte	0x9f
 4061 0138 00000000 		.4byte	0
 4062 013c 00000000 		.4byte	0
 4063              	.LLST10:
 4064 0140 00000000 		.4byte	.LVL15
 4065 0144 16000000 		.4byte	.LVL20
 4066 0148 0100     		.2byte	0x1
 4067 014a 51       		.byte	0x51
 4068 014b 16000000 		.4byte	.LVL20
 4069 014f 34000000 		.4byte	.LFE12
 4070 0153 0400     		.2byte	0x4
 4071 0155 F3       		.byte	0xf3
 4072 0156 01       		.uleb128 0x1
 4073 0157 51       		.byte	0x51
 4074 0158 9F       		.byte	0x9f
 4075 0159 00000000 		.4byte	0
 4076 015d 00000000 		.4byte	0
 4077              	.LLST11:
 4078 0161 0E000000 		.4byte	.LVL19
ARM GAS  C:\Users\jenny\AppData\Local\Temp\ccPGDPsp.s 			page 73


 4079 0165 20000000 		.4byte	.LVL22
 4080 0169 0100     		.2byte	0x1
 4081 016b 55       		.byte	0x55
 4082 016c 20000000 		.4byte	.LVL22
 4083 0170 28000000 		.4byte	.LVL25
 4084 0174 0100     		.2byte	0x1
 4085 0176 50       		.byte	0x50
 4086 0177 28000000 		.4byte	.LVL25
 4087 017b 2C000000 		.4byte	.LVL26
 4088 017f 0100     		.2byte	0x1
 4089 0181 55       		.byte	0x55
 4090 0182 2C000000 		.4byte	.LVL26
 4091 0186 34000000 		.4byte	.LFE12
 4092 018a 0100     		.2byte	0x1
 4093 018c 50       		.byte	0x50
 4094 018d 00000000 		.4byte	0
 4095 0191 00000000 		.4byte	0
 4096              	.LLST12:
 4097 0195 08000000 		.4byte	.LVL17
 4098 0199 16000000 		.4byte	.LVL20
 4099 019d 0E00     		.2byte	0xe
 4100 019f 71       		.byte	0x71
 4101 01a0 00       		.sleb128 0
 4102 01a1 09       		.byte	0x9
 4103 01a2 FF       		.byte	0xff
 4104 01a3 71       		.byte	0x71
 4105 01a4 00       		.sleb128 0
 4106 01a5 30       		.byte	0x30
 4107 01a6 2E       		.byte	0x2e
 4108 01a7 28       		.byte	0x28
 4109 01a8 0100     		.2byte	0x1
 4110 01aa 16       		.byte	0x16
 4111 01ab 13       		.byte	0x13
 4112 01ac 9F       		.byte	0x9f
 4113 01ad 16000000 		.4byte	.LVL20
 4114 01b1 19000000 		.4byte	.LVL21-1
 4115 01b5 0100     		.2byte	0x1
 4116 01b7 51       		.byte	0x51
 4117 01b8 19000000 		.4byte	.LVL21-1
 4118 01bc 34000000 		.4byte	.LFE12
 4119 01c0 1000     		.2byte	0x10
 4120 01c2 F3       		.byte	0xf3
 4121 01c3 01       		.uleb128 0x1
 4122 01c4 51       		.byte	0x51
 4123 01c5 09       		.byte	0x9
 4124 01c6 FF       		.byte	0xff
 4125 01c7 F3       		.byte	0xf3
 4126 01c8 01       		.uleb128 0x1
 4127 01c9 51       		.byte	0x51
 4128 01ca 30       		.byte	0x30
 4129 01cb 2E       		.byte	0x2e
 4130 01cc 28       		.byte	0x28
 4131 01cd 0100     		.2byte	0x1
 4132 01cf 16       		.byte	0x16
 4133 01d0 13       		.byte	0x13
 4134 01d1 9F       		.byte	0x9f
 4135 01d2 00000000 		.4byte	0
ARM GAS  C:\Users\jenny\AppData\Local\Temp\ccPGDPsp.s 			page 74


 4136 01d6 00000000 		.4byte	0
 4137              	.LLST13:
 4138 01da 08000000 		.4byte	.LVL17
 4139 01de 19000000 		.4byte	.LVL21-1
 4140 01e2 0100     		.2byte	0x1
 4141 01e4 53       		.byte	0x53
 4142 01e5 00000000 		.4byte	0
 4143 01e9 00000000 		.4byte	0
 4144              	.LLST14:
 4145 01ed 26000000 		.4byte	.LVL24
 4146 01f1 28000000 		.4byte	.LVL25
 4147 01f5 0100     		.2byte	0x1
 4148 01f7 53       		.byte	0x53
 4149 01f8 00000000 		.4byte	0
 4150 01fc 00000000 		.4byte	0
 4151              	.LLST15:
 4152 0200 00000000 		.4byte	.LVL27
 4153 0204 02000000 		.4byte	.LVL28
 4154 0208 0100     		.2byte	0x1
 4155 020a 50       		.byte	0x50
 4156 020b 02000000 		.4byte	.LVL28
 4157 020f 0A000000 		.4byte	.LFE13
 4158 0213 0400     		.2byte	0x4
 4159 0215 F3       		.byte	0xf3
 4160 0216 01       		.uleb128 0x1
 4161 0217 50       		.byte	0x50
 4162 0218 9F       		.byte	0x9f
 4163 0219 00000000 		.4byte	0
 4164 021d 00000000 		.4byte	0
 4165              	.LLST16:
 4166 0221 00000000 		.4byte	.LFB15
 4167 0225 02000000 		.4byte	.LCFI4
 4168 0229 0200     		.2byte	0x2
 4169 022b 7D       		.byte	0x7d
 4170 022c 00       		.sleb128 0
 4171 022d 02000000 		.4byte	.LCFI4
 4172 0231 48000000 		.4byte	.LFE15
 4173 0235 0200     		.2byte	0x2
 4174 0237 7D       		.byte	0x7d
 4175 0238 10       		.sleb128 16
 4176 0239 00000000 		.4byte	0
 4177 023d 00000000 		.4byte	0
 4178              	.LLST17:
 4179 0241 00000000 		.4byte	.LVL30
 4180 0245 0E000000 		.4byte	.LVL32
 4181 0249 0100     		.2byte	0x1
 4182 024b 50       		.byte	0x50
 4183 024c 0E000000 		.4byte	.LVL32
 4184 0250 48000000 		.4byte	.LFE15
 4185 0254 0100     		.2byte	0x1
 4186 0256 55       		.byte	0x55
 4187 0257 00000000 		.4byte	0
 4188 025b 00000000 		.4byte	0
 4189              	.LLST18:
 4190 025f 00000000 		.4byte	.LVL30
 4191 0263 08000000 		.4byte	.LVL31
 4192 0267 0100     		.2byte	0x1
ARM GAS  C:\Users\jenny\AppData\Local\Temp\ccPGDPsp.s 			page 75


 4193 0269 51       		.byte	0x51
 4194 026a 08000000 		.4byte	.LVL31
 4195 026e 48000000 		.4byte	.LFE15
 4196 0272 0100     		.2byte	0x1
 4197 0274 54       		.byte	0x54
 4198 0275 00000000 		.4byte	0
 4199 0279 00000000 		.4byte	0
 4200              	.LLST19:
 4201 027d 00000000 		.4byte	.LFB16
 4202 0281 02000000 		.4byte	.LCFI5
 4203 0285 0200     		.2byte	0x2
 4204 0287 7D       		.byte	0x7d
 4205 0288 00       		.sleb128 0
 4206 0289 02000000 		.4byte	.LCFI5
 4207 028d 34000000 		.4byte	.LFE16
 4208 0291 0200     		.2byte	0x2
 4209 0293 7D       		.byte	0x7d
 4210 0294 10       		.sleb128 16
 4211 0295 00000000 		.4byte	0
 4212 0299 00000000 		.4byte	0
 4213              	.LLST20:
 4214 029d 00000000 		.4byte	.LVL35
 4215 02a1 06000000 		.4byte	.LVL36
 4216 02a5 0100     		.2byte	0x1
 4217 02a7 50       		.byte	0x50
 4218 02a8 06000000 		.4byte	.LVL36
 4219 02ac 34000000 		.4byte	.LFE16
 4220 02b0 0100     		.2byte	0x1
 4221 02b2 55       		.byte	0x55
 4222 02b3 00000000 		.4byte	0
 4223 02b7 00000000 		.4byte	0
 4224              	.LLST21:
 4225 02bb 00000000 		.4byte	.LVL39
 4226 02bf 02000000 		.4byte	.LVL40
 4227 02c3 0100     		.2byte	0x1
 4228 02c5 50       		.byte	0x50
 4229 02c6 02000000 		.4byte	.LVL40
 4230 02ca 0A000000 		.4byte	.LFE17
 4231 02ce 0400     		.2byte	0x4
 4232 02d0 F3       		.byte	0xf3
 4233 02d1 01       		.uleb128 0x1
 4234 02d2 50       		.byte	0x50
 4235 02d3 9F       		.byte	0x9f
 4236 02d4 00000000 		.4byte	0
 4237 02d8 00000000 		.4byte	0
 4238              	.LLST22:
 4239 02dc 00000000 		.4byte	.LVL39
 4240 02e0 09000000 		.4byte	.LVL41-1
 4241 02e4 0100     		.2byte	0x1
 4242 02e6 51       		.byte	0x51
 4243 02e7 09000000 		.4byte	.LVL41-1
 4244 02eb 0A000000 		.4byte	.LFE17
 4245 02ef 0400     		.2byte	0x4
 4246 02f1 F3       		.byte	0xf3
 4247 02f2 01       		.uleb128 0x1
 4248 02f3 51       		.byte	0x51
 4249 02f4 9F       		.byte	0x9f
ARM GAS  C:\Users\jenny\AppData\Local\Temp\ccPGDPsp.s 			page 76


 4250 02f5 00000000 		.4byte	0
 4251 02f9 00000000 		.4byte	0
 4252              	.LLST23:
 4253 02fd 00000000 		.4byte	.LFB18
 4254 0301 04000000 		.4byte	.LCFI6
 4255 0305 0200     		.2byte	0x2
 4256 0307 7D       		.byte	0x7d
 4257 0308 00       		.sleb128 0
 4258 0309 04000000 		.4byte	.LCFI6
 4259 030d 28000000 		.4byte	.LFE18
 4260 0311 0200     		.2byte	0x2
 4261 0313 7D       		.byte	0x7d
 4262 0314 08       		.sleb128 8
 4263 0315 00000000 		.4byte	0
 4264 0319 00000000 		.4byte	0
 4265              	.LLST24:
 4266 031d 00000000 		.4byte	.LVL42
 4267 0321 06000000 		.4byte	.LVL43
 4268 0325 0100     		.2byte	0x1
 4269 0327 50       		.byte	0x50
 4270 0328 06000000 		.4byte	.LVL43
 4271 032c 28000000 		.4byte	.LFE18
 4272 0330 0400     		.2byte	0x4
 4273 0332 F3       		.byte	0xf3
 4274 0333 01       		.uleb128 0x1
 4275 0334 50       		.byte	0x50
 4276 0335 9F       		.byte	0x9f
 4277 0336 00000000 		.4byte	0
 4278 033a 00000000 		.4byte	0
 4279              	.LLST25:
 4280 033e 00000000 		.4byte	.LVL42
 4281 0342 09000000 		.4byte	.LVL44-1
 4282 0346 0100     		.2byte	0x1
 4283 0348 51       		.byte	0x51
 4284 0349 09000000 		.4byte	.LVL44-1
 4285 034d 28000000 		.4byte	.LFE18
 4286 0351 0400     		.2byte	0x4
 4287 0353 F3       		.byte	0xf3
 4288 0354 01       		.uleb128 0x1
 4289 0355 51       		.byte	0x51
 4290 0356 9F       		.byte	0x9f
 4291 0357 00000000 		.4byte	0
 4292 035b 00000000 		.4byte	0
 4293              	.LLST26:
 4294 035f 00000000 		.4byte	.LFB19
 4295 0363 02000000 		.4byte	.LCFI7
 4296 0367 0200     		.2byte	0x2
 4297 0369 7D       		.byte	0x7d
 4298 036a 00       		.sleb128 0
 4299 036b 02000000 		.4byte	.LCFI7
 4300 036f 34000000 		.4byte	.LFE19
 4301 0373 0200     		.2byte	0x2
 4302 0375 7D       		.byte	0x7d
 4303 0376 10       		.sleb128 16
 4304 0377 00000000 		.4byte	0
 4305 037b 00000000 		.4byte	0
 4306              	.LLST27:
ARM GAS  C:\Users\jenny\AppData\Local\Temp\ccPGDPsp.s 			page 77


 4307 037f 00000000 		.4byte	.LVL45
 4308 0383 0C000000 		.4byte	.LVL48
 4309 0387 0100     		.2byte	0x1
 4310 0389 50       		.byte	0x50
 4311 038a 0C000000 		.4byte	.LVL48
 4312 038e 34000000 		.4byte	.LFE19
 4313 0392 0400     		.2byte	0x4
 4314 0394 F3       		.byte	0xf3
 4315 0395 01       		.uleb128 0x1
 4316 0396 50       		.byte	0x50
 4317 0397 9F       		.byte	0x9f
 4318 0398 00000000 		.4byte	0
 4319 039c 00000000 		.4byte	0
 4320              	.LLST28:
 4321 03a0 00000000 		.4byte	.LVL45
 4322 03a4 19000000 		.4byte	.LVL51-1
 4323 03a8 0100     		.2byte	0x1
 4324 03aa 51       		.byte	0x51
 4325 03ab 19000000 		.4byte	.LVL51-1
 4326 03af 34000000 		.4byte	.LFE19
 4327 03b3 0400     		.2byte	0x4
 4328 03b5 F3       		.byte	0xf3
 4329 03b6 01       		.uleb128 0x1
 4330 03b7 51       		.byte	0x51
 4331 03b8 9F       		.byte	0x9f
 4332 03b9 00000000 		.4byte	0
 4333 03bd 00000000 		.4byte	0
 4334              	.LLST29:
 4335 03c1 00000000 		.4byte	.LVL45
 4336 03c5 16000000 		.4byte	.LVL50
 4337 03c9 0100     		.2byte	0x1
 4338 03cb 52       		.byte	0x52
 4339 03cc 16000000 		.4byte	.LVL50
 4340 03d0 34000000 		.4byte	.LFE19
 4341 03d4 0400     		.2byte	0x4
 4342 03d6 F3       		.byte	0xf3
 4343 03d7 01       		.uleb128 0x1
 4344 03d8 52       		.byte	0x52
 4345 03d9 9F       		.byte	0x9f
 4346 03da 00000000 		.4byte	0
 4347 03de 00000000 		.4byte	0
 4348              	.LLST30:
 4349 03e2 0E000000 		.4byte	.LVL49
 4350 03e6 20000000 		.4byte	.LVL52
 4351 03ea 0100     		.2byte	0x1
 4352 03ec 55       		.byte	0x55
 4353 03ed 20000000 		.4byte	.LVL52
 4354 03f1 28000000 		.4byte	.LVL55
 4355 03f5 0100     		.2byte	0x1
 4356 03f7 50       		.byte	0x50
 4357 03f8 28000000 		.4byte	.LVL55
 4358 03fc 2C000000 		.4byte	.LVL56
 4359 0400 0100     		.2byte	0x1
 4360 0402 55       		.byte	0x55
 4361 0403 2C000000 		.4byte	.LVL56
 4362 0407 34000000 		.4byte	.LFE19
 4363 040b 0100     		.2byte	0x1
ARM GAS  C:\Users\jenny\AppData\Local\Temp\ccPGDPsp.s 			page 78


 4364 040d 50       		.byte	0x50
 4365 040e 00000000 		.4byte	0
 4366 0412 00000000 		.4byte	0
 4367              	.LLST31:
 4368 0416 08000000 		.4byte	.LVL47
 4369 041a 16000000 		.4byte	.LVL50
 4370 041e 0E00     		.2byte	0xe
 4371 0420 72       		.byte	0x72
 4372 0421 00       		.sleb128 0
 4373 0422 09       		.byte	0x9
 4374 0423 FF       		.byte	0xff
 4375 0424 72       		.byte	0x72
 4376 0425 00       		.sleb128 0
 4377 0426 30       		.byte	0x30
 4378 0427 2E       		.byte	0x2e
 4379 0428 28       		.byte	0x28
 4380 0429 0100     		.2byte	0x1
 4381 042b 16       		.byte	0x16
 4382 042c 13       		.byte	0x13
 4383 042d 9F       		.byte	0x9f
 4384 042e 16000000 		.4byte	.LVL50
 4385 0432 19000000 		.4byte	.LVL51-1
 4386 0436 0100     		.2byte	0x1
 4387 0438 52       		.byte	0x52
 4388 0439 19000000 		.4byte	.LVL51-1
 4389 043d 34000000 		.4byte	.LFE19
 4390 0441 1000     		.2byte	0x10
 4391 0443 F3       		.byte	0xf3
 4392 0444 01       		.uleb128 0x1
 4393 0445 52       		.byte	0x52
 4394 0446 09       		.byte	0x9
 4395 0447 FF       		.byte	0xff
 4396 0448 F3       		.byte	0xf3
 4397 0449 01       		.uleb128 0x1
 4398 044a 52       		.byte	0x52
 4399 044b 30       		.byte	0x30
 4400 044c 2E       		.byte	0x2e
 4401 044d 28       		.byte	0x28
 4402 044e 0100     		.2byte	0x1
 4403 0450 16       		.byte	0x16
 4404 0451 13       		.byte	0x13
 4405 0452 9F       		.byte	0x9f
 4406 0453 00000000 		.4byte	0
 4407 0457 00000000 		.4byte	0
 4408              	.LLST32:
 4409 045b 08000000 		.4byte	.LVL47
 4410 045f 19000000 		.4byte	.LVL51-1
 4411 0463 0100     		.2byte	0x1
 4412 0465 53       		.byte	0x53
 4413 0466 00000000 		.4byte	0
 4414 046a 00000000 		.4byte	0
 4415              	.LLST33:
 4416 046e 26000000 		.4byte	.LVL54
 4417 0472 28000000 		.4byte	.LVL55
 4418 0476 0100     		.2byte	0x1
 4419 0478 53       		.byte	0x53
 4420 0479 00000000 		.4byte	0
ARM GAS  C:\Users\jenny\AppData\Local\Temp\ccPGDPsp.s 			page 79


 4421 047d 00000000 		.4byte	0
 4422              	.LLST34:
 4423 0481 00000000 		.4byte	.LFB20
 4424 0485 02000000 		.4byte	.LCFI8
 4425 0489 0200     		.2byte	0x2
 4426 048b 7D       		.byte	0x7d
 4427 048c 00       		.sleb128 0
 4428 048d 02000000 		.4byte	.LCFI8
 4429 0491 18000000 		.4byte	.LFE20
 4430 0495 0200     		.2byte	0x2
 4431 0497 7D       		.byte	0x7d
 4432 0498 08       		.sleb128 8
 4433 0499 00000000 		.4byte	0
 4434 049d 00000000 		.4byte	0
 4435              	.LLST35:
 4436 04a1 00000000 		.4byte	.LVL57
 4437 04a5 06000000 		.4byte	.LVL58
 4438 04a9 0100     		.2byte	0x1
 4439 04ab 50       		.byte	0x50
 4440 04ac 06000000 		.4byte	.LVL58
 4441 04b0 18000000 		.4byte	.LFE20
 4442 04b4 0400     		.2byte	0x4
 4443 04b6 F3       		.byte	0xf3
 4444 04b7 01       		.uleb128 0x1
 4445 04b8 50       		.byte	0x50
 4446 04b9 9F       		.byte	0x9f
 4447 04ba 00000000 		.4byte	0
 4448 04be 00000000 		.4byte	0
 4449              	.LLST36:
 4450 04c2 00000000 		.4byte	.LVL57
 4451 04c6 09000000 		.4byte	.LVL59-1
 4452 04ca 0100     		.2byte	0x1
 4453 04cc 51       		.byte	0x51
 4454 04cd 09000000 		.4byte	.LVL59-1
 4455 04d1 18000000 		.4byte	.LFE20
 4456 04d5 0400     		.2byte	0x4
 4457 04d7 F3       		.byte	0xf3
 4458 04d8 01       		.uleb128 0x1
 4459 04d9 51       		.byte	0x51
 4460 04da 9F       		.byte	0x9f
 4461 04db 00000000 		.4byte	0
 4462 04df 00000000 		.4byte	0
 4463              	.LLST37:
 4464 04e3 00000000 		.4byte	.LVL60
 4465 04e7 02000000 		.4byte	.LVL61
 4466 04eb 0100     		.2byte	0x1
 4467 04ed 50       		.byte	0x50
 4468 04ee 02000000 		.4byte	.LVL61
 4469 04f2 0A000000 		.4byte	.LFE21
 4470 04f6 0400     		.2byte	0x4
 4471 04f8 F3       		.byte	0xf3
 4472 04f9 01       		.uleb128 0x1
 4473 04fa 50       		.byte	0x50
 4474 04fb 9F       		.byte	0x9f
 4475 04fc 00000000 		.4byte	0
 4476 0500 00000000 		.4byte	0
 4477              	.LLST38:
ARM GAS  C:\Users\jenny\AppData\Local\Temp\ccPGDPsp.s 			page 80


 4478 0504 00000000 		.4byte	.LFB23
 4479 0508 08000000 		.4byte	.LCFI9
 4480 050c 0200     		.2byte	0x2
 4481 050e 7D       		.byte	0x7d
 4482 050f 00       		.sleb128 0
 4483 0510 08000000 		.4byte	.LCFI9
 4484 0514 30000000 		.4byte	.LFE23
 4485 0518 0200     		.2byte	0x2
 4486 051a 7D       		.byte	0x7d
 4487 051b 18       		.sleb128 24
 4488 051c 00000000 		.4byte	0
 4489 0520 00000000 		.4byte	0
 4490              	.LLST39:
 4491 0524 00000000 		.4byte	.LVL63
 4492 0528 10000000 		.4byte	.LVL66
 4493 052c 0100     		.2byte	0x1
 4494 052e 50       		.byte	0x50
 4495 052f 10000000 		.4byte	.LVL66
 4496 0533 30000000 		.4byte	.LFE23
 4497 0537 0400     		.2byte	0x4
 4498 0539 F3       		.byte	0xf3
 4499 053a 01       		.uleb128 0x1
 4500 053b 50       		.byte	0x50
 4501 053c 9F       		.byte	0x9f
 4502 053d 00000000 		.4byte	0
 4503 0541 00000000 		.4byte	0
 4504              	.LLST40:
 4505 0545 00000000 		.4byte	.LVL63
 4506 0549 19000000 		.4byte	.LVL67-1
 4507 054d 0100     		.2byte	0x1
 4508 054f 51       		.byte	0x51
 4509 0550 19000000 		.4byte	.LVL67-1
 4510 0554 30000000 		.4byte	.LFE23
 4511 0558 0100     		.2byte	0x1
 4512 055a 55       		.byte	0x55
 4513 055b 00000000 		.4byte	0
 4514 055f 00000000 		.4byte	0
 4515              	.LLST41:
 4516 0563 00000000 		.4byte	.LVL63
 4517 0567 19000000 		.4byte	.LVL67-1
 4518 056b 0100     		.2byte	0x1
 4519 056d 52       		.byte	0x52
 4520 056e 19000000 		.4byte	.LVL67-1
 4521 0572 30000000 		.4byte	.LFE23
 4522 0576 0100     		.2byte	0x1
 4523 0578 57       		.byte	0x57
 4524 0579 00000000 		.4byte	0
 4525 057d 00000000 		.4byte	0
 4526              	.LLST42:
 4527 0581 00000000 		.4byte	.LVL63
 4528 0585 04000000 		.4byte	.LVL64
 4529 0589 0100     		.2byte	0x1
 4530 058b 53       		.byte	0x53
 4531 058c 04000000 		.4byte	.LVL64
 4532 0590 19000000 		.4byte	.LVL67-1
 4533 0594 0400     		.2byte	0x4
 4534 0596 73       		.byte	0x73
ARM GAS  C:\Users\jenny\AppData\Local\Temp\ccPGDPsp.s 			page 81


 4535 0597 CD7D     		.sleb128 -307
 4536 0599 9F       		.byte	0x9f
 4537 059a 19000000 		.4byte	.LVL67-1
 4538 059e 30000000 		.4byte	.LFE23
 4539 05a2 0400     		.2byte	0x4
 4540 05a4 F3       		.byte	0xf3
 4541 05a5 01       		.uleb128 0x1
 4542 05a6 53       		.byte	0x53
 4543 05a7 9F       		.byte	0x9f
 4544 05a8 00000000 		.4byte	0
 4545 05ac 00000000 		.4byte	0
 4546              	.LLST43:
 4547 05b0 1A000000 		.4byte	.LVL67
 4548 05b4 2B000000 		.4byte	.LVL68-1
 4549 05b8 0100     		.2byte	0x1
 4550 05ba 50       		.byte	0x50
 4551 05bb 2C000000 		.4byte	.LVL68
 4552 05bf 30000000 		.4byte	.LFE23
 4553 05c3 0100     		.2byte	0x1
 4554 05c5 50       		.byte	0x50
 4555 05c6 00000000 		.4byte	0
 4556 05ca 00000000 		.4byte	0
 4557              	.LLST44:
 4558 05ce 06000000 		.4byte	.LVL70
 4559 05d2 0A000000 		.4byte	.LFE24
 4560 05d6 0100     		.2byte	0x1
 4561 05d8 53       		.byte	0x53
 4562 05d9 00000000 		.4byte	0
 4563 05dd 00000000 		.4byte	0
 4564              	.LLST45:
 4565 05e1 06000000 		.4byte	.LVL73
 4566 05e5 08000000 		.4byte	.LFE25
 4567 05e9 0100     		.2byte	0x1
 4568 05eb 53       		.byte	0x53
 4569 05ec 00000000 		.4byte	0
 4570 05f0 00000000 		.4byte	0
 4571              		.section	.debug_aranges,"",%progbits
 4572 0000 B4000000 		.4byte	0xb4
 4573 0004 0200     		.2byte	0x2
 4574 0006 00000000 		.4byte	.Ldebug_info0
 4575 000a 04       		.byte	0x4
 4576 000b 00       		.byte	0
 4577 000c 0000     		.2byte	0
 4578 000e 0000     		.2byte	0
 4579 0010 00000000 		.4byte	.LFB7
 4580 0014 02000000 		.4byte	.LFE7-.LFB7
 4581 0018 00000000 		.4byte	.LFB8
 4582 001c 4C000000 		.4byte	.LFE8-.LFB8
 4583 0020 00000000 		.4byte	.LFB9
 4584 0024 22000000 		.4byte	.LFE9-.LFB9
 4585 0028 00000000 		.4byte	.LFB10
 4586 002c 06000000 		.4byte	.LFE10-.LFB10
 4587 0030 00000000 		.4byte	.LFB11
 4588 0034 10000000 		.4byte	.LFE11-.LFB11
 4589 0038 00000000 		.4byte	.LFB12
 4590 003c 34000000 		.4byte	.LFE12-.LFB12
 4591 0040 00000000 		.4byte	.LFB13
ARM GAS  C:\Users\jenny\AppData\Local\Temp\ccPGDPsp.s 			page 82


 4592 0044 0A000000 		.4byte	.LFE13-.LFB13
 4593 0048 00000000 		.4byte	.LFB14
 4594 004c 06000000 		.4byte	.LFE14-.LFB14
 4595 0050 00000000 		.4byte	.LFB15
 4596 0054 48000000 		.4byte	.LFE15-.LFB15
 4597 0058 00000000 		.4byte	.LFB16
 4598 005c 34000000 		.4byte	.LFE16-.LFB16
 4599 0060 00000000 		.4byte	.LFB17
 4600 0064 0A000000 		.4byte	.LFE17-.LFB17
 4601 0068 00000000 		.4byte	.LFB18
 4602 006c 28000000 		.4byte	.LFE18-.LFB18
 4603 0070 00000000 		.4byte	.LFB19
 4604 0074 34000000 		.4byte	.LFE19-.LFB19
 4605 0078 00000000 		.4byte	.LFB20
 4606 007c 18000000 		.4byte	.LFE20-.LFB20
 4607 0080 00000000 		.4byte	.LFB21
 4608 0084 0A000000 		.4byte	.LFE21-.LFB21
 4609 0088 00000000 		.4byte	.LFB22
 4610 008c 06000000 		.4byte	.LFE22-.LFB22
 4611 0090 00000000 		.4byte	.LFB23
 4612 0094 30000000 		.4byte	.LFE23-.LFB23
 4613 0098 00000000 		.4byte	.LFB24
 4614 009c 0A000000 		.4byte	.LFE24-.LFB24
 4615 00a0 00000000 		.4byte	.LFB25
 4616 00a4 08000000 		.4byte	.LFE25-.LFB25
 4617 00a8 00000000 		.4byte	.LFB26
 4618 00ac 0C000000 		.4byte	.LFE26-.LFB26
 4619 00b0 00000000 		.4byte	0
 4620 00b4 00000000 		.4byte	0
 4621              		.section	.debug_ranges,"",%progbits
 4622              	.Ldebug_ranges0:
 4623 0000 00000000 		.4byte	.LFB7
 4624 0004 02000000 		.4byte	.LFE7
 4625 0008 00000000 		.4byte	.LFB8
 4626 000c 4C000000 		.4byte	.LFE8
 4627 0010 00000000 		.4byte	.LFB9
 4628 0014 22000000 		.4byte	.LFE9
 4629 0018 00000000 		.4byte	.LFB10
 4630 001c 06000000 		.4byte	.LFE10
 4631 0020 00000000 		.4byte	.LFB11
 4632 0024 10000000 		.4byte	.LFE11
 4633 0028 00000000 		.4byte	.LFB12
 4634 002c 34000000 		.4byte	.LFE12
 4635 0030 00000000 		.4byte	.LFB13
 4636 0034 0A000000 		.4byte	.LFE13
 4637 0038 00000000 		.4byte	.LFB14
 4638 003c 06000000 		.4byte	.LFE14
 4639 0040 00000000 		.4byte	.LFB15
 4640 0044 48000000 		.4byte	.LFE15
 4641 0048 00000000 		.4byte	.LFB16
 4642 004c 34000000 		.4byte	.LFE16
 4643 0050 00000000 		.4byte	.LFB17
 4644 0054 0A000000 		.4byte	.LFE17
 4645 0058 00000000 		.4byte	.LFB18
 4646 005c 28000000 		.4byte	.LFE18
 4647 0060 00000000 		.4byte	.LFB19
 4648 0064 34000000 		.4byte	.LFE19
ARM GAS  C:\Users\jenny\AppData\Local\Temp\ccPGDPsp.s 			page 83


 4649 0068 00000000 		.4byte	.LFB20
 4650 006c 18000000 		.4byte	.LFE20
 4651 0070 00000000 		.4byte	.LFB21
 4652 0074 0A000000 		.4byte	.LFE21
 4653 0078 00000000 		.4byte	.LFB22
 4654 007c 06000000 		.4byte	.LFE22
 4655 0080 00000000 		.4byte	.LFB23
 4656 0084 30000000 		.4byte	.LFE23
 4657 0088 00000000 		.4byte	.LFB24
 4658 008c 0A000000 		.4byte	.LFE24
 4659 0090 00000000 		.4byte	.LFB25
 4660 0094 08000000 		.4byte	.LFE25
 4661 0098 00000000 		.4byte	.LFB26
 4662 009c 0C000000 		.4byte	.LFE26
 4663 00a0 00000000 		.4byte	0
 4664 00a4 00000000 		.4byte	0
 4665              		.section	.debug_line,"",%progbits
 4666              	.Ldebug_line0:
 4667 0000 B8030000 		.section	.debug_str,"MS",%progbits,1
 4667      02000902 
 4667      00000201 
 4667      FB0E0D00 
 4667      01010101 
 4668              	.LASF53:
 4669 0000 76746675 		.ascii	"vtfunc_t\000"
 4669      6E635F74 
 4669      00
 4670              	.LASF47:
 4671 0009 54687265 		.ascii	"ThreadsList\000"
 4671      6164734C 
 4671      69737400 
 4672              	.LASF39:
 4673 0015 705F7761 		.ascii	"p_waiting\000"
 4673      6974696E 
 4673      6700
 4674              	.LASF99:
 4675 001f 7379735F 		.ascii	"sys_mbox_t\000"
 4675      6D626F78 
 4675      5F7400
 4676              	.LASF38:
 4677 002a 705F7469 		.ascii	"p_time\000"
 4677      6D6500
 4678              	.LASF48:
 4679 0031 72656761 		.ascii	"regarm_t\000"
 4679      726D5F74 
 4679      00
 4680              	.LASF29:
 4681 003a 705F7072 		.ascii	"p_prio\000"
 4681      696F00
 4682              	.LASF24:
 4683 0041 73797374 		.ascii	"systime_t\000"
 4683      696D655F 
 4683      7400
 4684              	.LASF67:
 4685 004b 6D5F6F77 		.ascii	"m_owner\000"
 4685      6E657200 
 4686              	.LASF63:
ARM GAS  C:\Users\jenny\AppData\Local\Temp\ccPGDPsp.s 			page 84


 4687 0053 735F7175 		.ascii	"s_queue\000"
 4687      65756500 
 4688              	.LASF60:
 4689 005b 76745F73 		.ascii	"vt_systime\000"
 4689      79737469 
 4689      6D6500
 4690              	.LASF145:
 4691 0066 7379735F 		.ascii	"sys_mbox_set_invalid\000"
 4691      6D626F78 
 4691      5F736574 
 4691      5F696E76 
 4691      616C6964 
 4692              	.LASF40:
 4693 007b 705F6D73 		.ascii	"p_msgqueue\000"
 4693      67717565 
 4693      756500
 4694              	.LASF0:
 4695 0086 756E7369 		.ascii	"unsigned int\000"
 4695      676E6564 
 4695      20696E74 
 4695      00
 4696              	.LASF82:
 4697 0093 6E657874 		.ascii	"next\000"
 4697      00
 4698              	.LASF146:
 4699 0098 7379735F 		.ascii	"sys_thread_new\000"
 4699      74687265 
 4699      61645F6E 
 4699      657700
 4700              	.LASF97:
 4701 00a7 6572725F 		.ascii	"err_t\000"
 4701      7400
 4702              	.LASF80:
 4703 00ad 685F6672 		.ascii	"h_free\000"
 4703      656500
 4704              	.LASF83:
 4705 00b4 68656170 		.ascii	"heap\000"
 4705      00
 4706              	.LASF88:
 4707 00b9 77746F62 		.ascii	"wtobjp\000"
 4707      6A7000
 4708              	.LASF154:
 4709 00c0 76746C69 		.ascii	"vtlist\000"
 4709      737400
 4710              	.LASF159:
 4711 00c7 63685365 		.ascii	"chSemSignalI\000"
 4711      6D536967 
 4711      6E616C49 
 4711      00
 4712              	.LASF114:
 4713 00d4 73746174 		.ascii	"stats_mem\000"
 4713      735F6D65 
 4713      6D00
 4714              	.LASF89:
 4715 00de 65776D61 		.ascii	"ewmask\000"
 4715      736B00
 4716              	.LASF75:
ARM GAS  C:\Users\jenny\AppData\Local\Temp\ccPGDPsp.s 			page 85


 4717 00e5 4D61696C 		.ascii	"Mailbox\000"
 4717      626F7800 
 4718              	.LASF155:
 4719 00ed 6C776970 		.ascii	"lwip_stats\000"
 4719      5F737461 
 4719      747300
 4720              	.LASF64:
 4721 00f8 735F636E 		.ascii	"s_cnt\000"
 4721      7400
 4722              	.LASF118:
 4723 00fe 73746174 		.ascii	"stats_syselem\000"
 4723      735F7379 
 4723      73656C65 
 4723      6D00
 4724              	.LASF152:
 4725 010c 7379735F 		.ascii	"sys_arch_unprotect\000"
 4725      61726368 
 4725      5F756E70 
 4725      726F7465 
 4725      637400
 4726              	.LASF163:
 4727 011f 63684D42 		.ascii	"chMBReset\000"
 4727      52657365 
 4727      7400
 4728              	.LASF57:
 4729 0129 76745F74 		.ascii	"vt_time\000"
 4729      696D6500 
 4730              	.LASF11:
 4731 0131 75696E74 		.ascii	"uint32_t\000"
 4731      33325F74 
 4731      00
 4732              	.LASF2:
 4733 013a 696E7438 		.ascii	"int8_t\000"
 4733      5F7400
 4734              	.LASF23:
 4735 0141 6576656E 		.ascii	"eventmask_t\000"
 4735      746D6173 
 4735      6B5F7400 
 4736              	.LASF59:
 4737 014d 76745F70 		.ascii	"vt_par\000"
 4737      617200
 4738              	.LASF112:
 4739 0154 6F707465 		.ascii	"opterr\000"
 4739      727200
 4740              	.LASF120:
 4741 015b 6D757465 		.ascii	"mutex\000"
 4741      7800
 4742              	.LASF125:
 4743 0161 69705F66 		.ascii	"ip_frag\000"
 4743      72616700 
 4744              	.LASF21:
 4745 0169 74707269 		.ascii	"tprio_t\000"
 4745      6F5F7400 
 4746              	.LASF128:
 4747 0171 636F756E 		.ascii	"count\000"
 4747      7400
 4748              	.LASF117:
ARM GAS  C:\Users\jenny\AppData\Local\Temp\ccPGDPsp.s 			page 86


 4749 0177 696C6C65 		.ascii	"illegal\000"
 4749      67616C00 
 4750              	.LASF100:
 4751 017f 7379735F 		.ascii	"sys_thread_t\000"
 4751      74687265 
 4751      61645F74 
 4751      00
 4752              	.LASF91:
 4753 018c 7466756E 		.ascii	"tfunc_t\000"
 4753      635F7400 
 4754              	.LASF124:
 4755 0194 65746861 		.ascii	"etharp\000"
 4755      727000
 4756              	.LASF131:
 4757 019b 7379735F 		.ascii	"sys_sem_signal_S\000"
 4757      73656D5F 
 4757      7369676E 
 4757      616C5F53 
 4757      00
 4758              	.LASF15:
 4759 01ac 6C6F6E67 		.ascii	"long long unsigned int\000"
 4759      206C6F6E 
 4759      6720756E 
 4759      7369676E 
 4759      65642069 
 4760              	.LASF25:
 4761 01c3 636E745F 		.ascii	"cnt_t\000"
 4761      7400
 4762              	.LASF102:
 4763 01c9 6C776970 		.ascii	"lwip_thread_fn\000"
 4763      5F746872 
 4763      6561645F 
 4763      666E00
 4764              	.LASF135:
 4765 01d8 74696D65 		.ascii	"time\000"
 4765      00
 4766              	.LASF31:
 4767 01dd 705F6E65 		.ascii	"p_newer\000"
 4767      77657200 
 4768              	.LASF130:
 4769 01e5 7379735F 		.ascii	"sys_sem_signal\000"
 4769      73656D5F 
 4769      7369676E 
 4769      616C00
 4770              	.LASF116:
 4771 01f4 75736564 		.ascii	"used\000"
 4771      00
 4772              	.LASF122:
 4773 01f9 73746174 		.ascii	"stats_\000"
 4773      735F00
 4774              	.LASF139:
 4775 0200 7379735F 		.ascii	"sys_mbox_free\000"
 4775      6D626F78 
 4775      5F667265 
 4775      6500
 4776              	.LASF161:
 4777 020e 63685365 		.ascii	"chSemWaitTimeoutS\000"
ARM GAS  C:\Users\jenny\AppData\Local\Temp\ccPGDPsp.s 			page 87


 4777      6D576169 
 4777      7454696D 
 4777      656F7574 
 4777      5300
 4778              	.LASF170:
 4779 0220 2E2E2F2E 		.ascii	"../../os/various/lwip_bindings/arch/sys_arch.c\000"
 4779      2E2F6F73 
 4779      2F766172 
 4779      696F7573 
 4779      2F6C7769 
 4780              	.LASF172:
 4781 024f 68656170 		.ascii	"heap_header\000"
 4781      5F686561 
 4781      64657200 
 4782              	.LASF1:
 4783 025b 73697A65 		.ascii	"size_t\000"
 4783      5F7400
 4784              	.LASF86:
 4785 0262 7264796D 		.ascii	"rdymsg\000"
 4785      736700
 4786              	.LASF16:
 4787 0269 5F426F6F 		.ascii	"_Bool\000"
 4787      6C00
 4788              	.LASF72:
 4789 026f 6D625F72 		.ascii	"mb_rdptr\000"
 4789      64707472 
 4789      00
 4790              	.LASF98:
 4791 0278 7379735F 		.ascii	"sys_sem_t\000"
 4791      73656D5F 
 4791      7400
 4792              	.LASF93:
 4793 0282 73385F74 		.ascii	"s8_t\000"
 4793      00
 4794              	.LASF156:
 4795 0287 63685365 		.ascii	"chSemInit\000"
 4795      6D496E69 
 4795      7400
 4796              	.LASF171:
 4797 0291 443A5C6A 		.ascii	"D:\\jenny\\dev\\probe\\chibios\\chibios.workspace\\"
 4797      656E6E79 
 4797      5C646576 
 4797      5C70726F 
 4797      62655C63 
 4798 02be 64656D6F 		.ascii	"demos\\ARMCM4-STM32F407-LWIP-FATFS-USB\000"
 4798      735C4152 
 4798      4D434D34 
 4798      2D53544D 
 4798      33324634 
 4799              	.LASF175:
 4800 02e4 63685363 		.ascii	"chSchRescheduleS\000"
 4800      68526573 
 4800      63686564 
 4800      756C6553 
 4800      00
 4801              	.LASF65:
 4802 02f5 4D757465 		.ascii	"Mutex\000"
ARM GAS  C:\Users\jenny\AppData\Local\Temp\ccPGDPsp.s 			page 88


 4802      7800
 4803              	.LASF74:
 4804 02fb 6D625F65 		.ascii	"mb_emptysem\000"
 4804      6D707479 
 4804      73656D00 
 4805              	.LASF137:
 4806 0307 7379735F 		.ascii	"sys_sem_set_invalid\000"
 4806      73656D5F 
 4806      7365745F 
 4806      696E7661 
 4806      6C696400 
 4807              	.LASF173:
 4808 031b 7379735F 		.ascii	"sys_init\000"
 4808      696E6974 
 4808      00
 4809              	.LASF33:
 4810 0324 705F6E61 		.ascii	"p_name\000"
 4810      6D6500
 4811              	.LASF150:
 4812 032b 7072696F 		.ascii	"prio\000"
 4812      00
 4813              	.LASF79:
 4814 0330 685F7072 		.ascii	"h_provider\000"
 4814      6F766964 
 4814      657200
 4815              	.LASF46:
 4816 033b 54687265 		.ascii	"ThreadsQueue\000"
 4816      61647351 
 4816      75657565 
 4816      00
 4817              	.LASF90:
 4818 0348 63686172 		.ascii	"char\000"
 4818      00
 4819              	.LASF96:
 4820 034d 6D656D5F 		.ascii	"mem_size_t\000"
 4820      73697A65 
 4820      5F7400
 4821              	.LASF103:
 4822 0358 73746174 		.ascii	"stats_proto\000"
 4822      735F7072 
 4822      6F746F00 
 4823              	.LASF101:
 4824 0364 7379735F 		.ascii	"sys_prot_t\000"
 4824      70726F74 
 4824      5F7400
 4825              	.LASF26:
 4826 036f 54687265 		.ascii	"Thread\000"
 4826      616400
 4827              	.LASF18:
 4828 0376 74737461 		.ascii	"tstate_t\000"
 4828      74655F74 
 4828      00
 4829              	.LASF61:
 4830 037f 56544C69 		.ascii	"VTList\000"
 4830      737400
 4831              	.LASF32:
 4832 0386 705F6F6C 		.ascii	"p_older\000"
ARM GAS  C:\Users\jenny\AppData\Local\Temp\ccPGDPsp.s 			page 89


 4832      64657200 
 4833              	.LASF34:
 4834 038e 705F7374 		.ascii	"p_state\000"
 4834      61746500 
 4835              	.LASF167:
 4836 0396 6368436F 		.ascii	"chCoreAlloc\000"
 4836      7265416C 
 4836      6C6F6300 
 4837              	.LASF4:
 4838 03a2 75696E74 		.ascii	"uint8_t\000"
 4838      385F7400 
 4839              	.LASF73:
 4840 03aa 6D625F66 		.ascii	"mb_fullsem\000"
 4840      756C6C73 
 4840      656D00
 4841              	.LASF153:
 4842 03b5 7076616C 		.ascii	"pval\000"
 4842      00
 4843              	.LASF149:
 4844 03ba 73746163 		.ascii	"stacksize\000"
 4844      6B73697A 
 4844      6500
 4845              	.LASF160:
 4846 03c4 63684865 		.ascii	"chHeapAlloc\000"
 4846      6170416C 
 4846      6C6F6300 
 4847              	.LASF45:
 4848 03d0 705F6D70 		.ascii	"p_mpool\000"
 4848      6F6F6C00 
 4849              	.LASF43:
 4850 03d8 705F6D74 		.ascii	"p_mtxlist\000"
 4850      786C6973 
 4850      7400
 4851              	.LASF81:
 4852 03e2 685F6D74 		.ascii	"h_mtx\000"
 4852      7800
 4853              	.LASF13:
 4854 03e8 6C6F6E67 		.ascii	"long long int\000"
 4854      206C6F6E 
 4854      6720696E 
 4854      7400
 4855              	.LASF142:
 4856 03f6 7379735F 		.ascii	"sys_arch_mbox_fetch\000"
 4856      61726368 
 4856      5F6D626F 
 4856      785F6665 
 4856      74636800 
 4857              	.LASF132:
 4858 040a 7379735F 		.ascii	"sys_sem_new\000"
 4858      73656D5F 
 4858      6E657700 
 4859              	.LASF22:
 4860 0416 6D73675F 		.ascii	"msg_t\000"
 4860      7400
 4861              	.LASF157:
 4862 041c 63684865 		.ascii	"chHeapFree\000"
 4862      61704672 
ARM GAS  C:\Users\jenny\AppData\Local\Temp\ccPGDPsp.s 			page 90


 4862      656500
 4863              	.LASF51:
 4864 0427 636F6E74 		.ascii	"context\000"
 4864      65787400 
 4865              	.LASF92:
 4866 042f 75385F74 		.ascii	"u8_t\000"
 4866      00
 4867              	.LASF35:
 4868 0434 705F666C 		.ascii	"p_flags\000"
 4868      61677300 
 4869              	.LASF143:
 4870 043c 7379735F 		.ascii	"sys_arch_mbox_tryfetch\000"
 4870      61726368 
 4870      5F6D626F 
 4870      785F7472 
 4870      79666574 
 4871              	.LASF85:
 4872 0453 73697A65 		.ascii	"size\000"
 4872      00
 4873              	.LASF70:
 4874 0458 6D625F74 		.ascii	"mb_top\000"
 4874      6F7000
 4875              	.LASF144:
 4876 045f 7379735F 		.ascii	"sys_mbox_valid\000"
 4876      6D626F78 
 4876      5F76616C 
 4876      696400
 4877              	.LASF107:
 4878 046e 63686B65 		.ascii	"chkerr\000"
 4878      727200
 4879              	.LASF20:
 4880 0475 74736C69 		.ascii	"tslices_t\000"
 4880      6365735F 
 4880      7400
 4881              	.LASF109:
 4882 047f 6D656D65 		.ascii	"memerr\000"
 4882      727200
 4883              	.LASF168:
 4884 0486 63685468 		.ascii	"chThdCreateStatic\000"
 4884      64437265 
 4884      61746553 
 4884      74617469 
 4884      6300
 4885              	.LASF41:
 4886 0498 705F6D73 		.ascii	"p_msg\000"
 4886      6700
 4887              	.LASF17:
 4888 049e 746D6F64 		.ascii	"tmode_t\000"
 4888      655F7400 
 4889              	.LASF169:
 4890 04a6 474E5520 		.ascii	"GNU C 4.7.4 20130913 (release) [ARM/embedded-4_7-br"
 4890      4320342E 
 4890      372E3420 
 4890      32303133 
 4890      30393133 
 4891 04d9 616E6368 		.ascii	"anch revision 202601]\000"
 4891      20726576 
ARM GAS  C:\Users\jenny\AppData\Local\Temp\ccPGDPsp.s 			page 91


 4891      6973696F 
 4891      6E203230 
 4891      32363031 
 4892              	.LASF165:
 4893 04ef 63684D42 		.ascii	"chMBFetchS\000"
 4893      46657463 
 4893      685300
 4894              	.LASF141:
 4895 04fa 7379735F 		.ascii	"sys_mbox_trypost\000"
 4895      6D626F78 
 4895      5F747279 
 4895      706F7374 
 4895      00
 4896              	.LASF166:
 4897 050b 63684D42 		.ascii	"chMBFetch\000"
 4897      46657463 
 4897      6800
 4898              	.LASF7:
 4899 0515 75696E74 		.ascii	"uint16_t\000"
 4899      31365F74 
 4899      00
 4900              	.LASF50:
 4901 051e 696E7463 		.ascii	"intctx\000"
 4901      747800
 4902              	.LASF94:
 4903 0525 7531365F 		.ascii	"u16_t\000"
 4903      7400
 4904              	.LASF134:
 4905 052b 74696D65 		.ascii	"timeout\000"
 4905      6F757400 
 4906              	.LASF108:
 4907 0533 6C656E65 		.ascii	"lenerr\000"
 4907      727200
 4908              	.LASF44:
 4909 053a 705F7265 		.ascii	"p_realprio\000"
 4909      616C7072 
 4909      696F00
 4910              	.LASF95:
 4911 0545 7533325F 		.ascii	"u32_t\000"
 4911      7400
 4912              	.LASF6:
 4913 054b 73686F72 		.ascii	"short int\000"
 4913      7420696E 
 4913      7400
 4914              	.LASF78:
 4915 0555 6D656D6F 		.ascii	"memory_heap\000"
 4915      72795F68 
 4915      65617000 
 4916              	.LASF71:
 4917 0561 6D625F77 		.ascii	"mb_wrptr\000"
 4917      72707472 
 4917      00
 4918              	.LASF42:
 4919 056a 705F6570 		.ascii	"p_epending\000"
 4919      656E6469 
 4919      6E6700
 4920              	.LASF66:
ARM GAS  C:\Users\jenny\AppData\Local\Temp\ccPGDPsp.s 			page 92


 4921 0575 6D5F7175 		.ascii	"m_queue\000"
 4921      65756500 
 4922              	.LASF10:
 4923 057d 6C6F6E67 		.ascii	"long int\000"
 4923      20696E74 
 4923      00
 4924              	.LASF110:
 4925 0586 72746572 		.ascii	"rterr\000"
 4925      7200
 4926              	.LASF115:
 4927 058c 61766169 		.ascii	"avail\000"
 4927      6C00
 4928              	.LASF27:
 4929 0592 705F6E65 		.ascii	"p_next\000"
 4929      787400
 4930              	.LASF14:
 4931 0599 75696E74 		.ascii	"uint64_t\000"
 4931      36345F74 
 4931      00
 4932              	.LASF30:
 4933 05a2 705F6374 		.ascii	"p_ctx\000"
 4933      7800
 4934              	.LASF121:
 4935 05a8 6D626F78 		.ascii	"mbox\000"
 4935      00
 4936              	.LASF133:
 4937 05ad 7379735F 		.ascii	"sys_arch_sem_wait\000"
 4937      61726368 
 4937      5F73656D 
 4937      5F776169 
 4937      7400
 4938              	.LASF113:
 4939 05bf 63616368 		.ascii	"cachehit\000"
 4939      65686974 
 4939      00
 4940              	.LASF54:
 4941 05c8 56697274 		.ascii	"VirtualTimer\000"
 4941      75616C54 
 4941      696D6572 
 4941      00
 4942              	.LASF62:
 4943 05d5 53656D61 		.ascii	"Semaphore\000"
 4943      70686F72 
 4943      6500
 4944              	.LASF76:
 4945 05df 6D656D67 		.ascii	"memgetfunc_t\000"
 4945      65746675 
 4945      6E635F74 
 4945      00
 4946              	.LASF147:
 4947 05ec 6E616D65 		.ascii	"name\000"
 4947      00
 4948              	.LASF162:
 4949 05f1 63684D42 		.ascii	"chMBInit\000"
 4949      496E6974 
 4949      00
 4950              	.LASF158:
ARM GAS  C:\Users\jenny\AppData\Local\Temp\ccPGDPsp.s 			page 93


 4951 05fa 63685365 		.ascii	"chSemSignal\000"
 4951      6D536967 
 4951      6E616C00 
 4952              	.LASF151:
 4953 0606 7379735F 		.ascii	"sys_arch_protect\000"
 4953      61726368 
 4953      5F70726F 
 4953      74656374 
 4953      00
 4954              	.LASF129:
 4955 0617 7379735F 		.ascii	"sys_sem_free\000"
 4955      73656D5F 
 4955      66726565 
 4955      00
 4956              	.LASF127:
 4957 0624 6D656D70 		.ascii	"memp\000"
 4957      00
 4958              	.LASF28:
 4959 0629 705F7072 		.ascii	"p_prev\000"
 4959      657600
 4960              	.LASF52:
 4961 0630 73697A65 		.ascii	"sizetype\000"
 4961      74797065 
 4961      00
 4962              	.LASF19:
 4963 0639 74726566 		.ascii	"trefs_t\000"
 4963      735F7400 
 4964              	.LASF12:
 4965 0641 6C6F6E67 		.ascii	"long unsigned int\000"
 4965      20756E73 
 4965      69676E65 
 4965      6420696E 
 4965      7400
 4966              	.LASF69:
 4967 0653 6D625F62 		.ascii	"mb_buffer\000"
 4967      75666665 
 4967      7200
 4968              	.LASF9:
 4969 065d 696E7433 		.ascii	"int32_t\000"
 4969      325F7400 
 4970              	.LASF148:
 4971 0665 74687265 		.ascii	"thread\000"
 4971      616400
 4972              	.LASF111:
 4973 066c 70726F74 		.ascii	"proterr\000"
 4973      65727200 
 4974              	.LASF140:
 4975 0674 7379735F 		.ascii	"sys_mbox_post\000"
 4975      6D626F78 
 4975      5F706F73 
 4975      7400
 4976              	.LASF119:
 4977 0682 73746174 		.ascii	"stats_sys\000"
 4977      735F7379 
 4977      7300
 4978              	.LASF5:
 4979 068c 756E7369 		.ascii	"unsigned char\000"
ARM GAS  C:\Users\jenny\AppData\Local\Temp\ccPGDPsp.s 			page 94


 4979      676E6564 
 4979      20636861 
 4979      7200
 4980              	.LASF36:
 4981 069a 705F7265 		.ascii	"p_refs\000"
 4981      667300
 4982              	.LASF123:
 4983 06a1 6C696E6B 		.ascii	"link\000"
 4983      00
 4984              	.LASF164:
 4985 06a6 63684D42 		.ascii	"chMBPost\000"
 4985      506F7374 
 4985      00
 4986              	.LASF37:
 4987 06af 705F7072 		.ascii	"p_preempt\000"
 4987      65656D70 
 4987      7400
 4988              	.LASF106:
 4989 06b9 64726F70 		.ascii	"drop\000"
 4989      00
 4990              	.LASF55:
 4991 06be 76745F6E 		.ascii	"vt_next\000"
 4991      65787400 
 4992              	.LASF136:
 4993 06c6 7379735F 		.ascii	"sys_sem_valid\000"
 4993      73656D5F 
 4993      76616C69 
 4993      6400
 4994              	.LASF138:
 4995 06d4 7379735F 		.ascii	"sys_mbox_new\000"
 4995      6D626F78 
 4995      5F6E6577 
 4995      00
 4996              	.LASF105:
 4997 06e1 72656376 		.ascii	"recv\000"
 4997      00
 4998              	.LASF68:
 4999 06e6 6D5F6E65 		.ascii	"m_next\000"
 4999      787400
 5000              	.LASF3:
 5001 06ed 7369676E 		.ascii	"signed char\000"
 5001      65642063 
 5001      68617200 
 5002              	.LASF8:
 5003 06f9 73686F72 		.ascii	"short unsigned int\000"
 5003      7420756E 
 5003      7369676E 
 5003      65642069 
 5003      6E7400
 5004              	.LASF49:
 5005 070c 73746B61 		.ascii	"stkalign_t\000"
 5005      6C69676E 
 5005      5F7400
 5006              	.LASF77:
 5007 0717 4D656D6F 		.ascii	"MemoryHeap\000"
 5007      72794865 
 5007      617000
ARM GAS  C:\Users\jenny\AppData\Local\Temp\ccPGDPsp.s 			page 95


 5008              	.LASF104:
 5009 0722 786D6974 		.ascii	"xmit\000"
 5009      00
 5010              	.LASF58:
 5011 0727 76745F66 		.ascii	"vt_func\000"
 5011      756E6300 
 5012              	.LASF56:
 5013 072f 76745F70 		.ascii	"vt_prev\000"
 5013      72657600 
 5014              	.LASF84:
 5015 0737 616C6967 		.ascii	"align\000"
 5015      6E00
 5016              	.LASF174:
 5017 073d 7379735F 		.ascii	"sys_now\000"
 5017      6E6F7700 
 5018              	.LASF87:
 5019 0745 65786974 		.ascii	"exitcode\000"
 5019      636F6465 
 5019      00
 5020              	.LASF126:
 5021 074e 69636D70 		.ascii	"icmp\000"
 5021      00
 5022              		.ident	"GCC: (GNU Tools for ARM Embedded Processors) 4.7.4 20130913 (release) [ARM/embedded-4_7-br
ARM GAS  C:\Users\jenny\AppData\Local\Temp\ccPGDPsp.s 			page 96


DEFINED SYMBOLS
                            *ABS*:00000000 sys_arch.c
C:\Users\jenny\AppData\Local\Temp\ccPGDPsp.s:20     .text.sys_init:00000000 $t
C:\Users\jenny\AppData\Local\Temp\ccPGDPsp.s:26     .text.sys_init:00000000 sys_init
C:\Users\jenny\AppData\Local\Temp\ccPGDPsp.s:39     .text.sys_sem_new:00000000 $t
C:\Users\jenny\AppData\Local\Temp\ccPGDPsp.s:45     .text.sys_sem_new:00000000 sys_sem_new
C:\Users\jenny\AppData\Local\Temp\ccPGDPsp.s:105    .text.sys_sem_new:00000048 $d
C:\Users\jenny\AppData\Local\Temp\ccPGDPsp.s:110    .text.sys_sem_free:00000000 $t
C:\Users\jenny\AppData\Local\Temp\ccPGDPsp.s:116    .text.sys_sem_free:00000000 sys_sem_free
C:\Users\jenny\AppData\Local\Temp\ccPGDPsp.s:152    .text.sys_sem_signal:00000000 $t
C:\Users\jenny\AppData\Local\Temp\ccPGDPsp.s:158    .text.sys_sem_signal:00000000 sys_sem_signal
C:\Users\jenny\AppData\Local\Temp\ccPGDPsp.s:177    .text.sys_sem_signal_S:00000000 $t
C:\Users\jenny\AppData\Local\Temp\ccPGDPsp.s:183    .text.sys_sem_signal_S:00000000 sys_sem_signal_S
C:\Users\jenny\AppData\Local\Temp\ccPGDPsp.s:209    .text.sys_arch_sem_wait:00000000 $t
C:\Users\jenny\AppData\Local\Temp\ccPGDPsp.s:215    .text.sys_arch_sem_wait:00000000 sys_arch_sem_wait
C:\Users\jenny\AppData\Local\Temp\ccPGDPsp.s:281    .text.sys_arch_sem_wait:00000030 $d
C:\Users\jenny\AppData\Local\Temp\ccPGDPsp.s:286    .text.sys_sem_valid:00000000 $t
C:\Users\jenny\AppData\Local\Temp\ccPGDPsp.s:292    .text.sys_sem_valid:00000000 sys_sem_valid
C:\Users\jenny\AppData\Local\Temp\ccPGDPsp.s:312    .text.sys_sem_set_invalid:00000000 $t
C:\Users\jenny\AppData\Local\Temp\ccPGDPsp.s:318    .text.sys_sem_set_invalid:00000000 sys_sem_set_invalid
C:\Users\jenny\AppData\Local\Temp\ccPGDPsp.s:334    .text.sys_mbox_new:00000000 $t
C:\Users\jenny\AppData\Local\Temp\ccPGDPsp.s:340    .text.sys_mbox_new:00000000 sys_mbox_new
C:\Users\jenny\AppData\Local\Temp\ccPGDPsp.s:399    .text.sys_mbox_new:00000044 $d
C:\Users\jenny\AppData\Local\Temp\ccPGDPsp.s:404    .text.sys_mbox_free:00000000 $t
C:\Users\jenny\AppData\Local\Temp\ccPGDPsp.s:410    .text.sys_mbox_free:00000000 sys_mbox_free
C:\Users\jenny\AppData\Local\Temp\ccPGDPsp.s:460    .text.sys_mbox_free:00000030 $d
C:\Users\jenny\AppData\Local\Temp\ccPGDPsp.s:465    .text.sys_mbox_post:00000000 $t
C:\Users\jenny\AppData\Local\Temp\ccPGDPsp.s:471    .text.sys_mbox_post:00000000 sys_mbox_post
C:\Users\jenny\AppData\Local\Temp\ccPGDPsp.s:491    .text.sys_mbox_trypost:00000000 $t
C:\Users\jenny\AppData\Local\Temp\ccPGDPsp.s:497    .text.sys_mbox_trypost:00000000 sys_mbox_trypost
C:\Users\jenny\AppData\Local\Temp\ccPGDPsp.s:537    .text.sys_mbox_trypost:00000024 $d
C:\Users\jenny\AppData\Local\Temp\ccPGDPsp.s:542    .text.sys_arch_mbox_fetch:00000000 $t
C:\Users\jenny\AppData\Local\Temp\ccPGDPsp.s:548    .text.sys_arch_mbox_fetch:00000000 sys_arch_mbox_fetch
C:\Users\jenny\AppData\Local\Temp\ccPGDPsp.s:614    .text.sys_arch_mbox_fetch:00000030 $d
C:\Users\jenny\AppData\Local\Temp\ccPGDPsp.s:619    .text.sys_arch_mbox_tryfetch:00000000 $t
C:\Users\jenny\AppData\Local\Temp\ccPGDPsp.s:625    .text.sys_arch_mbox_tryfetch:00000000 sys_arch_mbox_tryfetch
C:\Users\jenny\AppData\Local\Temp\ccPGDPsp.s:653    .text.sys_mbox_valid:00000000 $t
C:\Users\jenny\AppData\Local\Temp\ccPGDPsp.s:659    .text.sys_mbox_valid:00000000 sys_mbox_valid
C:\Users\jenny\AppData\Local\Temp\ccPGDPsp.s:679    .text.sys_mbox_set_invalid:00000000 $t
C:\Users\jenny\AppData\Local\Temp\ccPGDPsp.s:685    .text.sys_mbox_set_invalid:00000000 sys_mbox_set_invalid
C:\Users\jenny\AppData\Local\Temp\ccPGDPsp.s:701    .text.sys_thread_new:00000000 $t
C:\Users\jenny\AppData\Local\Temp\ccPGDPsp.s:707    .text.sys_thread_new:00000000 sys_thread_new
C:\Users\jenny\AppData\Local\Temp\ccPGDPsp.s:760    .text.sys_arch_protect:00000000 $t
C:\Users\jenny\AppData\Local\Temp\ccPGDPsp.s:766    .text.sys_arch_protect:00000000 sys_arch_protect
C:\Users\jenny\AppData\Local\Temp\ccPGDPsp.s:790    .text.sys_arch_unprotect:00000000 $t
C:\Users\jenny\AppData\Local\Temp\ccPGDPsp.s:796    .text.sys_arch_unprotect:00000000 sys_arch_unprotect
C:\Users\jenny\AppData\Local\Temp\ccPGDPsp.s:819    .text.sys_now:00000000 $t
C:\Users\jenny\AppData\Local\Temp\ccPGDPsp.s:825    .text.sys_now:00000000 sys_now
                     .debug_frame:00000010 $d
C:\Users\jenny\AppData\Local\Temp\ccPGDPsp.s:109    .text.sys_sem_new:0000004c $t
C:\Users\jenny\AppData\Local\Temp\ccPGDPsp.s:285    .text.sys_arch_sem_wait:00000034 $t
C:\Users\jenny\AppData\Local\Temp\ccPGDPsp.s:403    .text.sys_mbox_new:00000048 $t
C:\Users\jenny\AppData\Local\Temp\ccPGDPsp.s:464    .text.sys_mbox_free:00000034 $t
C:\Users\jenny\AppData\Local\Temp\ccPGDPsp.s:541    .text.sys_mbox_trypost:00000028 $t
C:\Users\jenny\AppData\Local\Temp\ccPGDPsp.s:618    .text.sys_arch_mbox_fetch:00000034 $t

UNDEFINED SYMBOLS
ARM GAS  C:\Users\jenny\AppData\Local\Temp\ccPGDPsp.s 			page 97


chHeapAlloc
chSemInit
lwip_stats
chHeapFree
chSemSignal
chSemSignalI
chSchRescheduleS
chSemWaitTimeoutS
vtlist
chMBInit
chMBReset
chMBPost
chMBFetchS
chMBFetch
chCoreAlloc
chThdCreateStatic
