ARM GAS  C:\Users\jenny\AppData\Local\Temp\ccAyMdWJ.s 			page 1


   1              		.syntax unified
   2              		.cpu cortex-m4
   3              		.eabi_attribute 27, 3
   4              		.fpu fpv4-sp-d16
   5              		.eabi_attribute 20, 1
   6              		.eabi_attribute 21, 1
   7              		.eabi_attribute 23, 3
   8              		.eabi_attribute 24, 1
   9              		.eabi_attribute 25, 1
  10              		.eabi_attribute 26, 1
  11              		.eabi_attribute 30, 2
  12              		.eabi_attribute 34, 1
  13              		.eabi_attribute 18, 4
  14              		.thumb
  15              		.file	"tcp.c"
  16              		.text
  17              	.Ltext0:
  18              		.cfi_sections	.debug_frame
  19              		.section	.text.tcp_accept_null,"ax",%progbits
  20              		.align	2
  21              		.p2align 4,,15
  22              		.thumb
  23              		.thumb_func
  24              		.type	tcp_accept_null, %function
  25              	tcp_accept_null:
  26              	.LFB15:
  27              		.file 1 "../../ext/lwip/src/core/tcp.c"
  28              		.loc 1 495 0
  29              		.cfi_startproc
  30              		@ args = 0, pretend = 0, frame = 0
  31              		@ frame_needed = 0, uses_anonymous_args = 0
  32              		@ link register save eliminated.
  33              	.LVL0:
  34              		.loc 1 501 0
  35 0000 6FF00900 		mvn	r0, #9
  36              	.LVL1:
  37 0004 7047     		bx	lr
  38              		.cfi_endproc
  39              	.LFE15:
  40              		.size	tcp_accept_null, .-tcp_accept_null
  41 0006 00BFAFF3 		.section	.text.tcp_new_port,"ax",%progbits
  41      0080AFF3 
  41      0080
  42              		.align	2
  43              		.p2align 4,,15
  44              		.thumb
  45              		.thumb_func
  46              		.type	tcp_new_port, %function
  47              	tcp_new_port:
  48              	.LFB19:
  49              		.loc 1 648 0
  50              		.cfi_startproc
  51              		@ args = 0, pretend = 0, frame = 0
  52              		@ frame_needed = 0, uses_anonymous_args = 0
  53              		@ link register save eliminated.
  54              	.LVL2:
  55 0000 F0B4     		push	{r4, r5, r6, r7}
ARM GAS  C:\Users\jenny\AppData\Local\Temp\ccAyMdWJ.s 			page 2


  56              	.LCFI0:
  57              		.cfi_def_cfa_offset 16
  58              		.cfi_offset 4, -16
  59              		.cfi_offset 5, -12
  60              		.cfi_offset 6, -8
  61              		.cfi_offset 7, -4
  62 0002 124E     		ldr	r6, .L23
  63              		.loc 1 647 0
  64 0004 124F     		ldr	r7, .L23+4
  65 0006 3088     		ldrh	r0, [r6, #0]
  66              		.loc 1 648 0
  67 0008 4FF48044 		mov	r4, #16384
  68              		.loc 1 654 0
  69 000c 4FF6FF75 		movw	r5, #65535
  70              	.LVL3:
  71              	.L3:
  72 0010 A842     		cmp	r0, r5
  73 0012 18D0     		beq	.L13
  74 0014 0130     		adds	r0, r0, #1
  75 0016 80B2     		uxth	r0, r0
  76              	.L4:
  77              	.LVL4:
  78              		.loc 1 647 0
  79 0018 0E49     		ldr	r1, .L23+8
  80              	.LVL5:
  81              	.L12:
  82              		.loc 1 659 0
  83 001a 51F8043F 		ldr	r3, [r1, #4]!
  84 001e 1B68     		ldr	r3, [r3, #0]
  85              	.LVL6:
  86 0020 13B9     		cbnz	r3, .L21
  87 0022 0BE0     		b	.L5
  88              	.L18:
  89 0024 DB68     		ldr	r3, [r3, #12]
  90              	.LVL7:
  91 0026 4BB1     		cbz	r3, .L5
  92              	.L21:
  93              		.loc 1 660 0
  94 0028 5A8B     		ldrh	r2, [r3, #26]
  95 002a 8242     		cmp	r2, r0
  96 002c FAD1     		bne	.L18
  97 002e 013C     		subs	r4, r4, #1
  98 0030 A4B2     		uxth	r4, r4
  99              		.loc 1 661 0
 100 0032 002C     		cmp	r4, #0
 101 0034 ECD1     		bne	.L3
 102 0036 3080     		strh	r0, [r6, #0]	@ movhi
 103              		.loc 1 662 0
 104 0038 2046     		mov	r0, r4
 105 003a 02E0     		b	.L10
 106              	.L5:
 107              		.loc 1 658 0
 108 003c B942     		cmp	r1, r7
 109 003e ECD1     		bne	.L12
 110 0040 3080     		strh	r0, [r6, #0]	@ movhi
 111              	.L10:
 112              		.loc 1 669 0
ARM GAS  C:\Users\jenny\AppData\Local\Temp\ccAyMdWJ.s 			page 3


 113 0042 F0BC     		pop	{r4, r5, r6, r7}
 114 0044 7047     		bx	lr
 115              	.LVL8:
 116              	.L13:
 117              		.loc 1 654 0
 118 0046 4FF44040 		mov	r0, #49152
 119 004a E5E7     		b	.L4
 120              	.L24:
 121              		.align	2
 122              	.L23:
 123 004c 00000000 		.word	.LANCHOR0
 124 0050 0C000000 		.word	.LANCHOR1+12
 125 0054 FCFFFFFF 		.word	.LANCHOR1-4
 126              		.cfi_endproc
 127              	.LFE19:
 128              		.size	tcp_new_port, .-tcp_new_port
 129 0058 AFF30080 		.section	.text.tcp_init,"ax",%progbits
 129      AFF30080 
 130              		.align	2
 131              		.p2align 4,,15
 132              		.global	tcp_init
 133              		.thumb
 134              		.thumb_func
 135              		.type	tcp_init, %function
 136              	tcp_init:
 137              	.LFB7:
 138              		.loc 1 131 0
 139              		.cfi_startproc
 140              		@ args = 0, pretend = 0, frame = 0
 141              		@ frame_needed = 0, uses_anonymous_args = 0
 142              		@ link register save eliminated.
 143 0000 7047     		bx	lr
 144              		.cfi_endproc
 145              	.LFE7:
 146              		.size	tcp_init, .-tcp_init
 147 0002 00BFAFF3 		.section	.text.tcp_bind,"ax",%progbits
 147      0080AFF3 
 147      0080AFF3 
 147      0080
 148              		.align	2
 149              		.p2align 4,,15
 150              		.global	tcp_bind
 151              		.thumb
 152              		.thumb_func
 153              		.type	tcp_bind, %function
 154              	tcp_bind:
 155              	.LFB14:
 156              		.loc 1 434 0
 157              		.cfi_startproc
 158              		@ args = 0, pretend = 0, frame = 0
 159              		@ frame_needed = 0, uses_anonymous_args = 0
 160              	.LVL9:
 161              		.loc 1 434 0
 162 0000 F8B5     		push	{r3, r4, r5, r6, r7, lr}
 163              	.LCFI1:
 164              		.cfi_def_cfa_offset 24
 165              		.cfi_offset 3, -24
ARM GAS  C:\Users\jenny\AppData\Local\Temp\ccAyMdWJ.s 			page 4


 166              		.cfi_offset 4, -20
 167              		.cfi_offset 5, -16
 168              		.cfi_offset 6, -12
 169              		.cfi_offset 7, -8
 170              		.cfi_offset 14, -4
 171              		.loc 1 439 0
 172 0002 037E     		ldrb	r3, [r0, #24]	@ zero_extendqisi2
 173              		.loc 1 434 0
 174 0004 0746     		mov	r7, r0
 175 0006 0E46     		mov	r6, r1
 176              		.loc 1 439 0
 177 0008 002B     		cmp	r3, #0
 178 000a 2ED1     		bne	.L52
 179              		.loc 1 452 0
 180 000c 32B3     		cbz	r2, .L53
 181              	.LVL10:
 182              	.L29:
 183              		.loc 1 433 0
 184 000e 1949     		ldr	r1, .L54
 185 0010 01F11000 		add	r0, r1, #16
 186              	.LVL11:
 187              	.L33:
 188              		.loc 1 461 0
 189 0014 51F8043F 		ldr	r3, [r1, #4]!
 190 0018 1B68     		ldr	r3, [r3, #0]
 191              	.LVL12:
 192 001a 13B9     		cbnz	r3, .L46
 193 001c 0EE0     		b	.L30
 194              	.L31:
 195 001e DB68     		ldr	r3, [r3, #12]
 196              	.LVL13:
 197 0020 63B1     		cbz	r3, .L30
 198              	.L46:
 199              		.loc 1 462 0
 200 0022 5C8B     		ldrh	r4, [r3, #26]
 201 0024 9442     		cmp	r4, r2
 202 0026 FAD1     		bne	.L31
 203              		.loc 1 471 0
 204 0028 1C68     		ldr	r4, [r3, #0]
 205 002a 24B1     		cbz	r4, .L39
 206              		.loc 1 471 0 is_stmt 0 discriminator 1
 207 002c 1EB1     		cbz	r6, .L39
 208              		.loc 1 472 0 is_stmt 1
 209 002e 3568     		ldr	r5, [r6, #0]
 210 0030 0DB1     		cbz	r5, .L39
 211              		.loc 1 472 0 is_stmt 0 discriminator 1
 212 0032 AC42     		cmp	r4, r5
 213 0034 F3D1     		bne	.L31
 214              	.L39:
 215              		.loc 1 474 0 is_stmt 1
 216 0036 F823     		movs	r3, #248
 217              	.LVL14:
 218              	.L28:
 219              		.loc 1 488 0
 220 0038 58B2     		sxtb	r0, r3
 221 003a F8BD     		pop	{r3, r4, r5, r6, r7, pc}
 222              	.LVL15:
ARM GAS  C:\Users\jenny\AppData\Local\Temp\ccAyMdWJ.s 			page 5


 223              	.L30:
 224              		.loc 1 460 0
 225 003c 8142     		cmp	r1, r0
 226 003e E9D1     		bne	.L33
 227              		.loc 1 481 0
 228 0040 16B1     		cbz	r6, .L34
 229              		.loc 1 481 0 is_stmt 0 discriminator 1
 230 0042 3168     		ldr	r1, [r6, #0]
 231 0044 01B1     		cbz	r1, .L34
 232              		.loc 1 482 0 is_stmt 1
 233 0046 3960     		str	r1, [r7, #0]
 234              	.L34:
 235              		.loc 1 485 0
 236 0048 0B48     		ldr	r0, .L54+4
 237              		.loc 1 484 0
 238 004a 7A83     		strh	r2, [r7, #26]	@ movhi
 239              		.loc 1 485 0
 240 004c 0268     		ldr	r2, [r0, #0]
 241              	.LVL16:
 242 004e 0760     		str	r7, [r0, #0]
 243 0050 FA60     		str	r2, [r7, #12]
 244 0052 FFF7FEFF 		bl	tcp_timer_needed
 245              	.LVL17:
 246              		.loc 1 487 0
 247 0056 0023     		movs	r3, #0
 248              		.loc 1 488 0
 249 0058 58B2     		sxtb	r0, r3
 250 005a F8BD     		pop	{r3, r4, r5, r6, r7, pc}
 251              	.LVL18:
 252              	.L53:
 253              		.loc 1 453 0
 254 005c FFF7FEFF 		bl	tcp_new_port
 255              	.LVL19:
 256              		.loc 1 454 0
 257 0060 0246     		mov	r2, r0
 258 0062 0028     		cmp	r0, #0
 259 0064 D3D1     		bne	.L29
 260              		.loc 1 455 0
 261 0066 FE23     		movs	r3, #254
 262 0068 E6E7     		b	.L28
 263              	.LVL20:
 264              	.L52:
 265              		.loc 1 439 0 discriminator 1
 266 006a FFF7FEFF 		bl	port_halt
 267              	.LVL21:
 268 006e FA23     		movs	r3, #250
 269 0070 E2E7     		b	.L28
 270              	.L55:
 271 0072 00BF     		.align	2
 272              	.L54:
 273 0074 FCFFFFFF 		.word	.LANCHOR1-4
 274 0078 00000000 		.word	.LANCHOR2
 275              		.cfi_endproc
 276              	.LFE14:
 277              		.size	tcp_bind, .-tcp_bind
 278 007c AFF30080 		.section	.text.tcp_listen_with_backlog,"ax",%progbits
 279              		.align	2
ARM GAS  C:\Users\jenny\AppData\Local\Temp\ccAyMdWJ.s 			page 6


 280              		.p2align 4,,15
 281              		.global	tcp_listen_with_backlog
 282              		.thumb
 283              		.thumb_func
 284              		.type	tcp_listen_with_backlog, %function
 285              	tcp_listen_with_backlog:
 286              	.LFB16:
 287              		.loc 1 520 0
 288              		.cfi_startproc
 289              		@ args = 0, pretend = 0, frame = 0
 290              		@ frame_needed = 0, uses_anonymous_args = 0
 291              	.LVL22:
 292 0000 38B5     		push	{r3, r4, r5, lr}
 293              	.LCFI2:
 294              		.cfi_def_cfa_offset 16
 295              		.cfi_offset 3, -16
 296              		.cfi_offset 4, -12
 297              		.cfi_offset 5, -8
 298              		.cfi_offset 14, -4
 299              		.loc 1 524 0
 300 0002 037E     		ldrb	r3, [r0, #24]	@ zero_extendqisi2
 301              		.loc 1 520 0
 302 0004 0446     		mov	r4, r0
 303              		.loc 1 524 0
 304 0006 002B     		cmp	r3, #0
 305 0008 41D1     		bne	.L76
 306              		.loc 1 545 0
 307 000a 0320     		movs	r0, #3
 308              	.LVL23:
 309 000c FFF7FEFF 		bl	memp_malloc
 310              	.LVL24:
 311              		.loc 1 546 0
 312 0010 0546     		mov	r5, r0
 313 0012 0028     		cmp	r0, #0
 314 0014 3DD0     		beq	.L75
 315              		.loc 1 549 0
 316 0016 2069     		ldr	r0, [r4, #16]
 317              	.LVL25:
 318              		.loc 1 550 0
 319 0018 628B     		ldrh	r2, [r4, #26]
 320              		.loc 1 549 0
 321 001a 2861     		str	r0, [r5, #16]
 322              		.loc 1 551 0
 323 001c 0121     		movs	r1, #1
 324              		.loc 1 550 0
 325 001e 6A83     		strh	r2, [r5, #26]	@ movhi
 326              		.loc 1 551 0
 327 0020 2976     		strb	r1, [r5, #24]
 328              		.loc 1 552 0
 329 0022 637E     		ldrb	r3, [r4, #25]	@ zero_extendqisi2
 330 0024 6B76     		strb	r3, [r5, #25]
 331              		.loc 1 554 0
 332 0026 207A     		ldrb	r0, [r4, #8]	@ zero_extendqisi2
 333 0028 40F00202 		orr	r2, r0, #2
 334 002c 2A72     		strb	r2, [r5, #8]
 335              		.loc 1 555 0
 336 002e A17A     		ldrb	r1, [r4, #10]	@ zero_extendqisi2
ARM GAS  C:\Users\jenny\AppData\Local\Temp\ccAyMdWJ.s 			page 7


 337 0030 A972     		strb	r1, [r5, #10]
 338              		.loc 1 556 0
 339 0032 637A     		ldrb	r3, [r4, #9]	@ zero_extendqisi2
 340 0034 6B72     		strb	r3, [r5, #9]
 341              		.loc 1 557 0
 342 0036 2068     		ldr	r0, [r4, #0]
 343              		.loc 1 558 0
 344 0038 628B     		ldrh	r2, [r4, #26]
 345              		.loc 1 557 0
 346 003a 2860     		str	r0, [r5, #0]
 347              		.loc 1 558 0
 348 003c 9AB1     		cbz	r2, .L59
 349              		.loc 1 559 0
 350 003e 1849     		ldr	r1, .L81
 351 0040 0868     		ldr	r0, [r1, #0]
 352 0042 A042     		cmp	r0, r4
 353 0044 29D0     		beq	.L77
 354              		.loc 1 559 0 is_stmt 0 discriminator 2
 355 0046 1749     		ldr	r1, .L81+4
 356 0048 0860     		str	r0, [r1, #0]
 357 004a 50B1     		cbz	r0, .L61
 358              		.loc 1 559 0
 359 004c C368     		ldr	r3, [r0, #12]
 360 004e A342     		cmp	r3, r4
 361 0050 21D0     		beq	.L78
 362              		.loc 1 559 0 discriminator 5
 363 0052 2BB1     		cbz	r3, .L79
 364              	.L66:
 365              		.loc 1 559 0 discriminator 7
 366 0054 DA68     		ldr	r2, [r3, #12]
 367 0056 A242     		cmp	r2, r4
 368 0058 13D0     		beq	.L80
 369              		.loc 1 559 0
 370 005a 1346     		mov	r3, r2
 371 005c 002B     		cmp	r3, #0
 372 005e F9D1     		bne	.L66
 373              	.L79:
 374 0060 0B60     		str	r3, [r1, #0]
 375              	.L61:
 376              		.loc 1 559 0 discriminator 6
 377 0062 0021     		movs	r1, #0
 378 0064 E160     		str	r1, [r4, #12]
 379              	.L59:
 380              		.loc 1 561 0 is_stmt 1
 381 0066 0220     		movs	r0, #2
 382 0068 2146     		mov	r1, r4
 383 006a FFF7FEFF 		bl	memp_free
 384              	.LVL26:
 385              		.loc 1 569 0
 386 006e 0E4B     		ldr	r3, .L81+8
 387              		.loc 1 563 0
 388 0070 0E4A     		ldr	r2, .L81+12
 389              		.loc 1 569 0
 390 0072 1868     		ldr	r0, [r3, #0]
 391              		.loc 1 563 0
 392 0074 6A61     		str	r2, [r5, #20]
 393              		.loc 1 569 0
ARM GAS  C:\Users\jenny\AppData\Local\Temp\ccAyMdWJ.s 			page 8


 394 0076 E860     		str	r0, [r5, #12]
 395 0078 1D60     		str	r5, [r3, #0]
 396 007a FFF7FEFF 		bl	tcp_timer_needed
 397              	.LVL27:
 398              		.loc 1 570 0
 399 007e 2846     		mov	r0, r5
 400 0080 38BD     		pop	{r3, r4, r5, pc}
 401              	.L80:
 402 0082 0B60     		str	r3, [r1, #0]
 403              	.L63:
 404              		.loc 1 559 0 discriminator 4
 405 0084 E068     		ldr	r0, [r4, #12]
 406 0086 0021     		movs	r1, #0
 407 0088 D860     		str	r0, [r3, #12]
 408 008a E160     		str	r1, [r4, #12]
 409 008c EBE7     		b	.L59
 410              	.LVL28:
 411              	.L76:
 412              		.loc 1 524 0 discriminator 1
 413 008e FFF7FEFF 		bl	port_halt
 414              	.LVL29:
 415              	.L75:
 416 0092 0020     		movs	r0, #0
 417 0094 38BD     		pop	{r3, r4, r5, pc}
 418              	.LVL30:
 419              	.L78:
 420              		.loc 1 559 0
 421 0096 0346     		mov	r3, r0
 422 0098 F4E7     		b	.L63
 423              	.L77:
 424              		.loc 1 559 0 is_stmt 0 discriminator 1
 425 009a E268     		ldr	r2, [r4, #12]
 426 009c 0A60     		str	r2, [r1, #0]
 427 009e E0E7     		b	.L61
 428              	.L82:
 429              		.align	2
 430              	.L81:
 431 00a0 00000000 		.word	.LANCHOR2
 432 00a4 00000000 		.word	.LANCHOR3
 433 00a8 00000000 		.word	.LANCHOR4
 434 00ac 00000000 		.word	tcp_accept_null
 435              		.cfi_endproc
 436              	.LFE16:
 437              		.size	tcp_listen_with_backlog, .-tcp_listen_with_backlog
 438              		.section	.text.tcp_update_rcv_ann_wnd,"ax",%progbits
 439              		.align	2
 440              		.p2align 4,,15
 441              		.global	tcp_update_rcv_ann_wnd
 442              		.thumb
 443              		.thumb_func
 444              		.type	tcp_update_rcv_ann_wnd, %function
 445              	tcp_update_rcv_ann_wnd:
 446              	.LFB17:
 447              		.loc 1 580 0 is_stmt 1
 448              		.cfi_startproc
 449              		@ args = 0, pretend = 0, frame = 0
 450              		@ frame_needed = 0, uses_anonymous_args = 0
ARM GAS  C:\Users\jenny\AppData\Local\Temp\ccAyMdWJ.s 			page 9


 451              	.LVL31:
 452 0000 38B5     		push	{r3, r4, r5, lr}
 453              	.LCFI3:
 454              		.cfi_def_cfa_offset 16
 455              		.cfi_offset 3, -16
 456              		.cfi_offset 4, -12
 457              		.cfi_offset 5, -8
 458              		.cfi_offset 14, -4
 459              		.loc 1 583 0
 460 0002 016B     		ldr	r1, [r0, #48]
 461              		.loc 1 581 0
 462 0004 838D     		ldrh	r3, [r0, #44]
 463 0006 826A     		ldr	r2, [r0, #40]
 464              	.LVL32:
 465              		.loc 1 583 0
 466 0008 C58E     		ldrh	r5, [r0, #54]
 467              		.loc 1 580 0
 468 000a 0446     		mov	r4, r0
 469              		.loc 1 581 0
 470 000c 581A     		subs	r0, r3, r1
 471              	.LVL33:
 472              		.loc 1 583 0
 473 000e B5F5866F 		cmp	r5, #1072
 474 0012 28BF     		it	cs
 475 0014 4FF48665 		movcs	r5, #1072
 476 0018 8018     		adds	r0, r0, r2
 477 001a 451B     		subs	r5, r0, r5
 478 001c 002D     		cmp	r5, #0
 479 001e 01DB     		blt	.L85
 480              		.loc 1 585 0
 481 0020 E385     		strh	r3, [r4, #46]	@ movhi
 482              		.loc 1 586 0
 483 0022 38BD     		pop	{r3, r4, r5, pc}
 484              	.L85:
 485              		.loc 1 588 0
 486 0024 531A     		subs	r3, r2, r1
 487              	.LVL34:
 488 0026 002B     		cmp	r3, #0
 489 0028 02DD     		ble	.L87
 490              		.loc 1 591 0
 491 002a 0020     		movs	r0, #0
 492 002c E085     		strh	r0, [r4, #46]	@ movhi
 493 002e 38BD     		pop	{r3, r4, r5, pc}
 494              	.L87:
 495              	.LBB7:
 496              		.loc 1 594 0
 497 0030 8D1A     		subs	r5, r1, r2
 498              	.LVL35:
 499              		.loc 1 595 0
 500 0032 B5F5803F 		cmp	r5, #65536
 501 0036 02D2     		bcs	.L90
 502              	.LVL36:
 503              	.L88:
 504              		.loc 1 596 0
 505 0038 E585     		strh	r5, [r4, #46]	@ movhi
 506              		.loc 1 598 0
 507 003a 0020     		movs	r0, #0
ARM GAS  C:\Users\jenny\AppData\Local\Temp\ccAyMdWJ.s 			page 10


 508              	.LBE7:
 509              		.loc 1 600 0
 510 003c 38BD     		pop	{r3, r4, r5, pc}
 511              	.LVL37:
 512              	.L90:
 513              	.LBB8:
 514              		.loc 1 595 0 discriminator 1
 515 003e FFF7FEFF 		bl	port_halt
 516              	.LVL38:
 517 0042 F9E7     		b	.L88
 518              	.LBE8:
 519              		.cfi_endproc
 520              	.LFE17:
 521              		.size	tcp_update_rcv_ann_wnd, .-tcp_update_rcv_ann_wnd
 522 0044 AFF30080 		.section	.text.tcp_recved,"ax",%progbits
 522      AFF30080 
 522      AFF30080 
 523              		.align	2
 524              		.p2align 4,,15
 525              		.global	tcp_recved
 526              		.thumb
 527              		.thumb_func
 528              		.type	tcp_recved, %function
 529              	tcp_recved:
 530              	.LFB18:
 531              		.loc 1 612 0
 532              		.cfi_startproc
 533              		@ args = 0, pretend = 0, frame = 0
 534              		@ frame_needed = 0, uses_anonymous_args = 0
 535              	.LVL39:
 536 0000 38B5     		push	{r3, r4, r5, lr}
 537              	.LCFI4:
 538              		.cfi_def_cfa_offset 16
 539              		.cfi_offset 3, -16
 540              		.cfi_offset 4, -12
 541              		.cfi_offset 5, -8
 542              		.cfi_offset 14, -4
 543              		.loc 1 616 0
 544 0002 037E     		ldrb	r3, [r0, #24]	@ zero_extendqisi2
 545 0004 012B     		cmp	r3, #1
 546              		.loc 1 612 0
 547 0006 0446     		mov	r4, r0
 548 0008 0D46     		mov	r5, r1
 549              		.loc 1 616 0
 550 000a 22D0     		beq	.L97
 551              	.LVL40:
 552              	.L92:
 553              		.loc 1 618 0
 554 000c A28D     		ldrh	r2, [r4, #44]
 555 000e C2F57F40 		rsb	r0, r2, #65280
 556 0012 FF30     		adds	r0, r0, #255
 557 0014 A842     		cmp	r0, r5
 558 0016 18DB     		blt	.L98
 559              	.L93:
 560              		.loc 1 621 0
 561 0018 5119     		adds	r1, r2, r5
 562 001a 8BB2     		uxth	r3, r1
ARM GAS  C:\Users\jenny\AppData\Local\Temp\ccAyMdWJ.s 			page 11


 563              		.loc 1 622 0
 564 001c B3F5066F 		cmp	r3, #2144
 565              		.loc 1 623 0
 566 0020 86BF     		itte	hi
 567 0022 4FF40660 		movhi	r0, #2144
 568 0026 A085     		strhhi	r0, [r4, #44]	@ movhi
 569              		.loc 1 621 0
 570 0028 A385     		strhls	r3, [r4, #44]	@ movhi
 571              		.loc 1 626 0
 572 002a 2046     		mov	r0, r4
 573 002c FFF7FEFF 		bl	tcp_update_rcv_ann_wnd
 574              	.LVL41:
 575              		.loc 1 632 0
 576 0030 B0F5067F 		cmp	r0, #536
 577 0034 00DA     		bge	.L99
 578 0036 38BD     		pop	{r3, r4, r5, pc}
 579              	.L99:
 580              		.loc 1 633 0
 581 0038 A07F     		ldrb	r0, [r4, #30]	@ zero_extendqisi2
 582              	.LVL42:
 583 003a 40F00202 		orr	r2, r0, #2
 584              		.loc 1 634 0
 585 003e 2046     		mov	r0, r4
 586              		.loc 1 633 0
 587 0040 A277     		strb	r2, [r4, #30]
 588              		.loc 1 639 0
 589 0042 BDE83840 		pop	{r3, r4, r5, lr}
 590              		.loc 1 634 0
 591 0046 FFF7FEBF 		b	tcp_output
 592              	.LVL43:
 593              	.L98:
 594              		.loc 1 618 0 discriminator 1
 595 004a FFF7FEFF 		bl	port_halt
 596              	.LVL44:
 597 004e A28D     		ldrh	r2, [r4, #44]
 598 0050 E2E7     		b	.L93
 599              	.LVL45:
 600              	.L97:
 601              		.loc 1 616 0 discriminator 1
 602 0052 FFF7FEFF 		bl	port_halt
 603              	.LVL46:
 604 0056 D9E7     		b	.L92
 605              		.cfi_endproc
 606              	.LFE18:
 607              		.size	tcp_recved, .-tcp_recved
 608 0058 AFF30080 		.section	.text.tcp_seg_free,"ax",%progbits
 608      AFF30080 
 609              		.align	2
 610              		.p2align 4,,15
 611              		.global	tcp_seg_free
 612              		.thumb
 613              		.thumb_func
 614              		.type	tcp_seg_free, %function
 615              	tcp_seg_free:
 616              	.LFB25:
 617              		.loc 1 1144 0
 618              		.cfi_startproc
ARM GAS  C:\Users\jenny\AppData\Local\Temp\ccAyMdWJ.s 			page 12


 619              		@ args = 0, pretend = 0, frame = 0
 620              		@ frame_needed = 0, uses_anonymous_args = 0
 621              	.LVL47:
 622 0000 10B5     		push	{r4, lr}
 623              	.LCFI5:
 624              		.cfi_def_cfa_offset 8
 625              		.cfi_offset 4, -8
 626              		.cfi_offset 14, -4
 627              		.loc 1 1145 0
 628 0002 0446     		mov	r4, r0
 629 0004 48B1     		cbz	r0, .L100
 630              		.loc 1 1146 0
 631 0006 4068     		ldr	r0, [r0, #4]
 632              	.LVL48:
 633 0008 08B1     		cbz	r0, .L102
 634              		.loc 1 1147 0
 635 000a FFF7FEFF 		bl	pbuf_free
 636              	.LVL49:
 637              	.L102:
 638              		.loc 1 1152 0
 639 000e 0420     		movs	r0, #4
 640 0010 2146     		mov	r1, r4
 641              		.loc 1 1154 0
 642 0012 BDE81040 		pop	{r4, lr}
 643              		.loc 1 1152 0
 644 0016 FFF7FEBF 		b	memp_free
 645              	.LVL50:
 646              	.L100:
 647 001a 10BD     		pop	{r4, pc}
 648              		.cfi_endproc
 649              	.LFE25:
 650              		.size	tcp_seg_free, .-tcp_seg_free
 651 001c AFF30080 		.section	.text.tcp_segs_free,"ax",%progbits
 652              		.align	2
 653              		.p2align 4,,15
 654              		.global	tcp_segs_free
 655              		.thumb
 656              		.thumb_func
 657              		.type	tcp_segs_free, %function
 658              	tcp_segs_free:
 659              	.LFB24:
 660              		.loc 1 1129 0
 661              		.cfi_startproc
 662              		@ args = 0, pretend = 0, frame = 0
 663              		@ frame_needed = 0, uses_anonymous_args = 0
 664              	.LVL51:
 665 0000 10B5     		push	{r4, lr}
 666              	.LCFI6:
 667              		.cfi_def_cfa_offset 8
 668              		.cfi_offset 4, -8
 669              		.cfi_offset 14, -4
 670              		.loc 1 1130 0
 671 0002 28B1     		cbz	r0, .L106
 672              	.L110:
 673              	.LBB9:
 674              		.loc 1 1131 0
 675 0004 0468     		ldr	r4, [r0, #0]
ARM GAS  C:\Users\jenny\AppData\Local\Temp\ccAyMdWJ.s 			page 13


 676              	.LVL52:
 677              		.loc 1 1132 0
 678 0006 FFF7FEFF 		bl	tcp_seg_free
 679              	.LVL53:
 680              	.LBE9:
 681              		.loc 1 1130 0
 682 000a 2046     		mov	r0, r4
 683 000c 002C     		cmp	r4, #0
 684 000e F9D1     		bne	.L110
 685              	.LVL54:
 686              	.L106:
 687 0010 10BD     		pop	{r4, pc}
 688              		.cfi_endproc
 689              	.LFE24:
 690              		.size	tcp_segs_free, .-tcp_segs_free
 691 0012 00BFAFF3 		.section	.text.tcp_setprio,"ax",%progbits
 691      0080AFF3 
 691      0080AFF3 
 691      0080
 692              		.align	2
 693              		.p2align 4,,15
 694              		.global	tcp_setprio
 695              		.thumb
 696              		.thumb_func
 697              		.type	tcp_setprio, %function
 698              	tcp_setprio:
 699              	.LFB26:
 700              		.loc 1 1164 0
 701              		.cfi_startproc
 702              		@ args = 0, pretend = 0, frame = 0
 703              		@ frame_needed = 0, uses_anonymous_args = 0
 704              		@ link register save eliminated.
 705              	.LVL55:
 706              		.loc 1 1165 0
 707 0000 4176     		strb	r1, [r0, #25]
 708 0002 7047     		bx	lr
 709              		.cfi_endproc
 710              	.LFE26:
 711              		.size	tcp_setprio, .-tcp_setprio
 712 0004 AFF30080 		.section	.text.tcp_seg_copy,"ax",%progbits
 712      AFF30080 
 712      AFF30080 
 713              		.align	2
 714              		.p2align 4,,15
 715              		.global	tcp_seg_copy
 716              		.thumb
 717              		.thumb_func
 718              		.type	tcp_seg_copy, %function
 719              	tcp_seg_copy:
 720              	.LFB27:
 721              		.loc 1 1178 0
 722              		.cfi_startproc
 723              		@ args = 0, pretend = 0, frame = 0
 724              		@ frame_needed = 0, uses_anonymous_args = 0
 725              	.LVL56:
 726 0000 38B5     		push	{r3, r4, r5, lr}
 727              	.LCFI7:
ARM GAS  C:\Users\jenny\AppData\Local\Temp\ccAyMdWJ.s 			page 14


 728              		.cfi_def_cfa_offset 16
 729              		.cfi_offset 3, -16
 730              		.cfi_offset 4, -12
 731              		.cfi_offset 5, -8
 732              		.cfi_offset 14, -4
 733              		.loc 1 1178 0
 734 0002 0546     		mov	r5, r0
 735              		.loc 1 1181 0
 736 0004 0420     		movs	r0, #4
 737              	.LVL57:
 738 0006 FFF7FEFF 		bl	memp_malloc
 739              	.LVL58:
 740              		.loc 1 1182 0
 741 000a 0446     		mov	r4, r0
 742 000c 50B1     		cbz	r0, .L114
 743              		.loc 1 1185 0
 744 000e 6868     		ldr	r0, [r5, #4]	@ unaligned
 745              	.LVL59:
 746 0010 2968     		ldr	r1, [r5, #0]	@ unaligned
 747 0012 AA68     		ldr	r2, [r5, #8]	@ unaligned
 748 0014 EB68     		ldr	r3, [r5, #12]	@ unaligned
 749 0016 6060     		str	r0, [r4, #4]	@ unaligned
 750 0018 2160     		str	r1, [r4, #0]	@ unaligned
 751 001a A260     		str	r2, [r4, #8]	@ unaligned
 752 001c E360     		str	r3, [r4, #12]	@ unaligned
 753              		.loc 1 1186 0
 754 001e 6068     		ldr	r0, [r4, #4]
 755 0020 FFF7FEFF 		bl	pbuf_ref
 756              	.LVL60:
 757              	.L114:
 758              		.loc 1 1188 0
 759 0024 2046     		mov	r0, r4
 760 0026 38BD     		pop	{r3, r4, r5, pc}
 761              		.cfi_endproc
 762              	.LFE27:
 763              		.size	tcp_seg_copy, .-tcp_seg_copy
 764 0028 AFF30080 		.section	.text.tcp_arg,"ax",%progbits
 764      AFF30080 
 765              		.align	2
 766              		.p2align 4,,15
 767              		.global	tcp_arg
 768              		.thumb
 769              		.thumb_func
 770              		.type	tcp_arg, %function
 771              	tcp_arg:
 772              	.LFB33:
 773              		.loc 1 1377 0
 774              		.cfi_startproc
 775              		@ args = 0, pretend = 0, frame = 0
 776              		@ frame_needed = 0, uses_anonymous_args = 0
 777              		@ link register save eliminated.
 778              	.LVL61:
 779              		.loc 1 1380 0
 780 0000 0161     		str	r1, [r0, #16]
 781 0002 7047     		bx	lr
 782              		.cfi_endproc
 783              	.LFE33:
ARM GAS  C:\Users\jenny\AppData\Local\Temp\ccAyMdWJ.s 			page 15


 784              		.size	tcp_arg, .-tcp_arg
 785 0004 AFF30080 		.section	.text.tcp_recv,"ax",%progbits
 785      AFF30080 
 785      AFF30080 
 786              		.align	2
 787              		.p2align 4,,15
 788              		.global	tcp_recv
 789              		.thumb
 790              		.thumb_func
 791              		.type	tcp_recv, %function
 792              	tcp_recv:
 793              	.LFB34:
 794              		.loc 1 1393 0
 795              		.cfi_startproc
 796              		@ args = 0, pretend = 0, frame = 8
 797              		@ frame_needed = 0, uses_anonymous_args = 0
 798              	.LVL62:
 799 0000 00B5     		push	{lr}
 800              	.LCFI8:
 801              		.cfi_def_cfa_offset 4
 802              		.cfi_offset 14, -4
 803              		.loc 1 1394 0
 804 0002 037E     		ldrb	r3, [r0, #24]	@ zero_extendqisi2
 805 0004 012B     		cmp	r3, #1
 806              		.loc 1 1393 0
 807 0006 83B0     		sub	sp, sp, #12
 808              	.LCFI9:
 809              		.cfi_def_cfa_offset 16
 810              		.loc 1 1394 0
 811 0008 03D0     		beq	.L121
 812              	.LVL63:
 813              	.L120:
 814              		.loc 1 1395 0
 815 000a C0F88010 		str	r1, [r0, #128]
 816              		.loc 1 1396 0
 817 000e 03B0     		add	sp, sp, #12
 818 0010 00BD     		pop	{pc}
 819              	.LVL64:
 820              	.L121:
 821              		.loc 1 1394 0 discriminator 1
 822 0012 0190     		str	r0, [sp, #4]
 823 0014 0091     		str	r1, [sp, #0]
 824 0016 FFF7FEFF 		bl	port_halt
 825              	.LVL65:
 826 001a 0099     		ldr	r1, [sp, #0]
 827 001c 0198     		ldr	r0, [sp, #4]
 828 001e F4E7     		b	.L120
 829              		.cfi_endproc
 830              	.LFE34:
 831              		.size	tcp_recv, .-tcp_recv
 832              		.section	.text.tcp_sent,"ax",%progbits
 833              		.align	2
 834              		.p2align 4,,15
 835              		.global	tcp_sent
 836              		.thumb
 837              		.thumb_func
 838              		.type	tcp_sent, %function
ARM GAS  C:\Users\jenny\AppData\Local\Temp\ccAyMdWJ.s 			page 16


 839              	tcp_sent:
 840              	.LFB35:
 841              		.loc 1 1407 0
 842              		.cfi_startproc
 843              		@ args = 0, pretend = 0, frame = 8
 844              		@ frame_needed = 0, uses_anonymous_args = 0
 845              	.LVL66:
 846 0000 00B5     		push	{lr}
 847              	.LCFI10:
 848              		.cfi_def_cfa_offset 4
 849              		.cfi_offset 14, -4
 850              		.loc 1 1408 0
 851 0002 037E     		ldrb	r3, [r0, #24]	@ zero_extendqisi2
 852 0004 012B     		cmp	r3, #1
 853              		.loc 1 1407 0
 854 0006 83B0     		sub	sp, sp, #12
 855              	.LCFI11:
 856              		.cfi_def_cfa_offset 16
 857              		.loc 1 1408 0
 858 0008 02D0     		beq	.L124
 859              	.LVL67:
 860              	.L123:
 861              		.loc 1 1409 0
 862 000a C167     		str	r1, [r0, #124]
 863              		.loc 1 1410 0
 864 000c 03B0     		add	sp, sp, #12
 865 000e 00BD     		pop	{pc}
 866              	.LVL68:
 867              	.L124:
 868              		.loc 1 1408 0 discriminator 1
 869 0010 0190     		str	r0, [sp, #4]
 870 0012 0091     		str	r1, [sp, #0]
 871 0014 FFF7FEFF 		bl	port_halt
 872              	.LVL69:
 873 0018 0099     		ldr	r1, [sp, #0]
 874 001a 0198     		ldr	r0, [sp, #4]
 875 001c F5E7     		b	.L123
 876              		.cfi_endproc
 877              	.LFE35:
 878              		.size	tcp_sent, .-tcp_sent
 879 001e 00BF     		.section	.text.tcp_err,"ax",%progbits
 880              		.align	2
 881              		.p2align 4,,15
 882              		.global	tcp_err
 883              		.thumb
 884              		.thumb_func
 885              		.type	tcp_err, %function
 886              	tcp_err:
 887              	.LFB36:
 888              		.loc 1 1422 0
 889              		.cfi_startproc
 890              		@ args = 0, pretend = 0, frame = 8
 891              		@ frame_needed = 0, uses_anonymous_args = 0
 892              	.LVL70:
 893 0000 00B5     		push	{lr}
 894              	.LCFI12:
 895              		.cfi_def_cfa_offset 4
ARM GAS  C:\Users\jenny\AppData\Local\Temp\ccAyMdWJ.s 			page 17


 896              		.cfi_offset 14, -4
 897              		.loc 1 1423 0
 898 0002 037E     		ldrb	r3, [r0, #24]	@ zero_extendqisi2
 899 0004 012B     		cmp	r3, #1
 900              		.loc 1 1422 0
 901 0006 83B0     		sub	sp, sp, #12
 902              	.LCFI13:
 903              		.cfi_def_cfa_offset 16
 904              		.loc 1 1423 0
 905 0008 03D0     		beq	.L127
 906              	.LVL71:
 907              	.L126:
 908              		.loc 1 1424 0
 909 000a C0F88C10 		str	r1, [r0, #140]
 910              		.loc 1 1425 0
 911 000e 03B0     		add	sp, sp, #12
 912 0010 00BD     		pop	{pc}
 913              	.LVL72:
 914              	.L127:
 915              		.loc 1 1423 0 discriminator 1
 916 0012 0190     		str	r0, [sp, #4]
 917 0014 0091     		str	r1, [sp, #0]
 918 0016 FFF7FEFF 		bl	port_halt
 919              	.LVL73:
 920 001a 0099     		ldr	r1, [sp, #0]
 921 001c 0198     		ldr	r0, [sp, #4]
 922 001e F4E7     		b	.L126
 923              		.cfi_endproc
 924              	.LFE36:
 925              		.size	tcp_err, .-tcp_err
 926              		.section	.text.tcp_accept,"ax",%progbits
 927              		.align	2
 928              		.p2align 4,,15
 929              		.global	tcp_accept
 930              		.thumb
 931              		.thumb_func
 932              		.type	tcp_accept, %function
 933              	tcp_accept:
 934              	.LFB37:
 935              		.loc 1 1437 0
 936              		.cfi_startproc
 937              		@ args = 0, pretend = 0, frame = 0
 938              		@ frame_needed = 0, uses_anonymous_args = 0
 939              		@ link register save eliminated.
 940              	.LVL74:
 941              		.loc 1 1440 0
 942 0000 4161     		str	r1, [r0, #20]
 943 0002 7047     		bx	lr
 944              		.cfi_endproc
 945              	.LFE37:
 946              		.size	tcp_accept, .-tcp_accept
 947 0004 AFF30080 		.section	.text.tcp_poll,"ax",%progbits
 947      AFF30080 
 947      AFF30080 
 948              		.align	2
 949              		.p2align 4,,15
 950              		.global	tcp_poll
ARM GAS  C:\Users\jenny\AppData\Local\Temp\ccAyMdWJ.s 			page 18


 951              		.thumb
 952              		.thumb_func
 953              		.type	tcp_poll, %function
 954              	tcp_poll:
 955              	.LFB38:
 956              		.loc 1 1453 0
 957              		.cfi_startproc
 958              		@ args = 0, pretend = 0, frame = 16
 959              		@ frame_needed = 0, uses_anonymous_args = 0
 960              	.LVL75:
 961 0000 00B5     		push	{lr}
 962              	.LCFI14:
 963              		.cfi_def_cfa_offset 4
 964              		.cfi_offset 14, -4
 965              		.loc 1 1454 0
 966 0002 037E     		ldrb	r3, [r0, #24]	@ zero_extendqisi2
 967 0004 012B     		cmp	r3, #1
 968              		.loc 1 1453 0
 969 0006 85B0     		sub	sp, sp, #20
 970              	.LCFI15:
 971              		.cfi_def_cfa_offset 24
 972              		.loc 1 1454 0
 973 0008 05D0     		beq	.L131
 974              	.LVL76:
 975              	.L130:
 976              		.loc 1 1456 0
 977 000a C0F88810 		str	r1, [r0, #136]
 978              		.loc 1 1460 0
 979 000e 80F82020 		strb	r2, [r0, #32]
 980              		.loc 1 1461 0
 981 0012 05B0     		add	sp, sp, #20
 982 0014 00BD     		pop	{pc}
 983              	.LVL77:
 984              	.L131:
 985              		.loc 1 1454 0 discriminator 1
 986 0016 0390     		str	r0, [sp, #12]
 987 0018 0291     		str	r1, [sp, #8]
 988 001a 0192     		str	r2, [sp, #4]
 989 001c FFF7FEFF 		bl	port_halt
 990              	.LVL78:
 991 0020 019A     		ldr	r2, [sp, #4]
 992 0022 0299     		ldr	r1, [sp, #8]
 993 0024 0398     		ldr	r0, [sp, #12]
 994 0026 F0E7     		b	.L130
 995              		.cfi_endproc
 996              	.LFE38:
 997              		.size	tcp_poll, .-tcp_poll
 998 0028 AFF30080 		.section	.text.tcp_pcb_purge,"ax",%progbits
 998      AFF30080 
 999              		.align	2
 1000              		.p2align 4,,15
 1001              		.global	tcp_pcb_purge
 1002              		.thumb
 1003              		.thumb_func
 1004              		.type	tcp_pcb_purge, %function
 1005              	tcp_pcb_purge:
 1006              	.LFB39:
ARM GAS  C:\Users\jenny\AppData\Local\Temp\ccAyMdWJ.s 			page 19


 1007              		.loc 1 1471 0
 1008              		.cfi_startproc
 1009              		@ args = 0, pretend = 0, frame = 0
 1010              		@ frame_needed = 0, uses_anonymous_args = 0
 1011              	.LVL79:
 1012 0000 38B5     		push	{r3, r4, r5, lr}
 1013              	.LCFI16:
 1014              		.cfi_def_cfa_offset 16
 1015              		.cfi_offset 3, -16
 1016              		.cfi_offset 4, -12
 1017              		.cfi_offset 5, -8
 1018              		.cfi_offset 14, -4
 1019              		.loc 1 1472 0
 1020 0002 037E     		ldrb	r3, [r0, #24]	@ zero_extendqisi2
 1021              		.loc 1 1471 0
 1022 0004 0446     		mov	r4, r0
 1023              		.loc 1 1472 0
 1024 0006 DBB1     		cbz	r3, .L132
 1025              		.loc 1 1472 0 is_stmt 0 discriminator 1
 1026 0008 0A2B     		cmp	r3, #10
 1027 000a 19D0     		beq	.L132
 1028              		.loc 1 1473 0 is_stmt 1
 1029 000c 012B     		cmp	r3, #1
 1030 000e 17D0     		beq	.L132
 1031              	.LVL80:
 1032              	.LBB12:
 1033              	.LBB13:
 1034              		.loc 1 1499 0
 1035 0010 806F     		ldr	r0, [r0, #120]
 1036              	.LVL81:
 1037 0012 18B1     		cbz	r0, .L134
 1038              		.loc 1 1501 0
 1039 0014 FFF7FEFF 		bl	pbuf_free
 1040              	.LVL82:
 1041              		.loc 1 1502 0
 1042 0018 0020     		movs	r0, #0
 1043 001a A067     		str	r0, [r4, #120]
 1044              	.L134:
 1045              		.loc 1 1514 0
 1046 001c 606F     		ldr	r0, [r4, #116]
 1047 001e FFF7FEFF 		bl	tcp_segs_free
 1048              	.LVL83:
 1049              		.loc 1 1515 0
 1050 0022 0025     		movs	r5, #0
 1051              		.loc 1 1520 0
 1052 0024 4FF6FF71 		movw	r1, #65535
 1053              		.loc 1 1522 0
 1054 0028 E06E     		ldr	r0, [r4, #108]
 1055              		.loc 1 1520 0
 1056 002a A186     		strh	r1, [r4, #52]	@ movhi
 1057              		.loc 1 1515 0
 1058 002c 6567     		str	r5, [r4, #116]
 1059              		.loc 1 1522 0
 1060 002e FFF7FEFF 		bl	tcp_segs_free
 1061              	.LVL84:
 1062              		.loc 1 1523 0
 1063 0032 206F     		ldr	r0, [r4, #112]
ARM GAS  C:\Users\jenny\AppData\Local\Temp\ccAyMdWJ.s 			page 20


 1064 0034 FFF7FEFF 		bl	tcp_segs_free
 1065              	.LVL85:
 1066              		.loc 1 1524 0
 1067 0038 E566     		str	r5, [r4, #108]
 1068 003a 2567     		str	r5, [r4, #112]
 1069              		.loc 1 1526 0
 1070 003c A4F86A50 		strh	r5, [r4, #106]	@ movhi
 1071              	.LVL86:
 1072              	.L132:
 1073 0040 38BD     		pop	{r3, r4, r5, pc}
 1074              	.LBE13:
 1075              	.LBE12:
 1076              		.cfi_endproc
 1077              	.LFE39:
 1078              		.size	tcp_pcb_purge, .-tcp_pcb_purge
 1079 0042 00BFAFF3 		.section	.text.tcp_slowtmr,"ax",%progbits
 1079      0080AFF3 
 1079      0080AFF3 
 1079      0080
 1080              		.align	2
 1081              		.p2align 4,,15
 1082              		.global	tcp_slowtmr
 1083              		.thumb
 1084              		.thumb_func
 1085              		.type	tcp_slowtmr, %function
 1086              	tcp_slowtmr:
 1087              	.LFB21:
 1088              		.loc 1 789 0
 1089              		.cfi_startproc
 1090              		@ args = 0, pretend = 0, frame = 16
 1091              		@ frame_needed = 0, uses_anonymous_args = 0
 1092              	.LVL87:
 1093 0000 2DE9F04F 		push	{r4, r5, r6, r7, r8, r9, sl, fp, lr}
 1094              	.LCFI17:
 1095              		.cfi_def_cfa_offset 36
 1096              		.cfi_offset 4, -36
 1097              		.cfi_offset 5, -32
 1098              		.cfi_offset 6, -28
 1099              		.cfi_offset 7, -24
 1100              		.cfi_offset 8, -20
 1101              		.cfi_offset 9, -16
 1102              		.cfi_offset 10, -12
 1103              		.cfi_offset 11, -8
 1104              		.cfi_offset 14, -4
 1105              		.loc 1 798 0
 1106 0004 C44C     		ldr	r4, .L248
 1107              		.loc 1 799 0
 1108 0006 C54D     		ldr	r5, .L248+4
 1109              		.loc 1 798 0
 1110 0008 2368     		ldr	r3, [r4, #0]
 1111              		.loc 1 799 0
 1112 000a 2A78     		ldrb	r2, [r5, #0]	@ zero_extendqisi2
 1113              	.LBB14:
 1114              		.loc 1 973 0
 1115 000c C44F     		ldr	r7, .L248+8
 1116              	.LBE14:
 1117              		.loc 1 789 0
ARM GAS  C:\Users\jenny\AppData\Local\Temp\ccAyMdWJ.s 			page 21


 1118 000e 87B0     		sub	sp, sp, #28
 1119              	.LCFI18:
 1120              		.cfi_def_cfa_offset 64
 1121              		.loc 1 899 0
 1122 0010 44F6D35C 		movw	ip, #19923
 1123              		.loc 1 909 0
 1124 0014 42F2F84B 		movw	fp, #9464
 1125              		.loc 1 798 0
 1126 0018 581C     		adds	r0, r3, #1
 1127              		.loc 1 799 0
 1128 001a 511C     		adds	r1, r2, #1
 1129              		.loc 1 899 0
 1130 001c C1F2620C 		movt	ip, 4194
 1131              		.loc 1 909 0
 1132 0020 C0F2010B 		movt	fp, 1
 1133              		.loc 1 798 0
 1134 0024 2060     		str	r0, [r4, #0]
 1135              		.loc 1 799 0
 1136 0026 2970     		strb	r1, [r5, #0]
 1137              		.loc 1 808 0
 1138 0028 4FF00008 		mov	r8, #0
 1139              		.loc 1 899 0
 1140 002c CDF810C0 		str	ip, [sp, #16]
 1141              		.loc 1 909 0
 1142 0030 CDF814B0 		str	fp, [sp, #20]
 1143              	.LVL88:
 1144              	.L231:
 1145              		.loc 1 804 0
 1146 0034 40F20003 		movw	r3, #:lower16:.LANCHOR7
 1147 0038 C0F20003 		movt	r3, #:upper16:.LANCHOR7
 1148 003c D3F800B0 		ldr	fp, [r3, #0]
 1149              	.LVL89:
 1150              		.loc 1 808 0
 1151 0040 BBF1000F 		cmp	fp, #0
 1152 0044 00F09280 		beq	.L184
 1153 0048 0026     		movs	r6, #0
 1154              	.LVL90:
 1155              	.L149:
 1156              		.loc 1 810 0
 1157 004a 9BF81820 		ldrb	r2, [fp, #24]	@ zero_extendqisi2
 1158 004e 002A     		cmp	r2, #0
 1159 0050 00F0EC80 		beq	.L235
 1160              		.loc 1 811 0
 1161 0054 012A     		cmp	r2, #1
 1162 0056 00F0F080 		beq	.L236
 1163              	.L153:
 1164              		.loc 1 812 0
 1165 005a 0A2A     		cmp	r2, #10
 1166 005c 00F0F480 		beq	.L237
 1167              	.L154:
 1168              		.loc 1 813 0
 1169 0060 2878     		ldrb	r0, [r5, #0]	@ zero_extendqisi2
 1170 0062 9BF82110 		ldrb	r1, [fp, #33]	@ zero_extendqisi2
 1171 0066 8142     		cmp	r1, r0
 1172 0068 00F0F680 		beq	.L238
 1173              	.L155:
 1174              		.loc 1 823 0
ARM GAS  C:\Users\jenny\AppData\Local\Temp\ccAyMdWJ.s 			page 22


 1175 006c 9BF81830 		ldrb	r3, [fp, #24]	@ zero_extendqisi2
 1176              		.loc 1 818 0
 1177 0070 8BF82100 		strb	r0, [fp, #33]
 1178              	.LVL91:
 1179              		.loc 1 823 0
 1180 0074 022B     		cmp	r3, #2
 1181 0076 9BF84620 		ldrb	r2, [fp, #70]	@ zero_extendqisi2
 1182 007a 00F06181 		beq	.L157
 1183              	.L158:
 1184              		.loc 1 827 0
 1185 007e 0C2A     		cmp	r2, #12
 1186 0080 00F06681 		beq	.L197
 1187              		.loc 1 831 0
 1188 0084 9BF89510 		ldrb	r1, [fp, #149]	@ zero_extendqisi2
 1189 0088 0029     		cmp	r1, #0
 1190 008a 00F00581 		beq	.L161
 1191              		.loc 1 835 0
 1192 008e 40F20009 		movw	r9, #:lower16:.LANCHOR9
 1193 0092 C0F20009 		movt	r9, #:upper16:.LANCHOR9
 1194              		.loc 1 834 0
 1195 0096 9BF89420 		ldrb	r2, [fp, #148]	@ zero_extendqisi2
 1196              		.loc 1 835 0
 1197 009a 09EB0100 		add	r0, r9, r1
 1198              		.loc 1 834 0
 1199 009e 0132     		adds	r2, r2, #1
 1200              		.loc 1 835 0
 1201 00a0 10F8010C 		ldrb	r0, [r0, #-1]	@ zero_extendqisi2
 1202              		.loc 1 834 0
 1203 00a4 D2B2     		uxtb	r2, r2
 1204              		.loc 1 835 0
 1205 00a6 9042     		cmp	r0, r2
 1206              		.loc 1 834 0
 1207 00a8 8BF89420 		strb	r2, [fp, #148]
 1208              		.loc 1 835 0
 1209 00ac 00F2DB80 		bhi	.L200
 1210              		.loc 1 837 0
 1211 00b0 0629     		cmp	r1, #6
 1212              		.loc 1 836 0
 1213 00b2 8BF89480 		strb	r8, [fp, #148]
 1214              		.loc 1 837 0
 1215 00b6 02D8     		bhi	.L162
 1216              		.loc 1 838 0
 1217 00b8 4B1C     		adds	r3, r1, #1
 1218 00ba 8BF89530 		strb	r3, [fp, #149]
 1219              	.L162:
 1220              		.loc 1 840 0
 1221 00be 5846     		mov	r0, fp
 1222 00c0 FFF7FEFF 		bl	tcp_zero_window_probe
 1223              	.LVL92:
 1224 00c4 9BF81830 		ldrb	r3, [fp, #24]	@ zero_extendqisi2
 1225              		.loc 1 820 0
 1226 00c8 4FF00009 		mov	r9, #0
 1227              	.L160:
 1228              	.LVL93:
 1229              		.loc 1 881 0
 1230 00cc 062B     		cmp	r3, #6
 1231 00ce 00F0CF80 		beq	.L239
ARM GAS  C:\Users\jenny\AppData\Local\Temp\ccAyMdWJ.s 			page 23


 1232              	.LVL94:
 1233              	.L166:
 1234              		.loc 1 895 0
 1235 00d2 9BF80810 		ldrb	r1, [fp, #8]	@ zero_extendqisi2
 1236 00d6 01F00800 		and	r0, r1, #8
 1237 00da C2B2     		uxtb	r2, r0
 1238 00dc 2AB1     		cbz	r2, .L203
 1239              		.loc 1 895 0 is_stmt 0 discriminator 1
 1240 00de 042B     		cmp	r3, #4
 1241 00e0 00F03E81 		beq	.L168
 1242              		.loc 1 896 0 is_stmt 1
 1243 00e4 072B     		cmp	r3, #7
 1244 00e6 00F03B81 		beq	.L168
 1245              	.LVL95:
 1246              	.L203:
 1247              		.loc 1 821 0
 1248 00ea 4FF0000A 		mov	sl, #0
 1249              	.LVL96:
 1250              	.L159:
 1251              		.loc 1 921 0
 1252 00ee DBF87400 		ldr	r0, [fp, #116]
 1253 00f2 58B1     		cbz	r0, .L170
 1254              		.loc 1 922 0 discriminator 1
 1255 00f4 DBF82420 		ldr	r2, [fp, #36]
 1256 00f8 2168     		ldr	r1, [r4, #0]
 1257 00fa BBF94430 		ldrsh	r3, [fp, #68]
 1258 00fe 891A     		subs	r1, r1, r2
 1259 0100 03EB4302 		add	r2, r3, r3, lsl #1
 1260              		.loc 1 921 0 discriminator 1
 1261 0104 B1EB420F 		cmp	r1, r2, lsl #1
 1262 0108 80F02581 		bcs	.L240
 1263              	.L170:
 1264              		.loc 1 930 0
 1265 010c 9BF81800 		ldrb	r0, [fp, #24]	@ zero_extendqisi2
 1266 0110 0328     		cmp	r0, #3
 1267 0112 00F00981 		beq	.L241
 1268              		.loc 1 939 0
 1269 0116 0928     		cmp	r0, #9
 1270 0118 4FD0     		beq	.L242
 1271              	.LVL97:
 1272              	.L173:
 1273              		.loc 1 947 0
 1274 011a B9F1000F 		cmp	r9, #0
 1275 011e 52D1     		bne	.L174
 1276              	.LVL98:
 1277              		.loc 1 984 0
 1278 0120 9BF81F00 		ldrb	r0, [fp, #31]	@ zero_extendqisi2
 1279              		.loc 1 985 0
 1280 0124 9BF82020 		ldrb	r2, [fp, #32]	@ zero_extendqisi2
 1281              		.loc 1 981 0
 1282 0128 DBF80CA0 		ldr	sl, [fp, #12]
 1283              	.LVL99:
 1284              		.loc 1 984 0
 1285 012c 411C     		adds	r1, r0, #1
 1286 012e CBB2     		uxtb	r3, r1
 1287              		.loc 1 985 0
 1288 0130 9A42     		cmp	r2, r3
ARM GAS  C:\Users\jenny\AppData\Local\Temp\ccAyMdWJ.s 			page 24


 1289              		.loc 1 984 0
 1290 0132 8BF81F30 		strb	r3, [fp, #31]
 1291              		.loc 1 985 0
 1292 0136 13D8     		bhi	.L205
 1293              		.loc 1 989 0
 1294 0138 DBF88820 		ldr	r2, [fp, #136]
 1295              		.loc 1 986 0
 1296 013c 8BF81F90 		strb	r9, [fp, #31]
 1297              		.loc 1 988 0
 1298 0140 87F80090 		strb	r9, [r7, #0]
 1299              		.loc 1 989 0
 1300 0144 002A     		cmp	r2, #0
 1301 0146 00F02981 		beq	.L183
 1302              		.loc 1 989 0 is_stmt 0 discriminator 1
 1303 014a 5946     		mov	r1, fp
 1304 014c DBF81000 		ldr	r0, [fp, #16]
 1305 0150 9047     		blx	r2
 1306              	.LVL100:
 1307              		.loc 1 990 0 is_stmt 1 discriminator 1
 1308 0152 3978     		ldrb	r1, [r7, #0]	@ zero_extendqisi2
 1309 0154 0029     		cmp	r1, #0
 1310 0156 7FF46DAF 		bne	.L231
 1311              		.loc 1 994 0
 1312 015a 0028     		cmp	r0, #0
 1313 015c 00F01E81 		beq	.L183
 1314              	.LVL101:
 1315              	.L205:
 1316              		.loc 1 985 0
 1317 0160 5E46     		mov	r6, fp
 1318              	.LVL102:
 1319              		.loc 1 981 0
 1320 0162 D346     		mov	fp, sl
 1321              	.LVL103:
 1322              		.loc 1 808 0
 1323 0164 BBF1000F 		cmp	fp, #0
 1324 0168 7FF46FAF 		bne	.L149
 1325              	.LVL104:
 1326              	.L184:
 1327              		.loc 1 1004 0
 1328 016c 6D4F     		ldr	r7, .L248+12
 1329 016e 3D68     		ldr	r5, [r7, #0]
 1330              	.LVL105:
 1331              		.loc 1 1005 0
 1332 0170 05B3     		cbz	r5, .L147
 1333 0172 0026     		movs	r6, #0
 1334              	.LVL106:
 1335              	.L150:
 1336              		.loc 1 1006 0
 1337 0174 2A7E     		ldrb	r2, [r5, #24]	@ zero_extendqisi2
 1338 0176 0A2A     		cmp	r2, #10
 1339 0178 01D0     		beq	.L185
 1340              		.loc 1 1006 0 is_stmt 0 discriminator 1
 1341 017a FFF7FEFF 		bl	port_halt
 1342              	.LVL107:
 1343              	.L185:
 1344              		.loc 1 1010 0 is_stmt 1
 1345 017e 2068     		ldr	r0, [r4, #0]
ARM GAS  C:\Users\jenny\AppData\Local\Temp\ccAyMdWJ.s 			page 25


 1346 0180 6B6A     		ldr	r3, [r5, #36]
 1347 0182 C11A     		subs	r1, r0, r3
 1348 0184 F029     		cmp	r1, #240
 1349 0186 40F20381 		bls	.L243
 1350              	.LVL108:
 1351              	.LBB15:
 1352              		.loc 1 1019 0
 1353 018a 2846     		mov	r0, r5
 1354 018c FFF7FEFF 		bl	tcp_pcb_purge
 1355              	.LVL109:
 1356              		.loc 1 1021 0
 1357 0190 002E     		cmp	r6, #0
 1358 0192 00F04581 		beq	.L244
 1359              		.loc 1 1022 0
 1360 0196 3868     		ldr	r0, [r7, #0]
 1361 0198 8542     		cmp	r5, r0
 1362 019a 00F04E81 		beq	.L245
 1363              	.L188:
 1364              		.loc 1 1023 0
 1365 019e EB68     		ldr	r3, [r5, #12]
 1366 01a0 F360     		str	r3, [r6, #12]
 1367 01a2 D5F80C80 		ldr	r8, [r5, #12]
 1368              	.L189:
 1369              	.LVL110:
 1370              		.loc 1 1031 0
 1371 01a6 2946     		mov	r1, r5
 1372 01a8 0220     		movs	r0, #2
 1373              		.loc 1 1030 0
 1374 01aa 4546     		mov	r5, r8
 1375              	.LVL111:
 1376              		.loc 1 1031 0
 1377 01ac FFF7FEFF 		bl	memp_free
 1378              	.LVL112:
 1379              	.LBE15:
 1380              		.loc 1 1005 0
 1381 01b0 002D     		cmp	r5, #0
 1382 01b2 DFD1     		bne	.L150
 1383              	.LVL113:
 1384              	.L147:
 1385              		.loc 1 1037 0
 1386 01b4 07B0     		add	sp, sp, #28
 1387 01b6 BDE8F08F 		pop	{r4, r5, r6, r7, r8, r9, sl, fp, pc}
 1388              	.LVL114:
 1389              	.L242:
 1390              		.loc 1 940 0
 1391 01ba 2168     		ldr	r1, [r4, #0]
 1392 01bc DBF82430 		ldr	r3, [fp, #36]
 1393 01c0 CA1A     		subs	r2, r1, r3
 1394 01c2 F02A     		cmp	r2, #240
 1395 01c4 A9D9     		bls	.L173
 1396              	.LVL115:
 1397              	.L174:
 1398              	.LBB16:
 1399              		.loc 1 951 0
 1400 01c6 5846     		mov	r0, fp
 1401 01c8 FFF7FEFF 		bl	tcp_pcb_purge
 1402              	.LVL116:
ARM GAS  C:\Users\jenny\AppData\Local\Temp\ccAyMdWJ.s 			page 26


 1403              		.loc 1 953 0
 1404 01cc 002E     		cmp	r6, #0
 1405 01ce 00F01681 		beq	.L176
 1406              		.loc 1 954 0
 1407 01d2 40F20000 		movw	r0, #:lower16:.LANCHOR7
 1408 01d6 C0F20000 		movt	r0, #:upper16:.LANCHOR7
 1409 01da 0368     		ldr	r3, [r0, #0]
 1410 01dc 9B45     		cmp	fp, r3
 1411 01de 00F02981 		beq	.L246
 1412              	.L177:
 1413              		.loc 1 955 0
 1414 01e2 DBF80C10 		ldr	r1, [fp, #12]
 1415 01e6 F160     		str	r1, [r6, #12]
 1416              	.L178:
 1417              		.loc 1 962 0
 1418 01e8 BAF1000F 		cmp	sl, #0
 1419 01ec 40F0F780 		bne	.L247
 1420              	.L180:
 1421              		.loc 1 968 0
 1422 01f0 DBF81000 		ldr	r0, [fp, #16]
 1423              		.loc 1 967 0
 1424 01f4 DBF88CA0 		ldr	sl, [fp, #140]
 1425              	.LVL117:
 1426              		.loc 1 968 0
 1427 01f8 0390     		str	r0, [sp, #12]
 1428              	.LVL118:
 1429              		.loc 1 971 0
 1430 01fa 5946     		mov	r1, fp
 1431 01fc 0220     		movs	r0, #2
 1432              	.LVL119:
 1433              		.loc 1 970 0
 1434 01fe DBF80C90 		ldr	r9, [fp, #12]
 1435              	.LVL120:
 1436              		.loc 1 971 0
 1437 0202 FFF7FEFF 		bl	memp_free
 1438              	.LVL121:
 1439              		.loc 1 973 0
 1440 0206 87F80080 		strb	r8, [r7, #0]
 1441              		.loc 1 974 0
 1442 020a BAF1000F 		cmp	sl, #0
 1443 020e 07D0     		beq	.L204
 1444              		.loc 1 974 0 is_stmt 0 discriminator 1
 1445 0210 6FF00901 		mvn	r1, #9
 1446 0214 0398     		ldr	r0, [sp, #12]
 1447 0216 D047     		blx	sl
 1448              	.LVL122:
 1449              		.loc 1 975 0 is_stmt 1 discriminator 1
 1450 0218 3978     		ldrb	r1, [r7, #0]	@ zero_extendqisi2
 1451 021a 0029     		cmp	r1, #0
 1452 021c 7FF40AAF 		bne	.L231
 1453              	.L204:
 1454              		.loc 1 970 0
 1455 0220 CB46     		mov	fp, r9
 1456              	.LVL123:
 1457              	.LBE16:
 1458              		.loc 1 808 0
 1459 0222 BBF1000F 		cmp	fp, #0
ARM GAS  C:\Users\jenny\AppData\Local\Temp\ccAyMdWJ.s 			page 27


 1460 0226 7FF410AF 		bne	.L149
 1461              	.LVL124:
 1462 022a 9FE7     		b	.L184
 1463              	.LVL125:
 1464              	.L235:
 1465              		.loc 1 810 0 discriminator 1
 1466 022c FFF7FEFF 		bl	port_halt
 1467              	.LVL126:
 1468 0230 9BF81820 		ldrb	r2, [fp, #24]	@ zero_extendqisi2
 1469              		.loc 1 811 0 discriminator 1
 1470 0234 012A     		cmp	r2, #1
 1471 0236 7FF410AF 		bne	.L153
 1472              	.L236:
 1473 023a FFF7FEFF 		bl	port_halt
 1474              	.LVL127:
 1475 023e 9BF81820 		ldrb	r2, [fp, #24]	@ zero_extendqisi2
 1476              		.loc 1 812 0 discriminator 1
 1477 0242 0A2A     		cmp	r2, #10
 1478 0244 7FF40CAF 		bne	.L154
 1479              	.L237:
 1480 0248 FFF7FEFF 		bl	port_halt
 1481              	.LVL128:
 1482              		.loc 1 813 0 discriminator 1
 1483 024c 2878     		ldrb	r0, [r5, #0]	@ zero_extendqisi2
 1484 024e 9BF82110 		ldrb	r1, [fp, #33]	@ zero_extendqisi2
 1485 0252 8142     		cmp	r1, r0
 1486 0254 7FF40AAF 		bne	.L155
 1487              	.L238:
 1488              		.loc 1 815 0
 1489 0258 DBF80CB0 		ldr	fp, [fp, #12]
 1490              	.LVL129:
 1491              		.loc 1 808 0
 1492 025c BBF1000F 		cmp	fp, #0
 1493 0260 7FF4F3AE 		bne	.L149
 1494 0264 82E7     		b	.L184
 1495              	.LVL130:
 1496              	.L200:
 1497              		.loc 1 881 0
 1498 0266 062B     		cmp	r3, #6
 1499              		.loc 1 820 0
 1500 0268 4FF00009 		mov	r9, #0
 1501              	.LVL131:
 1502              		.loc 1 881 0
 1503 026c 7FF431AF 		bne	.L166
 1504              	.LVL132:
 1505              	.L239:
 1506              		.loc 1 883 0
 1507 0270 9BF81E30 		ldrb	r3, [fp, #30]	@ zero_extendqisi2
 1508 0274 03F01001 		and	r1, r3, #16
 1509 0278 CAB2     		uxtb	r2, r1
 1510 027a 002A     		cmp	r2, #0
 1511 027c 3FF435AF 		beq	.L203
 1512              		.loc 1 886 0
 1513 0280 2068     		ldr	r0, [r4, #0]
 1514 0282 DBF82430 		ldr	r3, [fp, #36]
 1515 0286 C11A     		subs	r1, r0, r3
 1516 0288 2829     		cmp	r1, #40
ARM GAS  C:\Users\jenny\AppData\Local\Temp\ccAyMdWJ.s 			page 28


 1517 028a 7FF62EAF 		bls	.L203
 1518              		.loc 1 888 0
 1519 028e 09F1010C 		add	ip, r9, #1
 1520 0292 5FFA8CF9 		uxtb	r9, ip
 1521              	.LVL133:
 1522 0296 28E7     		b	.L203
 1523              	.LVL134:
 1524              	.L161:
 1525              		.loc 1 844 0
 1526 0298 BBF83410 		ldrh	r1, [fp, #52]
 1527 029c 0804     		lsls	r0, r1, #16
 1528 029e 02D4     		bmi	.L163
 1529              		.loc 1 845 0
 1530 02a0 481C     		adds	r0, r1, #1
 1531 02a2 ABF83400 		strh	r0, [fp, #52]	@ movhi
 1532              	.L163:
 1533              		.loc 1 848 0
 1534 02a6 DBF87010 		ldr	r1, [fp, #112]
 1535 02aa 0029     		cmp	r1, #0
 1536 02ac DBD0     		beq	.L200
 1537              		.loc 1 848 0 is_stmt 0 discriminator 1
 1538 02ae BBF93400 		ldrsh	r0, [fp, #52]
 1539 02b2 BBF94410 		ldrsh	r1, [fp, #68]
 1540 02b6 8842     		cmp	r0, r1
 1541 02b8 D5DB     		blt	.L200
 1542              		.loc 1 856 0 is_stmt 1
 1543 02ba 022B     		cmp	r3, #2
 1544 02bc 0ED0     		beq	.L164
 1545              		.loc 1 857 0
 1546 02be 40F20000 		movw	r0, #:lower16:.LANCHOR10
 1547 02c2 C0F20000 		movt	r0, #:upper16:.LANCHOR10
 1548 02c6 BBF94010 		ldrsh	r1, [fp, #64]
 1549 02ca BBF94230 		ldrsh	r3, [fp, #66]
 1550 02ce 825C     		ldrb	r2, [r0, r2]	@ zero_extendqisi2
 1551 02d0 03EBE101 		add	r1, r3, r1, asr #3
 1552 02d4 01FA02F1 		lsl	r1, r1, r2
 1553 02d8 ABF84410 		strh	r1, [fp, #68]	@ movhi
 1554              	.L164:
 1555              		.loc 1 864 0
 1556 02dc BBF84C00 		ldrh	r0, [fp, #76]
 1557 02e0 BBF86020 		ldrh	r2, [fp, #96]
 1558              		.loc 1 866 0
 1559 02e4 BBF83630 		ldrh	r3, [fp, #54]
 1560              		.loc 1 861 0
 1561 02e8 ABF83480 		strh	r8, [fp, #52]	@ movhi
 1562              	.LVL135:
 1563              		.loc 1 865 0
 1564 02ec 9042     		cmp	r0, r2
 1565 02ee 38BF     		it	cc
 1566 02f0 0246     		movcc	r2, r0
 1567 02f2 5008     		lsrs	r0, r2, #1
 1568              		.loc 1 866 0
 1569 02f4 5900     		lsls	r1, r3, #1
 1570 02f6 8842     		cmp	r0, r1
 1571              		.loc 1 865 0
 1572 02f8 ABF84E00 		strh	r0, [fp, #78]	@ movhi
 1573              		.loc 1 869 0
ARM GAS  C:\Users\jenny\AppData\Local\Temp\ccAyMdWJ.s 			page 29


 1574 02fc ABF84C30 		strh	r3, [fp, #76]	@ movhi
 1575              		.loc 1 867 0
 1576 0300 B8BF     		it	lt
 1577 0302 ABF84E10 		strhlt	r1, [fp, #78]	@ movhi
 1578              		.loc 1 876 0
 1579 0306 5846     		mov	r0, fp
 1580 0308 FFF7FEFF 		bl	tcp_rexmit_rto
 1581              	.LVL136:
 1582              		.loc 1 820 0
 1583 030c 4FF00009 		mov	r9, #0
 1584 0310 9BF81830 		ldrb	r3, [fp, #24]	@ zero_extendqisi2
 1585 0314 DAE6     		b	.L160
 1586              	.L249:
 1587 0316 00BF     		.align	2
 1588              	.L248:
 1589 0318 00000000 		.word	.LANCHOR5
 1590 031c 00000000 		.word	.LANCHOR6
 1591 0320 00000000 		.word	.LANCHOR11
 1592 0324 00000000 		.word	.LANCHOR8
 1593              	.LVL137:
 1594              	.L241:
 1595              		.loc 1 931 0
 1596 0328 2068     		ldr	r0, [r4, #0]
 1597 032a DBF82410 		ldr	r1, [fp, #36]
 1598 032e 431A     		subs	r3, r0, r1
 1599 0330 282B     		cmp	r3, #40
 1600 0332 7FF6F2AE 		bls	.L173
 1601              		.loc 1 933 0
 1602 0336 09F10109 		add	r9, r9, #1
 1603              	.LVL138:
 1604 033a 5FFA89F9 		uxtb	r9, r9
 1605              	.LVL139:
 1606 033e ECE6     		b	.L173
 1607              	.LVL140:
 1608              	.L157:
 1609              		.loc 1 823 0 discriminator 1
 1610 0340 062A     		cmp	r2, #6
 1611 0342 7FF49CAE 		bne	.L158
 1612              		.loc 1 821 0
 1613 0346 4FF0000A 		mov	sl, #0
 1614              		.loc 1 824 0
 1615 034a 4FF00109 		mov	r9, #1
 1616 034e CEE6     		b	.L159
 1617              	.L197:
 1618              		.loc 1 828 0
 1619 0350 4FF00109 		mov	r9, #1
 1620 0354 BAE6     		b	.L160
 1621              	.LVL141:
 1622              	.L240:
 1623              		.loc 1 923 0
 1624 0356 FFF7FEFF 		bl	tcp_segs_free
 1625              	.LVL142:
 1626              		.loc 1 924 0
 1627 035a CBF87480 		str	r8, [fp, #116]
 1628 035e D5E6     		b	.L170
 1629              	.LVL143:
 1630              	.L168:
ARM GAS  C:\Users\jenny\AppData\Local\Temp\ccAyMdWJ.s 			page 30


 1631              		.loc 1 899 0
 1632 0360 DBF89030 		ldr	r3, [fp, #144]
 1633              		.loc 1 898 0
 1634 0364 2168     		ldr	r1, [r4, #0]
 1635 0366 DBF82420 		ldr	r2, [fp, #36]
 1636              		.loc 1 899 0
 1637 036a DDF810A0 		ldr	sl, [sp, #16]
 1638 036e 03F52420 		add	r0, r3, #671744
 1639 0372 00F6B840 		addw	r0, r0, #3256
 1640              		.loc 1 898 0
 1641 0376 8A1A     		subs	r2, r1, r2
 1642              		.loc 1 899 0
 1643 0378 AAFB00C1 		umull	ip, r1, sl, r0
 1644              		.loc 1 898 0
 1645 037c B2EB511F 		cmp	r2, r1, lsr #5
 1646 0380 16D9     		bls	.L169
 1647              		.loc 1 905 0
 1648 0382 09F10109 		add	r9, r9, #1
 1649              	.LVL144:
 1650 0386 5FFA89F9 		uxtb	r9, r9
 1651              	.LVL145:
 1652              		.loc 1 906 0
 1653 038a 4FF0010A 		mov	sl, #1
 1654 038e AEE6     		b	.L159
 1655              	.LVL146:
 1656              	.L243:
 1657              		.loc 1 1034 0
 1658 0390 2E46     		mov	r6, r5
 1659 0392 ED68     		ldr	r5, [r5, #12]
 1660              	.LVL147:
 1661              		.loc 1 1005 0
 1662 0394 002D     		cmp	r5, #0
 1663 0396 7FF4EDAE 		bne	.L150
 1664 039a 0BE7     		b	.L147
 1665              	.LVL148:
 1666              	.L183:
 1667              		.loc 1 995 0
 1668 039c 5846     		mov	r0, fp
 1669 039e 5E46     		mov	r6, fp
 1670              		.loc 1 981 0
 1671 03a0 D346     		mov	fp, sl
 1672              	.LVL149:
 1673              		.loc 1 995 0
 1674 03a2 FFF7FEFF 		bl	tcp_output
 1675              	.LVL150:
 1676              		.loc 1 808 0
 1677 03a6 BBF1000F 		cmp	fp, #0
 1678 03aa 7FF44EAE 		bne	.L149
 1679              	.LVL151:
 1680 03ae DDE6     		b	.L184
 1681              	.LVL152:
 1682              	.L169:
 1683              		.loc 1 909 0
 1684 03b0 DDF814C0 		ldr	ip, [sp, #20]
 1685 03b4 9BF89600 		ldrb	r0, [fp, #150]	@ zero_extendqisi2
 1686              		.loc 1 910 0
 1687 03b8 DDF810A0 		ldr	sl, [sp, #16]
ARM GAS  C:\Users\jenny\AppData\Local\Temp\ccAyMdWJ.s 			page 31


 1688              		.loc 1 909 0
 1689 03bc 0CFB0033 		mla	r3, ip, r0, r3
 1690              		.loc 1 910 0
 1691 03c0 AAFB03C1 		umull	ip, r1, sl, r3
 1692              		.loc 1 908 0
 1693 03c4 B2EB511F 		cmp	r2, r1, lsr #5
 1694 03c8 7FF68FAE 		bls	.L203
 1695              		.loc 1 912 0
 1696 03cc 5846     		mov	r0, fp
 1697 03ce FFF7FEFF 		bl	tcp_keepalive
 1698              	.LVL153:
 1699              		.loc 1 913 0
 1700 03d2 9BF89620 		ldrb	r2, [fp, #150]	@ zero_extendqisi2
 1701 03d6 501C     		adds	r0, r2, #1
 1702 03d8 8BF89600 		strb	r0, [fp, #150]
 1703 03dc 85E6     		b	.L203
 1704              	.LVL154:
 1705              	.L247:
 1706              	.LBB17:
 1707              		.loc 1 963 0
 1708 03de BBF81A20 		ldrh	r2, [fp, #26]
 1709 03e2 DBF85000 		ldr	r0, [fp, #80]
 1710 03e6 DBF82810 		ldr	r1, [fp, #40]
 1711 03ea 0092     		str	r2, [sp, #0]
 1712 03ec BBF81C30 		ldrh	r3, [fp, #28]
 1713 03f0 5A46     		mov	r2, fp
 1714 03f2 0193     		str	r3, [sp, #4]
 1715 03f4 0BF10403 		add	r3, fp, #4
 1716 03f8 FFF7FEFF 		bl	tcp_rst
 1717              	.LVL155:
 1718 03fc F8E6     		b	.L180
 1719              	.L176:
 1720              		.loc 1 958 0
 1721 03fe 40F20000 		movw	r0, #:lower16:.LANCHOR7
 1722 0402 C0F20000 		movt	r0, #:upper16:.LANCHOR7
 1723 0406 0368     		ldr	r3, [r0, #0]
 1724 0408 5B45     		cmp	r3, fp
 1725 040a 01D0     		beq	.L179
 1726              		.loc 1 958 0 is_stmt 0 discriminator 1
 1727 040c FFF7FEFF 		bl	port_halt
 1728              	.LVL156:
 1729              	.L179:
 1730              		.loc 1 959 0 is_stmt 1
 1731 0410 40F20002 		movw	r2, #:lower16:.LANCHOR7
 1732 0414 DBF80C10 		ldr	r1, [fp, #12]
 1733 0418 C0F20002 		movt	r2, #:upper16:.LANCHOR7
 1734 041c 1160     		str	r1, [r2, #0]
 1735 041e E3E6     		b	.L178
 1736              	.LVL157:
 1737              	.L244:
 1738              	.LBE17:
 1739              	.LBB18:
 1740              		.loc 1 1026 0
 1741 0420 3A68     		ldr	r2, [r7, #0]
 1742 0422 AA42     		cmp	r2, r5
 1743 0424 01D0     		beq	.L190
 1744              		.loc 1 1026 0 is_stmt 0 discriminator 1
ARM GAS  C:\Users\jenny\AppData\Local\Temp\ccAyMdWJ.s 			page 32


 1745 0426 FFF7FEFF 		bl	port_halt
 1746              	.LVL158:
 1747              	.L190:
 1748              		.loc 1 1027 0 is_stmt 1
 1749 042a D5F80C80 		ldr	r8, [r5, #12]
 1750 042e C7F80080 		str	r8, [r7, #0]
 1751 0432 B8E6     		b	.L189
 1752              	.LVL159:
 1753              	.L246:
 1754              	.LBE18:
 1755              	.LBB19:
 1756              		.loc 1 954 0 discriminator 1
 1757 0434 FFF7FEFF 		bl	port_halt
 1758              	.LVL160:
 1759 0438 D3E6     		b	.L177
 1760              	.LVL161:
 1761              	.L245:
 1762              	.LBE19:
 1763              	.LBB20:
 1764              		.loc 1 1022 0 discriminator 1
 1765 043a FFF7FEFF 		bl	port_halt
 1766              	.LVL162:
 1767 043e AEE6     		b	.L188
 1768              	.LBE20:
 1769              		.cfi_endproc
 1770              	.LFE21:
 1771              		.size	tcp_slowtmr, .-tcp_slowtmr
 1772              		.section	.text.tcp_pcb_remove,"ax",%progbits
 1773              		.align	2
 1774              		.p2align 4,,15
 1775              		.global	tcp_pcb_remove
 1776              		.thumb
 1777              		.thumb_func
 1778              		.type	tcp_pcb_remove, %function
 1779              	tcp_pcb_remove:
 1780              	.LFB40:
 1781              		.loc 1 1539 0
 1782              		.cfi_startproc
 1783              		@ args = 0, pretend = 0, frame = 0
 1784              		@ frame_needed = 0, uses_anonymous_args = 0
 1785              	.LVL163:
 1786              		.loc 1 1540 0
 1787 0000 0268     		ldr	r2, [r0, #0]
 1788 0002 8A42     		cmp	r2, r1
 1789              		.loc 1 1539 0
 1790 0004 10B5     		push	{r4, lr}
 1791              	.LCFI19:
 1792              		.cfi_def_cfa_offset 8
 1793              		.cfi_offset 4, -8
 1794              		.cfi_offset 14, -4
 1795              		.loc 1 1539 0
 1796 0006 0C46     		mov	r4, r1
 1797              		.loc 1 1540 0
 1798 0008 37D0     		beq	.L279
 1799              		.loc 1 1540 0 is_stmt 0 discriminator 2
 1800 000a 1E49     		ldr	r1, .L284
 1801              	.LVL164:
ARM GAS  C:\Users\jenny\AppData\Local\Temp\ccAyMdWJ.s 			page 33


 1802 000c 0A60     		str	r2, [r1, #0]
 1803 000e 52B1     		cbz	r2, .L252
 1804              		.loc 1 1540 0
 1805 0010 D368     		ldr	r3, [r2, #12]
 1806 0012 A342     		cmp	r3, r4
 1807 0014 34D0     		beq	.L280
 1808              		.loc 1 1540 0 discriminator 5
 1809 0016 2BB1     		cbz	r3, .L281
 1810              	.LVL165:
 1811              	.L257:
 1812              		.loc 1 1540 0 discriminator 7
 1813 0018 D868     		ldr	r0, [r3, #12]
 1814 001a A042     		cmp	r0, r4
 1815 001c 1FD0     		beq	.L282
 1816              		.loc 1 1540 0
 1817 001e 0346     		mov	r3, r0
 1818 0020 002B     		cmp	r3, #0
 1819 0022 F9D1     		bne	.L257
 1820              	.L281:
 1821 0024 0B60     		str	r3, [r1, #0]
 1822              	.L252:
 1823              		.loc 1 1540 0 discriminator 6
 1824 0026 0020     		movs	r0, #0
 1825 0028 E060     		str	r0, [r4, #12]
 1826              		.loc 1 1542 0 is_stmt 1 discriminator 6
 1827 002a 2046     		mov	r0, r4
 1828 002c FFF7FEFF 		bl	tcp_pcb_purge
 1829              	.LVL166:
 1830              		.loc 1 1545 0 discriminator 6
 1831 0030 237E     		ldrb	r3, [r4, #24]	@ zero_extendqisi2
 1832 0032 0A2B     		cmp	r3, #10
 1833 0034 04D0     		beq	.L264
 1834              		.loc 1 1545 0 is_stmt 0 discriminator 1
 1835 0036 012B     		cmp	r3, #1
 1836 0038 0ED0     		beq	.L263
 1837              		.loc 1 1547 0 is_stmt 1
 1838 003a A17F     		ldrb	r1, [r4, #30]	@ zero_extendqisi2
 1839              		.loc 1 1546 0
 1840 003c CA07     		lsls	r2, r1, #31
 1841 003e 12D4     		bmi	.L283
 1842              	.L264:
 1843              		.loc 1 1553 0
 1844 0040 E36E     		ldr	r3, [r4, #108]
 1845 0042 0BB1     		cbz	r3, .L261
 1846              		.loc 1 1553 0 is_stmt 0 discriminator 1
 1847 0044 FFF7FEFF 		bl	port_halt
 1848              	.LVL167:
 1849              	.L261:
 1850              		.loc 1 1554 0 is_stmt 1
 1851 0048 216F     		ldr	r1, [r4, #112]
 1852 004a 09B1     		cbz	r1, .L266
 1853              		.loc 1 1554 0 is_stmt 0 discriminator 1
 1854 004c FFF7FEFF 		bl	port_halt
 1855              	.LVL168:
 1856              	.L266:
 1857              		.loc 1 1556 0 is_stmt 1
 1858 0050 626F     		ldr	r2, [r4, #116]
ARM GAS  C:\Users\jenny\AppData\Local\Temp\ccAyMdWJ.s 			page 34


 1859 0052 0AB1     		cbz	r2, .L263
 1860              		.loc 1 1556 0 is_stmt 0 discriminator 1
 1861 0054 FFF7FEFF 		bl	port_halt
 1862              	.LVL169:
 1863              	.L263:
 1864              		.loc 1 1560 0 is_stmt 1
 1865 0058 0020     		movs	r0, #0
 1866 005a 2076     		strb	r0, [r4, #24]
 1867 005c 10BD     		pop	{r4, pc}
 1868              	.L282:
 1869 005e 0B60     		str	r3, [r1, #0]
 1870              	.L254:
 1871              		.loc 1 1540 0 discriminator 4
 1872 0060 E268     		ldr	r2, [r4, #12]
 1873 0062 DA60     		str	r2, [r3, #12]
 1874 0064 DFE7     		b	.L252
 1875              	.L283:
 1876              		.loc 1 1548 0
 1877 0066 41F00202 		orr	r2, r1, #2
 1878 006a A277     		strb	r2, [r4, #30]
 1879              		.loc 1 1549 0
 1880 006c 2046     		mov	r0, r4
 1881 006e FFF7FEFF 		bl	tcp_output
 1882              	.LVL170:
 1883              		.loc 1 1552 0
 1884 0072 207E     		ldrb	r0, [r4, #24]	@ zero_extendqisi2
 1885 0074 0128     		cmp	r0, #1
 1886 0076 E3D1     		bne	.L264
 1887 0078 EEE7     		b	.L263
 1888              	.LVL171:
 1889              	.L279:
 1890              		.loc 1 1540 0 discriminator 1
 1891 007a C968     		ldr	r1, [r1, #12]
 1892              	.LVL172:
 1893 007c 0160     		str	r1, [r0, #0]
 1894 007e D2E7     		b	.L252
 1895              	.L280:
 1896              		.loc 1 1540 0 is_stmt 0
 1897 0080 1346     		mov	r3, r2
 1898 0082 EDE7     		b	.L254
 1899              	.L285:
 1900              		.align	2
 1901              	.L284:
 1902 0084 00000000 		.word	.LANCHOR3
 1903              		.cfi_endproc
 1904              	.LFE40:
 1905              		.size	tcp_pcb_remove, .-tcp_pcb_remove
 1906 0088 AFF30080 		.section	.text.tcp_abandon,"ax",%progbits
 1906      AFF30080 
 1907              		.align	2
 1908              		.p2align 4,,15
 1909              		.global	tcp_abandon
 1910              		.thumb
 1911              		.thumb_func
 1912              		.type	tcp_abandon, %function
 1913              	tcp_abandon:
 1914              	.LFB12:
ARM GAS  C:\Users\jenny\AppData\Local\Temp\ccAyMdWJ.s 			page 35


 1915              		.loc 1 358 0 is_stmt 1
 1916              		.cfi_startproc
 1917              		@ args = 0, pretend = 0, frame = 0
 1918              		@ frame_needed = 0, uses_anonymous_args = 0
 1919              	.LVL173:
 1920 0000 2DE9F043 		push	{r4, r5, r6, r7, r8, r9, lr}
 1921              	.LCFI20:
 1922              		.cfi_def_cfa_offset 28
 1923              		.cfi_offset 4, -28
 1924              		.cfi_offset 5, -24
 1925              		.cfi_offset 6, -20
 1926              		.cfi_offset 7, -16
 1927              		.cfi_offset 8, -12
 1928              		.cfi_offset 9, -8
 1929              		.cfi_offset 14, -4
 1930              		.loc 1 366 0
 1931 0004 037E     		ldrb	r3, [r0, #24]	@ zero_extendqisi2
 1932 0006 012B     		cmp	r3, #1
 1933              		.loc 1 358 0
 1934 0008 83B0     		sub	sp, sp, #12
 1935              	.LCFI21:
 1936              		.cfi_def_cfa_offset 40
 1937              		.loc 1 358 0
 1938 000a 0446     		mov	r4, r0
 1939 000c 0E46     		mov	r6, r1
 1940              		.loc 1 366 0
 1941 000e 3ED0     		beq	.L309
 1942              	.LVL174:
 1943              	.L287:
 1944              		.loc 1 371 0
 1945 0010 0A2B     		cmp	r3, #10
 1946 0012 31D0     		beq	.L310
 1947              		.loc 1 381 0
 1948 0014 2048     		ldr	r0, .L312
 1949              		.loc 1 375 0
 1950 0016 D4F85090 		ldr	r9, [r4, #80]
 1951              	.LVL175:
 1952              		.loc 1 376 0
 1953 001a D4F82880 		ldr	r8, [r4, #40]
 1954              	.LVL176:
 1955              		.loc 1 378 0
 1956 001e D4F88C50 		ldr	r5, [r4, #140]
 1957              	.LVL177:
 1958              		.loc 1 380 0
 1959 0022 2769     		ldr	r7, [r4, #16]
 1960              	.LVL178:
 1961              		.loc 1 381 0
 1962 0024 2146     		mov	r1, r4
 1963 0026 FFF7FEFF 		bl	tcp_pcb_remove
 1964              	.LVL179:
 1965 002a 1C49     		ldr	r1, .L312+4
 1966              		.loc 1 382 0
 1967 002c 206F     		ldr	r0, [r4, #112]
 1968              		.loc 1 381 0
 1969 002e 0122     		movs	r2, #1
 1970 0030 0A70     		strb	r2, [r1, #0]
 1971              		.loc 1 382 0
ARM GAS  C:\Users\jenny\AppData\Local\Temp\ccAyMdWJ.s 			page 36


 1972 0032 08B1     		cbz	r0, .L289
 1973              		.loc 1 383 0
 1974 0034 FFF7FEFF 		bl	tcp_segs_free
 1975              	.LVL180:
 1976              	.L289:
 1977              		.loc 1 385 0
 1978 0038 E06E     		ldr	r0, [r4, #108]
 1979 003a 08B1     		cbz	r0, .L290
 1980              		.loc 1 386 0
 1981 003c FFF7FEFF 		bl	tcp_segs_free
 1982              	.LVL181:
 1983              	.L290:
 1984              		.loc 1 389 0
 1985 0040 606F     		ldr	r0, [r4, #116]
 1986 0042 08B1     		cbz	r0, .L291
 1987              		.loc 1 390 0
 1988 0044 FFF7FEFF 		bl	tcp_segs_free
 1989              	.LVL182:
 1990              	.L291:
 1991              		.loc 1 393 0
 1992 0048 5EB9     		cbnz	r6, .L311
 1993              	.L292:
 1994              		.loc 1 397 0
 1995 004a 0220     		movs	r0, #2
 1996 004c 2146     		mov	r1, r4
 1997 004e FFF7FEFF 		bl	memp_free
 1998              	.LVL183:
 1999              		.loc 1 398 0
 2000 0052 1DB1     		cbz	r5, .L286
 2001              		.loc 1 398 0 is_stmt 0 discriminator 1
 2002 0054 3846     		mov	r0, r7
 2003 0056 6FF00901 		mvn	r1, #9
 2004 005a A847     		blx	r5
 2005              	.LVL184:
 2006              	.L286:
 2007              		.loc 1 400 0 is_stmt 1
 2008 005c 03B0     		add	sp, sp, #12
 2009 005e BDE8F083 		pop	{r4, r5, r6, r7, r8, r9, pc}
 2010              	.L311:
 2011              		.loc 1 395 0
 2012 0062 628B     		ldrh	r2, [r4, #26]
 2013 0064 A38B     		ldrh	r3, [r4, #28]
 2014 0066 4846     		mov	r0, r9
 2015 0068 8DE80C00 		stmia	sp, {r2, r3}
 2016 006c 4146     		mov	r1, r8
 2017 006e 2246     		mov	r2, r4
 2018 0070 231D     		adds	r3, r4, #4
 2019 0072 FFF7FEFF 		bl	tcp_rst
 2020              	.LVL185:
 2021 0076 E8E7     		b	.L292
 2022              	.LVL186:
 2023              	.L310:
 2024              		.loc 1 372 0
 2025 0078 2146     		mov	r1, r4
 2026 007a 0948     		ldr	r0, .L312+8
 2027 007c FFF7FEFF 		bl	tcp_pcb_remove
 2028              	.LVL187:
ARM GAS  C:\Users\jenny\AppData\Local\Temp\ccAyMdWJ.s 			page 37


 2029              		.loc 1 373 0
 2030 0080 0220     		movs	r0, #2
 2031 0082 2146     		mov	r1, r4
 2032              		.loc 1 400 0
 2033 0084 03B0     		add	sp, sp, #12
 2034 0086 BDE8F043 		pop	{r4, r5, r6, r7, r8, r9, lr}
 2035              		.loc 1 373 0
 2036 008a FFF7FEBF 		b	memp_free
 2037              	.LVL188:
 2038              	.L309:
 2039              		.loc 1 366 0 discriminator 1
 2040 008e FFF7FEFF 		bl	port_halt
 2041              	.LVL189:
 2042 0092 237E     		ldrb	r3, [r4, #24]	@ zero_extendqisi2
 2043 0094 BCE7     		b	.L287
 2044              	.L313:
 2045 0096 00BF     		.align	2
 2046              	.L312:
 2047 0098 00000000 		.word	.LANCHOR7
 2048 009c 00000000 		.word	.LANCHOR11
 2049 00a0 00000000 		.word	.LANCHOR8
 2050              		.cfi_endproc
 2051              	.LFE12:
 2052              		.size	tcp_abandon, .-tcp_abandon
 2053 00a4 AFF30080 		.section	.text.tcp_abort,"ax",%progbits
 2053      AFF30080 
 2053      AFF30080 
 2054              		.align	2
 2055              		.p2align 4,,15
 2056              		.global	tcp_abort
 2057              		.thumb
 2058              		.thumb_func
 2059              		.type	tcp_abort, %function
 2060              	tcp_abort:
 2061              	.LFB13:
 2062              		.loc 1 414 0
 2063              		.cfi_startproc
 2064              		@ args = 0, pretend = 0, frame = 0
 2065              		@ frame_needed = 0, uses_anonymous_args = 0
 2066              		@ link register save eliminated.
 2067              	.LVL190:
 2068              		.loc 1 415 0
 2069 0000 0121     		movs	r1, #1
 2070              		.loc 1 416 0
 2071              		.loc 1 415 0
 2072 0002 FFF7FEBF 		b	tcp_abandon
 2073              	.LVL191:
 2074              		.cfi_endproc
 2075              	.LFE13:
 2076              		.size	tcp_abort, .-tcp_abort
 2077 0006 00BFAFF3 		.section	.text.tcp_alloc,"ax",%progbits
 2077      0080AFF3 
 2077      0080
 2078              		.align	2
 2079              		.p2align 4,,15
 2080              		.global	tcp_alloc
 2081              		.thumb
ARM GAS  C:\Users\jenny\AppData\Local\Temp\ccAyMdWJ.s 			page 38


 2082              		.thumb_func
 2083              		.type	tcp_alloc, %function
 2084              	tcp_alloc:
 2085              	.LFB31:
 2086              		.loc 1 1279 0
 2087              		.cfi_startproc
 2088              		@ args = 0, pretend = 0, frame = 0
 2089              		@ frame_needed = 0, uses_anonymous_args = 0
 2090              	.LVL192:
 2091 0000 2DE9F843 		push	{r3, r4, r5, r6, r7, r8, r9, lr}
 2092              	.LCFI22:
 2093              		.cfi_def_cfa_offset 32
 2094              		.cfi_offset 3, -32
 2095              		.cfi_offset 4, -28
 2096              		.cfi_offset 5, -24
 2097              		.cfi_offset 6, -20
 2098              		.cfi_offset 7, -16
 2099              		.cfi_offset 8, -12
 2100              		.cfi_offset 9, -8
 2101              		.cfi_offset 14, -4
 2102              		.loc 1 1279 0
 2103 0004 0746     		mov	r7, r0
 2104              		.loc 1 1283 0
 2105 0006 0220     		movs	r0, #2
 2106              	.LVL193:
 2107 0008 FFF7FEFF 		bl	memp_malloc
 2108              	.LVL194:
 2109              		.loc 1 1284 0
 2110 000c 0446     		mov	r4, r0
 2111 000e 0028     		cmp	r0, #0
 2112 0010 48D0     		beq	.L342
 2113              	.LVL195:
 2114              	.L316:
 2115              		.loc 1 1307 0
 2116 0012 0021     		movs	r1, #0
 2117 0014 9822     		movs	r2, #152
 2118 0016 2046     		mov	r0, r4
 2119 0018 FFF7FEFF 		bl	memset
 2120              	.LVL196:
 2121              	.LBB27:
 2122              	.LBB28:
 2123              		.loc 1 1575 0
 2124 001c 434E     		ldr	r6, .L344
 2125 001e 4448     		ldr	r0, .L344+4
 2126 0020 3368     		ldr	r3, [r6, #0]
 2127 0022 0568     		ldr	r5, [r0, #0]
 2128              	.LBE28:
 2129              	.LBE27:
 2130              		.loc 1 1329 0
 2131 0024 4349     		ldr	r1, .L344+8
 2132              		.loc 1 1308 0
 2133 0026 6776     		strb	r7, [r4, #25]
 2134              	.LBB31:
 2135              	.LBB29:
 2136              		.loc 1 1575 0
 2137 0028 EB18     		adds	r3, r5, r3
 2138              	.LBE29:
ARM GAS  C:\Users\jenny\AppData\Local\Temp\ccAyMdWJ.s 			page 39


 2139              	.LBE31:
 2140              		.loc 1 1311 0
 2141 002a 4FF4066C 		mov	ip, #2144
 2142              		.loc 1 1329 0
 2143 002e 91F80080 		ldrb	r8, [r1, #0]	@ zero_extendqisi2
 2144              		.loc 1 1311 0
 2145 0032 A4F82CC0 		strh	ip, [r4, #44]	@ movhi
 2146              		.loc 1 1310 0
 2147 0036 0021     		movs	r1, #0
 2148 0038 0A46     		mov	r2, r1	@ movhi
 2149              		.loc 1 1338 0
 2150 003a 4FF45D40 		mov	r0, #56576
 2151              		.loc 1 1310 0
 2152 003e A4F86810 		strh	r1, [r4, #104]	@ movhi
 2153              		.loc 1 1312 0
 2154 0042 A4F82EC0 		strh	ip, [r4, #46]	@ movhi
 2155              		.loc 1 1313 0
 2156 0046 6172     		strb	r1, [r4, #9]
 2157              		.loc 1 1314 0
 2158 0048 4FF0FF0C 		mov	ip, #255
 2159              		.loc 1 1319 0
 2160 004c A4F84010 		strh	r1, [r4, #64]	@ movhi
 2161              	.LBB32:
 2162              	.LBB30:
 2163              		.loc 1 1575 0
 2164 0050 3360     		str	r3, [r6, #0]
 2165              	.LBE30:
 2166              	.LBE32:
 2167              		.loc 1 1321 0
 2168 0052 4FF6FF71 		movw	r1, #65535
 2169              		.loc 1 1324 0
 2170 0056 A365     		str	r3, [r4, #88]
 2171              		.loc 1 1325 0
 2172 0058 2365     		str	r3, [r4, #80]
 2173              		.loc 1 1326 0
 2174 005a A364     		str	r3, [r4, #72]
 2175              		.loc 1 1327 0
 2176 005c E365     		str	r3, [r4, #92]
 2177              		.loc 1 1334 0
 2178 005e 364B     		ldr	r3, .L344+12
 2179              		.loc 1 1314 0
 2180 0060 84F80AC0 		strb	ip, [r4, #10]
 2181              		.loc 1 1318 0
 2182 0064 0627     		movs	r7, #6
 2183              		.loc 1 1338 0
 2184 0066 C0F26D00 		movt	r0, 109
 2185              		.loc 1 1309 0
 2186 006a 4FF48669 		mov	r9, #1072
 2187              		.loc 1 1317 0
 2188 006e 4FF4067C 		mov	ip, #536
 2189              		.loc 1 1321 0
 2190 0072 A186     		strh	r1, [r4, #52]	@ movhi
 2191              		.loc 1 1322 0
 2192 0074 0121     		movs	r1, #1
 2193              		.loc 1 1309 0
 2194 0076 A4F86690 		strh	r9, [r4, #102]	@ movhi
 2195              		.loc 1 1317 0
ARM GAS  C:\Users\jenny\AppData\Local\Temp\ccAyMdWJ.s 			page 40


 2196 007a A4F836C0 		strh	ip, [r4, #54]	@ movhi
 2197              		.loc 1 1318 0
 2198 007e A4F84470 		strh	r7, [r4, #68]	@ movhi
 2199              		.loc 1 1320 0
 2200 0082 A4F84270 		strh	r7, [r4, #66]	@ movhi
 2201              		.loc 1 1322 0
 2202 0086 A4F84C10 		strh	r1, [r4, #76]	@ movhi
 2203              		.loc 1 1328 0
 2204 008a 6562     		str	r5, [r4, #36]
 2205              		.loc 1 1329 0
 2206 008c 84F82180 		strb	r8, [r4, #33]
 2207              		.loc 1 1331 0
 2208 0090 E277     		strb	r2, [r4, #31]
 2209              		.loc 1 1334 0
 2210 0092 C4F88030 		str	r3, [r4, #128]
 2211              		.loc 1 1338 0
 2212 0096 C4F89000 		str	r0, [r4, #144]
 2213              		.loc 1 1345 0
 2214 009a 84F89620 		strb	r2, [r4, #150]
 2215              	.L333:
 2216              		.loc 1 1348 0
 2217 009e 2046     		mov	r0, r4
 2218 00a0 BDE8F883 		pop	{r3, r4, r5, r6, r7, r8, r9, pc}
 2219              	.LVL197:
 2220              	.L342:
 2221              	.LBB33:
 2222              	.LBB34:
 2223              		.loc 1 1258 0
 2224 00a4 254B     		ldr	r3, .L344+16
 2225 00a6 1B68     		ldr	r3, [r3, #0]
 2226              	.LVL198:
 2227 00a8 83B1     		cbz	r3, .L318
 2228              		.loc 1 1259 0
 2229 00aa 214A     		ldr	r2, .L344+4
 2230 00ac 596A     		ldr	r1, [r3, #36]
 2231 00ae 1468     		ldr	r4, [r2, #0]
 2232 00b0 1846     		mov	r0, r3
 2233              	.LVL199:
 2234 00b2 611A     		subs	r1, r4, r1
 2235 00b4 05E0     		b	.L341
 2236              	.LVL200:
 2237              	.L320:
 2238 00b6 5A6A     		ldr	r2, [r3, #36]
 2239 00b8 A21A     		subs	r2, r4, r2
 2240 00ba 8A42     		cmp	r2, r1
 2241 00bc 24BF     		itt	cs
 2242 00be 1146     		movcs	r1, r2
 2243              	.LVL201:
 2244 00c0 1846     		movcs	r0, r3
 2245              	.L341:
 2246              	.LVL202:
 2247              		.loc 1 1258 0
 2248 00c2 DB68     		ldr	r3, [r3, #12]
 2249              	.LVL203:
 2250 00c4 002B     		cmp	r3, #0
 2251 00c6 F6D1     		bne	.L320
 2252              		.loc 1 1267 0
ARM GAS  C:\Users\jenny\AppData\Local\Temp\ccAyMdWJ.s 			page 41


 2253 00c8 FFF7FEFF 		bl	tcp_abort
 2254              	.LVL204:
 2255              	.L318:
 2256              	.LBE34:
 2257              	.LBE33:
 2258              		.loc 1 1289 0
 2259 00cc 0220     		movs	r0, #2
 2260 00ce FFF7FEFF 		bl	memp_malloc
 2261              	.LVL205:
 2262              		.loc 1 1290 0
 2263 00d2 0446     		mov	r4, r0
 2264 00d4 30B1     		cbz	r0, .L343
 2265 00d6 1A48     		ldr	r0, .L344+20
 2266              	.LVL206:
 2267 00d8 B0F8CC50 		ldrh	r5, [r0, #204]
 2268              	.L326:
 2269              		.loc 1 1303 0
 2270 00dc 013D     		subs	r5, r5, #1
 2271 00de A0F8CC50 		strh	r5, [r0, #204]	@ movhi
 2272 00e2 96E7     		b	.L316
 2273              	.LVL207:
 2274              	.L343:
 2275              	.LBB35:
 2276              	.LBB36:
 2277              		.loc 1 1229 0
 2278 00e4 174B     		ldr	r3, .L344+24
 2279 00e6 1B68     		ldr	r3, [r3, #0]
 2280              	.LVL208:
 2281 00e8 A3B1     		cbz	r3, .L322
 2282              		.loc 1 1232 0
 2283 00ea 114E     		ldr	r6, .L344+4
 2284 00ec 3668     		ldr	r6, [r6, #0]
 2285              		.loc 1 1224 0
 2286 00ee 7F21     		movs	r1, #127
 2287              	.LVL209:
 2288              	.L324:
 2289              		.loc 1 1230 0
 2290 00f0 5A7E     		ldrb	r2, [r3, #25]	@ zero_extendqisi2
 2291 00f2 9742     		cmp	r7, r2
 2292 00f4 08D3     		bcc	.L323
 2293 00f6 9142     		cmp	r1, r2
 2294 00f8 06D3     		bcc	.L323
 2295              		.loc 1 1232 0
 2296 00fa 5D6A     		ldr	r5, [r3, #36]
 2297 00fc 751B     		subs	r5, r6, r5
 2298              		.loc 1 1231 0
 2299 00fe AC42     		cmp	r4, r5
 2300 0100 02D8     		bhi	.L323
 2301 0102 1846     		mov	r0, r3
 2302 0104 1146     		mov	r1, r2
 2303 0106 2C46     		mov	r4, r5
 2304              	.L323:
 2305              	.LVL210:
 2306              		.loc 1 1229 0
 2307 0108 DB68     		ldr	r3, [r3, #12]
 2308              	.LVL211:
 2309 010a 002B     		cmp	r3, #0
ARM GAS  C:\Users\jenny\AppData\Local\Temp\ccAyMdWJ.s 			page 42


 2310 010c F0D1     		bne	.L324
 2311              		.loc 1 1238 0
 2312 010e 08B1     		cbz	r0, .L322
 2313              		.loc 1 1241 0
 2314 0110 FFF7FEFF 		bl	tcp_abort
 2315              	.LVL212:
 2316              	.L322:
 2317              	.LBE36:
 2318              	.LBE35:
 2319              		.loc 1 1295 0
 2320 0114 0220     		movs	r0, #2
 2321 0116 FFF7FEFF 		bl	memp_malloc
 2322              	.LVL213:
 2323              		.loc 1 1296 0
 2324 011a 0446     		mov	r4, r0
 2325 011c 0028     		cmp	r0, #0
 2326 011e BED0     		beq	.L333
 2327              		.loc 1 1298 0
 2328 0120 0748     		ldr	r0, .L344+20
 2329              	.LVL214:
 2330 0122 B0F8CC60 		ldrh	r6, [r0, #204]
 2331 0126 721E     		subs	r2, r6, #1
 2332 0128 95B2     		uxth	r5, r2
 2333 012a D7E7     		b	.L326
 2334              	.L345:
 2335              		.align	2
 2336              	.L344:
 2337 012c 00000000 		.word	.LANCHOR12
 2338 0130 00000000 		.word	.LANCHOR5
 2339 0134 00000000 		.word	.LANCHOR6
 2340 0138 00000000 		.word	tcp_recv_null
 2341 013c 00000000 		.word	.LANCHOR8
 2342 0140 00000000 		.word	lwip_stats
 2343 0144 00000000 		.word	.LANCHOR7
 2344              		.cfi_endproc
 2345              	.LFE31:
 2346              		.size	tcp_alloc, .-tcp_alloc
 2347 0148 AFF30080 		.section	.text.tcp_new,"ax",%progbits
 2347      AFF30080 
 2348              		.align	2
 2349              		.p2align 4,,15
 2350              		.global	tcp_new
 2351              		.thumb
 2352              		.thumb_func
 2353              		.type	tcp_new, %function
 2354              	tcp_new:
 2355              	.LFB32:
 2356              		.loc 1 1364 0
 2357              		.cfi_startproc
 2358              		@ args = 0, pretend = 0, frame = 0
 2359              		@ frame_needed = 0, uses_anonymous_args = 0
 2360              		@ link register save eliminated.
 2361              		.loc 1 1365 0
 2362 0000 4020     		movs	r0, #64
 2363              		.loc 1 1366 0
 2364              		.loc 1 1365 0
 2365 0002 FFF7FEBF 		b	tcp_alloc
ARM GAS  C:\Users\jenny\AppData\Local\Temp\ccAyMdWJ.s 			page 43


 2366              	.LVL215:
 2367              		.cfi_endproc
 2368              	.LFE32:
 2369              		.size	tcp_new, .-tcp_new
 2370 0006 00BFAFF3 		.section	.text.tcp_close_shutdown,"ax",%progbits
 2370      0080AFF3 
 2370      0080
 2371              		.align	2
 2372              		.p2align 4,,15
 2373              		.thumb
 2374              		.thumb_func
 2375              		.type	tcp_close_shutdown, %function
 2376              	tcp_close_shutdown:
 2377              	.LFB9:
 2378              		.loc 1 171 0
 2379              		.cfi_startproc
 2380              		@ args = 0, pretend = 0, frame = 0
 2381              		@ frame_needed = 0, uses_anonymous_args = 0
 2382              	.LVL216:
 2383 0000 30B5     		push	{r4, r5, lr}
 2384              	.LCFI23:
 2385              		.cfi_def_cfa_offset 12
 2386              		.cfi_offset 4, -12
 2387              		.cfi_offset 5, -8
 2388              		.cfi_offset 14, -4
 2389              		.loc 1 174 0
 2390 0002 037E     		ldrb	r3, [r0, #24]	@ zero_extendqisi2
 2391              		.loc 1 171 0
 2392 0004 83B0     		sub	sp, sp, #12
 2393              	.LCFI24:
 2394              		.cfi_def_cfa_offset 24
 2395              		.loc 1 171 0
 2396 0006 0446     		mov	r4, r0
 2397              		.loc 1 174 0
 2398 0008 19B1     		cbz	r1, .L350
 2399              		.loc 1 174 0 is_stmt 0 discriminator 1
 2400 000a 042B     		cmp	r3, #4
 2401 000c 16D0     		beq	.L349
 2402 000e 072B     		cmp	r3, #7
 2403 0010 14D0     		beq	.L349
 2404              	.LVL217:
 2405              	.L350:
 2406              		.loc 1 199 0 is_stmt 1
 2407 0012 072B     		cmp	r3, #7
 2408 0014 0ED8     		bhi	.L398
 2409 0016 DFE803F0 		tbb	[pc, r3]
 2410              	.L370:
 2411 001a 3A       		.byte	(.L364-.L370)/2
 2412 001b 4F       		.byte	(.L365-.L370)/2
 2413 001c 58       		.byte	(.L366-.L370)/2
 2414 001d 04       		.byte	(.L368-.L370)/2
 2415 001e 04       		.byte	(.L368-.L370)/2
 2416 001f 0D       		.byte	(.L398-.L370)/2
 2417 0020 0D       		.byte	(.L398-.L370)/2
 2418 0021 64       		.byte	(.L369-.L370)/2
 2419              		.align	1
 2420              	.L368:
ARM GAS  C:\Users\jenny\AppData\Local\Temp\ccAyMdWJ.s 			page 44


 2421              		.loc 1 236 0
 2422 0022 2046     		mov	r0, r4
 2423 0024 FFF7FEFF 		bl	tcp_send_fin
 2424              	.LVL218:
 2425              		.loc 1 237 0
 2426 0028 28B9     		cbnz	r0, .L362
 2427              		.loc 1 239 0
 2428 002a 0521     		movs	r1, #5
 2429 002c 2176     		strb	r1, [r4, #24]
 2430              	.L381:
 2431              	.LVL219:
 2432              		.loc 1 265 0
 2433 002e 2046     		mov	r0, r4
 2434 0030 FFF7FEFF 		bl	tcp_output
 2435              	.LVL220:
 2436              	.L398:
 2437 0034 0020     		movs	r0, #0
 2438              	.L362:
 2439 0036 40B2     		sxtb	r0, r0
 2440              		.loc 1 268 0
 2441 0038 03B0     		add	sp, sp, #12
 2442 003a 30BD     		pop	{r4, r5, pc}
 2443              	.LVL221:
 2444              	.L349:
 2445              		.loc 1 175 0
 2446 003c A26F     		ldr	r2, [r4, #120]
 2447 003e 002A     		cmp	r2, #0
 2448 0040 00F08980 		beq	.L401
 2449              	.LVL222:
 2450              	.L351:
 2451              		.loc 1 178 0
 2452 0044 A57F     		ldrb	r5, [r4, #30]	@ zero_extendqisi2
 2453 0046 05F01003 		and	r3, r5, #16
 2454 004a DAB2     		uxtb	r2, r3
 2455 004c 002A     		cmp	r2, #0
 2456 004e 50D0     		beq	.L402
 2457              	.LVL223:
 2458              	.L352:
 2459              		.loc 1 182 0
 2460 0050 638B     		ldrh	r3, [r4, #26]
 2461 0052 A58B     		ldrh	r5, [r4, #28]
 2462 0054 206D     		ldr	r0, [r4, #80]
 2463 0056 A16A     		ldr	r1, [r4, #40]
 2464 0058 0093     		str	r3, [sp, #0]
 2465 005a 2246     		mov	r2, r4
 2466 005c 231D     		adds	r3, r4, #4
 2467 005e 0195     		str	r5, [sp, #4]
 2468 0060 FFF7FEFF 		bl	tcp_rst
 2469              	.LVL224:
 2470              		.loc 1 185 0
 2471 0064 2046     		mov	r0, r4
 2472 0066 FFF7FEFF 		bl	tcp_pcb_purge
 2473              	.LVL225:
 2474              		.loc 1 186 0
 2475 006a 4048     		ldr	r0, .L412
 2476 006c 0268     		ldr	r2, [r0, #0]
 2477 006e A242     		cmp	r2, r4
ARM GAS  C:\Users\jenny\AppData\Local\Temp\ccAyMdWJ.s 			page 45


 2478 0070 68D0     		beq	.L403
 2479              		.loc 1 186 0 is_stmt 0 discriminator 2
 2480 0072 3F49     		ldr	r1, .L412+4
 2481 0074 0A60     		str	r2, [r1, #0]
 2482 0076 002A     		cmp	r2, #0
 2483 0078 41D0     		beq	.L354
 2484              		.loc 1 186 0
 2485 007a D368     		ldr	r3, [r2, #12]
 2486 007c A342     		cmp	r3, r4
 2487 007e 64D0     		beq	.L404
 2488              	.L395:
 2489              		.loc 1 186 0 discriminator 5
 2490 0080 002B     		cmp	r3, #0
 2491 0082 53D0     		beq	.L405
 2492              		.loc 1 186 0 discriminator 7
 2493 0084 DD68     		ldr	r5, [r3, #12]
 2494 0086 A542     		cmp	r5, r4
 2495 0088 36D0     		beq	.L406
 2496              		.loc 1 186 0
 2497 008a 2B46     		mov	r3, r5
 2498 008c F8E7     		b	.L395
 2499              	.LVL226:
 2500              	.L364:
 2501              		.loc 1 209 0 is_stmt 1
 2502 008e 608B     		ldrh	r0, [r4, #26]
 2503 0090 0028     		cmp	r0, #0
 2504 0092 46D0     		beq	.L371
 2505              		.loc 1 210 0
 2506 0094 3749     		ldr	r1, .L412+8
 2507              	.LVL227:
 2508 0096 0A68     		ldr	r2, [r1, #0]
 2509 0098 A242     		cmp	r2, r4
 2510 009a 3ED0     		beq	.L407
 2511              		.loc 1 210 0 is_stmt 0 discriminator 2
 2512 009c 3448     		ldr	r0, .L412+4
 2513 009e 0260     		str	r2, [r0, #0]
 2514 00a0 002A     		cmp	r2, #0
 2515 00a2 3CD0     		beq	.L373
 2516              		.loc 1 210 0
 2517 00a4 D368     		ldr	r3, [r2, #12]
 2518 00a6 A342     		cmp	r3, r4
 2519 00a8 51D0     		beq	.L408
 2520              	.L396:
 2521              		.loc 1 210 0 discriminator 5
 2522 00aa 002B     		cmp	r3, #0
 2523 00ac 59D0     		beq	.L409
 2524              		.loc 1 210 0 discriminator 7
 2525 00ae D968     		ldr	r1, [r3, #12]
 2526 00b0 A142     		cmp	r1, r4
 2527 00b2 58D0     		beq	.L410
 2528              		.loc 1 210 0
 2529 00b4 0B46     		mov	r3, r1
 2530 00b6 F8E7     		b	.L396
 2531              	.LVL228:
 2532              	.L365:
 2533              		.loc 1 217 0 is_stmt 1
 2534 00b8 2146     		mov	r1, r4
ARM GAS  C:\Users\jenny\AppData\Local\Temp\ccAyMdWJ.s 			page 46


 2535              	.LVL229:
 2536 00ba 2F48     		ldr	r0, .L412+12
 2537 00bc FFF7FEFF 		bl	tcp_pcb_remove
 2538              	.LVL230:
 2539              		.loc 1 218 0
 2540 00c0 0320     		movs	r0, #3
 2541 00c2 2146     		mov	r1, r4
 2542 00c4 FFF7FEFF 		bl	memp_free
 2543              	.LVL231:
 2544              		.loc 1 220 0
 2545 00c8 B4E7     		b	.L398
 2546              	.LVL232:
 2547              	.L366:
 2548              		.loc 1 223 0
 2549 00ca 2146     		mov	r1, r4
 2550              	.LVL233:
 2551 00cc 2748     		ldr	r0, .L412
 2552 00ce FFF7FEFF 		bl	tcp_pcb_remove
 2553              	.LVL234:
 2554 00d2 2A4B     		ldr	r3, .L412+16
 2555 00d4 0122     		movs	r2, #1
 2556              		.loc 1 224 0
 2557 00d6 0220     		movs	r0, #2
 2558 00d8 2146     		mov	r1, r4
 2559              		.loc 1 223 0
 2560 00da 1A70     		strb	r2, [r3, #0]
 2561              		.loc 1 224 0
 2562 00dc FFF7FEFF 		bl	memp_free
 2563              	.LVL235:
 2564              		.loc 1 227 0
 2565 00e0 A8E7     		b	.L398
 2566              	.LVL236:
 2567              	.L369:
 2568              		.loc 1 243 0
 2569 00e2 2046     		mov	r0, r4
 2570 00e4 FFF7FEFF 		bl	tcp_send_fin
 2571              	.LVL237:
 2572              		.loc 1 244 0
 2573 00e8 0028     		cmp	r0, #0
 2574 00ea A4D1     		bne	.L362
 2575              		.loc 1 246 0
 2576 00ec 0923     		movs	r3, #9
 2577 00ee 2376     		strb	r3, [r4, #24]
 2578 00f0 9DE7     		b	.L381
 2579              	.LVL238:
 2580              	.L402:
 2581              		.loc 1 178 0 discriminator 1
 2582 00f2 FFF7FEFF 		bl	port_halt
 2583              	.LVL239:
 2584 00f6 ABE7     		b	.L352
 2585              	.L406:
 2586 00f8 0B60     		str	r3, [r1, #0]
 2587              	.L356:
 2588              		.loc 1 186 0 discriminator 4
 2589 00fa E068     		ldr	r0, [r4, #12]
 2590 00fc D860     		str	r0, [r3, #12]
 2591              	.L354:
ARM GAS  C:\Users\jenny\AppData\Local\Temp\ccAyMdWJ.s 			page 47


 2592              		.loc 1 187 0 discriminator 6
 2593 00fe 237E     		ldrb	r3, [r4, #24]	@ zero_extendqisi2
 2594              		.loc 1 186 0 discriminator 6
 2595 0100 1E48     		ldr	r0, .L412+16
 2596 0102 0025     		movs	r5, #0
 2597 0104 0121     		movs	r1, #1
 2598              		.loc 1 187 0 discriminator 6
 2599 0106 042B     		cmp	r3, #4
 2600              		.loc 1 186 0 discriminator 6
 2601 0108 E560     		str	r5, [r4, #12]
 2602 010a 0170     		strb	r1, [r0, #0]
 2603              		.loc 1 187 0 discriminator 6
 2604 010c 10D0     		beq	.L411
 2605              		.loc 1 193 0
 2606 010e 0220     		movs	r0, #2
 2607 0110 2146     		mov	r1, r4
 2608 0112 FFF7FEFF 		bl	memp_free
 2609              	.LVL240:
 2610              		.loc 1 195 0
 2611 0116 2846     		mov	r0, r5
 2612 0118 8DE7     		b	.L362
 2613              	.LVL241:
 2614              	.L407:
 2615              		.loc 1 210 0 discriminator 1
 2616 011a E068     		ldr	r0, [r4, #12]
 2617 011c 0860     		str	r0, [r1, #0]
 2618              	.L373:
 2619              		.loc 1 210 0 is_stmt 0 discriminator 6
 2620 011e 0021     		movs	r1, #0
 2621 0120 E160     		str	r1, [r4, #12]
 2622              	.L371:
 2623              		.loc 1 212 0 is_stmt 1
 2624 0122 0220     		movs	r0, #2
 2625 0124 2146     		mov	r1, r4
 2626 0126 FFF7FEFF 		bl	memp_free
 2627              	.LVL242:
 2628              		.loc 1 214 0
 2629 012a 83E7     		b	.L398
 2630              	.LVL243:
 2631              	.L405:
 2632 012c 0B60     		str	r3, [r1, #0]
 2633 012e E6E7     		b	.L354
 2634              	.L411:
 2635              		.loc 1 190 0
 2636 0130 134B     		ldr	r3, .L412+20
 2637 0132 1A68     		ldr	r2, [r3, #0]
 2638 0134 1C60     		str	r4, [r3, #0]
 2639              		.loc 1 189 0
 2640 0136 0A21     		movs	r1, #10
 2641 0138 2176     		strb	r1, [r4, #24]
 2642              		.loc 1 190 0
 2643 013a E260     		str	r2, [r4, #12]
 2644 013c FFF7FEFF 		bl	tcp_timer_needed
 2645              	.LVL244:
 2646              		.loc 1 195 0
 2647 0140 2846     		mov	r0, r5
 2648 0142 78E7     		b	.L362
ARM GAS  C:\Users\jenny\AppData\Local\Temp\ccAyMdWJ.s 			page 48


 2649              	.L403:
 2650              		.loc 1 186 0 discriminator 1
 2651 0144 E268     		ldr	r2, [r4, #12]
 2652 0146 0260     		str	r2, [r0, #0]
 2653 0148 D9E7     		b	.L354
 2654              	.L404:
 2655              		.loc 1 186 0 is_stmt 0
 2656 014a 1346     		mov	r3, r2
 2657 014c D5E7     		b	.L356
 2658              	.LVL245:
 2659              	.L408:
 2660              		.loc 1 210 0 is_stmt 1
 2661 014e 1346     		mov	r3, r2
 2662              	.L375:
 2663              		.loc 1 210 0 is_stmt 0 discriminator 4
 2664 0150 E268     		ldr	r2, [r4, #12]
 2665 0152 DA60     		str	r2, [r3, #12]
 2666 0154 E3E7     		b	.L373
 2667              	.LVL246:
 2668              	.L401:
 2669              		.loc 1 175 0 is_stmt 1 discriminator 1
 2670 0156 A08D     		ldrh	r0, [r4, #44]
 2671              	.LVL247:
 2672 0158 B0F5066F 		cmp	r0, #2144
 2673 015c 7FF472AF 		bne	.L351
 2674 0160 57E7     		b	.L350
 2675              	.LVL248:
 2676              	.L409:
 2677 0162 0360     		str	r3, [r0, #0]
 2678 0164 DBE7     		b	.L373
 2679              	.L410:
 2680 0166 0360     		str	r3, [r0, #0]
 2681 0168 F2E7     		b	.L375
 2682              	.L413:
 2683 016a 00BF     		.align	2
 2684              	.L412:
 2685 016c 00000000 		.word	.LANCHOR7
 2686 0170 00000000 		.word	.LANCHOR3
 2687 0174 00000000 		.word	.LANCHOR2
 2688 0178 00000000 		.word	.LANCHOR4
 2689 017c 00000000 		.word	.LANCHOR11
 2690 0180 00000000 		.word	.LANCHOR8
 2691              		.cfi_endproc
 2692              	.LFE9:
 2693              		.size	tcp_close_shutdown, .-tcp_close_shutdown
 2694 0184 AFF30080 		.section	.text.tcp_shutdown,"ax",%progbits
 2694      AFF30080 
 2694      AFF30080 
 2695              		.align	2
 2696              		.p2align 4,,15
 2697              		.global	tcp_shutdown
 2698              		.thumb
 2699              		.thumb_func
 2700              		.type	tcp_shutdown, %function
 2701              	tcp_shutdown:
 2702              	.LFB11:
 2703              		.loc 1 314 0
ARM GAS  C:\Users\jenny\AppData\Local\Temp\ccAyMdWJ.s 			page 49


 2704              		.cfi_startproc
 2705              		@ args = 0, pretend = 0, frame = 0
 2706              		@ frame_needed = 0, uses_anonymous_args = 0
 2707              	.LVL249:
 2708              		.loc 1 315 0
 2709 0000 037E     		ldrb	r3, [r0, #24]	@ zero_extendqisi2
 2710 0002 012B     		cmp	r3, #1
 2711              		.loc 1 314 0
 2712 0004 70B5     		push	{r4, r5, r6, lr}
 2713              	.LCFI25:
 2714              		.cfi_def_cfa_offset 16
 2715              		.cfi_offset 4, -16
 2716              		.cfi_offset 5, -12
 2717              		.cfi_offset 6, -8
 2718              		.cfi_offset 14, -4
 2719              		.loc 1 314 0
 2720 0006 0446     		mov	r4, r0
 2721 0008 0E46     		mov	r6, r1
 2722 000a 1546     		mov	r5, r2
 2723              		.loc 1 315 0
 2724 000c 11D0     		beq	.L422
 2725              		.loc 1 318 0
 2726 000e 61B1     		cbz	r1, .L416
 2727              		.loc 1 320 0
 2728 0010 817F     		ldrb	r1, [r0, #30]	@ zero_extendqisi2
 2729              	.LVL250:
 2730 0012 41F01002 		orr	r2, r1, #16
 2731              	.LVL251:
 2732 0016 8277     		strb	r2, [r0, #30]
 2733              		.loc 1 321 0
 2734 0018 C5B9     		cbnz	r5, .L427
 2735              		.loc 1 326 0
 2736 001a 806F     		ldr	r0, [r0, #120]
 2737              	.LVL252:
 2738 001c 10B1     		cbz	r0, .L418
 2739              		.loc 1 327 0
 2740 001e FFF7FEFF 		bl	pbuf_free
 2741              	.LVL253:
 2742              		.loc 1 328 0
 2743 0022 A567     		str	r5, [r4, #120]
 2744              	.L418:
 2745              		.loc 1 345 0
 2746 0024 0020     		movs	r0, #0
 2747              	.L415:
 2748 0026 40B2     		sxtb	r0, r0
 2749 0028 70BD     		pop	{r4, r5, r6, pc}
 2750              	.LVL254:
 2751              	.L416:
 2752              		.loc 1 331 0
 2753 002a 002A     		cmp	r2, #0
 2754 002c FAD0     		beq	.L418
 2755              		.loc 1 334 0
 2756 002e 072B     		cmp	r3, #7
 2757 0030 01D9     		bls	.L428
 2758              	.LVL255:
 2759              	.L422:
 2760              		.loc 1 342 0
ARM GAS  C:\Users\jenny\AppData\Local\Temp\ccAyMdWJ.s 			page 50


 2761 0032 F320     		movs	r0, #243
 2762              	.LVL256:
 2763 0034 F7E7     		b	.L415
 2764              	.LVL257:
 2765              	.L428:
 2766              		.loc 1 334 0
 2767 0036 0122     		movs	r2, #1
 2768              	.LVL258:
 2769 0038 5BB2     		sxtb	r3, r3
 2770 003a 02FA03F3 		lsl	r3, r2, r3
 2771 003e 13F0980F 		tst	r3, #152
 2772 0042 F6D0     		beq	.L422
 2773              		.loc 1 346 0
 2774 0044 BDE87040 		pop	{r4, r5, r6, lr}
 2775              		.loc 1 338 0
 2776 0048 FFF7FEBF 		b	tcp_close_shutdown
 2777              	.LVL259:
 2778              	.L427:
 2779              		.loc 1 323 0
 2780 004c 0121     		movs	r1, #1
 2781              		.loc 1 346 0
 2782 004e BDE87040 		pop	{r4, r5, r6, lr}
 2783              		.loc 1 323 0
 2784 0052 FFF7FEBF 		b	tcp_close_shutdown
 2785              	.LVL260:
 2786              		.cfi_endproc
 2787              	.LFE11:
 2788              		.size	tcp_shutdown, .-tcp_shutdown
 2789 0056 00BFAFF3 		.section	.text.tcp_close,"ax",%progbits
 2789      0080AFF3 
 2789      0080
 2790              		.align	2
 2791              		.p2align 4,,15
 2792              		.global	tcp_close
 2793              		.thumb
 2794              		.thumb_func
 2795              		.type	tcp_close, %function
 2796              	tcp_close:
 2797              	.LFB10:
 2798              		.loc 1 286 0
 2799              		.cfi_startproc
 2800              		@ args = 0, pretend = 0, frame = 0
 2801              		@ frame_needed = 0, uses_anonymous_args = 0
 2802              		@ link register save eliminated.
 2803              	.LVL261:
 2804              		.loc 1 292 0
 2805 0000 037E     		ldrb	r3, [r0, #24]	@ zero_extendqisi2
 2806 0002 012B     		cmp	r3, #1
 2807 0004 03D0     		beq	.L430
 2808              		.loc 1 294 0
 2809 0006 817F     		ldrb	r1, [r0, #30]	@ zero_extendqisi2
 2810 0008 41F01002 		orr	r2, r1, #16
 2811 000c 8277     		strb	r2, [r0, #30]
 2812              	.L430:
 2813              		.loc 1 297 0
 2814 000e 0121     		movs	r1, #1
 2815              		.loc 1 298 0
ARM GAS  C:\Users\jenny\AppData\Local\Temp\ccAyMdWJ.s 			page 51


 2816              		.loc 1 297 0
 2817 0010 FFF7FEBF 		b	tcp_close_shutdown
 2818              	.LVL262:
 2819              		.cfi_endproc
 2820              	.LFE10:
 2821              		.size	tcp_close, .-tcp_close
 2822 0014 AFF30080 		.section	.text.tcp_recv_null,"ax",%progbits
 2822      AFF30080 
 2822      AFF30080 
 2823              		.align	2
 2824              		.p2align 4,,15
 2825              		.global	tcp_recv_null
 2826              		.thumb
 2827              		.thumb_func
 2828              		.type	tcp_recv_null, %function
 2829              	tcp_recv_null:
 2830              	.LFB28:
 2831              		.loc 1 1198 0
 2832              		.cfi_startproc
 2833              		@ args = 0, pretend = 0, frame = 0
 2834              		@ frame_needed = 0, uses_anonymous_args = 0
 2835              	.LVL263:
 2836 0000 10B5     		push	{r4, lr}
 2837              	.LCFI26:
 2838              		.cfi_def_cfa_offset 8
 2839              		.cfi_offset 4, -8
 2840              		.cfi_offset 14, -4
 2841              		.loc 1 1200 0
 2842 0002 1446     		mov	r4, r2
 2843 0004 42B1     		cbz	r2, .L435
 2844              		.loc 1 1201 0
 2845 0006 0846     		mov	r0, r1
 2846              	.LVL264:
 2847 0008 1189     		ldrh	r1, [r2, #8]
 2848              	.LVL265:
 2849 000a FFF7FEFF 		bl	tcp_recved
 2850              	.LVL266:
 2851              		.loc 1 1202 0
 2852 000e 2046     		mov	r0, r4
 2853 0010 FFF7FEFF 		bl	pbuf_free
 2854              	.LVL267:
 2855              	.L436:
 2856              		.loc 1 1207 0
 2857 0014 0020     		movs	r0, #0
 2858 0016 10BD     		pop	{r4, pc}
 2859              	.LVL268:
 2860              	.L435:
 2861              	.LBB39:
 2862              	.LBB40:
 2863              		.loc 1 1203 0
 2864 0018 002B     		cmp	r3, #0
 2865 001a FBD1     		bne	.L436
 2866              		.loc 1 1204 0
 2867 001c 0846     		mov	r0, r1
 2868              	.LVL269:
 2869              	.LBE40:
 2870              	.LBE39:
ARM GAS  C:\Users\jenny\AppData\Local\Temp\ccAyMdWJ.s 			page 52


 2871              		.loc 1 1207 0
 2872 001e BDE81040 		pop	{r4, lr}
 2873              	.LBB42:
 2874              	.LBB41:
 2875              		.loc 1 1204 0
 2876 0022 FFF7FEBF 		b	tcp_close
 2877              	.LVL270:
 2878              	.LBE41:
 2879              	.LBE42:
 2880              		.cfi_endproc
 2881              	.LFE28:
 2882              		.size	tcp_recv_null, .-tcp_recv_null
 2883 0026 00BFAFF3 		.section	.text.tcp_process_refused_data,"ax",%progbits
 2883      0080AFF3 
 2883      0080
 2884              		.align	2
 2885              		.p2align 4,,15
 2886              		.global	tcp_process_refused_data
 2887              		.thumb
 2888              		.thumb_func
 2889              		.type	tcp_process_refused_data, %function
 2890              	tcp_process_refused_data:
 2891              	.LFB23:
 2892              		.loc 1 1086 0
 2893              		.cfi_startproc
 2894              		@ args = 0, pretend = 0, frame = 0
 2895              		@ frame_needed = 0, uses_anonymous_args = 0
 2896              	.LVL271:
 2897 0000 F8B5     		push	{r3, r4, r5, r6, r7, lr}
 2898              	.LCFI27:
 2899              		.cfi_def_cfa_offset 24
 2900              		.cfi_offset 3, -24
 2901              		.cfi_offset 4, -20
 2902              		.cfi_offset 5, -16
 2903              		.cfi_offset 6, -12
 2904              		.cfi_offset 7, -8
 2905              		.cfi_offset 14, -4
 2906              		.loc 1 1088 0
 2907 0002 856F     		ldr	r5, [r0, #120]
 2908              		.loc 1 1095 0
 2909 0004 D0F88060 		ldr	r6, [r0, #128]
 2910              		.loc 1 1088 0
 2911 0008 6F7B     		ldrb	r7, [r5, #13]	@ zero_extendqisi2
 2912              	.LVL272:
 2913              		.loc 1 1092 0
 2914 000a 0023     		movs	r3, #0
 2915              		.loc 1 1086 0
 2916 000c 0446     		mov	r4, r0
 2917              		.loc 1 1092 0
 2918 000e 8367     		str	r3, [r0, #120]
 2919              		.loc 1 1095 0
 2920 0010 0EB3     		cbz	r6, .L439
 2921              		.loc 1 1095 0 is_stmt 0 discriminator 1
 2922 0012 0069     		ldr	r0, [r0, #16]
 2923              	.LVL273:
 2924 0014 2146     		mov	r1, r4
 2925 0016 2A46     		mov	r2, r5
ARM GAS  C:\Users\jenny\AppData\Local\Temp\ccAyMdWJ.s 			page 53


 2926 0018 B047     		blx	r6
 2927              	.LVL274:
 2928              	.L440:
 2929              		.loc 1 1096 0 is_stmt 1
 2930 001a B0B9     		cbnz	r0, .L441
 2931              		.loc 1 1098 0
 2932 001c 07F02007 		and	r7, r7, #32
 2933              	.LVL275:
 2934 0020 FFB2     		uxtb	r7, r7
 2935 0022 87B1     		cbz	r7, .L442
 2936              		.loc 1 1101 0
 2937 0024 A38D     		ldrh	r3, [r4, #44]
 2938 0026 B3F5066F 		cmp	r3, #2144
 2939 002a 01D0     		beq	.L443
 2940              		.loc 1 1102 0
 2941 002c 591C     		adds	r1, r3, #1
 2942 002e A185     		strh	r1, [r4, #44]	@ movhi
 2943              	.L443:
 2944              		.loc 1 1104 0
 2945 0030 D4F88050 		ldr	r5, [r4, #128]
 2946              	.LVL276:
 2947 0034 35B1     		cbz	r5, .L454
 2948              		.loc 1 1104 0 is_stmt 0 discriminator 1
 2949 0036 0022     		movs	r2, #0
 2950 0038 2069     		ldr	r0, [r4, #16]
 2951              	.LVL277:
 2952 003a 2146     		mov	r1, r4
 2953 003c 1346     		mov	r3, r2
 2954 003e A847     		blx	r5
 2955              	.LVL278:
 2956              		.loc 1 1105 0 is_stmt 1 discriminator 1
 2957 0040 0A30     		adds	r0, r0, #10
 2958              	.LVL279:
 2959 0042 0FD0     		beq	.L446
 2960              	.L454:
 2961              		.loc 1 1119 0
 2962 0044 0020     		movs	r0, #0
 2963              	.L442:
 2964              		.loc 1 1120 0
 2965 0046 40B2     		sxtb	r0, r0
 2966 0048 F8BD     		pop	{r3, r4, r5, r6, r7, pc}
 2967              	.LVL280:
 2968              	.L441:
 2969              		.loc 1 1109 0
 2970 004a 40B2     		sxtb	r0, r0
 2971              	.LVL281:
 2972 004c 0A30     		adds	r0, r0, #10
 2973 004e 09D0     		beq	.L446
 2974              		.loc 1 1117 0
 2975 0050 A567     		str	r5, [r4, #120]
 2976              		.loc 1 1119 0
 2977 0052 0020     		movs	r0, #0
 2978 0054 F7E7     		b	.L442
 2979              	.LVL282:
 2980              	.L439:
 2981              		.loc 1 1095 0 discriminator 2
 2982 0056 3046     		mov	r0, r6
ARM GAS  C:\Users\jenny\AppData\Local\Temp\ccAyMdWJ.s 			page 54


 2983              	.LVL283:
 2984 0058 2146     		mov	r1, r4
 2985 005a 2A46     		mov	r2, r5
 2986 005c 3346     		mov	r3, r6
 2987 005e FFF7FEFF 		bl	tcp_recv_null
 2988              	.LVL284:
 2989 0062 DAE7     		b	.L440
 2990              	.LVL285:
 2991              	.L446:
 2992              		.loc 1 1106 0
 2993 0064 F620     		movs	r0, #246
 2994 0066 EEE7     		b	.L442
 2995              		.cfi_endproc
 2996              	.LFE23:
 2997              		.size	tcp_process_refused_data, .-tcp_process_refused_data
 2998 0068 AFF30080 		.section	.text.tcp_fasttmr,"ax",%progbits
 2998      AFF30080 
 2999              		.align	2
 3000              		.p2align 4,,15
 3001              		.global	tcp_fasttmr
 3002              		.thumb
 3003              		.thumb_func
 3004              		.type	tcp_fasttmr, %function
 3005              	tcp_fasttmr:
 3006              	.LFB22:
 3007              		.loc 1 1047 0
 3008              		.cfi_startproc
 3009              		@ args = 0, pretend = 0, frame = 0
 3010              		@ frame_needed = 0, uses_anonymous_args = 0
 3011 0000 2DE9F041 		push	{r4, r5, r6, r7, r8, lr}
 3012              	.LCFI28:
 3013              		.cfi_def_cfa_offset 24
 3014              		.cfi_offset 4, -24
 3015              		.cfi_offset 5, -20
 3016              		.cfi_offset 6, -16
 3017              		.cfi_offset 7, -12
 3018              		.cfi_offset 8, -8
 3019              		.cfi_offset 14, -4
 3020              		.loc 1 1050 0
 3021 0004 174D     		ldr	r5, .L470
 3022 0006 184F     		ldr	r7, .L470+4
 3023 0008 2B78     		ldrb	r3, [r5, #0]	@ zero_extendqisi2
 3024              	.LBB43:
 3025              		.loc 1 1071 0
 3026 000a 184E     		ldr	r6, .L470+8
 3027              	.LBE43:
 3028              		.loc 1 1050 0
 3029 000c 581C     		adds	r0, r3, #1
 3030 000e 2870     		strb	r0, [r5, #0]
 3031              	.LBB44:
 3032              		.loc 1 1071 0
 3033 0010 4FF00008 		mov	r8, #0
 3034              	.L456:
 3035              	.LBE44:
 3036              		.loc 1 1053 0
 3037 0014 3C68     		ldr	r4, [r7, #0]
 3038              	.LVL286:
ARM GAS  C:\Users\jenny\AppData\Local\Temp\ccAyMdWJ.s 			page 55


 3039              	.L457:
 3040              		.loc 1 1055 0 discriminator 1
 3041 0016 C4B1     		cbz	r4, .L455
 3042              	.L469:
 3043              		.loc 1 1056 0
 3044 0018 94F82120 		ldrb	r2, [r4, #33]	@ zero_extendqisi2
 3045 001c 2978     		ldrb	r1, [r5, #0]	@ zero_extendqisi2
 3046 001e 8A42     		cmp	r2, r1
 3047 0020 00D1     		bne	.L463
 3048              	.L458:
 3049 0022 FEE7     		b	.L458
 3050              	.L463:
 3051              	.LBB45:
 3052              		.loc 1 1060 0
 3053 0024 A37F     		ldrb	r3, [r4, #30]	@ zero_extendqisi2
 3054              		.loc 1 1058 0
 3055 0026 84F82110 		strb	r1, [r4, #33]
 3056              		.loc 1 1060 0
 3057 002a D907     		lsls	r1, r3, #31
 3058 002c 0FD4     		bmi	.L468
 3059              	.L459:
 3060              		.loc 1 1070 0
 3061 002e A36F     		ldr	r3, [r4, #120]
 3062              		.loc 1 1072 0
 3063 0030 2046     		mov	r0, r4
 3064              		.loc 1 1067 0
 3065 0032 E468     		ldr	r4, [r4, #12]
 3066              	.LVL287:
 3067              		.loc 1 1070 0
 3068 0034 002B     		cmp	r3, #0
 3069 0036 EED0     		beq	.L457
 3070              		.loc 1 1071 0
 3071 0038 86F80080 		strb	r8, [r6, #0]
 3072              		.loc 1 1072 0
 3073 003c FFF7FEFF 		bl	tcp_process_refused_data
 3074              	.LVL288:
 3075              		.loc 1 1073 0
 3076 0040 3078     		ldrb	r0, [r6, #0]	@ zero_extendqisi2
 3077 0042 0028     		cmp	r0, #0
 3078 0044 E6D1     		bne	.L456
 3079              	.LVL289:
 3080              	.LBE45:
 3081              		.loc 1 1055 0
 3082 0046 002C     		cmp	r4, #0
 3083 0048 E6D1     		bne	.L469
 3084              	.LVL290:
 3085              	.L455:
 3086 004a BDE8F081 		pop	{r4, r5, r6, r7, r8, pc}
 3087              	.L468:
 3088              	.LBB46:
 3089              		.loc 1 1062 0
 3090 004e 43F00200 		orr	r0, r3, #2
 3091 0052 A077     		strb	r0, [r4, #30]
 3092              		.loc 1 1063 0
 3093 0054 2046     		mov	r0, r4
 3094 0056 FFF7FEFF 		bl	tcp_output
 3095              	.LVL291:
ARM GAS  C:\Users\jenny\AppData\Local\Temp\ccAyMdWJ.s 			page 56


 3096              		.loc 1 1064 0
 3097 005a A27F     		ldrb	r2, [r4, #30]	@ zero_extendqisi2
 3098 005c 22F00301 		bic	r1, r2, #3
 3099 0060 A177     		strb	r1, [r4, #30]
 3100 0062 E4E7     		b	.L459
 3101              	.L471:
 3102              		.align	2
 3103              	.L470:
 3104 0064 00000000 		.word	.LANCHOR6
 3105 0068 00000000 		.word	.LANCHOR7
 3106 006c 00000000 		.word	.LANCHOR11
 3107              	.LBE46:
 3108              		.cfi_endproc
 3109              	.LFE22:
 3110              		.size	tcp_fasttmr, .-tcp_fasttmr
 3111              		.section	.text.tcp_tmr,"ax",%progbits
 3112              		.align	2
 3113              		.p2align 4,,15
 3114              		.global	tcp_tmr
 3115              		.thumb
 3116              		.thumb_func
 3117              		.type	tcp_tmr, %function
 3118              	tcp_tmr:
 3119              	.LFB8:
 3120              		.loc 1 142 0
 3121              		.cfi_startproc
 3122              		@ args = 0, pretend = 0, frame = 0
 3123              		@ frame_needed = 0, uses_anonymous_args = 0
 3124 0000 08B5     		push	{r3, lr}
 3125              	.LCFI29:
 3126              		.cfi_def_cfa_offset 8
 3127              		.cfi_offset 3, -8
 3128              		.cfi_offset 14, -4
 3129              		.loc 1 144 0
 3130 0002 FFF7FEFF 		bl	tcp_fasttmr
 3131              	.LVL292:
 3132              		.loc 1 146 0
 3133 0006 064A     		ldr	r2, .L475
 3134 0008 1378     		ldrb	r3, [r2, #0]	@ zero_extendqisi2
 3135 000a 581C     		adds	r0, r3, #1
 3136 000c C1B2     		uxtb	r1, r0
 3137 000e C807     		lsls	r0, r1, #31
 3138 0010 1170     		strb	r1, [r2, #0]
 3139 0012 00D4     		bmi	.L474
 3140 0014 08BD     		pop	{r3, pc}
 3141              	.L474:
 3142              		.loc 1 151 0
 3143 0016 BDE80840 		pop	{r3, lr}
 3144              		.loc 1 149 0
 3145 001a FFF7FEBF 		b	tcp_slowtmr
 3146              	.LVL293:
 3147              	.L476:
 3148 001e 00BF     		.align	2
 3149              	.L475:
 3150 0020 00000000 		.word	.LANCHOR13
 3151              		.cfi_endproc
 3152              	.LFE8:
ARM GAS  C:\Users\jenny\AppData\Local\Temp\ccAyMdWJ.s 			page 57


 3153              		.size	tcp_tmr, .-tcp_tmr
 3154 0024 AFF30080 		.section	.text.tcp_next_iss,"ax",%progbits
 3154      AFF30080 
 3154      AFF30080 
 3155              		.align	2
 3156              		.p2align 4,,15
 3157              		.global	tcp_next_iss
 3158              		.thumb
 3159              		.thumb_func
 3160              		.type	tcp_next_iss, %function
 3161              	tcp_next_iss:
 3162              	.LFB41:
 3163              		.loc 1 1572 0
 3164              		.cfi_startproc
 3165              		@ args = 0, pretend = 0, frame = 0
 3166              		@ frame_needed = 0, uses_anonymous_args = 0
 3167              		@ link register save eliminated.
 3168              		.loc 1 1575 0
 3169 0000 40F20002 		movw	r2, #:lower16:.LANCHOR5
 3170 0004 40F20003 		movw	r3, #:lower16:.LANCHOR12
 3171 0008 C0F20003 		movt	r3, #:upper16:.LANCHOR12
 3172 000c C0F20002 		movt	r2, #:upper16:.LANCHOR5
 3173 0010 1968     		ldr	r1, [r3, #0]
 3174 0012 1068     		ldr	r0, [r2, #0]
 3175 0014 4018     		adds	r0, r0, r1
 3176 0016 1860     		str	r0, [r3, #0]
 3177              		.loc 1 1577 0
 3178 0018 7047     		bx	lr
 3179              		.cfi_endproc
 3180              	.LFE41:
 3181              		.size	tcp_next_iss, .-tcp_next_iss
 3182 001a 00BFAFF3 		.section	.text.tcp_eff_send_mss,"ax",%progbits
 3182      0080
 3183              		.align	2
 3184              		.p2align 4,,15
 3185              		.global	tcp_eff_send_mss
 3186              		.thumb
 3187              		.thumb_func
 3188              		.type	tcp_eff_send_mss, %function
 3189              	tcp_eff_send_mss:
 3190              	.LFB42:
 3191              		.loc 1 1587 0
 3192              		.cfi_startproc
 3193              		@ args = 0, pretend = 0, frame = 0
 3194              		@ frame_needed = 0, uses_anonymous_args = 0
 3195              	.LVL294:
 3196 0000 10B5     		push	{r4, lr}
 3197              	.LCFI30:
 3198              		.cfi_def_cfa_offset 8
 3199              		.cfi_offset 4, -8
 3200              		.cfi_offset 14, -4
 3201              		.loc 1 1587 0
 3202 0002 0446     		mov	r4, r0
 3203              		.loc 1 1591 0
 3204 0004 0846     		mov	r0, r1
 3205              	.LVL295:
 3206 0006 FFF7FEFF 		bl	ip_route
ARM GAS  C:\Users\jenny\AppData\Local\Temp\ccAyMdWJ.s 			page 58


 3207              	.LVL296:
 3208              		.loc 1 1592 0
 3209 000a 30B1     		cbz	r0, .L479
 3210              		.loc 1 1592 0 is_stmt 0 discriminator 1
 3211 000c 038C     		ldrh	r3, [r0, #32]
 3212 000e 23B1     		cbz	r3, .L479
 3213              	.LVL297:
 3214              		.loc 1 1593 0 is_stmt 1
 3215 0010 283B     		subs	r3, r3, #40
 3216              	.LVL298:
 3217              		.loc 1 1598 0
 3218 0012 98B2     		uxth	r0, r3
 3219              	.LVL299:
 3220 0014 8442     		cmp	r4, r0
 3221 0016 28BF     		it	cs
 3222 0018 0446     		movcs	r4, r0
 3223              	.LVL300:
 3224              	.L479:
 3225              		.loc 1 1601 0
 3226 001a 2046     		mov	r0, r4
 3227 001c 10BD     		pop	{r4, pc}
 3228              		.cfi_endproc
 3229              	.LFE42:
 3230              		.size	tcp_eff_send_mss, .-tcp_eff_send_mss
 3231 001e 00BF     		.section	.text.tcp_connect,"ax",%progbits
 3232              		.align	2
 3233              		.p2align 4,,15
 3234              		.global	tcp_connect
 3235              		.thumb
 3236              		.thumb_func
 3237              		.type	tcp_connect, %function
 3238              	tcp_connect:
 3239              	.LFB20:
 3240              		.loc 1 686 0
 3241              		.cfi_startproc
 3242              		@ args = 0, pretend = 0, frame = 0
 3243              		@ frame_needed = 0, uses_anonymous_args = 0
 3244              	.LVL301:
 3245 0000 2DE9F843 		push	{r3, r4, r5, r6, r7, r8, r9, lr}
 3246              	.LCFI31:
 3247              		.cfi_def_cfa_offset 32
 3248              		.cfi_offset 3, -32
 3249              		.cfi_offset 4, -28
 3250              		.cfi_offset 5, -24
 3251              		.cfi_offset 6, -20
 3252              		.cfi_offset 7, -16
 3253              		.cfi_offset 8, -12
 3254              		.cfi_offset 9, -8
 3255              		.cfi_offset 14, -4
 3256              		.loc 1 686 0
 3257 0004 0D46     		mov	r5, r1
 3258              		.loc 1 691 0
 3259 0006 017E     		ldrb	r1, [r0, #24]	@ zero_extendqisi2
 3260              	.LVL302:
 3261              		.loc 1 686 0
 3262 0008 0446     		mov	r4, r0
 3263 000a 9946     		mov	r9, r3
ARM GAS  C:\Users\jenny\AppData\Local\Temp\ccAyMdWJ.s 			page 59


 3264              		.loc 1 691 0
 3265 000c 0029     		cmp	r1, #0
 3266 000e 78D1     		bne	.L511
 3267              		.loc 1 694 0
 3268 0010 002D     		cmp	r5, #0
 3269 0012 57D0     		beq	.L502
 3270              		.loc 1 695 0
 3271 0014 2868     		ldr	r0, [r5, #0]
 3272              	.LVL303:
 3273              		.loc 1 702 0
 3274 0016 2368     		ldr	r3, [r4, #0]
 3275              	.LVL304:
 3276              		.loc 1 695 0
 3277 0018 6060     		str	r0, [r4, #4]
 3278              		.loc 1 699 0
 3279 001a A283     		strh	r2, [r4, #28]	@ movhi
 3280              		.loc 1 702 0
 3281 001c 33B9     		cbnz	r3, .L489
 3282              	.LBB47:
 3283              		.loc 1 704 0
 3284 001e 201D     		adds	r0, r4, #4
 3285 0020 FFF7FEFF 		bl	ip_route
 3286              	.LVL305:
 3287              		.loc 1 705 0
 3288 0024 0028     		cmp	r0, #0
 3289 0026 70D0     		beq	.L503
 3290              		.loc 1 711 0
 3291 0028 4268     		ldr	r2, [r0, #4]
 3292 002a 2260     		str	r2, [r4, #0]
 3293              	.LVL306:
 3294              	.L489:
 3295              	.LBE47:
 3296              		.loc 1 714 0
 3297 002c B4F81A80 		ldrh	r8, [r4, #26]
 3298              	.LVL307:
 3299              		.loc 1 715 0
 3300 0030 B8F1000F 		cmp	r8, #0
 3301 0034 04D1     		bne	.L492
 3302              		.loc 1 716 0
 3303 0036 FFF7FEFF 		bl	tcp_new_port
 3304              	.LVL308:
 3305 003a 6083     		strh	r0, [r4, #26]	@ movhi
 3306              		.loc 1 717 0
 3307 003c 0028     		cmp	r0, #0
 3308 003e 59D0     		beq	.L512
 3309              	.L492:
 3310              	.LBB48:
 3311              	.LBB49:
 3312              		.loc 1 1575 0
 3313 0040 334F     		ldr	r7, .L517
 3314 0042 3449     		ldr	r1, .L517+4
 3315 0044 3E68     		ldr	r6, [r7, #0]
 3316 0046 0868     		ldr	r0, [r1, #0]
 3317 0048 8219     		adds	r2, r0, r6
 3318              	.LBE49:
 3319              	.LBE48:
 3320              		.loc 1 744 0
ARM GAS  C:\Users\jenny\AppData\Local\Temp\ccAyMdWJ.s 			page 60


 3321 004a 02F1FF3E 		add	lr, r2, #-1
 3322              		.loc 1 742 0
 3323 004e 0023     		movs	r3, #0
 3324              		.loc 1 746 0
 3325 0050 4FF40666 		mov	r6, #2144
 3326              		.loc 1 752 0
 3327 0054 4FF40670 		mov	r0, #536
 3328              		.loc 1 754 0
 3329 0058 2946     		mov	r1, r5
 3330              		.loc 1 742 0
 3331 005a A362     		str	r3, [r4, #40]
 3332              		.loc 1 743 0
 3333 005c 2265     		str	r2, [r4, #80]
 3334              		.loc 1 744 0
 3335 005e C4F848E0 		str	lr, [r4, #72]
 3336              		.loc 1 745 0
 3337 0062 C4F85CE0 		str	lr, [r4, #92]
 3338              		.loc 1 748 0
 3339 0066 2363     		str	r3, [r4, #48]
 3340              		.loc 1 746 0
 3341 0068 A685     		strh	r6, [r4, #44]	@ movhi
 3342              		.loc 1 747 0
 3343 006a E685     		strh	r6, [r4, #46]	@ movhi
 3344              		.loc 1 749 0
 3345 006c A4F86060 		strh	r6, [r4, #96]	@ movhi
 3346              		.loc 1 752 0
 3347 0070 E086     		strh	r0, [r4, #54]	@ movhi
 3348              	.LBB51:
 3349              	.LBB50:
 3350              		.loc 1 1575 0
 3351 0072 3A60     		str	r2, [r7, #0]
 3352              	.LBE50:
 3353              	.LBE51:
 3354              		.loc 1 754 0
 3355 0074 FFF7FEFF 		bl	tcp_eff_send_mss
 3356              	.LVL309:
 3357              		.loc 1 757 0
 3358 0078 00EB8005 		add	r5, r0, r0, lsl #2
 3359              	.LVL310:
 3360 007c 6900     		lsls	r1, r5, #1
 3361              		.loc 1 754 0
 3362 007e E086     		strh	r0, [r4, #54]	@ movhi
 3363              		.loc 1 756 0
 3364 0080 0120     		movs	r0, #1
 3365 0082 A4F84C00 		strh	r0, [r4, #76]	@ movhi
 3366              		.loc 1 757 0
 3367 0086 A4F84E10 		strh	r1, [r4, #78]	@ movhi
 3368              		.loc 1 759 0
 3369 008a C4F88490 		str	r9, [r4, #132]
 3370              		.loc 1 765 0
 3371 008e 2046     		mov	r0, r4
 3372 0090 0221     		movs	r1, #2
 3373 0092 FFF7FEFF 		bl	tcp_enqueue_flags
 3374              	.LVL311:
 3375              		.loc 1 766 0
 3376 0096 0546     		mov	r5, r0
 3377 0098 A8B9     		cbnz	r0, .L488
ARM GAS  C:\Users\jenny\AppData\Local\Temp\ccAyMdWJ.s 			page 61


 3378              		.loc 1 768 0
 3379 009a 0222     		movs	r2, #2
 3380 009c 2276     		strb	r2, [r4, #24]
 3381              		.loc 1 769 0
 3382 009e B8F1000F 		cmp	r8, #0
 3383 00a2 16D0     		beq	.L493
 3384              		.loc 1 770 0
 3385 00a4 1C4B     		ldr	r3, .L517+8
 3386 00a6 1868     		ldr	r0, [r3, #0]
 3387              	.LVL312:
 3388 00a8 A042     		cmp	r0, r4
 3389 00aa 27D0     		beq	.L513
 3390              		.loc 1 770 0 is_stmt 0 discriminator 2
 3391 00ac 1B49     		ldr	r1, .L517+12
 3392 00ae 0860     		str	r0, [r1, #0]
 3393 00b0 78B1     		cbz	r0, .L493
 3394              		.loc 1 770 0
 3395 00b2 C368     		ldr	r3, [r0, #12]
 3396 00b4 A342     		cmp	r3, r4
 3397 00b6 1FD0     		beq	.L514
 3398              	.L510:
 3399              		.loc 1 770 0 discriminator 5
 3400 00b8 D3B1     		cbz	r3, .L515
 3401              		.loc 1 770 0 discriminator 7
 3402 00ba DA68     		ldr	r2, [r3, #12]
 3403 00bc A242     		cmp	r2, r4
 3404 00be 05D0     		beq	.L516
 3405              		.loc 1 770 0
 3406 00c0 1346     		mov	r3, r2
 3407 00c2 F9E7     		b	.L510
 3408              	.LVL313:
 3409              	.L502:
 3410              		.loc 1 697 0 is_stmt 1
 3411 00c4 FA25     		movs	r5, #250
 3412              	.LVL314:
 3413              	.L488:
 3414              		.loc 1 778 0
 3415 00c6 68B2     		sxtb	r0, r5
 3416 00c8 BDE8F883 		pop	{r3, r4, r5, r6, r7, r8, r9, pc}
 3417              	.LVL315:
 3418              	.L516:
 3419 00cc 0B60     		str	r3, [r1, #0]
 3420              	.L497:
 3421              		.loc 1 770 0 discriminator 4
 3422 00ce E068     		ldr	r0, [r4, #12]
 3423 00d0 D860     		str	r0, [r3, #12]
 3424              	.L493:
 3425              		.loc 1 772 0
 3426 00d2 134B     		ldr	r3, .L517+16
 3427 00d4 1A68     		ldr	r2, [r3, #0]
 3428 00d6 1C60     		str	r4, [r3, #0]
 3429 00d8 E260     		str	r2, [r4, #12]
 3430 00da FFF7FEFF 		bl	tcp_timer_needed
 3431              	.LVL316:
 3432 00de 114B     		ldr	r3, .L517+20
 3433 00e0 0121     		movs	r1, #1
 3434              		.loc 1 775 0
ARM GAS  C:\Users\jenny\AppData\Local\Temp\ccAyMdWJ.s 			page 62


 3435 00e2 2046     		mov	r0, r4
 3436              		.loc 1 772 0
 3437 00e4 1970     		strb	r1, [r3, #0]
 3438              		.loc 1 775 0
 3439 00e6 FFF7FEFF 		bl	tcp_output
 3440              	.LVL317:
 3441              		.loc 1 778 0
 3442 00ea 68B2     		sxtb	r0, r5
 3443 00ec BDE8F883 		pop	{r3, r4, r5, r6, r7, r8, r9, pc}
 3444              	.L515:
 3445 00f0 0B60     		str	r3, [r1, #0]
 3446 00f2 EEE7     		b	.L493
 3447              	.LVL318:
 3448              	.L512:
 3449              		.loc 1 718 0
 3450 00f4 FE25     		movs	r5, #254
 3451              	.LVL319:
 3452 00f6 E6E7     		b	.L488
 3453              	.L514:
 3454              		.loc 1 770 0
 3455 00f8 0346     		mov	r3, r0
 3456 00fa E8E7     		b	.L497
 3457              	.L513:
 3458              		.loc 1 770 0 is_stmt 0 discriminator 1
 3459 00fc E168     		ldr	r1, [r4, #12]
 3460 00fe 1960     		str	r1, [r3, #0]
 3461 0100 E7E7     		b	.L493
 3462              	.LVL320:
 3463              	.L511:
 3464              		.loc 1 691 0 is_stmt 1 discriminator 1
 3465 0102 FFF7FEFF 		bl	port_halt
 3466              	.LVL321:
 3467 0106 F725     		movs	r5, #247
 3468              	.LVL322:
 3469 0108 DDE7     		b	.L488
 3470              	.LVL323:
 3471              	.L503:
 3472              	.LBB52:
 3473              		.loc 1 708 0
 3474 010a FC25     		movs	r5, #252
 3475              	.LVL324:
 3476 010c DBE7     		b	.L488
 3477              	.L518:
 3478 010e 00BF     		.align	2
 3479              	.L517:
 3480 0110 00000000 		.word	.LANCHOR12
 3481 0114 00000000 		.word	.LANCHOR5
 3482 0118 00000000 		.word	.LANCHOR2
 3483 011c 00000000 		.word	.LANCHOR3
 3484 0120 00000000 		.word	.LANCHOR7
 3485 0124 00000000 		.word	.LANCHOR11
 3486              	.LBE52:
 3487              		.cfi_endproc
 3488              	.LFE20:
 3489              		.size	tcp_connect, .-tcp_connect
 3490 0128 AFF30080 		.section	.text.tcp_debug_state_str,"ax",%progbits
 3490      AFF30080 
ARM GAS  C:\Users\jenny\AppData\Local\Temp\ccAyMdWJ.s 			page 63


 3491              		.align	2
 3492              		.p2align 4,,15
 3493              		.global	tcp_debug_state_str
 3494              		.thumb
 3495              		.thumb_func
 3496              		.type	tcp_debug_state_str, %function
 3497              	tcp_debug_state_str:
 3498              	.LFB43:
 3499              		.loc 1 1606 0
 3500              		.cfi_startproc
 3501              		@ args = 0, pretend = 0, frame = 0
 3502              		@ frame_needed = 0, uses_anonymous_args = 0
 3503              		@ link register save eliminated.
 3504              	.LVL325:
 3505              		.loc 1 1607 0
 3506 0000 40F20003 		movw	r3, #:lower16:.LANCHOR14
 3507 0004 C0F20003 		movt	r3, #:upper16:.LANCHOR14
 3508              		.loc 1 1608 0
 3509 0008 53F82000 		ldr	r0, [r3, r0, lsl #2]
 3510              	.LVL326:
 3511 000c 7047     		bx	lr
 3512              		.cfi_endproc
 3513              	.LFE43:
 3514              		.size	tcp_debug_state_str, .-tcp_debug_state_str
 3515              		.global	tcp_active_pcbs_changed
 3516              		.global	tcp_tmp_pcb
 3517              		.global	tcp_pcb_lists
 3518              		.global	tcp_tw_pcbs
 3519              		.global	tcp_active_pcbs
 3520              		.global	tcp_listen_pcbs
 3521              		.global	tcp_bound_pcbs
 3522              		.global	tcp_persist_backoff
 3523              		.global	tcp_backoff
 3524              		.global	tcp_ticks
 3525              		.global	tcp_state_str
 3526 000e 00BF     		.section	.bss.tcp_active_pcbs_changed,"aw",%nobits
 3527              		.set	.LANCHOR11,. + 0
 3528              		.type	tcp_active_pcbs_changed, %object
 3529              		.size	tcp_active_pcbs_changed, 1
 3530              	tcp_active_pcbs_changed:
 3531 0000 00       		.space	1
 3532              		.section	.rodata.tcp_state_str,"a",%progbits
 3533              		.align	2
 3534              		.set	.LANCHOR14,. + 0
 3535              		.type	tcp_state_str, %object
 3536              		.size	tcp_state_str, 44
 3537              	tcp_state_str:
 3538 0000 00000000 		.word	.LC0
 3539 0004 08000000 		.word	.LC1
 3540 0008 10000000 		.word	.LC2
 3541 000c 1C000000 		.word	.LC3
 3542 0010 28000000 		.word	.LC4
 3543 0014 34000000 		.word	.LC5
 3544 0018 40000000 		.word	.LC6
 3545 001c 4C000000 		.word	.LC7
 3546 0020 58000000 		.word	.LC8
 3547 0024 60000000 		.word	.LC9
ARM GAS  C:\Users\jenny\AppData\Local\Temp\ccAyMdWJ.s 			page 64


 3548 0028 6C000000 		.word	.LC10
 3549              		.section	.rodata.tcp_pcb_lists,"a",%progbits
 3550              		.align	2
 3551              		.set	.LANCHOR1,. + 0
 3552              		.type	tcp_pcb_lists, %object
 3553              		.size	tcp_pcb_lists, 16
 3554              	tcp_pcb_lists:
 3555 0000 00000000 		.word	tcp_listen_pcbs
 3556 0004 00000000 		.word	tcp_bound_pcbs
 3557 0008 00000000 		.word	tcp_active_pcbs
 3558 000c 00000000 		.word	tcp_tw_pcbs
 3559              		.section	.bss.tcp_ticks,"aw",%nobits
 3560              		.align	2
 3561              		.set	.LANCHOR5,. + 0
 3562              		.type	tcp_ticks, %object
 3563              		.size	tcp_ticks, 4
 3564              	tcp_ticks:
 3565 0000 00000000 		.space	4
 3566              		.section	.bss.tcp_timer,"aw",%nobits
 3567              		.set	.LANCHOR13,. + 0
 3568              		.type	tcp_timer, %object
 3569              		.size	tcp_timer, 1
 3570              	tcp_timer:
 3571 0000 00       		.space	1
 3572              		.section	.rodata.tcp_backoff,"a",%progbits
 3573              		.align	2
 3574              		.set	.LANCHOR10,. + 0
 3575              		.type	tcp_backoff, %object
 3576              		.size	tcp_backoff, 13
 3577              	tcp_backoff:
 3578 0000 01       		.byte	1
 3579 0001 02       		.byte	2
 3580 0002 03       		.byte	3
 3581 0003 04       		.byte	4
 3582 0004 05       		.byte	5
 3583 0005 06       		.byte	6
 3584 0006 07       		.byte	7
 3585 0007 07       		.byte	7
 3586 0008 07       		.byte	7
 3587 0009 07       		.byte	7
 3588 000a 07       		.byte	7
 3589 000b 07       		.byte	7
 3590 000c 07       		.byte	7
 3591 000d 000000   		.section	.bss.tcp_listen_pcbs,"aw",%nobits
 3592              		.align	2
 3593              		.set	.LANCHOR4,. + 0
 3594              		.type	tcp_listen_pcbs, %object
 3595              		.size	tcp_listen_pcbs, 4
 3596              	tcp_listen_pcbs:
 3597 0000 00000000 		.space	4
 3598              		.section	.data.tcp_port,"aw",%progbits
 3599              		.align	1
 3600              		.set	.LANCHOR0,. + 0
 3601              		.type	tcp_port, %object
 3602              		.size	tcp_port, 2
 3603              	tcp_port:
 3604 0000 00C0     		.short	-16384
ARM GAS  C:\Users\jenny\AppData\Local\Temp\ccAyMdWJ.s 			page 65


 3605              		.section	.bss.tcp_active_pcbs,"aw",%nobits
 3606              		.align	2
 3607              		.set	.LANCHOR7,. + 0
 3608              		.type	tcp_active_pcbs, %object
 3609              		.size	tcp_active_pcbs, 4
 3610              	tcp_active_pcbs:
 3611 0000 00000000 		.space	4
 3612              		.section	.bss.tcp_timer_ctr,"aw",%nobits
 3613              		.set	.LANCHOR6,. + 0
 3614              		.type	tcp_timer_ctr, %object
 3615              		.size	tcp_timer_ctr, 1
 3616              	tcp_timer_ctr:
 3617 0000 00       		.space	1
 3618              		.section	.bss.tcp_tw_pcbs,"aw",%nobits
 3619              		.align	2
 3620              		.set	.LANCHOR8,. + 0
 3621              		.type	tcp_tw_pcbs, %object
 3622              		.size	tcp_tw_pcbs, 4
 3623              	tcp_tw_pcbs:
 3624 0000 00000000 		.space	4
 3625              		.section	.bss.tcp_tmp_pcb,"aw",%nobits
 3626              		.align	2
 3627              		.set	.LANCHOR3,. + 0
 3628              		.type	tcp_tmp_pcb, %object
 3629              		.size	tcp_tmp_pcb, 4
 3630              	tcp_tmp_pcb:
 3631 0000 00000000 		.space	4
 3632              		.section	.data.iss.6034,"aw",%progbits
 3633              		.align	2
 3634              		.set	.LANCHOR12,. + 0
 3635              		.type	iss.6034, %object
 3636              		.size	iss.6034, 4
 3637              	iss.6034:
 3638 0000 6E190000 		.word	6510
 3639              		.section	.rodata.str1.4,"aMS",%progbits,1
 3640              		.align	2
 3641              	.LC0:
 3642 0000 434C4F53 		.ascii	"CLOSED\000"
 3642      454400
 3643 0007 00       		.space	1
 3644              	.LC1:
 3645 0008 4C495354 		.ascii	"LISTEN\000"
 3645      454E00
 3646 000f 00       		.space	1
 3647              	.LC2:
 3648 0010 53594E5F 		.ascii	"SYN_SENT\000"
 3648      53454E54 
 3648      00
 3649 0019 000000   		.space	3
 3650              	.LC3:
 3651 001c 53594E5F 		.ascii	"SYN_RCVD\000"
 3651      52435644 
 3651      00
 3652 0025 000000   		.space	3
 3653              	.LC4:
 3654 0028 45535441 		.ascii	"ESTABLISHED\000"
 3654      424C4953 
ARM GAS  C:\Users\jenny\AppData\Local\Temp\ccAyMdWJ.s 			page 66


 3654      48454400 
 3655              	.LC5:
 3656 0034 46494E5F 		.ascii	"FIN_WAIT_1\000"
 3656      57414954 
 3656      5F3100
 3657 003f 00       		.space	1
 3658              	.LC6:
 3659 0040 46494E5F 		.ascii	"FIN_WAIT_2\000"
 3659      57414954 
 3659      5F3200
 3660 004b 00       		.space	1
 3661              	.LC7:
 3662 004c 434C4F53 		.ascii	"CLOSE_WAIT\000"
 3662      455F5741 
 3662      495400
 3663 0057 00       		.space	1
 3664              	.LC8:
 3665 0058 434C4F53 		.ascii	"CLOSING\000"
 3665      494E4700 
 3666              	.LC9:
 3667 0060 4C415354 		.ascii	"LAST_ACK\000"
 3667      5F41434B 
 3667      00
 3668 0069 000000   		.space	3
 3669              	.LC10:
 3670 006c 54494D45 		.ascii	"TIME_WAIT\000"
 3670      5F574149 
 3670      5400
 3671 0076 0000     		.section	.rodata.tcp_persist_backoff,"a",%progbits
 3672              		.align	2
 3673              		.set	.LANCHOR9,. + 0
 3674              		.type	tcp_persist_backoff, %object
 3675              		.size	tcp_persist_backoff, 7
 3676              	tcp_persist_backoff:
 3677 0000 03       		.byte	3
 3678 0001 06       		.byte	6
 3679 0002 0C       		.byte	12
 3680 0003 18       		.byte	24
 3681 0004 30       		.byte	48
 3682 0005 60       		.byte	96
 3683 0006 78       		.byte	120
 3684 0007 00       		.section	.bss.tcp_bound_pcbs,"aw",%nobits
 3685              		.align	2
 3686              		.set	.LANCHOR2,. + 0
 3687              		.type	tcp_bound_pcbs, %object
 3688              		.size	tcp_bound_pcbs, 4
 3689              	tcp_bound_pcbs:
 3690 0000 00000000 		.space	4
 3691              		.text
 3692              	.Letext0:
 3693              		.file 2 "c:\\fbin\\yagarto\\bin\\../lib/gcc/arm-none-eabi/4.7.4/../../../../arm-none-eabi/include/
 3694              		.file 3 "../../os/various/lwip_bindings/arch/cc.h"
 3695              		.file 4 "../../ext/lwip/src/include/lwip/mem.h"
 3696              		.file 5 "../../ext/lwip/src/include/lwip/memp.h"
 3697              		.file 6 "../../ext/lwip/src/include/ipv4/lwip/ip_addr.h"
 3698              		.file 7 "../../ext/lwip/src/include/lwip/err.h"
 3699              		.file 8 "../../ext/lwip/src/include/lwip/pbuf.h"
ARM GAS  C:\Users\jenny\AppData\Local\Temp\ccAyMdWJ.s 			page 67


 3700              		.file 9 "../../ext/lwip/src/include/lwip/netif.h"
 3701              		.file 10 "../../ext/lwip/src/include/lwip/tcp.h"
 3702              		.file 11 "../../ext/lwip/src/include/lwip/tcp_impl.h"
 3703              		.file 12 "../../ext/lwip/src/include/lwip/stats.h"
 3704              		.file 13 "../../os/ports/GCC/ARMCMx/chcore_v7m.h"
 3705              		.file 14 "../../ext/lwip/src/include/ipv4/lwip/ip.h"
 3706              		.section	.debug_info,"",%progbits
 3707              	.Ldebug_info0:
 3708 0000 32210000 		.4byte	0x2132
 3709 0004 0200     		.2byte	0x2
 3710 0006 00000000 		.4byte	.Ldebug_abbrev0
 3711 000a 04       		.byte	0x4
 3712 000b 01       		.uleb128 0x1
 3713 000c DE000000 		.4byte	.LASF263
 3714 0010 01       		.byte	0x1
 3715 0011 2E070000 		.4byte	.LASF264
 3716 0015 B4030000 		.4byte	.LASF265
 3717 0019 40010000 		.4byte	.Ldebug_ranges0+0x140
 3718 001d 00000000 		.4byte	0
 3719 0021 00000000 		.4byte	0
 3720 0025 00000000 		.4byte	.Ldebug_line0
 3721 0029 02       		.uleb128 0x2
 3722 002a 04       		.byte	0x4
 3723 002b 05       		.byte	0x5
 3724 002c 696E7400 		.ascii	"int\000"
 3725 0030 03       		.uleb128 0x3
 3726 0031 04       		.byte	0x4
 3727 0032 07       		.byte	0x7
 3728 0033 76060000 		.4byte	.LASF0
 3729 0037 04       		.uleb128 0x4
 3730 0038 00000000 		.4byte	.LASF2
 3731 003c 02       		.byte	0x2
 3732 003d 29       		.byte	0x29
 3733 003e 42000000 		.4byte	0x42
 3734 0042 03       		.uleb128 0x3
 3735 0043 01       		.byte	0x1
 3736 0044 06       		.byte	0x6
 3737 0045 35020000 		.4byte	.LASF1
 3738 0049 04       		.uleb128 0x4
 3739 004a 41020000 		.4byte	.LASF3
 3740 004e 02       		.byte	0x2
 3741 004f 2A       		.byte	0x2a
 3742 0050 54000000 		.4byte	0x54
 3743 0054 03       		.uleb128 0x3
 3744 0055 01       		.byte	0x1
 3745 0056 08       		.byte	0x8
 3746 0057 6C020000 		.4byte	.LASF4
 3747 005b 04       		.uleb128 0x4
 3748 005c 080A0000 		.4byte	.LASF5
 3749 0060 02       		.byte	0x2
 3750 0061 35       		.byte	0x35
 3751 0062 66000000 		.4byte	0x66
 3752 0066 03       		.uleb128 0x3
 3753 0067 02       		.byte	0x2
 3754 0068 05       		.byte	0x5
 3755 0069 E6090000 		.4byte	.LASF6
 3756 006d 04       		.uleb128 0x4
ARM GAS  C:\Users\jenny\AppData\Local\Temp\ccAyMdWJ.s 			page 68


 3757 006e 25080000 		.4byte	.LASF7
 3758 0072 02       		.byte	0x2
 3759 0073 36       		.byte	0x36
 3760 0074 78000000 		.4byte	0x78
 3761 0078 03       		.uleb128 0x3
 3762 0079 02       		.byte	0x2
 3763 007a 07       		.byte	0x7
 3764 007b D30A0000 		.4byte	.LASF8
 3765 007f 04       		.uleb128 0x4
 3766 0080 58000000 		.4byte	.LASF9
 3767 0084 02       		.byte	0x2
 3768 0085 4F       		.byte	0x4f
 3769 0086 8A000000 		.4byte	0x8a
 3770 008a 03       		.uleb128 0x3
 3771 008b 04       		.byte	0x4
 3772 008c 05       		.byte	0x5
 3773 008d 95010000 		.4byte	.LASF10
 3774 0091 04       		.uleb128 0x4
 3775 0092 930A0000 		.4byte	.LASF11
 3776 0096 02       		.byte	0x2
 3777 0097 50       		.byte	0x50
 3778 0098 9C000000 		.4byte	0x9c
 3779 009c 03       		.uleb128 0x3
 3780 009d 04       		.byte	0x4
 3781 009e 07       		.byte	0x7
 3782 009f 03050000 		.4byte	.LASF12
 3783 00a3 03       		.uleb128 0x3
 3784 00a4 08       		.byte	0x8
 3785 00a5 05       		.byte	0x5
 3786 00a6 F2050000 		.4byte	.LASF13
 3787 00aa 03       		.uleb128 0x3
 3788 00ab 08       		.byte	0x8
 3789 00ac 07       		.byte	0x7
 3790 00ad E8070000 		.4byte	.LASF14
 3791 00b1 03       		.uleb128 0x3
 3792 00b2 01       		.byte	0x1
 3793 00b3 02       		.byte	0x2
 3794 00b4 C9020000 		.4byte	.LASF15
 3795 00b8 05       		.uleb128 0x5
 3796 00b9 04       		.byte	0x4
 3797 00ba 03       		.uleb128 0x3
 3798 00bb 04       		.byte	0x4
 3799 00bc 07       		.byte	0x7
 3800 00bd 0F000000 		.4byte	.LASF16
 3801 00c1 06       		.uleb128 0x6
 3802 00c2 04       		.byte	0x4
 3803 00c3 C7000000 		.4byte	0xc7
 3804 00c7 07       		.uleb128 0x7
 3805 00c8 CC000000 		.4byte	0xcc
 3806 00cc 03       		.uleb128 0x3
 3807 00cd 01       		.byte	0x1
 3808 00ce 08       		.byte	0x8
 3809 00cf 1F030000 		.4byte	.LASF17
 3810 00d3 04       		.uleb128 0x4
 3811 00d4 F70A0000 		.4byte	.LASF18
 3812 00d8 03       		.byte	0x3
 3813 00d9 38       		.byte	0x38
ARM GAS  C:\Users\jenny\AppData\Local\Temp\ccAyMdWJ.s 			page 69


 3814 00da 49000000 		.4byte	0x49
 3815 00de 04       		.uleb128 0x4
 3816 00df E60A0000 		.4byte	.LASF19
 3817 00e3 03       		.byte	0x3
 3818 00e4 39       		.byte	0x39
 3819 00e5 37000000 		.4byte	0x37
 3820 00e9 04       		.uleb128 0x4
 3821 00ea 8B060000 		.4byte	.LASF20
 3822 00ee 03       		.byte	0x3
 3823 00ef 3A       		.byte	0x3a
 3824 00f0 6D000000 		.4byte	0x6d
 3825 00f4 04       		.uleb128 0x4
 3826 00f5 750A0000 		.4byte	.LASF21
 3827 00f9 03       		.byte	0x3
 3828 00fa 3B       		.byte	0x3b
 3829 00fb 5B000000 		.4byte	0x5b
 3830 00ff 04       		.uleb128 0x4
 3831 0100 2D090000 		.4byte	.LASF22
 3832 0104 03       		.byte	0x3
 3833 0105 3C       		.byte	0x3c
 3834 0106 91000000 		.4byte	0x91
 3835 010a 04       		.uleb128 0x4
 3836 010b BE000000 		.4byte	.LASF23
 3837 010f 03       		.byte	0x3
 3838 0110 3D       		.byte	0x3d
 3839 0111 7F000000 		.4byte	0x7f
 3840 0115 04       		.uleb128 0x4
 3841 0116 75030000 		.4byte	.LASF24
 3842 011a 04       		.byte	0x4
 3843 011b 4C       		.byte	0x4c
 3844 011c E9000000 		.4byte	0xe9
 3845 0120 08       		.uleb128 0x8
 3846 0121 01       		.byte	0x1
 3847 0122 05       		.byte	0x5
 3848 0123 2B       		.byte	0x2b
 3849 0124 83010000 		.4byte	0x183
 3850 0128 09       		.uleb128 0x9
 3851 0129 43030000 		.4byte	.LASF25
 3852 012d 00       		.sleb128 0
 3853 012e 09       		.uleb128 0x9
 3854 012f FF070000 		.4byte	.LASF26
 3855 0133 01       		.sleb128 1
 3856 0134 09       		.uleb128 0x9
 3857 0135 37000000 		.4byte	.LASF27
 3858 0139 02       		.sleb128 2
 3859 013a 09       		.uleb128 0x9
 3860 013b 680B0000 		.4byte	.LASF28
 3861 013f 03       		.sleb128 3
 3862 0140 09       		.uleb128 0x9
 3863 0141 18080000 		.4byte	.LASF29
 3864 0145 04       		.sleb128 4
 3865 0146 09       		.uleb128 0x9
 3866 0147 AC070000 		.4byte	.LASF30
 3867 014b 05       		.sleb128 5
 3868 014c 09       		.uleb128 0x9
 3869 014d D9070000 		.4byte	.LASF31
 3870 0151 06       		.sleb128 6
ARM GAS  C:\Users\jenny\AppData\Local\Temp\ccAyMdWJ.s 			page 70


 3871 0152 09       		.uleb128 0x9
 3872 0153 A7020000 		.4byte	.LASF32
 3873 0157 07       		.sleb128 7
 3874 0158 09       		.uleb128 0x9
 3875 0159 60040000 		.4byte	.LASF33
 3876 015d 08       		.sleb128 8
 3877 015e 09       		.uleb128 0x9
 3878 015f 4D040000 		.4byte	.LASF34
 3879 0163 09       		.sleb128 9
 3880 0164 09       		.uleb128 0x9
 3881 0165 3E080000 		.4byte	.LASF35
 3882 0169 0A       		.sleb128 10
 3883 016a 09       		.uleb128 0x9
 3884 016b 83000000 		.4byte	.LASF36
 3885 016f 0B       		.sleb128 11
 3886 0170 09       		.uleb128 0x9
 3887 0171 BA090000 		.4byte	.LASF37
 3888 0175 0C       		.sleb128 12
 3889 0176 09       		.uleb128 0x9
 3890 0177 26020000 		.4byte	.LASF38
 3891 017b 0D       		.sleb128 13
 3892 017c 09       		.uleb128 0x9
 3893 017d F2080000 		.4byte	.LASF39
 3894 0181 0E       		.sleb128 14
 3895 0182 00       		.byte	0
 3896 0183 04       		.uleb128 0x4
 3897 0184 F00A0000 		.4byte	.LASF40
 3898 0188 05       		.byte	0x5
 3899 0189 2F       		.byte	0x2f
 3900 018a 20010000 		.4byte	0x120
 3901 018e 0A       		.uleb128 0xa
 3902 018f A2030000 		.4byte	.LASF43
 3903 0193 04       		.byte	0x4
 3904 0194 06       		.byte	0x6
 3905 0195 2C       		.byte	0x2c
 3906 0196 A9010000 		.4byte	0x1a9
 3907 019a 0B       		.uleb128 0xb
 3908 019b 68060000 		.4byte	.LASF45
 3909 019f 06       		.byte	0x6
 3910 01a0 2D       		.byte	0x2d
 3911 01a1 FF000000 		.4byte	0xff
 3912 01a5 02       		.byte	0x2
 3913 01a6 23       		.byte	0x23
 3914 01a7 00       		.uleb128 0
 3915 01a8 00       		.byte	0
 3916 01a9 04       		.uleb128 0x4
 3917 01aa 69070000 		.4byte	.LASF41
 3918 01ae 06       		.byte	0x6
 3919 01af 40       		.byte	0x40
 3920 01b0 8E010000 		.4byte	0x18e
 3921 01b4 04       		.uleb128 0x4
 3922 01b5 81070000 		.4byte	.LASF42
 3923 01b9 07       		.byte	0x7
 3924 01ba 2F       		.byte	0x2f
 3925 01bb DE000000 		.4byte	0xde
 3926 01bf 0A       		.uleb128 0xa
 3927 01c0 32030000 		.4byte	.LASF44
ARM GAS  C:\Users\jenny\AppData\Local\Temp\ccAyMdWJ.s 			page 71


 3928 01c4 10       		.byte	0x10
 3929 01c5 08       		.byte	0x8
 3930 01c6 4F       		.byte	0x4f
 3931 01c7 2E020000 		.4byte	0x22e
 3932 01cb 0B       		.uleb128 0xb
 3933 01cc 450B0000 		.4byte	.LASF46
 3934 01d0 08       		.byte	0x8
 3935 01d1 51       		.byte	0x51
 3936 01d2 2E020000 		.4byte	0x22e
 3937 01d6 02       		.byte	0x2
 3938 01d7 23       		.byte	0x23
 3939 01d8 00       		.uleb128 0
 3940 01d9 0B       		.uleb128 0xb
 3941 01da 87050000 		.4byte	.LASF47
 3942 01de 08       		.byte	0x8
 3943 01df 54       		.byte	0x54
 3944 01e0 B8000000 		.4byte	0xb8
 3945 01e4 02       		.byte	0x2
 3946 01e5 23       		.byte	0x23
 3947 01e6 04       		.uleb128 0x4
 3948 01e7 0B       		.uleb128 0xb
 3949 01e8 61070000 		.4byte	.LASF48
 3950 01ec 08       		.byte	0x8
 3951 01ed 5D       		.byte	0x5d
 3952 01ee E9000000 		.4byte	0xe9
 3953 01f2 02       		.byte	0x2
 3954 01f3 23       		.byte	0x23
 3955 01f4 08       		.uleb128 0x8
 3956 01f5 0C       		.uleb128 0xc
 3957 01f6 6C656E00 		.ascii	"len\000"
 3958 01fa 08       		.byte	0x8
 3959 01fb 60       		.byte	0x60
 3960 01fc E9000000 		.4byte	0xe9
 3961 0200 02       		.byte	0x2
 3962 0201 23       		.byte	0x23
 3963 0202 0A       		.uleb128 0xa
 3964 0203 0B       		.uleb128 0xb
 3965 0204 CD000000 		.4byte	.LASF49
 3966 0208 08       		.byte	0x8
 3967 0209 63       		.byte	0x63
 3968 020a D3000000 		.4byte	0xd3
 3969 020e 02       		.byte	0x2
 3970 020f 23       		.byte	0x23
 3971 0210 0C       		.uleb128 0xc
 3972 0211 0B       		.uleb128 0xb
 3973 0212 67030000 		.4byte	.LASF50
 3974 0216 08       		.byte	0x8
 3975 0217 66       		.byte	0x66
 3976 0218 D3000000 		.4byte	0xd3
 3977 021c 02       		.byte	0x2
 3978 021d 23       		.byte	0x23
 3979 021e 0D       		.uleb128 0xd
 3980 021f 0C       		.uleb128 0xc
 3981 0220 72656600 		.ascii	"ref\000"
 3982 0224 08       		.byte	0x8
 3983 0225 6D       		.byte	0x6d
 3984 0226 E9000000 		.4byte	0xe9
ARM GAS  C:\Users\jenny\AppData\Local\Temp\ccAyMdWJ.s 			page 72


 3985 022a 02       		.byte	0x2
 3986 022b 23       		.byte	0x23
 3987 022c 0E       		.uleb128 0xe
 3988 022d 00       		.byte	0
 3989 022e 06       		.uleb128 0x6
 3990 022f 04       		.byte	0x4
 3991 0230 BF010000 		.4byte	0x1bf
 3992 0234 06       		.uleb128 0x6
 3993 0235 04       		.byte	0x4
 3994 0236 3A020000 		.4byte	0x23a
 3995 023a 0A       		.uleb128 0xa
 3996 023b 15050000 		.4byte	.LASF51
 3997 023f 30       		.byte	0x30
 3998 0240 09       		.byte	0x9
 3999 0241 88       		.byte	0x88
 4000 0242 0A030000 		.4byte	0x30a
 4001 0246 0B       		.uleb128 0xb
 4002 0247 450B0000 		.4byte	.LASF46
 4003 024b 09       		.byte	0x9
 4004 024c 8A       		.byte	0x8a
 4005 024d 34020000 		.4byte	0x234
 4006 0251 02       		.byte	0x2
 4007 0252 23       		.byte	0x23
 4008 0253 00       		.uleb128 0
 4009 0254 0B       		.uleb128 0xb
 4010 0255 A2030000 		.4byte	.LASF43
 4011 0259 09       		.byte	0x9
 4012 025a 8D       		.byte	0x8d
 4013 025b A9010000 		.4byte	0x1a9
 4014 025f 02       		.byte	0x2
 4015 0260 23       		.byte	0x23
 4016 0261 04       		.uleb128 0x4
 4017 0262 0B       		.uleb128 0xb
 4018 0263 1A060000 		.4byte	.LASF52
 4019 0267 09       		.byte	0x9
 4020 0268 8E       		.byte	0x8e
 4021 0269 A9010000 		.4byte	0x1a9
 4022 026d 02       		.byte	0x2
 4023 026e 23       		.byte	0x23
 4024 026f 08       		.uleb128 0x8
 4025 0270 0C       		.uleb128 0xc
 4026 0271 677700   		.ascii	"gw\000"
 4027 0274 09       		.byte	0x9
 4028 0275 8F       		.byte	0x8f
 4029 0276 A9010000 		.4byte	0x1a9
 4030 027a 02       		.byte	0x2
 4031 027b 23       		.byte	0x23
 4032 027c 0C       		.uleb128 0xc
 4033 027d 0B       		.uleb128 0xb
 4034 027e 07040000 		.4byte	.LASF53
 4035 0282 09       		.byte	0x9
 4036 0283 93       		.byte	0x93
 4037 0284 0A030000 		.4byte	0x30a
 4038 0288 02       		.byte	0x2
 4039 0289 23       		.byte	0x23
 4040 028a 10       		.uleb128 0x10
 4041 028b 0B       		.uleb128 0xb
ARM GAS  C:\Users\jenny\AppData\Local\Temp\ccAyMdWJ.s 			page 73


 4042 028c 24030000 		.4byte	.LASF54
 4043 0290 09       		.byte	0x9
 4044 0291 97       		.byte	0x97
 4045 0292 30030000 		.4byte	0x330
 4046 0296 02       		.byte	0x2
 4047 0297 23       		.byte	0x23
 4048 0298 14       		.uleb128 0x14
 4049 0299 0B       		.uleb128 0xb
 4050 029a 08020000 		.4byte	.LASF55
 4051 029e 09       		.byte	0x9
 4052 029f 9B       		.byte	0x9b
 4053 02a0 61030000 		.4byte	0x361
 4054 02a4 02       		.byte	0x2
 4055 02a5 23       		.byte	0x23
 4056 02a6 18       		.uleb128 0x18
 4057 02a7 0B       		.uleb128 0xb
 4058 02a8 B3000000 		.4byte	.LASF56
 4059 02ac 09       		.byte	0x9
 4060 02ad AC       		.byte	0xac
 4061 02ae B8000000 		.4byte	0xb8
 4062 02b2 02       		.byte	0x2
 4063 02b3 23       		.byte	0x23
 4064 02b4 1C       		.uleb128 0x1c
 4065 02b5 0C       		.uleb128 0xc
 4066 02b6 6D747500 		.ascii	"mtu\000"
 4067 02ba 09       		.byte	0x9
 4068 02bb BA       		.byte	0xba
 4069 02bc E9000000 		.4byte	0xe9
 4070 02c0 02       		.byte	0x2
 4071 02c1 23       		.byte	0x23
 4072 02c2 20       		.uleb128 0x20
 4073 02c3 0B       		.uleb128 0xb
 4074 02c4 1B020000 		.4byte	.LASF57
 4075 02c8 09       		.byte	0x9
 4076 02c9 BC       		.byte	0xbc
 4077 02ca D3000000 		.4byte	0xd3
 4078 02ce 02       		.byte	0x2
 4079 02cf 23       		.byte	0x23
 4080 02d0 22       		.uleb128 0x22
 4081 02d1 0B       		.uleb128 0xb
 4082 02d2 37050000 		.4byte	.LASF58
 4083 02d6 09       		.byte	0x9
 4084 02d7 BE       		.byte	0xbe
 4085 02d8 87030000 		.4byte	0x387
 4086 02dc 02       		.byte	0x2
 4087 02dd 23       		.byte	0x23
 4088 02de 23       		.uleb128 0x23
 4089 02df 0B       		.uleb128 0xb
 4090 02e0 67030000 		.4byte	.LASF50
 4091 02e4 09       		.byte	0x9
 4092 02e5 C0       		.byte	0xc0
 4093 02e6 D3000000 		.4byte	0xd3
 4094 02ea 02       		.byte	0x2
 4095 02eb 23       		.byte	0x23
 4096 02ec 29       		.uleb128 0x29
 4097 02ed 0B       		.uleb128 0xb
 4098 02ee B0090000 		.4byte	.LASF59
ARM GAS  C:\Users\jenny\AppData\Local\Temp\ccAyMdWJ.s 			page 74


 4099 02f2 09       		.byte	0x9
 4100 02f3 C2       		.byte	0xc2
 4101 02f4 97030000 		.4byte	0x397
 4102 02f8 02       		.byte	0x2
 4103 02f9 23       		.byte	0x23
 4104 02fa 2A       		.uleb128 0x2a
 4105 02fb 0C       		.uleb128 0xc
 4106 02fc 6E756D00 		.ascii	"num\000"
 4107 0300 09       		.byte	0x9
 4108 0301 C4       		.byte	0xc4
 4109 0302 D3000000 		.4byte	0xd3
 4110 0306 02       		.byte	0x2
 4111 0307 23       		.byte	0x23
 4112 0308 2C       		.uleb128 0x2c
 4113 0309 00       		.byte	0
 4114 030a 04       		.uleb128 0x4
 4115 030b BF060000 		.4byte	.LASF60
 4116 030f 09       		.byte	0x9
 4117 0310 6D       		.byte	0x6d
 4118 0311 15030000 		.4byte	0x315
 4119 0315 06       		.uleb128 0x6
 4120 0316 04       		.byte	0x4
 4121 0317 1B030000 		.4byte	0x31b
 4122 031b 0D       		.uleb128 0xd
 4123 031c 01       		.byte	0x1
 4124 031d B4010000 		.4byte	0x1b4
 4125 0321 30030000 		.4byte	0x330
 4126 0325 0E       		.uleb128 0xe
 4127 0326 2E020000 		.4byte	0x22e
 4128 032a 0E       		.uleb128 0xe
 4129 032b 34020000 		.4byte	0x234
 4130 032f 00       		.byte	0
 4131 0330 04       		.uleb128 0x4
 4132 0331 4C070000 		.4byte	.LASF61
 4133 0335 09       		.byte	0x9
 4134 0336 76       		.byte	0x76
 4135 0337 3B030000 		.4byte	0x33b
 4136 033b 06       		.uleb128 0x6
 4137 033c 04       		.byte	0x4
 4138 033d 41030000 		.4byte	0x341
 4139 0341 0D       		.uleb128 0xd
 4140 0342 01       		.byte	0x1
 4141 0343 B4010000 		.4byte	0x1b4
 4142 0347 5B030000 		.4byte	0x35b
 4143 034b 0E       		.uleb128 0xe
 4144 034c 34020000 		.4byte	0x234
 4145 0350 0E       		.uleb128 0xe
 4146 0351 2E020000 		.4byte	0x22e
 4147 0355 0E       		.uleb128 0xe
 4148 0356 5B030000 		.4byte	0x35b
 4149 035a 00       		.byte	0
 4150 035b 06       		.uleb128 0x6
 4151 035c 04       		.byte	0x4
 4152 035d A9010000 		.4byte	0x1a9
 4153 0361 04       		.uleb128 0x4
 4154 0362 05070000 		.4byte	.LASF62
 4155 0366 09       		.byte	0x9
ARM GAS  C:\Users\jenny\AppData\Local\Temp\ccAyMdWJ.s 			page 75


 4156 0367 7E       		.byte	0x7e
 4157 0368 6C030000 		.4byte	0x36c
 4158 036c 06       		.uleb128 0x6
 4159 036d 04       		.byte	0x4
 4160 036e 72030000 		.4byte	0x372
 4161 0372 0D       		.uleb128 0xd
 4162 0373 01       		.byte	0x1
 4163 0374 B4010000 		.4byte	0x1b4
 4164 0378 87030000 		.4byte	0x387
 4165 037c 0E       		.uleb128 0xe
 4166 037d 34020000 		.4byte	0x234
 4167 0381 0E       		.uleb128 0xe
 4168 0382 2E020000 		.4byte	0x22e
 4169 0386 00       		.byte	0
 4170 0387 0F       		.uleb128 0xf
 4171 0388 D3000000 		.4byte	0xd3
 4172 038c 97030000 		.4byte	0x397
 4173 0390 10       		.uleb128 0x10
 4174 0391 BA000000 		.4byte	0xba
 4175 0395 05       		.byte	0x5
 4176 0396 00       		.byte	0
 4177 0397 0F       		.uleb128 0xf
 4178 0398 CC000000 		.4byte	0xcc
 4179 039c A7030000 		.4byte	0x3a7
 4180 03a0 10       		.uleb128 0x10
 4181 03a1 BA000000 		.4byte	0xba
 4182 03a5 01       		.byte	0x1
 4183 03a6 00       		.byte	0
 4184 03a7 04       		.uleb128 0x4
 4185 03a8 310B0000 		.4byte	.LASF63
 4186 03ac 0A       		.byte	0xa
 4187 03ad 3C       		.byte	0x3c
 4188 03ae B2030000 		.4byte	0x3b2
 4189 03b2 06       		.uleb128 0x6
 4190 03b3 04       		.byte	0x4
 4191 03b4 B8030000 		.4byte	0x3b8
 4192 03b8 0D       		.uleb128 0xd
 4193 03b9 01       		.byte	0x1
 4194 03ba B4010000 		.4byte	0x1b4
 4195 03be D2030000 		.4byte	0x3d2
 4196 03c2 0E       		.uleb128 0xe
 4197 03c3 B8000000 		.4byte	0xb8
 4198 03c7 0E       		.uleb128 0xe
 4199 03c8 D2030000 		.4byte	0x3d2
 4200 03cc 0E       		.uleb128 0xe
 4201 03cd B4010000 		.4byte	0x1b4
 4202 03d1 00       		.byte	0
 4203 03d2 06       		.uleb128 0x6
 4204 03d3 04       		.byte	0x4
 4205 03d4 D8030000 		.4byte	0x3d8
 4206 03d8 0A       		.uleb128 0xa
 4207 03d9 6D030000 		.4byte	.LASF64
 4208 03dd 98       		.byte	0x98
 4209 03de 0A       		.byte	0xa
 4210 03df A8       		.byte	0xa8
 4211 03e0 02070000 		.4byte	0x702
 4212 03e4 0B       		.uleb128 0xb
ARM GAS  C:\Users\jenny\AppData\Local\Temp\ccAyMdWJ.s 			page 76


 4213 03e5 57020000 		.4byte	.LASF65
 4214 03e9 0A       		.byte	0xa
 4215 03ea AA       		.byte	0xaa
 4216 03eb A9010000 		.4byte	0x1a9
 4217 03ef 02       		.byte	0x2
 4218 03f0 23       		.byte	0x23
 4219 03f1 00       		.uleb128 0
 4220 03f2 0B       		.uleb128 0xb
 4221 03f3 12090000 		.4byte	.LASF66
 4222 03f7 0A       		.byte	0xa
 4223 03f8 AA       		.byte	0xaa
 4224 03f9 A9010000 		.4byte	0x1a9
 4225 03fd 02       		.byte	0x2
 4226 03fe 23       		.byte	0x23
 4227 03ff 04       		.uleb128 0x4
 4228 0400 0B       		.uleb128 0xb
 4229 0401 78000000 		.4byte	.LASF67
 4230 0405 0A       		.byte	0xa
 4231 0406 AA       		.byte	0xaa
 4232 0407 D3000000 		.4byte	0xd3
 4233 040b 02       		.byte	0x2
 4234 040c 23       		.byte	0x23
 4235 040d 08       		.uleb128 0x8
 4236 040e 0C       		.uleb128 0xc
 4237 040f 746F7300 		.ascii	"tos\000"
 4238 0413 0A       		.byte	0xa
 4239 0414 AA       		.byte	0xaa
 4240 0415 D3000000 		.4byte	0xd3
 4241 0419 02       		.byte	0x2
 4242 041a 23       		.byte	0x23
 4243 041b 09       		.uleb128 0x9
 4244 041c 0C       		.uleb128 0xc
 4245 041d 74746C00 		.ascii	"ttl\000"
 4246 0421 0A       		.byte	0xa
 4247 0422 AA       		.byte	0xaa
 4248 0423 D3000000 		.4byte	0xd3
 4249 0427 02       		.byte	0x2
 4250 0428 23       		.byte	0x23
 4251 0429 0A       		.uleb128 0xa
 4252 042a 0B       		.uleb128 0xb
 4253 042b 450B0000 		.4byte	.LASF46
 4254 042f 0A       		.byte	0xa
 4255 0430 AC       		.byte	0xac
 4256 0431 D2030000 		.4byte	0x3d2
 4257 0435 02       		.byte	0x2
 4258 0436 23       		.byte	0x23
 4259 0437 0C       		.uleb128 0xc
 4260 0438 0B       		.uleb128 0xb
 4261 0439 100A0000 		.4byte	.LASF68
 4262 043d 0A       		.byte	0xa
 4263 043e AC       		.byte	0xac
 4264 043f B8000000 		.4byte	0xb8
 4265 0443 02       		.byte	0x2
 4266 0444 23       		.byte	0x23
 4267 0445 10       		.uleb128 0x10
 4268 0446 0B       		.uleb128 0xb
 4269 0447 220A0000 		.4byte	.LASF69
ARM GAS  C:\Users\jenny\AppData\Local\Temp\ccAyMdWJ.s 			page 77


 4270 044b 0A       		.byte	0xa
 4271 044c AC       		.byte	0xac
 4272 044d A7030000 		.4byte	0x3a7
 4273 0451 02       		.byte	0x2
 4274 0452 23       		.byte	0x23
 4275 0453 14       		.uleb128 0x14
 4276 0454 0B       		.uleb128 0xb
 4277 0455 B3000000 		.4byte	.LASF56
 4278 0459 0A       		.byte	0xa
 4279 045a AC       		.byte	0xac
 4280 045b B0070000 		.4byte	0x7b0
 4281 045f 02       		.byte	0x2
 4282 0460 23       		.byte	0x23
 4283 0461 18       		.uleb128 0x18
 4284 0462 0B       		.uleb128 0xb
 4285 0463 40010000 		.4byte	.LASF70
 4286 0467 0A       		.byte	0xa
 4287 0468 AC       		.byte	0xac
 4288 0469 D3000000 		.4byte	0xd3
 4289 046d 02       		.byte	0x2
 4290 046e 23       		.byte	0x23
 4291 046f 19       		.uleb128 0x19
 4292 0470 0B       		.uleb128 0xb
 4293 0471 5C030000 		.4byte	.LASF71
 4294 0475 0A       		.byte	0xa
 4295 0476 AC       		.byte	0xac
 4296 0477 E9000000 		.4byte	0xe9
 4297 047b 02       		.byte	0x2
 4298 047c 23       		.byte	0x23
 4299 047d 1A       		.uleb128 0x1a
 4300 047e 0B       		.uleb128 0xb
 4301 047f 0C080000 		.4byte	.LASF72
 4302 0483 0A       		.byte	0xa
 4303 0484 AF       		.byte	0xaf
 4304 0485 E9000000 		.4byte	0xe9
 4305 0489 02       		.byte	0x2
 4306 048a 23       		.byte	0x23
 4307 048b 1C       		.uleb128 0x1c
 4308 048c 0B       		.uleb128 0xb
 4309 048d 67030000 		.4byte	.LASF50
 4310 0491 0A       		.byte	0xa
 4311 0492 B1       		.byte	0xb1
 4312 0493 D3000000 		.4byte	0xd3
 4313 0497 02       		.byte	0x2
 4314 0498 23       		.byte	0x23
 4315 0499 1E       		.uleb128 0x1e
 4316 049a 0B       		.uleb128 0xb
 4317 049b 5A010000 		.4byte	.LASF73
 4318 049f 0A       		.byte	0xa
 4319 04a0 BF       		.byte	0xbf
 4320 04a1 D3000000 		.4byte	0xd3
 4321 04a5 02       		.byte	0x2
 4322 04a6 23       		.byte	0x23
 4323 04a7 1F       		.uleb128 0x1f
 4324 04a8 0B       		.uleb128 0xb
 4325 04a9 41060000 		.4byte	.LASF74
 4326 04ad 0A       		.byte	0xa
ARM GAS  C:\Users\jenny\AppData\Local\Temp\ccAyMdWJ.s 			page 78


 4327 04ae BF       		.byte	0xbf
 4328 04af D3000000 		.4byte	0xd3
 4329 04b3 02       		.byte	0x2
 4330 04b4 23       		.byte	0x23
 4331 04b5 20       		.uleb128 0x20
 4332 04b6 0B       		.uleb128 0xb
 4333 04b7 C6040000 		.4byte	.LASF75
 4334 04bb 0A       		.byte	0xa
 4335 04bc C0       		.byte	0xc0
 4336 04bd D3000000 		.4byte	0xd3
 4337 04c1 02       		.byte	0x2
 4338 04c2 23       		.byte	0x23
 4339 04c3 21       		.uleb128 0x21
 4340 04c4 0C       		.uleb128 0xc
 4341 04c5 746D7200 		.ascii	"tmr\000"
 4342 04c9 0A       		.byte	0xa
 4343 04ca C1       		.byte	0xc1
 4344 04cb FF000000 		.4byte	0xff
 4345 04cf 02       		.byte	0x2
 4346 04d0 23       		.byte	0x23
 4347 04d1 24       		.uleb128 0x24
 4348 04d2 0B       		.uleb128 0xb
 4349 04d3 A7060000 		.4byte	.LASF76
 4350 04d7 0A       		.byte	0xa
 4351 04d8 C4       		.byte	0xc4
 4352 04d9 FF000000 		.4byte	0xff
 4353 04dd 02       		.byte	0x2
 4354 04de 23       		.byte	0x23
 4355 04df 28       		.uleb128 0x28
 4356 04e0 0B       		.uleb128 0xb
 4357 04e1 70000000 		.4byte	.LASF77
 4358 04e5 0A       		.byte	0xa
 4359 04e6 C5       		.byte	0xc5
 4360 04e7 E9000000 		.4byte	0xe9
 4361 04eb 02       		.byte	0x2
 4362 04ec 23       		.byte	0x23
 4363 04ed 2C       		.uleb128 0x2c
 4364 04ee 0B       		.uleb128 0xb
 4365 04ef 26000000 		.4byte	.LASF78
 4366 04f3 0A       		.byte	0xa
 4367 04f4 C6       		.byte	0xc6
 4368 04f5 E9000000 		.4byte	0xe9
 4369 04f9 02       		.byte	0x2
 4370 04fa 23       		.byte	0x23
 4371 04fb 2E       		.uleb128 0x2e
 4372 04fc 0B       		.uleb128 0xb
 4373 04fd 95040000 		.4byte	.LASF79
 4374 0501 0A       		.byte	0xa
 4375 0502 C7       		.byte	0xc7
 4376 0503 FF000000 		.4byte	0xff
 4377 0507 02       		.byte	0x2
 4378 0508 23       		.byte	0x23
 4379 0509 30       		.uleb128 0x30
 4380 050a 0B       		.uleb128 0xb
 4381 050b 19070000 		.4byte	.LASF80
 4382 050f 0A       		.byte	0xa
 4383 0510 CA       		.byte	0xca
ARM GAS  C:\Users\jenny\AppData\Local\Temp\ccAyMdWJ.s 			page 79


 4384 0511 F4000000 		.4byte	0xf4
 4385 0515 02       		.byte	0x2
 4386 0516 23       		.byte	0x23
 4387 0517 34       		.uleb128 0x34
 4388 0518 0C       		.uleb128 0xc
 4389 0519 6D737300 		.ascii	"mss\000"
 4390 051d 0A       		.byte	0xa
 4391 051e CC       		.byte	0xcc
 4392 051f E9000000 		.4byte	0xe9
 4393 0523 02       		.byte	0x2
 4394 0524 23       		.byte	0x23
 4395 0525 36       		.uleb128 0x36
 4396 0526 0B       		.uleb128 0xb
 4397 0527 9B030000 		.4byte	.LASF81
 4398 052b 0A       		.byte	0xa
 4399 052c CF       		.byte	0xcf
 4400 052d FF000000 		.4byte	0xff
 4401 0531 02       		.byte	0x2
 4402 0532 23       		.byte	0x23
 4403 0533 38       		.uleb128 0x38
 4404 0534 0B       		.uleb128 0xb
 4405 0535 A8040000 		.4byte	.LASF82
 4406 0539 0A       		.byte	0xa
 4407 053a D0       		.byte	0xd0
 4408 053b FF000000 		.4byte	0xff
 4409 053f 02       		.byte	0x2
 4410 0540 23       		.byte	0x23
 4411 0541 3C       		.uleb128 0x3c
 4412 0542 0C       		.uleb128 0xc
 4413 0543 736100   		.ascii	"sa\000"
 4414 0546 0A       		.byte	0xa
 4415 0547 D1       		.byte	0xd1
 4416 0548 F4000000 		.4byte	0xf4
 4417 054c 02       		.byte	0x2
 4418 054d 23       		.byte	0x23
 4419 054e 40       		.uleb128 0x40
 4420 054f 0C       		.uleb128 0xc
 4421 0550 737600   		.ascii	"sv\000"
 4422 0553 0A       		.byte	0xa
 4423 0554 D1       		.byte	0xd1
 4424 0555 F4000000 		.4byte	0xf4
 4425 0559 02       		.byte	0x2
 4426 055a 23       		.byte	0x23
 4427 055b 42       		.uleb128 0x42
 4428 055c 0C       		.uleb128 0xc
 4429 055d 72746F00 		.ascii	"rto\000"
 4430 0561 0A       		.byte	0xa
 4431 0562 D3       		.byte	0xd3
 4432 0563 F4000000 		.4byte	0xf4
 4433 0567 02       		.byte	0x2
 4434 0568 23       		.byte	0x23
 4435 0569 44       		.uleb128 0x44
 4436 056a 0B       		.uleb128 0xb
 4437 056b A8050000 		.4byte	.LASF83
 4438 056f 0A       		.byte	0xa
 4439 0570 D4       		.byte	0xd4
 4440 0571 D3000000 		.4byte	0xd3
ARM GAS  C:\Users\jenny\AppData\Local\Temp\ccAyMdWJ.s 			page 80


 4441 0575 02       		.byte	0x2
 4442 0576 23       		.byte	0x23
 4443 0577 46       		.uleb128 0x46
 4444 0578 0B       		.uleb128 0xb
 4445 0579 570A0000 		.4byte	.LASF84
 4446 057d 0A       		.byte	0xa
 4447 057e D7       		.byte	0xd7
 4448 057f D3000000 		.4byte	0xd3
 4449 0583 02       		.byte	0x2
 4450 0584 23       		.byte	0x23
 4451 0585 47       		.uleb128 0x47
 4452 0586 0B       		.uleb128 0xb
 4453 0587 B2050000 		.4byte	.LASF85
 4454 058b 0A       		.byte	0xa
 4455 058c D8       		.byte	0xd8
 4456 058d FF000000 		.4byte	0xff
 4457 0591 02       		.byte	0x2
 4458 0592 23       		.byte	0x23
 4459 0593 48       		.uleb128 0x48
 4460 0594 0B       		.uleb128 0xb
 4461 0595 53080000 		.4byte	.LASF86
 4462 0599 0A       		.byte	0xa
 4463 059a DB       		.byte	0xdb
 4464 059b E9000000 		.4byte	0xe9
 4465 059f 02       		.byte	0x2
 4466 05a0 23       		.byte	0x23
 4467 05a1 4C       		.uleb128 0x4c
 4468 05a2 0B       		.uleb128 0xb
 4469 05a3 C4000000 		.4byte	.LASF87
 4470 05a7 0A       		.byte	0xa
 4471 05a8 DC       		.byte	0xdc
 4472 05a9 E9000000 		.4byte	0xe9
 4473 05ad 02       		.byte	0x2
 4474 05ae 23       		.byte	0x23
 4475 05af 4E       		.uleb128 0x4e
 4476 05b0 0B       		.uleb128 0xb
 4477 05b1 BA050000 		.4byte	.LASF88
 4478 05b5 0A       		.byte	0xa
 4479 05b6 DF       		.byte	0xdf
 4480 05b7 FF000000 		.4byte	0xff
 4481 05bb 02       		.byte	0x2
 4482 05bc 23       		.byte	0x23
 4483 05bd 50       		.uleb128 0x50
 4484 05be 0B       		.uleb128 0xb
 4485 05bf 400A0000 		.4byte	.LASF89
 4486 05c3 0A       		.byte	0xa
 4487 05c4 E0       		.byte	0xe0
 4488 05c5 FF000000 		.4byte	0xff
 4489 05c9 02       		.byte	0x2
 4490 05ca 23       		.byte	0x23
 4491 05cb 54       		.uleb128 0x54
 4492 05cc 0B       		.uleb128 0xb
 4493 05cd 480A0000 		.4byte	.LASF90
 4494 05d1 0A       		.byte	0xa
 4495 05d2 E0       		.byte	0xe0
 4496 05d3 FF000000 		.4byte	0xff
 4497 05d7 02       		.byte	0x2
ARM GAS  C:\Users\jenny\AppData\Local\Temp\ccAyMdWJ.s 			page 81


 4498 05d8 23       		.byte	0x23
 4499 05d9 58       		.uleb128 0x58
 4500 05da 0B       		.uleb128 0xb
 4501 05db 28040000 		.4byte	.LASF91
 4502 05df 0A       		.byte	0xa
 4503 05e0 E2       		.byte	0xe2
 4504 05e1 FF000000 		.4byte	0xff
 4505 05e5 02       		.byte	0x2
 4506 05e6 23       		.byte	0x23
 4507 05e7 5C       		.uleb128 0x5c
 4508 05e8 0B       		.uleb128 0xb
 4509 05e9 190B0000 		.4byte	.LASF92
 4510 05ed 0A       		.byte	0xa
 4511 05ee E3       		.byte	0xe3
 4512 05ef E9000000 		.4byte	0xe9
 4513 05f3 02       		.byte	0x2
 4514 05f4 23       		.byte	0x23
 4515 05f5 60       		.uleb128 0x60
 4516 05f6 0B       		.uleb128 0xb
 4517 05f7 9B060000 		.4byte	.LASF93
 4518 05fb 0A       		.byte	0xa
 4519 05fc E4       		.byte	0xe4
 4520 05fd E9000000 		.4byte	0xe9
 4521 0601 02       		.byte	0x2
 4522 0602 23       		.byte	0x23
 4523 0603 62       		.uleb128 0x62
 4524 0604 0B       		.uleb128 0xb
 4525 0605 C4090000 		.4byte	.LASF94
 4526 0609 0A       		.byte	0xa
 4527 060a E6       		.byte	0xe6
 4528 060b E9000000 		.4byte	0xe9
 4529 060f 02       		.byte	0x2
 4530 0610 23       		.byte	0x23
 4531 0611 64       		.uleb128 0x64
 4532 0612 0B       		.uleb128 0xb
 4533 0613 110B0000 		.4byte	.LASF95
 4534 0617 0A       		.byte	0xa
 4535 0618 E8       		.byte	0xe8
 4536 0619 E9000000 		.4byte	0xe9
 4537 061d 02       		.byte	0x2
 4538 061e 23       		.byte	0x23
 4539 061f 66       		.uleb128 0x66
 4540 0620 0B       		.uleb128 0xb
 4541 0621 65080000 		.4byte	.LASF96
 4542 0625 0A       		.byte	0xa
 4543 0626 EA       		.byte	0xea
 4544 0627 E9000000 		.4byte	0xe9
 4545 062b 02       		.byte	0x2
 4546 062c 23       		.byte	0x23
 4547 062d 68       		.uleb128 0x68
 4548 062e 0B       		.uleb128 0xb
 4549 062f C5080000 		.4byte	.LASF97
 4550 0633 0A       		.byte	0xa
 4551 0634 EE       		.byte	0xee
 4552 0635 E9000000 		.4byte	0xe9
 4553 0639 02       		.byte	0x2
 4554 063a 23       		.byte	0x23
ARM GAS  C:\Users\jenny\AppData\Local\Temp\ccAyMdWJ.s 			page 82


 4555 063b 6A       		.uleb128 0x6a
 4556 063c 0B       		.uleb128 0xb
 4557 063d BE080000 		.4byte	.LASF98
 4558 0641 0A       		.byte	0xa
 4559 0642 F2       		.byte	0xf2
 4560 0643 56080000 		.4byte	0x856
 4561 0647 02       		.byte	0x2
 4562 0648 23       		.byte	0x23
 4563 0649 6C       		.uleb128 0x6c
 4564 064a 0B       		.uleb128 0xb
 4565 064b FB090000 		.4byte	.LASF99
 4566 064f 0A       		.byte	0xa
 4567 0650 F3       		.byte	0xf3
 4568 0651 56080000 		.4byte	0x856
 4569 0655 02       		.byte	0x2
 4570 0656 23       		.byte	0x23
 4571 0657 70       		.uleb128 0x70
 4572 0658 0B       		.uleb128 0xb
 4573 0659 8A0B0000 		.4byte	.LASF100
 4574 065d 0A       		.byte	0xa
 4575 065e F5       		.byte	0xf5
 4576 065f 56080000 		.4byte	0x856
 4577 0663 02       		.byte	0x2
 4578 0664 23       		.byte	0x23
 4579 0665 74       		.uleb128 0x74
 4580 0666 0B       		.uleb128 0xb
 4581 0667 58080000 		.4byte	.LASF101
 4582 066b 0A       		.byte	0xa
 4583 066c F8       		.byte	0xf8
 4584 066d 2E020000 		.4byte	0x22e
 4585 0671 02       		.byte	0x2
 4586 0672 23       		.byte	0x23
 4587 0673 78       		.uleb128 0x78
 4588 0674 0B       		.uleb128 0xb
 4589 0675 ED050000 		.4byte	.LASF102
 4590 0679 0A       		.byte	0xa
 4591 067a FC       		.byte	0xfc
 4592 067b 32070000 		.4byte	0x732
 4593 067f 02       		.byte	0x2
 4594 0680 23       		.byte	0x23
 4595 0681 7C       		.uleb128 0x7c
 4596 0682 0B       		.uleb128 0xb
 4597 0683 5C070000 		.4byte	.LASF103
 4598 0687 0A       		.byte	0xa
 4599 0688 FE       		.byte	0xfe
 4600 0689 02070000 		.4byte	0x702
 4601 068d 03       		.byte	0x3
 4602 068e 23       		.byte	0x23
 4603 068f 8001     		.uleb128 0x80
 4604 0691 11       		.uleb128 0x11
 4605 0692 5E0B0000 		.4byte	.LASF104
 4606 0696 0A       		.byte	0xa
 4607 0697 0001     		.2byte	0x100
 4608 0699 A5070000 		.4byte	0x7a5
 4609 069d 03       		.byte	0x3
 4610 069e 23       		.byte	0x23
 4611 069f 8401     		.uleb128 0x84
ARM GAS  C:\Users\jenny\AppData\Local\Temp\ccAyMdWJ.s 			page 83


 4612 06a1 11       		.uleb128 0x11
 4613 06a2 F0060000 		.4byte	.LASF105
 4614 06a6 0A       		.byte	0xa
 4615 06a7 0201     		.2byte	0x102
 4616 06a9 5D070000 		.4byte	0x75d
 4617 06ad 03       		.byte	0x3
 4618 06ae 23       		.byte	0x23
 4619 06af 8801     		.uleb128 0x88
 4620 06b1 11       		.uleb128 0x11
 4621 06b2 1D0A0000 		.4byte	.LASF106
 4622 06b6 0A       		.byte	0xa
 4623 06b7 0401     		.2byte	0x104
 4624 06b9 83070000 		.4byte	0x783
 4625 06bd 03       		.byte	0x3
 4626 06be 23       		.byte	0x23
 4627 06bf 8C01     		.uleb128 0x8c
 4628 06c1 11       		.uleb128 0x11
 4629 06c2 CA090000 		.4byte	.LASF107
 4630 06c6 0A       		.byte	0xa
 4631 06c7 0D01     		.2byte	0x10d
 4632 06c9 FF000000 		.4byte	0xff
 4633 06cd 03       		.byte	0x3
 4634 06ce 23       		.byte	0x23
 4635 06cf 9001     		.uleb128 0x90
 4636 06d1 11       		.uleb128 0x11
 4637 06d2 69090000 		.4byte	.LASF108
 4638 06d6 0A       		.byte	0xa
 4639 06d7 1401     		.2byte	0x114
 4640 06d9 D3000000 		.4byte	0xd3
 4641 06dd 03       		.byte	0x3
 4642 06de 23       		.byte	0x23
 4643 06df 9401     		.uleb128 0x94
 4644 06e1 11       		.uleb128 0x11
 4645 06e2 2E080000 		.4byte	.LASF109
 4646 06e6 0A       		.byte	0xa
 4647 06e7 1601     		.2byte	0x116
 4648 06e9 D3000000 		.4byte	0xd3
 4649 06ed 03       		.byte	0x3
 4650 06ee 23       		.byte	0x23
 4651 06ef 9501     		.uleb128 0x95
 4652 06f1 11       		.uleb128 0x11
 4653 06f2 49020000 		.4byte	.LASF110
 4654 06f6 0A       		.byte	0xa
 4655 06f7 1901     		.2byte	0x119
 4656 06f9 D3000000 		.4byte	0xd3
 4657 06fd 03       		.byte	0x3
 4658 06fe 23       		.byte	0x23
 4659 06ff 9601     		.uleb128 0x96
 4660 0701 00       		.byte	0
 4661 0702 04       		.uleb128 0x4
 4662 0703 340A0000 		.4byte	.LASF111
 4663 0707 0A       		.byte	0xa
 4664 0708 48       		.byte	0x48
 4665 0709 0D070000 		.4byte	0x70d
 4666 070d 06       		.uleb128 0x6
 4667 070e 04       		.byte	0x4
 4668 070f 13070000 		.4byte	0x713
ARM GAS  C:\Users\jenny\AppData\Local\Temp\ccAyMdWJ.s 			page 84


 4669 0713 0D       		.uleb128 0xd
 4670 0714 01       		.byte	0x1
 4671 0715 B4010000 		.4byte	0x1b4
 4672 0719 32070000 		.4byte	0x732
 4673 071d 0E       		.uleb128 0xe
 4674 071e B8000000 		.4byte	0xb8
 4675 0722 0E       		.uleb128 0xe
 4676 0723 D2030000 		.4byte	0x3d2
 4677 0727 0E       		.uleb128 0xe
 4678 0728 2E020000 		.4byte	0x22e
 4679 072c 0E       		.uleb128 0xe
 4680 072d B4010000 		.4byte	0x1b4
 4681 0731 00       		.byte	0
 4682 0732 04       		.uleb128 0x4
 4683 0733 FC010000 		.4byte	.LASF112
 4684 0737 0A       		.byte	0xa
 4685 0738 56       		.byte	0x56
 4686 0739 3D070000 		.4byte	0x73d
 4687 073d 06       		.uleb128 0x6
 4688 073e 04       		.byte	0x4
 4689 073f 43070000 		.4byte	0x743
 4690 0743 0D       		.uleb128 0xd
 4691 0744 01       		.byte	0x1
 4692 0745 B4010000 		.4byte	0x1b4
 4693 0749 5D070000 		.4byte	0x75d
 4694 074d 0E       		.uleb128 0xe
 4695 074e B8000000 		.4byte	0xb8
 4696 0752 0E       		.uleb128 0xe
 4697 0753 D2030000 		.4byte	0x3d2
 4698 0757 0E       		.uleb128 0xe
 4699 0758 E9000000 		.4byte	0xe9
 4700 075c 00       		.byte	0
 4701 075d 04       		.uleb128 0x4
 4702 075e 43050000 		.4byte	.LASF113
 4703 0762 0A       		.byte	0xa
 4704 0763 62       		.byte	0x62
 4705 0764 68070000 		.4byte	0x768
 4706 0768 06       		.uleb128 0x6
 4707 0769 04       		.byte	0x4
 4708 076a 6E070000 		.4byte	0x76e
 4709 076e 0D       		.uleb128 0xd
 4710 076f 01       		.byte	0x1
 4711 0770 B4010000 		.4byte	0x1b4
 4712 0774 83070000 		.4byte	0x783
 4713 0778 0E       		.uleb128 0xe
 4714 0779 B8000000 		.4byte	0xb8
 4715 077d 0E       		.uleb128 0xe
 4716 077e D2030000 		.4byte	0x3d2
 4717 0782 00       		.byte	0
 4718 0783 04       		.uleb128 0x4
 4719 0784 290A0000 		.4byte	.LASF114
 4720 0788 0A       		.byte	0xa
 4721 0789 6E       		.byte	0x6e
 4722 078a 8E070000 		.4byte	0x78e
 4723 078e 06       		.uleb128 0x6
 4724 078f 04       		.byte	0x4
 4725 0790 94070000 		.4byte	0x794
ARM GAS  C:\Users\jenny\AppData\Local\Temp\ccAyMdWJ.s 			page 85


 4726 0794 12       		.uleb128 0x12
 4727 0795 01       		.byte	0x1
 4728 0796 A5070000 		.4byte	0x7a5
 4729 079a 0E       		.uleb128 0xe
 4730 079b B8000000 		.4byte	0xb8
 4731 079f 0E       		.uleb128 0xe
 4732 07a0 B4010000 		.4byte	0x1b4
 4733 07a4 00       		.byte	0
 4734 07a5 04       		.uleb128 0x4
 4735 07a6 1C090000 		.4byte	.LASF115
 4736 07aa 0A       		.byte	0xa
 4737 07ab 7C       		.byte	0x7c
 4738 07ac B2030000 		.4byte	0x3b2
 4739 07b0 13       		.uleb128 0x13
 4740 07b1 36010000 		.4byte	.LASF266
 4741 07b5 01       		.byte	0x1
 4742 07b6 0A       		.byte	0xa
 4743 07b7 7E       		.byte	0x7e
 4744 07b8 FF070000 		.4byte	0x7ff
 4745 07bc 09       		.uleb128 0x9
 4746 07bd 500A0000 		.4byte	.LASF116
 4747 07c1 00       		.sleb128 0
 4748 07c2 09       		.uleb128 0x9
 4749 07c3 AC000000 		.4byte	.LASF117
 4750 07c7 01       		.sleb128 1
 4751 07c8 09       		.uleb128 0x9
 4752 07c9 FD020000 		.4byte	.LASF118
 4753 07cd 02       		.sleb128 2
 4754 07ce 09       		.uleb128 0x9
 4755 07cf 1F070000 		.4byte	.LASF119
 4756 07d3 03       		.sleb128 3
 4757 07d4 09       		.uleb128 0x9
 4758 07d5 C4010000 		.4byte	.LASF120
 4759 07d9 04       		.sleb128 4
 4760 07da 09       		.uleb128 0x9
 4761 07db CF020000 		.4byte	.LASF121
 4762 07df 05       		.sleb128 5
 4763 07e0 09       		.uleb128 0x9
 4764 07e1 DA020000 		.4byte	.LASF122
 4765 07e5 06       		.sleb128 6
 4766 07e6 09       		.uleb128 0x9
 4767 07e7 78040000 		.4byte	.LASF123
 4768 07eb 07       		.sleb128 7
 4769 07ec 09       		.uleb128 0x9
 4770 07ed 090B0000 		.4byte	.LASF124
 4771 07f1 08       		.sleb128 8
 4772 07f2 09       		.uleb128 0x9
 4773 07f3 92030000 		.4byte	.LASF125
 4774 07f7 09       		.sleb128 9
 4775 07f8 09       		.uleb128 0x9
 4776 07f9 27010000 		.4byte	.LASF126
 4777 07fd 0A       		.sleb128 10
 4778 07fe 00       		.byte	0
 4779 07ff 14       		.uleb128 0x14
 4780 0800 560B0000 		.4byte	.LASF127
 4781 0804 10       		.byte	0x10
 4782 0805 0B       		.byte	0xb
ARM GAS  C:\Users\jenny\AppData\Local\Temp\ccAyMdWJ.s 			page 86


 4783 0806 1501     		.2byte	0x115
 4784 0808 56080000 		.4byte	0x856
 4785 080c 11       		.uleb128 0x11
 4786 080d 450B0000 		.4byte	.LASF46
 4787 0811 0B       		.byte	0xb
 4788 0812 1601     		.2byte	0x116
 4789 0814 56080000 		.4byte	0x856
 4790 0818 02       		.byte	0x2
 4791 0819 23       		.byte	0x23
 4792 081a 00       		.uleb128 0
 4793 081b 15       		.uleb128 0x15
 4794 081c 7000     		.ascii	"p\000"
 4795 081e 0B       		.byte	0xb
 4796 081f 1701     		.2byte	0x117
 4797 0821 2E020000 		.4byte	0x22e
 4798 0825 02       		.byte	0x2
 4799 0826 23       		.byte	0x23
 4800 0827 04       		.uleb128 0x4
 4801 0828 15       		.uleb128 0x15
 4802 0829 6C656E00 		.ascii	"len\000"
 4803 082d 0B       		.byte	0xb
 4804 082e 1801     		.2byte	0x118
 4805 0830 E9000000 		.4byte	0xe9
 4806 0834 02       		.byte	0x2
 4807 0835 23       		.byte	0x23
 4808 0836 08       		.uleb128 0x8
 4809 0837 11       		.uleb128 0x11
 4810 0838 67030000 		.4byte	.LASF50
 4811 083c 0B       		.byte	0xb
 4812 083d 2201     		.2byte	0x122
 4813 083f D3000000 		.4byte	0xd3
 4814 0843 02       		.byte	0x2
 4815 0844 23       		.byte	0x23
 4816 0845 0A       		.uleb128 0xa
 4817 0846 11       		.uleb128 0x11
 4818 0847 2B030000 		.4byte	.LASF128
 4819 084b 0B       		.byte	0xb
 4820 084c 2701     		.2byte	0x127
 4821 084e 92090000 		.4byte	0x992
 4822 0852 02       		.byte	0x2
 4823 0853 23       		.byte	0x23
 4824 0854 0C       		.uleb128 0xc
 4825 0855 00       		.byte	0
 4826 0856 06       		.uleb128 0x6
 4827 0857 04       		.byte	0x4
 4828 0858 FF070000 		.4byte	0x7ff
 4829 085c 14       		.uleb128 0x14
 4830 085d 81020000 		.4byte	.LASF129
 4831 0861 1C       		.byte	0x1c
 4832 0862 0A       		.byte	0xa
 4833 0863 1C01     		.2byte	0x11c
 4834 0865 0F090000 		.4byte	0x90f
 4835 0869 11       		.uleb128 0x11
 4836 086a 57020000 		.4byte	.LASF65
 4837 086e 0A       		.byte	0xa
 4838 086f 1E01     		.2byte	0x11e
 4839 0871 A9010000 		.4byte	0x1a9
ARM GAS  C:\Users\jenny\AppData\Local\Temp\ccAyMdWJ.s 			page 87


 4840 0875 02       		.byte	0x2
 4841 0876 23       		.byte	0x23
 4842 0877 00       		.uleb128 0
 4843 0878 11       		.uleb128 0x11
 4844 0879 12090000 		.4byte	.LASF66
 4845 087d 0A       		.byte	0xa
 4846 087e 1E01     		.2byte	0x11e
 4847 0880 A9010000 		.4byte	0x1a9
 4848 0884 02       		.byte	0x2
 4849 0885 23       		.byte	0x23
 4850 0886 04       		.uleb128 0x4
 4851 0887 11       		.uleb128 0x11
 4852 0888 78000000 		.4byte	.LASF67
 4853 088c 0A       		.byte	0xa
 4854 088d 1E01     		.2byte	0x11e
 4855 088f D3000000 		.4byte	0xd3
 4856 0893 02       		.byte	0x2
 4857 0894 23       		.byte	0x23
 4858 0895 08       		.uleb128 0x8
 4859 0896 15       		.uleb128 0x15
 4860 0897 746F7300 		.ascii	"tos\000"
 4861 089b 0A       		.byte	0xa
 4862 089c 1E01     		.2byte	0x11e
 4863 089e D3000000 		.4byte	0xd3
 4864 08a2 02       		.byte	0x2
 4865 08a3 23       		.byte	0x23
 4866 08a4 09       		.uleb128 0x9
 4867 08a5 15       		.uleb128 0x15
 4868 08a6 74746C00 		.ascii	"ttl\000"
 4869 08aa 0A       		.byte	0xa
 4870 08ab 1E01     		.2byte	0x11e
 4871 08ad D3000000 		.4byte	0xd3
 4872 08b1 02       		.byte	0x2
 4873 08b2 23       		.byte	0x23
 4874 08b3 0A       		.uleb128 0xa
 4875 08b4 11       		.uleb128 0x11
 4876 08b5 450B0000 		.4byte	.LASF46
 4877 08b9 0A       		.byte	0xa
 4878 08ba 2001     		.2byte	0x120
 4879 08bc 0F090000 		.4byte	0x90f
 4880 08c0 02       		.byte	0x2
 4881 08c1 23       		.byte	0x23
 4882 08c2 0C       		.uleb128 0xc
 4883 08c3 11       		.uleb128 0x11
 4884 08c4 100A0000 		.4byte	.LASF68
 4885 08c8 0A       		.byte	0xa
 4886 08c9 2001     		.2byte	0x120
 4887 08cb B8000000 		.4byte	0xb8
 4888 08cf 02       		.byte	0x2
 4889 08d0 23       		.byte	0x23
 4890 08d1 10       		.uleb128 0x10
 4891 08d2 11       		.uleb128 0x11
 4892 08d3 220A0000 		.4byte	.LASF69
 4893 08d7 0A       		.byte	0xa
 4894 08d8 2001     		.2byte	0x120
 4895 08da A7030000 		.4byte	0x3a7
 4896 08de 02       		.byte	0x2
ARM GAS  C:\Users\jenny\AppData\Local\Temp\ccAyMdWJ.s 			page 88


 4897 08df 23       		.byte	0x23
 4898 08e0 14       		.uleb128 0x14
 4899 08e1 11       		.uleb128 0x11
 4900 08e2 B3000000 		.4byte	.LASF56
 4901 08e6 0A       		.byte	0xa
 4902 08e7 2001     		.2byte	0x120
 4903 08e9 B0070000 		.4byte	0x7b0
 4904 08ed 02       		.byte	0x2
 4905 08ee 23       		.byte	0x23
 4906 08ef 18       		.uleb128 0x18
 4907 08f0 11       		.uleb128 0x11
 4908 08f1 40010000 		.4byte	.LASF70
 4909 08f5 0A       		.byte	0xa
 4910 08f6 2001     		.2byte	0x120
 4911 08f8 D3000000 		.4byte	0xd3
 4912 08fc 02       		.byte	0x2
 4913 08fd 23       		.byte	0x23
 4914 08fe 19       		.uleb128 0x19
 4915 08ff 11       		.uleb128 0x11
 4916 0900 5C030000 		.4byte	.LASF71
 4917 0904 0A       		.byte	0xa
 4918 0905 2001     		.2byte	0x120
 4919 0907 E9000000 		.4byte	0xe9
 4920 090b 02       		.byte	0x2
 4921 090c 23       		.byte	0x23
 4922 090d 1A       		.uleb128 0x1a
 4923 090e 00       		.byte	0
 4924 090f 06       		.uleb128 0x6
 4925 0910 04       		.byte	0x4
 4926 0911 5C080000 		.4byte	0x85c
 4927 0915 0A       		.uleb128 0xa
 4928 0916 A8080000 		.4byte	.LASF130
 4929 091a 14       		.byte	0x14
 4930 091b 0B       		.byte	0xb
 4931 091c 9F       		.byte	0x9f
 4932 091d 92090000 		.4byte	0x992
 4933 0921 0C       		.uleb128 0xc
 4934 0922 73726300 		.ascii	"src\000"
 4935 0926 0B       		.byte	0xb
 4936 0927 A0       		.byte	0xa0
 4937 0928 E9000000 		.4byte	0xe9
 4938 092c 02       		.byte	0x2
 4939 092d 23       		.byte	0x23
 4940 092e 00       		.uleb128 0
 4941 092f 0B       		.uleb128 0xb
 4942 0930 ED080000 		.4byte	.LASF131
 4943 0934 0B       		.byte	0xb
 4944 0935 A1       		.byte	0xa1
 4945 0936 E9000000 		.4byte	0xe9
 4946 093a 02       		.byte	0x2
 4947 093b 23       		.byte	0x23
 4948 093c 02       		.uleb128 0x2
 4949 093d 0B       		.uleb128 0xb
 4950 093e 35060000 		.4byte	.LASF132
 4951 0942 0B       		.byte	0xb
 4952 0943 A2       		.byte	0xa2
 4953 0944 FF000000 		.4byte	0xff
ARM GAS  C:\Users\jenny\AppData\Local\Temp\ccAyMdWJ.s 			page 89


 4954 0948 02       		.byte	0x2
 4955 0949 23       		.byte	0x23
 4956 094a 04       		.uleb128 0x4
 4957 094b 0B       		.uleb128 0xb
 4958 094c 33090000 		.4byte	.LASF133
 4959 0950 0B       		.byte	0xb
 4960 0951 A3       		.byte	0xa3
 4961 0952 FF000000 		.4byte	0xff
 4962 0956 02       		.byte	0x2
 4963 0957 23       		.byte	0x23
 4964 0958 08       		.uleb128 0x8
 4965 0959 0B       		.uleb128 0xb
 4966 095a 94090000 		.4byte	.LASF134
 4967 095e 0B       		.byte	0xb
 4968 095f A4       		.byte	0xa4
 4969 0960 E9000000 		.4byte	0xe9
 4970 0964 02       		.byte	0x2
 4971 0965 23       		.byte	0x23
 4972 0966 0C       		.uleb128 0xc
 4973 0967 0C       		.uleb128 0xc
 4974 0968 776E6400 		.ascii	"wnd\000"
 4975 096c 0B       		.byte	0xb
 4976 096d A5       		.byte	0xa5
 4977 096e E9000000 		.4byte	0xe9
 4978 0972 02       		.byte	0x2
 4979 0973 23       		.byte	0x23
 4980 0974 0E       		.uleb128 0xe
 4981 0975 0B       		.uleb128 0xb
 4982 0976 87070000 		.4byte	.LASF135
 4983 097a 0B       		.byte	0xb
 4984 097b A6       		.byte	0xa6
 4985 097c E9000000 		.4byte	0xe9
 4986 0980 02       		.byte	0x2
 4987 0981 23       		.byte	0x23
 4988 0982 10       		.uleb128 0x10
 4989 0983 0B       		.uleb128 0xb
 4990 0984 8E0A0000 		.4byte	.LASF136
 4991 0988 0B       		.byte	0xb
 4992 0989 A7       		.byte	0xa7
 4993 098a E9000000 		.4byte	0xe9
 4994 098e 02       		.byte	0x2
 4995 098f 23       		.byte	0x23
 4996 0990 12       		.uleb128 0x12
 4997 0991 00       		.byte	0
 4998 0992 06       		.uleb128 0x6
 4999 0993 04       		.byte	0x4
 5000 0994 15090000 		.4byte	0x915
 5001 0998 16       		.uleb128 0x16
 5002 0999 68010000 		.4byte	.LASF267
 5003 099d 04       		.byte	0x4
 5004 099e 0B       		.byte	0xb
 5005 099f 3701     		.2byte	0x137
 5006 09a1 BE090000 		.4byte	0x9be
 5007 09a5 17       		.uleb128 0x17
 5008 09a6 62050000 		.4byte	.LASF137
 5009 09aa 0B       		.byte	0xb
 5010 09ab 3801     		.2byte	0x138
ARM GAS  C:\Users\jenny\AppData\Local\Temp\ccAyMdWJ.s 			page 90


 5011 09ad 0F090000 		.4byte	0x90f
 5012 09b1 17       		.uleb128 0x17
 5013 09b2 22060000 		.4byte	.LASF138
 5014 09b6 0B       		.byte	0xb
 5015 09b7 3901     		.2byte	0x139
 5016 09b9 D2030000 		.4byte	0x3d2
 5017 09bd 00       		.byte	0
 5018 09be 0A       		.uleb128 0xa
 5019 09bf 5C060000 		.4byte	.LASF139
 5020 09c3 18       		.byte	0x18
 5021 09c4 0C       		.byte	0xc
 5022 09c5 3A       		.byte	0x3a
 5023 09c6 720A0000 		.4byte	0xa72
 5024 09ca 0B       		.uleb128 0xb
 5025 09cb AD050000 		.4byte	.LASF140
 5026 09cf 0C       		.byte	0xc
 5027 09d0 3B       		.byte	0x3b
 5028 09d1 E9000000 		.4byte	0xe9
 5029 09d5 02       		.byte	0x2
 5030 09d6 23       		.byte	0x23
 5031 09d7 00       		.uleb128 0
 5032 09d8 0B       		.uleb128 0xb
 5033 09d9 5C070000 		.4byte	.LASF103
 5034 09dd 0C       		.byte	0xc
 5035 09de 3C       		.byte	0x3c
 5036 09df E9000000 		.4byte	0xe9
 5037 09e3 02       		.byte	0x2
 5038 09e4 23       		.byte	0x23
 5039 09e5 02       		.uleb128 0x2
 5040 09e6 0C       		.uleb128 0xc
 5041 09e7 667700   		.ascii	"fw\000"
 5042 09ea 0C       		.byte	0xc
 5043 09eb 3D       		.byte	0x3d
 5044 09ec E9000000 		.4byte	0xe9
 5045 09f0 02       		.byte	0x2
 5046 09f1 23       		.byte	0x23
 5047 09f2 04       		.uleb128 0x4
 5048 09f3 0B       		.uleb128 0xb
 5049 09f4 BC020000 		.4byte	.LASF141
 5050 09f8 0C       		.byte	0xc
 5051 09f9 3E       		.byte	0x3e
 5052 09fa E9000000 		.4byte	0xe9
 5053 09fe 02       		.byte	0x2
 5054 09ff 23       		.byte	0x23
 5055 0a00 06       		.uleb128 0x6
 5056 0a01 0B       		.uleb128 0xb
 5057 0a02 B7080000 		.4byte	.LASF142
 5058 0a06 0C       		.byte	0xc
 5059 0a07 3F       		.byte	0x3f
 5060 0a08 E9000000 		.4byte	0xe9
 5061 0a0c 02       		.byte	0x2
 5062 0a0d 23       		.byte	0x23
 5063 0a0e 08       		.uleb128 0x8
 5064 0a0f 0B       		.uleb128 0xb
 5065 0a10 7A020000 		.4byte	.LASF143
 5066 0a14 0C       		.byte	0xc
 5067 0a15 40       		.byte	0x40
ARM GAS  C:\Users\jenny\AppData\Local\Temp\ccAyMdWJ.s 			page 91


 5068 0a16 E9000000 		.4byte	0xe9
 5069 0a1a 02       		.byte	0x2
 5070 0a1b 23       		.byte	0x23
 5071 0a1c 0A       		.uleb128 0xa
 5072 0a1d 0B       		.uleb128 0xb
 5073 0a1e 39040000 		.4byte	.LASF144
 5074 0a22 0C       		.byte	0xc
 5075 0a23 41       		.byte	0x41
 5076 0a24 E9000000 		.4byte	0xe9
 5077 0a28 02       		.byte	0x2
 5078 0a29 23       		.byte	0x23
 5079 0a2a 0C       		.uleb128 0xc
 5080 0a2b 0B       		.uleb128 0xb
 5081 0a2c 3F0B0000 		.4byte	.LASF145
 5082 0a30 0C       		.byte	0xc
 5083 0a31 42       		.byte	0x42
 5084 0a32 E9000000 		.4byte	0xe9
 5085 0a36 02       		.byte	0x2
 5086 0a37 23       		.byte	0x23
 5087 0a38 0E       		.uleb128 0xe
 5088 0a39 0B       		.uleb128 0xb
 5089 0a3a 07000000 		.4byte	.LASF146
 5090 0a3e 0C       		.byte	0xc
 5091 0a3f 43       		.byte	0x43
 5092 0a40 E9000000 		.4byte	0xe9
 5093 0a44 02       		.byte	0x2
 5094 0a45 23       		.byte	0x23
 5095 0a46 10       		.uleb128 0x10
 5096 0a47 0B       		.uleb128 0xb
 5097 0a48 9B080000 		.4byte	.LASF147
 5098 0a4c 0C       		.byte	0xc
 5099 0a4d 44       		.byte	0x44
 5100 0a4e E9000000 		.4byte	0xe9
 5101 0a52 02       		.byte	0x2
 5102 0a53 23       		.byte	0x23
 5103 0a54 12       		.uleb128 0x12
 5104 0a55 0C       		.uleb128 0xc
 5105 0a56 65727200 		.ascii	"err\000"
 5106 0a5a 0C       		.byte	0xc
 5107 0a5b 45       		.byte	0x45
 5108 0a5c E9000000 		.4byte	0xe9
 5109 0a60 02       		.byte	0x2
 5110 0a61 23       		.byte	0x23
 5111 0a62 14       		.uleb128 0x14
 5112 0a63 0B       		.uleb128 0xb
 5113 0a64 30040000 		.4byte	.LASF148
 5114 0a68 0C       		.byte	0xc
 5115 0a69 46       		.byte	0x46
 5116 0a6a E9000000 		.4byte	0xe9
 5117 0a6e 02       		.byte	0x2
 5118 0a6f 23       		.byte	0x23
 5119 0a70 16       		.uleb128 0x16
 5120 0a71 00       		.byte	0
 5121 0a72 0A       		.uleb128 0xa
 5122 0a73 8A090000 		.4byte	.LASF149
 5123 0a77 0A       		.byte	0xa
 5124 0a78 0C       		.byte	0xc
ARM GAS  C:\Users\jenny\AppData\Local\Temp\ccAyMdWJ.s 			page 92


 5125 0a79 5A       		.byte	0x5a
 5126 0a7a C50A0000 		.4byte	0xac5
 5127 0a7e 0B       		.uleb128 0xb
 5128 0a7f F6010000 		.4byte	.LASF150
 5129 0a83 0C       		.byte	0xc
 5130 0a84 5E       		.byte	0x5e
 5131 0a85 15010000 		.4byte	0x115
 5132 0a89 02       		.byte	0x2
 5133 0a8a 23       		.byte	0x23
 5134 0a8b 00       		.uleb128 0
 5135 0a8c 0B       		.uleb128 0xb
 5136 0a8d 32000000 		.4byte	.LASF151
 5137 0a91 0C       		.byte	0xc
 5138 0a92 5F       		.byte	0x5f
 5139 0a93 15010000 		.4byte	0x115
 5140 0a97 02       		.byte	0x2
 5141 0a98 23       		.byte	0x23
 5142 0a99 02       		.uleb128 0x2
 5143 0a9a 0C       		.uleb128 0xc
 5144 0a9b 6D617800 		.ascii	"max\000"
 5145 0a9f 0C       		.byte	0xc
 5146 0aa0 60       		.byte	0x60
 5147 0aa1 15010000 		.4byte	0x115
 5148 0aa5 02       		.byte	0x2
 5149 0aa6 23       		.byte	0x23
 5150 0aa7 04       		.uleb128 0x4
 5151 0aa8 0C       		.uleb128 0xc
 5152 0aa9 65727200 		.ascii	"err\000"
 5153 0aad 0C       		.byte	0xc
 5154 0aae 61       		.byte	0x61
 5155 0aaf E9000000 		.4byte	0xe9
 5156 0ab3 02       		.byte	0x2
 5157 0ab4 23       		.byte	0x23
 5158 0ab5 06       		.uleb128 0x6
 5159 0ab6 0B       		.uleb128 0xb
 5160 0ab7 81080000 		.4byte	.LASF152
 5161 0abb 0C       		.byte	0xc
 5162 0abc 62       		.byte	0x62
 5163 0abd E9000000 		.4byte	0xe9
 5164 0ac1 02       		.byte	0x2
 5165 0ac2 23       		.byte	0x23
 5166 0ac3 08       		.uleb128 0x8
 5167 0ac4 00       		.byte	0
 5168 0ac5 0A       		.uleb128 0xa
 5169 0ac6 4E060000 		.4byte	.LASF153
 5170 0aca 06       		.byte	0x6
 5171 0acb 0C       		.byte	0xc
 5172 0acc 65       		.byte	0x65
 5173 0acd FC0A0000 		.4byte	0xafc
 5174 0ad1 0B       		.uleb128 0xb
 5175 0ad2 32000000 		.4byte	.LASF151
 5176 0ad6 0C       		.byte	0xc
 5177 0ad7 66       		.byte	0x66
 5178 0ad8 E9000000 		.4byte	0xe9
 5179 0adc 02       		.byte	0x2
 5180 0add 23       		.byte	0x23
 5181 0ade 00       		.uleb128 0
ARM GAS  C:\Users\jenny\AppData\Local\Temp\ccAyMdWJ.s 			page 93


 5182 0adf 0C       		.uleb128 0xc
 5183 0ae0 6D617800 		.ascii	"max\000"
 5184 0ae4 0C       		.byte	0xc
 5185 0ae5 67       		.byte	0x67
 5186 0ae6 E9000000 		.4byte	0xe9
 5187 0aea 02       		.byte	0x2
 5188 0aeb 23       		.byte	0x23
 5189 0aec 02       		.uleb128 0x2
 5190 0aed 0C       		.uleb128 0xc
 5191 0aee 65727200 		.ascii	"err\000"
 5192 0af2 0C       		.byte	0xc
 5193 0af3 68       		.byte	0x68
 5194 0af4 E9000000 		.4byte	0xe9
 5195 0af8 02       		.byte	0x2
 5196 0af9 23       		.byte	0x23
 5197 0afa 04       		.uleb128 0x4
 5198 0afb 00       		.byte	0
 5199 0afc 0A       		.uleb128 0xa
 5200 0afd A2070000 		.4byte	.LASF154
 5201 0b01 12       		.byte	0x12
 5202 0b02 0C       		.byte	0xc
 5203 0b03 6B       		.byte	0x6b
 5204 0b04 330B0000 		.4byte	0xb33
 5205 0b08 0C       		.uleb128 0xc
 5206 0b09 73656D00 		.ascii	"sem\000"
 5207 0b0d 0C       		.byte	0xc
 5208 0b0e 6C       		.byte	0x6c
 5209 0b0f C50A0000 		.4byte	0xac5
 5210 0b13 02       		.byte	0x2
 5211 0b14 23       		.byte	0x23
 5212 0b15 00       		.uleb128 0
 5213 0b16 0B       		.uleb128 0xb
 5214 0b17 3B060000 		.4byte	.LASF155
 5215 0b1b 0C       		.byte	0xc
 5216 0b1c 6D       		.byte	0x6d
 5217 0b1d C50A0000 		.4byte	0xac5
 5218 0b21 02       		.byte	0x2
 5219 0b22 23       		.byte	0x23
 5220 0b23 06       		.uleb128 0x6
 5221 0b24 0B       		.uleb128 0xb
 5222 0b25 CF070000 		.4byte	.LASF156
 5223 0b29 0C       		.byte	0xc
 5224 0b2a 6E       		.byte	0x6e
 5225 0b2b C50A0000 		.4byte	0xac5
 5226 0b2f 02       		.byte	0x2
 5227 0b30 23       		.byte	0x23
 5228 0b31 0C       		.uleb128 0xc
 5229 0b32 00       		.byte	0
 5230 0b33 18       		.uleb128 0x18
 5231 0b34 46040000 		.4byte	.LASF157
 5232 0b38 5001     		.2byte	0x150
 5233 0b3a 0C       		.byte	0xc
 5234 0b3b 71       		.byte	0x71
 5235 0b3c D00B0000 		.4byte	0xbd0
 5236 0b40 0B       		.uleb128 0xb
 5237 0b41 3E050000 		.4byte	.LASF158
 5238 0b45 0C       		.byte	0xc
ARM GAS  C:\Users\jenny\AppData\Local\Temp\ccAyMdWJ.s 			page 94


 5239 0b46 73       		.byte	0x73
 5240 0b47 BE090000 		.4byte	0x9be
 5241 0b4b 02       		.byte	0x2
 5242 0b4c 23       		.byte	0x23
 5243 0b4d 00       		.uleb128 0
 5244 0b4e 0B       		.uleb128 0xb
 5245 0b4f 45010000 		.4byte	.LASF159
 5246 0b53 0C       		.byte	0xc
 5247 0b54 76       		.byte	0x76
 5248 0b55 BE090000 		.4byte	0x9be
 5249 0b59 02       		.byte	0x2
 5250 0b5a 23       		.byte	0x23
 5251 0b5b 18       		.uleb128 0x18
 5252 0b5c 0B       		.uleb128 0xb
 5253 0b5d 83060000 		.4byte	.LASF160
 5254 0b61 0C       		.byte	0xc
 5255 0b62 79       		.byte	0x79
 5256 0b63 BE090000 		.4byte	0x9be
 5257 0b67 02       		.byte	0x2
 5258 0b68 23       		.byte	0x23
 5259 0b69 30       		.uleb128 0x30
 5260 0b6a 0C       		.uleb128 0xc
 5261 0b6b 697000   		.ascii	"ip\000"
 5262 0b6e 0C       		.byte	0xc
 5263 0b6f 7C       		.byte	0x7c
 5264 0b70 BE090000 		.4byte	0x9be
 5265 0b74 02       		.byte	0x2
 5266 0b75 23       		.byte	0x23
 5267 0b76 48       		.uleb128 0x48
 5268 0b77 0B       		.uleb128 0xb
 5269 0b78 D4070000 		.4byte	.LASF161
 5270 0b7c 0C       		.byte	0xc
 5271 0b7d 7F       		.byte	0x7f
 5272 0b7e BE090000 		.4byte	0x9be
 5273 0b82 02       		.byte	0x2
 5274 0b83 23       		.byte	0x23
 5275 0b84 60       		.uleb128 0x60
 5276 0b85 0C       		.uleb128 0xc
 5277 0b86 75647000 		.ascii	"udp\000"
 5278 0b8a 0C       		.byte	0xc
 5279 0b8b 85       		.byte	0x85
 5280 0b8c BE090000 		.4byte	0x9be
 5281 0b90 02       		.byte	0x2
 5282 0b91 23       		.byte	0x23
 5283 0b92 78       		.uleb128 0x78
 5284 0b93 0C       		.uleb128 0xc
 5285 0b94 74637000 		.ascii	"tcp\000"
 5286 0b98 0C       		.byte	0xc
 5287 0b99 88       		.byte	0x88
 5288 0b9a BE090000 		.4byte	0x9be
 5289 0b9e 03       		.byte	0x3
 5290 0b9f 23       		.byte	0x23
 5291 0ba0 9001     		.uleb128 0x90
 5292 0ba2 0C       		.uleb128 0xc
 5293 0ba3 6D656D00 		.ascii	"mem\000"
 5294 0ba7 0C       		.byte	0xc
 5295 0ba8 8B       		.byte	0x8b
ARM GAS  C:\Users\jenny\AppData\Local\Temp\ccAyMdWJ.s 			page 95


 5296 0ba9 720A0000 		.4byte	0xa72
 5297 0bad 03       		.byte	0x3
 5298 0bae 23       		.byte	0x23
 5299 0baf A801     		.uleb128 0xa8
 5300 0bb1 0B       		.uleb128 0xb
 5301 0bb2 31010000 		.4byte	.LASF162
 5302 0bb6 0C       		.byte	0xc
 5303 0bb7 8E       		.byte	0x8e
 5304 0bb8 D00B0000 		.4byte	0xbd0
 5305 0bbc 03       		.byte	0x3
 5306 0bbd 23       		.byte	0x23
 5307 0bbe B201     		.uleb128 0xb2
 5308 0bc0 0C       		.uleb128 0xc
 5309 0bc1 73797300 		.ascii	"sys\000"
 5310 0bc5 0C       		.byte	0xc
 5311 0bc6 91       		.byte	0x91
 5312 0bc7 FC0A0000 		.4byte	0xafc
 5313 0bcb 03       		.byte	0x3
 5314 0bcc 23       		.byte	0x23
 5315 0bcd BE02     		.uleb128 0x13e
 5316 0bcf 00       		.byte	0
 5317 0bd0 0F       		.uleb128 0xf
 5318 0bd1 720A0000 		.4byte	0xa72
 5319 0bd5 E00B0000 		.4byte	0xbe0
 5320 0bd9 10       		.uleb128 0x10
 5321 0bda BA000000 		.4byte	0xba
 5322 0bde 0D       		.byte	0xd
 5323 0bdf 00       		.byte	0
 5324 0be0 19       		.uleb128 0x19
 5325 0be1 01       		.byte	0x1
 5326 0be2 E5020000 		.4byte	.LASF250
 5327 0be6 01       		.byte	0x1
 5328 0be7 BE05     		.2byte	0x5be
 5329 0be9 01       		.byte	0x1
 5330 0bea 01       		.byte	0x1
 5331 0beb FC0B0000 		.4byte	0xbfc
 5332 0bef 1A       		.uleb128 0x1a
 5333 0bf0 70636200 		.ascii	"pcb\000"
 5334 0bf4 01       		.byte	0x1
 5335 0bf5 BE05     		.2byte	0x5be
 5336 0bf7 D2030000 		.4byte	0x3d2
 5337 0bfb 00       		.byte	0
 5338 0bfc 1B       		.uleb128 0x1b
 5339 0bfd 01       		.byte	0x1
 5340 0bfe 73070000 		.4byte	.LASF163
 5341 0c02 01       		.byte	0x1
 5342 0c03 AD04     		.2byte	0x4ad
 5343 0c05 01       		.byte	0x1
 5344 0c06 B4010000 		.4byte	0x1b4
 5345 0c0a 01       		.byte	0x1
 5346 0c0b 3E0C0000 		.4byte	0xc3e
 5347 0c0f 1A       		.uleb128 0x1a
 5348 0c10 61726700 		.ascii	"arg\000"
 5349 0c14 01       		.byte	0x1
 5350 0c15 AD04     		.2byte	0x4ad
 5351 0c17 B8000000 		.4byte	0xb8
 5352 0c1b 1A       		.uleb128 0x1a
ARM GAS  C:\Users\jenny\AppData\Local\Temp\ccAyMdWJ.s 			page 96


 5353 0c1c 70636200 		.ascii	"pcb\000"
 5354 0c20 01       		.byte	0x1
 5355 0c21 AD04     		.2byte	0x4ad
 5356 0c23 D2030000 		.4byte	0x3d2
 5357 0c27 1A       		.uleb128 0x1a
 5358 0c28 7000     		.ascii	"p\000"
 5359 0c2a 01       		.byte	0x1
 5360 0c2b AD04     		.2byte	0x4ad
 5361 0c2d 2E020000 		.4byte	0x22e
 5362 0c31 1A       		.uleb128 0x1a
 5363 0c32 65727200 		.ascii	"err\000"
 5364 0c36 01       		.byte	0x1
 5365 0c37 AD04     		.2byte	0x4ad
 5366 0c39 B4010000 		.4byte	0x1b4
 5367 0c3d 00       		.byte	0
 5368 0c3e 1B       		.uleb128 0x1b
 5369 0c3f 01       		.byte	0x1
 5370 0c40 E0010000 		.4byte	.LASF164
 5371 0c44 01       		.byte	0x1
 5372 0c45 2306     		.2byte	0x623
 5373 0c47 01       		.byte	0x1
 5374 0c48 FF000000 		.4byte	0xff
 5375 0c4c 01       		.byte	0x1
 5376 0c4d 5E0C0000 		.4byte	0xc5e
 5377 0c51 1C       		.uleb128 0x1c
 5378 0c52 69737300 		.ascii	"iss\000"
 5379 0c56 01       		.byte	0x1
 5380 0c57 2506     		.2byte	0x625
 5381 0c59 FF000000 		.4byte	0xff
 5382 0c5d 00       		.byte	0
 5383 0c5e 1D       		.uleb128 0x1d
 5384 0c5f 60000000 		.4byte	.LASF165
 5385 0c63 01       		.byte	0x1
 5386 0c64 EE01     		.2byte	0x1ee
 5387 0c66 01       		.byte	0x1
 5388 0c67 B4010000 		.4byte	0x1b4
 5389 0c6b 00000000 		.4byte	.LFB15
 5390 0c6f 06000000 		.4byte	.LFE15
 5391 0c73 02       		.byte	0x2
 5392 0c74 7D       		.byte	0x7d
 5393 0c75 00       		.sleb128 0
 5394 0c76 01       		.byte	0x1
 5395 0c77 A80C0000 		.4byte	0xca8
 5396 0c7b 1E       		.uleb128 0x1e
 5397 0c7c 61726700 		.ascii	"arg\000"
 5398 0c80 01       		.byte	0x1
 5399 0c81 EE01     		.2byte	0x1ee
 5400 0c83 B8000000 		.4byte	0xb8
 5401 0c87 00000000 		.4byte	.LLST0
 5402 0c8b 1F       		.uleb128 0x1f
 5403 0c8c 70636200 		.ascii	"pcb\000"
 5404 0c90 01       		.byte	0x1
 5405 0c91 EE01     		.2byte	0x1ee
 5406 0c93 D2030000 		.4byte	0x3d2
 5407 0c97 01       		.byte	0x1
 5408 0c98 51       		.byte	0x51
 5409 0c99 1F       		.uleb128 0x1f
ARM GAS  C:\Users\jenny\AppData\Local\Temp\ccAyMdWJ.s 			page 97


 5410 0c9a 65727200 		.ascii	"err\000"
 5411 0c9e 01       		.byte	0x1
 5412 0c9f EE01     		.2byte	0x1ee
 5413 0ca1 B4010000 		.4byte	0x1b4
 5414 0ca5 01       		.byte	0x1
 5415 0ca6 52       		.byte	0x52
 5416 0ca7 00       		.byte	0
 5417 0ca8 20       		.uleb128 0x20
 5418 0ca9 12030000 		.4byte	.LASF166
 5419 0cad 01       		.byte	0x1
 5420 0cae 8702     		.2byte	0x287
 5421 0cb0 01       		.byte	0x1
 5422 0cb1 E9000000 		.4byte	0xe9
 5423 0cb5 00000000 		.4byte	.LFB19
 5424 0cb9 58000000 		.4byte	.LFE19
 5425 0cbd 21000000 		.4byte	.LLST1
 5426 0cc1 01       		.byte	0x1
 5427 0cc2 FF0C0000 		.4byte	0xcff
 5428 0cc6 21       		.uleb128 0x21
 5429 0cc7 6900     		.ascii	"i\000"
 5430 0cc9 01       		.byte	0x1
 5431 0cca 8902     		.2byte	0x289
 5432 0ccc D3000000 		.4byte	0xd3
 5433 0cd0 41000000 		.4byte	.LLST2
 5434 0cd4 21       		.uleb128 0x21
 5435 0cd5 6E00     		.ascii	"n\000"
 5436 0cd7 01       		.byte	0x1
 5437 0cd8 8A02     		.2byte	0x28a
 5438 0cda E9000000 		.4byte	0xe9
 5439 0cde 55000000 		.4byte	.LLST3
 5440 0ce2 21       		.uleb128 0x21
 5441 0ce3 70636200 		.ascii	"pcb\000"
 5442 0ce7 01       		.byte	0x1
 5443 0ce8 8B02     		.2byte	0x28b
 5444 0cea D2030000 		.4byte	0x3d2
 5445 0cee 69000000 		.4byte	.LLST4
 5446 0cf2 22       		.uleb128 0x22
 5447 0cf3 28070000 		.4byte	.LASF222
 5448 0cf7 01       		.byte	0x1
 5449 0cf8 8D02     		.2byte	0x28d
 5450 0cfa 10000000 		.4byte	.L3
 5451 0cfe 00       		.byte	0
 5452 0cff 23       		.uleb128 0x23
 5453 0d00 01       		.byte	0x1
 5454 0d01 9E010000 		.4byte	.LASF268
 5455 0d05 01       		.byte	0x1
 5456 0d06 82       		.byte	0x82
 5457 0d07 01       		.byte	0x1
 5458 0d08 00000000 		.4byte	.LFB7
 5459 0d0c 02000000 		.4byte	.LFE7
 5460 0d10 02       		.byte	0x2
 5461 0d11 7D       		.byte	0x7d
 5462 0d12 00       		.sleb128 0
 5463 0d13 01       		.byte	0x1
 5464 0d14 24       		.uleb128 0x24
 5465 0d15 01       		.byte	0x1
 5466 0d16 09090000 		.4byte	.LASF171
ARM GAS  C:\Users\jenny\AppData\Local\Temp\ccAyMdWJ.s 			page 98


 5467 0d1a 01       		.byte	0x1
 5468 0d1b B101     		.2byte	0x1b1
 5469 0d1d 01       		.byte	0x1
 5470 0d1e B4010000 		.4byte	0x1b4
 5471 0d22 00000000 		.4byte	.LFB14
 5472 0d26 7C000000 		.4byte	.LFE14
 5473 0d2a 7C000000 		.4byte	.LLST5
 5474 0d2e 01       		.byte	0x1
 5475 0d2f AA0D0000 		.4byte	0xdaa
 5476 0d33 1E       		.uleb128 0x1e
 5477 0d34 70636200 		.ascii	"pcb\000"
 5478 0d38 01       		.byte	0x1
 5479 0d39 B101     		.2byte	0x1b1
 5480 0d3b D2030000 		.4byte	0x3d2
 5481 0d3f 9C000000 		.4byte	.LLST6
 5482 0d43 25       		.uleb128 0x25
 5483 0d44 8E010000 		.4byte	.LASF167
 5484 0d48 01       		.byte	0x1
 5485 0d49 B101     		.2byte	0x1b1
 5486 0d4b 5B030000 		.4byte	0x35b
 5487 0d4f E6000000 		.4byte	.LLST7
 5488 0d53 25       		.uleb128 0x25
 5489 0d54 B5090000 		.4byte	.LASF168
 5490 0d58 01       		.byte	0x1
 5491 0d59 B101     		.2byte	0x1b1
 5492 0d5b E9000000 		.4byte	0xe9
 5493 0d5f 30010000 		.4byte	.LLST8
 5494 0d63 21       		.uleb128 0x21
 5495 0d64 6900     		.ascii	"i\000"
 5496 0d66 01       		.byte	0x1
 5497 0d67 B301     		.2byte	0x1b3
 5498 0d69 29000000 		.4byte	0x29
 5499 0d6d 96010000 		.4byte	.LLST9
 5500 0d71 26       		.uleb128 0x26
 5501 0d72 FC0A0000 		.4byte	.LASF169
 5502 0d76 01       		.byte	0x1
 5503 0d77 B401     		.2byte	0x1b4
 5504 0d79 29000000 		.4byte	0x29
 5505 0d7d 04       		.byte	0x4
 5506 0d7e 27       		.uleb128 0x27
 5507 0d7f EB0A0000 		.4byte	.LASF170
 5508 0d83 01       		.byte	0x1
 5509 0d84 B501     		.2byte	0x1b5
 5510 0d86 D2030000 		.4byte	0x3d2
 5511 0d8a AA010000 		.4byte	.LLST10
 5512 0d8e 28       		.uleb128 0x28
 5513 0d8f 56000000 		.4byte	.LVL17
 5514 0d93 D11F0000 		.4byte	0x1fd1
 5515 0d97 28       		.uleb128 0x28
 5516 0d98 60000000 		.4byte	.LVL19
 5517 0d9c A80C0000 		.4byte	0xca8
 5518 0da0 28       		.uleb128 0x28
 5519 0da1 6E000000 		.4byte	.LVL21
 5520 0da5 DC1F0000 		.4byte	0x1fdc
 5521 0da9 00       		.byte	0
 5522 0daa 24       		.uleb128 0x24
 5523 0dab 01       		.byte	0x1
ARM GAS  C:\Users\jenny\AppData\Local\Temp\ccAyMdWJ.s 			page 99


 5524 0dac AE040000 		.4byte	.LASF172
 5525 0db0 01       		.byte	0x1
 5526 0db1 0702     		.2byte	0x207
 5527 0db3 01       		.byte	0x1
 5528 0db4 D2030000 		.4byte	0x3d2
 5529 0db8 00000000 		.4byte	.LFB16
 5530 0dbc B0000000 		.4byte	.LFE16
 5531 0dc0 C8010000 		.4byte	.LLST11
 5532 0dc4 01       		.byte	0x1
 5533 0dc5 380E0000 		.4byte	0xe38
 5534 0dc9 1E       		.uleb128 0x1e
 5535 0dca 70636200 		.ascii	"pcb\000"
 5536 0dce 01       		.byte	0x1
 5537 0dcf 0702     		.2byte	0x207
 5538 0dd1 D2030000 		.4byte	0x3d2
 5539 0dd5 E8010000 		.4byte	.LLST12
 5540 0dd9 25       		.uleb128 0x25
 5541 0dda 13020000 		.4byte	.LASF173
 5542 0dde 01       		.byte	0x1
 5543 0ddf 0702     		.2byte	0x207
 5544 0de1 D3000000 		.4byte	0xd3
 5545 0de5 1C020000 		.4byte	.LLST13
 5546 0de9 27       		.uleb128 0x27
 5547 0dea C2050000 		.4byte	.LASF174
 5548 0dee 01       		.byte	0x1
 5549 0def 0902     		.2byte	0x209
 5550 0df1 0F090000 		.4byte	0x90f
 5551 0df5 56020000 		.4byte	.LLST14
 5552 0df9 29       		.uleb128 0x29
 5553 0dfa 10000000 		.4byte	.LVL24
 5554 0dfe E71F0000 		.4byte	0x1fe7
 5555 0e02 0C0E0000 		.4byte	0xe0c
 5556 0e06 2A       		.uleb128 0x2a
 5557 0e07 01       		.byte	0x1
 5558 0e08 50       		.byte	0x50
 5559 0e09 01       		.byte	0x1
 5560 0e0a 33       		.byte	0x33
 5561 0e0b 00       		.byte	0
 5562 0e0c 29       		.uleb128 0x29
 5563 0e0d 6E000000 		.4byte	.LVL26
 5564 0e11 FF1F0000 		.4byte	0x1fff
 5565 0e15 250E0000 		.4byte	0xe25
 5566 0e19 2A       		.uleb128 0x2a
 5567 0e1a 01       		.byte	0x1
 5568 0e1b 51       		.byte	0x51
 5569 0e1c 02       		.byte	0x2
 5570 0e1d 74       		.byte	0x74
 5571 0e1e 00       		.sleb128 0
 5572 0e1f 2A       		.uleb128 0x2a
 5573 0e20 01       		.byte	0x1
 5574 0e21 50       		.byte	0x50
 5575 0e22 01       		.byte	0x1
 5576 0e23 32       		.byte	0x32
 5577 0e24 00       		.byte	0
 5578 0e25 28       		.uleb128 0x28
 5579 0e26 7E000000 		.4byte	.LVL27
 5580 0e2a D11F0000 		.4byte	0x1fd1
ARM GAS  C:\Users\jenny\AppData\Local\Temp\ccAyMdWJ.s 			page 100


 5581 0e2e 28       		.uleb128 0x28
 5582 0e2f 92000000 		.4byte	.LVL29
 5583 0e33 DC1F0000 		.4byte	0x1fdc
 5584 0e37 00       		.byte	0
 5585 0e38 24       		.uleb128 0x24
 5586 0e39 01       		.byte	0x1
 5587 0e3a A60A0000 		.4byte	.LASF175
 5588 0e3e 01       		.byte	0x1
 5589 0e3f 4302     		.2byte	0x243
 5590 0e41 01       		.byte	0x1
 5591 0e42 FF000000 		.4byte	0xff
 5592 0e46 00000000 		.4byte	.LFB17
 5593 0e4a 44000000 		.4byte	.LFE17
 5594 0e4e 7F020000 		.4byte	.LLST15
 5595 0e52 01       		.byte	0x1
 5596 0e53 950E0000 		.4byte	0xe95
 5597 0e57 1E       		.uleb128 0x1e
 5598 0e58 70636200 		.ascii	"pcb\000"
 5599 0e5c 01       		.byte	0x1
 5600 0e5d 4302     		.2byte	0x243
 5601 0e5f D2030000 		.4byte	0x3d2
 5602 0e63 9F020000 		.4byte	.LLST16
 5603 0e67 27       		.uleb128 0x27
 5604 0e68 98020000 		.4byte	.LASF176
 5605 0e6c 01       		.byte	0x1
 5606 0e6d 4502     		.2byte	0x245
 5607 0e6f FF000000 		.4byte	0xff
 5608 0e73 BD020000 		.4byte	.LLST17
 5609 0e77 2B       		.uleb128 0x2b
 5610 0e78 00000000 		.4byte	.Ldebug_ranges0+0
 5611 0e7c 2C       		.uleb128 0x2c
 5612 0e7d D0010000 		.4byte	.LASF177
 5613 0e81 01       		.byte	0x1
 5614 0e82 5202     		.2byte	0x252
 5615 0e84 FF000000 		.4byte	0xff
 5616 0e88 01       		.byte	0x1
 5617 0e89 55       		.byte	0x55
 5618 0e8a 28       		.uleb128 0x28
 5619 0e8b 42000000 		.4byte	.LVL38
 5620 0e8f DC1F0000 		.4byte	0x1fdc
 5621 0e93 00       		.byte	0
 5622 0e94 00       		.byte	0
 5623 0e95 2D       		.uleb128 0x2d
 5624 0e96 01       		.byte	0x1
 5625 0e97 4F050000 		.4byte	.LASF179
 5626 0e9b 01       		.byte	0x1
 5627 0e9c 6302     		.2byte	0x263
 5628 0e9e 01       		.byte	0x1
 5629 0e9f 00000000 		.4byte	.LFB18
 5630 0ea3 58000000 		.4byte	.LFE18
 5631 0ea7 01030000 		.4byte	.LLST18
 5632 0eab 01       		.byte	0x1
 5633 0eac 1C0F0000 		.4byte	0xf1c
 5634 0eb0 1E       		.uleb128 0x1e
 5635 0eb1 70636200 		.ascii	"pcb\000"
 5636 0eb5 01       		.byte	0x1
 5637 0eb6 6302     		.2byte	0x263
ARM GAS  C:\Users\jenny\AppData\Local\Temp\ccAyMdWJ.s 			page 101


 5638 0eb8 D2030000 		.4byte	0x3d2
 5639 0ebc 21030000 		.4byte	.LLST19
 5640 0ec0 1E       		.uleb128 0x1e
 5641 0ec1 6C656E00 		.ascii	"len\000"
 5642 0ec5 01       		.byte	0x1
 5643 0ec6 6302     		.2byte	0x263
 5644 0ec8 E9000000 		.4byte	0xe9
 5645 0ecc 55030000 		.4byte	.LLST20
 5646 0ed0 27       		.uleb128 0x27
 5647 0ed1 FB080000 		.4byte	.LASF178
 5648 0ed5 01       		.byte	0x1
 5649 0ed6 6502     		.2byte	0x265
 5650 0ed8 29000000 		.4byte	0x29
 5651 0edc 8F030000 		.4byte	.LLST21
 5652 0ee0 29       		.uleb128 0x29
 5653 0ee1 30000000 		.4byte	.LVL41
 5654 0ee5 380E0000 		.4byte	0xe38
 5655 0ee9 F40E0000 		.4byte	0xef4
 5656 0eed 2A       		.uleb128 0x2a
 5657 0eee 01       		.byte	0x1
 5658 0eef 50       		.byte	0x50
 5659 0ef0 02       		.byte	0x2
 5660 0ef1 74       		.byte	0x74
 5661 0ef2 00       		.sleb128 0
 5662 0ef3 00       		.byte	0
 5663 0ef4 2E       		.uleb128 0x2e
 5664 0ef5 4A000000 		.4byte	.LVL43
 5665 0ef9 01       		.byte	0x1
 5666 0efa 18200000 		.4byte	0x2018
 5667 0efe 090F0000 		.4byte	0xf09
 5668 0f02 2A       		.uleb128 0x2a
 5669 0f03 01       		.byte	0x1
 5670 0f04 50       		.byte	0x50
 5671 0f05 02       		.byte	0x2
 5672 0f06 74       		.byte	0x74
 5673 0f07 00       		.sleb128 0
 5674 0f08 00       		.byte	0
 5675 0f09 28       		.uleb128 0x28
 5676 0f0a 4E000000 		.4byte	.LVL44
 5677 0f0e DC1F0000 		.4byte	0x1fdc
 5678 0f12 28       		.uleb128 0x28
 5679 0f13 56000000 		.4byte	.LVL46
 5680 0f17 DC1F0000 		.4byte	0x1fdc
 5681 0f1b 00       		.byte	0
 5682 0f1c 2D       		.uleb128 0x2d
 5683 0f1d 01       		.byte	0x1
 5684 0f1e 1B050000 		.4byte	.LASF180
 5685 0f22 01       		.byte	0x1
 5686 0f23 7704     		.2byte	0x477
 5687 0f25 01       		.byte	0x1
 5688 0f26 00000000 		.4byte	.LFB25
 5689 0f2a 1C000000 		.4byte	.LFE25
 5690 0f2e A2030000 		.4byte	.LLST22
 5691 0f32 01       		.byte	0x1
 5692 0f33 670F0000 		.4byte	0xf67
 5693 0f37 1E       		.uleb128 0x1e
 5694 0f38 73656700 		.ascii	"seg\000"
ARM GAS  C:\Users\jenny\AppData\Local\Temp\ccAyMdWJ.s 			page 102


 5695 0f3c 01       		.byte	0x1
 5696 0f3d 7704     		.2byte	0x477
 5697 0f3f 56080000 		.4byte	0x856
 5698 0f43 C2030000 		.4byte	.LLST23
 5699 0f47 28       		.uleb128 0x28
 5700 0f48 0E000000 		.4byte	.LVL49
 5701 0f4c 31200000 		.4byte	0x2031
 5702 0f50 2F       		.uleb128 0x2f
 5703 0f51 1A000000 		.4byte	.LVL50
 5704 0f55 01       		.byte	0x1
 5705 0f56 FF1F0000 		.4byte	0x1fff
 5706 0f5a 2A       		.uleb128 0x2a
 5707 0f5b 01       		.byte	0x1
 5708 0f5c 51       		.byte	0x51
 5709 0f5d 02       		.byte	0x2
 5710 0f5e 74       		.byte	0x74
 5711 0f5f 00       		.sleb128 0
 5712 0f60 2A       		.uleb128 0x2a
 5713 0f61 01       		.byte	0x1
 5714 0f62 50       		.byte	0x50
 5715 0f63 01       		.byte	0x1
 5716 0f64 34       		.byte	0x34
 5717 0f65 00       		.byte	0
 5718 0f66 00       		.byte	0
 5719 0f67 2D       		.uleb128 0x2d
 5720 0f68 01       		.byte	0x1
 5721 0f69 18000000 		.4byte	.LASF181
 5722 0f6d 01       		.byte	0x1
 5723 0f6e 6804     		.2byte	0x468
 5724 0f70 01       		.byte	0x1
 5725 0f71 00000000 		.4byte	.LFB24
 5726 0f75 12000000 		.4byte	.LFE24
 5727 0f79 EB030000 		.4byte	.LLST24
 5728 0f7d 01       		.byte	0x1
 5729 0f7e B60F0000 		.4byte	0xfb6
 5730 0f82 1E       		.uleb128 0x1e
 5731 0f83 73656700 		.ascii	"seg\000"
 5732 0f87 01       		.byte	0x1
 5733 0f88 6804     		.2byte	0x468
 5734 0f8a 56080000 		.4byte	0x856
 5735 0f8e 0B040000 		.4byte	.LLST25
 5736 0f92 30       		.uleb128 0x30
 5737 0f93 04000000 		.4byte	.LBB9
 5738 0f97 0A000000 		.4byte	.LBE9
 5739 0f9b 27       		.uleb128 0x27
 5740 0f9c 450B0000 		.4byte	.LASF46
 5741 0fa0 01       		.byte	0x1
 5742 0fa1 6B04     		.2byte	0x46b
 5743 0fa3 56080000 		.4byte	0x856
 5744 0fa7 34040000 		.4byte	.LLST26
 5745 0fab 28       		.uleb128 0x28
 5746 0fac 0A000000 		.4byte	.LVL53
 5747 0fb0 1C0F0000 		.4byte	0xf1c
 5748 0fb4 00       		.byte	0
 5749 0fb5 00       		.byte	0
 5750 0fb6 31       		.uleb128 0x31
 5751 0fb7 01       		.byte	0x1
ARM GAS  C:\Users\jenny\AppData\Local\Temp\ccAyMdWJ.s 			page 103


 5752 0fb8 B8010000 		.4byte	.LASF182
 5753 0fbc 01       		.byte	0x1
 5754 0fbd 8B04     		.2byte	0x48b
 5755 0fbf 01       		.byte	0x1
 5756 0fc0 00000000 		.4byte	.LFB26
 5757 0fc4 04000000 		.4byte	.LFE26
 5758 0fc8 02       		.byte	0x2
 5759 0fc9 7D       		.byte	0x7d
 5760 0fca 00       		.sleb128 0
 5761 0fcb 01       		.byte	0x1
 5762 0fcc ED0F0000 		.4byte	0xfed
 5763 0fd0 1F       		.uleb128 0x1f
 5764 0fd1 70636200 		.ascii	"pcb\000"
 5765 0fd5 01       		.byte	0x1
 5766 0fd6 8B04     		.2byte	0x48b
 5767 0fd8 D2030000 		.4byte	0x3d2
 5768 0fdc 01       		.byte	0x1
 5769 0fdd 50       		.byte	0x50
 5770 0fde 32       		.uleb128 0x32
 5771 0fdf 40010000 		.4byte	.LASF70
 5772 0fe3 01       		.byte	0x1
 5773 0fe4 8B04     		.2byte	0x48b
 5774 0fe6 D3000000 		.4byte	0xd3
 5775 0fea 01       		.byte	0x1
 5776 0feb 51       		.byte	0x51
 5777 0fec 00       		.byte	0
 5778 0fed 24       		.uleb128 0x24
 5779 0fee 01       		.byte	0x1
 5780 0fef BB070000 		.4byte	.LASF183
 5781 0ff3 01       		.byte	0x1
 5782 0ff4 9904     		.2byte	0x499
 5783 0ff6 01       		.byte	0x1
 5784 0ff7 56080000 		.4byte	0x856
 5785 0ffb 00000000 		.4byte	.LFB27
 5786 0fff 28000000 		.4byte	.LFE27
 5787 1003 47040000 		.4byte	.LLST27
 5788 1007 01       		.byte	0x1
 5789 1008 49100000 		.4byte	0x1049
 5790 100c 1E       		.uleb128 0x1e
 5791 100d 73656700 		.ascii	"seg\000"
 5792 1011 01       		.byte	0x1
 5793 1012 9904     		.2byte	0x499
 5794 1014 56080000 		.4byte	0x856
 5795 1018 67040000 		.4byte	.LLST28
 5796 101c 27       		.uleb128 0x27
 5797 101d B9000000 		.4byte	.LASF184
 5798 1021 01       		.byte	0x1
 5799 1022 9B04     		.2byte	0x49b
 5800 1024 56080000 		.4byte	0x856
 5801 1028 85040000 		.4byte	.LLST29
 5802 102c 29       		.uleb128 0x29
 5803 102d 0A000000 		.4byte	.LVL58
 5804 1031 E71F0000 		.4byte	0x1fe7
 5805 1035 3F100000 		.4byte	0x103f
 5806 1039 2A       		.uleb128 0x2a
 5807 103a 01       		.byte	0x1
 5808 103b 50       		.byte	0x50
ARM GAS  C:\Users\jenny\AppData\Local\Temp\ccAyMdWJ.s 			page 104


 5809 103c 01       		.byte	0x1
 5810 103d 34       		.byte	0x34
 5811 103e 00       		.byte	0
 5812 103f 28       		.uleb128 0x28
 5813 1040 24000000 		.4byte	.LVL60
 5814 1044 49200000 		.4byte	0x2049
 5815 1048 00       		.byte	0
 5816 1049 31       		.uleb128 0x31
 5817 104a 01       		.byte	0x1
 5818 104b 39090000 		.4byte	.LASF185
 5819 104f 01       		.byte	0x1
 5820 1050 6005     		.2byte	0x560
 5821 1052 01       		.byte	0x1
 5822 1053 00000000 		.4byte	.LFB33
 5823 1057 04000000 		.4byte	.LFE33
 5824 105b 02       		.byte	0x2
 5825 105c 7D       		.byte	0x7d
 5826 105d 00       		.sleb128 0
 5827 105e 01       		.byte	0x1
 5828 105f 80100000 		.4byte	0x1080
 5829 1063 1F       		.uleb128 0x1f
 5830 1064 70636200 		.ascii	"pcb\000"
 5831 1068 01       		.byte	0x1
 5832 1069 6005     		.2byte	0x560
 5833 106b D2030000 		.4byte	0x3d2
 5834 106f 01       		.byte	0x1
 5835 1070 50       		.byte	0x50
 5836 1071 1F       		.uleb128 0x1f
 5837 1072 61726700 		.ascii	"arg\000"
 5838 1076 01       		.byte	0x1
 5839 1077 6005     		.2byte	0x560
 5840 1079 B8000000 		.4byte	0xb8
 5841 107d 01       		.byte	0x1
 5842 107e 51       		.byte	0x51
 5843 107f 00       		.byte	0
 5844 1080 2D       		.uleb128 0x2d
 5845 1081 01       		.byte	0x1
 5846 1082 D1040000 		.4byte	.LASF186
 5847 1086 01       		.byte	0x1
 5848 1087 7005     		.2byte	0x570
 5849 1089 01       		.byte	0x1
 5850 108a 00000000 		.4byte	.LFB34
 5851 108e 20000000 		.4byte	.LFE34
 5852 1092 A3040000 		.4byte	.LLST30
 5853 1096 01       		.byte	0x1
 5854 1097 C5100000 		.4byte	0x10c5
 5855 109b 1E       		.uleb128 0x1e
 5856 109c 70636200 		.ascii	"pcb\000"
 5857 10a0 01       		.byte	0x1
 5858 10a1 7005     		.2byte	0x570
 5859 10a3 D2030000 		.4byte	0x3d2
 5860 10a7 CF040000 		.4byte	.LLST31
 5861 10ab 25       		.uleb128 0x25
 5862 10ac 5C070000 		.4byte	.LASF103
 5863 10b0 01       		.byte	0x1
 5864 10b1 7005     		.2byte	0x570
 5865 10b3 02070000 		.4byte	0x702
ARM GAS  C:\Users\jenny\AppData\Local\Temp\ccAyMdWJ.s 			page 105


 5866 10b7 09050000 		.4byte	.LLST32
 5867 10bb 28       		.uleb128 0x28
 5868 10bc 1A000000 		.4byte	.LVL65
 5869 10c0 DC1F0000 		.4byte	0x1fdc
 5870 10c4 00       		.byte	0
 5871 10c5 2D       		.uleb128 0x2d
 5872 10c6 01       		.byte	0x1
 5873 10c7 6D060000 		.4byte	.LASF187
 5874 10cb 01       		.byte	0x1
 5875 10cc 7E05     		.2byte	0x57e
 5876 10ce 01       		.byte	0x1
 5877 10cf 00000000 		.4byte	.LFB35
 5878 10d3 1E000000 		.4byte	.LFE35
 5879 10d7 43050000 		.4byte	.LLST33
 5880 10db 01       		.byte	0x1
 5881 10dc 0A110000 		.4byte	0x110a
 5882 10e0 1E       		.uleb128 0x1e
 5883 10e1 70636200 		.ascii	"pcb\000"
 5884 10e5 01       		.byte	0x1
 5885 10e6 7E05     		.2byte	0x57e
 5886 10e8 D2030000 		.4byte	0x3d2
 5887 10ec 6F050000 		.4byte	.LLST34
 5888 10f0 25       		.uleb128 0x25
 5889 10f1 ED050000 		.4byte	.LASF102
 5890 10f5 01       		.byte	0x1
 5891 10f6 7E05     		.2byte	0x57e
 5892 10f8 32070000 		.4byte	0x732
 5893 10fc A9050000 		.4byte	.LLST35
 5894 1100 28       		.uleb128 0x28
 5895 1101 18000000 		.4byte	.LVL69
 5896 1105 DC1F0000 		.4byte	0x1fdc
 5897 1109 00       		.byte	0
 5898 110a 2D       		.uleb128 0x2d
 5899 110b 01       		.byte	0x1
 5900 110c B7060000 		.4byte	.LASF188
 5901 1110 01       		.byte	0x1
 5902 1111 8D05     		.2byte	0x58d
 5903 1113 01       		.byte	0x1
 5904 1114 00000000 		.4byte	.LFB36
 5905 1118 20000000 		.4byte	.LFE36
 5906 111c E3050000 		.4byte	.LLST36
 5907 1120 01       		.byte	0x1
 5908 1121 4F110000 		.4byte	0x114f
 5909 1125 1E       		.uleb128 0x1e
 5910 1126 70636200 		.ascii	"pcb\000"
 5911 112a 01       		.byte	0x1
 5912 112b 8D05     		.2byte	0x58d
 5913 112d D2030000 		.4byte	0x3d2
 5914 1131 0F060000 		.4byte	.LLST37
 5915 1135 1E       		.uleb128 0x1e
 5916 1136 65727200 		.ascii	"err\000"
 5917 113a 01       		.byte	0x1
 5918 113b 8D05     		.2byte	0x58d
 5919 113d 83070000 		.4byte	0x783
 5920 1141 49060000 		.4byte	.LLST38
 5921 1145 28       		.uleb128 0x28
 5922 1146 1A000000 		.4byte	.LVL73
ARM GAS  C:\Users\jenny\AppData\Local\Temp\ccAyMdWJ.s 			page 106


 5923 114a DC1F0000 		.4byte	0x1fdc
 5924 114e 00       		.byte	0
 5925 114f 31       		.uleb128 0x31
 5926 1150 01       		.byte	0x1
 5927 1151 6D040000 		.4byte	.LASF189
 5928 1155 01       		.byte	0x1
 5929 1156 9C05     		.2byte	0x59c
 5930 1158 01       		.byte	0x1
 5931 1159 00000000 		.4byte	.LFB37
 5932 115d 04000000 		.4byte	.LFE37
 5933 1161 02       		.byte	0x2
 5934 1162 7D       		.byte	0x7d
 5935 1163 00       		.sleb128 0
 5936 1164 01       		.byte	0x1
 5937 1165 86110000 		.4byte	0x1186
 5938 1169 1F       		.uleb128 0x1f
 5939 116a 70636200 		.ascii	"pcb\000"
 5940 116e 01       		.byte	0x1
 5941 116f 9C05     		.2byte	0x59c
 5942 1171 D2030000 		.4byte	0x3d2
 5943 1175 01       		.byte	0x1
 5944 1176 50       		.byte	0x50
 5945 1177 32       		.uleb128 0x32
 5946 1178 220A0000 		.4byte	.LASF69
 5947 117c 01       		.byte	0x1
 5948 117d 9C05     		.2byte	0x59c
 5949 117f A7030000 		.4byte	0x3a7
 5950 1183 01       		.byte	0x1
 5951 1184 51       		.byte	0x51
 5952 1185 00       		.byte	0
 5953 1186 2D       		.uleb128 0x2d
 5954 1187 01       		.byte	0x1
 5955 1188 810B0000 		.4byte	.LASF190
 5956 118c 01       		.byte	0x1
 5957 118d AC05     		.2byte	0x5ac
 5958 118f 01       		.byte	0x1
 5959 1190 00000000 		.4byte	.LFB38
 5960 1194 28000000 		.4byte	.LFE38
 5961 1198 83060000 		.4byte	.LLST39
 5962 119c 01       		.byte	0x1
 5963 119d DB110000 		.4byte	0x11db
 5964 11a1 1E       		.uleb128 0x1e
 5965 11a2 70636200 		.ascii	"pcb\000"
 5966 11a6 01       		.byte	0x1
 5967 11a7 AC05     		.2byte	0x5ac
 5968 11a9 D2030000 		.4byte	0x3d2
 5969 11ad AF060000 		.4byte	.LLST40
 5970 11b1 25       		.uleb128 0x25
 5971 11b2 F0060000 		.4byte	.LASF105
 5972 11b6 01       		.byte	0x1
 5973 11b7 AC05     		.2byte	0x5ac
 5974 11b9 5D070000 		.4byte	0x75d
 5975 11bd E9060000 		.4byte	.LLST41
 5976 11c1 25       		.uleb128 0x25
 5977 11c2 60090000 		.4byte	.LASF191
 5978 11c6 01       		.byte	0x1
 5979 11c7 AC05     		.2byte	0x5ac
ARM GAS  C:\Users\jenny\AppData\Local\Temp\ccAyMdWJ.s 			page 107


 5980 11c9 D3000000 		.4byte	0xd3
 5981 11cd 23070000 		.4byte	.LLST42
 5982 11d1 28       		.uleb128 0x28
 5983 11d2 20000000 		.4byte	.LVL78
 5984 11d6 DC1F0000 		.4byte	0x1fdc
 5985 11da 00       		.byte	0
 5986 11db 33       		.uleb128 0x33
 5987 11dc E00B0000 		.4byte	0xbe0
 5988 11e0 00000000 		.4byte	.LFB39
 5989 11e4 42000000 		.4byte	.LFE39
 5990 11e8 5D070000 		.4byte	.LLST43
 5991 11ec 01       		.byte	0x1
 5992 11ed 39120000 		.4byte	0x1239
 5993 11f1 34       		.uleb128 0x34
 5994 11f2 EF0B0000 		.4byte	0xbef
 5995 11f6 7D070000 		.4byte	.LLST44
 5996 11fa 35       		.uleb128 0x35
 5997 11fb E00B0000 		.4byte	0xbe0
 5998 11ff 10000000 		.4byte	.LBB12
 5999 1203 42000000 		.4byte	.LBE12
 6000 1207 01       		.byte	0x1
 6001 1208 BE05     		.2byte	0x5be
 6002 120a 34       		.uleb128 0x34
 6003 120b EF0B0000 		.4byte	0xbef
 6004 120f 9B070000 		.4byte	.LLST45
 6005 1213 28       		.uleb128 0x28
 6006 1214 18000000 		.4byte	.LVL82
 6007 1218 31200000 		.4byte	0x2031
 6008 121c 28       		.uleb128 0x28
 6009 121d 22000000 		.4byte	.LVL83
 6010 1221 670F0000 		.4byte	0xf67
 6011 1225 28       		.uleb128 0x28
 6012 1226 32000000 		.4byte	.LVL84
 6013 122a 670F0000 		.4byte	0xf67
 6014 122e 28       		.uleb128 0x28
 6015 122f 38000000 		.4byte	.LVL85
 6016 1233 670F0000 		.4byte	0xf67
 6017 1237 00       		.byte	0
 6018 1238 00       		.byte	0
 6019 1239 2D       		.uleb128 0x2d
 6020 123a 01       		.byte	0x1
 6021 123b 4A0B0000 		.4byte	.LASF192
 6022 123f 01       		.byte	0x1
 6023 1240 1403     		.2byte	0x314
 6024 1242 01       		.byte	0x1
 6025 1243 00000000 		.4byte	.LFB21
 6026 1247 40040000 		.4byte	.LFE21
 6027 124b B9070000 		.4byte	.LLST46
 6028 124f 01       		.byte	0x1
 6029 1250 46140000 		.4byte	0x1446
 6030 1254 21       		.uleb128 0x21
 6031 1255 70636200 		.ascii	"pcb\000"
 6032 1259 01       		.byte	0x1
 6033 125a 1603     		.2byte	0x316
 6034 125c D2030000 		.4byte	0x3d2
 6035 1260 E6070000 		.4byte	.LLST47
 6036 1264 27       		.uleb128 0x27
ARM GAS  C:\Users\jenny\AppData\Local\Temp\ccAyMdWJ.s 			page 108


 6037 1265 7C0B0000 		.4byte	.LASF193
 6038 1269 01       		.byte	0x1
 6039 126a 1603     		.2byte	0x316
 6040 126c D2030000 		.4byte	0x3d2
 6041 1270 CB080000 		.4byte	.LLST48
 6042 1274 27       		.uleb128 0x27
 6043 1275 89080000 		.4byte	.LASF194
 6044 1279 01       		.byte	0x1
 6045 127a 1703     		.2byte	0x317
 6046 127c E9000000 		.4byte	0xe9
 6047 1280 59090000 		.4byte	.LLST49
 6048 1284 27       		.uleb128 0x27
 6049 1285 7B0A0000 		.4byte	.LASF195
 6050 1289 01       		.byte	0x1
 6051 128a 1803     		.2byte	0x318
 6052 128c D3000000 		.4byte	0xd3
 6053 1290 87090000 		.4byte	.LLST50
 6054 1294 27       		.uleb128 0x27
 6055 1295 BD0A0000 		.4byte	.LASF196
 6056 1299 01       		.byte	0x1
 6057 129a 1903     		.2byte	0x319
 6058 129c D3000000 		.4byte	0xd3
 6059 12a0 830A0000 		.4byte	.LLST51
 6060 12a4 21       		.uleb128 0x21
 6061 12a5 65727200 		.ascii	"err\000"
 6062 12a9 01       		.byte	0x1
 6063 12aa 1A03     		.2byte	0x31a
 6064 12ac B4010000 		.4byte	0x1b4
 6065 12b0 150B0000 		.4byte	.LLST52
 6066 12b4 36       		.uleb128 0x36
 6067 12b5 83040000 		.4byte	.LASF269
 6068 12b9 01       		.byte	0x1
 6069 12ba 2103     		.2byte	0x321
 6070 12bc 37       		.uleb128 0x37
 6071 12bd 18000000 		.4byte	.Ldebug_ranges0+0x18
 6072 12c1 69130000 		.4byte	0x1369
 6073 12c5 27       		.uleb128 0x27
 6074 12c6 030A0000 		.4byte	.LASF197
 6075 12ca 01       		.byte	0x1
 6076 12cb B403     		.2byte	0x3b4
 6077 12cd D2030000 		.4byte	0x3d2
 6078 12d1 340B0000 		.4byte	.LLST53
 6079 12d5 27       		.uleb128 0x27
 6080 12d6 C8070000 		.4byte	.LASF198
 6081 12da 01       		.byte	0x1
 6082 12db B503     		.2byte	0x3b5
 6083 12dd 83070000 		.4byte	0x783
 6084 12e1 470B0000 		.4byte	.LLST54
 6085 12e5 27       		.uleb128 0x27
 6086 12e6 C1020000 		.4byte	.LASF199
 6087 12ea 01       		.byte	0x1
 6088 12eb B603     		.2byte	0x3b6
 6089 12ed B8000000 		.4byte	0xb8
 6090 12f1 5A0B0000 		.4byte	.LLST55
 6091 12f5 29       		.uleb128 0x29
 6092 12f6 CC010000 		.4byte	.LVL116
 6093 12fa E00B0000 		.4byte	0xbe0
ARM GAS  C:\Users\jenny\AppData\Local\Temp\ccAyMdWJ.s 			page 109


 6094 12fe 09130000 		.4byte	0x1309
 6095 1302 2A       		.uleb128 0x2a
 6096 1303 01       		.byte	0x1
 6097 1304 50       		.byte	0x50
 6098 1305 02       		.byte	0x2
 6099 1306 7B       		.byte	0x7b
 6100 1307 00       		.sleb128 0
 6101 1308 00       		.byte	0
 6102 1309 29       		.uleb128 0x29
 6103 130a 06020000 		.4byte	.LVL121
 6104 130e FF1F0000 		.4byte	0x1fff
 6105 1312 22130000 		.4byte	0x1322
 6106 1316 2A       		.uleb128 0x2a
 6107 1317 01       		.byte	0x1
 6108 1318 51       		.byte	0x51
 6109 1319 02       		.byte	0x2
 6110 131a 7B       		.byte	0x7b
 6111 131b 00       		.sleb128 0
 6112 131c 2A       		.uleb128 0x2a
 6113 131d 01       		.byte	0x1
 6114 131e 50       		.byte	0x50
 6115 131f 01       		.byte	0x1
 6116 1320 32       		.byte	0x32
 6117 1321 00       		.byte	0
 6118 1322 38       		.uleb128 0x38
 6119 1323 18020000 		.4byte	.LVL122
 6120 1327 02       		.byte	0x2
 6121 1328 7A       		.byte	0x7a
 6122 1329 00       		.sleb128 0
 6123 132a 3C130000 		.4byte	0x133c
 6124 132e 2A       		.uleb128 0x2a
 6125 132f 01       		.byte	0x1
 6126 1330 51       		.byte	0x51
 6127 1331 02       		.byte	0x2
 6128 1332 09       		.byte	0x9
 6129 1333 F6       		.byte	0xf6
 6130 1334 2A       		.uleb128 0x2a
 6131 1335 01       		.byte	0x1
 6132 1336 50       		.byte	0x50
 6133 1337 03       		.byte	0x3
 6134 1338 91       		.byte	0x91
 6135 1339 4C       		.sleb128 -52
 6136 133a 06       		.byte	0x6
 6137 133b 00       		.byte	0
 6138 133c 29       		.uleb128 0x29
 6139 133d FC030000 		.4byte	.LVL155
 6140 1341 5D200000 		.4byte	0x205d
 6141 1345 56130000 		.4byte	0x1356
 6142 1349 2A       		.uleb128 0x2a
 6143 134a 01       		.byte	0x1
 6144 134b 53       		.byte	0x53
 6145 134c 02       		.byte	0x2
 6146 134d 7B       		.byte	0x7b
 6147 134e 04       		.sleb128 4
 6148 134f 2A       		.uleb128 0x2a
 6149 1350 01       		.byte	0x1
 6150 1351 52       		.byte	0x52
ARM GAS  C:\Users\jenny\AppData\Local\Temp\ccAyMdWJ.s 			page 110


 6151 1352 02       		.byte	0x2
 6152 1353 7B       		.byte	0x7b
 6153 1354 00       		.sleb128 0
 6154 1355 00       		.byte	0
 6155 1356 28       		.uleb128 0x28
 6156 1357 10040000 		.4byte	.LVL156
 6157 135b DC1F0000 		.4byte	0x1fdc
 6158 135f 28       		.uleb128 0x28
 6159 1360 38040000 		.4byte	.LVL160
 6160 1364 DC1F0000 		.4byte	0x1fdc
 6161 1368 00       		.byte	0
 6162 1369 37       		.uleb128 0x37
 6163 136a 40000000 		.4byte	.Ldebug_ranges0+0x40
 6164 136e BC130000 		.4byte	0x13bc
 6165 1372 27       		.uleb128 0x27
 6166 1373 030A0000 		.4byte	.LASF197
 6167 1377 01       		.byte	0x1
 6168 1378 FA03     		.2byte	0x3fa
 6169 137a D2030000 		.4byte	0x3d2
 6170 137e 850B0000 		.4byte	.LLST56
 6171 1382 29       		.uleb128 0x29
 6172 1383 90010000 		.4byte	.LVL109
 6173 1387 E00B0000 		.4byte	0xbe0
 6174 138b 96130000 		.4byte	0x1396
 6175 138f 2A       		.uleb128 0x2a
 6176 1390 01       		.byte	0x1
 6177 1391 50       		.byte	0x50
 6178 1392 02       		.byte	0x2
 6179 1393 75       		.byte	0x75
 6180 1394 00       		.sleb128 0
 6181 1395 00       		.byte	0
 6182 1396 29       		.uleb128 0x29
 6183 1397 B0010000 		.4byte	.LVL112
 6184 139b FF1F0000 		.4byte	0x1fff
 6185 139f A9130000 		.4byte	0x13a9
 6186 13a3 2A       		.uleb128 0x2a
 6187 13a4 01       		.byte	0x1
 6188 13a5 50       		.byte	0x50
 6189 13a6 01       		.byte	0x1
 6190 13a7 32       		.byte	0x32
 6191 13a8 00       		.byte	0
 6192 13a9 28       		.uleb128 0x28
 6193 13aa 2A040000 		.4byte	.LVL158
 6194 13ae DC1F0000 		.4byte	0x1fdc
 6195 13b2 28       		.uleb128 0x28
 6196 13b3 3E040000 		.4byte	.LVL162
 6197 13b7 DC1F0000 		.4byte	0x1fdc
 6198 13bb 00       		.byte	0
 6199 13bc 29       		.uleb128 0x29
 6200 13bd C4000000 		.4byte	.LVL92
 6201 13c1 8B200000 		.4byte	0x208b
 6202 13c5 D0130000 		.4byte	0x13d0
 6203 13c9 2A       		.uleb128 0x2a
 6204 13ca 01       		.byte	0x1
 6205 13cb 50       		.byte	0x50
 6206 13cc 02       		.byte	0x2
 6207 13cd 7B       		.byte	0x7b
ARM GAS  C:\Users\jenny\AppData\Local\Temp\ccAyMdWJ.s 			page 111


 6208 13ce 00       		.sleb128 0
 6209 13cf 00       		.byte	0
 6210 13d0 39       		.uleb128 0x39
 6211 13d1 52010000 		.4byte	.LVL100
 6212 13d5 E0130000 		.4byte	0x13e0
 6213 13d9 2A       		.uleb128 0x2a
 6214 13da 01       		.byte	0x1
 6215 13db 51       		.byte	0x51
 6216 13dc 02       		.byte	0x2
 6217 13dd 7B       		.byte	0x7b
 6218 13de 00       		.sleb128 0
 6219 13df 00       		.byte	0
 6220 13e0 28       		.uleb128 0x28
 6221 13e1 7E010000 		.4byte	.LVL107
 6222 13e5 DC1F0000 		.4byte	0x1fdc
 6223 13e9 28       		.uleb128 0x28
 6224 13ea 30020000 		.4byte	.LVL126
 6225 13ee DC1F0000 		.4byte	0x1fdc
 6226 13f2 28       		.uleb128 0x28
 6227 13f3 3E020000 		.4byte	.LVL127
 6228 13f7 DC1F0000 		.4byte	0x1fdc
 6229 13fb 28       		.uleb128 0x28
 6230 13fc 4C020000 		.4byte	.LVL128
 6231 1400 DC1F0000 		.4byte	0x1fdc
 6232 1404 29       		.uleb128 0x29
 6233 1405 0C030000 		.4byte	.LVL136
 6234 1409 A0200000 		.4byte	0x20a0
 6235 140d 18140000 		.4byte	0x1418
 6236 1411 2A       		.uleb128 0x2a
 6237 1412 01       		.byte	0x1
 6238 1413 50       		.byte	0x50
 6239 1414 02       		.byte	0x2
 6240 1415 7B       		.byte	0x7b
 6241 1416 00       		.sleb128 0
 6242 1417 00       		.byte	0
 6243 1418 28       		.uleb128 0x28
 6244 1419 5A030000 		.4byte	.LVL142
 6245 141d 670F0000 		.4byte	0xf67
 6246 1421 29       		.uleb128 0x29
 6247 1422 A6030000 		.4byte	.LVL150
 6248 1426 18200000 		.4byte	0x2018
 6249 142a 35140000 		.4byte	0x1435
 6250 142e 2A       		.uleb128 0x2a
 6251 142f 01       		.byte	0x1
 6252 1430 50       		.byte	0x50
 6253 1431 02       		.byte	0x2
 6254 1432 76       		.byte	0x76
 6255 1433 00       		.sleb128 0
 6256 1434 00       		.byte	0
 6257 1435 3A       		.uleb128 0x3a
 6258 1436 D2030000 		.4byte	.LVL153
 6259 143a B4200000 		.4byte	0x20b4
 6260 143e 2A       		.uleb128 0x2a
 6261 143f 01       		.byte	0x1
 6262 1440 50       		.byte	0x50
 6263 1441 02       		.byte	0x2
 6264 1442 7B       		.byte	0x7b
ARM GAS  C:\Users\jenny\AppData\Local\Temp\ccAyMdWJ.s 			page 112


 6265 1443 00       		.sleb128 0
 6266 1444 00       		.byte	0
 6267 1445 00       		.byte	0
 6268 1446 2D       		.uleb128 0x2d
 6269 1447 01       		.byte	0x1
 6270 1448 72080000 		.4byte	.LASF200
 6271 144c 01       		.byte	0x1
 6272 144d 0206     		.2byte	0x602
 6273 144f 01       		.byte	0x1
 6274 1450 00000000 		.4byte	.LFB40
 6275 1454 88000000 		.4byte	.LFE40
 6276 1458 A30B0000 		.4byte	.LLST57
 6277 145c 01       		.byte	0x1
 6278 145d C1140000 		.4byte	0x14c1
 6279 1461 25       		.uleb128 0x25
 6280 1462 290B0000 		.4byte	.LASF201
 6281 1466 01       		.byte	0x1
 6282 1467 0206     		.2byte	0x602
 6283 1469 C1140000 		.4byte	0x14c1
 6284 146d C30B0000 		.4byte	.LLST58
 6285 1471 1E       		.uleb128 0x1e
 6286 1472 70636200 		.ascii	"pcb\000"
 6287 1476 01       		.byte	0x1
 6288 1477 0206     		.2byte	0x602
 6289 1479 D2030000 		.4byte	0x3d2
 6290 147d EF0B0000 		.4byte	.LLST59
 6291 1481 29       		.uleb128 0x29
 6292 1482 30000000 		.4byte	.LVL166
 6293 1486 E00B0000 		.4byte	0xbe0
 6294 148a 95140000 		.4byte	0x1495
 6295 148e 2A       		.uleb128 0x2a
 6296 148f 01       		.byte	0x1
 6297 1490 50       		.byte	0x50
 6298 1491 02       		.byte	0x2
 6299 1492 74       		.byte	0x74
 6300 1493 00       		.sleb128 0
 6301 1494 00       		.byte	0
 6302 1495 28       		.uleb128 0x28
 6303 1496 48000000 		.4byte	.LVL167
 6304 149a DC1F0000 		.4byte	0x1fdc
 6305 149e 28       		.uleb128 0x28
 6306 149f 50000000 		.4byte	.LVL168
 6307 14a3 DC1F0000 		.4byte	0x1fdc
 6308 14a7 28       		.uleb128 0x28
 6309 14a8 58000000 		.4byte	.LVL169
 6310 14ac DC1F0000 		.4byte	0x1fdc
 6311 14b0 3A       		.uleb128 0x3a
 6312 14b1 72000000 		.4byte	.LVL170
 6313 14b5 18200000 		.4byte	0x2018
 6314 14b9 2A       		.uleb128 0x2a
 6315 14ba 01       		.byte	0x1
 6316 14bb 50       		.byte	0x50
 6317 14bc 02       		.byte	0x2
 6318 14bd 74       		.byte	0x74
 6319 14be 00       		.sleb128 0
 6320 14bf 00       		.byte	0
 6321 14c0 00       		.byte	0
ARM GAS  C:\Users\jenny\AppData\Local\Temp\ccAyMdWJ.s 			page 113


 6322 14c1 06       		.uleb128 0x6
 6323 14c2 04       		.byte	0x4
 6324 14c3 D2030000 		.4byte	0x3d2
 6325 14c7 2D       		.uleb128 0x2d
 6326 14c8 01       		.byte	0x1
 6327 14c9 D2000000 		.4byte	.LASF202
 6328 14cd 01       		.byte	0x1
 6329 14ce 6501     		.2byte	0x165
 6330 14d0 01       		.byte	0x1
 6331 14d1 00000000 		.4byte	.LFB12
 6332 14d5 A4000000 		.4byte	.LFE12
 6333 14d9 230C0000 		.4byte	.LLST60
 6334 14dd 01       		.byte	0x1
 6335 14de 10160000 		.4byte	0x1610
 6336 14e2 1E       		.uleb128 0x1e
 6337 14e3 70636200 		.ascii	"pcb\000"
 6338 14e7 01       		.byte	0x1
 6339 14e8 6501     		.2byte	0x165
 6340 14ea D2030000 		.4byte	0x3d2
 6341 14ee 4F0C0000 		.4byte	.LLST61
 6342 14f2 25       		.uleb128 0x25
 6343 14f3 75090000 		.4byte	.LASF203
 6344 14f7 01       		.byte	0x1
 6345 14f8 6501     		.2byte	0x165
 6346 14fa 29000000 		.4byte	0x29
 6347 14fe 830C0000 		.4byte	.LLST62
 6348 1502 27       		.uleb128 0x27
 6349 1503 35060000 		.4byte	.LASF132
 6350 1507 01       		.byte	0x1
 6351 1508 6701     		.2byte	0x167
 6352 150a FF000000 		.4byte	0xff
 6353 150e B70C0000 		.4byte	.LLST63
 6354 1512 27       		.uleb128 0x27
 6355 1513 33090000 		.4byte	.LASF133
 6356 1517 01       		.byte	0x1
 6357 1518 6701     		.2byte	0x167
 6358 151a FF000000 		.4byte	0xff
 6359 151e CA0C0000 		.4byte	.LLST64
 6360 1522 27       		.uleb128 0x27
 6361 1523 1D0A0000 		.4byte	.LASF106
 6362 1527 01       		.byte	0x1
 6363 1528 6901     		.2byte	0x169
 6364 152a 83070000 		.4byte	0x783
 6365 152e DD0C0000 		.4byte	.LLST65
 6366 1532 27       		.uleb128 0x27
 6367 1533 A7090000 		.4byte	.LASF204
 6368 1537 01       		.byte	0x1
 6369 1538 6B01     		.2byte	0x16b
 6370 153a B8000000 		.4byte	0xb8
 6371 153e F00C0000 		.4byte	.LLST66
 6372 1542 29       		.uleb128 0x29
 6373 1543 2A000000 		.4byte	.LVL179
 6374 1547 46140000 		.4byte	0x1446
 6375 154b 5F150000 		.4byte	0x155f
 6376 154f 2A       		.uleb128 0x2a
 6377 1550 01       		.byte	0x1
 6378 1551 51       		.byte	0x51
ARM GAS  C:\Users\jenny\AppData\Local\Temp\ccAyMdWJ.s 			page 114


 6379 1552 02       		.byte	0x2
 6380 1553 74       		.byte	0x74
 6381 1554 00       		.sleb128 0
 6382 1555 2A       		.uleb128 0x2a
 6383 1556 01       		.byte	0x1
 6384 1557 50       		.byte	0x50
 6385 1558 05       		.byte	0x5
 6386 1559 03       		.byte	0x3
 6387 155a 00000000 		.4byte	.LANCHOR7
 6388 155e 00       		.byte	0
 6389 155f 28       		.uleb128 0x28
 6390 1560 38000000 		.4byte	.LVL180
 6391 1564 670F0000 		.4byte	0xf67
 6392 1568 28       		.uleb128 0x28
 6393 1569 40000000 		.4byte	.LVL181
 6394 156d 670F0000 		.4byte	0xf67
 6395 1571 28       		.uleb128 0x28
 6396 1572 48000000 		.4byte	.LVL182
 6397 1576 670F0000 		.4byte	0xf67
 6398 157a 29       		.uleb128 0x29
 6399 157b 52000000 		.4byte	.LVL183
 6400 157f FF1F0000 		.4byte	0x1fff
 6401 1583 93150000 		.4byte	0x1593
 6402 1587 2A       		.uleb128 0x2a
 6403 1588 01       		.byte	0x1
 6404 1589 51       		.byte	0x51
 6405 158a 02       		.byte	0x2
 6406 158b 74       		.byte	0x74
 6407 158c 00       		.sleb128 0
 6408 158d 2A       		.uleb128 0x2a
 6409 158e 01       		.byte	0x1
 6410 158f 50       		.byte	0x50
 6411 1590 01       		.byte	0x1
 6412 1591 32       		.byte	0x32
 6413 1592 00       		.byte	0
 6414 1593 39       		.uleb128 0x39
 6415 1594 5C000000 		.4byte	.LVL184
 6416 1598 A9150000 		.4byte	0x15a9
 6417 159c 2A       		.uleb128 0x2a
 6418 159d 01       		.byte	0x1
 6419 159e 51       		.byte	0x51
 6420 159f 02       		.byte	0x2
 6421 15a0 09       		.byte	0x9
 6422 15a1 F6       		.byte	0xf6
 6423 15a2 2A       		.uleb128 0x2a
 6424 15a3 01       		.byte	0x1
 6425 15a4 50       		.byte	0x50
 6426 15a5 02       		.byte	0x2
 6427 15a6 77       		.byte	0x77
 6428 15a7 00       		.sleb128 0
 6429 15a8 00       		.byte	0
 6430 15a9 29       		.uleb128 0x29
 6431 15aa 76000000 		.4byte	.LVL185
 6432 15ae 5D200000 		.4byte	0x205d
 6433 15b2 CF150000 		.4byte	0x15cf
 6434 15b6 2A       		.uleb128 0x2a
 6435 15b7 01       		.byte	0x1
ARM GAS  C:\Users\jenny\AppData\Local\Temp\ccAyMdWJ.s 			page 115


 6436 15b8 53       		.byte	0x53
 6437 15b9 02       		.byte	0x2
 6438 15ba 74       		.byte	0x74
 6439 15bb 04       		.sleb128 4
 6440 15bc 2A       		.uleb128 0x2a
 6441 15bd 01       		.byte	0x1
 6442 15be 52       		.byte	0x52
 6443 15bf 02       		.byte	0x2
 6444 15c0 74       		.byte	0x74
 6445 15c1 00       		.sleb128 0
 6446 15c2 2A       		.uleb128 0x2a
 6447 15c3 01       		.byte	0x1
 6448 15c4 51       		.byte	0x51
 6449 15c5 02       		.byte	0x2
 6450 15c6 78       		.byte	0x78
 6451 15c7 00       		.sleb128 0
 6452 15c8 2A       		.uleb128 0x2a
 6453 15c9 01       		.byte	0x1
 6454 15ca 50       		.byte	0x50
 6455 15cb 02       		.byte	0x2
 6456 15cc 79       		.byte	0x79
 6457 15cd 00       		.sleb128 0
 6458 15ce 00       		.byte	0
 6459 15cf 29       		.uleb128 0x29
 6460 15d0 80000000 		.4byte	.LVL187
 6461 15d4 46140000 		.4byte	0x1446
 6462 15d8 EC150000 		.4byte	0x15ec
 6463 15dc 2A       		.uleb128 0x2a
 6464 15dd 01       		.byte	0x1
 6465 15de 51       		.byte	0x51
 6466 15df 02       		.byte	0x2
 6467 15e0 74       		.byte	0x74
 6468 15e1 00       		.sleb128 0
 6469 15e2 2A       		.uleb128 0x2a
 6470 15e3 01       		.byte	0x1
 6471 15e4 50       		.byte	0x50
 6472 15e5 05       		.byte	0x5
 6473 15e6 03       		.byte	0x3
 6474 15e7 00000000 		.4byte	.LANCHOR8
 6475 15eb 00       		.byte	0
 6476 15ec 2E       		.uleb128 0x2e
 6477 15ed 8E000000 		.4byte	.LVL188
 6478 15f1 01       		.byte	0x1
 6479 15f2 FF1F0000 		.4byte	0x1fff
 6480 15f6 06160000 		.4byte	0x1606
 6481 15fa 2A       		.uleb128 0x2a
 6482 15fb 01       		.byte	0x1
 6483 15fc 51       		.byte	0x51
 6484 15fd 02       		.byte	0x2
 6485 15fe 74       		.byte	0x74
 6486 15ff 00       		.sleb128 0
 6487 1600 2A       		.uleb128 0x2a
 6488 1601 01       		.byte	0x1
 6489 1602 50       		.byte	0x50
 6490 1603 01       		.byte	0x1
 6491 1604 32       		.byte	0x32
 6492 1605 00       		.byte	0
ARM GAS  C:\Users\jenny\AppData\Local\Temp\ccAyMdWJ.s 			page 116


 6493 1606 28       		.uleb128 0x28
 6494 1607 92000000 		.4byte	.LVL189
 6495 160b DC1F0000 		.4byte	0x1fdc
 6496 160f 00       		.byte	0
 6497 1610 31       		.uleb128 0x31
 6498 1611 01       		.byte	0x1
 6499 1612 91060000 		.4byte	.LASF205
 6500 1616 01       		.byte	0x1
 6501 1617 9D01     		.2byte	0x19d
 6502 1619 01       		.byte	0x1
 6503 161a 00000000 		.4byte	.LFB13
 6504 161e 06000000 		.4byte	.LFE13
 6505 1622 02       		.byte	0x2
 6506 1623 7D       		.byte	0x7d
 6507 1624 00       		.sleb128 0
 6508 1625 01       		.byte	0x1
 6509 1626 52160000 		.4byte	0x1652
 6510 162a 1E       		.uleb128 0x1e
 6511 162b 70636200 		.ascii	"pcb\000"
 6512 162f 01       		.byte	0x1
 6513 1630 9D01     		.2byte	0x19d
 6514 1632 D2030000 		.4byte	0x3d2
 6515 1636 030D0000 		.4byte	.LLST67
 6516 163a 2F       		.uleb128 0x2f
 6517 163b 06000000 		.4byte	.LVL191
 6518 163f 01       		.byte	0x1
 6519 1640 C7140000 		.4byte	0x14c7
 6520 1644 2A       		.uleb128 0x2a
 6521 1645 01       		.byte	0x1
 6522 1646 51       		.byte	0x51
 6523 1647 01       		.byte	0x1
 6524 1648 31       		.byte	0x31
 6525 1649 2A       		.uleb128 0x2a
 6526 164a 01       		.byte	0x1
 6527 164b 50       		.byte	0x50
 6528 164c 03       		.byte	0x3
 6529 164d F3       		.byte	0xf3
 6530 164e 01       		.uleb128 0x1
 6531 164f 50       		.byte	0x50
 6532 1650 00       		.byte	0
 6533 1651 00       		.byte	0
 6534 1652 3B       		.uleb128 0x3b
 6535 1653 4E090000 		.4byte	.LASF208
 6536 1657 01       		.byte	0x1
 6537 1658 E204     		.2byte	0x4e2
 6538 165a 01       		.byte	0x1
 6539 165b 01       		.byte	0x1
 6540 165c 85160000 		.4byte	0x1685
 6541 1660 1C       		.uleb128 0x1c
 6542 1661 70636200 		.ascii	"pcb\000"
 6543 1665 01       		.byte	0x1
 6544 1666 E404     		.2byte	0x4e4
 6545 1668 D2030000 		.4byte	0x3d2
 6546 166c 3C       		.uleb128 0x3c
 6547 166d 6C0A0000 		.4byte	.LASF206
 6548 1671 01       		.byte	0x1
 6549 1672 E404     		.2byte	0x4e4
ARM GAS  C:\Users\jenny\AppData\Local\Temp\ccAyMdWJ.s 			page 117


 6550 1674 D2030000 		.4byte	0x3d2
 6551 1678 3C       		.uleb128 0x3c
 6552 1679 900B0000 		.4byte	.LASF207
 6553 167d 01       		.byte	0x1
 6554 167e E504     		.2byte	0x4e5
 6555 1680 FF000000 		.4byte	0xff
 6556 1684 00       		.byte	0
 6557 1685 3B       		.uleb128 0x3b
 6558 1686 E2060000 		.4byte	.LASF209
 6559 168a 01       		.byte	0x1
 6560 168b C104     		.2byte	0x4c1
 6561 168d 01       		.byte	0x1
 6562 168e 01       		.byte	0x1
 6563 168f D0160000 		.4byte	0x16d0
 6564 1693 3D       		.uleb128 0x3d
 6565 1694 40010000 		.4byte	.LASF70
 6566 1698 01       		.byte	0x1
 6567 1699 C104     		.2byte	0x4c1
 6568 169b D3000000 		.4byte	0xd3
 6569 169f 1C       		.uleb128 0x1c
 6570 16a0 70636200 		.ascii	"pcb\000"
 6571 16a4 01       		.byte	0x1
 6572 16a5 C304     		.2byte	0x4c3
 6573 16a7 D2030000 		.4byte	0x3d2
 6574 16ab 3C       		.uleb128 0x3c
 6575 16ac 6C0A0000 		.4byte	.LASF206
 6576 16b0 01       		.byte	0x1
 6577 16b1 C304     		.2byte	0x4c3
 6578 16b3 D2030000 		.4byte	0x3d2
 6579 16b7 3C       		.uleb128 0x3c
 6580 16b8 900B0000 		.4byte	.LASF207
 6581 16bc 01       		.byte	0x1
 6582 16bd C404     		.2byte	0x4c4
 6583 16bf FF000000 		.4byte	0xff
 6584 16c3 3C       		.uleb128 0x3c
 6585 16c4 A2080000 		.4byte	.LASF210
 6586 16c8 01       		.byte	0x1
 6587 16c9 C504     		.2byte	0x4c5
 6588 16cb D3000000 		.4byte	0xd3
 6589 16cf 00       		.byte	0
 6590 16d0 24       		.uleb128 0x24
 6591 16d1 01       		.byte	0x1
 6592 16d2 9C0A0000 		.4byte	.LASF211
 6593 16d6 01       		.byte	0x1
 6594 16d7 FE04     		.2byte	0x4fe
 6595 16d9 01       		.byte	0x1
 6596 16da D2030000 		.4byte	0x3d2
 6597 16de 00000000 		.4byte	.LFB31
 6598 16e2 48010000 		.4byte	.LFE31
 6599 16e6 240D0000 		.4byte	.LLST68
 6600 16ea 01       		.byte	0x1
 6601 16eb 2E180000 		.4byte	0x182e
 6602 16ef 25       		.uleb128 0x25
 6603 16f0 40010000 		.4byte	.LASF70
 6604 16f4 01       		.byte	0x1
 6605 16f5 FE04     		.2byte	0x4fe
 6606 16f7 D3000000 		.4byte	0xd3
ARM GAS  C:\Users\jenny\AppData\Local\Temp\ccAyMdWJ.s 			page 118


 6607 16fb 440D0000 		.4byte	.LLST69
 6608 16ff 21       		.uleb128 0x21
 6609 1700 70636200 		.ascii	"pcb\000"
 6610 1704 01       		.byte	0x1
 6611 1705 0005     		.2byte	0x500
 6612 1707 D2030000 		.4byte	0x3d2
 6613 170b 650D0000 		.4byte	.LLST70
 6614 170f 3E       		.uleb128 0x3e
 6615 1710 69737300 		.ascii	"iss\000"
 6616 1714 01       		.byte	0x1
 6617 1715 0105     		.2byte	0x501
 6618 1717 FF000000 		.4byte	0xff
 6619 171b 01       		.byte	0x1
 6620 171c 53       		.byte	0x53
 6621 171d 3F       		.uleb128 0x3f
 6622 171e 3E0C0000 		.4byte	0xc3e
 6623 1722 1C000000 		.4byte	.LBB27
 6624 1726 60000000 		.4byte	.Ldebug_ranges0+0x60
 6625 172a 01       		.byte	0x1
 6626 172b 2B05     		.2byte	0x52b
 6627 172d 43170000 		.4byte	0x1743
 6628 1731 2B       		.uleb128 0x2b
 6629 1732 80000000 		.4byte	.Ldebug_ranges0+0x80
 6630 1736 40       		.uleb128 0x40
 6631 1737 510C0000 		.4byte	0xc51
 6632 173b 05       		.byte	0x5
 6633 173c 03       		.byte	0x3
 6634 173d 00000000 		.4byte	iss.6034
 6635 1741 00       		.byte	0
 6636 1742 00       		.byte	0
 6637 1743 41       		.uleb128 0x41
 6638 1744 52160000 		.4byte	0x1652
 6639 1748 A4000000 		.4byte	.LBB33
 6640 174c CC000000 		.4byte	.LBE33
 6641 1750 01       		.byte	0x1
 6642 1751 0705     		.2byte	0x507
 6643 1753 86170000 		.4byte	0x1786
 6644 1757 30       		.uleb128 0x30
 6645 1758 A4000000 		.4byte	.LBB34
 6646 175c CC000000 		.4byte	.LBE34
 6647 1760 42       		.uleb128 0x42
 6648 1761 60160000 		.4byte	0x1660
 6649 1765 C50D0000 		.4byte	.LLST71
 6650 1769 42       		.uleb128 0x42
 6651 176a 6C160000 		.4byte	0x166c
 6652 176e D80D0000 		.4byte	.LLST72
 6653 1772 42       		.uleb128 0x42
 6654 1773 78160000 		.4byte	0x1678
 6655 1777 EC0D0000 		.4byte	.LLST73
 6656 177b 28       		.uleb128 0x28
 6657 177c CC000000 		.4byte	.LVL204
 6658 1780 10160000 		.4byte	0x1610
 6659 1784 00       		.byte	0
 6660 1785 00       		.byte	0
 6661 1786 41       		.uleb128 0x41
 6662 1787 85160000 		.4byte	0x1685
 6663 178b E4000000 		.4byte	.LBB35
ARM GAS  C:\Users\jenny\AppData\Local\Temp\ccAyMdWJ.s 			page 119


 6664 178f 14010000 		.4byte	.LBE35
 6665 1793 01       		.byte	0x1
 6666 1794 0D05     		.2byte	0x50d
 6667 1796 D9170000 		.4byte	0x17d9
 6668 179a 43       		.uleb128 0x43
 6669 179b 93160000 		.4byte	0x1693
 6670 179f 01       		.byte	0x1
 6671 17a0 57       		.byte	0x57
 6672 17a1 30       		.uleb128 0x30
 6673 17a2 E4000000 		.4byte	.LBB36
 6674 17a6 14010000 		.4byte	.LBE36
 6675 17aa 42       		.uleb128 0x42
 6676 17ab 9F160000 		.4byte	0x169f
 6677 17af 160E0000 		.4byte	.LLST74
 6678 17b3 42       		.uleb128 0x42
 6679 17b4 AB160000 		.4byte	0x16ab
 6680 17b8 290E0000 		.4byte	.LLST75
 6681 17bc 42       		.uleb128 0x42
 6682 17bd B7160000 		.4byte	0x16b7
 6683 17c1 3D0E0000 		.4byte	.LLST76
 6684 17c5 42       		.uleb128 0x42
 6685 17c6 C3160000 		.4byte	0x16c3
 6686 17ca 5C0E0000 		.4byte	.LLST77
 6687 17ce 28       		.uleb128 0x28
 6688 17cf 14010000 		.4byte	.LVL212
 6689 17d3 10160000 		.4byte	0x1610
 6690 17d7 00       		.byte	0
 6691 17d8 00       		.byte	0
 6692 17d9 29       		.uleb128 0x29
 6693 17da 0C000000 		.4byte	.LVL194
 6694 17de E71F0000 		.4byte	0x1fe7
 6695 17e2 EC170000 		.4byte	0x17ec
 6696 17e6 2A       		.uleb128 0x2a
 6697 17e7 01       		.byte	0x1
 6698 17e8 50       		.byte	0x50
 6699 17e9 01       		.byte	0x1
 6700 17ea 32       		.byte	0x32
 6701 17eb 00       		.byte	0
 6702 17ec 29       		.uleb128 0x29
 6703 17ed 1C000000 		.4byte	.LVL196
 6704 17f1 C9200000 		.4byte	0x20c9
 6705 17f5 0B180000 		.4byte	0x180b
 6706 17f9 2A       		.uleb128 0x2a
 6707 17fa 01       		.byte	0x1
 6708 17fb 52       		.byte	0x52
 6709 17fc 02       		.byte	0x2
 6710 17fd 08       		.byte	0x8
 6711 17fe 98       		.byte	0x98
 6712 17ff 2A       		.uleb128 0x2a
 6713 1800 01       		.byte	0x1
 6714 1801 51       		.byte	0x51
 6715 1802 01       		.byte	0x1
 6716 1803 30       		.byte	0x30
 6717 1804 2A       		.uleb128 0x2a
 6718 1805 01       		.byte	0x1
 6719 1806 50       		.byte	0x50
 6720 1807 02       		.byte	0x2
ARM GAS  C:\Users\jenny\AppData\Local\Temp\ccAyMdWJ.s 			page 120


 6721 1808 74       		.byte	0x74
 6722 1809 00       		.sleb128 0
 6723 180a 00       		.byte	0
 6724 180b 29       		.uleb128 0x29
 6725 180c D2000000 		.4byte	.LVL205
 6726 1810 E71F0000 		.4byte	0x1fe7
 6727 1814 1E180000 		.4byte	0x181e
 6728 1818 2A       		.uleb128 0x2a
 6729 1819 01       		.byte	0x1
 6730 181a 50       		.byte	0x50
 6731 181b 01       		.byte	0x1
 6732 181c 32       		.byte	0x32
 6733 181d 00       		.byte	0
 6734 181e 3A       		.uleb128 0x3a
 6735 181f 1A010000 		.4byte	.LVL213
 6736 1823 E71F0000 		.4byte	0x1fe7
 6737 1827 2A       		.uleb128 0x2a
 6738 1828 01       		.byte	0x1
 6739 1829 50       		.byte	0x50
 6740 182a 01       		.byte	0x1
 6741 182b 32       		.byte	0x32
 6742 182c 00       		.byte	0
 6743 182d 00       		.byte	0
 6744 182e 44       		.uleb128 0x44
 6745 182f 01       		.byte	0x1
 6746 1830 7A010000 		.4byte	.LASF212
 6747 1834 01       		.byte	0x1
 6748 1835 5305     		.2byte	0x553
 6749 1837 01       		.byte	0x1
 6750 1838 D2030000 		.4byte	0x3d2
 6751 183c 00000000 		.4byte	.LFB32
 6752 1840 06000000 		.4byte	.LFE32
 6753 1844 02       		.byte	0x2
 6754 1845 7D       		.byte	0x7d
 6755 1846 00       		.sleb128 0
 6756 1847 01       		.byte	0x1
 6757 1848 5E180000 		.4byte	0x185e
 6758 184c 2F       		.uleb128 0x2f
 6759 184d 06000000 		.4byte	.LVL215
 6760 1851 01       		.byte	0x1
 6761 1852 D0160000 		.4byte	0x16d0
 6762 1856 2A       		.uleb128 0x2a
 6763 1857 01       		.byte	0x1
 6764 1858 50       		.byte	0x50
 6765 1859 02       		.byte	0x2
 6766 185a 08       		.byte	0x8
 6767 185b 40       		.byte	0x40
 6768 185c 00       		.byte	0
 6769 185d 00       		.byte	0
 6770 185e 45       		.uleb128 0x45
 6771 185f F0040000 		.4byte	.LASF213
 6772 1863 01       		.byte	0x1
 6773 1864 AA       		.byte	0xaa
 6774 1865 01       		.byte	0x1
 6775 1866 B4010000 		.4byte	0x1b4
 6776 186a 00000000 		.4byte	.LFB9
 6777 186e 84010000 		.4byte	.LFE9
ARM GAS  C:\Users\jenny\AppData\Local\Temp\ccAyMdWJ.s 			page 121


 6778 1872 7C0E0000 		.4byte	.LLST78
 6779 1876 01       		.byte	0x1
 6780 1877 CA190000 		.4byte	0x19ca
 6781 187b 46       		.uleb128 0x46
 6782 187c 70636200 		.ascii	"pcb\000"
 6783 1880 01       		.byte	0x1
 6784 1881 AA       		.byte	0xaa
 6785 1882 D2030000 		.4byte	0x3d2
 6786 1886 A80E0000 		.4byte	.LLST79
 6787 188a 47       		.uleb128 0x47
 6788 188b 8E070000 		.4byte	.LASF214
 6789 188f 01       		.byte	0x1
 6790 1890 AA       		.byte	0xaa
 6791 1891 D3000000 		.4byte	0xd3
 6792 1895 370F0000 		.4byte	.LLST80
 6793 1899 48       		.uleb128 0x48
 6794 189a 65727200 		.ascii	"err\000"
 6795 189e 01       		.byte	0x1
 6796 189f AC       		.byte	0xac
 6797 18a0 B4010000 		.4byte	0x1b4
 6798 18a4 07100000 		.4byte	.LLST81
 6799 18a8 29       		.uleb128 0x29
 6800 18a9 28000000 		.4byte	.LVL218
 6801 18ad EA200000 		.4byte	0x20ea
 6802 18b1 BC180000 		.4byte	0x18bc
 6803 18b5 2A       		.uleb128 0x2a
 6804 18b6 01       		.byte	0x1
 6805 18b7 50       		.byte	0x50
 6806 18b8 02       		.byte	0x2
 6807 18b9 74       		.byte	0x74
 6808 18ba 00       		.sleb128 0
 6809 18bb 00       		.byte	0
 6810 18bc 29       		.uleb128 0x29
 6811 18bd 34000000 		.4byte	.LVL220
 6812 18c1 18200000 		.4byte	0x2018
 6813 18c5 D0180000 		.4byte	0x18d0
 6814 18c9 2A       		.uleb128 0x2a
 6815 18ca 01       		.byte	0x1
 6816 18cb 50       		.byte	0x50
 6817 18cc 02       		.byte	0x2
 6818 18cd 74       		.byte	0x74
 6819 18ce 00       		.sleb128 0
 6820 18cf 00       		.byte	0
 6821 18d0 29       		.uleb128 0x29
 6822 18d1 64000000 		.4byte	.LVL224
 6823 18d5 5D200000 		.4byte	0x205d
 6824 18d9 F1180000 		.4byte	0x18f1
 6825 18dd 2A       		.uleb128 0x2a
 6826 18de 01       		.byte	0x1
 6827 18df 53       		.byte	0x53
 6828 18e0 02       		.byte	0x2
 6829 18e1 74       		.byte	0x74
 6830 18e2 04       		.sleb128 4
 6831 18e3 2A       		.uleb128 0x2a
 6832 18e4 01       		.byte	0x1
 6833 18e5 52       		.byte	0x52
 6834 18e6 02       		.byte	0x2
ARM GAS  C:\Users\jenny\AppData\Local\Temp\ccAyMdWJ.s 			page 122


 6835 18e7 74       		.byte	0x74
 6836 18e8 00       		.sleb128 0
 6837 18e9 2A       		.uleb128 0x2a
 6838 18ea 02       		.byte	0x2
 6839 18eb 7D       		.byte	0x7d
 6840 18ec 04       		.sleb128 4
 6841 18ed 02       		.byte	0x2
 6842 18ee 75       		.byte	0x75
 6843 18ef 00       		.sleb128 0
 6844 18f0 00       		.byte	0
 6845 18f1 29       		.uleb128 0x29
 6846 18f2 6A000000 		.4byte	.LVL225
 6847 18f6 E00B0000 		.4byte	0xbe0
 6848 18fa 05190000 		.4byte	0x1905
 6849 18fe 2A       		.uleb128 0x2a
 6850 18ff 01       		.byte	0x1
 6851 1900 50       		.byte	0x50
 6852 1901 02       		.byte	0x2
 6853 1902 74       		.byte	0x74
 6854 1903 00       		.sleb128 0
 6855 1904 00       		.byte	0
 6856 1905 29       		.uleb128 0x29
 6857 1906 C0000000 		.4byte	.LVL230
 6858 190a 46140000 		.4byte	0x1446
 6859 190e 22190000 		.4byte	0x1922
 6860 1912 2A       		.uleb128 0x2a
 6861 1913 01       		.byte	0x1
 6862 1914 51       		.byte	0x51
 6863 1915 02       		.byte	0x2
 6864 1916 74       		.byte	0x74
 6865 1917 00       		.sleb128 0
 6866 1918 2A       		.uleb128 0x2a
 6867 1919 01       		.byte	0x1
 6868 191a 50       		.byte	0x50
 6869 191b 05       		.byte	0x5
 6870 191c 03       		.byte	0x3
 6871 191d 00000000 		.4byte	.LANCHOR4
 6872 1921 00       		.byte	0
 6873 1922 29       		.uleb128 0x29
 6874 1923 C8000000 		.4byte	.LVL231
 6875 1927 FF1F0000 		.4byte	0x1fff
 6876 192b 3B190000 		.4byte	0x193b
 6877 192f 2A       		.uleb128 0x2a
 6878 1930 01       		.byte	0x1
 6879 1931 51       		.byte	0x51
 6880 1932 02       		.byte	0x2
 6881 1933 74       		.byte	0x74
 6882 1934 00       		.sleb128 0
 6883 1935 2A       		.uleb128 0x2a
 6884 1936 01       		.byte	0x1
 6885 1937 50       		.byte	0x50
 6886 1938 01       		.byte	0x1
 6887 1939 33       		.byte	0x33
 6888 193a 00       		.byte	0
 6889 193b 29       		.uleb128 0x29
 6890 193c D2000000 		.4byte	.LVL234
 6891 1940 46140000 		.4byte	0x1446
ARM GAS  C:\Users\jenny\AppData\Local\Temp\ccAyMdWJ.s 			page 123


 6892 1944 58190000 		.4byte	0x1958
 6893 1948 2A       		.uleb128 0x2a
 6894 1949 01       		.byte	0x1
 6895 194a 51       		.byte	0x51
 6896 194b 02       		.byte	0x2
 6897 194c 74       		.byte	0x74
 6898 194d 00       		.sleb128 0
 6899 194e 2A       		.uleb128 0x2a
 6900 194f 01       		.byte	0x1
 6901 1950 50       		.byte	0x50
 6902 1951 05       		.byte	0x5
 6903 1952 03       		.byte	0x3
 6904 1953 00000000 		.4byte	.LANCHOR7
 6905 1957 00       		.byte	0
 6906 1958 29       		.uleb128 0x29
 6907 1959 E0000000 		.4byte	.LVL235
 6908 195d FF1F0000 		.4byte	0x1fff
 6909 1961 71190000 		.4byte	0x1971
 6910 1965 2A       		.uleb128 0x2a
 6911 1966 01       		.byte	0x1
 6912 1967 51       		.byte	0x51
 6913 1968 02       		.byte	0x2
 6914 1969 74       		.byte	0x74
 6915 196a 00       		.sleb128 0
 6916 196b 2A       		.uleb128 0x2a
 6917 196c 01       		.byte	0x1
 6918 196d 50       		.byte	0x50
 6919 196e 01       		.byte	0x1
 6920 196f 32       		.byte	0x32
 6921 1970 00       		.byte	0
 6922 1971 29       		.uleb128 0x29
 6923 1972 E8000000 		.4byte	.LVL237
 6924 1976 EA200000 		.4byte	0x20ea
 6925 197a 85190000 		.4byte	0x1985
 6926 197e 2A       		.uleb128 0x2a
 6927 197f 01       		.byte	0x1
 6928 1980 50       		.byte	0x50
 6929 1981 02       		.byte	0x2
 6930 1982 74       		.byte	0x74
 6931 1983 00       		.sleb128 0
 6932 1984 00       		.byte	0
 6933 1985 28       		.uleb128 0x28
 6934 1986 F6000000 		.4byte	.LVL239
 6935 198a DC1F0000 		.4byte	0x1fdc
 6936 198e 29       		.uleb128 0x29
 6937 198f 16010000 		.4byte	.LVL240
 6938 1993 FF1F0000 		.4byte	0x1fff
 6939 1997 A7190000 		.4byte	0x19a7
 6940 199b 2A       		.uleb128 0x2a
 6941 199c 01       		.byte	0x1
 6942 199d 51       		.byte	0x51
 6943 199e 02       		.byte	0x2
 6944 199f 74       		.byte	0x74
 6945 19a0 00       		.sleb128 0
 6946 19a1 2A       		.uleb128 0x2a
 6947 19a2 01       		.byte	0x1
 6948 19a3 50       		.byte	0x50
ARM GAS  C:\Users\jenny\AppData\Local\Temp\ccAyMdWJ.s 			page 124


 6949 19a4 01       		.byte	0x1
 6950 19a5 32       		.byte	0x32
 6951 19a6 00       		.byte	0
 6952 19a7 29       		.uleb128 0x29
 6953 19a8 2A010000 		.4byte	.LVL242
 6954 19ac FF1F0000 		.4byte	0x1fff
 6955 19b0 C0190000 		.4byte	0x19c0
 6956 19b4 2A       		.uleb128 0x2a
 6957 19b5 01       		.byte	0x1
 6958 19b6 51       		.byte	0x51
 6959 19b7 02       		.byte	0x2
 6960 19b8 74       		.byte	0x74
 6961 19b9 00       		.sleb128 0
 6962 19ba 2A       		.uleb128 0x2a
 6963 19bb 01       		.byte	0x1
 6964 19bc 50       		.byte	0x50
 6965 19bd 01       		.byte	0x1
 6966 19be 32       		.byte	0x32
 6967 19bf 00       		.byte	0
 6968 19c0 28       		.uleb128 0x28
 6969 19c1 40010000 		.4byte	.LVL244
 6970 19c5 D11F0000 		.4byte	0x1fd1
 6971 19c9 00       		.byte	0
 6972 19ca 24       		.uleb128 0x24
 6973 19cb 01       		.byte	0x1
 6974 19cc 5F0A0000 		.4byte	.LASF215
 6975 19d0 01       		.byte	0x1
 6976 19d1 3901     		.2byte	0x139
 6977 19d3 01       		.byte	0x1
 6978 19d4 B4010000 		.4byte	0x1b4
 6979 19d8 00000000 		.4byte	.LFB11
 6980 19dc 56000000 		.4byte	.LFE11
 6981 19e0 61100000 		.4byte	.LLST82
 6982 19e4 01       		.byte	0x1
 6983 19e5 3D1A0000 		.4byte	0x1a3d
 6984 19e9 1E       		.uleb128 0x1e
 6985 19ea 70636200 		.ascii	"pcb\000"
 6986 19ee 01       		.byte	0x1
 6987 19ef 3901     		.2byte	0x139
 6988 19f1 D2030000 		.4byte	0x3d2
 6989 19f5 81100000 		.4byte	.LLST83
 6990 19f9 25       		.uleb128 0x25
 6991 19fa 860A0000 		.4byte	.LASF216
 6992 19fe 01       		.byte	0x1
 6993 19ff 3901     		.2byte	0x139
 6994 1a01 29000000 		.4byte	0x29
 6995 1a05 E1100000 		.4byte	.LLST84
 6996 1a09 25       		.uleb128 0x25
 6997 1a0a 210B0000 		.4byte	.LASF217
 6998 1a0e 01       		.byte	0x1
 6999 1a0f 3901     		.2byte	0x139
 7000 1a11 29000000 		.4byte	0x29
 7001 1a15 15110000 		.4byte	.LLST85
 7002 1a19 28       		.uleb128 0x28
 7003 1a1a 22000000 		.4byte	.LVL253
 7004 1a1e 31200000 		.4byte	0x2031
 7005 1a22 49       		.uleb128 0x49
ARM GAS  C:\Users\jenny\AppData\Local\Temp\ccAyMdWJ.s 			page 125


 7006 1a23 4C000000 		.4byte	.LVL259
 7007 1a27 01       		.byte	0x1
 7008 1a28 5E180000 		.4byte	0x185e
 7009 1a2c 2F       		.uleb128 0x2f
 7010 1a2d 56000000 		.4byte	.LVL260
 7011 1a31 01       		.byte	0x1
 7012 1a32 5E180000 		.4byte	0x185e
 7013 1a36 2A       		.uleb128 0x2a
 7014 1a37 01       		.byte	0x1
 7015 1a38 51       		.byte	0x51
 7016 1a39 01       		.byte	0x1
 7017 1a3a 31       		.byte	0x31
 7018 1a3b 00       		.byte	0
 7019 1a3c 00       		.byte	0
 7020 1a3d 44       		.uleb128 0x44
 7021 1a3e 01       		.byte	0x1
 7022 1a3f 0D040000 		.4byte	.LASF218
 7023 1a43 01       		.byte	0x1
 7024 1a44 1D01     		.2byte	0x11d
 7025 1a46 01       		.byte	0x1
 7026 1a47 B4010000 		.4byte	0x1b4
 7027 1a4b 00000000 		.4byte	.LFB10
 7028 1a4f 14000000 		.4byte	.LFE10
 7029 1a53 02       		.byte	0x2
 7030 1a54 7D       		.byte	0x7d
 7031 1a55 00       		.sleb128 0
 7032 1a56 01       		.byte	0x1
 7033 1a57 7C1A0000 		.4byte	0x1a7c
 7034 1a5b 1E       		.uleb128 0x1e
 7035 1a5c 70636200 		.ascii	"pcb\000"
 7036 1a60 01       		.byte	0x1
 7037 1a61 1D01     		.2byte	0x11d
 7038 1a63 D2030000 		.4byte	0x3d2
 7039 1a67 5F110000 		.4byte	.LLST86
 7040 1a6b 2F       		.uleb128 0x2f
 7041 1a6c 14000000 		.4byte	.LVL262
 7042 1a70 01       		.byte	0x1
 7043 1a71 5E180000 		.4byte	0x185e
 7044 1a75 2A       		.uleb128 0x2a
 7045 1a76 01       		.byte	0x1
 7046 1a77 51       		.byte	0x51
 7047 1a78 01       		.byte	0x1
 7048 1a79 31       		.byte	0x31
 7049 1a7a 00       		.byte	0
 7050 1a7b 00       		.byte	0
 7051 1a7c 33       		.uleb128 0x33
 7052 1a7d FC0B0000 		.4byte	0xbfc
 7053 1a81 00000000 		.4byte	.LFB28
 7054 1a85 26000000 		.4byte	.LFE28
 7055 1a89 80110000 		.4byte	.LLST87
 7056 1a8d 01       		.byte	0x1
 7057 1a8e 251B0000 		.4byte	0x1b25
 7058 1a92 34       		.uleb128 0x34
 7059 1a93 0F0C0000 		.4byte	0xc0f
 7060 1a97 A0110000 		.4byte	.LLST88
 7061 1a9b 34       		.uleb128 0x34
 7062 1a9c 1B0C0000 		.4byte	0xc1b
ARM GAS  C:\Users\jenny\AppData\Local\Temp\ccAyMdWJ.s 			page 126


 7063 1aa0 DA110000 		.4byte	.LLST89
 7064 1aa4 34       		.uleb128 0x34
 7065 1aa5 270C0000 		.4byte	0xc27
 7066 1aa9 1F120000 		.4byte	.LLST90
 7067 1aad 34       		.uleb128 0x34
 7068 1aae 310C0000 		.4byte	0xc31
 7069 1ab2 53120000 		.4byte	.LLST91
 7070 1ab6 3F       		.uleb128 0x3f
 7071 1ab7 FC0B0000 		.4byte	0xbfc
 7072 1abb 18000000 		.4byte	.LBB39
 7073 1abf A0000000 		.4byte	.Ldebug_ranges0+0xa0
 7074 1ac3 01       		.byte	0x1
 7075 1ac4 AD04     		.2byte	0x4ad
 7076 1ac6 FF1A0000 		.4byte	0x1aff
 7077 1aca 34       		.uleb128 0x34
 7078 1acb 310C0000 		.4byte	0xc31
 7079 1acf 8D120000 		.4byte	.LLST92
 7080 1ad3 34       		.uleb128 0x34
 7081 1ad4 1B0C0000 		.4byte	0xc1b
 7082 1ad8 A0120000 		.4byte	.LLST93
 7083 1adc 2B       		.uleb128 0x2b
 7084 1add B8000000 		.4byte	.Ldebug_ranges0+0xb8
 7085 1ae1 4A       		.uleb128 0x4a
 7086 1ae2 270C0000 		.4byte	0xc27
 7087 1ae6 4A       		.uleb128 0x4a
 7088 1ae7 0F0C0000 		.4byte	0xc0f
 7089 1aeb 2F       		.uleb128 0x2f
 7090 1aec 26000000 		.4byte	.LVL270
 7091 1af0 01       		.byte	0x1
 7092 1af1 3D1A0000 		.4byte	0x1a3d
 7093 1af5 2A       		.uleb128 0x2a
 7094 1af6 01       		.byte	0x1
 7095 1af7 50       		.byte	0x50
 7096 1af8 03       		.byte	0x3
 7097 1af9 F3       		.byte	0xf3
 7098 1afa 01       		.uleb128 0x1
 7099 1afb 51       		.byte	0x51
 7100 1afc 00       		.byte	0
 7101 1afd 00       		.byte	0
 7102 1afe 00       		.byte	0
 7103 1aff 29       		.uleb128 0x29
 7104 1b00 0E000000 		.4byte	.LVL266
 7105 1b04 950E0000 		.4byte	0xe95
 7106 1b08 141B0000 		.4byte	0x1b14
 7107 1b0c 2A       		.uleb128 0x2a
 7108 1b0d 01       		.byte	0x1
 7109 1b0e 50       		.byte	0x50
 7110 1b0f 03       		.byte	0x3
 7111 1b10 F3       		.byte	0xf3
 7112 1b11 01       		.uleb128 0x1
 7113 1b12 51       		.byte	0x51
 7114 1b13 00       		.byte	0
 7115 1b14 3A       		.uleb128 0x3a
 7116 1b15 14000000 		.4byte	.LVL267
 7117 1b19 31200000 		.4byte	0x2031
 7118 1b1d 2A       		.uleb128 0x2a
 7119 1b1e 01       		.byte	0x1
ARM GAS  C:\Users\jenny\AppData\Local\Temp\ccAyMdWJ.s 			page 127


 7120 1b1f 50       		.byte	0x50
 7121 1b20 02       		.byte	0x2
 7122 1b21 74       		.byte	0x74
 7123 1b22 00       		.sleb128 0
 7124 1b23 00       		.byte	0
 7125 1b24 00       		.byte	0
 7126 1b25 24       		.uleb128 0x24
 7127 1b26 01       		.byte	0x1
 7128 1b27 8F050000 		.4byte	.LASF219
 7129 1b2b 01       		.byte	0x1
 7130 1b2c 3D04     		.2byte	0x43d
 7131 1b2e 01       		.byte	0x1
 7132 1b2f B4010000 		.4byte	0x1b4
 7133 1b33 00000000 		.4byte	.LFB23
 7134 1b37 68000000 		.4byte	.LFE23
 7135 1b3b C1120000 		.4byte	.LLST94
 7136 1b3f 01       		.byte	0x1
 7137 1b40 E21B0000 		.4byte	0x1be2
 7138 1b44 1E       		.uleb128 0x1e
 7139 1b45 70636200 		.ascii	"pcb\000"
 7140 1b49 01       		.byte	0x1
 7141 1b4a 3D04     		.2byte	0x43d
 7142 1b4c D2030000 		.4byte	0x3d2
 7143 1b50 E1120000 		.4byte	.LLST95
 7144 1b54 21       		.uleb128 0x21
 7145 1b55 65727200 		.ascii	"err\000"
 7146 1b59 01       		.byte	0x1
 7147 1b5a 3F04     		.2byte	0x43f
 7148 1b5c B4010000 		.4byte	0x1b4
 7149 1b60 15130000 		.4byte	.LLST96
 7150 1b64 27       		.uleb128 0x27
 7151 1b65 27060000 		.4byte	.LASF220
 7152 1b69 01       		.byte	0x1
 7153 1b6a 4004     		.2byte	0x440
 7154 1b6c D3000000 		.4byte	0xd3
 7155 1b70 49130000 		.4byte	.LLST97
 7156 1b74 27       		.uleb128 0x27
 7157 1b75 58080000 		.4byte	.LASF101
 7158 1b79 01       		.byte	0x1
 7159 1b7a 4304     		.2byte	0x443
 7160 1b7c 2E020000 		.4byte	0x22e
 7161 1b80 8A130000 		.4byte	.LLST98
 7162 1b84 38       		.uleb128 0x38
 7163 1b85 1A000000 		.4byte	.LVL274
 7164 1b89 02       		.byte	0x2
 7165 1b8a 76       		.byte	0x76
 7166 1b8b 00       		.sleb128 0
 7167 1b8c A21B0000 		.4byte	0x1ba2
 7168 1b90 2A       		.uleb128 0x2a
 7169 1b91 01       		.byte	0x1
 7170 1b92 53       		.byte	0x53
 7171 1b93 01       		.byte	0x1
 7172 1b94 30       		.byte	0x30
 7173 1b95 2A       		.uleb128 0x2a
 7174 1b96 01       		.byte	0x1
 7175 1b97 52       		.byte	0x52
 7176 1b98 02       		.byte	0x2
ARM GAS  C:\Users\jenny\AppData\Local\Temp\ccAyMdWJ.s 			page 128


 7177 1b99 75       		.byte	0x75
 7178 1b9a 00       		.sleb128 0
 7179 1b9b 2A       		.uleb128 0x2a
 7180 1b9c 01       		.byte	0x1
 7181 1b9d 51       		.byte	0x51
 7182 1b9e 02       		.byte	0x2
 7183 1b9f 74       		.byte	0x74
 7184 1ba0 00       		.sleb128 0
 7185 1ba1 00       		.byte	0
 7186 1ba2 38       		.uleb128 0x38
 7187 1ba3 40000000 		.4byte	.LVL278
 7188 1ba7 02       		.byte	0x2
 7189 1ba8 75       		.byte	0x75
 7190 1ba9 00       		.sleb128 0
 7191 1baa BF1B0000 		.4byte	0x1bbf
 7192 1bae 2A       		.uleb128 0x2a
 7193 1baf 01       		.byte	0x1
 7194 1bb0 53       		.byte	0x53
 7195 1bb1 01       		.byte	0x1
 7196 1bb2 30       		.byte	0x30
 7197 1bb3 2A       		.uleb128 0x2a
 7198 1bb4 01       		.byte	0x1
 7199 1bb5 52       		.byte	0x52
 7200 1bb6 01       		.byte	0x1
 7201 1bb7 30       		.byte	0x30
 7202 1bb8 2A       		.uleb128 0x2a
 7203 1bb9 01       		.byte	0x1
 7204 1bba 51       		.byte	0x51
 7205 1bbb 02       		.byte	0x2
 7206 1bbc 74       		.byte	0x74
 7207 1bbd 00       		.sleb128 0
 7208 1bbe 00       		.byte	0
 7209 1bbf 3A       		.uleb128 0x3a
 7210 1bc0 62000000 		.4byte	.LVL284
 7211 1bc4 FC0B0000 		.4byte	0xbfc
 7212 1bc8 2A       		.uleb128 0x2a
 7213 1bc9 01       		.byte	0x1
 7214 1bca 53       		.byte	0x53
 7215 1bcb 02       		.byte	0x2
 7216 1bcc 76       		.byte	0x76
 7217 1bcd 00       		.sleb128 0
 7218 1bce 2A       		.uleb128 0x2a
 7219 1bcf 01       		.byte	0x1
 7220 1bd0 52       		.byte	0x52
 7221 1bd1 02       		.byte	0x2
 7222 1bd2 75       		.byte	0x75
 7223 1bd3 00       		.sleb128 0
 7224 1bd4 2A       		.uleb128 0x2a
 7225 1bd5 01       		.byte	0x1
 7226 1bd6 51       		.byte	0x51
 7227 1bd7 02       		.byte	0x2
 7228 1bd8 74       		.byte	0x74
 7229 1bd9 00       		.sleb128 0
 7230 1bda 2A       		.uleb128 0x2a
 7231 1bdb 01       		.byte	0x1
 7232 1bdc 50       		.byte	0x50
 7233 1bdd 02       		.byte	0x2
ARM GAS  C:\Users\jenny\AppData\Local\Temp\ccAyMdWJ.s 			page 129


 7234 1bde 76       		.byte	0x76
 7235 1bdf 00       		.sleb128 0
 7236 1be0 00       		.byte	0
 7237 1be1 00       		.byte	0
 7238 1be2 2D       		.uleb128 0x2d
 7239 1be3 01       		.byte	0x1
 7240 1be4 82010000 		.4byte	.LASF221
 7241 1be8 01       		.byte	0x1
 7242 1be9 1604     		.2byte	0x416
 7243 1beb 01       		.byte	0x1
 7244 1bec 00000000 		.4byte	.LFB22
 7245 1bf0 70000000 		.4byte	.LFE22
 7246 1bf4 A8130000 		.4byte	.LLST99
 7247 1bf8 01       		.byte	0x1
 7248 1bf9 491C0000 		.4byte	0x1c49
 7249 1bfd 21       		.uleb128 0x21
 7250 1bfe 70636200 		.ascii	"pcb\000"
 7251 1c02 01       		.byte	0x1
 7252 1c03 1804     		.2byte	0x418
 7253 1c05 D2030000 		.4byte	0x3d2
 7254 1c09 C8130000 		.4byte	.LLST100
 7255 1c0d 22       		.uleb128 0x22
 7256 1c0e 80030000 		.4byte	.LASF223
 7257 1c12 01       		.byte	0x1
 7258 1c13 1C04     		.2byte	0x41c
 7259 1c15 14000000 		.4byte	.L456
 7260 1c19 2B       		.uleb128 0x2b
 7261 1c1a D0000000 		.4byte	.Ldebug_ranges0+0xd0
 7262 1c1e 27       		.uleb128 0x27
 7263 1c1f 450B0000 		.4byte	.LASF46
 7264 1c23 01       		.byte	0x1
 7265 1c24 2104     		.2byte	0x421
 7266 1c26 D2030000 		.4byte	0x3d2
 7267 1c2a F1130000 		.4byte	.LLST101
 7268 1c2e 28       		.uleb128 0x28
 7269 1c2f 40000000 		.4byte	.LVL288
 7270 1c33 251B0000 		.4byte	0x1b25
 7271 1c37 3A       		.uleb128 0x3a
 7272 1c38 5A000000 		.4byte	.LVL291
 7273 1c3c 18200000 		.4byte	0x2018
 7274 1c40 2A       		.uleb128 0x2a
 7275 1c41 01       		.byte	0x1
 7276 1c42 50       		.byte	0x50
 7277 1c43 02       		.byte	0x2
 7278 1c44 74       		.byte	0x74
 7279 1c45 00       		.sleb128 0
 7280 1c46 00       		.byte	0
 7281 1c47 00       		.byte	0
 7282 1c48 00       		.byte	0
 7283 1c49 4B       		.uleb128 0x4b
 7284 1c4a 01       		.byte	0x1
 7285 1c4b 5A050000 		.4byte	.LASF224
 7286 1c4f 01       		.byte	0x1
 7287 1c50 8D       		.byte	0x8d
 7288 1c51 01       		.byte	0x1
 7289 1c52 00000000 		.4byte	.LFB8
 7290 1c56 24000000 		.4byte	.LFE8
ARM GAS  C:\Users\jenny\AppData\Local\Temp\ccAyMdWJ.s 			page 130


 7291 1c5a 04140000 		.4byte	.LLST102
 7292 1c5e 01       		.byte	0x1
 7293 1c5f 771C0000 		.4byte	0x1c77
 7294 1c63 28       		.uleb128 0x28
 7295 1c64 06000000 		.4byte	.LVL292
 7296 1c68 E21B0000 		.4byte	0x1be2
 7297 1c6c 49       		.uleb128 0x49
 7298 1c6d 1E000000 		.4byte	.LVL293
 7299 1c71 01       		.byte	0x1
 7300 1c72 39120000 		.4byte	0x1239
 7301 1c76 00       		.byte	0
 7302 1c77 4C       		.uleb128 0x4c
 7303 1c78 3E0C0000 		.4byte	0xc3e
 7304 1c7c 00000000 		.4byte	.LFB41
 7305 1c80 1A000000 		.4byte	.LFE41
 7306 1c84 02       		.byte	0x2
 7307 1c85 7D       		.byte	0x7d
 7308 1c86 00       		.sleb128 0
 7309 1c87 01       		.byte	0x1
 7310 1c88 981C0000 		.4byte	0x1c98
 7311 1c8c 40       		.uleb128 0x40
 7312 1c8d 510C0000 		.4byte	0xc51
 7313 1c91 05       		.byte	0x5
 7314 1c92 03       		.byte	0x3
 7315 1c93 00000000 		.4byte	iss.6034
 7316 1c97 00       		.byte	0
 7317 1c98 24       		.uleb128 0x24
 7318 1c99 01       		.byte	0x1
 7319 1c9a A7010000 		.4byte	.LASF225
 7320 1c9e 01       		.byte	0x1
 7321 1c9f 3206     		.2byte	0x632
 7322 1ca1 01       		.byte	0x1
 7323 1ca2 E9000000 		.4byte	0xe9
 7324 1ca6 00000000 		.4byte	.LFB42
 7325 1caa 1E000000 		.4byte	.LFE42
 7326 1cae 24140000 		.4byte	.LLST103
 7327 1cb2 01       		.byte	0x1
 7328 1cb3 091D0000 		.4byte	0x1d09
 7329 1cb7 25       		.uleb128 0x25
 7330 1cb8 AF060000 		.4byte	.LASF226
 7331 1cbc 01       		.byte	0x1
 7332 1cbd 3206     		.2byte	0x632
 7333 1cbf E9000000 		.4byte	0xe9
 7334 1cc3 44140000 		.4byte	.LLST104
 7335 1cc7 25       		.uleb128 0x25
 7336 1cc8 68060000 		.4byte	.LASF45
 7337 1ccc 01       		.byte	0x1
 7338 1ccd 3206     		.2byte	0x632
 7339 1ccf 5B030000 		.4byte	0x35b
 7340 1cd3 70140000 		.4byte	.LLST105
 7341 1cd7 27       		.uleb128 0x27
 7342 1cd8 62010000 		.4byte	.LASF227
 7343 1cdc 01       		.byte	0x1
 7344 1cdd 3406     		.2byte	0x634
 7345 1cdf E9000000 		.4byte	0xe9
 7346 1ce3 91140000 		.4byte	.LLST106
 7347 1ce7 27       		.uleb128 0x27
ARM GAS  C:\Users\jenny\AppData\Local\Temp\ccAyMdWJ.s 			page 131


 7348 1ce8 40040000 		.4byte	.LASF228
 7349 1cec 01       		.byte	0x1
 7350 1ced 3506     		.2byte	0x635
 7351 1cef 34020000 		.4byte	0x234
 7352 1cf3 B3140000 		.4byte	.LLST107
 7353 1cf7 3A       		.uleb128 0x3a
 7354 1cf8 0A000000 		.4byte	.LVL296
 7355 1cfc 03210000 		.4byte	0x2103
 7356 1d00 2A       		.uleb128 0x2a
 7357 1d01 01       		.byte	0x1
 7358 1d02 50       		.byte	0x50
 7359 1d03 03       		.byte	0x3
 7360 1d04 F3       		.byte	0xf3
 7361 1d05 01       		.uleb128 0x1
 7362 1d06 51       		.byte	0x51
 7363 1d07 00       		.byte	0
 7364 1d08 00       		.byte	0
 7365 1d09 24       		.uleb128 0x24
 7366 1d0a 01       		.byte	0x1
 7367 1d0b 37030000 		.4byte	.LASF229
 7368 1d0f 01       		.byte	0x1
 7369 1d10 AC02     		.2byte	0x2ac
 7370 1d12 01       		.byte	0x1
 7371 1d13 B4010000 		.4byte	0x1b4
 7372 1d17 00000000 		.4byte	.LFB20
 7373 1d1b 28010000 		.4byte	.LFE20
 7374 1d1f C6140000 		.4byte	.LLST108
 7375 1d23 01       		.byte	0x1
 7376 1d24 4A1E0000 		.4byte	0x1e4a
 7377 1d28 1E       		.uleb128 0x1e
 7378 1d29 70636200 		.ascii	"pcb\000"
 7379 1d2d 01       		.byte	0x1
 7380 1d2e AC02     		.2byte	0x2ac
 7381 1d30 D2030000 		.4byte	0x3d2
 7382 1d34 E6140000 		.4byte	.LLST109
 7383 1d38 25       		.uleb128 0x25
 7384 1d39 8E010000 		.4byte	.LASF167
 7385 1d3d 01       		.byte	0x1
 7386 1d3e AC02     		.2byte	0x2ac
 7387 1d40 5B030000 		.4byte	0x35b
 7388 1d44 30150000 		.4byte	.LLST110
 7389 1d48 25       		.uleb128 0x25
 7390 1d49 B5090000 		.4byte	.LASF168
 7391 1d4d 01       		.byte	0x1
 7392 1d4e AC02     		.2byte	0x2ac
 7393 1d50 E9000000 		.4byte	0xe9
 7394 1d54 C0150000 		.4byte	.LLST111
 7395 1d58 25       		.uleb128 0x25
 7396 1d59 5E0B0000 		.4byte	.LASF104
 7397 1d5d 01       		.byte	0x1
 7398 1d5e AD02     		.2byte	0x2ad
 7399 1d60 A5070000 		.4byte	0x7a5
 7400 1d64 13160000 		.4byte	.LLST112
 7401 1d68 21       		.uleb128 0x21
 7402 1d69 72657400 		.ascii	"ret\000"
 7403 1d6d 01       		.byte	0x1
 7404 1d6e AF02     		.2byte	0x2af
ARM GAS  C:\Users\jenny\AppData\Local\Temp\ccAyMdWJ.s 			page 132


 7405 1d70 B4010000 		.4byte	0x1b4
 7406 1d74 5D160000 		.4byte	.LLST113
 7407 1d78 3E       		.uleb128 0x3e
 7408 1d79 69737300 		.ascii	"iss\000"
 7409 1d7d 01       		.byte	0x1
 7410 1d7e B002     		.2byte	0x2b0
 7411 1d80 FF000000 		.4byte	0xff
 7412 1d84 01       		.byte	0x1
 7413 1d85 52       		.byte	0x52
 7414 1d86 27       		.uleb128 0x27
 7415 1d87 7B090000 		.4byte	.LASF230
 7416 1d8b 01       		.byte	0x1
 7417 1d8c B102     		.2byte	0x2b1
 7418 1d8e E9000000 		.4byte	0xe9
 7419 1d92 70160000 		.4byte	.LLST114
 7420 1d96 37       		.uleb128 0x37
 7421 1d97 F8000000 		.4byte	.Ldebug_ranges0+0xf8
 7422 1d9b C01D0000 		.4byte	0x1dc0
 7423 1d9f 27       		.uleb128 0x27
 7424 1da0 15050000 		.4byte	.LASF51
 7425 1da4 01       		.byte	0x1
 7426 1da5 C002     		.2byte	0x2c0
 7427 1da7 34020000 		.4byte	0x234
 7428 1dab 9A160000 		.4byte	.LLST115
 7429 1daf 3A       		.uleb128 0x3a
 7430 1db0 24000000 		.4byte	.LVL305
 7431 1db4 03210000 		.4byte	0x2103
 7432 1db8 2A       		.uleb128 0x2a
 7433 1db9 01       		.byte	0x1
 7434 1dba 50       		.byte	0x50
 7435 1dbb 02       		.byte	0x2
 7436 1dbc 74       		.byte	0x74
 7437 1dbd 04       		.sleb128 4
 7438 1dbe 00       		.byte	0
 7439 1dbf 00       		.byte	0
 7440 1dc0 3F       		.uleb128 0x3f
 7441 1dc1 3E0C0000 		.4byte	0xc3e
 7442 1dc5 40000000 		.4byte	.LBB48
 7443 1dc9 10010000 		.4byte	.Ldebug_ranges0+0x110
 7444 1dcd 01       		.byte	0x1
 7445 1dce E502     		.2byte	0x2e5
 7446 1dd0 E61D0000 		.4byte	0x1de6
 7447 1dd4 2B       		.uleb128 0x2b
 7448 1dd5 28010000 		.4byte	.Ldebug_ranges0+0x128
 7449 1dd9 40       		.uleb128 0x40
 7450 1dda 510C0000 		.4byte	0xc51
 7451 1dde 05       		.byte	0x5
 7452 1ddf 03       		.byte	0x3
 7453 1de0 00000000 		.4byte	iss.6034
 7454 1de4 00       		.byte	0
 7455 1de5 00       		.byte	0
 7456 1de6 28       		.uleb128 0x28
 7457 1de7 3A000000 		.4byte	.LVL308
 7458 1deb A80C0000 		.4byte	0xca8
 7459 1def 29       		.uleb128 0x29
 7460 1df0 78000000 		.4byte	.LVL309
 7461 1df4 981C0000 		.4byte	0x1c98
ARM GAS  C:\Users\jenny\AppData\Local\Temp\ccAyMdWJ.s 			page 133


 7462 1df8 0A1E0000 		.4byte	0x1e0a
 7463 1dfc 2A       		.uleb128 0x2a
 7464 1dfd 01       		.byte	0x1
 7465 1dfe 51       		.byte	0x51
 7466 1dff 02       		.byte	0x2
 7467 1e00 75       		.byte	0x75
 7468 1e01 00       		.sleb128 0
 7469 1e02 2A       		.uleb128 0x2a
 7470 1e03 01       		.byte	0x1
 7471 1e04 50       		.byte	0x50
 7472 1e05 03       		.byte	0x3
 7473 1e06 0A       		.byte	0xa
 7474 1e07 1802     		.2byte	0x218
 7475 1e09 00       		.byte	0
 7476 1e0a 29       		.uleb128 0x29
 7477 1e0b 96000000 		.4byte	.LVL311
 7478 1e0f 1B210000 		.4byte	0x211b
 7479 1e13 231E0000 		.4byte	0x1e23
 7480 1e17 2A       		.uleb128 0x2a
 7481 1e18 01       		.byte	0x1
 7482 1e19 51       		.byte	0x51
 7483 1e1a 01       		.byte	0x1
 7484 1e1b 32       		.byte	0x32
 7485 1e1c 2A       		.uleb128 0x2a
 7486 1e1d 01       		.byte	0x1
 7487 1e1e 50       		.byte	0x50
 7488 1e1f 02       		.byte	0x2
 7489 1e20 74       		.byte	0x74
 7490 1e21 00       		.sleb128 0
 7491 1e22 00       		.byte	0
 7492 1e23 28       		.uleb128 0x28
 7493 1e24 DE000000 		.4byte	.LVL316
 7494 1e28 D11F0000 		.4byte	0x1fd1
 7495 1e2c 29       		.uleb128 0x29
 7496 1e2d EA000000 		.4byte	.LVL317
 7497 1e31 18200000 		.4byte	0x2018
 7498 1e35 401E0000 		.4byte	0x1e40
 7499 1e39 2A       		.uleb128 0x2a
 7500 1e3a 01       		.byte	0x1
 7501 1e3b 50       		.byte	0x50
 7502 1e3c 02       		.byte	0x2
 7503 1e3d 74       		.byte	0x74
 7504 1e3e 00       		.sleb128 0
 7505 1e3f 00       		.byte	0
 7506 1e40 28       		.uleb128 0x28
 7507 1e41 06010000 		.4byte	.LVL321
 7508 1e45 DC1F0000 		.4byte	0x1fdc
 7509 1e49 00       		.byte	0
 7510 1e4a 44       		.uleb128 0x44
 7511 1e4b 01       		.byte	0x1
 7512 1e4c CE060000 		.4byte	.LASF231
 7513 1e50 01       		.byte	0x1
 7514 1e51 4506     		.2byte	0x645
 7515 1e53 01       		.byte	0x1
 7516 1e54 C1000000 		.4byte	0xc1
 7517 1e58 00000000 		.4byte	.LFB43
 7518 1e5c 0E000000 		.4byte	.LFE43
ARM GAS  C:\Users\jenny\AppData\Local\Temp\ccAyMdWJ.s 			page 134


 7519 1e60 02       		.byte	0x2
 7520 1e61 7D       		.byte	0x7d
 7521 1e62 00       		.sleb128 0
 7522 1e63 01       		.byte	0x1
 7523 1e64 771E0000 		.4byte	0x1e77
 7524 1e68 1E       		.uleb128 0x1e
 7525 1e69 7300     		.ascii	"s\000"
 7526 1e6b 01       		.byte	0x1
 7527 1e6c 4506     		.2byte	0x645
 7528 1e6e B0070000 		.4byte	0x7b0
 7529 1e72 B8160000 		.4byte	.LLST116
 7530 1e76 00       		.byte	0
 7531 1e77 4D       		.uleb128 0x4d
 7532 1e78 ED010000 		.4byte	.LASF232
 7533 1e7c 01       		.byte	0x1
 7534 1e7d 59       		.byte	0x59
 7535 1e7e E9000000 		.4byte	0xe9
 7536 1e82 05       		.byte	0x5
 7537 1e83 03       		.byte	0x3
 7538 1e84 00000000 		.4byte	tcp_port
 7539 1e88 4D       		.uleb128 0x4d
 7540 1e89 AA030000 		.4byte	.LASF233
 7541 1e8d 01       		.byte	0x1
 7542 1e8e 7A       		.byte	0x7a
 7543 1e8f D3000000 		.4byte	0xd3
 7544 1e93 05       		.byte	0x5
 7545 1e94 03       		.byte	0x3
 7546 1e95 00000000 		.4byte	tcp_timer
 7547 1e99 4D       		.uleb128 0x4d
 7548 1e9a C7050000 		.4byte	.LASF234
 7549 1e9e 01       		.byte	0x1
 7550 1e9f 7B       		.byte	0x7b
 7551 1ea0 D3000000 		.4byte	0xd3
 7552 1ea4 05       		.byte	0x5
 7553 1ea5 03       		.byte	0x3
 7554 1ea6 00000000 		.4byte	tcp_timer_ctr
 7555 1eaa 4E       		.uleb128 0x4e
 7556 1eab 10060000 		.4byte	.LASF235
 7557 1eaf 01       		.byte	0x1
 7558 1eb0 5C       		.byte	0x5c
 7559 1eb1 FF000000 		.4byte	0xff
 7560 1eb5 01       		.byte	0x1
 7561 1eb6 05       		.byte	0x5
 7562 1eb7 03       		.byte	0x3
 7563 1eb8 00000000 		.4byte	tcp_ticks
 7564 1ebc 4E       		.uleb128 0x4e
 7565 1ebd 94000000 		.4byte	.LASF236
 7566 1ec1 01       		.byte	0x1
 7567 1ec2 77       		.byte	0x77
 7568 1ec3 D3000000 		.4byte	0xd3
 7569 1ec7 01       		.byte	0x1
 7570 1ec8 05       		.byte	0x5
 7571 1ec9 03       		.byte	0x3
 7572 1eca 00000000 		.4byte	tcp_active_pcbs_changed
 7573 1ece 4E       		.uleb128 0x4e
 7574 1ecf D5050000 		.4byte	.LASF237
 7575 1ed3 01       		.byte	0x1
ARM GAS  C:\Users\jenny\AppData\Local\Temp\ccAyMdWJ.s 			page 135


 7576 1ed4 65       		.byte	0x65
 7577 1ed5 D2030000 		.4byte	0x3d2
 7578 1ed9 01       		.byte	0x1
 7579 1eda 05       		.byte	0x5
 7580 1edb 03       		.byte	0x3
 7581 1edc 00000000 		.4byte	tcp_bound_pcbs
 7582 1ee0 4E       		.uleb128 0x4e
 7583 1ee1 F5060000 		.4byte	.LASF238
 7584 1ee5 01       		.byte	0x1
 7585 1ee6 67       		.byte	0x67
 7586 1ee7 98090000 		.4byte	0x998
 7587 1eeb 01       		.byte	0x1
 7588 1eec 05       		.byte	0x5
 7589 1eed 03       		.byte	0x3
 7590 1eee 00000000 		.4byte	tcp_listen_pcbs
 7591 1ef2 4E       		.uleb128 0x4e
 7592 1ef3 00060000 		.4byte	.LASF239
 7593 1ef7 01       		.byte	0x1
 7594 1ef8 6A       		.byte	0x6a
 7595 1ef9 D2030000 		.4byte	0x3d2
 7596 1efd 01       		.byte	0x1
 7597 1efe 05       		.byte	0x5
 7598 1eff 03       		.byte	0x3
 7599 1f00 00000000 		.4byte	tcp_active_pcbs
 7600 1f04 4E       		.uleb128 0x4e
 7601 1f05 C70A0000 		.4byte	.LASF240
 7602 1f09 01       		.byte	0x1
 7603 1f0a 6C       		.byte	0x6c
 7604 1f0b D2030000 		.4byte	0x3d2
 7605 1f0f 01       		.byte	0x1
 7606 1f10 05       		.byte	0x5
 7607 1f11 03       		.byte	0x3
 7608 1f12 00000000 		.4byte	tcp_tw_pcbs
 7609 1f16 4E       		.uleb128 0x4e
 7610 1f17 60020000 		.4byte	.LASF241
 7611 1f1b 01       		.byte	0x1
 7612 1f1c 75       		.byte	0x75
 7613 1f1d D2030000 		.4byte	0x3d2
 7614 1f21 01       		.byte	0x1
 7615 1f22 05       		.byte	0x5
 7616 1f23 03       		.byte	0x3
 7617 1f24 00000000 		.4byte	tcp_tmp_pcb
 7618 1f28 4F       		.uleb128 0x4f
 7619 1f29 F0090000 		.4byte	.LASF242
 7620 1f2d 0C       		.byte	0xc
 7621 1f2e 95       		.byte	0x95
 7622 1f2f 330B0000 		.4byte	0xb33
 7623 1f33 01       		.byte	0x1
 7624 1f34 01       		.byte	0x1
 7625 1f35 0F       		.uleb128 0xf
 7626 1f36 C1000000 		.4byte	0xc1
 7627 1f3a 451F0000 		.4byte	0x1f45
 7628 1f3e 10       		.uleb128 0x10
 7629 1f3f BA000000 		.4byte	0xba
 7630 1f43 0A       		.byte	0xa
 7631 1f44 00       		.byte	0
 7632 1f45 4E       		.uleb128 0x4e
ARM GAS  C:\Users\jenny\AppData\Local\Temp\ccAyMdWJ.s 			page 136


 7633 1f46 DF080000 		.4byte	.LASF243
 7634 1f4a 01       		.byte	0x1
 7635 1f4b 4A       		.byte	0x4a
 7636 1f4c 571F0000 		.4byte	0x1f57
 7637 1f50 01       		.byte	0x1
 7638 1f51 05       		.byte	0x5
 7639 1f52 03       		.byte	0x3
 7640 1f53 00000000 		.4byte	tcp_state_str
 7641 1f57 07       		.uleb128 0x7
 7642 1f58 351F0000 		.4byte	0x1f35
 7643 1f5c 0F       		.uleb128 0xf
 7644 1f5d D3000000 		.4byte	0xd3
 7645 1f61 6C1F0000 		.4byte	0x1f6c
 7646 1f65 10       		.uleb128 0x10
 7647 1f66 BA000000 		.4byte	0xba
 7648 1f6a 0C       		.byte	0xc
 7649 1f6b 00       		.byte	0
 7650 1f6c 4E       		.uleb128 0x4e
 7651 1f6d 50030000 		.4byte	.LASF244
 7652 1f71 01       		.byte	0x1
 7653 1f72 5D       		.byte	0x5d
 7654 1f73 7E1F0000 		.4byte	0x1f7e
 7655 1f77 01       		.byte	0x1
 7656 1f78 05       		.byte	0x5
 7657 1f79 03       		.byte	0x3
 7658 1f7a 00000000 		.4byte	tcp_backoff
 7659 1f7e 07       		.uleb128 0x7
 7660 1f7f 5C1F0000 		.4byte	0x1f5c
 7661 1f83 0F       		.uleb128 0xf
 7662 1f84 D3000000 		.4byte	0xd3
 7663 1f88 931F0000 		.4byte	0x1f93
 7664 1f8c 10       		.uleb128 0x10
 7665 1f8d BA000000 		.4byte	0xba
 7666 1f91 06       		.byte	0x6
 7667 1f92 00       		.byte	0
 7668 1f93 4E       		.uleb128 0x4e
 7669 1f94 44000000 		.4byte	.LASF245
 7670 1f98 01       		.byte	0x1
 7671 1f99 60       		.byte	0x60
 7672 1f9a A51F0000 		.4byte	0x1fa5
 7673 1f9e 01       		.byte	0x1
 7674 1f9f 05       		.byte	0x5
 7675 1fa0 03       		.byte	0x3
 7676 1fa1 00000000 		.4byte	tcp_persist_backoff
 7677 1fa5 07       		.uleb128 0x7
 7678 1fa6 831F0000 		.4byte	0x1f83
 7679 1faa 0F       		.uleb128 0xf
 7680 1fab C1140000 		.4byte	0x14c1
 7681 1faf BA1F0000 		.4byte	0x1fba
 7682 1fb3 10       		.uleb128 0x10
 7683 1fb4 BA000000 		.4byte	0xba
 7684 1fb8 03       		.byte	0x3
 7685 1fb9 00       		.byte	0
 7686 1fba 4E       		.uleb128 0x4e
 7687 1fbb 6E050000 		.4byte	.LASF246
 7688 1fbf 01       		.byte	0x1
 7689 1fc0 71       		.byte	0x71
ARM GAS  C:\Users\jenny\AppData\Local\Temp\ccAyMdWJ.s 			page 137


 7690 1fc1 CC1F0000 		.4byte	0x1fcc
 7691 1fc5 01       		.byte	0x1
 7692 1fc6 05       		.byte	0x5
 7693 1fc7 03       		.byte	0x3
 7694 1fc8 00000000 		.4byte	tcp_pcb_lists
 7695 1fcc 07       		.uleb128 0x7
 7696 1fcd AA1F0000 		.4byte	0x1faa
 7697 1fd1 50       		.uleb128 0x50
 7698 1fd2 01       		.byte	0x1
 7699 1fd3 17040000 		.4byte	.LASF247
 7700 1fd7 0B       		.byte	0xb
 7701 1fd8 DD01     		.2byte	0x1dd
 7702 1fda 01       		.byte	0x1
 7703 1fdb 01       		.byte	0x1
 7704 1fdc 50       		.uleb128 0x50
 7705 1fdd 01       		.byte	0x1
 7706 1fde F3020000 		.4byte	.LASF248
 7707 1fe2 0D       		.byte	0xd
 7708 1fe3 0102     		.2byte	0x201
 7709 1fe5 01       		.byte	0x1
 7710 1fe6 01       		.byte	0x1
 7711 1fe7 51       		.uleb128 0x51
 7712 1fe8 01       		.byte	0x1
 7713 1fe9 06030000 		.4byte	.LASF249
 7714 1fed 05       		.byte	0x5
 7715 1fee 6A       		.byte	0x6a
 7716 1fef 01       		.byte	0x1
 7717 1ff0 B8000000 		.4byte	0xb8
 7718 1ff4 01       		.byte	0x1
 7719 1ff5 FF1F0000 		.4byte	0x1fff
 7720 1ff9 0E       		.uleb128 0xe
 7721 1ffa 83010000 		.4byte	0x183
 7722 1ffe 00       		.byte	0
 7723 1fff 52       		.uleb128 0x52
 7724 2000 01       		.byte	0x1
 7725 2001 91080000 		.4byte	.LASF251
 7726 2005 05       		.byte	0x5
 7727 2006 6C       		.byte	0x6c
 7728 2007 01       		.byte	0x1
 7729 2008 01       		.byte	0x1
 7730 2009 18200000 		.4byte	0x2018
 7731 200d 0E       		.uleb128 0xe
 7732 200e 83010000 		.4byte	0x183
 7733 2012 0E       		.uleb128 0xe
 7734 2013 B8000000 		.4byte	0xb8
 7735 2017 00       		.byte	0
 7736 2018 53       		.uleb128 0x53
 7737 2019 01       		.byte	0x1
 7738 201a 7C050000 		.4byte	.LASF252
 7739 201e 0A       		.byte	0xa
 7740 201f 6F01     		.2byte	0x16f
 7741 2021 01       		.byte	0x1
 7742 2022 B4010000 		.4byte	0x1b4
 7743 2026 01       		.byte	0x1
 7744 2027 31200000 		.4byte	0x2031
 7745 202b 0E       		.uleb128 0xe
 7746 202c D2030000 		.4byte	0x3d2
ARM GAS  C:\Users\jenny\AppData\Local\Temp\ccAyMdWJ.s 			page 138


 7747 2030 00       		.byte	0
 7748 2031 51       		.uleb128 0x51
 7749 2032 01       		.byte	0x1
 7750 2033 D5080000 		.4byte	.LASF253
 7751 2037 08       		.byte	0x8
 7752 2038 9B       		.byte	0x9b
 7753 2039 01       		.byte	0x1
 7754 203a D3000000 		.4byte	0xd3
 7755 203e 01       		.byte	0x1
 7756 203f 49200000 		.4byte	0x2049
 7757 2043 0E       		.uleb128 0xe
 7758 2044 2E020000 		.4byte	0x22e
 7759 2048 00       		.byte	0
 7760 2049 52       		.uleb128 0x52
 7761 204a 01       		.byte	0x1
 7762 204b E4050000 		.4byte	.LASF254
 7763 204f 08       		.byte	0x8
 7764 2050 9A       		.byte	0x9a
 7765 2051 01       		.byte	0x1
 7766 2052 01       		.byte	0x1
 7767 2053 5D200000 		.4byte	0x205d
 7768 2057 0E       		.uleb128 0xe
 7769 2058 2E020000 		.4byte	0x22e
 7770 205c 00       		.byte	0
 7771 205d 54       		.uleb128 0x54
 7772 205e 01       		.byte	0x1
 7773 205f 90020000 		.4byte	.LASF255
 7774 2063 0B       		.byte	0xb
 7775 2064 BC01     		.2byte	0x1bc
 7776 2066 01       		.byte	0x1
 7777 2067 01       		.byte	0x1
 7778 2068 8B200000 		.4byte	0x208b
 7779 206c 0E       		.uleb128 0xe
 7780 206d FF000000 		.4byte	0xff
 7781 2071 0E       		.uleb128 0xe
 7782 2072 FF000000 		.4byte	0xff
 7783 2076 0E       		.uleb128 0xe
 7784 2077 5B030000 		.4byte	0x35b
 7785 207b 0E       		.uleb128 0xe
 7786 207c 5B030000 		.4byte	0x35b
 7787 2080 0E       		.uleb128 0xe
 7788 2081 E9000000 		.4byte	0xe9
 7789 2085 0E       		.uleb128 0xe
 7790 2086 E9000000 		.4byte	0xe9
 7791 208a 00       		.byte	0
 7792 208b 54       		.uleb128 0x54
 7793 208c 01       		.byte	0x1
 7794 208d DA040000 		.4byte	.LASF256
 7795 2091 0B       		.byte	0xb
 7796 2092 C301     		.2byte	0x1c3
 7797 2094 01       		.byte	0x1
 7798 2095 01       		.byte	0x1
 7799 2096 A0200000 		.4byte	0x20a0
 7800 209a 0E       		.uleb128 0xe
 7801 209b D2030000 		.4byte	0x3d2
 7802 209f 00       		.byte	0
 7803 20a0 52       		.uleb128 0x52
ARM GAS  C:\Users\jenny\AppData\Local\Temp\ccAyMdWJ.s 			page 139


 7804 20a1 01       		.byte	0x1
 7805 20a2 28050000 		.4byte	.LASF257
 7806 20a6 0B       		.byte	0xb
 7807 20a7 46       		.byte	0x46
 7808 20a8 01       		.byte	0x1
 7809 20a9 01       		.byte	0x1
 7810 20aa B4200000 		.4byte	0x20b4
 7811 20ae 0E       		.uleb128 0xe
 7812 20af D2030000 		.4byte	0x3d2
 7813 20b3 00       		.byte	0
 7814 20b4 54       		.uleb128 0x54
 7815 20b5 01       		.byte	0x1
 7816 20b6 4C010000 		.4byte	.LASF258
 7817 20ba 0B       		.byte	0xb
 7818 20bb C201     		.2byte	0x1c2
 7819 20bd 01       		.byte	0x1
 7820 20be 01       		.byte	0x1
 7821 20bf C9200000 		.4byte	0x20c9
 7822 20c3 0E       		.uleb128 0xe
 7823 20c4 D2030000 		.4byte	0x3d2
 7824 20c8 00       		.byte	0
 7825 20c9 55       		.uleb128 0x55
 7826 20ca 01       		.byte	0x1
 7827 20cb B0080000 		.4byte	.LASF259
 7828 20cf 01       		.byte	0x1
 7829 20d0 B8000000 		.4byte	0xb8
 7830 20d4 01       		.byte	0x1
 7831 20d5 01       		.byte	0x1
 7832 20d6 EA200000 		.4byte	0x20ea
 7833 20da 0E       		.uleb128 0xe
 7834 20db B8000000 		.4byte	0xb8
 7835 20df 0E       		.uleb128 0xe
 7836 20e0 29000000 		.4byte	0x29
 7837 20e4 0E       		.uleb128 0xe
 7838 20e5 BA000000 		.4byte	0xba
 7839 20e9 00       		.byte	0
 7840 20ea 53       		.uleb128 0x53
 7841 20eb 01       		.byte	0x1
 7842 20ec 41090000 		.4byte	.LASF260
 7843 20f0 0B       		.byte	0xb
 7844 20f1 B701     		.2byte	0x1b7
 7845 20f3 01       		.byte	0x1
 7846 20f4 B4010000 		.4byte	0x1b4
 7847 20f8 01       		.byte	0x1
 7848 20f9 03210000 		.4byte	0x2103
 7849 20fd 0E       		.uleb128 0xe
 7850 20fe D2030000 		.4byte	0x3d2
 7851 2102 00       		.byte	0
 7852 2103 51       		.uleb128 0x51
 7853 2104 01       		.byte	0x1
 7854 2105 B3020000 		.4byte	.LASF261
 7855 2109 0E       		.byte	0xe
 7856 210a AF       		.byte	0xaf
 7857 210b 01       		.byte	0x1
 7858 210c 34020000 		.4byte	0x234
 7859 2110 01       		.byte	0x1
 7860 2111 1B210000 		.4byte	0x211b
ARM GAS  C:\Users\jenny\AppData\Local\Temp\ccAyMdWJ.s 			page 140


 7861 2115 0E       		.uleb128 0xe
 7862 2116 5B030000 		.4byte	0x35b
 7863 211a 00       		.byte	0
 7864 211b 56       		.uleb128 0x56
 7865 211c 01       		.byte	0x1
 7866 211d D4090000 		.4byte	.LASF262
 7867 2121 0B       		.byte	0xb
 7868 2122 B801     		.2byte	0x1b8
 7869 2124 01       		.byte	0x1
 7870 2125 B4010000 		.4byte	0x1b4
 7871 2129 01       		.byte	0x1
 7872 212a 0E       		.uleb128 0xe
 7873 212b D2030000 		.4byte	0x3d2
 7874 212f 0E       		.uleb128 0xe
 7875 2130 D3000000 		.4byte	0xd3
 7876 2134 00       		.byte	0
 7877 2135 00       		.byte	0
 7878              		.section	.debug_abbrev,"",%progbits
 7879              	.Ldebug_abbrev0:
 7880 0000 01       		.uleb128 0x1
 7881 0001 11       		.uleb128 0x11
 7882 0002 01       		.byte	0x1
 7883 0003 25       		.uleb128 0x25
 7884 0004 0E       		.uleb128 0xe
 7885 0005 13       		.uleb128 0x13
 7886 0006 0B       		.uleb128 0xb
 7887 0007 03       		.uleb128 0x3
 7888 0008 0E       		.uleb128 0xe
 7889 0009 1B       		.uleb128 0x1b
 7890 000a 0E       		.uleb128 0xe
 7891 000b 55       		.uleb128 0x55
 7892 000c 06       		.uleb128 0x6
 7893 000d 11       		.uleb128 0x11
 7894 000e 01       		.uleb128 0x1
 7895 000f 52       		.uleb128 0x52
 7896 0010 01       		.uleb128 0x1
 7897 0011 10       		.uleb128 0x10
 7898 0012 06       		.uleb128 0x6
 7899 0013 00       		.byte	0
 7900 0014 00       		.byte	0
 7901 0015 02       		.uleb128 0x2
 7902 0016 24       		.uleb128 0x24
 7903 0017 00       		.byte	0
 7904 0018 0B       		.uleb128 0xb
 7905 0019 0B       		.uleb128 0xb
 7906 001a 3E       		.uleb128 0x3e
 7907 001b 0B       		.uleb128 0xb
 7908 001c 03       		.uleb128 0x3
 7909 001d 08       		.uleb128 0x8
 7910 001e 00       		.byte	0
 7911 001f 00       		.byte	0
 7912 0020 03       		.uleb128 0x3
 7913 0021 24       		.uleb128 0x24
 7914 0022 00       		.byte	0
 7915 0023 0B       		.uleb128 0xb
 7916 0024 0B       		.uleb128 0xb
 7917 0025 3E       		.uleb128 0x3e
ARM GAS  C:\Users\jenny\AppData\Local\Temp\ccAyMdWJ.s 			page 141


 7918 0026 0B       		.uleb128 0xb
 7919 0027 03       		.uleb128 0x3
 7920 0028 0E       		.uleb128 0xe
 7921 0029 00       		.byte	0
 7922 002a 00       		.byte	0
 7923 002b 04       		.uleb128 0x4
 7924 002c 16       		.uleb128 0x16
 7925 002d 00       		.byte	0
 7926 002e 03       		.uleb128 0x3
 7927 002f 0E       		.uleb128 0xe
 7928 0030 3A       		.uleb128 0x3a
 7929 0031 0B       		.uleb128 0xb
 7930 0032 3B       		.uleb128 0x3b
 7931 0033 0B       		.uleb128 0xb
 7932 0034 49       		.uleb128 0x49
 7933 0035 13       		.uleb128 0x13
 7934 0036 00       		.byte	0
 7935 0037 00       		.byte	0
 7936 0038 05       		.uleb128 0x5
 7937 0039 0F       		.uleb128 0xf
 7938 003a 00       		.byte	0
 7939 003b 0B       		.uleb128 0xb
 7940 003c 0B       		.uleb128 0xb
 7941 003d 00       		.byte	0
 7942 003e 00       		.byte	0
 7943 003f 06       		.uleb128 0x6
 7944 0040 0F       		.uleb128 0xf
 7945 0041 00       		.byte	0
 7946 0042 0B       		.uleb128 0xb
 7947 0043 0B       		.uleb128 0xb
 7948 0044 49       		.uleb128 0x49
 7949 0045 13       		.uleb128 0x13
 7950 0046 00       		.byte	0
 7951 0047 00       		.byte	0
 7952 0048 07       		.uleb128 0x7
 7953 0049 26       		.uleb128 0x26
 7954 004a 00       		.byte	0
 7955 004b 49       		.uleb128 0x49
 7956 004c 13       		.uleb128 0x13
 7957 004d 00       		.byte	0
 7958 004e 00       		.byte	0
 7959 004f 08       		.uleb128 0x8
 7960 0050 04       		.uleb128 0x4
 7961 0051 01       		.byte	0x1
 7962 0052 0B       		.uleb128 0xb
 7963 0053 0B       		.uleb128 0xb
 7964 0054 3A       		.uleb128 0x3a
 7965 0055 0B       		.uleb128 0xb
 7966 0056 3B       		.uleb128 0x3b
 7967 0057 0B       		.uleb128 0xb
 7968 0058 01       		.uleb128 0x1
 7969 0059 13       		.uleb128 0x13
 7970 005a 00       		.byte	0
 7971 005b 00       		.byte	0
 7972 005c 09       		.uleb128 0x9
 7973 005d 28       		.uleb128 0x28
 7974 005e 00       		.byte	0
ARM GAS  C:\Users\jenny\AppData\Local\Temp\ccAyMdWJ.s 			page 142


 7975 005f 03       		.uleb128 0x3
 7976 0060 0E       		.uleb128 0xe
 7977 0061 1C       		.uleb128 0x1c
 7978 0062 0D       		.uleb128 0xd
 7979 0063 00       		.byte	0
 7980 0064 00       		.byte	0
 7981 0065 0A       		.uleb128 0xa
 7982 0066 13       		.uleb128 0x13
 7983 0067 01       		.byte	0x1
 7984 0068 03       		.uleb128 0x3
 7985 0069 0E       		.uleb128 0xe
 7986 006a 0B       		.uleb128 0xb
 7987 006b 0B       		.uleb128 0xb
 7988 006c 3A       		.uleb128 0x3a
 7989 006d 0B       		.uleb128 0xb
 7990 006e 3B       		.uleb128 0x3b
 7991 006f 0B       		.uleb128 0xb
 7992 0070 01       		.uleb128 0x1
 7993 0071 13       		.uleb128 0x13
 7994 0072 00       		.byte	0
 7995 0073 00       		.byte	0
 7996 0074 0B       		.uleb128 0xb
 7997 0075 0D       		.uleb128 0xd
 7998 0076 00       		.byte	0
 7999 0077 03       		.uleb128 0x3
 8000 0078 0E       		.uleb128 0xe
 8001 0079 3A       		.uleb128 0x3a
 8002 007a 0B       		.uleb128 0xb
 8003 007b 3B       		.uleb128 0x3b
 8004 007c 0B       		.uleb128 0xb
 8005 007d 49       		.uleb128 0x49
 8006 007e 13       		.uleb128 0x13
 8007 007f 38       		.uleb128 0x38
 8008 0080 0A       		.uleb128 0xa
 8009 0081 00       		.byte	0
 8010 0082 00       		.byte	0
 8011 0083 0C       		.uleb128 0xc
 8012 0084 0D       		.uleb128 0xd
 8013 0085 00       		.byte	0
 8014 0086 03       		.uleb128 0x3
 8015 0087 08       		.uleb128 0x8
 8016 0088 3A       		.uleb128 0x3a
 8017 0089 0B       		.uleb128 0xb
 8018 008a 3B       		.uleb128 0x3b
 8019 008b 0B       		.uleb128 0xb
 8020 008c 49       		.uleb128 0x49
 8021 008d 13       		.uleb128 0x13
 8022 008e 38       		.uleb128 0x38
 8023 008f 0A       		.uleb128 0xa
 8024 0090 00       		.byte	0
 8025 0091 00       		.byte	0
 8026 0092 0D       		.uleb128 0xd
 8027 0093 15       		.uleb128 0x15
 8028 0094 01       		.byte	0x1
 8029 0095 27       		.uleb128 0x27
 8030 0096 0C       		.uleb128 0xc
 8031 0097 49       		.uleb128 0x49
ARM GAS  C:\Users\jenny\AppData\Local\Temp\ccAyMdWJ.s 			page 143


 8032 0098 13       		.uleb128 0x13
 8033 0099 01       		.uleb128 0x1
 8034 009a 13       		.uleb128 0x13
 8035 009b 00       		.byte	0
 8036 009c 00       		.byte	0
 8037 009d 0E       		.uleb128 0xe
 8038 009e 05       		.uleb128 0x5
 8039 009f 00       		.byte	0
 8040 00a0 49       		.uleb128 0x49
 8041 00a1 13       		.uleb128 0x13
 8042 00a2 00       		.byte	0
 8043 00a3 00       		.byte	0
 8044 00a4 0F       		.uleb128 0xf
 8045 00a5 01       		.uleb128 0x1
 8046 00a6 01       		.byte	0x1
 8047 00a7 49       		.uleb128 0x49
 8048 00a8 13       		.uleb128 0x13
 8049 00a9 01       		.uleb128 0x1
 8050 00aa 13       		.uleb128 0x13
 8051 00ab 00       		.byte	0
 8052 00ac 00       		.byte	0
 8053 00ad 10       		.uleb128 0x10
 8054 00ae 21       		.uleb128 0x21
 8055 00af 00       		.byte	0
 8056 00b0 49       		.uleb128 0x49
 8057 00b1 13       		.uleb128 0x13
 8058 00b2 2F       		.uleb128 0x2f
 8059 00b3 0B       		.uleb128 0xb
 8060 00b4 00       		.byte	0
 8061 00b5 00       		.byte	0
 8062 00b6 11       		.uleb128 0x11
 8063 00b7 0D       		.uleb128 0xd
 8064 00b8 00       		.byte	0
 8065 00b9 03       		.uleb128 0x3
 8066 00ba 0E       		.uleb128 0xe
 8067 00bb 3A       		.uleb128 0x3a
 8068 00bc 0B       		.uleb128 0xb
 8069 00bd 3B       		.uleb128 0x3b
 8070 00be 05       		.uleb128 0x5
 8071 00bf 49       		.uleb128 0x49
 8072 00c0 13       		.uleb128 0x13
 8073 00c1 38       		.uleb128 0x38
 8074 00c2 0A       		.uleb128 0xa
 8075 00c3 00       		.byte	0
 8076 00c4 00       		.byte	0
 8077 00c5 12       		.uleb128 0x12
 8078 00c6 15       		.uleb128 0x15
 8079 00c7 01       		.byte	0x1
 8080 00c8 27       		.uleb128 0x27
 8081 00c9 0C       		.uleb128 0xc
 8082 00ca 01       		.uleb128 0x1
 8083 00cb 13       		.uleb128 0x13
 8084 00cc 00       		.byte	0
 8085 00cd 00       		.byte	0
 8086 00ce 13       		.uleb128 0x13
 8087 00cf 04       		.uleb128 0x4
 8088 00d0 01       		.byte	0x1
ARM GAS  C:\Users\jenny\AppData\Local\Temp\ccAyMdWJ.s 			page 144


 8089 00d1 03       		.uleb128 0x3
 8090 00d2 0E       		.uleb128 0xe
 8091 00d3 0B       		.uleb128 0xb
 8092 00d4 0B       		.uleb128 0xb
 8093 00d5 3A       		.uleb128 0x3a
 8094 00d6 0B       		.uleb128 0xb
 8095 00d7 3B       		.uleb128 0x3b
 8096 00d8 0B       		.uleb128 0xb
 8097 00d9 01       		.uleb128 0x1
 8098 00da 13       		.uleb128 0x13
 8099 00db 00       		.byte	0
 8100 00dc 00       		.byte	0
 8101 00dd 14       		.uleb128 0x14
 8102 00de 13       		.uleb128 0x13
 8103 00df 01       		.byte	0x1
 8104 00e0 03       		.uleb128 0x3
 8105 00e1 0E       		.uleb128 0xe
 8106 00e2 0B       		.uleb128 0xb
 8107 00e3 0B       		.uleb128 0xb
 8108 00e4 3A       		.uleb128 0x3a
 8109 00e5 0B       		.uleb128 0xb
 8110 00e6 3B       		.uleb128 0x3b
 8111 00e7 05       		.uleb128 0x5
 8112 00e8 01       		.uleb128 0x1
 8113 00e9 13       		.uleb128 0x13
 8114 00ea 00       		.byte	0
 8115 00eb 00       		.byte	0
 8116 00ec 15       		.uleb128 0x15
 8117 00ed 0D       		.uleb128 0xd
 8118 00ee 00       		.byte	0
 8119 00ef 03       		.uleb128 0x3
 8120 00f0 08       		.uleb128 0x8
 8121 00f1 3A       		.uleb128 0x3a
 8122 00f2 0B       		.uleb128 0xb
 8123 00f3 3B       		.uleb128 0x3b
 8124 00f4 05       		.uleb128 0x5
 8125 00f5 49       		.uleb128 0x49
 8126 00f6 13       		.uleb128 0x13
 8127 00f7 38       		.uleb128 0x38
 8128 00f8 0A       		.uleb128 0xa
 8129 00f9 00       		.byte	0
 8130 00fa 00       		.byte	0
 8131 00fb 16       		.uleb128 0x16
 8132 00fc 17       		.uleb128 0x17
 8133 00fd 01       		.byte	0x1
 8134 00fe 03       		.uleb128 0x3
 8135 00ff 0E       		.uleb128 0xe
 8136 0100 0B       		.uleb128 0xb
 8137 0101 0B       		.uleb128 0xb
 8138 0102 3A       		.uleb128 0x3a
 8139 0103 0B       		.uleb128 0xb
 8140 0104 3B       		.uleb128 0x3b
 8141 0105 05       		.uleb128 0x5
 8142 0106 01       		.uleb128 0x1
 8143 0107 13       		.uleb128 0x13
 8144 0108 00       		.byte	0
 8145 0109 00       		.byte	0
ARM GAS  C:\Users\jenny\AppData\Local\Temp\ccAyMdWJ.s 			page 145


 8146 010a 17       		.uleb128 0x17
 8147 010b 0D       		.uleb128 0xd
 8148 010c 00       		.byte	0
 8149 010d 03       		.uleb128 0x3
 8150 010e 0E       		.uleb128 0xe
 8151 010f 3A       		.uleb128 0x3a
 8152 0110 0B       		.uleb128 0xb
 8153 0111 3B       		.uleb128 0x3b
 8154 0112 05       		.uleb128 0x5
 8155 0113 49       		.uleb128 0x49
 8156 0114 13       		.uleb128 0x13
 8157 0115 00       		.byte	0
 8158 0116 00       		.byte	0
 8159 0117 18       		.uleb128 0x18
 8160 0118 13       		.uleb128 0x13
 8161 0119 01       		.byte	0x1
 8162 011a 03       		.uleb128 0x3
 8163 011b 0E       		.uleb128 0xe
 8164 011c 0B       		.uleb128 0xb
 8165 011d 05       		.uleb128 0x5
 8166 011e 3A       		.uleb128 0x3a
 8167 011f 0B       		.uleb128 0xb
 8168 0120 3B       		.uleb128 0x3b
 8169 0121 0B       		.uleb128 0xb
 8170 0122 01       		.uleb128 0x1
 8171 0123 13       		.uleb128 0x13
 8172 0124 00       		.byte	0
 8173 0125 00       		.byte	0
 8174 0126 19       		.uleb128 0x19
 8175 0127 2E       		.uleb128 0x2e
 8176 0128 01       		.byte	0x1
 8177 0129 3F       		.uleb128 0x3f
 8178 012a 0C       		.uleb128 0xc
 8179 012b 03       		.uleb128 0x3
 8180 012c 0E       		.uleb128 0xe
 8181 012d 3A       		.uleb128 0x3a
 8182 012e 0B       		.uleb128 0xb
 8183 012f 3B       		.uleb128 0x3b
 8184 0130 05       		.uleb128 0x5
 8185 0131 27       		.uleb128 0x27
 8186 0132 0C       		.uleb128 0xc
 8187 0133 20       		.uleb128 0x20
 8188 0134 0B       		.uleb128 0xb
 8189 0135 01       		.uleb128 0x1
 8190 0136 13       		.uleb128 0x13
 8191 0137 00       		.byte	0
 8192 0138 00       		.byte	0
 8193 0139 1A       		.uleb128 0x1a
 8194 013a 05       		.uleb128 0x5
 8195 013b 00       		.byte	0
 8196 013c 03       		.uleb128 0x3
 8197 013d 08       		.uleb128 0x8
 8198 013e 3A       		.uleb128 0x3a
 8199 013f 0B       		.uleb128 0xb
 8200 0140 3B       		.uleb128 0x3b
 8201 0141 05       		.uleb128 0x5
 8202 0142 49       		.uleb128 0x49
ARM GAS  C:\Users\jenny\AppData\Local\Temp\ccAyMdWJ.s 			page 146


 8203 0143 13       		.uleb128 0x13
 8204 0144 00       		.byte	0
 8205 0145 00       		.byte	0
 8206 0146 1B       		.uleb128 0x1b
 8207 0147 2E       		.uleb128 0x2e
 8208 0148 01       		.byte	0x1
 8209 0149 3F       		.uleb128 0x3f
 8210 014a 0C       		.uleb128 0xc
 8211 014b 03       		.uleb128 0x3
 8212 014c 0E       		.uleb128 0xe
 8213 014d 3A       		.uleb128 0x3a
 8214 014e 0B       		.uleb128 0xb
 8215 014f 3B       		.uleb128 0x3b
 8216 0150 05       		.uleb128 0x5
 8217 0151 27       		.uleb128 0x27
 8218 0152 0C       		.uleb128 0xc
 8219 0153 49       		.uleb128 0x49
 8220 0154 13       		.uleb128 0x13
 8221 0155 20       		.uleb128 0x20
 8222 0156 0B       		.uleb128 0xb
 8223 0157 01       		.uleb128 0x1
 8224 0158 13       		.uleb128 0x13
 8225 0159 00       		.byte	0
 8226 015a 00       		.byte	0
 8227 015b 1C       		.uleb128 0x1c
 8228 015c 34       		.uleb128 0x34
 8229 015d 00       		.byte	0
 8230 015e 03       		.uleb128 0x3
 8231 015f 08       		.uleb128 0x8
 8232 0160 3A       		.uleb128 0x3a
 8233 0161 0B       		.uleb128 0xb
 8234 0162 3B       		.uleb128 0x3b
 8235 0163 05       		.uleb128 0x5
 8236 0164 49       		.uleb128 0x49
 8237 0165 13       		.uleb128 0x13
 8238 0166 00       		.byte	0
 8239 0167 00       		.byte	0
 8240 0168 1D       		.uleb128 0x1d
 8241 0169 2E       		.uleb128 0x2e
 8242 016a 01       		.byte	0x1
 8243 016b 03       		.uleb128 0x3
 8244 016c 0E       		.uleb128 0xe
 8245 016d 3A       		.uleb128 0x3a
 8246 016e 0B       		.uleb128 0xb
 8247 016f 3B       		.uleb128 0x3b
 8248 0170 05       		.uleb128 0x5
 8249 0171 27       		.uleb128 0x27
 8250 0172 0C       		.uleb128 0xc
 8251 0173 49       		.uleb128 0x49
 8252 0174 13       		.uleb128 0x13
 8253 0175 11       		.uleb128 0x11
 8254 0176 01       		.uleb128 0x1
 8255 0177 12       		.uleb128 0x12
 8256 0178 01       		.uleb128 0x1
 8257 0179 40       		.uleb128 0x40
 8258 017a 0A       		.uleb128 0xa
 8259 017b 9742     		.uleb128 0x2117
ARM GAS  C:\Users\jenny\AppData\Local\Temp\ccAyMdWJ.s 			page 147


 8260 017d 0C       		.uleb128 0xc
 8261 017e 01       		.uleb128 0x1
 8262 017f 13       		.uleb128 0x13
 8263 0180 00       		.byte	0
 8264 0181 00       		.byte	0
 8265 0182 1E       		.uleb128 0x1e
 8266 0183 05       		.uleb128 0x5
 8267 0184 00       		.byte	0
 8268 0185 03       		.uleb128 0x3
 8269 0186 08       		.uleb128 0x8
 8270 0187 3A       		.uleb128 0x3a
 8271 0188 0B       		.uleb128 0xb
 8272 0189 3B       		.uleb128 0x3b
 8273 018a 05       		.uleb128 0x5
 8274 018b 49       		.uleb128 0x49
 8275 018c 13       		.uleb128 0x13
 8276 018d 02       		.uleb128 0x2
 8277 018e 06       		.uleb128 0x6
 8278 018f 00       		.byte	0
 8279 0190 00       		.byte	0
 8280 0191 1F       		.uleb128 0x1f
 8281 0192 05       		.uleb128 0x5
 8282 0193 00       		.byte	0
 8283 0194 03       		.uleb128 0x3
 8284 0195 08       		.uleb128 0x8
 8285 0196 3A       		.uleb128 0x3a
 8286 0197 0B       		.uleb128 0xb
 8287 0198 3B       		.uleb128 0x3b
 8288 0199 05       		.uleb128 0x5
 8289 019a 49       		.uleb128 0x49
 8290 019b 13       		.uleb128 0x13
 8291 019c 02       		.uleb128 0x2
 8292 019d 0A       		.uleb128 0xa
 8293 019e 00       		.byte	0
 8294 019f 00       		.byte	0
 8295 01a0 20       		.uleb128 0x20
 8296 01a1 2E       		.uleb128 0x2e
 8297 01a2 01       		.byte	0x1
 8298 01a3 03       		.uleb128 0x3
 8299 01a4 0E       		.uleb128 0xe
 8300 01a5 3A       		.uleb128 0x3a
 8301 01a6 0B       		.uleb128 0xb
 8302 01a7 3B       		.uleb128 0x3b
 8303 01a8 05       		.uleb128 0x5
 8304 01a9 27       		.uleb128 0x27
 8305 01aa 0C       		.uleb128 0xc
 8306 01ab 49       		.uleb128 0x49
 8307 01ac 13       		.uleb128 0x13
 8308 01ad 11       		.uleb128 0x11
 8309 01ae 01       		.uleb128 0x1
 8310 01af 12       		.uleb128 0x12
 8311 01b0 01       		.uleb128 0x1
 8312 01b1 40       		.uleb128 0x40
 8313 01b2 06       		.uleb128 0x6
 8314 01b3 9742     		.uleb128 0x2117
 8315 01b5 0C       		.uleb128 0xc
 8316 01b6 01       		.uleb128 0x1
ARM GAS  C:\Users\jenny\AppData\Local\Temp\ccAyMdWJ.s 			page 148


 8317 01b7 13       		.uleb128 0x13
 8318 01b8 00       		.byte	0
 8319 01b9 00       		.byte	0
 8320 01ba 21       		.uleb128 0x21
 8321 01bb 34       		.uleb128 0x34
 8322 01bc 00       		.byte	0
 8323 01bd 03       		.uleb128 0x3
 8324 01be 08       		.uleb128 0x8
 8325 01bf 3A       		.uleb128 0x3a
 8326 01c0 0B       		.uleb128 0xb
 8327 01c1 3B       		.uleb128 0x3b
 8328 01c2 05       		.uleb128 0x5
 8329 01c3 49       		.uleb128 0x49
 8330 01c4 13       		.uleb128 0x13
 8331 01c5 02       		.uleb128 0x2
 8332 01c6 06       		.uleb128 0x6
 8333 01c7 00       		.byte	0
 8334 01c8 00       		.byte	0
 8335 01c9 22       		.uleb128 0x22
 8336 01ca 0A       		.uleb128 0xa
 8337 01cb 00       		.byte	0
 8338 01cc 03       		.uleb128 0x3
 8339 01cd 0E       		.uleb128 0xe
 8340 01ce 3A       		.uleb128 0x3a
 8341 01cf 0B       		.uleb128 0xb
 8342 01d0 3B       		.uleb128 0x3b
 8343 01d1 05       		.uleb128 0x5
 8344 01d2 11       		.uleb128 0x11
 8345 01d3 01       		.uleb128 0x1
 8346 01d4 00       		.byte	0
 8347 01d5 00       		.byte	0
 8348 01d6 23       		.uleb128 0x23
 8349 01d7 2E       		.uleb128 0x2e
 8350 01d8 00       		.byte	0
 8351 01d9 3F       		.uleb128 0x3f
 8352 01da 0C       		.uleb128 0xc
 8353 01db 03       		.uleb128 0x3
 8354 01dc 0E       		.uleb128 0xe
 8355 01dd 3A       		.uleb128 0x3a
 8356 01de 0B       		.uleb128 0xb
 8357 01df 3B       		.uleb128 0x3b
 8358 01e0 0B       		.uleb128 0xb
 8359 01e1 27       		.uleb128 0x27
 8360 01e2 0C       		.uleb128 0xc
 8361 01e3 11       		.uleb128 0x11
 8362 01e4 01       		.uleb128 0x1
 8363 01e5 12       		.uleb128 0x12
 8364 01e6 01       		.uleb128 0x1
 8365 01e7 40       		.uleb128 0x40
 8366 01e8 0A       		.uleb128 0xa
 8367 01e9 9742     		.uleb128 0x2117
 8368 01eb 0C       		.uleb128 0xc
 8369 01ec 00       		.byte	0
 8370 01ed 00       		.byte	0
 8371 01ee 24       		.uleb128 0x24
 8372 01ef 2E       		.uleb128 0x2e
 8373 01f0 01       		.byte	0x1
ARM GAS  C:\Users\jenny\AppData\Local\Temp\ccAyMdWJ.s 			page 149


 8374 01f1 3F       		.uleb128 0x3f
 8375 01f2 0C       		.uleb128 0xc
 8376 01f3 03       		.uleb128 0x3
 8377 01f4 0E       		.uleb128 0xe
 8378 01f5 3A       		.uleb128 0x3a
 8379 01f6 0B       		.uleb128 0xb
 8380 01f7 3B       		.uleb128 0x3b
 8381 01f8 05       		.uleb128 0x5
 8382 01f9 27       		.uleb128 0x27
 8383 01fa 0C       		.uleb128 0xc
 8384 01fb 49       		.uleb128 0x49
 8385 01fc 13       		.uleb128 0x13
 8386 01fd 11       		.uleb128 0x11
 8387 01fe 01       		.uleb128 0x1
 8388 01ff 12       		.uleb128 0x12
 8389 0200 01       		.uleb128 0x1
 8390 0201 40       		.uleb128 0x40
 8391 0202 06       		.uleb128 0x6
 8392 0203 9742     		.uleb128 0x2117
 8393 0205 0C       		.uleb128 0xc
 8394 0206 01       		.uleb128 0x1
 8395 0207 13       		.uleb128 0x13
 8396 0208 00       		.byte	0
 8397 0209 00       		.byte	0
 8398 020a 25       		.uleb128 0x25
 8399 020b 05       		.uleb128 0x5
 8400 020c 00       		.byte	0
 8401 020d 03       		.uleb128 0x3
 8402 020e 0E       		.uleb128 0xe
 8403 020f 3A       		.uleb128 0x3a
 8404 0210 0B       		.uleb128 0xb
 8405 0211 3B       		.uleb128 0x3b
 8406 0212 05       		.uleb128 0x5
 8407 0213 49       		.uleb128 0x49
 8408 0214 13       		.uleb128 0x13
 8409 0215 02       		.uleb128 0x2
 8410 0216 06       		.uleb128 0x6
 8411 0217 00       		.byte	0
 8412 0218 00       		.byte	0
 8413 0219 26       		.uleb128 0x26
 8414 021a 34       		.uleb128 0x34
 8415 021b 00       		.byte	0
 8416 021c 03       		.uleb128 0x3
 8417 021d 0E       		.uleb128 0xe
 8418 021e 3A       		.uleb128 0x3a
 8419 021f 0B       		.uleb128 0xb
 8420 0220 3B       		.uleb128 0x3b
 8421 0221 05       		.uleb128 0x5
 8422 0222 49       		.uleb128 0x49
 8423 0223 13       		.uleb128 0x13
 8424 0224 1C       		.uleb128 0x1c
 8425 0225 0B       		.uleb128 0xb
 8426 0226 00       		.byte	0
 8427 0227 00       		.byte	0
 8428 0228 27       		.uleb128 0x27
 8429 0229 34       		.uleb128 0x34
 8430 022a 00       		.byte	0
ARM GAS  C:\Users\jenny\AppData\Local\Temp\ccAyMdWJ.s 			page 150


 8431 022b 03       		.uleb128 0x3
 8432 022c 0E       		.uleb128 0xe
 8433 022d 3A       		.uleb128 0x3a
 8434 022e 0B       		.uleb128 0xb
 8435 022f 3B       		.uleb128 0x3b
 8436 0230 05       		.uleb128 0x5
 8437 0231 49       		.uleb128 0x49
 8438 0232 13       		.uleb128 0x13
 8439 0233 02       		.uleb128 0x2
 8440 0234 06       		.uleb128 0x6
 8441 0235 00       		.byte	0
 8442 0236 00       		.byte	0
 8443 0237 28       		.uleb128 0x28
 8444 0238 898201   		.uleb128 0x4109
 8445 023b 00       		.byte	0
 8446 023c 11       		.uleb128 0x11
 8447 023d 01       		.uleb128 0x1
 8448 023e 31       		.uleb128 0x31
 8449 023f 13       		.uleb128 0x13
 8450 0240 00       		.byte	0
 8451 0241 00       		.byte	0
 8452 0242 29       		.uleb128 0x29
 8453 0243 898201   		.uleb128 0x4109
 8454 0246 01       		.byte	0x1
 8455 0247 11       		.uleb128 0x11
 8456 0248 01       		.uleb128 0x1
 8457 0249 31       		.uleb128 0x31
 8458 024a 13       		.uleb128 0x13
 8459 024b 01       		.uleb128 0x1
 8460 024c 13       		.uleb128 0x13
 8461 024d 00       		.byte	0
 8462 024e 00       		.byte	0
 8463 024f 2A       		.uleb128 0x2a
 8464 0250 8A8201   		.uleb128 0x410a
 8465 0253 00       		.byte	0
 8466 0254 02       		.uleb128 0x2
 8467 0255 0A       		.uleb128 0xa
 8468 0256 9142     		.uleb128 0x2111
 8469 0258 0A       		.uleb128 0xa
 8470 0259 00       		.byte	0
 8471 025a 00       		.byte	0
 8472 025b 2B       		.uleb128 0x2b
 8473 025c 0B       		.uleb128 0xb
 8474 025d 01       		.byte	0x1
 8475 025e 55       		.uleb128 0x55
 8476 025f 06       		.uleb128 0x6
 8477 0260 00       		.byte	0
 8478 0261 00       		.byte	0
 8479 0262 2C       		.uleb128 0x2c
 8480 0263 34       		.uleb128 0x34
 8481 0264 00       		.byte	0
 8482 0265 03       		.uleb128 0x3
 8483 0266 0E       		.uleb128 0xe
 8484 0267 3A       		.uleb128 0x3a
 8485 0268 0B       		.uleb128 0xb
 8486 0269 3B       		.uleb128 0x3b
 8487 026a 05       		.uleb128 0x5
ARM GAS  C:\Users\jenny\AppData\Local\Temp\ccAyMdWJ.s 			page 151


 8488 026b 49       		.uleb128 0x49
 8489 026c 13       		.uleb128 0x13
 8490 026d 02       		.uleb128 0x2
 8491 026e 0A       		.uleb128 0xa
 8492 026f 00       		.byte	0
 8493 0270 00       		.byte	0
 8494 0271 2D       		.uleb128 0x2d
 8495 0272 2E       		.uleb128 0x2e
 8496 0273 01       		.byte	0x1
 8497 0274 3F       		.uleb128 0x3f
 8498 0275 0C       		.uleb128 0xc
 8499 0276 03       		.uleb128 0x3
 8500 0277 0E       		.uleb128 0xe
 8501 0278 3A       		.uleb128 0x3a
 8502 0279 0B       		.uleb128 0xb
 8503 027a 3B       		.uleb128 0x3b
 8504 027b 05       		.uleb128 0x5
 8505 027c 27       		.uleb128 0x27
 8506 027d 0C       		.uleb128 0xc
 8507 027e 11       		.uleb128 0x11
 8508 027f 01       		.uleb128 0x1
 8509 0280 12       		.uleb128 0x12
 8510 0281 01       		.uleb128 0x1
 8511 0282 40       		.uleb128 0x40
 8512 0283 06       		.uleb128 0x6
 8513 0284 9742     		.uleb128 0x2117
 8514 0286 0C       		.uleb128 0xc
 8515 0287 01       		.uleb128 0x1
 8516 0288 13       		.uleb128 0x13
 8517 0289 00       		.byte	0
 8518 028a 00       		.byte	0
 8519 028b 2E       		.uleb128 0x2e
 8520 028c 898201   		.uleb128 0x4109
 8521 028f 01       		.byte	0x1
 8522 0290 11       		.uleb128 0x11
 8523 0291 01       		.uleb128 0x1
 8524 0292 9542     		.uleb128 0x2115
 8525 0294 0C       		.uleb128 0xc
 8526 0295 31       		.uleb128 0x31
 8527 0296 13       		.uleb128 0x13
 8528 0297 01       		.uleb128 0x1
 8529 0298 13       		.uleb128 0x13
 8530 0299 00       		.byte	0
 8531 029a 00       		.byte	0
 8532 029b 2F       		.uleb128 0x2f
 8533 029c 898201   		.uleb128 0x4109
 8534 029f 01       		.byte	0x1
 8535 02a0 11       		.uleb128 0x11
 8536 02a1 01       		.uleb128 0x1
 8537 02a2 9542     		.uleb128 0x2115
 8538 02a4 0C       		.uleb128 0xc
 8539 02a5 31       		.uleb128 0x31
 8540 02a6 13       		.uleb128 0x13
 8541 02a7 00       		.byte	0
 8542 02a8 00       		.byte	0
 8543 02a9 30       		.uleb128 0x30
 8544 02aa 0B       		.uleb128 0xb
ARM GAS  C:\Users\jenny\AppData\Local\Temp\ccAyMdWJ.s 			page 152


 8545 02ab 01       		.byte	0x1
 8546 02ac 11       		.uleb128 0x11
 8547 02ad 01       		.uleb128 0x1
 8548 02ae 12       		.uleb128 0x12
 8549 02af 01       		.uleb128 0x1
 8550 02b0 00       		.byte	0
 8551 02b1 00       		.byte	0
 8552 02b2 31       		.uleb128 0x31
 8553 02b3 2E       		.uleb128 0x2e
 8554 02b4 01       		.byte	0x1
 8555 02b5 3F       		.uleb128 0x3f
 8556 02b6 0C       		.uleb128 0xc
 8557 02b7 03       		.uleb128 0x3
 8558 02b8 0E       		.uleb128 0xe
 8559 02b9 3A       		.uleb128 0x3a
 8560 02ba 0B       		.uleb128 0xb
 8561 02bb 3B       		.uleb128 0x3b
 8562 02bc 05       		.uleb128 0x5
 8563 02bd 27       		.uleb128 0x27
 8564 02be 0C       		.uleb128 0xc
 8565 02bf 11       		.uleb128 0x11
 8566 02c0 01       		.uleb128 0x1
 8567 02c1 12       		.uleb128 0x12
 8568 02c2 01       		.uleb128 0x1
 8569 02c3 40       		.uleb128 0x40
 8570 02c4 0A       		.uleb128 0xa
 8571 02c5 9742     		.uleb128 0x2117
 8572 02c7 0C       		.uleb128 0xc
 8573 02c8 01       		.uleb128 0x1
 8574 02c9 13       		.uleb128 0x13
 8575 02ca 00       		.byte	0
 8576 02cb 00       		.byte	0
 8577 02cc 32       		.uleb128 0x32
 8578 02cd 05       		.uleb128 0x5
 8579 02ce 00       		.byte	0
 8580 02cf 03       		.uleb128 0x3
 8581 02d0 0E       		.uleb128 0xe
 8582 02d1 3A       		.uleb128 0x3a
 8583 02d2 0B       		.uleb128 0xb
 8584 02d3 3B       		.uleb128 0x3b
 8585 02d4 05       		.uleb128 0x5
 8586 02d5 49       		.uleb128 0x49
 8587 02d6 13       		.uleb128 0x13
 8588 02d7 02       		.uleb128 0x2
 8589 02d8 0A       		.uleb128 0xa
 8590 02d9 00       		.byte	0
 8591 02da 00       		.byte	0
 8592 02db 33       		.uleb128 0x33
 8593 02dc 2E       		.uleb128 0x2e
 8594 02dd 01       		.byte	0x1
 8595 02de 31       		.uleb128 0x31
 8596 02df 13       		.uleb128 0x13
 8597 02e0 11       		.uleb128 0x11
 8598 02e1 01       		.uleb128 0x1
 8599 02e2 12       		.uleb128 0x12
 8600 02e3 01       		.uleb128 0x1
 8601 02e4 40       		.uleb128 0x40
ARM GAS  C:\Users\jenny\AppData\Local\Temp\ccAyMdWJ.s 			page 153


 8602 02e5 06       		.uleb128 0x6
 8603 02e6 9742     		.uleb128 0x2117
 8604 02e8 0C       		.uleb128 0xc
 8605 02e9 01       		.uleb128 0x1
 8606 02ea 13       		.uleb128 0x13
 8607 02eb 00       		.byte	0
 8608 02ec 00       		.byte	0
 8609 02ed 34       		.uleb128 0x34
 8610 02ee 05       		.uleb128 0x5
 8611 02ef 00       		.byte	0
 8612 02f0 31       		.uleb128 0x31
 8613 02f1 13       		.uleb128 0x13
 8614 02f2 02       		.uleb128 0x2
 8615 02f3 06       		.uleb128 0x6
 8616 02f4 00       		.byte	0
 8617 02f5 00       		.byte	0
 8618 02f6 35       		.uleb128 0x35
 8619 02f7 1D       		.uleb128 0x1d
 8620 02f8 01       		.byte	0x1
 8621 02f9 31       		.uleb128 0x31
 8622 02fa 13       		.uleb128 0x13
 8623 02fb 11       		.uleb128 0x11
 8624 02fc 01       		.uleb128 0x1
 8625 02fd 12       		.uleb128 0x12
 8626 02fe 01       		.uleb128 0x1
 8627 02ff 58       		.uleb128 0x58
 8628 0300 0B       		.uleb128 0xb
 8629 0301 59       		.uleb128 0x59
 8630 0302 05       		.uleb128 0x5
 8631 0303 00       		.byte	0
 8632 0304 00       		.byte	0
 8633 0305 36       		.uleb128 0x36
 8634 0306 0A       		.uleb128 0xa
 8635 0307 00       		.byte	0
 8636 0308 03       		.uleb128 0x3
 8637 0309 0E       		.uleb128 0xe
 8638 030a 3A       		.uleb128 0x3a
 8639 030b 0B       		.uleb128 0xb
 8640 030c 3B       		.uleb128 0x3b
 8641 030d 05       		.uleb128 0x5
 8642 030e 00       		.byte	0
 8643 030f 00       		.byte	0
 8644 0310 37       		.uleb128 0x37
 8645 0311 0B       		.uleb128 0xb
 8646 0312 01       		.byte	0x1
 8647 0313 55       		.uleb128 0x55
 8648 0314 06       		.uleb128 0x6
 8649 0315 01       		.uleb128 0x1
 8650 0316 13       		.uleb128 0x13
 8651 0317 00       		.byte	0
 8652 0318 00       		.byte	0
 8653 0319 38       		.uleb128 0x38
 8654 031a 898201   		.uleb128 0x4109
 8655 031d 01       		.byte	0x1
 8656 031e 11       		.uleb128 0x11
 8657 031f 01       		.uleb128 0x1
 8658 0320 9342     		.uleb128 0x2113
ARM GAS  C:\Users\jenny\AppData\Local\Temp\ccAyMdWJ.s 			page 154


 8659 0322 0A       		.uleb128 0xa
 8660 0323 01       		.uleb128 0x1
 8661 0324 13       		.uleb128 0x13
 8662 0325 00       		.byte	0
 8663 0326 00       		.byte	0
 8664 0327 39       		.uleb128 0x39
 8665 0328 898201   		.uleb128 0x4109
 8666 032b 01       		.byte	0x1
 8667 032c 11       		.uleb128 0x11
 8668 032d 01       		.uleb128 0x1
 8669 032e 01       		.uleb128 0x1
 8670 032f 13       		.uleb128 0x13
 8671 0330 00       		.byte	0
 8672 0331 00       		.byte	0
 8673 0332 3A       		.uleb128 0x3a
 8674 0333 898201   		.uleb128 0x4109
 8675 0336 01       		.byte	0x1
 8676 0337 11       		.uleb128 0x11
 8677 0338 01       		.uleb128 0x1
 8678 0339 31       		.uleb128 0x31
 8679 033a 13       		.uleb128 0x13
 8680 033b 00       		.byte	0
 8681 033c 00       		.byte	0
 8682 033d 3B       		.uleb128 0x3b
 8683 033e 2E       		.uleb128 0x2e
 8684 033f 01       		.byte	0x1
 8685 0340 03       		.uleb128 0x3
 8686 0341 0E       		.uleb128 0xe
 8687 0342 3A       		.uleb128 0x3a
 8688 0343 0B       		.uleb128 0xb
 8689 0344 3B       		.uleb128 0x3b
 8690 0345 05       		.uleb128 0x5
 8691 0346 27       		.uleb128 0x27
 8692 0347 0C       		.uleb128 0xc
 8693 0348 20       		.uleb128 0x20
 8694 0349 0B       		.uleb128 0xb
 8695 034a 01       		.uleb128 0x1
 8696 034b 13       		.uleb128 0x13
 8697 034c 00       		.byte	0
 8698 034d 00       		.byte	0
 8699 034e 3C       		.uleb128 0x3c
 8700 034f 34       		.uleb128 0x34
 8701 0350 00       		.byte	0
 8702 0351 03       		.uleb128 0x3
 8703 0352 0E       		.uleb128 0xe
 8704 0353 3A       		.uleb128 0x3a
 8705 0354 0B       		.uleb128 0xb
 8706 0355 3B       		.uleb128 0x3b
 8707 0356 05       		.uleb128 0x5
 8708 0357 49       		.uleb128 0x49
 8709 0358 13       		.uleb128 0x13
 8710 0359 00       		.byte	0
 8711 035a 00       		.byte	0
 8712 035b 3D       		.uleb128 0x3d
 8713 035c 05       		.uleb128 0x5
 8714 035d 00       		.byte	0
 8715 035e 03       		.uleb128 0x3
ARM GAS  C:\Users\jenny\AppData\Local\Temp\ccAyMdWJ.s 			page 155


 8716 035f 0E       		.uleb128 0xe
 8717 0360 3A       		.uleb128 0x3a
 8718 0361 0B       		.uleb128 0xb
 8719 0362 3B       		.uleb128 0x3b
 8720 0363 05       		.uleb128 0x5
 8721 0364 49       		.uleb128 0x49
 8722 0365 13       		.uleb128 0x13
 8723 0366 00       		.byte	0
 8724 0367 00       		.byte	0
 8725 0368 3E       		.uleb128 0x3e
 8726 0369 34       		.uleb128 0x34
 8727 036a 00       		.byte	0
 8728 036b 03       		.uleb128 0x3
 8729 036c 08       		.uleb128 0x8
 8730 036d 3A       		.uleb128 0x3a
 8731 036e 0B       		.uleb128 0xb
 8732 036f 3B       		.uleb128 0x3b
 8733 0370 05       		.uleb128 0x5
 8734 0371 49       		.uleb128 0x49
 8735 0372 13       		.uleb128 0x13
 8736 0373 02       		.uleb128 0x2
 8737 0374 0A       		.uleb128 0xa
 8738 0375 00       		.byte	0
 8739 0376 00       		.byte	0
 8740 0377 3F       		.uleb128 0x3f
 8741 0378 1D       		.uleb128 0x1d
 8742 0379 01       		.byte	0x1
 8743 037a 31       		.uleb128 0x31
 8744 037b 13       		.uleb128 0x13
 8745 037c 52       		.uleb128 0x52
 8746 037d 01       		.uleb128 0x1
 8747 037e 55       		.uleb128 0x55
 8748 037f 06       		.uleb128 0x6
 8749 0380 58       		.uleb128 0x58
 8750 0381 0B       		.uleb128 0xb
 8751 0382 59       		.uleb128 0x59
 8752 0383 05       		.uleb128 0x5
 8753 0384 01       		.uleb128 0x1
 8754 0385 13       		.uleb128 0x13
 8755 0386 00       		.byte	0
 8756 0387 00       		.byte	0
 8757 0388 40       		.uleb128 0x40
 8758 0389 34       		.uleb128 0x34
 8759 038a 00       		.byte	0
 8760 038b 31       		.uleb128 0x31
 8761 038c 13       		.uleb128 0x13
 8762 038d 02       		.uleb128 0x2
 8763 038e 0A       		.uleb128 0xa
 8764 038f 00       		.byte	0
 8765 0390 00       		.byte	0
 8766 0391 41       		.uleb128 0x41
 8767 0392 1D       		.uleb128 0x1d
 8768 0393 01       		.byte	0x1
 8769 0394 31       		.uleb128 0x31
 8770 0395 13       		.uleb128 0x13
 8771 0396 11       		.uleb128 0x11
 8772 0397 01       		.uleb128 0x1
ARM GAS  C:\Users\jenny\AppData\Local\Temp\ccAyMdWJ.s 			page 156


 8773 0398 12       		.uleb128 0x12
 8774 0399 01       		.uleb128 0x1
 8775 039a 58       		.uleb128 0x58
 8776 039b 0B       		.uleb128 0xb
 8777 039c 59       		.uleb128 0x59
 8778 039d 05       		.uleb128 0x5
 8779 039e 01       		.uleb128 0x1
 8780 039f 13       		.uleb128 0x13
 8781 03a0 00       		.byte	0
 8782 03a1 00       		.byte	0
 8783 03a2 42       		.uleb128 0x42
 8784 03a3 34       		.uleb128 0x34
 8785 03a4 00       		.byte	0
 8786 03a5 31       		.uleb128 0x31
 8787 03a6 13       		.uleb128 0x13
 8788 03a7 02       		.uleb128 0x2
 8789 03a8 06       		.uleb128 0x6
 8790 03a9 00       		.byte	0
 8791 03aa 00       		.byte	0
 8792 03ab 43       		.uleb128 0x43
 8793 03ac 05       		.uleb128 0x5
 8794 03ad 00       		.byte	0
 8795 03ae 31       		.uleb128 0x31
 8796 03af 13       		.uleb128 0x13
 8797 03b0 02       		.uleb128 0x2
 8798 03b1 0A       		.uleb128 0xa
 8799 03b2 00       		.byte	0
 8800 03b3 00       		.byte	0
 8801 03b4 44       		.uleb128 0x44
 8802 03b5 2E       		.uleb128 0x2e
 8803 03b6 01       		.byte	0x1
 8804 03b7 3F       		.uleb128 0x3f
 8805 03b8 0C       		.uleb128 0xc
 8806 03b9 03       		.uleb128 0x3
 8807 03ba 0E       		.uleb128 0xe
 8808 03bb 3A       		.uleb128 0x3a
 8809 03bc 0B       		.uleb128 0xb
 8810 03bd 3B       		.uleb128 0x3b
 8811 03be 05       		.uleb128 0x5
 8812 03bf 27       		.uleb128 0x27
 8813 03c0 0C       		.uleb128 0xc
 8814 03c1 49       		.uleb128 0x49
 8815 03c2 13       		.uleb128 0x13
 8816 03c3 11       		.uleb128 0x11
 8817 03c4 01       		.uleb128 0x1
 8818 03c5 12       		.uleb128 0x12
 8819 03c6 01       		.uleb128 0x1
 8820 03c7 40       		.uleb128 0x40
 8821 03c8 0A       		.uleb128 0xa
 8822 03c9 9742     		.uleb128 0x2117
 8823 03cb 0C       		.uleb128 0xc
 8824 03cc 01       		.uleb128 0x1
 8825 03cd 13       		.uleb128 0x13
 8826 03ce 00       		.byte	0
 8827 03cf 00       		.byte	0
 8828 03d0 45       		.uleb128 0x45
 8829 03d1 2E       		.uleb128 0x2e
ARM GAS  C:\Users\jenny\AppData\Local\Temp\ccAyMdWJ.s 			page 157


 8830 03d2 01       		.byte	0x1
 8831 03d3 03       		.uleb128 0x3
 8832 03d4 0E       		.uleb128 0xe
 8833 03d5 3A       		.uleb128 0x3a
 8834 03d6 0B       		.uleb128 0xb
 8835 03d7 3B       		.uleb128 0x3b
 8836 03d8 0B       		.uleb128 0xb
 8837 03d9 27       		.uleb128 0x27
 8838 03da 0C       		.uleb128 0xc
 8839 03db 49       		.uleb128 0x49
 8840 03dc 13       		.uleb128 0x13
 8841 03dd 11       		.uleb128 0x11
 8842 03de 01       		.uleb128 0x1
 8843 03df 12       		.uleb128 0x12
 8844 03e0 01       		.uleb128 0x1
 8845 03e1 40       		.uleb128 0x40
 8846 03e2 06       		.uleb128 0x6
 8847 03e3 9742     		.uleb128 0x2117
 8848 03e5 0C       		.uleb128 0xc
 8849 03e6 01       		.uleb128 0x1
 8850 03e7 13       		.uleb128 0x13
 8851 03e8 00       		.byte	0
 8852 03e9 00       		.byte	0
 8853 03ea 46       		.uleb128 0x46
 8854 03eb 05       		.uleb128 0x5
 8855 03ec 00       		.byte	0
 8856 03ed 03       		.uleb128 0x3
 8857 03ee 08       		.uleb128 0x8
 8858 03ef 3A       		.uleb128 0x3a
 8859 03f0 0B       		.uleb128 0xb
 8860 03f1 3B       		.uleb128 0x3b
 8861 03f2 0B       		.uleb128 0xb
 8862 03f3 49       		.uleb128 0x49
 8863 03f4 13       		.uleb128 0x13
 8864 03f5 02       		.uleb128 0x2
 8865 03f6 06       		.uleb128 0x6
 8866 03f7 00       		.byte	0
 8867 03f8 00       		.byte	0
 8868 03f9 47       		.uleb128 0x47
 8869 03fa 05       		.uleb128 0x5
 8870 03fb 00       		.byte	0
 8871 03fc 03       		.uleb128 0x3
 8872 03fd 0E       		.uleb128 0xe
 8873 03fe 3A       		.uleb128 0x3a
 8874 03ff 0B       		.uleb128 0xb
 8875 0400 3B       		.uleb128 0x3b
 8876 0401 0B       		.uleb128 0xb
 8877 0402 49       		.uleb128 0x49
 8878 0403 13       		.uleb128 0x13
 8879 0404 02       		.uleb128 0x2
 8880 0405 06       		.uleb128 0x6
 8881 0406 00       		.byte	0
 8882 0407 00       		.byte	0
 8883 0408 48       		.uleb128 0x48
 8884 0409 34       		.uleb128 0x34
 8885 040a 00       		.byte	0
 8886 040b 03       		.uleb128 0x3
ARM GAS  C:\Users\jenny\AppData\Local\Temp\ccAyMdWJ.s 			page 158


 8887 040c 08       		.uleb128 0x8
 8888 040d 3A       		.uleb128 0x3a
 8889 040e 0B       		.uleb128 0xb
 8890 040f 3B       		.uleb128 0x3b
 8891 0410 0B       		.uleb128 0xb
 8892 0411 49       		.uleb128 0x49
 8893 0412 13       		.uleb128 0x13
 8894 0413 02       		.uleb128 0x2
 8895 0414 06       		.uleb128 0x6
 8896 0415 00       		.byte	0
 8897 0416 00       		.byte	0
 8898 0417 49       		.uleb128 0x49
 8899 0418 898201   		.uleb128 0x4109
 8900 041b 00       		.byte	0
 8901 041c 11       		.uleb128 0x11
 8902 041d 01       		.uleb128 0x1
 8903 041e 9542     		.uleb128 0x2115
 8904 0420 0C       		.uleb128 0xc
 8905 0421 31       		.uleb128 0x31
 8906 0422 13       		.uleb128 0x13
 8907 0423 00       		.byte	0
 8908 0424 00       		.byte	0
 8909 0425 4A       		.uleb128 0x4a
 8910 0426 05       		.uleb128 0x5
 8911 0427 00       		.byte	0
 8912 0428 31       		.uleb128 0x31
 8913 0429 13       		.uleb128 0x13
 8914 042a 00       		.byte	0
 8915 042b 00       		.byte	0
 8916 042c 4B       		.uleb128 0x4b
 8917 042d 2E       		.uleb128 0x2e
 8918 042e 01       		.byte	0x1
 8919 042f 3F       		.uleb128 0x3f
 8920 0430 0C       		.uleb128 0xc
 8921 0431 03       		.uleb128 0x3
 8922 0432 0E       		.uleb128 0xe
 8923 0433 3A       		.uleb128 0x3a
 8924 0434 0B       		.uleb128 0xb
 8925 0435 3B       		.uleb128 0x3b
 8926 0436 0B       		.uleb128 0xb
 8927 0437 27       		.uleb128 0x27
 8928 0438 0C       		.uleb128 0xc
 8929 0439 11       		.uleb128 0x11
 8930 043a 01       		.uleb128 0x1
 8931 043b 12       		.uleb128 0x12
 8932 043c 01       		.uleb128 0x1
 8933 043d 40       		.uleb128 0x40
 8934 043e 06       		.uleb128 0x6
 8935 043f 9742     		.uleb128 0x2117
 8936 0441 0C       		.uleb128 0xc
 8937 0442 01       		.uleb128 0x1
 8938 0443 13       		.uleb128 0x13
 8939 0444 00       		.byte	0
 8940 0445 00       		.byte	0
 8941 0446 4C       		.uleb128 0x4c
 8942 0447 2E       		.uleb128 0x2e
 8943 0448 01       		.byte	0x1
ARM GAS  C:\Users\jenny\AppData\Local\Temp\ccAyMdWJ.s 			page 159


 8944 0449 31       		.uleb128 0x31
 8945 044a 13       		.uleb128 0x13
 8946 044b 11       		.uleb128 0x11
 8947 044c 01       		.uleb128 0x1
 8948 044d 12       		.uleb128 0x12
 8949 044e 01       		.uleb128 0x1
 8950 044f 40       		.uleb128 0x40
 8951 0450 0A       		.uleb128 0xa
 8952 0451 9742     		.uleb128 0x2117
 8953 0453 0C       		.uleb128 0xc
 8954 0454 01       		.uleb128 0x1
 8955 0455 13       		.uleb128 0x13
 8956 0456 00       		.byte	0
 8957 0457 00       		.byte	0
 8958 0458 4D       		.uleb128 0x4d
 8959 0459 34       		.uleb128 0x34
 8960 045a 00       		.byte	0
 8961 045b 03       		.uleb128 0x3
 8962 045c 0E       		.uleb128 0xe
 8963 045d 3A       		.uleb128 0x3a
 8964 045e 0B       		.uleb128 0xb
 8965 045f 3B       		.uleb128 0x3b
 8966 0460 0B       		.uleb128 0xb
 8967 0461 49       		.uleb128 0x49
 8968 0462 13       		.uleb128 0x13
 8969 0463 02       		.uleb128 0x2
 8970 0464 0A       		.uleb128 0xa
 8971 0465 00       		.byte	0
 8972 0466 00       		.byte	0
 8973 0467 4E       		.uleb128 0x4e
 8974 0468 34       		.uleb128 0x34
 8975 0469 00       		.byte	0
 8976 046a 03       		.uleb128 0x3
 8977 046b 0E       		.uleb128 0xe
 8978 046c 3A       		.uleb128 0x3a
 8979 046d 0B       		.uleb128 0xb
 8980 046e 3B       		.uleb128 0x3b
 8981 046f 0B       		.uleb128 0xb
 8982 0470 49       		.uleb128 0x49
 8983 0471 13       		.uleb128 0x13
 8984 0472 3F       		.uleb128 0x3f
 8985 0473 0C       		.uleb128 0xc
 8986 0474 02       		.uleb128 0x2
 8987 0475 0A       		.uleb128 0xa
 8988 0476 00       		.byte	0
 8989 0477 00       		.byte	0
 8990 0478 4F       		.uleb128 0x4f
 8991 0479 34       		.uleb128 0x34
 8992 047a 00       		.byte	0
 8993 047b 03       		.uleb128 0x3
 8994 047c 0E       		.uleb128 0xe
 8995 047d 3A       		.uleb128 0x3a
 8996 047e 0B       		.uleb128 0xb
 8997 047f 3B       		.uleb128 0x3b
 8998 0480 0B       		.uleb128 0xb
 8999 0481 49       		.uleb128 0x49
 9000 0482 13       		.uleb128 0x13
ARM GAS  C:\Users\jenny\AppData\Local\Temp\ccAyMdWJ.s 			page 160


 9001 0483 3F       		.uleb128 0x3f
 9002 0484 0C       		.uleb128 0xc
 9003 0485 3C       		.uleb128 0x3c
 9004 0486 0C       		.uleb128 0xc
 9005 0487 00       		.byte	0
 9006 0488 00       		.byte	0
 9007 0489 50       		.uleb128 0x50
 9008 048a 2E       		.uleb128 0x2e
 9009 048b 00       		.byte	0
 9010 048c 3F       		.uleb128 0x3f
 9011 048d 0C       		.uleb128 0xc
 9012 048e 03       		.uleb128 0x3
 9013 048f 0E       		.uleb128 0xe
 9014 0490 3A       		.uleb128 0x3a
 9015 0491 0B       		.uleb128 0xb
 9016 0492 3B       		.uleb128 0x3b
 9017 0493 05       		.uleb128 0x5
 9018 0494 27       		.uleb128 0x27
 9019 0495 0C       		.uleb128 0xc
 9020 0496 3C       		.uleb128 0x3c
 9021 0497 0C       		.uleb128 0xc
 9022 0498 00       		.byte	0
 9023 0499 00       		.byte	0
 9024 049a 51       		.uleb128 0x51
 9025 049b 2E       		.uleb128 0x2e
 9026 049c 01       		.byte	0x1
 9027 049d 3F       		.uleb128 0x3f
 9028 049e 0C       		.uleb128 0xc
 9029 049f 03       		.uleb128 0x3
 9030 04a0 0E       		.uleb128 0xe
 9031 04a1 3A       		.uleb128 0x3a
 9032 04a2 0B       		.uleb128 0xb
 9033 04a3 3B       		.uleb128 0x3b
 9034 04a4 0B       		.uleb128 0xb
 9035 04a5 27       		.uleb128 0x27
 9036 04a6 0C       		.uleb128 0xc
 9037 04a7 49       		.uleb128 0x49
 9038 04a8 13       		.uleb128 0x13
 9039 04a9 3C       		.uleb128 0x3c
 9040 04aa 0C       		.uleb128 0xc
 9041 04ab 01       		.uleb128 0x1
 9042 04ac 13       		.uleb128 0x13
 9043 04ad 00       		.byte	0
 9044 04ae 00       		.byte	0
 9045 04af 52       		.uleb128 0x52
 9046 04b0 2E       		.uleb128 0x2e
 9047 04b1 01       		.byte	0x1
 9048 04b2 3F       		.uleb128 0x3f
 9049 04b3 0C       		.uleb128 0xc
 9050 04b4 03       		.uleb128 0x3
 9051 04b5 0E       		.uleb128 0xe
 9052 04b6 3A       		.uleb128 0x3a
 9053 04b7 0B       		.uleb128 0xb
 9054 04b8 3B       		.uleb128 0x3b
 9055 04b9 0B       		.uleb128 0xb
 9056 04ba 27       		.uleb128 0x27
 9057 04bb 0C       		.uleb128 0xc
ARM GAS  C:\Users\jenny\AppData\Local\Temp\ccAyMdWJ.s 			page 161


 9058 04bc 3C       		.uleb128 0x3c
 9059 04bd 0C       		.uleb128 0xc
 9060 04be 01       		.uleb128 0x1
 9061 04bf 13       		.uleb128 0x13
 9062 04c0 00       		.byte	0
 9063 04c1 00       		.byte	0
 9064 04c2 53       		.uleb128 0x53
 9065 04c3 2E       		.uleb128 0x2e
 9066 04c4 01       		.byte	0x1
 9067 04c5 3F       		.uleb128 0x3f
 9068 04c6 0C       		.uleb128 0xc
 9069 04c7 03       		.uleb128 0x3
 9070 04c8 0E       		.uleb128 0xe
 9071 04c9 3A       		.uleb128 0x3a
 9072 04ca 0B       		.uleb128 0xb
 9073 04cb 3B       		.uleb128 0x3b
 9074 04cc 05       		.uleb128 0x5
 9075 04cd 27       		.uleb128 0x27
 9076 04ce 0C       		.uleb128 0xc
 9077 04cf 49       		.uleb128 0x49
 9078 04d0 13       		.uleb128 0x13
 9079 04d1 3C       		.uleb128 0x3c
 9080 04d2 0C       		.uleb128 0xc
 9081 04d3 01       		.uleb128 0x1
 9082 04d4 13       		.uleb128 0x13
 9083 04d5 00       		.byte	0
 9084 04d6 00       		.byte	0
 9085 04d7 54       		.uleb128 0x54
 9086 04d8 2E       		.uleb128 0x2e
 9087 04d9 01       		.byte	0x1
 9088 04da 3F       		.uleb128 0x3f
 9089 04db 0C       		.uleb128 0xc
 9090 04dc 03       		.uleb128 0x3
 9091 04dd 0E       		.uleb128 0xe
 9092 04de 3A       		.uleb128 0x3a
 9093 04df 0B       		.uleb128 0xb
 9094 04e0 3B       		.uleb128 0x3b
 9095 04e1 05       		.uleb128 0x5
 9096 04e2 27       		.uleb128 0x27
 9097 04e3 0C       		.uleb128 0xc
 9098 04e4 3C       		.uleb128 0x3c
 9099 04e5 0C       		.uleb128 0xc
 9100 04e6 01       		.uleb128 0x1
 9101 04e7 13       		.uleb128 0x13
 9102 04e8 00       		.byte	0
 9103 04e9 00       		.byte	0
 9104 04ea 55       		.uleb128 0x55
 9105 04eb 2E       		.uleb128 0x2e
 9106 04ec 01       		.byte	0x1
 9107 04ed 3F       		.uleb128 0x3f
 9108 04ee 0C       		.uleb128 0xc
 9109 04ef 03       		.uleb128 0x3
 9110 04f0 0E       		.uleb128 0xe
 9111 04f1 27       		.uleb128 0x27
 9112 04f2 0C       		.uleb128 0xc
 9113 04f3 49       		.uleb128 0x49
 9114 04f4 13       		.uleb128 0x13
ARM GAS  C:\Users\jenny\AppData\Local\Temp\ccAyMdWJ.s 			page 162


 9115 04f5 34       		.uleb128 0x34
 9116 04f6 0C       		.uleb128 0xc
 9117 04f7 3C       		.uleb128 0x3c
 9118 04f8 0C       		.uleb128 0xc
 9119 04f9 01       		.uleb128 0x1
 9120 04fa 13       		.uleb128 0x13
 9121 04fb 00       		.byte	0
 9122 04fc 00       		.byte	0
 9123 04fd 56       		.uleb128 0x56
 9124 04fe 2E       		.uleb128 0x2e
 9125 04ff 01       		.byte	0x1
 9126 0500 3F       		.uleb128 0x3f
 9127 0501 0C       		.uleb128 0xc
 9128 0502 03       		.uleb128 0x3
 9129 0503 0E       		.uleb128 0xe
 9130 0504 3A       		.uleb128 0x3a
 9131 0505 0B       		.uleb128 0xb
 9132 0506 3B       		.uleb128 0x3b
 9133 0507 05       		.uleb128 0x5
 9134 0508 27       		.uleb128 0x27
 9135 0509 0C       		.uleb128 0xc
 9136 050a 49       		.uleb128 0x49
 9137 050b 13       		.uleb128 0x13
 9138 050c 3C       		.uleb128 0x3c
 9139 050d 0C       		.uleb128 0xc
 9140 050e 00       		.byte	0
 9141 050f 00       		.byte	0
 9142 0510 00       		.byte	0
 9143              		.section	.debug_loc,"",%progbits
 9144              	.Ldebug_loc0:
 9145              	.LLST0:
 9146 0000 00000000 		.4byte	.LVL0
 9147 0004 04000000 		.4byte	.LVL1
 9148 0008 0100     		.2byte	0x1
 9149 000a 50       		.byte	0x50
 9150 000b 04000000 		.4byte	.LVL1
 9151 000f 06000000 		.4byte	.LFE15
 9152 0013 0400     		.2byte	0x4
 9153 0015 F3       		.byte	0xf3
 9154 0016 01       		.uleb128 0x1
 9155 0017 50       		.byte	0x50
 9156 0018 9F       		.byte	0x9f
 9157 0019 00000000 		.4byte	0
 9158 001d 00000000 		.4byte	0
 9159              	.LLST1:
 9160 0021 00000000 		.4byte	.LFB19
 9161 0025 02000000 		.4byte	.LCFI0
 9162 0029 0200     		.2byte	0x2
 9163 002b 7D       		.byte	0x7d
 9164 002c 00       		.sleb128 0
 9165 002d 02000000 		.4byte	.LCFI0
 9166 0031 58000000 		.4byte	.LFE19
 9167 0035 0200     		.2byte	0x2
 9168 0037 7D       		.byte	0x7d
 9169 0038 10       		.sleb128 16
 9170 0039 00000000 		.4byte	0
 9171 003d 00000000 		.4byte	0
ARM GAS  C:\Users\jenny\AppData\Local\Temp\ccAyMdWJ.s 			page 163


 9172              	.LLST2:
 9173 0041 18000000 		.4byte	.LVL4
 9174 0045 1A000000 		.4byte	.LVL5
 9175 0049 0200     		.2byte	0x2
 9176 004b 30       		.byte	0x30
 9177 004c 9F       		.byte	0x9f
 9178 004d 00000000 		.4byte	0
 9179 0051 00000000 		.4byte	0
 9180              	.LLST3:
 9181 0055 00000000 		.4byte	.LVL2
 9182 0059 10000000 		.4byte	.LVL3
 9183 005d 0200     		.2byte	0x2
 9184 005f 30       		.byte	0x30
 9185 0060 9F       		.byte	0x9f
 9186 0061 00000000 		.4byte	0
 9187 0065 00000000 		.4byte	0
 9188              	.LLST4:
 9189 0069 20000000 		.4byte	.LVL6
 9190 006d 46000000 		.4byte	.LVL8
 9191 0071 0100     		.2byte	0x1
 9192 0073 53       		.byte	0x53
 9193 0074 00000000 		.4byte	0
 9194 0078 00000000 		.4byte	0
 9195              	.LLST5:
 9196 007c 00000000 		.4byte	.LFB14
 9197 0080 02000000 		.4byte	.LCFI1
 9198 0084 0200     		.2byte	0x2
 9199 0086 7D       		.byte	0x7d
 9200 0087 00       		.sleb128 0
 9201 0088 02000000 		.4byte	.LCFI1
 9202 008c 7C000000 		.4byte	.LFE14
 9203 0090 0200     		.2byte	0x2
 9204 0092 7D       		.byte	0x7d
 9205 0093 18       		.sleb128 24
 9206 0094 00000000 		.4byte	0
 9207 0098 00000000 		.4byte	0
 9208              	.LLST6:
 9209 009c 00000000 		.4byte	.LVL9
 9210 00a0 0E000000 		.4byte	.LVL10
 9211 00a4 0100     		.2byte	0x1
 9212 00a6 50       		.byte	0x50
 9213 00a7 0E000000 		.4byte	.LVL10
 9214 00ab 5C000000 		.4byte	.LVL18
 9215 00af 0100     		.2byte	0x1
 9216 00b1 57       		.byte	0x57
 9217 00b2 5C000000 		.4byte	.LVL18
 9218 00b6 5F000000 		.4byte	.LVL19-1
 9219 00ba 0100     		.2byte	0x1
 9220 00bc 50       		.byte	0x50
 9221 00bd 5F000000 		.4byte	.LVL19-1
 9222 00c1 6A000000 		.4byte	.LVL20
 9223 00c5 0100     		.2byte	0x1
 9224 00c7 57       		.byte	0x57
 9225 00c8 6A000000 		.4byte	.LVL20
 9226 00cc 6D000000 		.4byte	.LVL21-1
 9227 00d0 0100     		.2byte	0x1
 9228 00d2 50       		.byte	0x50
ARM GAS  C:\Users\jenny\AppData\Local\Temp\ccAyMdWJ.s 			page 164


 9229 00d3 6D000000 		.4byte	.LVL21-1
 9230 00d7 7C000000 		.4byte	.LFE14
 9231 00db 0100     		.2byte	0x1
 9232 00dd 57       		.byte	0x57
 9233 00de 00000000 		.4byte	0
 9234 00e2 00000000 		.4byte	0
 9235              	.LLST7:
 9236 00e6 00000000 		.4byte	.LVL9
 9237 00ea 0E000000 		.4byte	.LVL10
 9238 00ee 0100     		.2byte	0x1
 9239 00f0 51       		.byte	0x51
 9240 00f1 0E000000 		.4byte	.LVL10
 9241 00f5 5C000000 		.4byte	.LVL18
 9242 00f9 0100     		.2byte	0x1
 9243 00fb 56       		.byte	0x56
 9244 00fc 5C000000 		.4byte	.LVL18
 9245 0100 5F000000 		.4byte	.LVL19-1
 9246 0104 0100     		.2byte	0x1
 9247 0106 51       		.byte	0x51
 9248 0107 5F000000 		.4byte	.LVL19-1
 9249 010b 6A000000 		.4byte	.LVL20
 9250 010f 0100     		.2byte	0x1
 9251 0111 56       		.byte	0x56
 9252 0112 6A000000 		.4byte	.LVL20
 9253 0116 6D000000 		.4byte	.LVL21-1
 9254 011a 0100     		.2byte	0x1
 9255 011c 51       		.byte	0x51
 9256 011d 6D000000 		.4byte	.LVL21-1
 9257 0121 7C000000 		.4byte	.LFE14
 9258 0125 0100     		.2byte	0x1
 9259 0127 56       		.byte	0x56
 9260 0128 00000000 		.4byte	0
 9261 012c 00000000 		.4byte	0
 9262              	.LLST8:
 9263 0130 00000000 		.4byte	.LVL9
 9264 0134 0E000000 		.4byte	.LVL10
 9265 0138 0100     		.2byte	0x1
 9266 013a 52       		.byte	0x52
 9267 013b 0E000000 		.4byte	.LVL10
 9268 013f 38000000 		.4byte	.LVL14
 9269 0143 0100     		.2byte	0x1
 9270 0145 52       		.byte	0x52
 9271 0146 3C000000 		.4byte	.LVL15
 9272 014a 4E000000 		.4byte	.LVL16
 9273 014e 0100     		.2byte	0x1
 9274 0150 52       		.byte	0x52
 9275 0151 5C000000 		.4byte	.LVL18
 9276 0155 5F000000 		.4byte	.LVL19-1
 9277 0159 0100     		.2byte	0x1
 9278 015b 52       		.byte	0x52
 9279 015c 5F000000 		.4byte	.LVL19-1
 9280 0160 60000000 		.4byte	.LVL19
 9281 0164 0400     		.2byte	0x4
 9282 0166 F3       		.byte	0xf3
 9283 0167 01       		.uleb128 0x1
 9284 0168 52       		.byte	0x52
 9285 0169 9F       		.byte	0x9f
ARM GAS  C:\Users\jenny\AppData\Local\Temp\ccAyMdWJ.s 			page 165


 9286 016a 60000000 		.4byte	.LVL19
 9287 016e 6A000000 		.4byte	.LVL20
 9288 0172 0100     		.2byte	0x1
 9289 0174 50       		.byte	0x50
 9290 0175 6A000000 		.4byte	.LVL20
 9291 0179 6D000000 		.4byte	.LVL21-1
 9292 017d 0100     		.2byte	0x1
 9293 017f 52       		.byte	0x52
 9294 0180 6D000000 		.4byte	.LVL21-1
 9295 0184 7C000000 		.4byte	.LFE14
 9296 0188 0400     		.2byte	0x4
 9297 018a F3       		.byte	0xf3
 9298 018b 01       		.uleb128 0x1
 9299 018c 52       		.byte	0x52
 9300 018d 9F       		.byte	0x9f
 9301 018e 00000000 		.4byte	0
 9302 0192 00000000 		.4byte	0
 9303              	.LLST9:
 9304 0196 0E000000 		.4byte	.LVL10
 9305 019a 14000000 		.4byte	.LVL11
 9306 019e 0200     		.2byte	0x2
 9307 01a0 30       		.byte	0x30
 9308 01a1 9F       		.byte	0x9f
 9309 01a2 00000000 		.4byte	0
 9310 01a6 00000000 		.4byte	0
 9311              	.LLST10:
 9312 01aa 1A000000 		.4byte	.LVL12
 9313 01ae 38000000 		.4byte	.LVL14
 9314 01b2 0100     		.2byte	0x1
 9315 01b4 53       		.byte	0x53
 9316 01b5 3C000000 		.4byte	.LVL15
 9317 01b9 55000000 		.4byte	.LVL17-1
 9318 01bd 0100     		.2byte	0x1
 9319 01bf 53       		.byte	0x53
 9320 01c0 00000000 		.4byte	0
 9321 01c4 00000000 		.4byte	0
 9322              	.LLST11:
 9323 01c8 00000000 		.4byte	.LFB16
 9324 01cc 02000000 		.4byte	.LCFI2
 9325 01d0 0200     		.2byte	0x2
 9326 01d2 7D       		.byte	0x7d
 9327 01d3 00       		.sleb128 0
 9328 01d4 02000000 		.4byte	.LCFI2
 9329 01d8 B0000000 		.4byte	.LFE16
 9330 01dc 0200     		.2byte	0x2
 9331 01de 7D       		.byte	0x7d
 9332 01df 10       		.sleb128 16
 9333 01e0 00000000 		.4byte	0
 9334 01e4 00000000 		.4byte	0
 9335              	.LLST12:
 9336 01e8 00000000 		.4byte	.LVL22
 9337 01ec 0C000000 		.4byte	.LVL23
 9338 01f0 0100     		.2byte	0x1
 9339 01f2 50       		.byte	0x50
 9340 01f3 0C000000 		.4byte	.LVL23
 9341 01f7 8E000000 		.4byte	.LVL28
 9342 01fb 0100     		.2byte	0x1
ARM GAS  C:\Users\jenny\AppData\Local\Temp\ccAyMdWJ.s 			page 166


 9343 01fd 54       		.byte	0x54
 9344 01fe 8E000000 		.4byte	.LVL28
 9345 0202 91000000 		.4byte	.LVL29-1
 9346 0206 0100     		.2byte	0x1
 9347 0208 50       		.byte	0x50
 9348 0209 91000000 		.4byte	.LVL29-1
 9349 020d B0000000 		.4byte	.LFE16
 9350 0211 0100     		.2byte	0x1
 9351 0213 54       		.byte	0x54
 9352 0214 00000000 		.4byte	0
 9353 0218 00000000 		.4byte	0
 9354              	.LLST13:
 9355 021c 00000000 		.4byte	.LVL22
 9356 0220 0F000000 		.4byte	.LVL24-1
 9357 0224 0100     		.2byte	0x1
 9358 0226 51       		.byte	0x51
 9359 0227 0F000000 		.4byte	.LVL24-1
 9360 022b 8E000000 		.4byte	.LVL28
 9361 022f 0400     		.2byte	0x4
 9362 0231 F3       		.byte	0xf3
 9363 0232 01       		.uleb128 0x1
 9364 0233 51       		.byte	0x51
 9365 0234 9F       		.byte	0x9f
 9366 0235 8E000000 		.4byte	.LVL28
 9367 0239 91000000 		.4byte	.LVL29-1
 9368 023d 0100     		.2byte	0x1
 9369 023f 51       		.byte	0x51
 9370 0240 91000000 		.4byte	.LVL29-1
 9371 0244 B0000000 		.4byte	.LFE16
 9372 0248 0400     		.2byte	0x4
 9373 024a F3       		.byte	0xf3
 9374 024b 01       		.uleb128 0x1
 9375 024c 51       		.byte	0x51
 9376 024d 9F       		.byte	0x9f
 9377 024e 00000000 		.4byte	0
 9378 0252 00000000 		.4byte	0
 9379              	.LLST14:
 9380 0256 10000000 		.4byte	.LVL24
 9381 025a 18000000 		.4byte	.LVL25
 9382 025e 0100     		.2byte	0x1
 9383 0260 50       		.byte	0x50
 9384 0261 18000000 		.4byte	.LVL25
 9385 0265 8E000000 		.4byte	.LVL28
 9386 0269 0100     		.2byte	0x1
 9387 026b 55       		.byte	0x55
 9388 026c 96000000 		.4byte	.LVL30
 9389 0270 B0000000 		.4byte	.LFE16
 9390 0274 0100     		.2byte	0x1
 9391 0276 55       		.byte	0x55
 9392 0277 00000000 		.4byte	0
 9393 027b 00000000 		.4byte	0
 9394              	.LLST15:
 9395 027f 00000000 		.4byte	.LFB17
 9396 0283 02000000 		.4byte	.LCFI3
 9397 0287 0200     		.2byte	0x2
 9398 0289 7D       		.byte	0x7d
 9399 028a 00       		.sleb128 0
ARM GAS  C:\Users\jenny\AppData\Local\Temp\ccAyMdWJ.s 			page 167


 9400 028b 02000000 		.4byte	.LCFI3
 9401 028f 44000000 		.4byte	.LFE17
 9402 0293 0200     		.2byte	0x2
 9403 0295 7D       		.byte	0x7d
 9404 0296 10       		.sleb128 16
 9405 0297 00000000 		.4byte	0
 9406 029b 00000000 		.4byte	0
 9407              	.LLST16:
 9408 029f 00000000 		.4byte	.LVL31
 9409 02a3 0E000000 		.4byte	.LVL33
 9410 02a7 0100     		.2byte	0x1
 9411 02a9 50       		.byte	0x50
 9412 02aa 0E000000 		.4byte	.LVL33
 9413 02ae 44000000 		.4byte	.LFE17
 9414 02b2 0100     		.2byte	0x1
 9415 02b4 54       		.byte	0x54
 9416 02b5 00000000 		.4byte	0
 9417 02b9 00000000 		.4byte	0
 9418              	.LLST17:
 9419 02bd 08000000 		.4byte	.LVL32
 9420 02c1 26000000 		.4byte	.LVL34
 9421 02c5 0600     		.2byte	0x6
 9422 02c7 73       		.byte	0x73
 9423 02c8 00       		.sleb128 0
 9424 02c9 72       		.byte	0x72
 9425 02ca 00       		.sleb128 0
 9426 02cb 22       		.byte	0x22
 9427 02cc 9F       		.byte	0x9f
 9428 02cd 26000000 		.4byte	.LVL34
 9429 02d1 38000000 		.4byte	.LVL36
 9430 02d5 0C00     		.2byte	0xc
 9431 02d7 74       		.byte	0x74
 9432 02d8 2C       		.sleb128 44
 9433 02d9 94       		.byte	0x94
 9434 02da 02       		.byte	0x2
 9435 02db 0A       		.byte	0xa
 9436 02dc FFFF     		.2byte	0xffff
 9437 02de 1A       		.byte	0x1a
 9438 02df 72       		.byte	0x72
 9439 02e0 00       		.sleb128 0
 9440 02e1 22       		.byte	0x22
 9441 02e2 9F       		.byte	0x9f
 9442 02e3 3E000000 		.4byte	.LVL37
 9443 02e7 41000000 		.4byte	.LVL38-1
 9444 02eb 0C00     		.2byte	0xc
 9445 02ed 74       		.byte	0x74
 9446 02ee 2C       		.sleb128 44
 9447 02ef 94       		.byte	0x94
 9448 02f0 02       		.byte	0x2
 9449 02f1 0A       		.byte	0xa
 9450 02f2 FFFF     		.2byte	0xffff
 9451 02f4 1A       		.byte	0x1a
 9452 02f5 72       		.byte	0x72
 9453 02f6 00       		.sleb128 0
 9454 02f7 22       		.byte	0x22
 9455 02f8 9F       		.byte	0x9f
 9456 02f9 00000000 		.4byte	0
ARM GAS  C:\Users\jenny\AppData\Local\Temp\ccAyMdWJ.s 			page 168


 9457 02fd 00000000 		.4byte	0
 9458              	.LLST18:
 9459 0301 00000000 		.4byte	.LFB18
 9460 0305 02000000 		.4byte	.LCFI4
 9461 0309 0200     		.2byte	0x2
 9462 030b 7D       		.byte	0x7d
 9463 030c 00       		.sleb128 0
 9464 030d 02000000 		.4byte	.LCFI4
 9465 0311 58000000 		.4byte	.LFE18
 9466 0315 0200     		.2byte	0x2
 9467 0317 7D       		.byte	0x7d
 9468 0318 10       		.sleb128 16
 9469 0319 00000000 		.4byte	0
 9470 031d 00000000 		.4byte	0
 9471              	.LLST19:
 9472 0321 00000000 		.4byte	.LVL39
 9473 0325 0C000000 		.4byte	.LVL40
 9474 0329 0100     		.2byte	0x1
 9475 032b 50       		.byte	0x50
 9476 032c 0C000000 		.4byte	.LVL40
 9477 0330 52000000 		.4byte	.LVL45
 9478 0334 0100     		.2byte	0x1
 9479 0336 54       		.byte	0x54
 9480 0337 52000000 		.4byte	.LVL45
 9481 033b 55000000 		.4byte	.LVL46-1
 9482 033f 0100     		.2byte	0x1
 9483 0341 50       		.byte	0x50
 9484 0342 55000000 		.4byte	.LVL46-1
 9485 0346 58000000 		.4byte	.LFE18
 9486 034a 0100     		.2byte	0x1
 9487 034c 54       		.byte	0x54
 9488 034d 00000000 		.4byte	0
 9489 0351 00000000 		.4byte	0
 9490              	.LLST20:
 9491 0355 00000000 		.4byte	.LVL39
 9492 0359 0C000000 		.4byte	.LVL40
 9493 035d 0100     		.2byte	0x1
 9494 035f 51       		.byte	0x51
 9495 0360 0C000000 		.4byte	.LVL40
 9496 0364 52000000 		.4byte	.LVL45
 9497 0368 0400     		.2byte	0x4
 9498 036a F3       		.byte	0xf3
 9499 036b 01       		.uleb128 0x1
 9500 036c 51       		.byte	0x51
 9501 036d 9F       		.byte	0x9f
 9502 036e 52000000 		.4byte	.LVL45
 9503 0372 55000000 		.4byte	.LVL46-1
 9504 0376 0100     		.2byte	0x1
 9505 0378 51       		.byte	0x51
 9506 0379 55000000 		.4byte	.LVL46-1
 9507 037d 58000000 		.4byte	.LFE18
 9508 0381 0400     		.2byte	0x4
 9509 0383 F3       		.byte	0xf3
 9510 0384 01       		.uleb128 0x1
 9511 0385 51       		.byte	0x51
 9512 0386 9F       		.byte	0x9f
 9513 0387 00000000 		.4byte	0
ARM GAS  C:\Users\jenny\AppData\Local\Temp\ccAyMdWJ.s 			page 169


 9514 038b 00000000 		.4byte	0
 9515              	.LLST21:
 9516 038f 30000000 		.4byte	.LVL41
 9517 0393 3A000000 		.4byte	.LVL42
 9518 0397 0100     		.2byte	0x1
 9519 0399 50       		.byte	0x50
 9520 039a 00000000 		.4byte	0
 9521 039e 00000000 		.4byte	0
 9522              	.LLST22:
 9523 03a2 00000000 		.4byte	.LFB25
 9524 03a6 02000000 		.4byte	.LCFI5
 9525 03aa 0200     		.2byte	0x2
 9526 03ac 7D       		.byte	0x7d
 9527 03ad 00       		.sleb128 0
 9528 03ae 02000000 		.4byte	.LCFI5
 9529 03b2 1C000000 		.4byte	.LFE25
 9530 03b6 0200     		.2byte	0x2
 9531 03b8 7D       		.byte	0x7d
 9532 03b9 08       		.sleb128 8
 9533 03ba 00000000 		.4byte	0
 9534 03be 00000000 		.4byte	0
 9535              	.LLST23:
 9536 03c2 00000000 		.4byte	.LVL47
 9537 03c6 08000000 		.4byte	.LVL48
 9538 03ca 0100     		.2byte	0x1
 9539 03cc 50       		.byte	0x50
 9540 03cd 08000000 		.4byte	.LVL48
 9541 03d1 1A000000 		.4byte	.LVL50
 9542 03d5 0100     		.2byte	0x1
 9543 03d7 54       		.byte	0x54
 9544 03d8 1A000000 		.4byte	.LVL50
 9545 03dc 1C000000 		.4byte	.LFE25
 9546 03e0 0100     		.2byte	0x1
 9547 03e2 50       		.byte	0x50
 9548 03e3 00000000 		.4byte	0
 9549 03e7 00000000 		.4byte	0
 9550              	.LLST24:
 9551 03eb 00000000 		.4byte	.LFB24
 9552 03ef 02000000 		.4byte	.LCFI6
 9553 03f3 0200     		.2byte	0x2
 9554 03f5 7D       		.byte	0x7d
 9555 03f6 00       		.sleb128 0
 9556 03f7 02000000 		.4byte	.LCFI6
 9557 03fb 12000000 		.4byte	.LFE24
 9558 03ff 0200     		.2byte	0x2
 9559 0401 7D       		.byte	0x7d
 9560 0402 08       		.sleb128 8
 9561 0403 00000000 		.4byte	0
 9562 0407 00000000 		.4byte	0
 9563              	.LLST25:
 9564 040b 00000000 		.4byte	.LVL51
 9565 040f 09000000 		.4byte	.LVL53-1
 9566 0413 0100     		.2byte	0x1
 9567 0415 50       		.byte	0x50
 9568 0416 0A000000 		.4byte	.LVL53
 9569 041a 10000000 		.4byte	.LVL54
 9570 041e 0100     		.2byte	0x1
ARM GAS  C:\Users\jenny\AppData\Local\Temp\ccAyMdWJ.s 			page 170


 9571 0420 54       		.byte	0x54
 9572 0421 10000000 		.4byte	.LVL54
 9573 0425 12000000 		.4byte	.LFE24
 9574 0429 0100     		.2byte	0x1
 9575 042b 50       		.byte	0x50
 9576 042c 00000000 		.4byte	0
 9577 0430 00000000 		.4byte	0
 9578              	.LLST26:
 9579 0434 06000000 		.4byte	.LVL52
 9580 0438 10000000 		.4byte	.LVL54
 9581 043c 0100     		.2byte	0x1
 9582 043e 54       		.byte	0x54
 9583 043f 00000000 		.4byte	0
 9584 0443 00000000 		.4byte	0
 9585              	.LLST27:
 9586 0447 00000000 		.4byte	.LFB27
 9587 044b 02000000 		.4byte	.LCFI7
 9588 044f 0200     		.2byte	0x2
 9589 0451 7D       		.byte	0x7d
 9590 0452 00       		.sleb128 0
 9591 0453 02000000 		.4byte	.LCFI7
 9592 0457 28000000 		.4byte	.LFE27
 9593 045b 0200     		.2byte	0x2
 9594 045d 7D       		.byte	0x7d
 9595 045e 10       		.sleb128 16
 9596 045f 00000000 		.4byte	0
 9597 0463 00000000 		.4byte	0
 9598              	.LLST28:
 9599 0467 00000000 		.4byte	.LVL56
 9600 046b 06000000 		.4byte	.LVL57
 9601 046f 0100     		.2byte	0x1
 9602 0471 50       		.byte	0x50
 9603 0472 06000000 		.4byte	.LVL57
 9604 0476 28000000 		.4byte	.LFE27
 9605 047a 0100     		.2byte	0x1
 9606 047c 55       		.byte	0x55
 9607 047d 00000000 		.4byte	0
 9608 0481 00000000 		.4byte	0
 9609              	.LLST29:
 9610 0485 0A000000 		.4byte	.LVL58
 9611 0489 10000000 		.4byte	.LVL59
 9612 048d 0100     		.2byte	0x1
 9613 048f 50       		.byte	0x50
 9614 0490 10000000 		.4byte	.LVL59
 9615 0494 28000000 		.4byte	.LFE27
 9616 0498 0100     		.2byte	0x1
 9617 049a 54       		.byte	0x54
 9618 049b 00000000 		.4byte	0
 9619 049f 00000000 		.4byte	0
 9620              	.LLST30:
 9621 04a3 00000000 		.4byte	.LFB34
 9622 04a7 02000000 		.4byte	.LCFI8
 9623 04ab 0200     		.2byte	0x2
 9624 04ad 7D       		.byte	0x7d
 9625 04ae 00       		.sleb128 0
 9626 04af 02000000 		.4byte	.LCFI8
 9627 04b3 08000000 		.4byte	.LCFI9
ARM GAS  C:\Users\jenny\AppData\Local\Temp\ccAyMdWJ.s 			page 171


 9628 04b7 0200     		.2byte	0x2
 9629 04b9 7D       		.byte	0x7d
 9630 04ba 04       		.sleb128 4
 9631 04bb 08000000 		.4byte	.LCFI9
 9632 04bf 20000000 		.4byte	.LFE34
 9633 04c3 0200     		.2byte	0x2
 9634 04c5 7D       		.byte	0x7d
 9635 04c6 10       		.sleb128 16
 9636 04c7 00000000 		.4byte	0
 9637 04cb 00000000 		.4byte	0
 9638              	.LLST31:
 9639 04cf 00000000 		.4byte	.LVL62
 9640 04d3 0A000000 		.4byte	.LVL63
 9641 04d7 0100     		.2byte	0x1
 9642 04d9 50       		.byte	0x50
 9643 04da 0A000000 		.4byte	.LVL63
 9644 04de 12000000 		.4byte	.LVL64
 9645 04e2 0400     		.2byte	0x4
 9646 04e4 F3       		.byte	0xf3
 9647 04e5 01       		.uleb128 0x1
 9648 04e6 50       		.byte	0x50
 9649 04e7 9F       		.byte	0x9f
 9650 04e8 12000000 		.4byte	.LVL64
 9651 04ec 19000000 		.4byte	.LVL65-1
 9652 04f0 0100     		.2byte	0x1
 9653 04f2 50       		.byte	0x50
 9654 04f3 19000000 		.4byte	.LVL65-1
 9655 04f7 20000000 		.4byte	.LFE34
 9656 04fb 0400     		.2byte	0x4
 9657 04fd F3       		.byte	0xf3
 9658 04fe 01       		.uleb128 0x1
 9659 04ff 50       		.byte	0x50
 9660 0500 9F       		.byte	0x9f
 9661 0501 00000000 		.4byte	0
 9662 0505 00000000 		.4byte	0
 9663              	.LLST32:
 9664 0509 00000000 		.4byte	.LVL62
 9665 050d 0A000000 		.4byte	.LVL63
 9666 0511 0100     		.2byte	0x1
 9667 0513 51       		.byte	0x51
 9668 0514 0A000000 		.4byte	.LVL63
 9669 0518 12000000 		.4byte	.LVL64
 9670 051c 0400     		.2byte	0x4
 9671 051e F3       		.byte	0xf3
 9672 051f 01       		.uleb128 0x1
 9673 0520 51       		.byte	0x51
 9674 0521 9F       		.byte	0x9f
 9675 0522 12000000 		.4byte	.LVL64
 9676 0526 19000000 		.4byte	.LVL65-1
 9677 052a 0100     		.2byte	0x1
 9678 052c 51       		.byte	0x51
 9679 052d 19000000 		.4byte	.LVL65-1
 9680 0531 20000000 		.4byte	.LFE34
 9681 0535 0400     		.2byte	0x4
 9682 0537 F3       		.byte	0xf3
 9683 0538 01       		.uleb128 0x1
 9684 0539 51       		.byte	0x51
ARM GAS  C:\Users\jenny\AppData\Local\Temp\ccAyMdWJ.s 			page 172


 9685 053a 9F       		.byte	0x9f
 9686 053b 00000000 		.4byte	0
 9687 053f 00000000 		.4byte	0
 9688              	.LLST33:
 9689 0543 00000000 		.4byte	.LFB35
 9690 0547 02000000 		.4byte	.LCFI10
 9691 054b 0200     		.2byte	0x2
 9692 054d 7D       		.byte	0x7d
 9693 054e 00       		.sleb128 0
 9694 054f 02000000 		.4byte	.LCFI10
 9695 0553 08000000 		.4byte	.LCFI11
 9696 0557 0200     		.2byte	0x2
 9697 0559 7D       		.byte	0x7d
 9698 055a 04       		.sleb128 4
 9699 055b 08000000 		.4byte	.LCFI11
 9700 055f 1E000000 		.4byte	.LFE35
 9701 0563 0200     		.2byte	0x2
 9702 0565 7D       		.byte	0x7d
 9703 0566 10       		.sleb128 16
 9704 0567 00000000 		.4byte	0
 9705 056b 00000000 		.4byte	0
 9706              	.LLST34:
 9707 056f 00000000 		.4byte	.LVL66
 9708 0573 0A000000 		.4byte	.LVL67
 9709 0577 0100     		.2byte	0x1
 9710 0579 50       		.byte	0x50
 9711 057a 0A000000 		.4byte	.LVL67
 9712 057e 10000000 		.4byte	.LVL68
 9713 0582 0400     		.2byte	0x4
 9714 0584 F3       		.byte	0xf3
 9715 0585 01       		.uleb128 0x1
 9716 0586 50       		.byte	0x50
 9717 0587 9F       		.byte	0x9f
 9718 0588 10000000 		.4byte	.LVL68
 9719 058c 17000000 		.4byte	.LVL69-1
 9720 0590 0100     		.2byte	0x1
 9721 0592 50       		.byte	0x50
 9722 0593 17000000 		.4byte	.LVL69-1
 9723 0597 1E000000 		.4byte	.LFE35
 9724 059b 0400     		.2byte	0x4
 9725 059d F3       		.byte	0xf3
 9726 059e 01       		.uleb128 0x1
 9727 059f 50       		.byte	0x50
 9728 05a0 9F       		.byte	0x9f
 9729 05a1 00000000 		.4byte	0
 9730 05a5 00000000 		.4byte	0
 9731              	.LLST35:
 9732 05a9 00000000 		.4byte	.LVL66
 9733 05ad 0A000000 		.4byte	.LVL67
 9734 05b1 0100     		.2byte	0x1
 9735 05b3 51       		.byte	0x51
 9736 05b4 0A000000 		.4byte	.LVL67
 9737 05b8 10000000 		.4byte	.LVL68
 9738 05bc 0400     		.2byte	0x4
 9739 05be F3       		.byte	0xf3
 9740 05bf 01       		.uleb128 0x1
 9741 05c0 51       		.byte	0x51
ARM GAS  C:\Users\jenny\AppData\Local\Temp\ccAyMdWJ.s 			page 173


 9742 05c1 9F       		.byte	0x9f
 9743 05c2 10000000 		.4byte	.LVL68
 9744 05c6 17000000 		.4byte	.LVL69-1
 9745 05ca 0100     		.2byte	0x1
 9746 05cc 51       		.byte	0x51
 9747 05cd 17000000 		.4byte	.LVL69-1
 9748 05d1 1E000000 		.4byte	.LFE35
 9749 05d5 0400     		.2byte	0x4
 9750 05d7 F3       		.byte	0xf3
 9751 05d8 01       		.uleb128 0x1
 9752 05d9 51       		.byte	0x51
 9753 05da 9F       		.byte	0x9f
 9754 05db 00000000 		.4byte	0
 9755 05df 00000000 		.4byte	0
 9756              	.LLST36:
 9757 05e3 00000000 		.4byte	.LFB36
 9758 05e7 02000000 		.4byte	.LCFI12
 9759 05eb 0200     		.2byte	0x2
 9760 05ed 7D       		.byte	0x7d
 9761 05ee 00       		.sleb128 0
 9762 05ef 02000000 		.4byte	.LCFI12
 9763 05f3 08000000 		.4byte	.LCFI13
 9764 05f7 0200     		.2byte	0x2
 9765 05f9 7D       		.byte	0x7d
 9766 05fa 04       		.sleb128 4
 9767 05fb 08000000 		.4byte	.LCFI13
 9768 05ff 20000000 		.4byte	.LFE36
 9769 0603 0200     		.2byte	0x2
 9770 0605 7D       		.byte	0x7d
 9771 0606 10       		.sleb128 16
 9772 0607 00000000 		.4byte	0
 9773 060b 00000000 		.4byte	0
 9774              	.LLST37:
 9775 060f 00000000 		.4byte	.LVL70
 9776 0613 0A000000 		.4byte	.LVL71
 9777 0617 0100     		.2byte	0x1
 9778 0619 50       		.byte	0x50
 9779 061a 0A000000 		.4byte	.LVL71
 9780 061e 12000000 		.4byte	.LVL72
 9781 0622 0400     		.2byte	0x4
 9782 0624 F3       		.byte	0xf3
 9783 0625 01       		.uleb128 0x1
 9784 0626 50       		.byte	0x50
 9785 0627 9F       		.byte	0x9f
 9786 0628 12000000 		.4byte	.LVL72
 9787 062c 19000000 		.4byte	.LVL73-1
 9788 0630 0100     		.2byte	0x1
 9789 0632 50       		.byte	0x50
 9790 0633 19000000 		.4byte	.LVL73-1
 9791 0637 20000000 		.4byte	.LFE36
 9792 063b 0400     		.2byte	0x4
 9793 063d F3       		.byte	0xf3
 9794 063e 01       		.uleb128 0x1
 9795 063f 50       		.byte	0x50
 9796 0640 9F       		.byte	0x9f
 9797 0641 00000000 		.4byte	0
 9798 0645 00000000 		.4byte	0
ARM GAS  C:\Users\jenny\AppData\Local\Temp\ccAyMdWJ.s 			page 174


 9799              	.LLST38:
 9800 0649 00000000 		.4byte	.LVL70
 9801 064d 0A000000 		.4byte	.LVL71
 9802 0651 0100     		.2byte	0x1
 9803 0653 51       		.byte	0x51
 9804 0654 0A000000 		.4byte	.LVL71
 9805 0658 12000000 		.4byte	.LVL72
 9806 065c 0400     		.2byte	0x4
 9807 065e F3       		.byte	0xf3
 9808 065f 01       		.uleb128 0x1
 9809 0660 51       		.byte	0x51
 9810 0661 9F       		.byte	0x9f
 9811 0662 12000000 		.4byte	.LVL72
 9812 0666 19000000 		.4byte	.LVL73-1
 9813 066a 0100     		.2byte	0x1
 9814 066c 51       		.byte	0x51
 9815 066d 19000000 		.4byte	.LVL73-1
 9816 0671 20000000 		.4byte	.LFE36
 9817 0675 0400     		.2byte	0x4
 9818 0677 F3       		.byte	0xf3
 9819 0678 01       		.uleb128 0x1
 9820 0679 51       		.byte	0x51
 9821 067a 9F       		.byte	0x9f
 9822 067b 00000000 		.4byte	0
 9823 067f 00000000 		.4byte	0
 9824              	.LLST39:
 9825 0683 00000000 		.4byte	.LFB38
 9826 0687 02000000 		.4byte	.LCFI14
 9827 068b 0200     		.2byte	0x2
 9828 068d 7D       		.byte	0x7d
 9829 068e 00       		.sleb128 0
 9830 068f 02000000 		.4byte	.LCFI14
 9831 0693 08000000 		.4byte	.LCFI15
 9832 0697 0200     		.2byte	0x2
 9833 0699 7D       		.byte	0x7d
 9834 069a 04       		.sleb128 4
 9835 069b 08000000 		.4byte	.LCFI15
 9836 069f 28000000 		.4byte	.LFE38
 9837 06a3 0200     		.2byte	0x2
 9838 06a5 7D       		.byte	0x7d
 9839 06a6 18       		.sleb128 24
 9840 06a7 00000000 		.4byte	0
 9841 06ab 00000000 		.4byte	0
 9842              	.LLST40:
 9843 06af 00000000 		.4byte	.LVL75
 9844 06b3 0A000000 		.4byte	.LVL76
 9845 06b7 0100     		.2byte	0x1
 9846 06b9 50       		.byte	0x50
 9847 06ba 0A000000 		.4byte	.LVL76
 9848 06be 16000000 		.4byte	.LVL77
 9849 06c2 0400     		.2byte	0x4
 9850 06c4 F3       		.byte	0xf3
 9851 06c5 01       		.uleb128 0x1
 9852 06c6 50       		.byte	0x50
 9853 06c7 9F       		.byte	0x9f
 9854 06c8 16000000 		.4byte	.LVL77
 9855 06cc 1F000000 		.4byte	.LVL78-1
ARM GAS  C:\Users\jenny\AppData\Local\Temp\ccAyMdWJ.s 			page 175


 9856 06d0 0100     		.2byte	0x1
 9857 06d2 50       		.byte	0x50
 9858 06d3 1F000000 		.4byte	.LVL78-1
 9859 06d7 28000000 		.4byte	.LFE38
 9860 06db 0400     		.2byte	0x4
 9861 06dd F3       		.byte	0xf3
 9862 06de 01       		.uleb128 0x1
 9863 06df 50       		.byte	0x50
 9864 06e0 9F       		.byte	0x9f
 9865 06e1 00000000 		.4byte	0
 9866 06e5 00000000 		.4byte	0
 9867              	.LLST41:
 9868 06e9 00000000 		.4byte	.LVL75
 9869 06ed 0A000000 		.4byte	.LVL76
 9870 06f1 0100     		.2byte	0x1
 9871 06f3 51       		.byte	0x51
 9872 06f4 0A000000 		.4byte	.LVL76
 9873 06f8 16000000 		.4byte	.LVL77
 9874 06fc 0400     		.2byte	0x4
 9875 06fe F3       		.byte	0xf3
 9876 06ff 01       		.uleb128 0x1
 9877 0700 51       		.byte	0x51
 9878 0701 9F       		.byte	0x9f
 9879 0702 16000000 		.4byte	.LVL77
 9880 0706 1F000000 		.4byte	.LVL78-1
 9881 070a 0100     		.2byte	0x1
 9882 070c 51       		.byte	0x51
 9883 070d 1F000000 		.4byte	.LVL78-1
 9884 0711 28000000 		.4byte	.LFE38
 9885 0715 0400     		.2byte	0x4
 9886 0717 F3       		.byte	0xf3
 9887 0718 01       		.uleb128 0x1
 9888 0719 51       		.byte	0x51
 9889 071a 9F       		.byte	0x9f
 9890 071b 00000000 		.4byte	0
 9891 071f 00000000 		.4byte	0
 9892              	.LLST42:
 9893 0723 00000000 		.4byte	.LVL75
 9894 0727 0A000000 		.4byte	.LVL76
 9895 072b 0100     		.2byte	0x1
 9896 072d 52       		.byte	0x52
 9897 072e 0A000000 		.4byte	.LVL76
 9898 0732 16000000 		.4byte	.LVL77
 9899 0736 0400     		.2byte	0x4
 9900 0738 F3       		.byte	0xf3
 9901 0739 01       		.uleb128 0x1
 9902 073a 52       		.byte	0x52
 9903 073b 9F       		.byte	0x9f
 9904 073c 16000000 		.4byte	.LVL77
 9905 0740 1F000000 		.4byte	.LVL78-1
 9906 0744 0100     		.2byte	0x1
 9907 0746 52       		.byte	0x52
 9908 0747 1F000000 		.4byte	.LVL78-1
 9909 074b 28000000 		.4byte	.LFE38
 9910 074f 0400     		.2byte	0x4
 9911 0751 F3       		.byte	0xf3
 9912 0752 01       		.uleb128 0x1
ARM GAS  C:\Users\jenny\AppData\Local\Temp\ccAyMdWJ.s 			page 176


 9913 0753 52       		.byte	0x52
 9914 0754 9F       		.byte	0x9f
 9915 0755 00000000 		.4byte	0
 9916 0759 00000000 		.4byte	0
 9917              	.LLST43:
 9918 075d 00000000 		.4byte	.LFB39
 9919 0761 02000000 		.4byte	.LCFI16
 9920 0765 0200     		.2byte	0x2
 9921 0767 7D       		.byte	0x7d
 9922 0768 00       		.sleb128 0
 9923 0769 02000000 		.4byte	.LCFI16
 9924 076d 42000000 		.4byte	.LFE39
 9925 0771 0200     		.2byte	0x2
 9926 0773 7D       		.byte	0x7d
 9927 0774 10       		.sleb128 16
 9928 0775 00000000 		.4byte	0
 9929 0779 00000000 		.4byte	0
 9930              	.LLST44:
 9931 077d 00000000 		.4byte	.LVL79
 9932 0781 12000000 		.4byte	.LVL81
 9933 0785 0100     		.2byte	0x1
 9934 0787 50       		.byte	0x50
 9935 0788 12000000 		.4byte	.LVL81
 9936 078c 42000000 		.4byte	.LFE39
 9937 0790 0100     		.2byte	0x1
 9938 0792 54       		.byte	0x54
 9939 0793 00000000 		.4byte	0
 9940 0797 00000000 		.4byte	0
 9941              	.LLST45:
 9942 079b 10000000 		.4byte	.LVL80
 9943 079f 12000000 		.4byte	.LVL81
 9944 07a3 0100     		.2byte	0x1
 9945 07a5 50       		.byte	0x50
 9946 07a6 12000000 		.4byte	.LVL81
 9947 07aa 40000000 		.4byte	.LVL86
 9948 07ae 0100     		.2byte	0x1
 9949 07b0 54       		.byte	0x54
 9950 07b1 00000000 		.4byte	0
 9951 07b5 00000000 		.4byte	0
 9952              	.LLST46:
 9953 07b9 00000000 		.4byte	.LFB21
 9954 07bd 04000000 		.4byte	.LCFI17
 9955 07c1 0200     		.2byte	0x2
 9956 07c3 7D       		.byte	0x7d
 9957 07c4 00       		.sleb128 0
 9958 07c5 04000000 		.4byte	.LCFI17
 9959 07c9 10000000 		.4byte	.LCFI18
 9960 07cd 0200     		.2byte	0x2
 9961 07cf 7D       		.byte	0x7d
 9962 07d0 24       		.sleb128 36
 9963 07d1 10000000 		.4byte	.LCFI18
 9964 07d5 40040000 		.4byte	.LFE21
 9965 07d9 0300     		.2byte	0x3
 9966 07db 7D       		.byte	0x7d
 9967 07dc C000     		.sleb128 64
 9968 07de 00000000 		.4byte	0
 9969 07e2 00000000 		.4byte	0
ARM GAS  C:\Users\jenny\AppData\Local\Temp\ccAyMdWJ.s 			page 177


 9970              	.LLST47:
 9971 07e6 40000000 		.4byte	.LVL89
 9972 07ea 2C010000 		.4byte	.LVL99
 9973 07ee 0100     		.2byte	0x1
 9974 07f0 5B       		.byte	0x5b
 9975 07f1 2C010000 		.4byte	.LVL99
 9976 07f5 64010000 		.4byte	.LVL103
 9977 07f9 0100     		.2byte	0x1
 9978 07fb 5A       		.byte	0x5a
 9979 07fc 64010000 		.4byte	.LVL103
 9980 0800 70010000 		.4byte	.LVL105
 9981 0804 0100     		.2byte	0x1
 9982 0806 5B       		.byte	0x5b
 9983 0807 70010000 		.4byte	.LVL105
 9984 080b A6010000 		.4byte	.LVL110
 9985 080f 0100     		.2byte	0x1
 9986 0811 55       		.byte	0x55
 9987 0812 A6010000 		.4byte	.LVL110
 9988 0816 B4010000 		.4byte	.LVL113
 9989 081a 0100     		.2byte	0x1
 9990 081c 58       		.byte	0x58
 9991 081d B4010000 		.4byte	.LVL113
 9992 0821 BA010000 		.4byte	.LVL114
 9993 0825 0100     		.2byte	0x1
 9994 0827 55       		.byte	0x55
 9995 0828 BA010000 		.4byte	.LVL114
 9996 082c 02020000 		.4byte	.LVL120
 9997 0830 0100     		.2byte	0x1
 9998 0832 5B       		.byte	0x5b
 9999 0833 02020000 		.4byte	.LVL120
 10000 0837 22020000 		.4byte	.LVL123
 10001 083b 0100     		.2byte	0x1
 10002 083d 59       		.byte	0x59
 10003 083e 22020000 		.4byte	.LVL123
 10004 0842 2A020000 		.4byte	.LVL124
 10005 0846 0100     		.2byte	0x1
 10006 0848 5B       		.byte	0x5b
 10007 0849 2A020000 		.4byte	.LVL124
 10008 084d 2C020000 		.4byte	.LVL125
 10009 0851 0100     		.2byte	0x1
 10010 0853 59       		.byte	0x59
 10011 0854 2C020000 		.4byte	.LVL125
 10012 0858 90030000 		.4byte	.LVL146
 10013 085c 0100     		.2byte	0x1
 10014 085e 5B       		.byte	0x5b
 10015 085f 90030000 		.4byte	.LVL146
 10016 0863 94030000 		.4byte	.LVL147
 10017 0867 0200     		.2byte	0x2
 10018 0869 75       		.byte	0x75
 10019 086a 0C       		.sleb128 12
 10020 086b 94030000 		.4byte	.LVL147
 10021 086f 9C030000 		.4byte	.LVL148
 10022 0873 0100     		.2byte	0x1
 10023 0875 55       		.byte	0x55
 10024 0876 9C030000 		.4byte	.LVL148
 10025 087a A6030000 		.4byte	.LVL150
 10026 087e 0100     		.2byte	0x1
ARM GAS  C:\Users\jenny\AppData\Local\Temp\ccAyMdWJ.s 			page 178


 10027 0880 5A       		.byte	0x5a
 10028 0881 A6030000 		.4byte	.LVL150
 10029 0885 AE030000 		.4byte	.LVL151
 10030 0889 0100     		.2byte	0x1
 10031 088b 5B       		.byte	0x5b
 10032 088c AE030000 		.4byte	.LVL151
 10033 0890 B0030000 		.4byte	.LVL152
 10034 0894 0100     		.2byte	0x1
 10035 0896 5A       		.byte	0x5a
 10036 0897 B0030000 		.4byte	.LVL152
 10037 089b 20040000 		.4byte	.LVL157
 10038 089f 0100     		.2byte	0x1
 10039 08a1 5B       		.byte	0x5b
 10040 08a2 20040000 		.4byte	.LVL157
 10041 08a6 34040000 		.4byte	.LVL159
 10042 08aa 0100     		.2byte	0x1
 10043 08ac 55       		.byte	0x55
 10044 08ad 34040000 		.4byte	.LVL159
 10045 08b1 3A040000 		.4byte	.LVL161
 10046 08b5 0100     		.2byte	0x1
 10047 08b7 5B       		.byte	0x5b
 10048 08b8 3A040000 		.4byte	.LVL161
 10049 08bc 40040000 		.4byte	.LFE21
 10050 08c0 0100     		.2byte	0x1
 10051 08c2 55       		.byte	0x55
 10052 08c3 00000000 		.4byte	0
 10053 08c7 00000000 		.4byte	0
 10054              	.LLST48:
 10055 08cb 34000000 		.4byte	.LVL88
 10056 08cf 4A000000 		.4byte	.LVL90
 10057 08d3 0200     		.2byte	0x2
 10058 08d5 30       		.byte	0x30
 10059 08d6 9F       		.byte	0x9f
 10060 08d7 20010000 		.4byte	.LVL98
 10061 08db 62010000 		.4byte	.LVL102
 10062 08df 0100     		.2byte	0x1
 10063 08e1 5B       		.byte	0x5b
 10064 08e2 62010000 		.4byte	.LVL102
 10065 08e6 6C010000 		.4byte	.LVL104
 10066 08ea 0100     		.2byte	0x1
 10067 08ec 56       		.byte	0x56
 10068 08ed 6C010000 		.4byte	.LVL104
 10069 08f1 74010000 		.4byte	.LVL106
 10070 08f5 0200     		.2byte	0x2
 10071 08f7 30       		.byte	0x30
 10072 08f8 9F       		.byte	0x9f
 10073 08f9 B0010000 		.4byte	.LVL112
 10074 08fd B4010000 		.4byte	.LVL113
 10075 0901 0100     		.2byte	0x1
 10076 0903 56       		.byte	0x56
 10077 0904 22020000 		.4byte	.LVL123
 10078 0908 2C020000 		.4byte	.LVL125
 10079 090c 0100     		.2byte	0x1
 10080 090e 56       		.byte	0x56
 10081 090f 5C020000 		.4byte	.LVL129
 10082 0913 66020000 		.4byte	.LVL130
 10083 0917 0100     		.2byte	0x1
ARM GAS  C:\Users\jenny\AppData\Local\Temp\ccAyMdWJ.s 			page 179


 10084 0919 56       		.byte	0x56
 10085 091a 90030000 		.4byte	.LVL146
 10086 091e 94030000 		.4byte	.LVL147
 10087 0922 0100     		.2byte	0x1
 10088 0924 55       		.byte	0x55
 10089 0925 94030000 		.4byte	.LVL147
 10090 0929 9C030000 		.4byte	.LVL148
 10091 092d 0100     		.2byte	0x1
 10092 092f 56       		.byte	0x56
 10093 0930 9C030000 		.4byte	.LVL148
 10094 0934 A2030000 		.4byte	.LVL149
 10095 0938 0100     		.2byte	0x1
 10096 093a 5B       		.byte	0x5b
 10097 093b A2030000 		.4byte	.LVL149
 10098 093f A5030000 		.4byte	.LVL150-1
 10099 0943 0100     		.2byte	0x1
 10100 0945 50       		.byte	0x50
 10101 0946 A5030000 		.4byte	.LVL150-1
 10102 094a B0030000 		.4byte	.LVL152
 10103 094e 0100     		.2byte	0x1
 10104 0950 56       		.byte	0x56
 10105 0951 00000000 		.4byte	0
 10106 0955 00000000 		.4byte	0
 10107              	.LLST49:
 10108 0959 EC020000 		.4byte	.LVL135
 10109 095d 0B030000 		.4byte	.LVL136-1
 10110 0961 1C00     		.2byte	0x1c
 10111 0963 7B       		.byte	0x7b
 10112 0964 CC00     		.sleb128 76
 10113 0966 94       		.byte	0x94
 10114 0967 02       		.byte	0x2
 10115 0968 12       		.byte	0x12
 10116 0969 0A       		.byte	0xa
 10117 096a FFFF     		.2byte	0xffff
 10118 096c 1A       		.byte	0x1a
 10119 096d 7B       		.byte	0x7b
 10120 096e E000     		.sleb128 96
 10121 0970 94       		.byte	0x94
 10122 0971 02       		.byte	0x2
 10123 0972 16       		.byte	0x16
 10124 0973 14       		.byte	0x14
 10125 0974 0A       		.byte	0xa
 10126 0975 FFFF     		.2byte	0xffff
 10127 0977 1A       		.byte	0x1a
 10128 0978 2D       		.byte	0x2d
 10129 0979 28       		.byte	0x28
 10130 097a 0100     		.2byte	0x1
 10131 097c 16       		.byte	0x16
 10132 097d 13       		.byte	0x13
 10133 097e 9F       		.byte	0x9f
 10134 097f 00000000 		.4byte	0
 10135 0983 00000000 		.4byte	0
 10136              	.LLST50:
 10137 0987 74000000 		.4byte	.LVL91
 10138 098b CC000000 		.4byte	.LVL93
 10139 098f 0200     		.2byte	0x2
 10140 0991 30       		.byte	0x30
ARM GAS  C:\Users\jenny\AppData\Local\Temp\ccAyMdWJ.s 			page 180


 10141 0992 9F       		.byte	0x9f
 10142 0993 CC000000 		.4byte	.LVL93
 10143 0997 EA000000 		.4byte	.LVL95
 10144 099b 0100     		.2byte	0x1
 10145 099d 59       		.byte	0x59
 10146 099e EE000000 		.4byte	.LVL96
 10147 09a2 6C010000 		.4byte	.LVL104
 10148 09a6 0100     		.2byte	0x1
 10149 09a8 59       		.byte	0x59
 10150 09a9 7E010000 		.4byte	.LVL107
 10151 09ad 8A010000 		.4byte	.LVL108
 10152 09b1 0200     		.2byte	0x2
 10153 09b3 30       		.byte	0x30
 10154 09b4 9F       		.byte	0x9f
 10155 09b5 8A010000 		.4byte	.LVL108
 10156 09b9 B4010000 		.4byte	.LVL113
 10157 09bd 0200     		.2byte	0x2
 10158 09bf 31       		.byte	0x31
 10159 09c0 9F       		.byte	0x9f
 10160 09c1 BA010000 		.4byte	.LVL114
 10161 09c5 C6010000 		.4byte	.LVL115
 10162 09c9 0100     		.2byte	0x1
 10163 09cb 59       		.byte	0x59
 10164 09cc 66020000 		.4byte	.LVL130
 10165 09d0 6C020000 		.4byte	.LVL131
 10166 09d4 0200     		.2byte	0x2
 10167 09d6 30       		.byte	0x30
 10168 09d7 9F       		.byte	0x9f
 10169 09d8 6C020000 		.4byte	.LVL131
 10170 09dc 70020000 		.4byte	.LVL132
 10171 09e0 0100     		.2byte	0x1
 10172 09e2 58       		.byte	0x58
 10173 09e3 96020000 		.4byte	.LVL133
 10174 09e7 98020000 		.4byte	.LVL134
 10175 09eb 0100     		.2byte	0x1
 10176 09ed 5C       		.byte	0x5c
 10177 09ee 98020000 		.4byte	.LVL134
 10178 09f2 28030000 		.4byte	.LVL137
 10179 09f6 0200     		.2byte	0x2
 10180 09f8 30       		.byte	0x30
 10181 09f9 9F       		.byte	0x9f
 10182 09fa 28030000 		.4byte	.LVL137
 10183 09fe 3A030000 		.4byte	.LVL138
 10184 0a02 0100     		.2byte	0x1
 10185 0a04 59       		.byte	0x59
 10186 0a05 3A030000 		.4byte	.LVL138
 10187 0a09 3E030000 		.4byte	.LVL139
 10188 0a0d 0300     		.2byte	0x3
 10189 0a0f 79       		.byte	0x79
 10190 0a10 7F       		.sleb128 -1
 10191 0a11 9F       		.byte	0x9f
 10192 0a12 3E030000 		.4byte	.LVL139
 10193 0a16 40030000 		.4byte	.LVL140
 10194 0a1a 0100     		.2byte	0x1
 10195 0a1c 59       		.byte	0x59
 10196 0a1d 40030000 		.4byte	.LVL140
 10197 0a21 56030000 		.4byte	.LVL141
ARM GAS  C:\Users\jenny\AppData\Local\Temp\ccAyMdWJ.s 			page 181


 10198 0a25 0200     		.2byte	0x2
 10199 0a27 30       		.byte	0x30
 10200 0a28 9F       		.byte	0x9f
 10201 0a29 56030000 		.4byte	.LVL141
 10202 0a2d 86030000 		.4byte	.LVL144
 10203 0a31 0100     		.2byte	0x1
 10204 0a33 59       		.byte	0x59
 10205 0a34 86030000 		.4byte	.LVL144
 10206 0a38 8A030000 		.4byte	.LVL145
 10207 0a3c 0300     		.2byte	0x3
 10208 0a3e 79       		.byte	0x79
 10209 0a3f 7F       		.sleb128 -1
 10210 0a40 9F       		.byte	0x9f
 10211 0a41 8A030000 		.4byte	.LVL145
 10212 0a45 90030000 		.4byte	.LVL146
 10213 0a49 0100     		.2byte	0x1
 10214 0a4b 59       		.byte	0x59
 10215 0a4c 90030000 		.4byte	.LVL146
 10216 0a50 9C030000 		.4byte	.LVL148
 10217 0a54 0200     		.2byte	0x2
 10218 0a56 30       		.byte	0x30
 10219 0a57 9F       		.byte	0x9f
 10220 0a58 9C030000 		.4byte	.LVL148
 10221 0a5c DE030000 		.4byte	.LVL154
 10222 0a60 0100     		.2byte	0x1
 10223 0a62 59       		.byte	0x59
 10224 0a63 20040000 		.4byte	.LVL157
 10225 0a67 34040000 		.4byte	.LVL159
 10226 0a6b 0200     		.2byte	0x2
 10227 0a6d 31       		.byte	0x31
 10228 0a6e 9F       		.byte	0x9f
 10229 0a6f 3A040000 		.4byte	.LVL161
 10230 0a73 40040000 		.4byte	.LFE21
 10231 0a77 0200     		.2byte	0x2
 10232 0a79 31       		.byte	0x31
 10233 0a7a 9F       		.byte	0x9f
 10234 0a7b 00000000 		.4byte	0
 10235 0a7f 00000000 		.4byte	0
 10236              	.LLST51:
 10237 0a83 74000000 		.4byte	.LVL91
 10238 0a87 EE000000 		.4byte	.LVL96
 10239 0a8b 0200     		.2byte	0x2
 10240 0a8d 30       		.byte	0x30
 10241 0a8e 9F       		.byte	0x9f
 10242 0a8f EE000000 		.4byte	.LVL96
 10243 0a93 2C010000 		.4byte	.LVL99
 10244 0a97 0100     		.2byte	0x1
 10245 0a99 5A       		.byte	0x5a
 10246 0a9a BA010000 		.4byte	.LVL114
 10247 0a9e F8010000 		.4byte	.LVL117
 10248 0aa2 0100     		.2byte	0x1
 10249 0aa4 5A       		.byte	0x5a
 10250 0aa5 66020000 		.4byte	.LVL130
 10251 0aa9 28030000 		.4byte	.LVL137
 10252 0aad 0200     		.2byte	0x2
 10253 0aaf 30       		.byte	0x30
 10254 0ab0 9F       		.byte	0x9f
ARM GAS  C:\Users\jenny\AppData\Local\Temp\ccAyMdWJ.s 			page 182


 10255 0ab1 28030000 		.4byte	.LVL137
 10256 0ab5 40030000 		.4byte	.LVL140
 10257 0ab9 0100     		.2byte	0x1
 10258 0abb 5A       		.byte	0x5a
 10259 0abc 40030000 		.4byte	.LVL140
 10260 0ac0 56030000 		.4byte	.LVL141
 10261 0ac4 0200     		.2byte	0x2
 10262 0ac6 30       		.byte	0x30
 10263 0ac7 9F       		.byte	0x9f
 10264 0ac8 56030000 		.4byte	.LVL141
 10265 0acc 60030000 		.4byte	.LVL143
 10266 0ad0 0100     		.2byte	0x1
 10267 0ad2 5A       		.byte	0x5a
 10268 0ad3 60030000 		.4byte	.LVL143
 10269 0ad7 8A030000 		.4byte	.LVL145
 10270 0adb 0200     		.2byte	0x2
 10271 0add 30       		.byte	0x30
 10272 0ade 9F       		.byte	0x9f
 10273 0adf 8A030000 		.4byte	.LVL145
 10274 0ae3 90030000 		.4byte	.LVL146
 10275 0ae7 0200     		.2byte	0x2
 10276 0ae9 31       		.byte	0x31
 10277 0aea 9F       		.byte	0x9f
 10278 0aeb B0030000 		.4byte	.LVL152
 10279 0aef DE030000 		.4byte	.LVL154
 10280 0af3 0200     		.2byte	0x2
 10281 0af5 30       		.byte	0x30
 10282 0af6 9F       		.byte	0x9f
 10283 0af7 DE030000 		.4byte	.LVL154
 10284 0afb 20040000 		.4byte	.LVL157
 10285 0aff 0100     		.2byte	0x1
 10286 0b01 5A       		.byte	0x5a
 10287 0b02 34040000 		.4byte	.LVL159
 10288 0b06 3A040000 		.4byte	.LVL161
 10289 0b0a 0100     		.2byte	0x1
 10290 0b0c 5A       		.byte	0x5a
 10291 0b0d 00000000 		.4byte	0
 10292 0b11 00000000 		.4byte	0
 10293              	.LLST52:
 10294 0b15 00000000 		.4byte	.LVL87
 10295 0b19 34000000 		.4byte	.LVL88
 10296 0b1d 0200     		.2byte	0x2
 10297 0b1f 30       		.byte	0x30
 10298 0b20 9F       		.byte	0x9f
 10299 0b21 52010000 		.4byte	.LVL100
 10300 0b25 60010000 		.4byte	.LVL101
 10301 0b29 0100     		.2byte	0x1
 10302 0b2b 50       		.byte	0x50
 10303 0b2c 00000000 		.4byte	0
 10304 0b30 00000000 		.4byte	0
 10305              	.LLST53:
 10306 0b34 FA010000 		.4byte	.LVL118
 10307 0b38 22020000 		.4byte	.LVL123
 10308 0b3c 0100     		.2byte	0x1
 10309 0b3e 5B       		.byte	0x5b
 10310 0b3f 00000000 		.4byte	0
 10311 0b43 00000000 		.4byte	0
ARM GAS  C:\Users\jenny\AppData\Local\Temp\ccAyMdWJ.s 			page 183


 10312              	.LLST54:
 10313 0b47 F8010000 		.4byte	.LVL117
 10314 0b4b 2C020000 		.4byte	.LVL125
 10315 0b4f 0100     		.2byte	0x1
 10316 0b51 5A       		.byte	0x5a
 10317 0b52 00000000 		.4byte	0
 10318 0b56 00000000 		.4byte	0
 10319              	.LLST55:
 10320 0b5a FA010000 		.4byte	.LVL118
 10321 0b5e FE010000 		.4byte	.LVL119
 10322 0b62 0100     		.2byte	0x1
 10323 0b64 50       		.byte	0x50
 10324 0b65 FE010000 		.4byte	.LVL119
 10325 0b69 05020000 		.4byte	.LVL121-1
 10326 0b6d 0200     		.2byte	0x2
 10327 0b6f 7B       		.byte	0x7b
 10328 0b70 10       		.sleb128 16
 10329 0b71 05020000 		.4byte	.LVL121-1
 10330 0b75 2C020000 		.4byte	.LVL125
 10331 0b79 0200     		.2byte	0x2
 10332 0b7b 91       		.byte	0x91
 10333 0b7c 4C       		.sleb128 -52
 10334 0b7d 00000000 		.4byte	0
 10335 0b81 00000000 		.4byte	0
 10336              	.LLST56:
 10337 0b85 A6010000 		.4byte	.LVL110
 10338 0b89 AC010000 		.4byte	.LVL111
 10339 0b8d 0100     		.2byte	0x1
 10340 0b8f 55       		.byte	0x55
 10341 0b90 AC010000 		.4byte	.LVL111
 10342 0b94 AF010000 		.4byte	.LVL112-1
 10343 0b98 0100     		.2byte	0x1
 10344 0b9a 51       		.byte	0x51
 10345 0b9b 00000000 		.4byte	0
 10346 0b9f 00000000 		.4byte	0
 10347              	.LLST57:
 10348 0ba3 00000000 		.4byte	.LFB40
 10349 0ba7 06000000 		.4byte	.LCFI19
 10350 0bab 0200     		.2byte	0x2
 10351 0bad 7D       		.byte	0x7d
 10352 0bae 00       		.sleb128 0
 10353 0baf 06000000 		.4byte	.LCFI19
 10354 0bb3 88000000 		.4byte	.LFE40
 10355 0bb7 0200     		.2byte	0x2
 10356 0bb9 7D       		.byte	0x7d
 10357 0bba 08       		.sleb128 8
 10358 0bbb 00000000 		.4byte	0
 10359 0bbf 00000000 		.4byte	0
 10360              	.LLST58:
 10361 0bc3 00000000 		.4byte	.LVL163
 10362 0bc7 18000000 		.4byte	.LVL165
 10363 0bcb 0100     		.2byte	0x1
 10364 0bcd 50       		.byte	0x50
 10365 0bce 18000000 		.4byte	.LVL165
 10366 0bd2 7A000000 		.4byte	.LVL171
 10367 0bd6 0400     		.2byte	0x4
 10368 0bd8 F3       		.byte	0xf3
ARM GAS  C:\Users\jenny\AppData\Local\Temp\ccAyMdWJ.s 			page 184


 10369 0bd9 01       		.uleb128 0x1
 10370 0bda 50       		.byte	0x50
 10371 0bdb 9F       		.byte	0x9f
 10372 0bdc 7A000000 		.4byte	.LVL171
 10373 0be0 88000000 		.4byte	.LFE40
 10374 0be4 0100     		.2byte	0x1
 10375 0be6 50       		.byte	0x50
 10376 0be7 00000000 		.4byte	0
 10377 0beb 00000000 		.4byte	0
 10378              	.LLST59:
 10379 0bef 00000000 		.4byte	.LVL163
 10380 0bf3 0C000000 		.4byte	.LVL164
 10381 0bf7 0100     		.2byte	0x1
 10382 0bf9 51       		.byte	0x51
 10383 0bfa 0C000000 		.4byte	.LVL164
 10384 0bfe 7A000000 		.4byte	.LVL171
 10385 0c02 0100     		.2byte	0x1
 10386 0c04 54       		.byte	0x54
 10387 0c05 7A000000 		.4byte	.LVL171
 10388 0c09 7C000000 		.4byte	.LVL172
 10389 0c0d 0100     		.2byte	0x1
 10390 0c0f 51       		.byte	0x51
 10391 0c10 7C000000 		.4byte	.LVL172
 10392 0c14 88000000 		.4byte	.LFE40
 10393 0c18 0100     		.2byte	0x1
 10394 0c1a 54       		.byte	0x54
 10395 0c1b 00000000 		.4byte	0
 10396 0c1f 00000000 		.4byte	0
 10397              	.LLST60:
 10398 0c23 00000000 		.4byte	.LFB12
 10399 0c27 04000000 		.4byte	.LCFI20
 10400 0c2b 0200     		.2byte	0x2
 10401 0c2d 7D       		.byte	0x7d
 10402 0c2e 00       		.sleb128 0
 10403 0c2f 04000000 		.4byte	.LCFI20
 10404 0c33 0A000000 		.4byte	.LCFI21
 10405 0c37 0200     		.2byte	0x2
 10406 0c39 7D       		.byte	0x7d
 10407 0c3a 1C       		.sleb128 28
 10408 0c3b 0A000000 		.4byte	.LCFI21
 10409 0c3f A4000000 		.4byte	.LFE12
 10410 0c43 0200     		.2byte	0x2
 10411 0c45 7D       		.byte	0x7d
 10412 0c46 28       		.sleb128 40
 10413 0c47 00000000 		.4byte	0
 10414 0c4b 00000000 		.4byte	0
 10415              	.LLST61:
 10416 0c4f 00000000 		.4byte	.LVL173
 10417 0c53 10000000 		.4byte	.LVL174
 10418 0c57 0100     		.2byte	0x1
 10419 0c59 50       		.byte	0x50
 10420 0c5a 10000000 		.4byte	.LVL174
 10421 0c5e 8E000000 		.4byte	.LVL188
 10422 0c62 0100     		.2byte	0x1
 10423 0c64 54       		.byte	0x54
 10424 0c65 8E000000 		.4byte	.LVL188
 10425 0c69 91000000 		.4byte	.LVL189-1
ARM GAS  C:\Users\jenny\AppData\Local\Temp\ccAyMdWJ.s 			page 185


 10426 0c6d 0100     		.2byte	0x1
 10427 0c6f 50       		.byte	0x50
 10428 0c70 91000000 		.4byte	.LVL189-1
 10429 0c74 A4000000 		.4byte	.LFE12
 10430 0c78 0100     		.2byte	0x1
 10431 0c7a 54       		.byte	0x54
 10432 0c7b 00000000 		.4byte	0
 10433 0c7f 00000000 		.4byte	0
 10434              	.LLST62:
 10435 0c83 00000000 		.4byte	.LVL173
 10436 0c87 10000000 		.4byte	.LVL174
 10437 0c8b 0100     		.2byte	0x1
 10438 0c8d 51       		.byte	0x51
 10439 0c8e 10000000 		.4byte	.LVL174
 10440 0c92 8E000000 		.4byte	.LVL188
 10441 0c96 0100     		.2byte	0x1
 10442 0c98 56       		.byte	0x56
 10443 0c99 8E000000 		.4byte	.LVL188
 10444 0c9d 91000000 		.4byte	.LVL189-1
 10445 0ca1 0100     		.2byte	0x1
 10446 0ca3 51       		.byte	0x51
 10447 0ca4 91000000 		.4byte	.LVL189-1
 10448 0ca8 A4000000 		.4byte	.LFE12
 10449 0cac 0100     		.2byte	0x1
 10450 0cae 56       		.byte	0x56
 10451 0caf 00000000 		.4byte	0
 10452 0cb3 00000000 		.4byte	0
 10453              	.LLST63:
 10454 0cb7 1A000000 		.4byte	.LVL175
 10455 0cbb 78000000 		.4byte	.LVL186
 10456 0cbf 0100     		.2byte	0x1
 10457 0cc1 59       		.byte	0x59
 10458 0cc2 00000000 		.4byte	0
 10459 0cc6 00000000 		.4byte	0
 10460              	.LLST64:
 10461 0cca 1E000000 		.4byte	.LVL176
 10462 0cce 78000000 		.4byte	.LVL186
 10463 0cd2 0100     		.2byte	0x1
 10464 0cd4 58       		.byte	0x58
 10465 0cd5 00000000 		.4byte	0
 10466 0cd9 00000000 		.4byte	0
 10467              	.LLST65:
 10468 0cdd 22000000 		.4byte	.LVL177
 10469 0ce1 78000000 		.4byte	.LVL186
 10470 0ce5 0100     		.2byte	0x1
 10471 0ce7 55       		.byte	0x55
 10472 0ce8 00000000 		.4byte	0
 10473 0cec 00000000 		.4byte	0
 10474              	.LLST66:
 10475 0cf0 24000000 		.4byte	.LVL178
 10476 0cf4 78000000 		.4byte	.LVL186
 10477 0cf8 0100     		.2byte	0x1
 10478 0cfa 57       		.byte	0x57
 10479 0cfb 00000000 		.4byte	0
 10480 0cff 00000000 		.4byte	0
 10481              	.LLST67:
 10482 0d03 00000000 		.4byte	.LVL190
ARM GAS  C:\Users\jenny\AppData\Local\Temp\ccAyMdWJ.s 			page 186


 10483 0d07 05000000 		.4byte	.LVL191-1
 10484 0d0b 0100     		.2byte	0x1
 10485 0d0d 50       		.byte	0x50
 10486 0d0e 05000000 		.4byte	.LVL191-1
 10487 0d12 06000000 		.4byte	.LFE13
 10488 0d16 0400     		.2byte	0x4
 10489 0d18 F3       		.byte	0xf3
 10490 0d19 01       		.uleb128 0x1
 10491 0d1a 50       		.byte	0x50
 10492 0d1b 9F       		.byte	0x9f
 10493 0d1c 00000000 		.4byte	0
 10494 0d20 00000000 		.4byte	0
 10495              	.LLST68:
 10496 0d24 00000000 		.4byte	.LFB31
 10497 0d28 04000000 		.4byte	.LCFI22
 10498 0d2c 0200     		.2byte	0x2
 10499 0d2e 7D       		.byte	0x7d
 10500 0d2f 00       		.sleb128 0
 10501 0d30 04000000 		.4byte	.LCFI22
 10502 0d34 48010000 		.4byte	.LFE31
 10503 0d38 0200     		.2byte	0x2
 10504 0d3a 7D       		.byte	0x7d
 10505 0d3b 20       		.sleb128 32
 10506 0d3c 00000000 		.4byte	0
 10507 0d40 00000000 		.4byte	0
 10508              	.LLST69:
 10509 0d44 00000000 		.4byte	.LVL192
 10510 0d48 08000000 		.4byte	.LVL193
 10511 0d4c 0100     		.2byte	0x1
 10512 0d4e 50       		.byte	0x50
 10513 0d4f 08000000 		.4byte	.LVL193
 10514 0d53 48010000 		.4byte	.LFE31
 10515 0d57 0400     		.2byte	0x4
 10516 0d59 F3       		.byte	0xf3
 10517 0d5a 01       		.uleb128 0x1
 10518 0d5b 50       		.byte	0x50
 10519 0d5c 9F       		.byte	0x9f
 10520 0d5d 00000000 		.4byte	0
 10521 0d61 00000000 		.4byte	0
 10522              	.LLST70:
 10523 0d65 0C000000 		.4byte	.LVL194
 10524 0d69 12000000 		.4byte	.LVL195
 10525 0d6d 0100     		.2byte	0x1
 10526 0d6f 50       		.byte	0x50
 10527 0d70 12000000 		.4byte	.LVL195
 10528 0d74 A4000000 		.4byte	.LVL197
 10529 0d78 0100     		.2byte	0x1
 10530 0d7a 54       		.byte	0x54
 10531 0d7b A4000000 		.4byte	.LVL197
 10532 0d7f B2000000 		.4byte	.LVL199
 10533 0d83 0100     		.2byte	0x1
 10534 0d85 50       		.byte	0x50
 10535 0d86 D2000000 		.4byte	.LVL205
 10536 0d8a D8000000 		.4byte	.LVL206
 10537 0d8e 0100     		.2byte	0x1
 10538 0d90 50       		.byte	0x50
 10539 0d91 D8000000 		.4byte	.LVL206
ARM GAS  C:\Users\jenny\AppData\Local\Temp\ccAyMdWJ.s 			page 187


 10540 0d95 E4000000 		.4byte	.LVL207
 10541 0d99 0100     		.2byte	0x1
 10542 0d9b 54       		.byte	0x54
 10543 0d9c E4000000 		.4byte	.LVL207
 10544 0da0 F0000000 		.4byte	.LVL209
 10545 0da4 0100     		.2byte	0x1
 10546 0da6 50       		.byte	0x50
 10547 0da7 1A010000 		.4byte	.LVL213
 10548 0dab 22010000 		.4byte	.LVL214
 10549 0daf 0100     		.2byte	0x1
 10550 0db1 50       		.byte	0x50
 10551 0db2 22010000 		.4byte	.LVL214
 10552 0db6 48010000 		.4byte	.LFE31
 10553 0dba 0100     		.2byte	0x1
 10554 0dbc 54       		.byte	0x54
 10555 0dbd 00000000 		.4byte	0
 10556 0dc1 00000000 		.4byte	0
 10557              	.LLST71:
 10558 0dc5 A8000000 		.4byte	.LVL198
 10559 0dc9 CB000000 		.4byte	.LVL204-1
 10560 0dcd 0100     		.2byte	0x1
 10561 0dcf 53       		.byte	0x53
 10562 0dd0 00000000 		.4byte	0
 10563 0dd4 00000000 		.4byte	0
 10564              	.LLST72:
 10565 0dd8 A4000000 		.4byte	.LVL197
 10566 0ddc B6000000 		.4byte	.LVL200
 10567 0de0 0200     		.2byte	0x2
 10568 0de2 30       		.byte	0x30
 10569 0de3 9F       		.byte	0x9f
 10570 0de4 00000000 		.4byte	0
 10571 0de8 00000000 		.4byte	0
 10572              	.LLST73:
 10573 0dec A4000000 		.4byte	.LVL197
 10574 0df0 B6000000 		.4byte	.LVL200
 10575 0df4 0200     		.2byte	0x2
 10576 0df6 30       		.byte	0x30
 10577 0df7 9F       		.byte	0x9f
 10578 0df8 B6000000 		.4byte	.LVL200
 10579 0dfc C0000000 		.4byte	.LVL201
 10580 0e00 0100     		.2byte	0x1
 10581 0e02 51       		.byte	0x51
 10582 0e03 C2000000 		.4byte	.LVL202
 10583 0e07 CB000000 		.4byte	.LVL204-1
 10584 0e0b 0100     		.2byte	0x1
 10585 0e0d 51       		.byte	0x51
 10586 0e0e 00000000 		.4byte	0
 10587 0e12 00000000 		.4byte	0
 10588              	.LLST74:
 10589 0e16 E8000000 		.4byte	.LVL208
 10590 0e1a 13010000 		.4byte	.LVL212-1
 10591 0e1e 0100     		.2byte	0x1
 10592 0e20 53       		.byte	0x53
 10593 0e21 00000000 		.4byte	0
 10594 0e25 00000000 		.4byte	0
 10595              	.LLST75:
 10596 0e29 E4000000 		.4byte	.LVL207
ARM GAS  C:\Users\jenny\AppData\Local\Temp\ccAyMdWJ.s 			page 188


 10597 0e2d F0000000 		.4byte	.LVL209
 10598 0e31 0200     		.2byte	0x2
 10599 0e33 30       		.byte	0x30
 10600 0e34 9F       		.byte	0x9f
 10601 0e35 00000000 		.4byte	0
 10602 0e39 00000000 		.4byte	0
 10603              	.LLST76:
 10604 0e3d E4000000 		.4byte	.LVL207
 10605 0e41 F0000000 		.4byte	.LVL209
 10606 0e45 0200     		.2byte	0x2
 10607 0e47 30       		.byte	0x30
 10608 0e48 9F       		.byte	0x9f
 10609 0e49 08010000 		.4byte	.LVL210
 10610 0e4d 14010000 		.4byte	.LVL212
 10611 0e51 0100     		.2byte	0x1
 10612 0e53 54       		.byte	0x54
 10613 0e54 00000000 		.4byte	0
 10614 0e58 00000000 		.4byte	0
 10615              	.LLST77:
 10616 0e5c E4000000 		.4byte	.LVL207
 10617 0e60 F0000000 		.4byte	.LVL209
 10618 0e64 0300     		.2byte	0x3
 10619 0e66 08       		.byte	0x8
 10620 0e67 7F       		.byte	0x7f
 10621 0e68 9F       		.byte	0x9f
 10622 0e69 08010000 		.4byte	.LVL210
 10623 0e6d 13010000 		.4byte	.LVL212-1
 10624 0e71 0100     		.2byte	0x1
 10625 0e73 51       		.byte	0x51
 10626 0e74 00000000 		.4byte	0
 10627 0e78 00000000 		.4byte	0
 10628              	.LLST78:
 10629 0e7c 00000000 		.4byte	.LFB9
 10630 0e80 02000000 		.4byte	.LCFI23
 10631 0e84 0200     		.2byte	0x2
 10632 0e86 7D       		.byte	0x7d
 10633 0e87 00       		.sleb128 0
 10634 0e88 02000000 		.4byte	.LCFI23
 10635 0e8c 06000000 		.4byte	.LCFI24
 10636 0e90 0200     		.2byte	0x2
 10637 0e92 7D       		.byte	0x7d
 10638 0e93 0C       		.sleb128 12
 10639 0e94 06000000 		.4byte	.LCFI24
 10640 0e98 84010000 		.4byte	.LFE9
 10641 0e9c 0200     		.2byte	0x2
 10642 0e9e 7D       		.byte	0x7d
 10643 0e9f 18       		.sleb128 24
 10644 0ea0 00000000 		.4byte	0
 10645 0ea4 00000000 		.4byte	0
 10646              	.LLST79:
 10647 0ea8 00000000 		.4byte	.LVL216
 10648 0eac 12000000 		.4byte	.LVL217
 10649 0eb0 0100     		.2byte	0x1
 10650 0eb2 50       		.byte	0x50
 10651 0eb3 12000000 		.4byte	.LVL217
 10652 0eb7 34000000 		.4byte	.LVL220
 10653 0ebb 0100     		.2byte	0x1
ARM GAS  C:\Users\jenny\AppData\Local\Temp\ccAyMdWJ.s 			page 189


 10654 0ebd 54       		.byte	0x54
 10655 0ebe 3C000000 		.4byte	.LVL221
 10656 0ec2 44000000 		.4byte	.LVL222
 10657 0ec6 0100     		.2byte	0x1
 10658 0ec8 50       		.byte	0x50
 10659 0ec9 44000000 		.4byte	.LVL222
 10660 0ecd C8000000 		.4byte	.LVL231
 10661 0ed1 0100     		.2byte	0x1
 10662 0ed3 54       		.byte	0x54
 10663 0ed4 C8000000 		.4byte	.LVL231
 10664 0ed8 CA000000 		.4byte	.LVL232
 10665 0edc 0200     		.2byte	0x2
 10666 0ede 30       		.byte	0x30
 10667 0edf 9F       		.byte	0x9f
 10668 0ee0 CA000000 		.4byte	.LVL232
 10669 0ee4 E0000000 		.4byte	.LVL235
 10670 0ee8 0100     		.2byte	0x1
 10671 0eea 54       		.byte	0x54
 10672 0eeb E0000000 		.4byte	.LVL235
 10673 0eef E2000000 		.4byte	.LVL236
 10674 0ef3 0200     		.2byte	0x2
 10675 0ef5 30       		.byte	0x30
 10676 0ef6 9F       		.byte	0x9f
 10677 0ef7 E2000000 		.4byte	.LVL236
 10678 0efb 2A010000 		.4byte	.LVL242
 10679 0eff 0100     		.2byte	0x1
 10680 0f01 54       		.byte	0x54
 10681 0f02 2A010000 		.4byte	.LVL242
 10682 0f06 2C010000 		.4byte	.LVL243
 10683 0f0a 0200     		.2byte	0x2
 10684 0f0c 30       		.byte	0x30
 10685 0f0d 9F       		.byte	0x9f
 10686 0f0e 2C010000 		.4byte	.LVL243
 10687 0f12 56010000 		.4byte	.LVL246
 10688 0f16 0100     		.2byte	0x1
 10689 0f18 54       		.byte	0x54
 10690 0f19 56010000 		.4byte	.LVL246
 10691 0f1d 58010000 		.4byte	.LVL247
 10692 0f21 0100     		.2byte	0x1
 10693 0f23 50       		.byte	0x50
 10694 0f24 58010000 		.4byte	.LVL247
 10695 0f28 84010000 		.4byte	.LFE9
 10696 0f2c 0100     		.2byte	0x1
 10697 0f2e 54       		.byte	0x54
 10698 0f2f 00000000 		.4byte	0
 10699 0f33 00000000 		.4byte	0
 10700              	.LLST80:
 10701 0f37 00000000 		.4byte	.LVL216
 10702 0f3b 27000000 		.4byte	.LVL218-1
 10703 0f3f 0100     		.2byte	0x1
 10704 0f41 51       		.byte	0x51
 10705 0f42 27000000 		.4byte	.LVL218-1
 10706 0f46 3C000000 		.4byte	.LVL221
 10707 0f4a 0400     		.2byte	0x4
 10708 0f4c F3       		.byte	0xf3
 10709 0f4d 01       		.uleb128 0x1
 10710 0f4e 51       		.byte	0x51
ARM GAS  C:\Users\jenny\AppData\Local\Temp\ccAyMdWJ.s 			page 190


 10711 0f4f 9F       		.byte	0x9f
 10712 0f50 3C000000 		.4byte	.LVL221
 10713 0f54 50000000 		.4byte	.LVL223
 10714 0f58 0100     		.2byte	0x1
 10715 0f5a 51       		.byte	0x51
 10716 0f5b 50000000 		.4byte	.LVL223
 10717 0f5f 8E000000 		.4byte	.LVL226
 10718 0f63 0400     		.2byte	0x4
 10719 0f65 F3       		.byte	0xf3
 10720 0f66 01       		.uleb128 0x1
 10721 0f67 51       		.byte	0x51
 10722 0f68 9F       		.byte	0x9f
 10723 0f69 8E000000 		.4byte	.LVL226
 10724 0f6d 96000000 		.4byte	.LVL227
 10725 0f71 0100     		.2byte	0x1
 10726 0f73 51       		.byte	0x51
 10727 0f74 96000000 		.4byte	.LVL227
 10728 0f78 B8000000 		.4byte	.LVL228
 10729 0f7c 0400     		.2byte	0x4
 10730 0f7e F3       		.byte	0xf3
 10731 0f7f 01       		.uleb128 0x1
 10732 0f80 51       		.byte	0x51
 10733 0f81 9F       		.byte	0x9f
 10734 0f82 B8000000 		.4byte	.LVL228
 10735 0f86 BA000000 		.4byte	.LVL229
 10736 0f8a 0100     		.2byte	0x1
 10737 0f8c 51       		.byte	0x51
 10738 0f8d BA000000 		.4byte	.LVL229
 10739 0f91 CA000000 		.4byte	.LVL232
 10740 0f95 0400     		.2byte	0x4
 10741 0f97 F3       		.byte	0xf3
 10742 0f98 01       		.uleb128 0x1
 10743 0f99 51       		.byte	0x51
 10744 0f9a 9F       		.byte	0x9f
 10745 0f9b CA000000 		.4byte	.LVL232
 10746 0f9f CC000000 		.4byte	.LVL233
 10747 0fa3 0100     		.2byte	0x1
 10748 0fa5 51       		.byte	0x51
 10749 0fa6 CC000000 		.4byte	.LVL233
 10750 0faa E2000000 		.4byte	.LVL236
 10751 0fae 0400     		.2byte	0x4
 10752 0fb0 F3       		.byte	0xf3
 10753 0fb1 01       		.uleb128 0x1
 10754 0fb2 51       		.byte	0x51
 10755 0fb3 9F       		.byte	0x9f
 10756 0fb4 E2000000 		.4byte	.LVL236
 10757 0fb8 E7000000 		.4byte	.LVL237-1
 10758 0fbc 0100     		.2byte	0x1
 10759 0fbe 51       		.byte	0x51
 10760 0fbf E7000000 		.4byte	.LVL237-1
 10761 0fc3 F2000000 		.4byte	.LVL238
 10762 0fc7 0400     		.2byte	0x4
 10763 0fc9 F3       		.byte	0xf3
 10764 0fca 01       		.uleb128 0x1
 10765 0fcb 51       		.byte	0x51
 10766 0fcc 9F       		.byte	0x9f
 10767 0fcd F2000000 		.4byte	.LVL238
ARM GAS  C:\Users\jenny\AppData\Local\Temp\ccAyMdWJ.s 			page 191


 10768 0fd1 F5000000 		.4byte	.LVL239-1
 10769 0fd5 0100     		.2byte	0x1
 10770 0fd7 51       		.byte	0x51
 10771 0fd8 F5000000 		.4byte	.LVL239-1
 10772 0fdc 56010000 		.4byte	.LVL246
 10773 0fe0 0400     		.2byte	0x4
 10774 0fe2 F3       		.byte	0xf3
 10775 0fe3 01       		.uleb128 0x1
 10776 0fe4 51       		.byte	0x51
 10777 0fe5 9F       		.byte	0x9f
 10778 0fe6 56010000 		.4byte	.LVL246
 10779 0fea 62010000 		.4byte	.LVL248
 10780 0fee 0100     		.2byte	0x1
 10781 0ff0 51       		.byte	0x51
 10782 0ff1 62010000 		.4byte	.LVL248
 10783 0ff5 84010000 		.4byte	.LFE9
 10784 0ff9 0400     		.2byte	0x4
 10785 0ffb F3       		.byte	0xf3
 10786 0ffc 01       		.uleb128 0x1
 10787 0ffd 51       		.byte	0x51
 10788 0ffe 9F       		.byte	0x9f
 10789 0fff 00000000 		.4byte	0
 10790 1003 00000000 		.4byte	0
 10791              	.LLST81:
 10792 1007 28000000 		.4byte	.LVL218
 10793 100b 2E000000 		.4byte	.LVL219
 10794 100f 0100     		.2byte	0x1
 10795 1011 50       		.byte	0x50
 10796 1012 2E000000 		.4byte	.LVL219
 10797 1016 34000000 		.4byte	.LVL220
 10798 101a 0200     		.2byte	0x2
 10799 101c 30       		.byte	0x30
 10800 101d 9F       		.byte	0x9f
 10801 101e 8E000000 		.4byte	.LVL226
 10802 1022 E2000000 		.4byte	.LVL236
 10803 1026 0200     		.2byte	0x2
 10804 1028 30       		.byte	0x30
 10805 1029 9F       		.byte	0x9f
 10806 102a E8000000 		.4byte	.LVL237
 10807 102e F2000000 		.4byte	.LVL238
 10808 1032 0100     		.2byte	0x1
 10809 1034 50       		.byte	0x50
 10810 1035 1A010000 		.4byte	.LVL241
 10811 1039 2C010000 		.4byte	.LVL243
 10812 103d 0200     		.2byte	0x2
 10813 103f 30       		.byte	0x30
 10814 1040 9F       		.byte	0x9f
 10815 1041 4E010000 		.4byte	.LVL245
 10816 1045 56010000 		.4byte	.LVL246
 10817 1049 0200     		.2byte	0x2
 10818 104b 30       		.byte	0x30
 10819 104c 9F       		.byte	0x9f
 10820 104d 62010000 		.4byte	.LVL248
 10821 1051 84010000 		.4byte	.LFE9
 10822 1055 0200     		.2byte	0x2
 10823 1057 30       		.byte	0x30
 10824 1058 9F       		.byte	0x9f
ARM GAS  C:\Users\jenny\AppData\Local\Temp\ccAyMdWJ.s 			page 192


 10825 1059 00000000 		.4byte	0
 10826 105d 00000000 		.4byte	0
 10827              	.LLST82:
 10828 1061 00000000 		.4byte	.LFB11
 10829 1065 06000000 		.4byte	.LCFI25
 10830 1069 0200     		.2byte	0x2
 10831 106b 7D       		.byte	0x7d
 10832 106c 00       		.sleb128 0
 10833 106d 06000000 		.4byte	.LCFI25
 10834 1071 56000000 		.4byte	.LFE11
 10835 1075 0200     		.2byte	0x2
 10836 1077 7D       		.byte	0x7d
 10837 1078 10       		.sleb128 16
 10838 1079 00000000 		.4byte	0
 10839 107d 00000000 		.4byte	0
 10840              	.LLST83:
 10841 1081 00000000 		.4byte	.LVL249
 10842 1085 1C000000 		.4byte	.LVL252
 10843 1089 0100     		.2byte	0x1
 10844 108b 50       		.byte	0x50
 10845 108c 1C000000 		.4byte	.LVL252
 10846 1090 2A000000 		.4byte	.LVL254
 10847 1094 0100     		.2byte	0x1
 10848 1096 54       		.byte	0x54
 10849 1097 2A000000 		.4byte	.LVL254
 10850 109b 34000000 		.4byte	.LVL256
 10851 109f 0100     		.2byte	0x1
 10852 10a1 50       		.byte	0x50
 10853 10a2 34000000 		.4byte	.LVL256
 10854 10a6 36000000 		.4byte	.LVL257
 10855 10aa 0100     		.2byte	0x1
 10856 10ac 54       		.byte	0x54
 10857 10ad 36000000 		.4byte	.LVL257
 10858 10b1 4B000000 		.4byte	.LVL259-1
 10859 10b5 0100     		.2byte	0x1
 10860 10b7 50       		.byte	0x50
 10861 10b8 4B000000 		.4byte	.LVL259-1
 10862 10bc 4C000000 		.4byte	.LVL259
 10863 10c0 0100     		.2byte	0x1
 10864 10c2 54       		.byte	0x54
 10865 10c3 4C000000 		.4byte	.LVL259
 10866 10c7 55000000 		.4byte	.LVL260-1
 10867 10cb 0100     		.2byte	0x1
 10868 10cd 50       		.byte	0x50
 10869 10ce 55000000 		.4byte	.LVL260-1
 10870 10d2 56000000 		.4byte	.LFE11
 10871 10d6 0100     		.2byte	0x1
 10872 10d8 54       		.byte	0x54
 10873 10d9 00000000 		.4byte	0
 10874 10dd 00000000 		.4byte	0
 10875              	.LLST84:
 10876 10e1 00000000 		.4byte	.LVL249
 10877 10e5 12000000 		.4byte	.LVL250
 10878 10e9 0100     		.2byte	0x1
 10879 10eb 51       		.byte	0x51
 10880 10ec 12000000 		.4byte	.LVL250
 10881 10f0 2A000000 		.4byte	.LVL254
ARM GAS  C:\Users\jenny\AppData\Local\Temp\ccAyMdWJ.s 			page 193


 10882 10f4 0100     		.2byte	0x1
 10883 10f6 56       		.byte	0x56
 10884 10f7 2A000000 		.4byte	.LVL254
 10885 10fb 4B000000 		.4byte	.LVL259-1
 10886 10ff 0100     		.2byte	0x1
 10887 1101 51       		.byte	0x51
 10888 1102 4B000000 		.4byte	.LVL259-1
 10889 1106 56000000 		.4byte	.LFE11
 10890 110a 0100     		.2byte	0x1
 10891 110c 56       		.byte	0x56
 10892 110d 00000000 		.4byte	0
 10893 1111 00000000 		.4byte	0
 10894              	.LLST85:
 10895 1115 00000000 		.4byte	.LVL249
 10896 1119 16000000 		.4byte	.LVL251
 10897 111d 0100     		.2byte	0x1
 10898 111f 52       		.byte	0x52
 10899 1120 16000000 		.4byte	.LVL251
 10900 1124 2A000000 		.4byte	.LVL254
 10901 1128 0100     		.2byte	0x1
 10902 112a 55       		.byte	0x55
 10903 112b 2A000000 		.4byte	.LVL254
 10904 112f 32000000 		.4byte	.LVL255
 10905 1133 0100     		.2byte	0x1
 10906 1135 52       		.byte	0x52
 10907 1136 32000000 		.4byte	.LVL255
 10908 113a 36000000 		.4byte	.LVL257
 10909 113e 0100     		.2byte	0x1
 10910 1140 55       		.byte	0x55
 10911 1141 36000000 		.4byte	.LVL257
 10912 1145 38000000 		.4byte	.LVL258
 10913 1149 0100     		.2byte	0x1
 10914 114b 52       		.byte	0x52
 10915 114c 38000000 		.4byte	.LVL258
 10916 1150 56000000 		.4byte	.LFE11
 10917 1154 0100     		.2byte	0x1
 10918 1156 55       		.byte	0x55
 10919 1157 00000000 		.4byte	0
 10920 115b 00000000 		.4byte	0
 10921              	.LLST86:
 10922 115f 00000000 		.4byte	.LVL261
 10923 1163 13000000 		.4byte	.LVL262-1
 10924 1167 0100     		.2byte	0x1
 10925 1169 50       		.byte	0x50
 10926 116a 13000000 		.4byte	.LVL262-1
 10927 116e 14000000 		.4byte	.LFE10
 10928 1172 0400     		.2byte	0x4
 10929 1174 F3       		.byte	0xf3
 10930 1175 01       		.uleb128 0x1
 10931 1176 50       		.byte	0x50
 10932 1177 9F       		.byte	0x9f
 10933 1178 00000000 		.4byte	0
 10934 117c 00000000 		.4byte	0
 10935              	.LLST87:
 10936 1180 00000000 		.4byte	.LFB28
 10937 1184 02000000 		.4byte	.LCFI26
 10938 1188 0200     		.2byte	0x2
ARM GAS  C:\Users\jenny\AppData\Local\Temp\ccAyMdWJ.s 			page 194


 10939 118a 7D       		.byte	0x7d
 10940 118b 00       		.sleb128 0
 10941 118c 02000000 		.4byte	.LCFI26
 10942 1190 26000000 		.4byte	.LFE28
 10943 1194 0200     		.2byte	0x2
 10944 1196 7D       		.byte	0x7d
 10945 1197 08       		.sleb128 8
 10946 1198 00000000 		.4byte	0
 10947 119c 00000000 		.4byte	0
 10948              	.LLST88:
 10949 11a0 00000000 		.4byte	.LVL263
 10950 11a4 08000000 		.4byte	.LVL264
 10951 11a8 0100     		.2byte	0x1
 10952 11aa 50       		.byte	0x50
 10953 11ab 08000000 		.4byte	.LVL264
 10954 11af 18000000 		.4byte	.LVL268
 10955 11b3 0400     		.2byte	0x4
 10956 11b5 F3       		.byte	0xf3
 10957 11b6 01       		.uleb128 0x1
 10958 11b7 50       		.byte	0x50
 10959 11b8 9F       		.byte	0x9f
 10960 11b9 18000000 		.4byte	.LVL268
 10961 11bd 1E000000 		.4byte	.LVL269
 10962 11c1 0100     		.2byte	0x1
 10963 11c3 50       		.byte	0x50
 10964 11c4 1E000000 		.4byte	.LVL269
 10965 11c8 26000000 		.4byte	.LFE28
 10966 11cc 0400     		.2byte	0x4
 10967 11ce F3       		.byte	0xf3
 10968 11cf 01       		.uleb128 0x1
 10969 11d0 50       		.byte	0x50
 10970 11d1 9F       		.byte	0x9f
 10971 11d2 00000000 		.4byte	0
 10972 11d6 00000000 		.4byte	0
 10973              	.LLST89:
 10974 11da 00000000 		.4byte	.LVL263
 10975 11de 0A000000 		.4byte	.LVL265
 10976 11e2 0100     		.2byte	0x1
 10977 11e4 51       		.byte	0x51
 10978 11e5 0A000000 		.4byte	.LVL265
 10979 11e9 0D000000 		.4byte	.LVL266-1
 10980 11ed 0100     		.2byte	0x1
 10981 11ef 50       		.byte	0x50
 10982 11f0 0D000000 		.4byte	.LVL266-1
 10983 11f4 18000000 		.4byte	.LVL268
 10984 11f8 0400     		.2byte	0x4
 10985 11fa F3       		.byte	0xf3
 10986 11fb 01       		.uleb128 0x1
 10987 11fc 51       		.byte	0x51
 10988 11fd 9F       		.byte	0x9f
 10989 11fe 18000000 		.4byte	.LVL268
 10990 1202 25000000 		.4byte	.LVL270-1
 10991 1206 0100     		.2byte	0x1
 10992 1208 51       		.byte	0x51
 10993 1209 25000000 		.4byte	.LVL270-1
 10994 120d 26000000 		.4byte	.LFE28
 10995 1211 0400     		.2byte	0x4
ARM GAS  C:\Users\jenny\AppData\Local\Temp\ccAyMdWJ.s 			page 195


 10996 1213 F3       		.byte	0xf3
 10997 1214 01       		.uleb128 0x1
 10998 1215 51       		.byte	0x51
 10999 1216 9F       		.byte	0x9f
 11000 1217 00000000 		.4byte	0
 11001 121b 00000000 		.4byte	0
 11002              	.LLST90:
 11003 121f 00000000 		.4byte	.LVL263
 11004 1223 0D000000 		.4byte	.LVL266-1
 11005 1227 0100     		.2byte	0x1
 11006 1229 52       		.byte	0x52
 11007 122a 0D000000 		.4byte	.LVL266-1
 11008 122e 18000000 		.4byte	.LVL268
 11009 1232 0100     		.2byte	0x1
 11010 1234 54       		.byte	0x54
 11011 1235 18000000 		.4byte	.LVL268
 11012 1239 25000000 		.4byte	.LVL270-1
 11013 123d 0100     		.2byte	0x1
 11014 123f 52       		.byte	0x52
 11015 1240 25000000 		.4byte	.LVL270-1
 11016 1244 26000000 		.4byte	.LFE28
 11017 1248 0100     		.2byte	0x1
 11018 124a 54       		.byte	0x54
 11019 124b 00000000 		.4byte	0
 11020 124f 00000000 		.4byte	0
 11021              	.LLST91:
 11022 1253 00000000 		.4byte	.LVL263
 11023 1257 0D000000 		.4byte	.LVL266-1
 11024 125b 0100     		.2byte	0x1
 11025 125d 53       		.byte	0x53
 11026 125e 0D000000 		.4byte	.LVL266-1
 11027 1262 18000000 		.4byte	.LVL268
 11028 1266 0400     		.2byte	0x4
 11029 1268 F3       		.byte	0xf3
 11030 1269 01       		.uleb128 0x1
 11031 126a 53       		.byte	0x53
 11032 126b 9F       		.byte	0x9f
 11033 126c 18000000 		.4byte	.LVL268
 11034 1270 25000000 		.4byte	.LVL270-1
 11035 1274 0100     		.2byte	0x1
 11036 1276 53       		.byte	0x53
 11037 1277 25000000 		.4byte	.LVL270-1
 11038 127b 26000000 		.4byte	.LFE28
 11039 127f 0400     		.2byte	0x4
 11040 1281 F3       		.byte	0xf3
 11041 1282 01       		.uleb128 0x1
 11042 1283 53       		.byte	0x53
 11043 1284 9F       		.byte	0x9f
 11044 1285 00000000 		.4byte	0
 11045 1289 00000000 		.4byte	0
 11046              	.LLST92:
 11047 128d 18000000 		.4byte	.LVL268
 11048 1291 25000000 		.4byte	.LVL270-1
 11049 1295 0100     		.2byte	0x1
 11050 1297 53       		.byte	0x53
 11051 1298 00000000 		.4byte	0
 11052 129c 00000000 		.4byte	0
ARM GAS  C:\Users\jenny\AppData\Local\Temp\ccAyMdWJ.s 			page 196


 11053              	.LLST93:
 11054 12a0 18000000 		.4byte	.LVL268
 11055 12a4 25000000 		.4byte	.LVL270-1
 11056 12a8 0100     		.2byte	0x1
 11057 12aa 51       		.byte	0x51
 11058 12ab 25000000 		.4byte	.LVL270-1
 11059 12af 26000000 		.4byte	.LFE28
 11060 12b3 0400     		.2byte	0x4
 11061 12b5 F3       		.byte	0xf3
 11062 12b6 01       		.uleb128 0x1
 11063 12b7 51       		.byte	0x51
 11064 12b8 9F       		.byte	0x9f
 11065 12b9 00000000 		.4byte	0
 11066 12bd 00000000 		.4byte	0
 11067              	.LLST94:
 11068 12c1 00000000 		.4byte	.LFB23
 11069 12c5 02000000 		.4byte	.LCFI27
 11070 12c9 0200     		.2byte	0x2
 11071 12cb 7D       		.byte	0x7d
 11072 12cc 00       		.sleb128 0
 11073 12cd 02000000 		.4byte	.LCFI27
 11074 12d1 68000000 		.4byte	.LFE23
 11075 12d5 0200     		.2byte	0x2
 11076 12d7 7D       		.byte	0x7d
 11077 12d8 18       		.sleb128 24
 11078 12d9 00000000 		.4byte	0
 11079 12dd 00000000 		.4byte	0
 11080              	.LLST95:
 11081 12e1 00000000 		.4byte	.LVL271
 11082 12e5 14000000 		.4byte	.LVL273
 11083 12e9 0100     		.2byte	0x1
 11084 12eb 50       		.byte	0x50
 11085 12ec 14000000 		.4byte	.LVL273
 11086 12f0 56000000 		.4byte	.LVL282
 11087 12f4 0100     		.2byte	0x1
 11088 12f6 54       		.byte	0x54
 11089 12f7 56000000 		.4byte	.LVL282
 11090 12fb 58000000 		.4byte	.LVL283
 11091 12ff 0100     		.2byte	0x1
 11092 1301 50       		.byte	0x50
 11093 1302 58000000 		.4byte	.LVL283
 11094 1306 68000000 		.4byte	.LFE23
 11095 130a 0100     		.2byte	0x1
 11096 130c 54       		.byte	0x54
 11097 130d 00000000 		.4byte	0
 11098 1311 00000000 		.4byte	0
 11099              	.LLST96:
 11100 1315 1A000000 		.4byte	.LVL274
 11101 1319 3A000000 		.4byte	.LVL277
 11102 131d 0100     		.2byte	0x1
 11103 131f 50       		.byte	0x50
 11104 1320 40000000 		.4byte	.LVL278
 11105 1324 42000000 		.4byte	.LVL279
 11106 1328 0100     		.2byte	0x1
 11107 132a 50       		.byte	0x50
 11108 132b 4A000000 		.4byte	.LVL280
 11109 132f 4C000000 		.4byte	.LVL281
ARM GAS  C:\Users\jenny\AppData\Local\Temp\ccAyMdWJ.s 			page 197


 11110 1333 0100     		.2byte	0x1
 11111 1335 50       		.byte	0x50
 11112 1336 62000000 		.4byte	.LVL284
 11113 133a 64000000 		.4byte	.LVL285
 11114 133e 0100     		.2byte	0x1
 11115 1340 50       		.byte	0x50
 11116 1341 00000000 		.4byte	0
 11117 1345 00000000 		.4byte	0
 11118              	.LLST97:
 11119 1349 0A000000 		.4byte	.LVL272
 11120 134d 19000000 		.4byte	.LVL274-1
 11121 1351 0200     		.2byte	0x2
 11122 1353 75       		.byte	0x75
 11123 1354 0D       		.sleb128 13
 11124 1355 19000000 		.4byte	.LVL274-1
 11125 1359 20000000 		.4byte	.LVL275
 11126 135d 0100     		.2byte	0x1
 11127 135f 57       		.byte	0x57
 11128 1360 4A000000 		.4byte	.LVL280
 11129 1364 56000000 		.4byte	.LVL282
 11130 1368 0100     		.2byte	0x1
 11131 136a 57       		.byte	0x57
 11132 136b 56000000 		.4byte	.LVL282
 11133 136f 61000000 		.4byte	.LVL284-1
 11134 1373 0200     		.2byte	0x2
 11135 1375 75       		.byte	0x75
 11136 1376 0D       		.sleb128 13
 11137 1377 61000000 		.4byte	.LVL284-1
 11138 137b 64000000 		.4byte	.LVL285
 11139 137f 0100     		.2byte	0x1
 11140 1381 57       		.byte	0x57
 11141 1382 00000000 		.4byte	0
 11142 1386 00000000 		.4byte	0
 11143              	.LLST98:
 11144 138a 0A000000 		.4byte	.LVL272
 11145 138e 34000000 		.4byte	.LVL276
 11146 1392 0100     		.2byte	0x1
 11147 1394 55       		.byte	0x55
 11148 1395 4A000000 		.4byte	.LVL280
 11149 1399 64000000 		.4byte	.LVL285
 11150 139d 0100     		.2byte	0x1
 11151 139f 55       		.byte	0x55
 11152 13a0 00000000 		.4byte	0
 11153 13a4 00000000 		.4byte	0
 11154              	.LLST99:
 11155 13a8 00000000 		.4byte	.LFB22
 11156 13ac 04000000 		.4byte	.LCFI28
 11157 13b0 0200     		.2byte	0x2
 11158 13b2 7D       		.byte	0x7d
 11159 13b3 00       		.sleb128 0
 11160 13b4 04000000 		.4byte	.LCFI28
 11161 13b8 70000000 		.4byte	.LFE22
 11162 13bc 0200     		.2byte	0x2
 11163 13be 7D       		.byte	0x7d
 11164 13bf 18       		.sleb128 24
 11165 13c0 00000000 		.4byte	0
 11166 13c4 00000000 		.4byte	0
ARM GAS  C:\Users\jenny\AppData\Local\Temp\ccAyMdWJ.s 			page 198


 11167              	.LLST100:
 11168 13c8 16000000 		.4byte	.LVL286
 11169 13cc 34000000 		.4byte	.LVL287
 11170 13d0 0100     		.2byte	0x1
 11171 13d2 54       		.byte	0x54
 11172 13d3 34000000 		.4byte	.LVL287
 11173 13d7 3F000000 		.4byte	.LVL288-1
 11174 13db 0100     		.2byte	0x1
 11175 13dd 50       		.byte	0x50
 11176 13de 46000000 		.4byte	.LVL289
 11177 13e2 70000000 		.4byte	.LFE22
 11178 13e6 0100     		.2byte	0x1
 11179 13e8 54       		.byte	0x54
 11180 13e9 00000000 		.4byte	0
 11181 13ed 00000000 		.4byte	0
 11182              	.LLST101:
 11183 13f1 34000000 		.4byte	.LVL287
 11184 13f5 4A000000 		.4byte	.LVL290
 11185 13f9 0100     		.2byte	0x1
 11186 13fb 54       		.byte	0x54
 11187 13fc 00000000 		.4byte	0
 11188 1400 00000000 		.4byte	0
 11189              	.LLST102:
 11190 1404 00000000 		.4byte	.LFB8
 11191 1408 02000000 		.4byte	.LCFI29
 11192 140c 0200     		.2byte	0x2
 11193 140e 7D       		.byte	0x7d
 11194 140f 00       		.sleb128 0
 11195 1410 02000000 		.4byte	.LCFI29
 11196 1414 24000000 		.4byte	.LFE8
 11197 1418 0200     		.2byte	0x2
 11198 141a 7D       		.byte	0x7d
 11199 141b 08       		.sleb128 8
 11200 141c 00000000 		.4byte	0
 11201 1420 00000000 		.4byte	0
 11202              	.LLST103:
 11203 1424 00000000 		.4byte	.LFB42
 11204 1428 02000000 		.4byte	.LCFI30
 11205 142c 0200     		.2byte	0x2
 11206 142e 7D       		.byte	0x7d
 11207 142f 00       		.sleb128 0
 11208 1430 02000000 		.4byte	.LCFI30
 11209 1434 1E000000 		.4byte	.LFE42
 11210 1438 0200     		.2byte	0x2
 11211 143a 7D       		.byte	0x7d
 11212 143b 08       		.sleb128 8
 11213 143c 00000000 		.4byte	0
 11214 1440 00000000 		.4byte	0
 11215              	.LLST104:
 11216 1444 00000000 		.4byte	.LVL294
 11217 1448 06000000 		.4byte	.LVL295
 11218 144c 0100     		.2byte	0x1
 11219 144e 50       		.byte	0x50
 11220 144f 06000000 		.4byte	.LVL295
 11221 1453 1A000000 		.4byte	.LVL300
 11222 1457 0400     		.2byte	0x4
 11223 1459 F3       		.byte	0xf3
ARM GAS  C:\Users\jenny\AppData\Local\Temp\ccAyMdWJ.s 			page 199


 11224 145a 01       		.uleb128 0x1
 11225 145b 50       		.byte	0x50
 11226 145c 9F       		.byte	0x9f
 11227 145d 1A000000 		.4byte	.LVL300
 11228 1461 1E000000 		.4byte	.LFE42
 11229 1465 0100     		.2byte	0x1
 11230 1467 54       		.byte	0x54
 11231 1468 00000000 		.4byte	0
 11232 146c 00000000 		.4byte	0
 11233              	.LLST105:
 11234 1470 00000000 		.4byte	.LVL294
 11235 1474 09000000 		.4byte	.LVL296-1
 11236 1478 0100     		.2byte	0x1
 11237 147a 51       		.byte	0x51
 11238 147b 09000000 		.4byte	.LVL296-1
 11239 147f 1E000000 		.4byte	.LFE42
 11240 1483 0400     		.2byte	0x4
 11241 1485 F3       		.byte	0xf3
 11242 1486 01       		.uleb128 0x1
 11243 1487 51       		.byte	0x51
 11244 1488 9F       		.byte	0x9f
 11245 1489 00000000 		.4byte	0
 11246 148d 00000000 		.4byte	0
 11247              	.LLST106:
 11248 1491 10000000 		.4byte	.LVL297
 11249 1495 12000000 		.4byte	.LVL298
 11250 1499 0300     		.2byte	0x3
 11251 149b 73       		.byte	0x73
 11252 149c 58       		.sleb128 -40
 11253 149d 9F       		.byte	0x9f
 11254 149e 12000000 		.4byte	.LVL298
 11255 14a2 1A000000 		.4byte	.LVL300
 11256 14a6 0300     		.2byte	0x3
 11257 14a8 73       		.byte	0x73
 11258 14a9 00       		.sleb128 0
 11259 14aa 9F       		.byte	0x9f
 11260 14ab 00000000 		.4byte	0
 11261 14af 00000000 		.4byte	0
 11262              	.LLST107:
 11263 14b3 0A000000 		.4byte	.LVL296
 11264 14b7 14000000 		.4byte	.LVL299
 11265 14bb 0100     		.2byte	0x1
 11266 14bd 50       		.byte	0x50
 11267 14be 00000000 		.4byte	0
 11268 14c2 00000000 		.4byte	0
 11269              	.LLST108:
 11270 14c6 00000000 		.4byte	.LFB20
 11271 14ca 04000000 		.4byte	.LCFI31
 11272 14ce 0200     		.2byte	0x2
 11273 14d0 7D       		.byte	0x7d
 11274 14d1 00       		.sleb128 0
 11275 14d2 04000000 		.4byte	.LCFI31
 11276 14d6 28010000 		.4byte	.LFE20
 11277 14da 0200     		.2byte	0x2
 11278 14dc 7D       		.byte	0x7d
 11279 14dd 20       		.sleb128 32
 11280 14de 00000000 		.4byte	0
ARM GAS  C:\Users\jenny\AppData\Local\Temp\ccAyMdWJ.s 			page 200


 11281 14e2 00000000 		.4byte	0
 11282              	.LLST109:
 11283 14e6 00000000 		.4byte	.LVL301
 11284 14ea 16000000 		.4byte	.LVL303
 11285 14ee 0100     		.2byte	0x1
 11286 14f0 50       		.byte	0x50
 11287 14f1 16000000 		.4byte	.LVL303
 11288 14f5 C4000000 		.4byte	.LVL313
 11289 14f9 0100     		.2byte	0x1
 11290 14fb 54       		.byte	0x54
 11291 14fc C4000000 		.4byte	.LVL313
 11292 1500 C6000000 		.4byte	.LVL314
 11293 1504 0100     		.2byte	0x1
 11294 1506 50       		.byte	0x50
 11295 1507 C6000000 		.4byte	.LVL314
 11296 150b 02010000 		.4byte	.LVL320
 11297 150f 0100     		.2byte	0x1
 11298 1511 54       		.byte	0x54
 11299 1512 02010000 		.4byte	.LVL320
 11300 1516 05010000 		.4byte	.LVL321-1
 11301 151a 0100     		.2byte	0x1
 11302 151c 50       		.byte	0x50
 11303 151d 05010000 		.4byte	.LVL321-1
 11304 1521 28010000 		.4byte	.LFE20
 11305 1525 0100     		.2byte	0x1
 11306 1527 54       		.byte	0x54
 11307 1528 00000000 		.4byte	0
 11308 152c 00000000 		.4byte	0
 11309              	.LLST110:
 11310 1530 00000000 		.4byte	.LVL301
 11311 1534 08000000 		.4byte	.LVL302
 11312 1538 0100     		.2byte	0x1
 11313 153a 51       		.byte	0x51
 11314 153b 08000000 		.4byte	.LVL302
 11315 153f 7C000000 		.4byte	.LVL310
 11316 1543 0100     		.2byte	0x1
 11317 1545 55       		.byte	0x55
 11318 1546 7C000000 		.4byte	.LVL310
 11319 154a C4000000 		.4byte	.LVL313
 11320 154e 0400     		.2byte	0x4
 11321 1550 F3       		.byte	0xf3
 11322 1551 01       		.uleb128 0x1
 11323 1552 51       		.byte	0x51
 11324 1553 9F       		.byte	0x9f
 11325 1554 C4000000 		.4byte	.LVL313
 11326 1558 C6000000 		.4byte	.LVL314
 11327 155c 0100     		.2byte	0x1
 11328 155e 55       		.byte	0x55
 11329 155f C6000000 		.4byte	.LVL314
 11330 1563 F4000000 		.4byte	.LVL318
 11331 1567 0400     		.2byte	0x4
 11332 1569 F3       		.byte	0xf3
 11333 156a 01       		.uleb128 0x1
 11334 156b 51       		.byte	0x51
 11335 156c 9F       		.byte	0x9f
 11336 156d F4000000 		.4byte	.LVL318
 11337 1571 F6000000 		.4byte	.LVL319
ARM GAS  C:\Users\jenny\AppData\Local\Temp\ccAyMdWJ.s 			page 201


 11338 1575 0100     		.2byte	0x1
 11339 1577 55       		.byte	0x55
 11340 1578 F6000000 		.4byte	.LVL319
 11341 157c 02010000 		.4byte	.LVL320
 11342 1580 0400     		.2byte	0x4
 11343 1582 F3       		.byte	0xf3
 11344 1583 01       		.uleb128 0x1
 11345 1584 51       		.byte	0x51
 11346 1585 9F       		.byte	0x9f
 11347 1586 02010000 		.4byte	.LVL320
 11348 158a 08010000 		.4byte	.LVL322
 11349 158e 0100     		.2byte	0x1
 11350 1590 55       		.byte	0x55
 11351 1591 08010000 		.4byte	.LVL322
 11352 1595 0A010000 		.4byte	.LVL323
 11353 1599 0400     		.2byte	0x4
 11354 159b F3       		.byte	0xf3
 11355 159c 01       		.uleb128 0x1
 11356 159d 51       		.byte	0x51
 11357 159e 9F       		.byte	0x9f
 11358 159f 0A010000 		.4byte	.LVL323
 11359 15a3 0C010000 		.4byte	.LVL324
 11360 15a7 0100     		.2byte	0x1
 11361 15a9 55       		.byte	0x55
 11362 15aa 0C010000 		.4byte	.LVL324
 11363 15ae 28010000 		.4byte	.LFE20
 11364 15b2 0400     		.2byte	0x4
 11365 15b4 F3       		.byte	0xf3
 11366 15b5 01       		.uleb128 0x1
 11367 15b6 51       		.byte	0x51
 11368 15b7 9F       		.byte	0x9f
 11369 15b8 00000000 		.4byte	0
 11370 15bc 00000000 		.4byte	0
 11371              	.LLST111:
 11372 15c0 00000000 		.4byte	.LVL301
 11373 15c4 23000000 		.4byte	.LVL305-1
 11374 15c8 0100     		.2byte	0x1
 11375 15ca 52       		.byte	0x52
 11376 15cb 23000000 		.4byte	.LVL305-1
 11377 15cf C4000000 		.4byte	.LVL313
 11378 15d3 0400     		.2byte	0x4
 11379 15d5 F3       		.byte	0xf3
 11380 15d6 01       		.uleb128 0x1
 11381 15d7 52       		.byte	0x52
 11382 15d8 9F       		.byte	0x9f
 11383 15d9 C4000000 		.4byte	.LVL313
 11384 15dd C6000000 		.4byte	.LVL314
 11385 15e1 0100     		.2byte	0x1
 11386 15e3 52       		.byte	0x52
 11387 15e4 C6000000 		.4byte	.LVL314
 11388 15e8 02010000 		.4byte	.LVL320
 11389 15ec 0400     		.2byte	0x4
 11390 15ee F3       		.byte	0xf3
 11391 15ef 01       		.uleb128 0x1
 11392 15f0 52       		.byte	0x52
 11393 15f1 9F       		.byte	0x9f
 11394 15f2 02010000 		.4byte	.LVL320
ARM GAS  C:\Users\jenny\AppData\Local\Temp\ccAyMdWJ.s 			page 202


 11395 15f6 05010000 		.4byte	.LVL321-1
 11396 15fa 0100     		.2byte	0x1
 11397 15fc 52       		.byte	0x52
 11398 15fd 05010000 		.4byte	.LVL321-1
 11399 1601 28010000 		.4byte	.LFE20
 11400 1605 0400     		.2byte	0x4
 11401 1607 F3       		.byte	0xf3
 11402 1608 01       		.uleb128 0x1
 11403 1609 52       		.byte	0x52
 11404 160a 9F       		.byte	0x9f
 11405 160b 00000000 		.4byte	0
 11406 160f 00000000 		.4byte	0
 11407              	.LLST112:
 11408 1613 00000000 		.4byte	.LVL301
 11409 1617 18000000 		.4byte	.LVL304
 11410 161b 0100     		.2byte	0x1
 11411 161d 53       		.byte	0x53
 11412 161e 18000000 		.4byte	.LVL304
 11413 1622 C4000000 		.4byte	.LVL313
 11414 1626 0100     		.2byte	0x1
 11415 1628 59       		.byte	0x59
 11416 1629 C4000000 		.4byte	.LVL313
 11417 162d C6000000 		.4byte	.LVL314
 11418 1631 0100     		.2byte	0x1
 11419 1633 53       		.byte	0x53
 11420 1634 C6000000 		.4byte	.LVL314
 11421 1638 02010000 		.4byte	.LVL320
 11422 163c 0100     		.2byte	0x1
 11423 163e 59       		.byte	0x59
 11424 163f 02010000 		.4byte	.LVL320
 11425 1643 05010000 		.4byte	.LVL321-1
 11426 1647 0100     		.2byte	0x1
 11427 1649 53       		.byte	0x53
 11428 164a 05010000 		.4byte	.LVL321-1
 11429 164e 28010000 		.4byte	.LFE20
 11430 1652 0100     		.2byte	0x1
 11431 1654 59       		.byte	0x59
 11432 1655 00000000 		.4byte	0
 11433 1659 00000000 		.4byte	0
 11434              	.LLST113:
 11435 165d 96000000 		.4byte	.LVL311
 11436 1661 A8000000 		.4byte	.LVL312
 11437 1665 0100     		.2byte	0x1
 11438 1667 50       		.byte	0x50
 11439 1668 00000000 		.4byte	0
 11440 166c 00000000 		.4byte	0
 11441              	.LLST114:
 11442 1670 30000000 		.4byte	.LVL307
 11443 1674 39000000 		.4byte	.LVL308-1
 11444 1678 0200     		.2byte	0x2
 11445 167a 74       		.byte	0x74
 11446 167b 1A       		.sleb128 26
 11447 167c 39000000 		.4byte	.LVL308-1
 11448 1680 C4000000 		.4byte	.LVL313
 11449 1684 0100     		.2byte	0x1
 11450 1686 58       		.byte	0x58
 11451 1687 CC000000 		.4byte	.LVL315
ARM GAS  C:\Users\jenny\AppData\Local\Temp\ccAyMdWJ.s 			page 203


 11452 168b 02010000 		.4byte	.LVL320
 11453 168f 0100     		.2byte	0x1
 11454 1691 58       		.byte	0x58
 11455 1692 00000000 		.4byte	0
 11456 1696 00000000 		.4byte	0
 11457              	.LLST115:
 11458 169a 24000000 		.4byte	.LVL305
 11459 169e 2C000000 		.4byte	.LVL306
 11460 16a2 0100     		.2byte	0x1
 11461 16a4 50       		.byte	0x50
 11462 16a5 0A010000 		.4byte	.LVL323
 11463 16a9 28010000 		.4byte	.LFE20
 11464 16ad 0100     		.2byte	0x1
 11465 16af 50       		.byte	0x50
 11466 16b0 00000000 		.4byte	0
 11467 16b4 00000000 		.4byte	0
 11468              	.LLST116:
 11469 16b8 00000000 		.4byte	.LVL325
 11470 16bc 0C000000 		.4byte	.LVL326
 11471 16c0 0100     		.2byte	0x1
 11472 16c2 50       		.byte	0x50
 11473 16c3 0C000000 		.4byte	.LVL326
 11474 16c7 0E000000 		.4byte	.LFE43
 11475 16cb 0400     		.2byte	0x4
 11476 16cd F3       		.byte	0xf3
 11477 16ce 01       		.uleb128 0x1
 11478 16cf 50       		.byte	0x50
 11479 16d0 9F       		.byte	0x9f
 11480 16d1 00000000 		.4byte	0
 11481 16d5 00000000 		.4byte	0
 11482              		.section	.debug_aranges,"",%progbits
 11483 0000 2C010000 		.4byte	0x12c
 11484 0004 0200     		.2byte	0x2
 11485 0006 00000000 		.4byte	.Ldebug_info0
 11486 000a 04       		.byte	0x4
 11487 000b 00       		.byte	0
 11488 000c 0000     		.2byte	0
 11489 000e 0000     		.2byte	0
 11490 0010 00000000 		.4byte	.LFB15
 11491 0014 06000000 		.4byte	.LFE15-.LFB15
 11492 0018 00000000 		.4byte	.LFB19
 11493 001c 58000000 		.4byte	.LFE19-.LFB19
 11494 0020 00000000 		.4byte	.LFB7
 11495 0024 02000000 		.4byte	.LFE7-.LFB7
 11496 0028 00000000 		.4byte	.LFB14
 11497 002c 7C000000 		.4byte	.LFE14-.LFB14
 11498 0030 00000000 		.4byte	.LFB16
 11499 0034 B0000000 		.4byte	.LFE16-.LFB16
 11500 0038 00000000 		.4byte	.LFB17
 11501 003c 44000000 		.4byte	.LFE17-.LFB17
 11502 0040 00000000 		.4byte	.LFB18
 11503 0044 58000000 		.4byte	.LFE18-.LFB18
 11504 0048 00000000 		.4byte	.LFB25
 11505 004c 1C000000 		.4byte	.LFE25-.LFB25
 11506 0050 00000000 		.4byte	.LFB24
 11507 0054 12000000 		.4byte	.LFE24-.LFB24
 11508 0058 00000000 		.4byte	.LFB26
ARM GAS  C:\Users\jenny\AppData\Local\Temp\ccAyMdWJ.s 			page 204


 11509 005c 04000000 		.4byte	.LFE26-.LFB26
 11510 0060 00000000 		.4byte	.LFB27
 11511 0064 28000000 		.4byte	.LFE27-.LFB27
 11512 0068 00000000 		.4byte	.LFB33
 11513 006c 04000000 		.4byte	.LFE33-.LFB33
 11514 0070 00000000 		.4byte	.LFB34
 11515 0074 20000000 		.4byte	.LFE34-.LFB34
 11516 0078 00000000 		.4byte	.LFB35
 11517 007c 1E000000 		.4byte	.LFE35-.LFB35
 11518 0080 00000000 		.4byte	.LFB36
 11519 0084 20000000 		.4byte	.LFE36-.LFB36
 11520 0088 00000000 		.4byte	.LFB37
 11521 008c 04000000 		.4byte	.LFE37-.LFB37
 11522 0090 00000000 		.4byte	.LFB38
 11523 0094 28000000 		.4byte	.LFE38-.LFB38
 11524 0098 00000000 		.4byte	.LFB39
 11525 009c 42000000 		.4byte	.LFE39-.LFB39
 11526 00a0 00000000 		.4byte	.LFB21
 11527 00a4 40040000 		.4byte	.LFE21-.LFB21
 11528 00a8 00000000 		.4byte	.LFB40
 11529 00ac 88000000 		.4byte	.LFE40-.LFB40
 11530 00b0 00000000 		.4byte	.LFB12
 11531 00b4 A4000000 		.4byte	.LFE12-.LFB12
 11532 00b8 00000000 		.4byte	.LFB13
 11533 00bc 06000000 		.4byte	.LFE13-.LFB13
 11534 00c0 00000000 		.4byte	.LFB31
 11535 00c4 48010000 		.4byte	.LFE31-.LFB31
 11536 00c8 00000000 		.4byte	.LFB32
 11537 00cc 06000000 		.4byte	.LFE32-.LFB32
 11538 00d0 00000000 		.4byte	.LFB9
 11539 00d4 84010000 		.4byte	.LFE9-.LFB9
 11540 00d8 00000000 		.4byte	.LFB11
 11541 00dc 56000000 		.4byte	.LFE11-.LFB11
 11542 00e0 00000000 		.4byte	.LFB10
 11543 00e4 14000000 		.4byte	.LFE10-.LFB10
 11544 00e8 00000000 		.4byte	.LFB28
 11545 00ec 26000000 		.4byte	.LFE28-.LFB28
 11546 00f0 00000000 		.4byte	.LFB23
 11547 00f4 68000000 		.4byte	.LFE23-.LFB23
 11548 00f8 00000000 		.4byte	.LFB22
 11549 00fc 70000000 		.4byte	.LFE22-.LFB22
 11550 0100 00000000 		.4byte	.LFB8
 11551 0104 24000000 		.4byte	.LFE8-.LFB8
 11552 0108 00000000 		.4byte	.LFB41
 11553 010c 1A000000 		.4byte	.LFE41-.LFB41
 11554 0110 00000000 		.4byte	.LFB42
 11555 0114 1E000000 		.4byte	.LFE42-.LFB42
 11556 0118 00000000 		.4byte	.LFB20
 11557 011c 28010000 		.4byte	.LFE20-.LFB20
 11558 0120 00000000 		.4byte	.LFB43
 11559 0124 0E000000 		.4byte	.LFE43-.LFB43
 11560 0128 00000000 		.4byte	0
 11561 012c 00000000 		.4byte	0
 11562              		.section	.debug_ranges,"",%progbits
 11563              	.Ldebug_ranges0:
 11564 0000 30000000 		.4byte	.LBB7
 11565 0004 3C000000 		.4byte	.LBE7
ARM GAS  C:\Users\jenny\AppData\Local\Temp\ccAyMdWJ.s 			page 205


 11566 0008 3E000000 		.4byte	.LBB8
 11567 000c 44000000 		.4byte	.LBE8
 11568 0010 00000000 		.4byte	0
 11569 0014 00000000 		.4byte	0
 11570 0018 0C000000 		.4byte	.LBB14
 11571 001c 0E000000 		.4byte	.LBE14
 11572 0020 C6010000 		.4byte	.LBB16
 11573 0024 22020000 		.4byte	.LBE16
 11574 0028 DE030000 		.4byte	.LBB17
 11575 002c 20040000 		.4byte	.LBE17
 11576 0030 34040000 		.4byte	.LBB19
 11577 0034 3A040000 		.4byte	.LBE19
 11578 0038 00000000 		.4byte	0
 11579 003c 00000000 		.4byte	0
 11580 0040 8A010000 		.4byte	.LBB15
 11581 0044 B0010000 		.4byte	.LBE15
 11582 0048 20040000 		.4byte	.LBB18
 11583 004c 34040000 		.4byte	.LBE18
 11584 0050 3A040000 		.4byte	.LBB20
 11585 0054 40040000 		.4byte	.LBE20
 11586 0058 00000000 		.4byte	0
 11587 005c 00000000 		.4byte	0
 11588 0060 1C000000 		.4byte	.LBB27
 11589 0064 24000000 		.4byte	.LBE27
 11590 0068 28000000 		.4byte	.LBB31
 11591 006c 2A000000 		.4byte	.LBE31
 11592 0070 50000000 		.4byte	.LBB32
 11593 0074 52000000 		.4byte	.LBE32
 11594 0078 00000000 		.4byte	0
 11595 007c 00000000 		.4byte	0
 11596 0080 1C000000 		.4byte	.LBB28
 11597 0084 24000000 		.4byte	.LBE28
 11598 0088 28000000 		.4byte	.LBB29
 11599 008c 2A000000 		.4byte	.LBE29
 11600 0090 50000000 		.4byte	.LBB30
 11601 0094 52000000 		.4byte	.LBE30
 11602 0098 00000000 		.4byte	0
 11603 009c 00000000 		.4byte	0
 11604 00a0 18000000 		.4byte	.LBB39
 11605 00a4 1E000000 		.4byte	.LBE39
 11606 00a8 22000000 		.4byte	.LBB42
 11607 00ac 26000000 		.4byte	.LBE42
 11608 00b0 00000000 		.4byte	0
 11609 00b4 00000000 		.4byte	0
 11610 00b8 18000000 		.4byte	.LBB40
 11611 00bc 1E000000 		.4byte	.LBE40
 11612 00c0 22000000 		.4byte	.LBB41
 11613 00c4 26000000 		.4byte	.LBE41
 11614 00c8 00000000 		.4byte	0
 11615 00cc 00000000 		.4byte	0
 11616 00d0 0A000000 		.4byte	.LBB43
 11617 00d4 0C000000 		.4byte	.LBE43
 11618 00d8 10000000 		.4byte	.LBB44
 11619 00dc 14000000 		.4byte	.LBE44
 11620 00e0 24000000 		.4byte	.LBB45
 11621 00e4 46000000 		.4byte	.LBE45
 11622 00e8 4E000000 		.4byte	.LBB46
ARM GAS  C:\Users\jenny\AppData\Local\Temp\ccAyMdWJ.s 			page 206


 11623 00ec 70000000 		.4byte	.LBE46
 11624 00f0 00000000 		.4byte	0
 11625 00f4 00000000 		.4byte	0
 11626 00f8 1E000000 		.4byte	.LBB47
 11627 00fc 2C000000 		.4byte	.LBE47
 11628 0100 0A010000 		.4byte	.LBB52
 11629 0104 28010000 		.4byte	.LBE52
 11630 0108 00000000 		.4byte	0
 11631 010c 00000000 		.4byte	0
 11632 0110 40000000 		.4byte	.LBB48
 11633 0114 4A000000 		.4byte	.LBE48
 11634 0118 72000000 		.4byte	.LBB51
 11635 011c 74000000 		.4byte	.LBE51
 11636 0120 00000000 		.4byte	0
 11637 0124 00000000 		.4byte	0
 11638 0128 40000000 		.4byte	.LBB49
 11639 012c 4A000000 		.4byte	.LBE49
 11640 0130 72000000 		.4byte	.LBB50
 11641 0134 74000000 		.4byte	.LBE50
 11642 0138 00000000 		.4byte	0
 11643 013c 00000000 		.4byte	0
 11644 0140 00000000 		.4byte	.LFB15
 11645 0144 06000000 		.4byte	.LFE15
 11646 0148 00000000 		.4byte	.LFB19
 11647 014c 58000000 		.4byte	.LFE19
 11648 0150 00000000 		.4byte	.LFB7
 11649 0154 02000000 		.4byte	.LFE7
 11650 0158 00000000 		.4byte	.LFB14
 11651 015c 7C000000 		.4byte	.LFE14
 11652 0160 00000000 		.4byte	.LFB16
 11653 0164 B0000000 		.4byte	.LFE16
 11654 0168 00000000 		.4byte	.LFB17
 11655 016c 44000000 		.4byte	.LFE17
 11656 0170 00000000 		.4byte	.LFB18
 11657 0174 58000000 		.4byte	.LFE18
 11658 0178 00000000 		.4byte	.LFB25
 11659 017c 1C000000 		.4byte	.LFE25
 11660 0180 00000000 		.4byte	.LFB24
 11661 0184 12000000 		.4byte	.LFE24
 11662 0188 00000000 		.4byte	.LFB26
 11663 018c 04000000 		.4byte	.LFE26
 11664 0190 00000000 		.4byte	.LFB27
 11665 0194 28000000 		.4byte	.LFE27
 11666 0198 00000000 		.4byte	.LFB33
 11667 019c 04000000 		.4byte	.LFE33
 11668 01a0 00000000 		.4byte	.LFB34
 11669 01a4 20000000 		.4byte	.LFE34
 11670 01a8 00000000 		.4byte	.LFB35
 11671 01ac 1E000000 		.4byte	.LFE35
 11672 01b0 00000000 		.4byte	.LFB36
 11673 01b4 20000000 		.4byte	.LFE36
 11674 01b8 00000000 		.4byte	.LFB37
 11675 01bc 04000000 		.4byte	.LFE37
 11676 01c0 00000000 		.4byte	.LFB38
 11677 01c4 28000000 		.4byte	.LFE38
 11678 01c8 00000000 		.4byte	.LFB39
 11679 01cc 42000000 		.4byte	.LFE39
ARM GAS  C:\Users\jenny\AppData\Local\Temp\ccAyMdWJ.s 			page 207


 11680 01d0 00000000 		.4byte	.LFB21
 11681 01d4 40040000 		.4byte	.LFE21
 11682 01d8 00000000 		.4byte	.LFB40
 11683 01dc 88000000 		.4byte	.LFE40
 11684 01e0 00000000 		.4byte	.LFB12
 11685 01e4 A4000000 		.4byte	.LFE12
 11686 01e8 00000000 		.4byte	.LFB13
 11687 01ec 06000000 		.4byte	.LFE13
 11688 01f0 00000000 		.4byte	.LFB31
 11689 01f4 48010000 		.4byte	.LFE31
 11690 01f8 00000000 		.4byte	.LFB32
 11691 01fc 06000000 		.4byte	.LFE32
 11692 0200 00000000 		.4byte	.LFB9
 11693 0204 84010000 		.4byte	.LFE9
 11694 0208 00000000 		.4byte	.LFB11
 11695 020c 56000000 		.4byte	.LFE11
 11696 0210 00000000 		.4byte	.LFB10
 11697 0214 14000000 		.4byte	.LFE10
 11698 0218 00000000 		.4byte	.LFB28
 11699 021c 26000000 		.4byte	.LFE28
 11700 0220 00000000 		.4byte	.LFB23
 11701 0224 68000000 		.4byte	.LFE23
 11702 0228 00000000 		.4byte	.LFB22
 11703 022c 70000000 		.4byte	.LFE22
 11704 0230 00000000 		.4byte	.LFB8
 11705 0234 24000000 		.4byte	.LFE8
 11706 0238 00000000 		.4byte	.LFB41
 11707 023c 1A000000 		.4byte	.LFE41
 11708 0240 00000000 		.4byte	.LFB42
 11709 0244 1E000000 		.4byte	.LFE42
 11710 0248 00000000 		.4byte	.LFB20
 11711 024c 28010000 		.4byte	.LFE20
 11712 0250 00000000 		.4byte	.LFB43
 11713 0254 0E000000 		.4byte	.LFE43
 11714 0258 00000000 		.4byte	0
 11715 025c 00000000 		.4byte	0
 11716              		.section	.debug_line,"",%progbits
 11717              	.Ldebug_line0:
 11718 0000 58090000 		.section	.debug_str,"MS",%progbits,1
 11718      02009801 
 11718      00000201 
 11718      FB0E0D00 
 11718      01010101 
 11719              	.LASF2:
 11720 0000 696E7438 		.ascii	"int8_t\000"
 11720      5F7400
 11721              	.LASF146:
 11722 0007 70726F74 		.ascii	"proterr\000"
 11722      65727200 
 11723              	.LASF16:
 11724 000f 73697A65 		.ascii	"sizetype\000"
 11724      74797065 
 11724      00
 11725              	.LASF181:
 11726 0018 7463705F 		.ascii	"tcp_segs_free\000"
 11726      73656773 
 11726      5F667265 
ARM GAS  C:\Users\jenny\AppData\Local\Temp\ccAyMdWJ.s 			page 208


 11726      6500
 11727              	.LASF78:
 11728 0026 7263765F 		.ascii	"rcv_ann_wnd\000"
 11728      616E6E5F 
 11728      776E6400 
 11729              	.LASF151:
 11730 0032 75736564 		.ascii	"used\000"
 11730      00
 11731              	.LASF27:
 11732 0037 4D454D50 		.ascii	"MEMP_TCP_PCB\000"
 11732      5F544350 
 11732      5F504342 
 11732      00
 11733              	.LASF245:
 11734 0044 7463705F 		.ascii	"tcp_persist_backoff\000"
 11734      70657273 
 11734      6973745F 
 11734      6261636B 
 11734      6F666600 
 11735              	.LASF9:
 11736 0058 696E7433 		.ascii	"int32_t\000"
 11736      325F7400 
 11737              	.LASF165:
 11738 0060 7463705F 		.ascii	"tcp_accept_null\000"
 11738      61636365 
 11738      70745F6E 
 11738      756C6C00 
 11739              	.LASF77:
 11740 0070 7263765F 		.ascii	"rcv_wnd\000"
 11740      776E6400 
 11741              	.LASF67:
 11742 0078 736F5F6F 		.ascii	"so_options\000"
 11742      7074696F 
 11742      6E7300
 11743              	.LASF36:
 11744 0083 4D454D50 		.ascii	"MEMP_SYS_TIMEOUT\000"
 11744      5F535953 
 11744      5F54494D 
 11744      454F5554 
 11744      00
 11745              	.LASF236:
 11746 0094 7463705F 		.ascii	"tcp_active_pcbs_changed\000"
 11746      61637469 
 11746      76655F70 
 11746      6362735F 
 11746      6368616E 
 11747              	.LASF117:
 11748 00ac 4C495354 		.ascii	"LISTEN\000"
 11748      454E00
 11749              	.LASF56:
 11750 00b3 73746174 		.ascii	"state\000"
 11750      6500
 11751              	.LASF184:
 11752 00b9 63736567 		.ascii	"cseg\000"
 11752      00
 11753              	.LASF23:
 11754 00be 7333325F 		.ascii	"s32_t\000"
ARM GAS  C:\Users\jenny\AppData\Local\Temp\ccAyMdWJ.s 			page 209


 11754      7400
 11755              	.LASF87:
 11756 00c4 73737468 		.ascii	"ssthresh\000"
 11756      72657368 
 11756      00
 11757              	.LASF49:
 11758 00cd 74797065 		.ascii	"type\000"
 11758      00
 11759              	.LASF202:
 11760 00d2 7463705F 		.ascii	"tcp_abandon\000"
 11760      6162616E 
 11760      646F6E00 
 11761              	.LASF263:
 11762 00de 474E5520 		.ascii	"GNU C 4.7.4 20130913 (release) [ARM/embedded-4_7-br"
 11762      4320342E 
 11762      372E3420 
 11762      32303133 
 11762      30393133 
 11763 0111 616E6368 		.ascii	"anch revision 202601]\000"
 11763      20726576 
 11763      6973696F 
 11763      6E203230 
 11763      32363031 
 11764              	.LASF126:
 11765 0127 54494D45 		.ascii	"TIME_WAIT\000"
 11765      5F574149 
 11765      5400
 11766              	.LASF162:
 11767 0131 6D656D70 		.ascii	"memp\000"
 11767      00
 11768              	.LASF266:
 11769 0136 7463705F 		.ascii	"tcp_state\000"
 11769      73746174 
 11769      6500
 11770              	.LASF70:
 11771 0140 7072696F 		.ascii	"prio\000"
 11771      00
 11772              	.LASF159:
 11773 0145 65746861 		.ascii	"etharp\000"
 11773      727000
 11774              	.LASF258:
 11775 014c 7463705F 		.ascii	"tcp_keepalive\000"
 11775      6B656570 
 11775      616C6976 
 11775      6500
 11776              	.LASF73:
 11777 015a 706F6C6C 		.ascii	"polltmr\000"
 11777      746D7200 
 11778              	.LASF227:
 11779 0162 6D73735F 		.ascii	"mss_s\000"
 11779      7300
 11780              	.LASF267:
 11781 0168 7463705F 		.ascii	"tcp_listen_pcbs_t\000"
 11781      6C697374 
 11781      656E5F70 
 11781      6362735F 
 11781      7400
ARM GAS  C:\Users\jenny\AppData\Local\Temp\ccAyMdWJ.s 			page 210


 11782              	.LASF212:
 11783 017a 7463705F 		.ascii	"tcp_new\000"
 11783      6E657700 
 11784              	.LASF221:
 11785 0182 7463705F 		.ascii	"tcp_fasttmr\000"
 11785      66617374 
 11785      746D7200 
 11786              	.LASF167:
 11787 018e 69706164 		.ascii	"ipaddr\000"
 11787      647200
 11788              	.LASF10:
 11789 0195 6C6F6E67 		.ascii	"long int\000"
 11789      20696E74 
 11789      00
 11790              	.LASF268:
 11791 019e 7463705F 		.ascii	"tcp_init\000"
 11791      696E6974 
 11791      00
 11792              	.LASF225:
 11793 01a7 7463705F 		.ascii	"tcp_eff_send_mss\000"
 11793      6566665F 
 11793      73656E64 
 11793      5F6D7373 
 11793      00
 11794              	.LASF182:
 11795 01b8 7463705F 		.ascii	"tcp_setprio\000"
 11795      73657470 
 11795      72696F00 
 11796              	.LASF120:
 11797 01c4 45535441 		.ascii	"ESTABLISHED\000"
 11797      424C4953 
 11797      48454400 
 11798              	.LASF177:
 11799 01d0 6E65775F 		.ascii	"new_rcv_ann_wnd\000"
 11799      7263765F 
 11799      616E6E5F 
 11799      776E6400 
 11800              	.LASF164:
 11801 01e0 7463705F 		.ascii	"tcp_next_iss\000"
 11801      6E657874 
 11801      5F697373 
 11801      00
 11802              	.LASF232:
 11803 01ed 7463705F 		.ascii	"tcp_port\000"
 11803      706F7274 
 11803      00
 11804              	.LASF150:
 11805 01f6 61766169 		.ascii	"avail\000"
 11805      6C00
 11806              	.LASF112:
 11807 01fc 7463705F 		.ascii	"tcp_sent_fn\000"
 11807      73656E74 
 11807      5F666E00 
 11808              	.LASF55:
 11809 0208 6C696E6B 		.ascii	"linkoutput\000"
 11809      6F757470 
 11809      757400
ARM GAS  C:\Users\jenny\AppData\Local\Temp\ccAyMdWJ.s 			page 211


 11810              	.LASF173:
 11811 0213 6261636B 		.ascii	"backlog\000"
 11811      6C6F6700 
 11812              	.LASF57:
 11813 021b 68776164 		.ascii	"hwaddr_len\000"
 11813      64725F6C 
 11813      656E00
 11814              	.LASF38:
 11815 0226 4D454D50 		.ascii	"MEMP_PBUF_POOL\000"
 11815      5F504255 
 11815      465F504F 
 11815      4F4C00
 11816              	.LASF1:
 11817 0235 7369676E 		.ascii	"signed char\000"
 11817      65642063 
 11817      68617200 
 11818              	.LASF3:
 11819 0241 75696E74 		.ascii	"uint8_t\000"
 11819      385F7400 
 11820              	.LASF110:
 11821 0249 6B656570 		.ascii	"keep_cnt_sent\000"
 11821      5F636E74 
 11821      5F73656E 
 11821      7400
 11822              	.LASF65:
 11823 0257 6C6F6361 		.ascii	"local_ip\000"
 11823      6C5F6970 
 11823      00
 11824              	.LASF241:
 11825 0260 7463705F 		.ascii	"tcp_tmp_pcb\000"
 11825      746D705F 
 11825      70636200 
 11826              	.LASF4:
 11827 026c 756E7369 		.ascii	"unsigned char\000"
 11827      676E6564 
 11827      20636861 
 11827      7200
 11828              	.LASF143:
 11829 027a 6C656E65 		.ascii	"lenerr\000"
 11829      727200
 11830              	.LASF129:
 11831 0281 7463705F 		.ascii	"tcp_pcb_listen\000"
 11831      7063625F 
 11831      6C697374 
 11831      656E00
 11832              	.LASF255:
 11833 0290 7463705F 		.ascii	"tcp_rst\000"
 11833      72737400 
 11834              	.LASF176:
 11835 0298 6E65775F 		.ascii	"new_right_edge\000"
 11835      72696768 
 11835      745F6564 
 11835      676500
 11836              	.LASF32:
 11837 02a7 4D454D50 		.ascii	"MEMP_NETBUF\000"
 11837      5F4E4554 
 11837      42554600 
ARM GAS  C:\Users\jenny\AppData\Local\Temp\ccAyMdWJ.s 			page 212


 11838              	.LASF261:
 11839 02b3 69705F72 		.ascii	"ip_route\000"
 11839      6F757465 
 11839      00
 11840              	.LASF141:
 11841 02bc 64726F70 		.ascii	"drop\000"
 11841      00
 11842              	.LASF199:
 11843 02c1 6572725F 		.ascii	"err_arg\000"
 11843      61726700 
 11844              	.LASF15:
 11845 02c9 5F426F6F 		.ascii	"_Bool\000"
 11845      6C00
 11846              	.LASF121:
 11847 02cf 46494E5F 		.ascii	"FIN_WAIT_1\000"
 11847      57414954 
 11847      5F3100
 11848              	.LASF122:
 11849 02da 46494E5F 		.ascii	"FIN_WAIT_2\000"
 11849      57414954 
 11849      5F3200
 11850              	.LASF250:
 11851 02e5 7463705F 		.ascii	"tcp_pcb_purge\000"
 11851      7063625F 
 11851      70757267 
 11851      6500
 11852              	.LASF248:
 11853 02f3 706F7274 		.ascii	"port_halt\000"
 11853      5F68616C 
 11853      7400
 11854              	.LASF118:
 11855 02fd 53594E5F 		.ascii	"SYN_SENT\000"
 11855      53454E54 
 11855      00
 11856              	.LASF249:
 11857 0306 6D656D70 		.ascii	"memp_malloc\000"
 11857      5F6D616C 
 11857      6C6F6300 
 11858              	.LASF166:
 11859 0312 7463705F 		.ascii	"tcp_new_port\000"
 11859      6E65775F 
 11859      706F7274 
 11859      00
 11860              	.LASF17:
 11861 031f 63686172 		.ascii	"char\000"
 11861      00
 11862              	.LASF54:
 11863 0324 6F757470 		.ascii	"output\000"
 11863      757400
 11864              	.LASF128:
 11865 032b 74637068 		.ascii	"tcphdr\000"
 11865      647200
 11866              	.LASF44:
 11867 0332 70627566 		.ascii	"pbuf\000"
 11867      00
 11868              	.LASF229:
 11869 0337 7463705F 		.ascii	"tcp_connect\000"
ARM GAS  C:\Users\jenny\AppData\Local\Temp\ccAyMdWJ.s 			page 213


 11869      636F6E6E 
 11869      65637400 
 11870              	.LASF25:
 11871 0343 4D454D50 		.ascii	"MEMP_RAW_PCB\000"
 11871      5F524157 
 11871      5F504342 
 11871      00
 11872              	.LASF244:
 11873 0350 7463705F 		.ascii	"tcp_backoff\000"
 11873      6261636B 
 11873      6F666600 
 11874              	.LASF71:
 11875 035c 6C6F6361 		.ascii	"local_port\000"
 11875      6C5F706F 
 11875      727400
 11876              	.LASF50:
 11877 0367 666C6167 		.ascii	"flags\000"
 11877      7300
 11878              	.LASF64:
 11879 036d 7463705F 		.ascii	"tcp_pcb\000"
 11879      70636200 
 11880              	.LASF24:
 11881 0375 6D656D5F 		.ascii	"mem_size_t\000"
 11881      73697A65 
 11881      5F7400
 11882              	.LASF223:
 11883 0380 7463705F 		.ascii	"tcp_fasttmr_start\000"
 11883      66617374 
 11883      746D725F 
 11883      73746172 
 11883      7400
 11884              	.LASF125:
 11885 0392 4C415354 		.ascii	"LAST_ACK\000"
 11885      5F41434B 
 11885      00
 11886              	.LASF81:
 11887 039b 72747465 		.ascii	"rttest\000"
 11887      737400
 11888              	.LASF43:
 11889 03a2 69705F61 		.ascii	"ip_addr\000"
 11889      64647200 
 11890              	.LASF233:
 11891 03aa 7463705F 		.ascii	"tcp_timer\000"
 11891      74696D65 
 11891      7200
 11892              	.LASF265:
 11893 03b4 443A5C6A 		.ascii	"D:\\jenny\\dev\\probe\\chibios\\chibios.workspace\\"
 11893      656E6E79 
 11893      5C646576 
 11893      5C70726F 
 11893      62655C63 
 11894 03e1 64656D6F 		.ascii	"demos\\ARMCM4-STM32F407-LWIP-FATFS-USB\000"
 11894      735C4152 
 11894      4D434D34 
 11894      2D53544D 
 11894      33324634 
 11895              	.LASF53:
ARM GAS  C:\Users\jenny\AppData\Local\Temp\ccAyMdWJ.s 			page 214


 11896 0407 696E7075 		.ascii	"input\000"
 11896      7400
 11897              	.LASF218:
 11898 040d 7463705F 		.ascii	"tcp_close\000"
 11898      636C6F73 
 11898      6500
 11899              	.LASF247:
 11900 0417 7463705F 		.ascii	"tcp_timer_needed\000"
 11900      74696D65 
 11900      725F6E65 
 11900      65646564 
 11900      00
 11901              	.LASF91:
 11902 0428 736E645F 		.ascii	"snd_lbb\000"
 11902      6C626200 
 11903              	.LASF148:
 11904 0430 63616368 		.ascii	"cachehit\000"
 11904      65686974 
 11904      00
 11905              	.LASF144:
 11906 0439 6D656D65 		.ascii	"memerr\000"
 11906      727200
 11907              	.LASF228:
 11908 0440 6F757469 		.ascii	"outif\000"
 11908      6600
 11909              	.LASF157:
 11910 0446 73746174 		.ascii	"stats_\000"
 11910      735F00
 11911              	.LASF34:
 11912 044d 4D454D50 		.ascii	"MEMP_TCPIP_MSG_API\000"
 11912      5F544350 
 11912      49505F4D 
 11912      53475F41 
 11912      504900
 11913              	.LASF33:
 11914 0460 4D454D50 		.ascii	"MEMP_NETCONN\000"
 11914      5F4E4554 
 11914      434F4E4E 
 11914      00
 11915              	.LASF189:
 11916 046d 7463705F 		.ascii	"tcp_accept\000"
 11916      61636365 
 11916      707400
 11917              	.LASF123:
 11918 0478 434C4F53 		.ascii	"CLOSE_WAIT\000"
 11918      455F5741 
 11918      495400
 11919              	.LASF269:
 11920 0483 7463705F 		.ascii	"tcp_slowtmr_start\000"
 11920      736C6F77 
 11920      746D725F 
 11920      73746172 
 11920      7400
 11921              	.LASF79:
 11922 0495 7263765F 		.ascii	"rcv_ann_right_edge\000"
 11922      616E6E5F 
 11922      72696768 
ARM GAS  C:\Users\jenny\AppData\Local\Temp\ccAyMdWJ.s 			page 215


 11922      745F6564 
 11922      676500
 11923              	.LASF82:
 11924 04a8 72747365 		.ascii	"rtseq\000"
 11924      7100
 11925              	.LASF172:
 11926 04ae 7463705F 		.ascii	"tcp_listen_with_backlog\000"
 11926      6C697374 
 11926      656E5F77 
 11926      6974685F 
 11926      6261636B 
 11927              	.LASF75:
 11928 04c6 6C617374 		.ascii	"last_timer\000"
 11928      5F74696D 
 11928      657200
 11929              	.LASF186:
 11930 04d1 7463705F 		.ascii	"tcp_recv\000"
 11930      72656376 
 11930      00
 11931              	.LASF256:
 11932 04da 7463705F 		.ascii	"tcp_zero_window_probe\000"
 11932      7A65726F 
 11932      5F77696E 
 11932      646F775F 
 11932      70726F62 
 11933              	.LASF213:
 11934 04f0 7463705F 		.ascii	"tcp_close_shutdown\000"
 11934      636C6F73 
 11934      655F7368 
 11934      7574646F 
 11934      776E00
 11935              	.LASF12:
 11936 0503 6C6F6E67 		.ascii	"long unsigned int\000"
 11936      20756E73 
 11936      69676E65 
 11936      6420696E 
 11936      7400
 11937              	.LASF51:
 11938 0515 6E657469 		.ascii	"netif\000"
 11938      6600
 11939              	.LASF180:
 11940 051b 7463705F 		.ascii	"tcp_seg_free\000"
 11940      7365675F 
 11940      66726565 
 11940      00
 11941              	.LASF257:
 11942 0528 7463705F 		.ascii	"tcp_rexmit_rto\000"
 11942      7265786D 
 11942      69745F72 
 11942      746F00
 11943              	.LASF58:
 11944 0537 68776164 		.ascii	"hwaddr\000"
 11944      647200
 11945              	.LASF158:
 11946 053e 6C696E6B 		.ascii	"link\000"
 11946      00
 11947              	.LASF113:
ARM GAS  C:\Users\jenny\AppData\Local\Temp\ccAyMdWJ.s 			page 216


 11948 0543 7463705F 		.ascii	"tcp_poll_fn\000"
 11948      706F6C6C 
 11948      5F666E00 
 11949              	.LASF179:
 11950 054f 7463705F 		.ascii	"tcp_recved\000"
 11950      72656376 
 11950      656400
 11951              	.LASF224:
 11952 055a 7463705F 		.ascii	"tcp_tmr\000"
 11952      746D7200 
 11953              	.LASF137:
 11954 0562 6C697374 		.ascii	"listen_pcbs\000"
 11954      656E5F70 
 11954      63627300 
 11955              	.LASF246:
 11956 056e 7463705F 		.ascii	"tcp_pcb_lists\000"
 11956      7063625F 
 11956      6C697374 
 11956      7300
 11957              	.LASF252:
 11958 057c 7463705F 		.ascii	"tcp_output\000"
 11958      6F757470 
 11958      757400
 11959              	.LASF47:
 11960 0587 7061796C 		.ascii	"payload\000"
 11960      6F616400 
 11961              	.LASF219:
 11962 058f 7463705F 		.ascii	"tcp_process_refused_data\000"
 11962      70726F63 
 11962      6573735F 
 11962      72656675 
 11962      7365645F 
 11963              	.LASF83:
 11964 05a8 6E727478 		.ascii	"nrtx\000"
 11964      00
 11965              	.LASF140:
 11966 05ad 786D6974 		.ascii	"xmit\000"
 11966      00
 11967              	.LASF85:
 11968 05b2 6C617374 		.ascii	"lastack\000"
 11968      61636B00 
 11969              	.LASF88:
 11970 05ba 736E645F 		.ascii	"snd_nxt\000"
 11970      6E787400 
 11971              	.LASF174:
 11972 05c2 6C706362 		.ascii	"lpcb\000"
 11972      00
 11973              	.LASF234:
 11974 05c7 7463705F 		.ascii	"tcp_timer_ctr\000"
 11974      74696D65 
 11974      725F6374 
 11974      7200
 11975              	.LASF237:
 11976 05d5 7463705F 		.ascii	"tcp_bound_pcbs\000"
 11976      626F756E 
 11976      645F7063 
 11976      627300
ARM GAS  C:\Users\jenny\AppData\Local\Temp\ccAyMdWJ.s 			page 217


 11977              	.LASF254:
 11978 05e4 70627566 		.ascii	"pbuf_ref\000"
 11978      5F726566 
 11978      00
 11979              	.LASF102:
 11980 05ed 73656E74 		.ascii	"sent\000"
 11980      00
 11981              	.LASF13:
 11982 05f2 6C6F6E67 		.ascii	"long long int\000"
 11982      206C6F6E 
 11982      6720696E 
 11982      7400
 11983              	.LASF239:
 11984 0600 7463705F 		.ascii	"tcp_active_pcbs\000"
 11984      61637469 
 11984      76655F70 
 11984      63627300 
 11985              	.LASF235:
 11986 0610 7463705F 		.ascii	"tcp_ticks\000"
 11986      7469636B 
 11986      7300
 11987              	.LASF52:
 11988 061a 6E65746D 		.ascii	"netmask\000"
 11988      61736B00 
 11989              	.LASF138:
 11990 0622 70636273 		.ascii	"pcbs\000"
 11990      00
 11991              	.LASF220:
 11992 0627 72656675 		.ascii	"refused_flags\000"
 11992      7365645F 
 11992      666C6167 
 11992      7300
 11993              	.LASF132:
 11994 0635 7365716E 		.ascii	"seqno\000"
 11994      6F00
 11995              	.LASF155:
 11996 063b 6D757465 		.ascii	"mutex\000"
 11996      7800
 11997              	.LASF74:
 11998 0641 706F6C6C 		.ascii	"pollinterval\000"
 11998      696E7465 
 11998      7276616C 
 11998      00
 11999              	.LASF153:
 12000 064e 73746174 		.ascii	"stats_syselem\000"
 12000      735F7379 
 12000      73656C65 
 12000      6D00
 12001              	.LASF139:
 12002 065c 73746174 		.ascii	"stats_proto\000"
 12002      735F7072 
 12002      6F746F00 
 12003              	.LASF45:
 12004 0668 61646472 		.ascii	"addr\000"
 12004      00
 12005              	.LASF187:
 12006 066d 7463705F 		.ascii	"tcp_sent\000"
ARM GAS  C:\Users\jenny\AppData\Local\Temp\ccAyMdWJ.s 			page 218


 12006      73656E74 
 12006      00
 12007              	.LASF0:
 12008 0676 756E7369 		.ascii	"unsigned int\000"
 12008      676E6564 
 12008      20696E74 
 12008      00
 12009              	.LASF160:
 12010 0683 69705F66 		.ascii	"ip_frag\000"
 12010      72616700 
 12011              	.LASF20:
 12012 068b 7531365F 		.ascii	"u16_t\000"
 12012      7400
 12013              	.LASF205:
 12014 0691 7463705F 		.ascii	"tcp_abort\000"
 12014      61626F72 
 12014      7400
 12015              	.LASF93:
 12016 069b 736E645F 		.ascii	"snd_wnd_max\000"
 12016      776E645F 
 12016      6D617800 
 12017              	.LASF76:
 12018 06a7 7263765F 		.ascii	"rcv_nxt\000"
 12018      6E787400 
 12019              	.LASF226:
 12020 06af 73656E64 		.ascii	"sendmss\000"
 12020      6D737300 
 12021              	.LASF188:
 12022 06b7 7463705F 		.ascii	"tcp_err\000"
 12022      65727200 
 12023              	.LASF60:
 12024 06bf 6E657469 		.ascii	"netif_input_fn\000"
 12024      665F696E 
 12024      7075745F 
 12024      666E00
 12025              	.LASF231:
 12026 06ce 7463705F 		.ascii	"tcp_debug_state_str\000"
 12026      64656275 
 12026      675F7374 
 12026      6174655F 
 12026      73747200 
 12027              	.LASF209:
 12028 06e2 7463705F 		.ascii	"tcp_kill_prio\000"
 12028      6B696C6C 
 12028      5F707269 
 12028      6F00
 12029              	.LASF105:
 12030 06f0 706F6C6C 		.ascii	"poll\000"
 12030      00
 12031              	.LASF238:
 12032 06f5 7463705F 		.ascii	"tcp_listen_pcbs\000"
 12032      6C697374 
 12032      656E5F70 
 12032      63627300 
 12033              	.LASF62:
 12034 0705 6E657469 		.ascii	"netif_linkoutput_fn\000"
 12034      665F6C69 
ARM GAS  C:\Users\jenny\AppData\Local\Temp\ccAyMdWJ.s 			page 219


 12034      6E6B6F75 
 12034      74707574 
 12034      5F666E00 
 12035              	.LASF80:
 12036 0719 7274696D 		.ascii	"rtime\000"
 12036      6500
 12037              	.LASF119:
 12038 071f 53594E5F 		.ascii	"SYN_RCVD\000"
 12038      52435644 
 12038      00
 12039              	.LASF222:
 12040 0728 61676169 		.ascii	"again\000"
 12040      6E00
 12041              	.LASF264:
 12042 072e 2E2E2F2E 		.ascii	"../../ext/lwip/src/core/tcp.c\000"
 12042      2E2F6578 
 12042      742F6C77 
 12042      69702F73 
 12042      72632F63 
 12043              	.LASF61:
 12044 074c 6E657469 		.ascii	"netif_output_fn\000"
 12044      665F6F75 
 12044      74707574 
 12044      5F666E00 
 12045              	.LASF103:
 12046 075c 72656376 		.ascii	"recv\000"
 12046      00
 12047              	.LASF48:
 12048 0761 746F745F 		.ascii	"tot_len\000"
 12048      6C656E00 
 12049              	.LASF41:
 12050 0769 69705F61 		.ascii	"ip_addr_t\000"
 12050      6464725F 
 12050      7400
 12051              	.LASF163:
 12052 0773 7463705F 		.ascii	"tcp_recv_null\000"
 12052      72656376 
 12052      5F6E756C 
 12052      6C00
 12053              	.LASF42:
 12054 0781 6572725F 		.ascii	"err_t\000"
 12054      7400
 12055              	.LASF135:
 12056 0787 63686B73 		.ascii	"chksum\000"
 12056      756D00
 12057              	.LASF214:
 12058 078e 7273745F 		.ascii	"rst_on_unacked_data\000"
 12058      6F6E5F75 
 12058      6E61636B 
 12058      65645F64 
 12058      61746100 
 12059              	.LASF154:
 12060 07a2 73746174 		.ascii	"stats_sys\000"
 12060      735F7379 
 12060      7300
 12061              	.LASF30:
 12062 07ac 4D454D50 		.ascii	"MEMP_REASSDATA\000"
ARM GAS  C:\Users\jenny\AppData\Local\Temp\ccAyMdWJ.s 			page 220


 12062      5F524541 
 12062      53534441 
 12062      544100
 12063              	.LASF183:
 12064 07bb 7463705F 		.ascii	"tcp_seg_copy\000"
 12064      7365675F 
 12064      636F7079 
 12064      00
 12065              	.LASF198:
 12066 07c8 6572725F 		.ascii	"err_fn\000"
 12066      666E00
 12067              	.LASF156:
 12068 07cf 6D626F78 		.ascii	"mbox\000"
 12068      00
 12069              	.LASF161:
 12070 07d4 69636D70 		.ascii	"icmp\000"
 12070      00
 12071              	.LASF31:
 12072 07d9 4D454D50 		.ascii	"MEMP_FRAG_PBUF\000"
 12072      5F465241 
 12072      475F5042 
 12072      554600
 12073              	.LASF14:
 12074 07e8 6C6F6E67 		.ascii	"long long unsigned int\000"
 12074      206C6F6E 
 12074      6720756E 
 12074      7369676E 
 12074      65642069 
 12075              	.LASF26:
 12076 07ff 4D454D50 		.ascii	"MEMP_UDP_PCB\000"
 12076      5F554450 
 12076      5F504342 
 12076      00
 12077              	.LASF72:
 12078 080c 72656D6F 		.ascii	"remote_port\000"
 12078      74655F70 
 12078      6F727400 
 12079              	.LASF29:
 12080 0818 4D454D50 		.ascii	"MEMP_TCP_SEG\000"
 12080      5F544350 
 12080      5F534547 
 12080      00
 12081              	.LASF7:
 12082 0825 75696E74 		.ascii	"uint16_t\000"
 12082      31365F74 
 12082      00
 12083              	.LASF109:
 12084 082e 70657273 		.ascii	"persist_backoff\000"
 12084      6973745F 
 12084      6261636B 
 12084      6F666600 
 12085              	.LASF35:
 12086 083e 4D454D50 		.ascii	"MEMP_TCPIP_MSG_INPKT\000"
 12086      5F544350 
 12086      49505F4D 
 12086      53475F49 
 12086      4E504B54 
ARM GAS  C:\Users\jenny\AppData\Local\Temp\ccAyMdWJ.s 			page 221


 12087              	.LASF86:
 12088 0853 63776E64 		.ascii	"cwnd\000"
 12088      00
 12089              	.LASF101:
 12090 0858 72656675 		.ascii	"refused_data\000"
 12090      7365645F 
 12090      64617461 
 12090      00
 12091              	.LASF96:
 12092 0865 736E645F 		.ascii	"snd_queuelen\000"
 12092      71756575 
 12092      656C656E 
 12092      00
 12093              	.LASF200:
 12094 0872 7463705F 		.ascii	"tcp_pcb_remove\000"
 12094      7063625F 
 12094      72656D6F 
 12094      766500
 12095              	.LASF152:
 12096 0881 696C6C65 		.ascii	"illegal\000"
 12096      67616C00 
 12097              	.LASF194:
 12098 0889 6566665F 		.ascii	"eff_wnd\000"
 12098      776E6400 
 12099              	.LASF251:
 12100 0891 6D656D70 		.ascii	"memp_free\000"
 12100      5F667265 
 12100      6500
 12101              	.LASF147:
 12102 089b 6F707465 		.ascii	"opterr\000"
 12102      727200
 12103              	.LASF210:
 12104 08a2 6D707269 		.ascii	"mprio\000"
 12104      6F00
 12105              	.LASF130:
 12106 08a8 7463705F 		.ascii	"tcp_hdr\000"
 12106      68647200 
 12107              	.LASF259:
 12108 08b0 6D656D73 		.ascii	"memset\000"
 12108      657400
 12109              	.LASF142:
 12110 08b7 63686B65 		.ascii	"chkerr\000"
 12110      727200
 12111              	.LASF98:
 12112 08be 756E7365 		.ascii	"unsent\000"
 12112      6E7400
 12113              	.LASF97:
 12114 08c5 756E7365 		.ascii	"unsent_oversize\000"
 12114      6E745F6F 
 12114      76657273 
 12114      697A6500 
 12115              	.LASF253:
 12116 08d5 70627566 		.ascii	"pbuf_free\000"
 12116      5F667265 
 12116      6500
 12117              	.LASF243:
 12118 08df 7463705F 		.ascii	"tcp_state_str\000"
ARM GAS  C:\Users\jenny\AppData\Local\Temp\ccAyMdWJ.s 			page 222


 12118      73746174 
 12118      655F7374 
 12118      7200
 12119              	.LASF131:
 12120 08ed 64657374 		.ascii	"dest\000"
 12120      00
 12121              	.LASF39:
 12122 08f2 4D454D50 		.ascii	"MEMP_MAX\000"
 12122      5F4D4158 
 12122      00
 12123              	.LASF178:
 12124 08fb 776E645F 		.ascii	"wnd_inflation\000"
 12124      696E666C 
 12124      6174696F 
 12124      6E00
 12125              	.LASF171:
 12126 0909 7463705F 		.ascii	"tcp_bind\000"
 12126      62696E64 
 12126      00
 12127              	.LASF66:
 12128 0912 72656D6F 		.ascii	"remote_ip\000"
 12128      74655F69 
 12128      7000
 12129              	.LASF115:
 12130 091c 7463705F 		.ascii	"tcp_connected_fn\000"
 12130      636F6E6E 
 12130      65637465 
 12130      645F666E 
 12130      00
 12131              	.LASF22:
 12132 092d 7533325F 		.ascii	"u32_t\000"
 12132      7400
 12133              	.LASF133:
 12134 0933 61636B6E 		.ascii	"ackno\000"
 12134      6F00
 12135              	.LASF185:
 12136 0939 7463705F 		.ascii	"tcp_arg\000"
 12136      61726700 
 12137              	.LASF260:
 12138 0941 7463705F 		.ascii	"tcp_send_fin\000"
 12138      73656E64 
 12138      5F66696E 
 12138      00
 12139              	.LASF208:
 12140 094e 7463705F 		.ascii	"tcp_kill_timewait\000"
 12140      6B696C6C 
 12140      5F74696D 
 12140      65776169 
 12140      7400
 12141              	.LASF191:
 12142 0960 696E7465 		.ascii	"interval\000"
 12142      7276616C 
 12142      00
 12143              	.LASF108:
 12144 0969 70657273 		.ascii	"persist_cnt\000"
 12144      6973745F 
 12144      636E7400 
ARM GAS  C:\Users\jenny\AppData\Local\Temp\ccAyMdWJ.s 			page 223


 12145              	.LASF203:
 12146 0975 72657365 		.ascii	"reset\000"
 12146      7400
 12147              	.LASF230:
 12148 097b 6F6C645F 		.ascii	"old_local_port\000"
 12148      6C6F6361 
 12148      6C5F706F 
 12148      727400
 12149              	.LASF149:
 12150 098a 73746174 		.ascii	"stats_mem\000"
 12150      735F6D65 
 12150      6D00
 12151              	.LASF134:
 12152 0994 5F686472 		.ascii	"_hdrlen_rsvd_flags\000"
 12152      6C656E5F 
 12152      72737664 
 12152      5F666C61 
 12152      677300
 12153              	.LASF204:
 12154 09a7 65727266 		.ascii	"errf_arg\000"
 12154      5F617267 
 12154      00
 12155              	.LASF59:
 12156 09b0 6E616D65 		.ascii	"name\000"
 12156      00
 12157              	.LASF168:
 12158 09b5 706F7274 		.ascii	"port\000"
 12158      00
 12159              	.LASF37:
 12160 09ba 4D454D50 		.ascii	"MEMP_PBUF\000"
 12160      5F504255 
 12160      4600
 12161              	.LASF94:
 12162 09c4 61636B65 		.ascii	"acked\000"
 12162      6400
 12163              	.LASF107:
 12164 09ca 6B656570 		.ascii	"keep_idle\000"
 12164      5F69646C 
 12164      6500
 12165              	.LASF262:
 12166 09d4 7463705F 		.ascii	"tcp_enqueue_flags\000"
 12166      656E7175 
 12166      6575655F 
 12166      666C6167 
 12166      7300
 12167              	.LASF6:
 12168 09e6 73686F72 		.ascii	"short int\000"
 12168      7420696E 
 12168      7400
 12169              	.LASF242:
 12170 09f0 6C776970 		.ascii	"lwip_stats\000"
 12170      5F737461 
 12170      747300
 12171              	.LASF99:
 12172 09fb 756E6163 		.ascii	"unacked\000"
 12172      6B656400 
 12173              	.LASF197:
ARM GAS  C:\Users\jenny\AppData\Local\Temp\ccAyMdWJ.s 			page 224


 12174 0a03 70636232 		.ascii	"pcb2\000"
 12174      00
 12175              	.LASF5:
 12176 0a08 696E7431 		.ascii	"int16_t\000"
 12176      365F7400 
 12177              	.LASF68:
 12178 0a10 63616C6C 		.ascii	"callback_arg\000"
 12178      6261636B 
 12178      5F617267 
 12178      00
 12179              	.LASF106:
 12180 0a1d 65727266 		.ascii	"errf\000"
 12180      00
 12181              	.LASF69:
 12182 0a22 61636365 		.ascii	"accept\000"
 12182      707400
 12183              	.LASF114:
 12184 0a29 7463705F 		.ascii	"tcp_err_fn\000"
 12184      6572725F 
 12184      666E00
 12185              	.LASF111:
 12186 0a34 7463705F 		.ascii	"tcp_recv_fn\000"
 12186      72656376 
 12186      5F666E00 
 12187              	.LASF89:
 12188 0a40 736E645F 		.ascii	"snd_wl1\000"
 12188      776C3100 
 12189              	.LASF90:
 12190 0a48 736E645F 		.ascii	"snd_wl2\000"
 12190      776C3200 
 12191              	.LASF116:
 12192 0a50 434C4F53 		.ascii	"CLOSED\000"
 12192      454400
 12193              	.LASF84:
 12194 0a57 64757061 		.ascii	"dupacks\000"
 12194      636B7300 
 12195              	.LASF215:
 12196 0a5f 7463705F 		.ascii	"tcp_shutdown\000"
 12196      73687574 
 12196      646F776E 
 12196      00
 12197              	.LASF206:
 12198 0a6c 696E6163 		.ascii	"inactive\000"
 12198      74697665 
 12198      00
 12199              	.LASF21:
 12200 0a75 7331365F 		.ascii	"s16_t\000"
 12200      7400
 12201              	.LASF195:
 12202 0a7b 7063625F 		.ascii	"pcb_remove\000"
 12202      72656D6F 
 12202      766500
 12203              	.LASF216:
 12204 0a86 73687574 		.ascii	"shut_rx\000"
 12204      5F727800 
 12205              	.LASF136:
 12206 0a8e 75726770 		.ascii	"urgp\000"
ARM GAS  C:\Users\jenny\AppData\Local\Temp\ccAyMdWJ.s 			page 225


 12206      00
 12207              	.LASF11:
 12208 0a93 75696E74 		.ascii	"uint32_t\000"
 12208      33325F74 
 12208      00
 12209              	.LASF211:
 12210 0a9c 7463705F 		.ascii	"tcp_alloc\000"
 12210      616C6C6F 
 12210      6300
 12211              	.LASF175:
 12212 0aa6 7463705F 		.ascii	"tcp_update_rcv_ann_wnd\000"
 12212      75706461 
 12212      74655F72 
 12212      63765F61 
 12212      6E6E5F77 
 12213              	.LASF196:
 12214 0abd 7063625F 		.ascii	"pcb_reset\000"
 12214      72657365 
 12214      7400
 12215              	.LASF240:
 12216 0ac7 7463705F 		.ascii	"tcp_tw_pcbs\000"
 12216      74775F70 
 12216      63627300 
 12217              	.LASF8:
 12218 0ad3 73686F72 		.ascii	"short unsigned int\000"
 12218      7420756E 
 12218      7369676E 
 12218      65642069 
 12218      6E7400
 12219              	.LASF19:
 12220 0ae6 73385F74 		.ascii	"s8_t\000"
 12220      00
 12221              	.LASF170:
 12222 0aeb 63706362 		.ascii	"cpcb\000"
 12222      00
 12223              	.LASF40:
 12224 0af0 6D656D70 		.ascii	"memp_t\000"
 12224      5F7400
 12225              	.LASF18:
 12226 0af7 75385F74 		.ascii	"u8_t\000"
 12226      00
 12227              	.LASF169:
 12228 0afc 6D61785F 		.ascii	"max_pcb_list\000"
 12228      7063625F 
 12228      6C697374 
 12228      00
 12229              	.LASF124:
 12230 0b09 434C4F53 		.ascii	"CLOSING\000"
 12230      494E4700 
 12231              	.LASF95:
 12232 0b11 736E645F 		.ascii	"snd_buf\000"
 12232      62756600 
 12233              	.LASF92:
 12234 0b19 736E645F 		.ascii	"snd_wnd\000"
 12234      776E6400 
 12235              	.LASF217:
 12236 0b21 73687574 		.ascii	"shut_tx\000"
ARM GAS  C:\Users\jenny\AppData\Local\Temp\ccAyMdWJ.s 			page 226


 12236      5F747800 
 12237              	.LASF201:
 12238 0b29 7063626C 		.ascii	"pcblist\000"
 12238      69737400 
 12239              	.LASF63:
 12240 0b31 7463705F 		.ascii	"tcp_accept_fn\000"
 12240      61636365 
 12240      70745F66 
 12240      6E00
 12241              	.LASF145:
 12242 0b3f 72746572 		.ascii	"rterr\000"
 12242      7200
 12243              	.LASF46:
 12244 0b45 6E657874 		.ascii	"next\000"
 12244      00
 12245              	.LASF192:
 12246 0b4a 7463705F 		.ascii	"tcp_slowtmr\000"
 12246      736C6F77 
 12246      746D7200 
 12247              	.LASF127:
 12248 0b56 7463705F 		.ascii	"tcp_seg\000"
 12248      73656700 
 12249              	.LASF104:
 12250 0b5e 636F6E6E 		.ascii	"connected\000"
 12250      65637465 
 12250      6400
 12251              	.LASF28:
 12252 0b68 4D454D50 		.ascii	"MEMP_TCP_PCB_LISTEN\000"
 12252      5F544350 
 12252      5F504342 
 12252      5F4C4953 
 12252      54454E00 
 12253              	.LASF193:
 12254 0b7c 70726576 		.ascii	"prev\000"
 12254      00
 12255              	.LASF190:
 12256 0b81 7463705F 		.ascii	"tcp_poll\000"
 12256      706F6C6C 
 12256      00
 12257              	.LASF100:
 12258 0b8a 6F6F7365 		.ascii	"ooseq\000"
 12258      7100
 12259              	.LASF207:
 12260 0b90 696E6163 		.ascii	"inactivity\000"
 12260      74697669 
 12260      747900
 12261              		.ident	"GCC: (GNU Tools for ARM Embedded Processors) 4.7.4 20130913 (release) [ARM/embedded-4_7-br
ARM GAS  C:\Users\jenny\AppData\Local\Temp\ccAyMdWJ.s 			page 227


DEFINED SYMBOLS
                            *ABS*:00000000 tcp.c
C:\Users\jenny\AppData\Local\Temp\ccAyMdWJ.s:20     .text.tcp_accept_null:00000000 $t
C:\Users\jenny\AppData\Local\Temp\ccAyMdWJ.s:25     .text.tcp_accept_null:00000000 tcp_accept_null
C:\Users\jenny\AppData\Local\Temp\ccAyMdWJ.s:42     .text.tcp_new_port:00000000 $t
C:\Users\jenny\AppData\Local\Temp\ccAyMdWJ.s:47     .text.tcp_new_port:00000000 tcp_new_port
C:\Users\jenny\AppData\Local\Temp\ccAyMdWJ.s:123    .text.tcp_new_port:0000004c $d
C:\Users\jenny\AppData\Local\Temp\ccAyMdWJ.s:130    .text.tcp_init:00000000 $t
C:\Users\jenny\AppData\Local\Temp\ccAyMdWJ.s:136    .text.tcp_init:00000000 tcp_init
C:\Users\jenny\AppData\Local\Temp\ccAyMdWJ.s:148    .text.tcp_bind:00000000 $t
C:\Users\jenny\AppData\Local\Temp\ccAyMdWJ.s:154    .text.tcp_bind:00000000 tcp_bind
C:\Users\jenny\AppData\Local\Temp\ccAyMdWJ.s:273    .text.tcp_bind:00000074 $d
C:\Users\jenny\AppData\Local\Temp\ccAyMdWJ.s:279    .text.tcp_listen_with_backlog:00000000 $t
C:\Users\jenny\AppData\Local\Temp\ccAyMdWJ.s:285    .text.tcp_listen_with_backlog:00000000 tcp_listen_with_backlog
C:\Users\jenny\AppData\Local\Temp\ccAyMdWJ.s:431    .text.tcp_listen_with_backlog:000000a0 $d
C:\Users\jenny\AppData\Local\Temp\ccAyMdWJ.s:439    .text.tcp_update_rcv_ann_wnd:00000000 $t
C:\Users\jenny\AppData\Local\Temp\ccAyMdWJ.s:445    .text.tcp_update_rcv_ann_wnd:00000000 tcp_update_rcv_ann_wnd
C:\Users\jenny\AppData\Local\Temp\ccAyMdWJ.s:523    .text.tcp_recved:00000000 $t
C:\Users\jenny\AppData\Local\Temp\ccAyMdWJ.s:529    .text.tcp_recved:00000000 tcp_recved
C:\Users\jenny\AppData\Local\Temp\ccAyMdWJ.s:609    .text.tcp_seg_free:00000000 $t
C:\Users\jenny\AppData\Local\Temp\ccAyMdWJ.s:615    .text.tcp_seg_free:00000000 tcp_seg_free
C:\Users\jenny\AppData\Local\Temp\ccAyMdWJ.s:652    .text.tcp_segs_free:00000000 $t
C:\Users\jenny\AppData\Local\Temp\ccAyMdWJ.s:658    .text.tcp_segs_free:00000000 tcp_segs_free
C:\Users\jenny\AppData\Local\Temp\ccAyMdWJ.s:692    .text.tcp_setprio:00000000 $t
C:\Users\jenny\AppData\Local\Temp\ccAyMdWJ.s:698    .text.tcp_setprio:00000000 tcp_setprio
C:\Users\jenny\AppData\Local\Temp\ccAyMdWJ.s:713    .text.tcp_seg_copy:00000000 $t
C:\Users\jenny\AppData\Local\Temp\ccAyMdWJ.s:719    .text.tcp_seg_copy:00000000 tcp_seg_copy
C:\Users\jenny\AppData\Local\Temp\ccAyMdWJ.s:765    .text.tcp_arg:00000000 $t
C:\Users\jenny\AppData\Local\Temp\ccAyMdWJ.s:771    .text.tcp_arg:00000000 tcp_arg
C:\Users\jenny\AppData\Local\Temp\ccAyMdWJ.s:786    .text.tcp_recv:00000000 $t
C:\Users\jenny\AppData\Local\Temp\ccAyMdWJ.s:792    .text.tcp_recv:00000000 tcp_recv
C:\Users\jenny\AppData\Local\Temp\ccAyMdWJ.s:833    .text.tcp_sent:00000000 $t
C:\Users\jenny\AppData\Local\Temp\ccAyMdWJ.s:839    .text.tcp_sent:00000000 tcp_sent
C:\Users\jenny\AppData\Local\Temp\ccAyMdWJ.s:880    .text.tcp_err:00000000 $t
C:\Users\jenny\AppData\Local\Temp\ccAyMdWJ.s:886    .text.tcp_err:00000000 tcp_err
C:\Users\jenny\AppData\Local\Temp\ccAyMdWJ.s:927    .text.tcp_accept:00000000 $t
C:\Users\jenny\AppData\Local\Temp\ccAyMdWJ.s:933    .text.tcp_accept:00000000 tcp_accept
C:\Users\jenny\AppData\Local\Temp\ccAyMdWJ.s:948    .text.tcp_poll:00000000 $t
C:\Users\jenny\AppData\Local\Temp\ccAyMdWJ.s:954    .text.tcp_poll:00000000 tcp_poll
C:\Users\jenny\AppData\Local\Temp\ccAyMdWJ.s:999    .text.tcp_pcb_purge:00000000 $t
C:\Users\jenny\AppData\Local\Temp\ccAyMdWJ.s:1005   .text.tcp_pcb_purge:00000000 tcp_pcb_purge
C:\Users\jenny\AppData\Local\Temp\ccAyMdWJ.s:1080   .text.tcp_slowtmr:00000000 $t
C:\Users\jenny\AppData\Local\Temp\ccAyMdWJ.s:1086   .text.tcp_slowtmr:00000000 tcp_slowtmr
C:\Users\jenny\AppData\Local\Temp\ccAyMdWJ.s:3607   .bss.tcp_active_pcbs:00000000 .LANCHOR7
C:\Users\jenny\AppData\Local\Temp\ccAyMdWJ.s:3673   .rodata.tcp_persist_backoff:00000000 .LANCHOR9
C:\Users\jenny\AppData\Local\Temp\ccAyMdWJ.s:3574   .rodata.tcp_backoff:00000000 .LANCHOR10
C:\Users\jenny\AppData\Local\Temp\ccAyMdWJ.s:1589   .text.tcp_slowtmr:00000318 $d
C:\Users\jenny\AppData\Local\Temp\ccAyMdWJ.s:1596   .text.tcp_slowtmr:00000328 $t
C:\Users\jenny\AppData\Local\Temp\ccAyMdWJ.s:1773   .text.tcp_pcb_remove:00000000 $t
C:\Users\jenny\AppData\Local\Temp\ccAyMdWJ.s:1779   .text.tcp_pcb_remove:00000000 tcp_pcb_remove
C:\Users\jenny\AppData\Local\Temp\ccAyMdWJ.s:1902   .text.tcp_pcb_remove:00000084 $d
C:\Users\jenny\AppData\Local\Temp\ccAyMdWJ.s:1907   .text.tcp_abandon:00000000 $t
C:\Users\jenny\AppData\Local\Temp\ccAyMdWJ.s:1913   .text.tcp_abandon:00000000 tcp_abandon
C:\Users\jenny\AppData\Local\Temp\ccAyMdWJ.s:2047   .text.tcp_abandon:00000098 $d
C:\Users\jenny\AppData\Local\Temp\ccAyMdWJ.s:2054   .text.tcp_abort:00000000 $t
C:\Users\jenny\AppData\Local\Temp\ccAyMdWJ.s:2060   .text.tcp_abort:00000000 tcp_abort
C:\Users\jenny\AppData\Local\Temp\ccAyMdWJ.s:2078   .text.tcp_alloc:00000000 $t
ARM GAS  C:\Users\jenny\AppData\Local\Temp\ccAyMdWJ.s 			page 228


C:\Users\jenny\AppData\Local\Temp\ccAyMdWJ.s:2084   .text.tcp_alloc:00000000 tcp_alloc
C:\Users\jenny\AppData\Local\Temp\ccAyMdWJ.s:2337   .text.tcp_alloc:0000012c $d
C:\Users\jenny\AppData\Local\Temp\ccAyMdWJ.s:2829   .text.tcp_recv_null:00000000 tcp_recv_null
C:\Users\jenny\AppData\Local\Temp\ccAyMdWJ.s:2348   .text.tcp_new:00000000 $t
C:\Users\jenny\AppData\Local\Temp\ccAyMdWJ.s:2354   .text.tcp_new:00000000 tcp_new
C:\Users\jenny\AppData\Local\Temp\ccAyMdWJ.s:2371   .text.tcp_close_shutdown:00000000 $t
C:\Users\jenny\AppData\Local\Temp\ccAyMdWJ.s:2376   .text.tcp_close_shutdown:00000000 tcp_close_shutdown
C:\Users\jenny\AppData\Local\Temp\ccAyMdWJ.s:2411   .text.tcp_close_shutdown:0000001a $d
C:\Users\jenny\AppData\Local\Temp\ccAyMdWJ.s:2419   .text.tcp_close_shutdown:00000022 $t
C:\Users\jenny\AppData\Local\Temp\ccAyMdWJ.s:2685   .text.tcp_close_shutdown:0000016c $d
C:\Users\jenny\AppData\Local\Temp\ccAyMdWJ.s:2695   .text.tcp_shutdown:00000000 $t
C:\Users\jenny\AppData\Local\Temp\ccAyMdWJ.s:2701   .text.tcp_shutdown:00000000 tcp_shutdown
C:\Users\jenny\AppData\Local\Temp\ccAyMdWJ.s:2790   .text.tcp_close:00000000 $t
C:\Users\jenny\AppData\Local\Temp\ccAyMdWJ.s:2796   .text.tcp_close:00000000 tcp_close
C:\Users\jenny\AppData\Local\Temp\ccAyMdWJ.s:2823   .text.tcp_recv_null:00000000 $t
C:\Users\jenny\AppData\Local\Temp\ccAyMdWJ.s:2884   .text.tcp_process_refused_data:00000000 $t
C:\Users\jenny\AppData\Local\Temp\ccAyMdWJ.s:2890   .text.tcp_process_refused_data:00000000 tcp_process_refused_data
C:\Users\jenny\AppData\Local\Temp\ccAyMdWJ.s:2999   .text.tcp_fasttmr:00000000 $t
C:\Users\jenny\AppData\Local\Temp\ccAyMdWJ.s:3005   .text.tcp_fasttmr:00000000 tcp_fasttmr
C:\Users\jenny\AppData\Local\Temp\ccAyMdWJ.s:3104   .text.tcp_fasttmr:00000064 $d
C:\Users\jenny\AppData\Local\Temp\ccAyMdWJ.s:3112   .text.tcp_tmr:00000000 $t
C:\Users\jenny\AppData\Local\Temp\ccAyMdWJ.s:3118   .text.tcp_tmr:00000000 tcp_tmr
C:\Users\jenny\AppData\Local\Temp\ccAyMdWJ.s:3150   .text.tcp_tmr:00000020 $d
C:\Users\jenny\AppData\Local\Temp\ccAyMdWJ.s:3155   .text.tcp_next_iss:00000000 $t
C:\Users\jenny\AppData\Local\Temp\ccAyMdWJ.s:3161   .text.tcp_next_iss:00000000 tcp_next_iss
C:\Users\jenny\AppData\Local\Temp\ccAyMdWJ.s:3561   .bss.tcp_ticks:00000000 .LANCHOR5
C:\Users\jenny\AppData\Local\Temp\ccAyMdWJ.s:3634   .data.iss.6034:00000000 .LANCHOR12
C:\Users\jenny\AppData\Local\Temp\ccAyMdWJ.s:3183   .text.tcp_eff_send_mss:00000000 $t
C:\Users\jenny\AppData\Local\Temp\ccAyMdWJ.s:3189   .text.tcp_eff_send_mss:00000000 tcp_eff_send_mss
C:\Users\jenny\AppData\Local\Temp\ccAyMdWJ.s:3232   .text.tcp_connect:00000000 $t
C:\Users\jenny\AppData\Local\Temp\ccAyMdWJ.s:3238   .text.tcp_connect:00000000 tcp_connect
C:\Users\jenny\AppData\Local\Temp\ccAyMdWJ.s:3480   .text.tcp_connect:00000110 $d
C:\Users\jenny\AppData\Local\Temp\ccAyMdWJ.s:3491   .text.tcp_debug_state_str:00000000 $t
C:\Users\jenny\AppData\Local\Temp\ccAyMdWJ.s:3497   .text.tcp_debug_state_str:00000000 tcp_debug_state_str
C:\Users\jenny\AppData\Local\Temp\ccAyMdWJ.s:3534   .rodata.tcp_state_str:00000000 .LANCHOR14
C:\Users\jenny\AppData\Local\Temp\ccAyMdWJ.s:3530   .bss.tcp_active_pcbs_changed:00000000 tcp_active_pcbs_changed
C:\Users\jenny\AppData\Local\Temp\ccAyMdWJ.s:3630   .bss.tcp_tmp_pcb:00000000 tcp_tmp_pcb
C:\Users\jenny\AppData\Local\Temp\ccAyMdWJ.s:3554   .rodata.tcp_pcb_lists:00000000 tcp_pcb_lists
C:\Users\jenny\AppData\Local\Temp\ccAyMdWJ.s:3623   .bss.tcp_tw_pcbs:00000000 tcp_tw_pcbs
C:\Users\jenny\AppData\Local\Temp\ccAyMdWJ.s:3610   .bss.tcp_active_pcbs:00000000 tcp_active_pcbs
C:\Users\jenny\AppData\Local\Temp\ccAyMdWJ.s:3596   .bss.tcp_listen_pcbs:00000000 tcp_listen_pcbs
C:\Users\jenny\AppData\Local\Temp\ccAyMdWJ.s:3689   .bss.tcp_bound_pcbs:00000000 tcp_bound_pcbs
C:\Users\jenny\AppData\Local\Temp\ccAyMdWJ.s:3676   .rodata.tcp_persist_backoff:00000000 tcp_persist_backoff
C:\Users\jenny\AppData\Local\Temp\ccAyMdWJ.s:3577   .rodata.tcp_backoff:00000000 tcp_backoff
C:\Users\jenny\AppData\Local\Temp\ccAyMdWJ.s:3564   .bss.tcp_ticks:00000000 tcp_ticks
C:\Users\jenny\AppData\Local\Temp\ccAyMdWJ.s:3537   .rodata.tcp_state_str:00000000 tcp_state_str
C:\Users\jenny\AppData\Local\Temp\ccAyMdWJ.s:3531   .bss.tcp_active_pcbs_changed:00000000 $d
C:\Users\jenny\AppData\Local\Temp\ccAyMdWJ.s:3533   .rodata.tcp_state_str:00000000 $d
C:\Users\jenny\AppData\Local\Temp\ccAyMdWJ.s:3550   .rodata.tcp_pcb_lists:00000000 $d
C:\Users\jenny\AppData\Local\Temp\ccAyMdWJ.s:3560   .bss.tcp_ticks:00000000 $d
C:\Users\jenny\AppData\Local\Temp\ccAyMdWJ.s:3570   .bss.tcp_timer:00000000 tcp_timer
C:\Users\jenny\AppData\Local\Temp\ccAyMdWJ.s:3571   .bss.tcp_timer:00000000 $d
C:\Users\jenny\AppData\Local\Temp\ccAyMdWJ.s:3573   .rodata.tcp_backoff:00000000 $d
C:\Users\jenny\AppData\Local\Temp\ccAyMdWJ.s:3592   .bss.tcp_listen_pcbs:00000000 $d
C:\Users\jenny\AppData\Local\Temp\ccAyMdWJ.s:3599   .data.tcp_port:00000000 $d
C:\Users\jenny\AppData\Local\Temp\ccAyMdWJ.s:3603   .data.tcp_port:00000000 tcp_port
C:\Users\jenny\AppData\Local\Temp\ccAyMdWJ.s:3606   .bss.tcp_active_pcbs:00000000 $d
ARM GAS  C:\Users\jenny\AppData\Local\Temp\ccAyMdWJ.s 			page 229


C:\Users\jenny\AppData\Local\Temp\ccAyMdWJ.s:3616   .bss.tcp_timer_ctr:00000000 tcp_timer_ctr
C:\Users\jenny\AppData\Local\Temp\ccAyMdWJ.s:3617   .bss.tcp_timer_ctr:00000000 $d
C:\Users\jenny\AppData\Local\Temp\ccAyMdWJ.s:3619   .bss.tcp_tw_pcbs:00000000 $d
C:\Users\jenny\AppData\Local\Temp\ccAyMdWJ.s:3626   .bss.tcp_tmp_pcb:00000000 $d
C:\Users\jenny\AppData\Local\Temp\ccAyMdWJ.s:3633   .data.iss.6034:00000000 $d
C:\Users\jenny\AppData\Local\Temp\ccAyMdWJ.s:3637   .data.iss.6034:00000000 iss.6034
C:\Users\jenny\AppData\Local\Temp\ccAyMdWJ.s:3640   .rodata.str1.4:00000000 $d
C:\Users\jenny\AppData\Local\Temp\ccAyMdWJ.s:3672   .rodata.tcp_persist_backoff:00000000 $d
C:\Users\jenny\AppData\Local\Temp\ccAyMdWJ.s:3685   .bss.tcp_bound_pcbs:00000000 $d
                     .debug_frame:00000010 $d
C:\Users\jenny\AppData\Local\Temp\ccAyMdWJ.s:129    .text.tcp_new_port:00000058 $t
C:\Users\jenny\AppData\Local\Temp\ccAyMdWJ.s:278    .text.tcp_bind:0000007c $t
C:\Users\jenny\AppData\Local\Temp\ccAyMdWJ.s:1906   .text.tcp_pcb_remove:00000088 $t
C:\Users\jenny\AppData\Local\Temp\ccAyMdWJ.s:2053   .text.tcp_abandon:000000a4 $t
C:\Users\jenny\AppData\Local\Temp\ccAyMdWJ.s:2347   .text.tcp_alloc:00000148 $t
C:\Users\jenny\AppData\Local\Temp\ccAyMdWJ.s:2694   .text.tcp_close_shutdown:00000184 $t
C:\Users\jenny\AppData\Local\Temp\ccAyMdWJ.s:3154   .text.tcp_tmr:00000024 $t
C:\Users\jenny\AppData\Local\Temp\ccAyMdWJ.s:3490   .text.tcp_connect:00000128 $t

UNDEFINED SYMBOLS
tcp_timer_needed
port_halt
memp_malloc
memp_free
tcp_output
pbuf_free
pbuf_ref
tcp_zero_window_probe
tcp_rexmit_rto
tcp_keepalive
tcp_rst
memset
lwip_stats
tcp_send_fin
ip_route
tcp_enqueue_flags
