ARM GAS  C:\Users\jenny\AppData\Local\Temp\ccAyMdWJ.s 			page 1


   1              		.syntax unified
   2              		.cpu cortex-m4
   3              		.eabi_attribute 27, 3
   4              		.fpu fpv4-sp-d16
   5              		.eabi_attribute 20, 1
   6              		.eabi_attribute 21, 1
   7              		.eabi_attribute 23, 3
   8              		.eabi_attribute 24, 1
   9              		.eabi_attribute 25, 1
  10              		.eabi_attribute 26, 1
  11              		.eabi_attribute 30, 2
  12              		.eabi_attribute 34, 1
  13              		.eabi_attribute 18, 4
  14              		.thumb
  15              		.file	"tcp.c"
  16              		.text
  17              	.Ltext0:
  18              		.cfi_sections	.debug_frame
  19              		.section	.text.tcp_accept_null,"ax",%progbits
  20              		.align	2
  21              		.p2align 4,,15
  22              		.thumb
  23              		.thumb_func
  24              		.type	tcp_accept_null, %function
  25              	tcp_accept_null:
  26              	.LFB15:
  27              		.file 1 "../../ext/lwip/src/core/tcp.c"
  28              		.loc 1 495 0
  29              		.cfi_startproc
  30              		@ args = 0, pretend = 0, frame = 0
  31              		@ frame_needed = 0, uses_anonymous_args = 0
  32              		@ link register save eliminated.
  33              	.LVL0:
  34              		.loc 1 501 0
  35 0000 6FF00900 		mvn	r0, #9
  36              	.LVL1:
  37 0004 7047     		bx	lr
  38              		.cfi_endproc
  39              	.LFE15:
  40              		.size	tcp_accept_null, .-tcp_accept_null
  41 0006 00BFAFF3 		.section	.text.tcp_new_port,"ax",%progbits
  41      0080AFF3 
  41      0080
  42              		.align	2
  43              		.p2align 4,,15
  44              		.thumb
  45              		.thumb_func
  46              		.type	tcp_new_port, %function
  47              	tcp_new_port:
  48              	.LFB19:
  49              		.loc 1 648 0
  50              		.cfi_startproc
  51              		@ args = 0, pretend = 0, frame = 0
  52              		@ frame_needed = 0, uses_anonymous_args = 0
  53              		@ link register save eliminated.
  54              	.LVL2:
  55 0000 F0B4     		push	{r4, r5, r6, r7}
ARM GAS  C:\Users\jenny\AppData\Local\Temp\ccAyMdWJ.s 			page 2


  56              	.LCFI0:
  57              		.cfi_def_cfa_offset 16
  58              		.cfi_offset 4, -16
  59              		.cfi_offset 5, -12
  60              		.cfi_offset 6, -8
  61              		.cfi_offset 7, -4
  62 0002 124E     		ldr	r6, .L23
  63              		.loc 1 647 0
  64 0004 124F     		ldr	r7, .L23+4
  65 0006 3088     		ldrh	r0, [r6, #0]
  66              		.loc 1 648 0
  67 0008 4FF48044 		mov	r4, #16384
  68              		.loc 1 654 0
  69 000c 4FF6FF75 		movw	r5, #65535
  70              	.LVL3:
  71              	.L3:
  72 0010 A842     		cmp	r0, r5
  73 0012 18D0     		beq	.L13
  74 0014 0130     		adds	r0, r0, #1
  75 0016 80B2     		uxth	r0, r0
  76              	.L4:
  77              	.LVL4:
  78              		.loc 1 647 0
  79 0018 0E49     		ldr	r1, .L23+8
  80              	.LVL5:
  81              	.L12:
  82              		.loc 1 659 0
  83 001a 51F8043F 		ldr	r3, [r1, #4]!
  84 001e 1B68     		ldr	r3, [r3, #0]
  85              	.LVL6:
  86 0020 13B9     		cbnz	r3, .L21
  87 0022 0BE0     		b	.L5
  88              	.L18:
  89 0024 DB68     		ldr	r3, [r3, #12]
  90              	.LVL7:
  91 0026 4BB1     		cbz	r3, .L5
  92              	.L21:
  93              		.loc 1 660 0
  94 0028 5A8B     		ldrh	r2, [r3, #26]
  95 002a 8242     		cmp	r2, r0
  96 002c FAD1     		bne	.L18
  97 002e 013C     		subs	r4, r4, #1
  98 0030 A4B2     		uxth	r4, r4
  99              		.loc 1 661 0
 100 0032 002C     		cmp	r4, #0
 101 0034 ECD1     		bne	.L3
 102 0036 3080     		strh	r0, [r6, #0]	@ movhi
 103              		.loc 1 662 0
 104 0038 2046     		mov	r0, r4
 105 003a 02E0     		b	.L10
 106              	.L5:
 107              		.loc 1 658 0
 108 003c B942     		cmp	r1, r7
 109 003e ECD1     		bne	.L12
 110 0040 3080     		strh	r0, [r6, #0]	@ movhi
 111              	.L10:
 112              		.loc 1 669 0
ARM GAS  C:\Users\jenny\AppData\Local\Temp\ccAyMdWJ.s 			page 3


 113 0042 F0BC     		pop	{r4, r5, r6, r7}
 114 0044 7047     		bx	lr
 115              	.LVL8:
 116              	.L13:
 117              		.loc 1 654 0
 118 0046 4FF44040 		mov	r0, #49152
 119 004a E5E7     		b	.L4
 120              	.L24:
 121              		.align	2
 122              	.L23:
 123 004c 00000000 		.word	.LANCHOR0
 124 0050 0C000000 		.word	.LANCHOR1+12
 125 0054 FCFFFFFF 		.word	.LANCHOR1-4
 126              		.cfi_endproc
 127              	.LFE19:
 128              		.size	tcp_new_port, .-tcp_new_port
 129 0058 AFF30080 		.section	.text.tcp_init,"ax",%progbits
 129      AFF30080 
 130              		.align	2
 131              		.p2align 4,,15
 132              		.global	tcp_init
 133              		.thumb
 134              		.thumb_func
 135              		.type	tcp_init, %function
 136              	tcp_init:
 137              	.LFB7:
 138              		.loc 1 131 0
 139              		.cfi_startproc
 140              		@ args = 0, pretend = 0, frame = 0
 141              		@ frame_needed = 0, uses_anonymous_args = 0
 142              		@ link register save eliminated.
 143 0000 7047     		bx	lr
 144              		.cfi_endproc
 145              	.LFE7:
 146              		.size	tcp_init, .-tcp_init
 147 0002 00BFAFF3 		.section	.text.tcp_bind,"ax",%progbits
 147      0080AFF3 
 147      0080AFF3 
 147      0080
 148              		.align	2
 149              		.p2align 4,,15
 150              		.global	tcp_bind
 151              		.thumb
 152              		.thumb_func
 153              		.type	tcp_bind, %function
 154              	tcp_bind:
 155              	.LFB14:
 156              		.loc 1 434 0
 157              		.cfi_startproc
 158              		@ args = 0, pretend = 0, frame = 0
 159              		@ frame_needed = 0, uses_anonymous_args = 0
 160              	.LVL9:
 161              		.loc 1 434 0
 162 0000 F8B5     		push	{r3, r4, r5, r6, r7, lr}
 163              	.LCFI1:
 164              		.cfi_def_cfa_offset 24
 165              		.cfi_offset 3, -24
ARM GAS  C:\Users\jenny\AppData\Local\Temp\ccAyMdWJ.s 			page 4


 166              		.cfi_offset 4, -20
 167              		.cfi_offset 5, -16
 168              		.cfi_offset 6, -12
 169              		.cfi_offset 7, -8
 170              		.cfi_offset 14, -4
 171              		.loc 1 439 0
 172 0002 037E     		ldrb	r3, [r0, #24]	@ zero_extendqisi2
 173              		.loc 1 434 0
 174 0004 0746     		mov	r7, r0
 175 0006 0E46     		mov	r6, r1
 176              		.loc 1 439 0
 177 0008 002B     		cmp	r3, #0
 178 000a 2ED1     		bne	.L52
 179              		.loc 1 452 0
 180 000c 32B3     		cbz	r2, .L53
 181              	.LVL10:
 182              	.L29:
 183              		.loc 1 433 0
 184 000e 1949     		ldr	r1, .L54
 185 0010 01F11000 		add	r0, r1, #16
 186              	.LVL11:
 187              	.L33:
 188              		.loc 1 461 0
 189 0014 51F8043F 		ldr	r3, [r1, #4]!
 190 0018 1B68     		ldr	r3, [r3, #0]
 191              	.LVL12:
 192 001a 13B9     		cbnz	r3, .L46
 193 001c 0EE0     		b	.L30
 194              	.L31:
 195 001e DB68     		ldr	r3, [r3, #12]
 196              	.LVL13:
 197 0020 63B1     		cbz	r3, .L30
 198              	.L46:
 199              		.loc 1 462 0
 200 0022 5C8B     		ldrh	r4, [r3, #26]
 201 0024 9442     		cmp	r4, r2
 202 0026 FAD1     		bne	.L31
 203              		.loc 1 471 0
 204 0028 1C68     		ldr	r4, [r3, #0]
 205 002a 24B1     		cbz	r4, .L39
 206              		.loc 1 471 0 is_stmt 0 discriminator 1
 207 002c 1EB1     		cbz	r6, .L39
 208              		.loc 1 472 0 is_stmt 1
 209 002e 3568     		ldr	r5, [r6, #0]
 210 0030 0DB1     		cbz	r5, .L39
 211              		.loc 1 472 0 is_stmt 0 discriminator 1
 212 0032 AC42     		cmp	r4, r5
 213 0034 F3D1     		bne	.L31
 214              	.L39:
 215              		.loc 1 474 0 is_stmt 1
 216 0036 F823     		movs	r3, #248
 217              	.LVL14:
 218              	.L28:
 219              		.loc 1 488 0
 220 0038 58B2     		sxtb	r0, r3
 221 003a F8BD     		pop	{r3, r4, r5, r6, r7, pc}
 222              	.LVL15:
ARM GAS  C:\Users\jenny\AppData\Local\Temp\ccAyMdWJ.s 			page 5


 223              	.L30:
 224              		.loc 1 460 0
 225 003c 8142     		cmp	r1, r0
 226 003e E9D1     		bne	.L33
 227              		.loc 1 481 0
 228 0040 16B1     		cbz	r6, .L34
 229              		.loc 1 481 0 is_stmt 0 discriminator 1
 230 0042 3168     		ldr	r1, [r6, #0]
 231 0044 01B1     		cbz	r1, .L34
 232              		.loc 1 482 0 is_stmt 1
 233 0046 3960     		str	r1, [r7, #0]
 234              	.L34:
 235              		.loc 1 485 0
 236 0048 0B48     		ldr	r0, .L54+4
 237              		.loc 1 484 0
 238 004a 7A83     		strh	r2, [r7, #26]	@ movhi
 239              		.loc 1 485 0
 240 004c 0268     		ldr	r2, [r0, #0]
 241              	.LVL16:
 242 004e 0760     		str	r7, [r0, #0]
 243 0050 FA60     		str	r2, [r7, #12]
 244 0052 FFF7FEFF 		bl	tcp_timer_needed
 245              	.LVL17:
 246              		.loc 1 487 0
 247 0056 0023     		movs	r3, #0
 248              		.loc 1 488 0
 249 0058 58B2     		sxtb	r0, r3
 250 005a F8BD     		pop	{r3, r4, r5, r6, r7, pc}
 251              	.LVL18:
 252              	.L53:
 253              		.loc 1 453 0
 254 005c FFF7FEFF 		bl	tcp_new_port
 255              	.LVL19:
 256              		.loc 1 454 0
 257 0060 0246     		mov	r2, r0
 258 0062 0028     		cmp	r0, #0
 259 0064 D3D1     		bne	.L29
 260              		.loc 1 455 0
 261 0066 FE23     		movs	r3, #254
 262 0068 E6E7     		b	.L28
 263              	.LVL20:
 264              	.L52:
 265              		.loc 1 439 0 discriminator 1
 266 006a FFF7FEFF 		bl	port_halt
 267              	.LVL21:
 268 006e FA23     		movs	r3, #250
 269 0070 E2E7     		b	.L28
 270              	.L55:
 271 0072 00BF     		.align	2
 272              	.L54:
 273 0074 FCFFFFFF 		.word	.LANCHOR1-4
 274 0078 00000000 		.word	.LANCHOR2
 275              		.cfi_endproc
 276              	.LFE14:
 277              		.size	tcp_bind, .-tcp_bind
 278 007c AFF30080 		.section	.text.tcp_listen_with_backlog,"ax",%progbits
 279              		.align	2
ARM GAS  C:\Users\jenny\AppData\Local\Temp\ccAyMdWJ.s 			page 6


 280              		.p2align 4,,15
 281              		.global	tcp_listen_with_backlog
 282              		.thumb
 283              		.thumb_func
 284              		.type	tcp_listen_with_backlog, %function
 285              	tcp_listen_with_backlog:
 286              	.LFB16:
 287              		.loc 1 520 0
 288              		.cfi_startproc
 289              		@ args = 0, pretend = 0, frame = 0
 290              		@ frame_needed = 0, uses_anonymous_args = 0
 291              	.LVL22:
 292 0000 38B5     		push	{r3, r4, r5, lr}
 293              	.LCFI2:
 294              		.cfi_def_cfa_offset 16
 295              		.cfi_offset 3, -16
 296              		.cfi_offset 4, -12
 297              		.cfi_offset 5, -8
 298              		.cfi_offset 14, -4
 299              		.loc 1 524 0
 300 0002 037E     		ldrb	r3, [r0, #24]	@ zero_extendqisi2
 301              		.loc 1 520 0
 302 0004 0446     		mov	r4, r0
 303              		.loc 1 524 0
 304 0006 002B     		cmp	r3, #0
 305 0008 41D1     		bne	.L76
 306              		.loc 1 545 0
 307 000a 0320     		movs	r0, #3
 308              	.LVL23:
 309 000c FFF7FEFF 		bl	memp_malloc
 310              	.LVL24:
 311              		.loc 1 546 0
 312 0010 0546     		mov	r5, r0
 313 0012 0028     		cmp	r0, #0
 314 0014 3DD0     		beq	.L75
 315              		.loc 1 549 0
 316 0016 2069     		ldr	r0, [r4, #16]
 317              	.LVL25:
 318              		.loc 1 550 0
 319 0018 628B     		ldrh	r2, [r4, #26]
 320              		.loc 1 549 0
 321 001a 2861     		str	r0, [r5, #16]
 322              		.loc 1 551 0
 323 001c 0121     		movs	r1, #1
 324              		.loc 1 550 0
 325 001e 6A83     		strh	r2, [r5, #26]	@ movhi
 326              		.loc 1 551 0
 327 0020 2976     		strb	r1, [r5, #24]
 328              		.loc 1 552 0
 329 0022 637E     		ldrb	r3, [r4, #25]	@ zero_extendqisi2
 330 0024 6B76     		strb	r3, [r5, #25]
 331              		.loc 1 554 0
 332 0026 207A     		ldrb	r0, [r4, #8]	@ zero_extendqisi2
 333 0028 40F00202 		orr	r2, r0, #2
 334 002c 2A72     		strb	r2, [r5, #8]
 335              		.loc 1 555 0
 336 002e A17A     		ldrb	r1, [r4, #10]	@ zero_extendqisi2
ARM GAS  C:\Users\jenny\AppData\Local\Temp\ccAyMdWJ.s 			page 7


 337 0030 A972     		strb	r1, [r5, #10]
 338              		.loc 1 556 0
 339 0032 637A     		ldrb	r3, [r4, #9]	@ zero_extendqisi2
 340 0034 6B72     		strb	r3, [r5, #9]
 341              		.loc 1 557 0
 342 0036 2068     		ldr	r0, [r4, #0]
 343              		.loc 1 558 0
 344 0038 628B     		ldrh	r2, [r4, #26]
 345              		.loc 1 557 0
 346 003a 2860     		str	r0, [r5, #0]
 347              		.loc 1 558 0
 348 003c 9AB1     		cbz	r2, .L59
 349              		.loc 1 559 0
 350 003e 1849     		ldr	r1, .L81
 351 0040 0868     		ldr	r0, [r1, #0]
 352 0042 A042     		cmp	r0, r4
 353 0044 29D0     		beq	.L77
 354              		.loc 1 559 0 is_stmt 0 discriminator 2
 355 0046 1749     		ldr	r1, .L81+4
 356 0048 0860     		str	r0, [r1, #0]
 357 004a 50B1     		cbz	r0, .L61
 358              		.loc 1 559 0
 359 004c C368     		ldr	r3, [r0, #12]
 360 004e A342     		cmp	r3, r4
 361 0050 21D0     		beq	.L78
 362              		.loc 1 559 0 discriminator 5
 363 0052 2BB1     		cbz	r3, .L79
 364              	.L66:
 365              		.loc 1 559 0 discriminator 7
 366 0054 DA68     		ldr	r2, [r3, #12]
 367 0056 A242     		cmp	r2, r4
 368 0058 13D0     		beq	.L80
 369              		.loc 1 559 0
 370 005a 1346     		mov	r3, r2
 371 005c 002B     		cmp	r3, #0
 372 005e F9D1     		bne	.L66
 373              	.L79:
 374 0060 0B60     		str	r3, [r1, #0]
 375              	.L61:
 376              		.loc 1 559 0 discriminator 6
 377 0062 0021     		movs	r1, #0
 378 0064 E160     		str	r1, [r4, #12]
 379              	.L59:
 380              		.loc 1 561 0 is_stmt 1
 381 0066 0220     		movs	r0, #2
 382 0068 2146     		mov	r1, r4
 383 006a FFF7FEFF 		bl	memp_free
 384              	.LVL26:
 385              		.loc 1 569 0
 386 006e 0E4B     		ldr	r3, .L81+8
 387              		.loc 1 563 0
 388 0070 0E4A     		ldr	r2, .L81+12
 389              		.loc 1 569 0
 390 0072 1868     		ldr	r0, [r3, #0]
 391              		.loc 1 563 0
 392 0074 6A61     		str	r2, [r5, #20]
 393              		.loc 1 569 0
ARM GAS  C:\Users\jenny\AppData\Local\Temp\ccAyMdWJ.s 			page 8


 394 0076 E860     		str	r0, [r5, #12]
 395 0078 1D60     		str	r5, [r3, #0]
 396 007a FFF7FEFF 		bl	tcp_timer_needed
 397              	.LVL27:
 398              		.loc 1 570 0
 399 007e 2846     		mov	r0, r5
 400 0080 38BD     		pop	{r3, r4, r5, pc}
 401              	.L80:
 402 0082 0B60     		str	r3, [r1, #0]
 403              	.L63:
 404              		.loc 1 559 0 discriminator 4
 405 0084 E068     		ldr	r0, [r4, #12]
 406 0086 0021     		movs	r1, #0
 407 0088 D860     		str	r0, [r3, #12]
 408 008a E160     		str	r1, [r4, #12]
 409 008c EBE7     		b	.L59
 410              	.LVL28:
 411              	.L76:
 412              		.loc 1 524 0 discriminator 1
 413 008e FFF7FEFF 		bl	port_halt
 414              	.LVL29:
 415              	.L75:
 416 0092 0020     		movs	r0, #0
 417 0094 38BD     		pop	{r3, r4, r5, pc}
 418              	.LVL30:
 419              	.L78:
 420              		.loc 1 559 0
 421 0096 0346     		mov	r3, r0
 422 0098 F4E7     		b	.L63
 423              	.L77:
 424              		.loc 1 559 0 is_stmt 0 discriminator 1
 425 009a E268     		ldr	r2, [r4, #12]
 426 009c 0A60     		str	r2, [r1, #0]
 427 009e E0E7     		b	.L61
 428              	.L82:
 429              		.align	2
 430              	.L81:
 431 00a0 00000000 		.word	.LANCHOR2
 432 00a4 00000000 		.word	.LANCHOR3
 433 00a8 00000000 		.word	.LANCHOR4
 434 00ac 00000000 		.word	tcp_accept_null
 435              		.cfi_endproc
 436              	.LFE16:
 437              		.size	tcp_listen_with_backlog, .-tcp_listen_with_backlog
 438              		.section	.text.tcp_update_rcv_ann_wnd,"ax",%progbits
 439              		.align	2
 440              		.p2align 4,,15
 441              		.global	tcp_update_rcv_ann_wnd
 442              		.thumb
 443              		.thumb_func
 444              		.type	tcp_update_rcv_ann_wnd, %function
 445              	tcp_update_rcv_ann_wnd:
 446              	.LFB17:
 447              		.loc 1 580 0 is_stmt 1
 448              		.cfi_startproc
 449              		@ args = 0, pretend = 0, frame = 0
 450              		@ frame_needed = 0, uses_anonymous_args = 0
ARM GAS  C:\Users\jenny\AppData\Local\Temp\ccAyMdWJ.s 			page 9


 451              	.LVL31:
 452 0000 38B5     		push	{r3, r4, r5, lr}
 453              	.LCFI3:
 454              		.cfi_def_cfa_offset 16
 455              		.cfi_offset 3, -16
 456              		.cfi_offset 4, -12
 457              		.cfi_offset 5, -8
 458              		.cfi_offset 14, -4
 459              		.loc 1 583 0
 460 0002 016B     		ldr	r1, [r0, #48]
 461              		.loc 1 581 0
 462 0004 838D     		ldrh	r3, [r0, #44]
 463 0006 826A     		ldr	r2, [r0, #40]
 464              	.LVL32:
 465              		.loc 1 583 0
 466 0008 C58E     		ldrh	r5, [r0, #54]
 467              		.loc 1 580 0
 468 000a 0446     		mov	r4, r0
 469              		.loc 1 581 0
 470 000c 581A     		subs	r0, r3, r1
 471              	.LVL33:
 472              		.loc 1 583 0
 473 000e B5F5866F 		cmp	r5, #1072
 474 0012 28BF     		it	cs
 475 0014 4FF48665 		movcs	r5, #1072
 476 0018 8018     		adds	r0, r0, r2
 477 001a 451B     		subs	r5, r0, r5
 478 001c 002D     		cmp	r5, #0
 479 001e 01DB     		blt	.L85
 480              		.loc 1 585 0
 481 0020 E385     		strh	r3, [r4, #46]	@ movhi
 482              		.loc 1 586 0
 483 0022 38BD     		pop	{r3, r4, r5, pc}
 484              	.L85:
 485              		.loc 1 588 0
 486 0024 531A     		subs	r3, r2, r1
 487              	.LVL34:
 488 0026 002B     		cmp	r3, #0
 489 0028 02DD     		ble	.L87
 490              		.loc 1 591 0
 491 002a 0020     		movs	r0, #0
 492 002c E085     		strh	r0, [r4, #46]	@ movhi
 493 002e 38BD     		pop	{r3, r4, r5, pc}
 494              	.L87:
 495              	.LBB7:
 496              		.loc 1 594 0
 497 0030 8D1A     		subs	r5, r1, r2
 498              	.LVL35:
 499              		.loc 1 595 0
 500 0032 B5F5803F 		cmp	r5, #65536
 501 0036 02D2     		bcs	.L90
 502              	.LVL36:
 503              	.L88:
 504              		.loc 1 596 0
 505 0038 E585     		strh	r5, [r4, #46]	@ movhi
 506              		.loc 1 598 0
 507 003a 0020     		movs	r0, #0
ARM GAS  C:\Users\jenny\AppData\Local\Temp\ccAyMdWJ.s 			page 10


 508              	.LBE7:
 509              		.loc 1 600 0
 510 003c 38BD     		pop	{r3, r4, r5, pc}
 511              	.LVL37:
 512              	.L90:
 513              	.LBB8:
 514              		.loc 1 595 0 discriminator 1
 515 003e FFF7FEFF 		bl	port_halt
 516              	.LVL38:
 517 0042 F9E7     		b	.L88
 518              	.LBE8:
 519              		.cfi_endproc
 520              	.LFE17:
 521              		.size	tcp_update_rcv_ann_wnd, .-tcp_update_rcv_ann_wnd
 522 0044 AFF30080 		.section	.text.tcp_recved,"ax",%progbits
 522      AFF30080 
 522      AFF30080 
 523              		.align	2
 524              		.p2align 4,,15
 525              		.global	tcp_recved
 526              		.thumb
 527              		.thumb_func
 528              		.type	tcp_recved, %function
 529              	tcp_recved:
 530              	.LFB18:
 531              		.loc 1 612 0
 532              		.cfi_startproc
 533              		@ args = 0, pretend = 0, frame = 0
 534              		@ frame_needed = 0, uses_anonymous_args = 0
 535              	.LVL39:
 536 0000 38B5     		push	{r3, r4, r5, lr}
 537              	.LCFI4:
 538              		.cfi_def_cfa_offset 16
 539              		.cfi_offset 3, -16
 540              		.cfi_offset 4, -12
 541              		.cfi_offset 5, -8
 542              		.cfi_offset 14, -4
 543              		.loc 1 616 0
 544 0002 037E     		ldrb	r3, [r0, #24]	@ zero_extendqisi2
 545 0004 012B     		cmp	r3, #1
 546              		.loc 1 612 0
 547 0006 0446     		mov	r4, r0
 548 0008 0D46     		mov	r5, r1
 549              		.loc 1 616 0
 550 000a 22D0     		beq	.L97
 551              	.LVL40:
 552              	.L92:
 553              		.loc 1 618 0
 554 000c A28D     		ldrh	r2, [r4, #44]
 555 000e C2F57F40 		rsb	r0, r2, #65280
 556 0012 FF30     		adds	r0, r0, #255
 557 0014 A842     		cmp	r0, r5
 558 0016 18DB     		blt	.L98
 559              	.L93:
 560              		.loc 1 621 0
 561 0018 5119     		adds	r1, r2, r5
 562 001a 8BB2     		uxth	r3, r1
ARM GAS  C:\Users\jenny\AppData\Local\Temp\ccAyMdWJ.s 			page 11


 563              		.loc 1 622 0
 564 001c B3F5066F 		cmp	r3, #2144
 565              		.loc 1 623 0
 566 0020 86BF     		itte	hi
 567 0022 4FF40660 		movhi	r0, #2144
 568 0026 A085     		strhhi	r0, [r4, #44]	@ movhi
 569              		.loc 1 621 0
 570 0028 A385     		strhls	r3, [r4, #44]	@ movhi
 571              		.loc 1 626 0
 572 002a 2046     		mov	r0, r4
 573 002c FFF7FEFF 		bl	tcp_update_rcv_ann_wnd
 574              	.LVL41:
 575              		.loc 1 632 0
 576 0030 B0F5067F 		cmp	r0, #536
 577 0034 00DA     		bge	.L99
 578 0036 38BD     		pop	{r3, r4, r5, pc}
 579              	.L99:
 580              		.loc 1 633 0
 581 0038 A07F     		ldrb	r0, [r4, #30]	@ zero_extendqisi2
 582              	.LVL42:
 583 003a 40F00202 		orr	r2, r0, #2
 584              		.loc 1 634 0
 585 003e 2046     		mov	r0, r4
 586              		.loc 1 633 0
 587 0040 A277     		strb	r2, [r4, #30]
 588              		.loc 1 639 0
 589 0042 BDE83840 		pop	{r3, r4, r5, lr}
 590              		.loc 1 634 0
 591 0046 FFF7FEBF 		b	tcp_output
 592              	.LVL43:
 593              	.L98:
 594              		.loc 1 618 0 discriminator 1
 595 004a FFF7FEFF 		bl	port_halt
 596              	.LVL44:
 597 004e A28D     		ldrh	r2, [r4, #44]
 598 0050 E2E7     		b	.L93
 599              	.LVL45:
 600              	.L97:
 601              		.loc 1 616 0 discriminator 1
 602 0052 FFF7FEFF 		bl	port_halt
 603              	.LVL46:
 604 0056 D9E7     		b	.L92
 605              		.cfi_endproc
 606              	.LFE18:
 607              		.size	tcp_recved, .-tcp_recved
 608 0058 AFF30080 		.section	.text.tcp_seg_free,"ax",%progbits
 608      AFF30080 
 609              		.align	2
 610              		.p2align 4,,15
 611              		.global	tcp_seg_free
 612              		.thumb
 613              		.thumb_func
 614              		.type	tcp_seg_free, %function
 615              	tcp_seg_free:
 616              	.LFB25:
 617              		.loc 1 1144 0
 618              		.cfi_startproc
ARM GAS  C:\Users\jenny\AppData\Local\Temp\ccAyMdWJ.s 			page 12


 619              		@ args = 0, pretend = 0, frame = 0
 620              		@ frame_needed = 0, uses_anonymous_args = 0
 621              	.LVL47:
 622 0000 10B5     		push	{r4, lr}
 623              	.LCFI5:
 624              		.cfi_def_cfa_offset 8
 625              		.cfi_offset 4, -8
 626              		.cfi_offset 14, -4
 627              		.loc 1 1145 0
 628 0002 0446     		mov	r4, r0
 629 0004 48B1     		cbz	r0, .L100
 630              		.loc 1 1146 0
 631 0006 4068     		ldr	r0, [r0, #4]
 632              	.LVL48:
 633 0008 08B1     		cbz	r0, .L102
 634              		.loc 1 1147 0
 635 000a FFF7FEFF 		bl	pbuf_free
 636              	.LVL49:
 637              	.L102:
 638              		.loc 1 1152 0
 639 000e 0420     		movs	r0, #4
 640 0010 2146     		mov	r1, r4
 641              		.loc 1 1154 0
 642 0012 BDE81040 		pop	{r4, lr}
 643              		.loc 1 1152 0
 644 0016 FFF7FEBF 		b	memp_free
 645              	.LVL50:
 646              	.L100:
 647 001a 10BD     		pop	{r4, pc}
 648              		.cfi_endproc
 649              	.LFE25:
 650              		.size	tcp_seg_free, .-tcp_seg_free
 651 001c AFF30080 		.section	.text.tcp_segs_free,"ax",%progbits
 652              		.align	2
 653              		.p2align 4,,15
 654              		.global	tcp_segs_free
 655              		.thumb
 656              		.thumb_func
 657              		.type	tcp_segs_free, %function
 658              	tcp_segs_free:
 659              	.LFB24:
 660              		.loc 1 1129 0
 661              		.cfi_startproc
 662              		@ args = 0, pretend = 0, frame = 0
 663              		@ frame_needed = 0, uses_anonymous_args = 0
 664              	.LVL51:
 665 0000 10B5     		push	{r4, lr}
 666              	.LCFI6:
 667              		.cfi_def_cfa_offset 8
 668              		.cfi_offset 4, -8
 669              		.cfi_offset 14, -4
 670              		.loc 1 1130 0
 671 0002 28B1     		cbz	r0, .L106
 672              	.L110:
 673              	.LBB9:
 674              		.loc 1 1131 0
 675 0004 0468     		ldr	r4, [r0, #0]
ARM GAS  C:\Users\jenny\AppData\Local\Temp\ccAyMdWJ.s 			page 13


 676              	.LVL52:
 677              		.loc 1 1132 0
 678 0006 FFF7FEFF 		bl	tcp_seg_free
 679              	.LVL53:
 680              	.LBE9:
 681              		.loc 1 1130 0
 682 000a 2046     		mov	r0, r4
 683 000c 002C     		cmp	r4, #0
 684 000e F9D1     		bne	.L110
 685              	.LVL54:
 686              	.L106:
 687 0010 10BD     		pop	{r4, pc}
 688              		.cfi_endproc
 689              	.LFE24:
 690              		.size	tcp_segs_free, .-tcp_segs_free
 691 0012 00BFAFF3 		.section	.text.tcp_setprio,"ax",%progbits
 691      0080AFF3 
 691      0080AFF3 
 691      0080
 692              		.align	2
 693              		.p2align 4,,15
 694              		.global	tcp_setprio
 695              		.thumb
 696              		.thumb_func
 697              		.type	tcp_setprio, %function
 698              	tcp_setprio:
 699              	.LFB26:
 700              		.loc 1 1164 0
 701              		.cfi_startproc
 702              		@ args = 0, pretend = 0, frame = 0
 703              		@ frame_needed = 0, uses_anonymous_args = 0
 704              		@ link register save eliminated.
 705              	.LVL55:
 706              		.loc 1 1165 0
 707 0000 4176     		strb	r1, [r0, #25]
 708 0002 7047     		bx	lr
 709              		.cfi_endproc
 710              	.LFE26:
 711              		.size	tcp_setprio, .-tcp_setprio
 712 0004 AFF30080 		.section	.text.tcp_seg_copy,"ax",%progbits
 712      AFF30080 
 712      AFF30080 
 713              		.align	2
 714              		.p2align 4,,15
 715              		.global	tcp_seg_copy
 716              		.thumb
 717              		.thumb_func
 718              		.type	tcp_seg_copy, %function
 719              	tcp_seg_copy:
 720              	.LFB27:
 721              		.loc 1 1178 0
 722              		.cfi_startproc
 723              		@ args = 0, pretend = 0, frame = 0
 724              		@ frame_needed = 0, uses_anonymous_args = 0
 725              	.LVL56:
 726 0000 38B5     		push	{r3, r4, r5, lr}
 727              	.LCFI7:
ARM GAS  C:\Users\jenny\AppData\Local\Temp\ccAyMdWJ.s 			page 14


 728              		.cfi_def_cfa_offset 16
 729              		.cfi_offset 3, -16
 730              		.cfi_offset 4, -12
 731              		.cfi_offset 5, -8
 732              		.cfi_offset 14, -4
 733              		.loc 1 1178 0
 734 0002 0546     		mov	r5, r0
 735              		.loc 1 1181 0
 736 0004 0420     		movs	r0, #4
 737              	.LVL57:
 738 0006 FFF7FEFF 		bl	memp_malloc
 739              	.LVL58:
 740              		.loc 1 1182 0
 741 000a 0446     		mov	r4, r0
 742 000c 50B1     		cbz	r0, .L114
 743              		.loc 1 1185 0
 744 000e 6868     		ldr	r0, [r5, #4]	@ unaligned
 745              	.LVL59:
 746 0010 2968     		ldr	r1, [r5, #0]	@ unaligned
 747 0012 AA68     		ldr	r2, [r5, #8]	@ unaligned
 748 0014 EB68     		ldr	r3, [r5, #12]	@ unaligned
 749 0016 6060     		str	r0, [r4, #4]	@ unaligned
 750 0018 2160     		str	r1, [r4, #0]	@ unaligned
 751 001a A260     		str	r2, [r4, #8]	@ unaligned
 752 001c E360     		str	r3, [r4, #12]	@ unaligned
 753              		.loc 1 1186 0
 754 001e 6068     		ldr	r0, [r4, #4]
 755 0020 FFF7FEFF 		bl	pbuf_ref
 756              	.LVL60:
 757              	.L114:
 758              		.loc 1 1188 0
 759 0024 2046     		mov	r0, r4
 760 0026 38BD     		pop	{r3, r4, r5, pc}
 761              		.cfi_endproc
 762              	.LFE27:
 763              		.size	tcp_seg_copy, .-tcp_seg_copy
 764 0028 AFF30080 		.section	.text.tcp_arg,"ax",%progbits
 764      AFF30080 
 765              		.align	2
 766              		.p2align 4,,15
 767              		.global	tcp_arg
 768              		.thumb
 769              		.thumb_func
 770              		.type	tcp_arg, %function
 771              	tcp_arg:
 772              	.LFB33:
 773              		.loc 1 1377 0
 774              		.cfi_startproc
 775              		@ args = 0, pretend = 0, frame = 0
 776              		@ frame_needed = 0, uses_anonymous_args = 0
 777              		@ link register save eliminated.
 778              	.LVL61:
 779              		.loc 1 1380 0
 780 0000 0161     		str	r1, [r0, #16]
 781 0002 7047     		bx	lr
 782              		.cfi_endproc
 783              	.LFE33:
ARM GAS  C:\Users\jenny\AppData\Local\Temp\ccAyMdWJ.s 			page 15


 784              		.size	tcp_arg, .-tcp_arg
 785 0004 AFF30080 		.section	.text.tcp_recv,"ax",%progbits
 785      AFF30080 
 785      AFF30080 
 786              		.align	2
 787              		.p2align 4,,15
 788              		.global	tcp_recv
 789              		.thumb
 790              		.thumb_func
 791              		.type	tcp_recv, %function
 792              	tcp_recv:
 793              	.LFB34:
 794              		.loc 1 1393 0
 795              		.cfi_startproc
 796              		@ args = 0, pretend = 0, frame = 8
 797              		@ frame_needed = 0, uses_anonymous_args = 0
 798              	.LVL62:
 799 0000 00B5     		push	{lr}
 800              	.LCFI8:
 801              		.cfi_def_cfa_offset 4
 802              		.cfi_offset 14, -4
 803              		.loc 1 1394 0
 804 0002 037E     		ldrb	r3, [r0, #24]	@ zero_extendqisi2
 805 0004 012B     		cmp	r3, #1
 806              		.loc 1 1393 0
 807 0006 83B0     		sub	sp, sp, #12
 808              	.LCFI9:
 809              		.cfi_def_cfa_offset 16
 810              		.loc 1 1394 0
 811 0008 03D0     		beq	.L121
 812              	.LVL63:
 813              	.L120:
 814              		.loc 1 1395 0
 815 000a C0F88010 		str	r1, [r0, #128]
 816              		.loc 1 1396 0
 817 000e 03B0     		add	sp, sp, #12
 818 0010 00BD     		pop	{pc}
 819              	.LVL64:
 820              	.L121:
 821              		.loc 1 1394 0 discriminator 1
 822 0012 0190     		str	r0, [sp, #4]
 823 0014 0091     		str	r1, [sp, #0]
 824 0016 FFF7FEFF 		bl	port_halt
 825              	.LVL65:
 826 001a 0099     		ldr	r1, [sp, #0]
 827 001c 0198     		ldr	r0, [sp, #4]
 828 001e F4E7     		b	.L120
 829              		.cfi_endproc
 830              	.LFE34:
 831              		.size	tcp_recv, .-tcp_recv
 832              		.section	.text.tcp_sent,"ax",%progbits
 833              		.align	2
 834              		.p2align 4,,15
 835              		.global	tcp_sent
 836              		.thumb
 837              		.thumb_func
 838              		.type	tcp_sent, %function
ARM GAS  C:\Users\jenny\AppData\Local\Temp\ccAyMdWJ.s 			page 16


 839              	tcp_sent:
 840              	.LFB35:
 841              		.loc 1 1407 0
 842              		.cfi_startproc
 843              		@ args = 0, pretend = 0, frame = 8
 844              		@ frame_needed = 0, uses_anonymous_args = 0
 845              	.LVL66:
 846 0000 00B5     		push	{lr}
 847              	.LCFI10:
 848              		.cfi_def_cfa_offset 4
 849              		.cfi_offset 14, -4
 850              		.loc 1 1408 0
 851 0002 037E     		ldrb	r3, [r0, #24]	@ zero_extendqisi2
 852 0004 012B     		cmp	r3, #1
 853              		.loc 1 1407 0
 854 0006 83B0     		sub	sp, sp, #12
 855              	.LCFI11:
 856              		.cfi_def_cfa_offset 16
 857              		.loc 1 1408 0
 858 0008 02D0     		beq	.L124
 859              	.LVL67:
 860              	.L123:
 861              		.loc 1 1409 0
 862 000a C167     		str	r1, [r0, #124]
 863              		.loc 1 1410 0
 864 000c 03B0     		add	sp, sp, #12
 865 000e 00BD     		pop	{pc}
 866              	.LVL68:
 867              	.L124:
 868              		.loc 1 1408 0 discriminator 1
 869 0010 0190     		str	r0, [sp, #4]
 870 0012 0091     		str	r1, [sp, #0]
 871 0014 FFF7FEFF 		bl	port_halt
 872              	.LVL69:
 873 0018 0099     		ldr	r1, [sp, #0]
 874 001a 0198     		ldr	r0, [sp, #4]
 875 001c F5E7     		b	.L123
 876              		.cfi_endproc
 877              	.LFE35:
 878              		.size	tcp_sent, .-tcp_sent
 879 001e 00BF     		.section	.text.tcp_err,"ax",%progbits
 880              		.align	2
 881              		.p2align 4,,15
 882              		.global	tcp_err
 883              		.thumb
 884              		.thumb_func
 885              		.type	tcp_err, %function
 886              	tcp_err:
 887              	.LFB36:
 888              		.loc 1 1422 0
 889              		.cfi_startproc
 890              		@ args = 0, pretend = 0, frame = 8
 891              		@ frame_needed = 0, uses_anonymous_args = 0
 892              	.LVL70:
 893 0000 00B5     		push	{lr}
 894              	.LCFI12:
 895              		.cfi_def_cfa_offset 4
ARM GAS  C:\Users\jenny\AppData\Local\Temp\ccAyMdWJ.s 			page 17


 896              		.cfi_offset 14, -4
 897              		.loc 1 1423 0
 898 0002 037E     		ldrb	r3, [r0, #24]	@ zero_extendqisi2
 899 0004 012B     		cmp	r3, #1
 900              		.loc 1 1422 0
 901 0006 83B0     		sub	sp, sp, #12
 902              	.LCFI13:
 903              		.cfi_def_cfa_offset 16
 904              		.loc 1 1423 0
 905 0008 03D0     		beq	.L127
 906              	.LVL71:
 907              	.L126:
 908              		.loc 1 1424 0
 909 000a C0F88C10 		str	r1, [r0, #140]
 910              		.loc 1 1425 0
 911 000e 03B0     		add	sp, sp, #12
 912 0010 00BD     		pop	{pc}
 913              	.LVL72:
 914              	.L127:
 915              		.loc 1 1423 0 discriminator 1
 916 0012 0190     		str	r0, [sp, #4]
 917 0014 0091     		str	r1, [sp, #0]
 918 0016 FFF7FEFF 		bl	port_halt
 919              	.LVL73:
 920 001a 0099     		ldr	r1, [sp, #0]
 921 001c 0198     		ldr	r0, [sp, #4]
 922 001e F4E7     		b	.L126
 923              		.cfi_endproc
 924              	.LFE36:
 925              		.size	tcp_err, .-tcp_err
 926              		.section	.text.tcp_accept,"ax",%progbits
 927              		.align	2
 928              		.p2align 4,,15
 929              		.global	tcp_accept
 930              		.thumb
 931              		.thumb_func
 932              		.type	tcp_accept, %function
 933              	tcp_accept:
 934              	.LFB37:
 935              		.loc 1 1437 0
 936              		.cfi_startproc
 937              		@ args = 0, pretend = 0, frame = 0
 938              		@ frame_needed = 0, uses_anonymous_args = 0
 939              		@ link register save eliminated.
 940              	.LVL74:
 941              		.loc 1 1440 0
 942 0000 4161     		str	r1, [r0, #20]
 943 0002 7047     		bx	lr
 944              		.cfi_endproc
 945              	.LFE37:
 946              		.size	tcp_accept, .-tcp_accept
 947 0004 AFF30080 		.section	.text.tcp_poll,"ax",%progbits
 947      AFF30080 
 947      AFF30080 
 948              		.align	2
 949              		.p2align 4,,15
 950              		.global	tcp_poll
ARM GAS  C:\Users\jenny\AppData\Local\Temp\ccAyMdWJ.s 			page 18


 951              		.thumb
 952              		.thumb_func
 953              		.type	tcp_poll, %function
 954              	tcp_poll:
 955              	.LFB38:
 956              		.loc 1 1453 0
 957              		.cfi_startproc
 958              		@ args = 0, pretend = 0, frame = 16
 959              		@ frame_needed = 0, uses_anonymous_args = 0
 960              	.LVL75:
 961 0000 00B5     		push	{lr}
 962              	.LCFI14:
 963              		.cfi_def_cfa_offset 4
 964              		.cfi_offset 14, -4
 965              		.loc 1 1454 0
 966 0002 037E     		ldrb	r3, [r0, #24]	@ zero_extendqisi2
 967 0004 012B     		cmp	r3, #1
 968              		.loc 1 1453 0
 969 0006 85B0     		sub	sp, sp, #20
 970              	.LCFI15:
 971              		.cfi_def_cfa_offset 24
 972              		.loc 1 1454 0
 973 0008 05D0     		beq	.L131
 974              	.LVL76:
 975              	.L130:
 976              		.loc 1 1456 0
 977 000a C0F88810 		str	r1, [r0, #136]
 978              		.loc 1 1460 0
 979 000e 80F82020 		strb	r2, [r0, #32]
 980              		.loc 1 1461 0
 981 0012 05B0     		add	sp, sp, #20
 982 0014 00BD     		pop	{pc}
 983              	.LVL77:
 984              	.L131:
 985              		.loc 1 1454 0 discriminator 1
 986 0016 0390     		str	r0, [sp, #12]
 987 0018 0291     		str	r1, [sp, #8]
 988 001a 0192     		str	r2, [sp, #4]
 989 001c FFF7FEFF 		bl	port_halt
 990              	.LVL78:
 991 0020 019A     		ldr	r2, [sp, #4]
 992 0022 0299     		ldr	r1, [sp, #8]
 993 0024 0398     		ldr	r0, [sp, #12]
 994 0026 F0E7     		b	.L130
 995              		.cfi_endproc
 996              	.LFE38:
 997              		.size	tcp_poll, .-tcp_poll
 998 0028 AFF30080 		.section	.text.tcp_pcb_purge,"ax",%progbits
 998      AFF30080 
 999              		.align	2
 1000              		.p2align 4,,15
 1001              		.global	tcp_pcb_purge
 1002              		.thumb
 1003              		.thumb_func
 1004              		.type	tcp_pcb_purge, %function
 1005              	tcp_pcb_purge:
 1006              	.LFB39:
ARM GAS  C:\Users\jenny\AppData\Local\Temp\ccAyMdWJ.s 			page 19


 1007              		.loc 1 1471 0
 1008              		.cfi_startproc
 1009              		@ args = 0, pretend = 0, frame = 0
 1010              		@ frame_needed = 0, uses_anonymous_args = 0
 1011              	.LVL79:
 1012 0000 38B5     		push	{r3, r4, r5, lr}
 1013              	.LCFI16:
 1014              		.cfi_def_cfa_offset 16
 1015              		.cfi_offset 3, -16
 1016              		.cfi_offset 4, -12
 1017              		.cfi_offset 5, -8
 1018              		.cfi_offset 14, -4
 1019              		.loc 1 1472 0
 1020 0002 037E     		ldrb	r3, [r0, #24]	@ zero_extendqisi2
 1021              		.loc 1 1471 0
 1022 0004 0446     		mov	r4, r0
 1023              		.loc 1 1472 0
 1024 0006 DBB1     		cbz	r3, .L132
 1025              		.loc 1 1472 0 is_stmt 0 discriminator 1
 1026 0008 0A2B     		cmp	r3, #10
 1027 000a 19D0     		beq	.L132
 1028              		.loc 1 1473 0 is_stmt 1
 1029 000c 012B     		cmp	r3, #1
 1030 000e 17D0     		beq	.L132
 1031              	.LVL80:
 1032              	.LBB12:
 1033              	.LBB13:
 1034              		.loc 1 1499 0
 1035 0010 806F     		ldr	r0, [r0, #120]
 1036              	.LVL81:
 1037 0012 18B1     		cbz	r0, .L134
 1038              		.loc 1 1501 0
 1039 0014 FFF7FEFF 		bl	pbuf_free
 1040              	.LVL82:
 1041              		.loc 1 1502 0
 1042 0018 0020     		movs	r0, #0
 1043 001a A067     		str	r0, [r4, #120]
 1044              	.L134:
 1045              		.loc 1 1514 0
 1046 001c 606F     		ldr	r0, [r4, #116]
 1047 001e FFF7FEFF 		bl	tcp_segs_free
 1048              	.LVL83:
 1049              		.loc 1 1515 0
 1050 0022 0025     		movs	r5, #0
 1051              		.loc 1 1520 0
 1052 0024 4FF6FF71 		movw	r1, #65535
 1053              		.loc 1 1522 0
 1054 0028 E06E     		ldr	r0, [r4, #108]
 1055              		.loc 1 1520 0
 1056 002a A186     		strh	r1, [r4, #52]	@ movhi
 1057              		.loc 1 1515 0
 1058 002c 6567     		str	r5, [r4, #116]
 1059              		.loc 1 1522 0
 1060 002e FFF7FEFF 		bl	tcp_segs_free
 1061              	.LVL84:
 1062              		.loc 1 1523 0
 1063 0032 206F     		ldr	r0, [r4, #112]
ARM GAS  C:\Users\jenny\AppData\Local\Temp\ccAyMdWJ.s 			page 20


 1064 0034 FFF7FEFF 		bl	tcp_segs_free
 1065              	.LVL85:
 1066              		.loc 1 1524 0
 1067 0038 E566     		str	r5, [r4, #108]
 1068 003a 2567     		str	r5, [r4, #112]
 1069              		.loc 1 1526 0
 1070 003c A4F86A50 		strh	r5, [r4, #106]	@ movhi
 1071              	.LVL86:
 1072              	.L132:
 1073 0040 38BD     		pop	{r3, r4, r5, pc}
 1074              	.LBE13:
 1075              	.LBE12:
 1076              		.cfi_endproc
 1077              	.LFE39:
 1078              		.size	tcp_pcb_purge, .-tcp_pcb_purge
 1079 0042 00BFAFF3 		.section	.text.tcp_slowtmr,"ax",%progbits
 1079      0080AFF3 
 1079      0080AFF3 
 1079      0080
 1080              		.align	2
 1081              		.p2align 4,,15
 1082              		.global	tcp_slowtmr
 1083              		.thumb
 1084              		.thumb_func
 1085              		.type	tcp_slowtmr, %function
 1086              	tcp_slowtmr:
 1087              	.LFB21:
 1088              		.loc 1 789 0
 1089              		.cfi_startproc
 1090              		@ args = 0, pretend = 0, frame = 16
 1091              		@ frame_needed = 0, uses_anonymous_args = 0
 1092              	.LVL87:
 1093 0000 2DE9F04F 		push	{r4, r5, r6, r7, r8, r9, sl, fp, lr}
 1094              	.LCFI17:
 1095              		.cfi_def_cfa_offset 36
 1096              		.cfi_offset 4, -36
 1097              		.cfi_offset 5, -32
 1098              		.cfi_offset 6, -28
 1099              		.cfi_offset 7, -24
 1100              		.cfi_offset 8, -20
 1101              		.cfi_offset 9, -16
 1102              		.cfi_offset 10, -12
 1103              		.cfi_offset 11, -8
 1104              		.cfi_offset 14, -4
 1105              		.loc 1 798 0
 1106 0004 C44C     		ldr	r4, .L248
 1107              		.loc 1 799 0
 1108 0006 C54D     		ldr	r5, .L248+4
 1109              		.loc 1 798 0
 1110 0008 2368     		ldr	r3, [r4, #0]
 1111              		.loc 1 799 0
 1112 000a 2A78     		ldrb	r2, [r5, #0]	@ zero_extendqisi2
 1113              	.LBB14:
 1114              		.loc 1 973 0
 1115 000c C44F     		ldr	r7, .L248+8
 1116              	.LBE14:
 1117              		.loc 1 789 0
ARM GAS  C:\Users\jenny\AppData\Local\Temp\ccAyMdWJ.s 			page 21


 1118 000e 87B0     		sub	sp, sp, #28
 1119              	.LCFI18:
 1120              		.cfi_def_cfa_offset 64
 1121              		.loc 1 899 0
 1122 0010 44F6D35C 		movw	ip, #19923
 1123              		.loc 1 909 0
 1124 0014 42F2F84B 		movw	fp, #9464
 1125              		.loc 1 798 0
 1126 0018 581C     		adds	r0, r3, #1
 1127              		.loc 1 799 0
 1128 001a 511C     		adds	r1, r2, #1
 1129              		.loc 1 899 0
 1130 001c C1F2620C 		movt	ip, 4194
 1131              		.loc 1 909 0
 1132 0020 C0F2010B 		movt	fp, 1
 1133              		.loc 1 798 0
 1134 0024 2060     		str	r0, [r4, #0]
 1135              		.loc 1 799 0
 1136 0026 2970     		strb	r1, [r5, #0]
 1137              		.loc 1 808 0
 1138 0028 4FF00008 		mov	r8, #0
 1139              		.loc 1 899 0
 1140 002c CDF810C0 		str	ip, [sp, #16]
 1141              		.loc 1 909 0
 1142 0030 CDF814B0 		str	fp, [sp, #20]
 1143              	.LVL88:
 1144              	.L231:
 1145              		.loc 1 804 0
 1146 0034 40F20003 		movw	r3, #:lower16:.LANCHOR7
 1147 0038 C0F20003 		movt	r3, #:upper16:.LANCHOR7
 1148 003c D3F800B0 		ldr	fp, [r3, #0]
 1149              	.LVL89:
 1150              		.loc 1 808 0
 1151 0040 BBF1000F 		cmp	fp, #0
 1152 0044 00F09280 		beq	.L184
 1153 0048 0026     		movs	r6, #0
 1154              	.LVL90:
 1155              	.L149:
 1156              		.loc 1 810 0
 1157 004a 9BF81820 		ldrb	r2, [fp, #24]	@ zero_extendqisi2
 1158 004e 002A     		cmp	r2, #0
 1159 0050 00F0EC80 		beq	.L235
 1160              		.loc 1 811 0
 1161 0054 012A     		cmp	r2, #1
 1162 0056 00F0F080 		beq	.L236
 1163              	.L153:
 1164              		.loc 1 812 0
 1165 005a 0A2A     		cmp	r2, #10
 1166 005c 00F0F480 		beq	.L237
 1167              	.L154:
 1168              		.loc 1 813 0
 1169 0060 2878     		ldrb	r0, [r5, #0]	@ zero_extendqisi2
 1170 0062 9BF82110 		ldrb	r1, [fp, #33]	@ zero_extendqisi2
 1171 0066 8142     		cmp	r1, r0
 1172 0068 00F0F680 		beq	.L238
 1173              	.L155:
 1174              		.loc 1 823 0
ARM GAS  C:\Users\jenny\AppData\Local\Temp\ccAyMdWJ.s 			page 22


 1175 006c 9BF81830 		ldrb	r3, [fp, #24]	@ zero_extendqisi2
 1176              		.loc 1 818 0
 1177 0070 8BF82100 		strb	r0, [fp, #33]
 1178              	.LVL91:
 1179              		.loc 1 823 0
 1180 0074 022B     		cmp	r3, #2
 1181 0076 9BF84620 		ldrb	r2, [fp, #70]	@ zero_extendqisi2
 1182 007a 00F06181 		beq	.L157
 1183              	.L158:
 1184              		.loc 1 827 0
 1185 007e 0C2A     		cmp	r2, #12
 1186 0080 00F06681 		beq	.L197
 1187              		.loc 1 831 0
 1188 0084 9BF89510 		ldrb	r1, [fp, #149]	@ zero_extendqisi2
 1189 0088 0029     		cmp	r1, #0
 1190 008a 00F00581 		beq	.L161
 1191              		.loc 1 835 0
 1192 008e 40F20009 		movw	r9, #:lower16:.LANCHOR9
 1193 0092 C0F20009 		movt	r9, #:upper16:.LANCHOR9
 1194              		.loc 1 834 0
 1195 0096 9BF89420 		ldrb	r2, [fp, #148]	@ zero_extendqisi2
 1196              		.loc 1 835 0
 1197 009a 09EB0100 		add	r0, r9, r1
 1198              		.loc 1 834 0
 1199 009e 0132     		adds	r2, r2, #1
 1200              		.loc 1 835 0
 1201 00a0 10F8010C 		ldrb	r0, [r0, #-1]	@ zero_extendqisi2
 1202              		.loc 1 834 0
 1203 00a4 D2B2     		uxtb	r2, r2
 1204              		.loc 1 835 0
 1205 00a6 9042     		cmp	r0, r2
 1206              		.loc 1 834 0
 1207 00a8 8BF89420 		strb	r2, [fp, #148]
 1208              		.loc 1 835 0
 1209 00ac 00F2DB80 		bhi	.L200
 1210              		.loc 1 837 0
 1211 00b0 0629     		cmp	r1, #6
 1212              		.loc 1 836 0
 1213 00b2 8BF89480 		strb	r8, [fp, #148]
 1214              		.loc 1 837 0
 1215 00b6 02D8     		bhi	.L162
 1216              		.loc 1 838 0
 1217 00b8 4B1C     		adds	r3, r1, #1
 1218 00ba 8BF89530 		strb	r3, [fp, #149]
 1219              	.L162:
 1220              		.loc 1 840 0
 1221 00be 5846     		mov	r0, fp
 1222 00c0 FFF7FEFF 		bl	tcp_zero_window_probe
 1223              	.LVL92:
 1224 00c4 9BF81830 		ldrb	r3, [fp, #24]	@ zero_extendqisi2
 1225              		.loc 1 820 0
 1226 00c8 4FF00009 		mov	r9, #0
 1227              	.L160:
 1228              	.LVL93:
 1229              		.loc 1 881 0
 1230 00cc 062B     		cmp	r3, #6
 1231 00ce 00F0CF80 		beq	.L239
ARM GAS  C:\Users\jenny\AppData\Local\Temp\ccAyMdWJ.s 			page 23


 1232              	.LVL94:
 1233              	.L166:
 1234              		.loc 1 895 0
 1235 00d2 9BF80810 		ldrb	r1, [fp, #8]	@ zero_extendqisi2
 1236 00d6 01F00800 		and	r0, r1, #8
 1237 00da C2B2     		uxtb	r2, r0
 1238 00dc 2AB1     		cbz	r2, .L203
 1239              		.loc 1 895 0 is_stmt 0 discriminator 1
 1240 00de 042B     		cmp	r3, #4
 1241 00e0 00F03E81 		beq	.L168
 1242              		.loc 1 896 0 is_stmt 1
 1243 00e4 072B     		cmp	r3, #7
 1244 00e6 00F03B81 		beq	.L168
 1245              	.LVL95:
 1246              	.L203:
 1247              		.loc 1 821 0
 1248 00ea 4FF0000A 		mov	sl, #0
 1249              	.LVL96:
 1250              	.L159:
 1251              		.loc 1 921 0
 1252 00ee DBF87400 		ldr	r0, [fp, #116]
 1253 00f2 58B1     		cbz	r0, .L170
 1254              		.loc 1 922 0 discriminator 1
 1255 00f4 DBF82420 		ldr	r2, [fp, #36]
 1256 00f8 2168     		ldr	r1, [r4, #0]
 1257 00fa BBF94430 		ldrsh	r3, [fp, #68]
 1258 00fe 891A     		subs	r1, r1, r2
 1259 0100 03EB4302 		add	r2, r3, r3, lsl #1
 1260              		.loc 1 921 0 discriminator 1
 1261 0104 B1EB420F 		cmp	r1, r2, lsl #1
 1262 0108 80F02581 		bcs	.L240
 1263              	.L170:
 1264              		.loc 1 930 0
 1265 010c 9BF81800 		ldrb	r0, [fp, #24]	@ zero_extendqisi2
 1266 0110 0328     		cmp	r0, #3
 1267 0112 00F00981 		beq	.L241
 1268              		.loc 1 939 0
 1269 0116 0928     		cmp	r0, #9
 1270 0118 4FD0     		beq	.L242
 1271              	.LVL97:
 1272              	.L173:
 1273              		.loc 1 947 0
 1274 011a B9F1000F 		cmp	r9, #0
 1275 011e 52D1     		bne	.L174
 1276              	.LVL98:
 1277              		.loc 1 984 0
 1278 0120 9BF81F00 		ldrb	r0, [fp, #31]	@ zero_extendqisi2
 1279              		.loc 1 985 0
 1280 0124 9BF82020 		ldrb	r2, [fp, #32]	@ zero_extendqisi2
 1281              		.loc 1 981 0
 1282 0128 DBF80CA0 		ldr	sl, [fp, #12]
 1283              	.LVL99:
 1284              		.loc 1 984 0
 1285 012c 411C     		adds	r1, r0, #1
 1286 012e CBB2     		uxtb	r3, r1
 1287              		.loc 1 985 0
 1288 0130 9A42     		cmp	r2, r3
ARM GAS  C:\Users\jenny\AppData\Local\Temp\ccAyMdWJ.s 			page 24


 1289              		.loc 1 984 0
 1290 0132 8BF81F30 		strb	r3, [fp, #31]
 1291              		.loc 1 985 0
 1292 0136 13D8     		bhi	.L205
 1293              		.loc 1 989 0
 1294 0138 DBF88820 		ldr	r2, [fp, #136]
 1295              		.loc 1 986 0
 1296 013c 8BF81F90 		strb	r9, [fp, #31]
 1297              		.loc 1 988 0
 1298 0140 87F80090 		strb	r9, [r7, #0]
 1299              		.loc 1 989 0
 1300 0144 002A     		cmp	r2, #0
 1301 0146 00F02981 		beq	.L183
 1302              		.loc 1 989 0 is_stmt 0 discriminator 1
 1303 014a 5946     		mov	r1, fp
 1304 014c DBF81000 		ldr	r0, [fp, #16]
 1305 0150 9047     		blx	r2
 1306              	.LVL100:
 1307              		.loc 1 990 0 is_stmt 1 discriminator 1
 1308 0152 3978     		ldrb	r1, [r7, #0]	@ zero_extendqisi2
 1309 0154 0029     		cmp	r1, #0
 1310 0156 7FF46DAF 		bne	.L231
 1311              		.loc 1 994 0
 1312 015a 0028     		cmp	r0, #0
 1313 015c 00F01E81 		beq	.L183
 1314              	.LVL101:
 1315              	.L205:
 1316              		.loc 1 985 0
 1317 0160 5E46     		mov	r6, fp
 1318              	.LVL102:
 1319              		.loc 1 981 0
 1320 0162 D346     		mov	fp, sl
 1321              	.LVL103:
 1322              		.loc 1 808 0
 1323 0164 BBF1000F 		cmp	fp, #0
 1324 0168 7FF46FAF 		bne	.L149
 1325              	.LVL104:
 1326              	.L184:
 1327              		.loc 1 1004 0
 1328 016c 6D4F     		ldr	r7, .L248+12
 1329 016e 3D68     		ldr	r5, [r7, #0]
 1330              	.LVL105:
 1331              		.loc 1 1005 0
 1332 0170 05B3     		cbz	r5, .L147
 1333 0172 0026     		movs	r6, #0
 1334              	.LVL106:
 1335              	.L150:
 1336              		.loc 1 1006 0
 1337 0174 2A7E     		ldrb	r2, [r5, #24]	@ zero_extendqisi2
 1338 0176 0A2A     		cmp	r2, #10
 1339 0178 01D0     		beq	.L185
 1340              		.loc 1 1006 0 is_stmt 0 discriminator 1
 1341 017a FFF7FEFF 		bl	port_halt
 1342              	.LVL107:
 1343              	.L185:
 1344              		.loc 1 1010 0 is_stmt 1
 1345 017e 2068     		ldr	r0, [r4, #0]
ARM GAS  C:\Users\jenny\AppData\Local\Temp\ccAyMdWJ.s 			page 25


 1346 0180 6B6A     		ldr	r3, [r5, #36]
 1347 0182 C11A     		subs	r1, r0, r3
 1348 0184 F029     		cmp	r1, #240
 1349 0186 40F20381 		bls	.L243
 1350              	.LVL108:
 1351              	.LBB15:
 1352              		.loc 1 1019 0
 1353 018a 2846     		mov	r0, r5
 1354 018c FFF7FEFF 		bl	tcp_pcb_purge
 1355              	.LVL109:
 1356              		.loc 1 1021 0
 1357 0190 002E     		cmp	r6, #0
 1358 0192 00F04581 		beq	.L244
 1359              		.loc 1 1022 0
 1360 0196 3868     		ldr	r0, [r7, #0]
 1361 0198 8542     		cmp	r5, r0
 1362 019a 00F04E81 		beq	.L245
 1363              	.L188:
 1364              		.loc 1 1023 0
 1365 019e EB68     		ldr	r3, [r5, #12]
 1366 01a0 F360     		str	r3, [r6, #12]
 1367 01a2 D5F80C80 		ldr	r8, [r5, #12]
 1368              	.L189:
 1369              	.LVL110:
 1370              		.loc 1 1031 0
 1371 01a6 2946     		mov	r1, r5
 1372 01a8 0220     		movs	r0, #2
 1373              		.loc 1 1030 0
 1374 01aa 4546     		mov	r5, r8
 1375              	.LVL111:
 1376              		.loc 1 1031 0
 1377 01ac FFF7FEFF 		bl	memp_free
 1378              	.LVL112:
 1379              	.LBE15:
 1380              		.loc 1 1005 0
 1381 01b0 002D     		cmp	r5, #0
 1382 01b2 DFD1     		bne	.L150
 1383              	.LVL113:
 1384              	.L147:
 1385              		.loc 1 1037 0
 1386 01b4 07B0     		add	sp, sp, #28
 1387 01b6 BDE8F08F 		pop	{r4, r5, r6, r7, r8, r9, sl, fp, pc}
 1388              	.LVL114:
 1389              	.L242:
 1390              		.loc 1 940 0
 1391 01ba 2168     		ldr	r1, [r4, #0]
 1392 01bc DBF82430 		ldr	r3, [fp, #36]
 1393 01c0 CA1A     		subs	r2, r1, r3
 1394 01c2 F02A     		cmp	r2, #240
 1395 01c4 A9D9     		bls	.L173
 1396              	.LVL115:
 1397              	.L174:
 1398              	.LBB16:
 1399              		.loc 1 951 0
 1400 01c6 5846     		mov	r0, fp
 1401 01c8 FFF7FEFF 		bl	tcp_pcb_purge
 1402              	.LVL116:
ARM GAS  C:\Users\jenny\AppData\Local\Temp\ccAyMdWJ.s 			page 26


 1403              		.loc 1 953 0
 1404 01cc 002E     		cmp	r6, #0
 1405 01ce 00F01681 		beq	.L176
 1406              		.loc 1 954 0
 1407 01d2 40F20000 		movw	r0, #:lower16:.LANCHOR7
 1408 01d6 C0F20000 		movt	r0, #:upper16:.LANCHOR7
 1409 01da 0368     		ldr	r3, [r0, #0]
 1410 01dc 9B45     		cmp	fp, r3
 1411 01de 00F02981 		beq	.L246
 1412              	.L177:
 1413              		.loc 1 955 0
 1414 01e2 DBF80C10 		ldr	r1, [fp, #12]
 1415 01e6 F160     		str	r1, [r6, #12]
 1416              	.L178:
 1417              		.loc 1 962 0
 1418 01e8 BAF1000F 		cmp	sl, #0
 1419 01ec 40F0F780 		bne	.L247
 1420              	.L180:
 1421              		.loc 1 968 0
 1422 01f0 DBF81000 		ldr	r0, [fp, #16]
 1423              		.loc 1 967 0
 1424 01f4 DBF88CA0 		ldr	sl, [fp, #140]
 1425              	.LVL117:
 1426              		.loc 1 968 0
 1427 01f8 0390     		str	r0, [sp, #12]
 1428              	.LVL118:
 1429              		.loc 1 971 0
 1430 01fa 5946     		mov	r1, fp
 1431 01fc 0220     		movs	r0, #2
 1432              	.LVL119:
 1433              		.loc 1 970 0
 1434 01fe DBF80C90 		ldr	r9, [fp, #12]
 1435              	.LVL120:
 1436              		.loc 1 971 0
 1437 0202 FFF7FEFF 		bl	memp_free
 1438              	.LVL121:
 1439              		.loc 1 973 0
 1440 0206 87F80080 		strb	r8, [r7, #0]
 1441              		.loc 1 974 0
 1442 020a BAF1000F 		cmp	sl, #0
 1443 020e 07D0     		beq	.L204
 1444              		.loc 1 974 0 is_stmt 0 discriminator 1
 1445 0210 6FF00901 		mvn	r1, #9
 1446 0214 0398     		ldr	r0, [sp, #12]
 1447 0216 D047     		blx	sl
 1448              	.LVL122:
 1449              		.loc 1 975 0 is_stmt 1 discriminator 1
 1450 0218 3978     		ldrb	r1, [r7, #0]	@ zero_extendqisi2
 1451 021a 0029     		cmp	r1, #0
 1452 021c 7FF40AAF 		bne	.L231
 1453              	.L204:
 1454              		.loc 1 970 0
 1455 0220 CB46     		mov	fp, r9
 1456              	.LVL123:
 1457              	.LBE16:
 1458              		.loc 1 808 0
 1459 0222 BBF1000F 		cmp	fp, #0
ARM GAS  C:\Users\jenny\AppData\Local\Temp\ccAyMdWJ.s 			page 27


 1460 0226 7FF410AF 		bne	.L149
 1461              	.LVL124:
 1462 022a 9FE7     		b	.L184
 1463              	.LVL125:
 1464              	.L235:
 1465              		.loc 1 810 0 discriminator 1
 1466 022c FFF7FEFF 		bl	port_halt
 1467              	.LVL126:
 1468 0230 9BF81820 		ldrb	r2, [fp, #24]	@ zero_extendqisi2
 1469              		.loc 1 811 0 discriminator 1
 1470 0234 012A     		cmp	r2, #1
 1471 0236 7FF410AF 		bne	.L153
 1472              	.L236:
 1473 023a FFF7FEFF 		bl	port_halt
 1474              	.LVL127:
 1475 023e 9BF81820 		ldrb	r2, [fp, #24]	@ zero_extendqisi2
 1476              		.loc 1 812 0 discriminator 1
 1477 0242 0A2A     		cmp	r2, #10
 1478 0244 7FF40CAF 		bne	.L154
 1479              	.L237:
 1480 0248 FFF7FEFF 		bl	port_halt
 1481              	.LVL128:
 1482              		.loc 1 813 0 discriminator 1
 1483 024c 2878     		ldrb	r0, [r5, #0]	@ zero_extendqisi2
 1484 024e 9BF82110 		ldrb	r1, [fp, #33]	@ zero_extendqisi2
 1485 0252 8142     		cmp	r1, r0
 1486 0254 7FF40AAF 		bne	.L155
 1487              	.L238:
 1488              		.loc 1 815 0
 1489 0258 DBF80CB0 		ldr	fp, [fp, #12]
 1490              	.LVL129:
 1491              		.loc 1 808 0
 1492 025c BBF1000F 		cmp	fp, #0
 1493 0260 7FF4F3AE 		bne	.L149
 1494 0264 82E7     		b	.L184
 1495              	.LVL130:
 1496              	.L200:
 1497              		.loc 1 881 0
 1498 0266 062B     		cmp	r3, #6
 1499              		.loc 1 820 0
 1500 0268 4FF00009 		mov	r9, #0
 1501              	.LVL131:
 1502              		.loc 1 881 0
 1503 026c 7FF431AF 		bne	.L166
 1504              	.LVL132:
 1505              	.L239:
 1506              		.loc 1 883 0
 1507 0270 9BF81E30 		ldrb	r3, [fp, #30]	@ zero_extendqisi2
 1508 0274 03F01001 		and	r1, r3, #16
 1509 0278 CAB2     		uxtb	r2, r1
 1510 027a 002A     		cmp	r2, #0
 1511 027c 3FF435AF 		beq	.L203
 1512              		.loc 1 886 0
 1513 0280 2068     		ldr	r0, [r4, #0]
 1514 0282 DBF82430 		ldr	r3, [fp, #36]
 1515 0286 C11A     		subs	r1, r0, r3
 1516 0288 2829     		cmp	r1, #40
ARM GAS  C:\Users\jenny\AppData\Local\Temp\ccAyMdWJ.s 			page 28


 1517 028a 7FF62EAF 		bls	.L203
 1518              		.loc 1 888 0
 1519 028e 09F1010C 		add	ip, r9, #1
 1520 0292 5FFA8CF9 		uxtb	r9, ip
 1521              	.LVL133:
 1522 0296 28E7     		b	.L203
 1523              	.LVL134:
 1524              	.L161:
 1525              		.loc 1 844 0
 1526 0298 BBF83410 		ldrh	r1, [fp, #52]
 1527 029c 0804     		lsls	r0, r1, #16
 1528 029e 02D4     		bmi	.L163
 1529              		.loc 1 845 0
 1530 02a0 481C     		adds	r0, r1, #1
 1531 02a2 ABF83400 		strh	r0, [fp, #52]	@ movhi
 1532              	.L163:
 1533              		.loc 1 848 0
 1534 02a6 DBF87010 		ldr	r1, [fp, #112]
 1535 02aa 0029     		cmp	r1, #0
 1536 02ac DBD0     		beq	.L200
 1537              		.loc 1 848 0 is_stmt 0 discriminator 1
 1538 02ae BBF93400 		ldrsh	r0, [fp, #52]
 1539 02b2 BBF94410 		ldrsh	r1, [fp, #68]
 1540 02b6 8842     		cmp	r0, r1
 1541 02b8 D5DB     		blt	.L200
 1542              		.loc 1 856 0 is_stmt 1
 1543 02ba 022B     		cmp	r3, #2
 1544 02bc 0ED0     		beq	.L164
 1545              		.loc 1 857 0
 1546 02be 40F20000 		movw	r0, #:lower16:.LANCHOR10
 1547 02c2 C0F20000 		movt	r0, #:upper16:.LANCHOR10
 1548 02c6 BBF94010 		ldrsh	r1, [fp, #64]
 1549 02ca BBF94230 		ldrsh	r3, [fp, #66]
 1550 02ce 825C     		ldrb	r2, [r0, r2]	@ zero_extendqisi2
 1551 02d0 03EBE101 		add	r1, r3, r1, asr #3
 1552 02d4 01FA02F1 		lsl	r1, r1, r2
 1553 02d8 ABF84410 		strh	r1, [fp, #68]	@ movhi
 1554              	.L164:
 1555              		.loc 1 864 0
 1556 02dc BBF84C00 		ldrh	r0, [fp, #76]
 1557 02e0 BBF86020 		ldrh	r2, [fp, #96]
 1558              		.loc 1 866 0
 1559 02e4 BBF83630 		ldrh	r3, [fp, #54]
 1560              		.loc 1 861 0
 1561 02e8 ABF83480 		strh	r8, [fp, #52]	@ movhi
 1562              	.LVL135:
 1563              		.loc 1 865 0
 1564 02ec 9042     		cmp	r0, r2
 1565 02ee 38BF     		it	cc
 1566 02f0 0246     		movcc	r2, r0
 1567 02f2 5008     		lsrs	r0, r2, #1
 1568              		.loc 1 866 0
 1569 02f4 5900     		lsls	r1, r3, #1
 1570 02f6 8842     		cmp	r0, r1
 1571              		.loc 1 865 0
 1572 02f8 ABF84E00 		strh	r0, [fp, #78]	@ movhi
 1573              		.loc 1 869 0
ARM GAS  C:\Users\jenny\AppData\Local\Temp\ccAyMdWJ.s 			page 29


 1574 02fc ABF84C30 		strh	r3, [fp, #76]	@ movhi
 1575              		.loc 1 867 0
 1576 0300 B8BF     		it	lt
 1577 0302 ABF84E10 		strhlt	r1, [fp, #78]	@ movhi
 1578              		.loc 1 876 0
 1579 0306 5846     		mov	r0, fp
 1580 0308 FFF7FEFF 		bl	tcp_rexmit_rto
 1581              	.LVL136:
 1582              		.loc 1 820 0
 1583 030c 4FF00009 		mov	r9, #0
 1584 0310 9BF81830 		ldrb	r3, [fp, #24]	@ zero_extendqisi2
 1585 0314 DAE6     		b	.L160
 1586              	.L249:
 1587 0316 00BF     		.align	2
 1588              	.L248:
 1589 0318 00000000 		.word	.LANCHOR5
 1590 031c 00000000 		.word	.LANCHOR6
 1591 0320 00000000 		.word	.LANCHOR11
 1592 0324 00000000 		.word	.LANCHOR8
 1593              	.LVL137:
 1594              	.L241:
 1595              		.loc 1 931 0
 1596 0328 2068     		ldr	r0, [r4, #0]
 1597 032a DBF82410 		ldr	r1, [fp, #36]
 1598 032e 431A     		subs	r3, r0, r1
 1599 0330 282B     		cmp	r3, #40
 1600 0332 7FF6F2AE 		bls	.L173
 1601              		.loc 1 933 0
 1602 0336 09F10109 		add	r9, r9, #1
 1603              	.LVL138:
 1604 033a 5FFA89F9 		uxtb	r9, r9
 1605              	.LVL139:
 1606 033e ECE6     		b	.L173
 1607              	.LVL140:
 1608              	.L157:
 1609              		.loc 1 823 0 discriminator 1
 1610 0340 062A     		cmp	r2, #6
 1611 0342 7FF49CAE 		bne	.L158
 1612              		.loc 1 821 0
 1613 0346 4FF0000A 		mov	sl, #0
 1614              		.loc 1 824 0
 1615 034a 4FF00109 		mov	r9, #1
 1616 034e CEE6     		b	.L159
 1617              	.L197:
 1618              		.loc 1 828 0
 1619 0350 4FF00109 		mov	r9, #1
 1620 0354 BAE6     		b	.L160
 1621              	.LVL141:
 1622              	.L240:
 1623              		.loc 1 923 0
 1624 0356 FFF7FEFF 		bl	tcp_segs_free
 1625              	.LVL142:
 1626              		.loc 1 924 0
 1627 035a CBF87480 		str	r8, [fp, #116]
 1628 035e D5E6     		b	.L170
 1629              	.LVL143:
 1630              	.L168:
ARM GAS  C:\Users\jenny\AppData\Local\Temp\ccAyMdWJ.s 			page 30


 1631              		.loc 1 899 0
 1632 0360 DBF89030 		ldr	r3, [fp, #144]
 1633              		.loc 1 898 0
 1634 0364 2168     		ldr	r1, [r4, #0]
 1635 0366 DBF82420 		ldr	r2, [fp, #36]
 1636              		.loc 1 899 0
 1637 036a DDF810A0 		ldr	sl, [sp, #16]
 1638 036e 03F52420 		add	r0, r3, #671744
 1639 0372 00F6B840 		addw	r0, r0, #3256
 1640              		.loc 1 898 0
 1641 0376 8A1A     		subs	r2, r1, r2
 1642              		.loc 1 899 0
 1643 0378 AAFB00C1 		umull	ip, r1, sl, r0
 1644              		.loc 1 898 0
 1645 037c B2EB511F 		cmp	r2, r1, lsr #5
 1646 0380 16D9     		bls	.L169
 1647              		.loc 1 905 0
 1648 0382 09F10109 		add	r9, r9, #1
 1649              	.LVL144:
 1650 0386 5FFA89F9 		uxtb	r9, r9
 1651              	.LVL145:
 1652              		.loc 1 906 0
 1653 038a 4FF0010A 		mov	sl, #1
 1654 038e AEE6     		b	.L159
 1655              	.LVL146:
 1656              	.L243:
 1657              		.loc 1 1034 0
 1658 0390 2E46     		mov	r6, r5
 1659 0392 ED68     		ldr	r5, [r5, #12]
 1660              	.LVL147:
 1661              		.loc 1 1005 0
 1662 0394 002D     		cmp	r5, #0
 1663 0396 7FF4EDAE 		bne	.L150
 1664 039a 0BE7     		b	.L147
 1665              	.LVL148:
 1666              	.L183:
 1667              		.loc 1 995 0
 1668 039c 5846     		mov	r0, fp
 1669 039e 5E46     		mov	r6, fp
 1670              		.loc 1 981 0
 1671 03a0 D346     		mov	fp, sl
 1672              	.LVL149:
 1673              		.loc 1 995 0
 1674 03a2 FFF7FEFF 		bl	tcp_output
 1675              	.LVL150:
 1676              		.loc 1 808 0
 1677 03a6 BBF1000F 		cmp	fp, #0
 1678 03aa 7FF44EAE 		bne	.L149
 1679              	.LVL151:
 1680 03ae DDE6     		b	.L184
 1681              	.LVL152:
 1682              	.L169:
 1683              		.loc 1 909 0
 1684 03b0 DDF814C0 		ldr	ip, [sp, #20]
 1685 03b4 9BF89600 		ldrb	r0, [fp, #150]	@ zero_extendqisi2
 1686              		.loc 1 910 0
 1687 03b8 DDF810A0 		ldr	sl, [sp, #16]
ARM GAS  C:\Users\jenny\AppData\Local\Temp\ccAyMdWJ.s 			page 31


 1688              		.loc 1 909 0
 1689 03bc 0CFB0033 		mla	r3, ip, r0, r3
 1690              		.loc 1 910 0
 1691 03c0 AAFB03C1 		umull	ip, r1, sl, r3
 1692              		.loc 1 908 0
 1693 03c4 B2EB511F 		cmp	r2, r1, lsr #5
 1694 03c8 7FF68FAE 		bls	.L203
 1695              		.loc 1 912 0
 1696 03cc 5846     		mov	r0, fp
 1697 03ce FFF7FEFF 		bl	tcp_keepalive
 1698              	.LVL153:
 1699              		.loc 1 913 0
 1700 03d2 9BF89620 		ldrb	r2, [fp, #150]	@ zero_extendqisi2
 1701 03d6 501C     		adds	r0, r2, #1
 1702 03d8 8BF89600 		strb	r0, [fp, #150]
 1703 03dc 85E6     		b	.L203
 1704              	.LVL154:
 1705              	.L247:
 1706              	.LBB17:
 1707              		.loc 1 963 0
 1708 03de BBF81A20 		ldrh	r2, [fp, #26]
 1709 03e2 DBF85000 		ldr	r0, [fp, #80]
 1710 03e6 DBF82810 		ldr	r1, [fp, #40]
 1711 03ea 0092     		str	r2, [sp, #0]
 1712 03ec BBF81C30 		ldrh	r3, [fp, #28]
 1713 03f0 5A46     		mov	r2, fp
 1714 03f2 0193     		str	r3, [sp, #4]
 1715 03f4 0BF10403 		add	r3, fp, #4
 1716 03f8 FFF7FEFF 		bl	tcp_rst
 1717              	.LVL155:
 1718 03fc F8E6     		b	.L180
 1719              	.L176:
 1720              		.loc 1 958 0
 1721 03fe 40F20000 		movw	r0, #:lower16:.LANCHOR7
 1722 0402 C0F20000 		movt	r0, #:upper16:.LANCHOR7
 1723 0406 0368     		ldr	r3, [r0, #0]
 1724 0408 5B45     		cmp	r3, fp
 1725 040a 01D0     		beq	.L179
 1726              		.loc 1 958 0 is_stmt 0 discriminator 1
 1727 040c FFF7FEFF 		bl	port_halt
 1728              	.LVL156:
 1729              	.L179:
 1730              		.loc 1 959 0 is_stmt 1
 1731 0410 40F20002 		movw	r2, #:lower16:.LANCHOR7
 1732 0414 DBF80C10 		ldr	r1, [fp, #12]
 1733 0418 C0F20002 		movt	r2, #:upper16:.LANCHOR7
 1734 041c 1160     		str	r1, [r2, #0]
 1735 041e E3E6     		b	.L178
 1736              	.LVL157:
 1737              	.L244:
 1738              	.LBE17:
 1739              	.LBB18:
 1740              		.loc 1 1026 0
 1741 0420 3A68     		ldr	r2, [r7, #0]
 1742 0422 AA42     		cmp	r2, r5
 1743 0424 01D0     		beq	.L190
 1744              		.loc 1 1026 0 is_stmt 0 discriminator 1
ARM GAS  C:\Users\jenny\AppData\Local\Temp\ccAyMdWJ.s 			page 32


 1745 0426 FFF7FEFF 		bl	port_halt
 1746              	.LVL158:
 1747              	.L190:
 1748              		.loc 1 1027 0 is_stmt 1
 1749 042a D5F80C80 		ldr	r8, [r5, #12]
 1750 042e C7F80080 		str	r8, [r7, #0]
 1751 0432 B8E6     		b	.L189
 1752              	.LVL159:
 1753              	.L246:
 1754              	.LBE18:
 1755              	.LBB19:
 1756              		.loc 1 954 0 discriminator 1
 1757 0434 FFF7FEFF 		bl	port_halt
 1758              	.LVL160:
 1759 0438 D3E6     		b	.L177
 1760              	.LVL161:
 1761              	.L245:
 1762              	.LBE19:
 1763              	.LBB20:
 1764              		.loc 1 1022 0 discriminator 1
 1765 043a FFF7FEFF 		bl	port_halt
 1766              	.LVL162:
 1767 043e AEE6     		b	.L188
 1768              	.LBE20:
 1769              		.cfi_endproc
 1770              	.LFE21:
 1771              		.size	tcp_slowtmr, .-tcp_slowtmr
 1772              		.section	.text.tcp_pcb_remove,"ax",%progbits
 1773              		.align	2
 1774              		.p2align 4,,15
 1775              		.global	tcp_pcb_remove
 1776              		.thumb
 1777              		.thumb_func
 1778              		.type	tcp_pcb_remove, %function
 1779              	tcp_pcb_remove:
 1780              	.LFB40:
 1781              		.loc 1 1539 0
 1782              		.cfi_startproc
 1783              		@ args = 0, pretend = 0, frame = 0
 1784              		@ frame_needed = 0, uses_anonymous_args = 0
 1785              	.LVL163:
 1786              		.loc 1 1540 0
 1787 0000 0268     		ldr	r2, [r0, #0]
 1788 0002 8A42     		cmp	r2, r1
 1789              		.loc 1 1539 0
 1790 0004 10B5     		push	{r4, lr}
 1791              	.LCFI19:
 1792              		.cfi_def_cfa_offset 8
 1793              		.cfi_offset 4, -8
 1794              		.cfi_offset 14, -4
 1795              		.loc 1 1539 0
 1796 0006 0C46     		mov	r4, r1
 1797              		.loc 1 1540 0
 1798 0008 37D0     		beq	.L279
 1799              		.loc 1 1540 0 is_stmt 0 discriminator 2
 1800 000a 1E49     		ldr	r1, .L284
 1801              	.LVL164:
ARM GAS  C:\Users\jenny\AppData\Local\Temp\ccAyMdWJ.s 			page 33


 1802 000c 0A60     		str	r2, [r1, #0]
 1803 000e 52B1     		cbz	r2, .L252
 1804              		.loc 1 1540 0
 1805 0010 D368     		ldr	r3, [r2, #12]
 1806 0012 A342     		cmp	r3, r4
 1807 0014 34D0     		beq	.L280
 1808              		.loc 1 1540 0 discriminator 5
 1809 0016 2BB1     		cbz	r3, .L281
 1810              	.LVL165:
 1811              	.L257:
 1812              		.loc 1 1540 0 discriminator 7
 1813 0018 D868     		ldr	r0, [r3, #12]
 1814 001a A042     		cmp	r0, r4
 1815 001c 1FD0     		beq	.L282
 1816              		.loc 1 1540 0
 1817 001e 0346     		mov	r3, r0
 1818 0020 002B     		cmp	r3, #0
 1819 0022 F9D1     		bne	.L257
 1820              	.L281:
 1821 0024 0B60     		str	r3, [r1, #0]
 1822              	.L252:
 1823              		.loc 1 1540 0 discriminator 6
 1824 0026 0020     		movs	r0, #0
 1825 0028 E060     		str	r0, [r4, #12]
 1826              		.loc 1 1542 0 is_stmt 1 discriminator 6
 1827 002a 2046     		mov	r0, r4
 1828 002c FFF7FEFF 		bl	tcp_pcb_purge
 1829              	.LVL166:
 1830              		.loc 1 1545 0 discriminator 6
 1831 0030 237E     		ldrb	r3, [r4, #24]	@ zero_extendqisi2
 1832 0032 0A2B     		cmp	r3, #10
 1833 0034 04D0     		beq	.L264
 1834              		.loc 1 1545 0 is_stmt 0 discriminator 1
 1835 0036 012B     		cmp	r3, #1
 1836 0038 0ED0     		beq	.L263
 1837              		.loc 1 1547 0 is_stmt 1
 1838 003a A17F     		ldrb	r1, [r4, #30]	@ zero_extendqisi2
 1839              		.loc 1 1546 0
 1840 003c CA07     		lsls	r2, r1, #31
 1841 003e 12D4     		bmi	.L283
 1842              	.L264:
 1843              		.loc 1 1553 0
 1844 0040 E36E     		ldr	r3, [r4, #108]
 1845 0042 0BB1     		cbz	r3, .L261
 1846              		.loc 1 1553 0 is_stmt 0 discriminator 1
 1847 0044 FFF7FEFF 		bl	port_halt
 1848              	.LVL167:
 1849              	.L261:
 1850              		.loc 1 1554 0 is_stmt 1
 1851 0048 216F     		ldr	r1, [r4, #112]
 1852 004a 09B1     		cbz	r1, .L266
 1853              		.loc 1 1554 0 is_stmt 0 discriminator 1
 1854 004c FFF7FEFF 		bl	port_halt
 1855              	.LVL168:
 1856              	.L266:
 1857              		.loc 1 1556 0 is_stmt 1
 1858 0050 626F     		ldr	r2, [r4, #116]
ARM GAS  C:\Users\jenny\AppData\Local\Temp\ccAyMdWJ.s 			page 34


 1859 0052 0AB1     		cbz	r2, .L263
 1860              		.loc 1 1556 0 is_stmt 0 discriminator 1
 1861 0054 FFF7FEFF 		bl	port_halt
 1862              	.LVL169:
 1863              	.L263:
 1864              		.loc 1 1560 0 is_stmt 1
 1865 0058 0020     		movs	r0, #0
 1866 005a 2076     		strb	r0, [r4, #24]
 1867 005c 10BD     		pop	{r4, pc}
 1868              	.L282:
 1869 005e 0B60     		str	r3, [r1, #0]
 1870              	.L254:
 1871              		.loc 1 1540 0 discriminator 4
 1872 0060 E268     		ldr	r2, [r4, #12]
 1873 0062 DA60     		str	r2, [r3, #12]
 1874 0064 DFE7     		b	.L252
 1875              	.L283:
 1876              		.loc 1 1548 0
 1877 0066 41F00202 		orr	r2, r1, #2
 1878 006a A277     		strb	r2, [r4, #30]
 1879              		.loc 1 1549 0
 1880 006c 2046     		mov	r0, r4
 1881 006e FFF7FEFF 		bl	tcp_output
 1882              	.LVL170:
 1883              		.loc 1 1552 0
 1884 0072 207E     		ldrb	r0, [r4, #24]	@ zero_extendqisi2
 1885 0074 0128     		cmp	r0, #1
 1886 0076 E3D1     		bne	.L264
 1887 0078 EEE7     		b	.L263
 1888              	.LVL171:
 1889              	.L279:
 1890              		.loc 1 1540 0 discriminator 1
 1891 007a C968     		ldr	r1, [r1, #12]
 1892              	.LVL172:
 1893 007c 0160     		str	r1, [r0, #0]
 1894 007e D2E7     		b	.L252
 1895              	.L280:
 1896              		.loc 1 1540 0 is_stmt 0
 1897 0080 1346     		mov	r3, r2
 1898 0082 EDE7     		b	.L254
 1899              	.L285:
 1900              		.align	2
 1901              	.L284:
 1902 0084 00000000 		.word	.LANCHOR3
 1903              		.cfi_endproc
 1904              	.LFE40:
 1905              		.size	tcp_pcb_remove, .-tcp_pcb_remove
 1906 0088 AFF30080 		.section	.text.tcp_abandon,"ax",%progbits
 1906      AFF30080 
 1907              		.align	2
 1908              		.p2align 4,,15
 1909              		.global	tcp_abandon
 1910              		.thumb
 1911              		.thumb_func
 1912              		.type	tcp_abandon, %function
 1913              	tcp_abandon:
 1914              	.LFB12:
ARM GAS  C:\Users\jenny\AppData\Local\Temp\ccAyMdWJ.s 			page 35


 1915              		.loc 1 358 0 is_stmt 1
 1916              		.cfi_startproc
 1917              		@ args = 0, pretend = 0, frame = 0
 1918              		@ frame_needed = 0, uses_anonymous_args = 0
 1919              	.LVL173:
 1920 0000 2DE9F043 		push	{r4, r5, r6, r7, r8, r9, lr}
 1921              	.LCFI20:
 1922              		.cfi_def_cfa_offset 28
 1923              		.cfi_offset 4, -28
 1924              		.cfi_offset 5, -24
 1925              		.cfi_offset 6, -20
 1926              		.cfi_offset 7, -16
 1927              		.cfi_offset 8, -12
 1928              		.cfi_offset 9, -8
 1929              		.cfi_offset 14, -4
 1930              		.loc 1 366 0
 1931 0004 037E     		ldrb	r3, [r0, #24]	@ zero_extendqisi2
 1932 0006 012B     		cmp	r3, #1
 1933              		.loc 1 358 0
 1934 0008 83B0     		sub	sp, sp, #12
 1935              	.LCFI21:
 1936              		.cfi_def_cfa_offset 40
 1937              		.loc 1 358 0
 1938 000a 0446     		mov	r4, r0
 1939 000c 0E46     		mov	r6, r1
 1940              		.loc 1 366 0
 1941 000e 3ED0     		beq	.L309
 1942              	.LVL174:
 1943              	.L287:
 1944              		.loc 1 371 0
 1945 0010 0A2B     		cmp	r3, #10
 1946 0012 31D0     		beq	.L310
 1947              		.loc 1 381 0
 1948 0014 2048     		ldr	r0, .L312
 1949              		.loc 1 375 0
 1950 0016 D4F85090 		ldr	r9, [r4, #80]
 1951              	.LVL175:
 1952              		.loc 1 376 0
 1953 001a D4F82880 		ldr	r8, [r4, #40]
 1954              	.LVL176:
 1955              		.loc 1 378 0
 1956 001e D4F88C50 		ldr	r5, [r4, #140]
 1957              	.LVL177:
 1958              		.loc 1 380 0
 1959 0022 2769     		ldr	r7, [r4, #16]
 1960              	.LVL178:
 1961              		.loc 1 381 0
 1962 0024 2146     		mov	r1, r4
 1963 0026 FFF7FEFF 		bl	tcp_pcb_remove
 1964              	.LVL179:
 1965 002a 1C49     		ldr	r1, .L312+4
 1966              		.loc 1 382 0
 1967 002c 206F     		ldr	r0, [r4, #112]
 1968              		.loc 1 381 0
 1969 002e 0122     		movs	r2, #1
 1970 0030 0A70     		strb	r2, [r1, #0]
 1971              		.loc 1 382 0
ARM GAS  C:\Users\jenny\AppData\Local\Temp\ccAyMdWJ.s 			page 36


 1972 0032 08B1     		cbz	r0, .L289
 1973              		.loc 1 383 0
 1974 0034 FFF7FEFF 		bl	tcp_segs_free
 1975              	.LVL180:
 1976              	.L289:
 1977              		.loc 1 385 0
 1978 0038 E06E     		ldr	r0, [r4, #108]
 1979 003a 08B1     		cbz	r0, .L290
 1980              		.loc 1 386 0
 1981 003c FFF7FEFF 		bl	tcp_segs_free
 1982              	.LVL181:
 1983              	.L290:
 1984              		.loc 1 389 0
 1985 0040 606F     		ldr	r0, [r4, #116]
 1986 0042 08B1     		cbz	r0, .L291
 1987              		.loc 1 390 0
 1988 0044 FFF7FEFF 		bl	tcp_segs_free
 1989              	.LVL182:
 1990              	.L291:
 1991              		.loc 1 393 0
 1992 0048 5EB9     		cbnz	r6, .L311
 1993              	.L292:
 1994              		.loc 1 397 0
 1995 004a 0220     		movs	r0, #2
 1996 004c 2146     		mov	r1, r4
 1997 004e FFF7FEFF 		bl	memp_free
 1998              	.LVL183:
 1999              		.loc 1 398 0
 2000 0052 1DB1     		cbz	r5, .L286
 2001              		.loc 1 398 0 is_stmt 0 discriminator 1
 2002 0054 3846     		mov	r0, r7
 2003 0056 6FF00901 		mvn	r1, #9
 2004 005a A847     		blx	r5
 2005              	.LVL184:
 2006              	.L286:
 2007              		.loc 1 400 0 is_stmt 1
 2008 005c 03B0     		add	sp, sp, #12
 2009 005e BDE8F083 		pop	{r4, r5, r6, r7, r8, r9, pc}
 2010              	.L311:
 2011              		.loc 1 395 0
 2012 0062 628B     		ldrh	r2, [r4, #26]
 2013 0064 A38B     		ldrh	r3, [r4, #28]
 2014 0066 4846     		mov	r0, r9
 2015 0068 8DE80C00 		stmia	sp, {r2, r3}
 2016 006c 4146     		mov	r1, r8
 2017 006e 2246     		mov	r2, r4
 2018 0070 231D     		adds	r3, r4, #4
 2019 0072 FFF7FEFF 		bl	tcp_rst
 2020              	.LVL185:
 2021 0076 E8E7     		b	.L292
 2022              	.LVL186:
 2023              	.L310:
 2024              		.loc 1 372 0
 2025 0078 2146     		mov	r1, r4
 2026 007a 0948     		ldr	r0, .L312+8
 2027 007c FFF7FEFF 		bl	tcp_pcb_remove
 2028              	.LVL187:
ARM GAS  C:\Users\jenny\AppData\Local\Temp\ccAyMdWJ.s 			page 37


 2029              		.loc 1 373 0
 2030 0080 0220     		movs	r0, #2
 2031 0082 2146     		mov	r1, r4
 2032              		.loc 1 400 0
 2033 0084 03B0     		add	sp, sp, #12
 2034 0086 BDE8F043 		pop	{r4, r5, r6, r7, r8, r9, lr}
 2035              		.loc 1 373 0
 2036 008a FFF7FEBF 		b	memp_free
 2037              	.LVL188:
 2038              	.L309:
 2039              		.loc 1 366 0 discriminator 1
 2040 008e FFF7FEFF 		bl	port_halt
 2041              	.LVL189:
 2042 0092 237E     		ldrb	r3, [r4, #24]	@ zero_extendqisi2
 2043 0094 BCE7     		b	.L287
 2044              	.L313:
 2045 0096 00BF     		.align	2
 2046              	.L312:
 2047 0098 00000000 		.word	.LANCHOR7
 2048 009c 00000000 		.word	.LANCHOR11
 2049 00a0 00000000 		.word	.LANCHOR8
 2050              		.cfi_endproc
 2051              	.LFE12:
 2052              		.size	tcp_abandon, .-tcp_abandon
 2053 00a4 AFF30080 		.section	.text.tcp_abort,"ax",%progbits
 2053      AFF30080 
 2053      AFF30080 
 2054              		.align	2
 2055              		.p2align 4,,15
 2056              		.global	tcp_abort
 2057              		.thumb
 2058              		.thumb_func
 2059              		.type	tcp_abort, %function
 2060              	tcp_abort:
 2061              	.LFB13:
 2062              		.loc 1 414 0
 2063              		.cfi_startproc
 2064              		@ args = 0, pretend = 0, frame = 0
 2065              		@ frame_needed = 0, uses_anonymous_args = 0
 2066              		@ link register save eliminated.
 2067              	.LVL190:
 2068              		.loc 1 415 0
 2069 0000 0121     		movs	r1, #1
 2070              		.loc 1 416 0
 2071              		.loc 1 415 0
 2072 0002 FFF7FEBF 		b	tcp_abandon
 2073              	.LVL191:
 2074              		.cfi_endproc
 2075              	.LFE13:
 2076              		.size	tcp_abort, .-tcp_abort
 2077 0006 00BFAFF3 		.section	.text.tcp_alloc,"ax",%progbits
 2077      0080AFF3 
 2077      0080
 2078              		.align	2
 2079              		.p2align 4,,15
 2080              		.global	tcp_alloc
 2081              		.thumb
ARM GAS  C:\Users\jenny\AppData\Local\Temp\ccAyMdWJ.s 			page 38


 2082              		.thumb_func
 2083              		.type	tcp_alloc, %function
 2084              	tcp_alloc:
 2085              	.LFB31:
 2086              		.loc 1 1279 0
 2087              		.cfi_startproc
 2088              		@ args = 0, pretend = 0, frame = 0
 2089              		@ frame_needed = 0, uses_anonymous_args = 0
 2090              	.LVL192:
 2091 0000 2DE9F843 		push	{r3, r4, r5, r6, r7, r8, r9, lr}
 2092              	.LCFI22:
 2093              		.cfi_def_cfa_offset 32
 2094              		.cfi_offset 3, -32
 2095              		.cfi_offset 4, -28
 2096              		.cfi_offset 5, -24
 2097              		.cfi_offset 6, -20
 2098              		.cfi_offset 7, -16
 2099              		.cfi_offset 8, -12
 2100              		.cfi_offset 9, -8
 2101              		.cfi_offset 14, -4
 2102              		.loc 1 1279 0
 2103 0004 0746     		mov	r7, r0
 2104              		.loc 1 1283 0
 2105 0006 0220     		movs	r0, #2
 2106              	.LVL193:
 2107 0008 FFF7FEFF 		bl	memp_malloc
 2108              	.LVL194:
 2109              		.loc 1 1284 0
 2110 000c 0446     		mov	r4, r0
 2111 000e 0028     		cmp	r0, #0
 2112 0010 48D0     		beq	.L342
 2113              	.LVL195:
 2114              	.L316:
 2115              		.loc 1 1307 0
 2116 0012 0021     		movs	r1, #0
 2117 0014 9822     		movs	r2, #152
 2118 0016 2046     		mov	r0, r4
 2119 0018 FFF7FEFF 		bl	memset
 2120              	.LVL196:
 2121              	.LBB27:
 2122              	.LBB28:
 2123              		.loc 1 1575 0
 2124 001c 434E     		ldr	r6, .L344
 2125 001e 4448     		ldr	r0, .L344+4
 2126 0020 3368     		ldr	r3, [r6, #0]
 2127 0022 0568     		ldr	r5, [r0, #0]
 2128              	.LBE28:
 2129              	.LBE27:
 2130              		.loc 1 1329 0
 2131 0024 4349     		ldr	r1, .L344+8
 2132              		.loc 1 1308 0
 2133 0026 6776     		strb	r7, [r4, #25]
 2134              	.LBB31:
 2135              	.LBB29:
 2136              		.loc 1 1575 0
 2137 0028 EB18     		adds	r3, r5, r3
 2138              	.LBE29:
ARM GAS  C:\Users\jenny\AppData\Local\Temp\ccAyMdWJ.s 			page 39


 2139              	.LBE31:
 2140              		.loc 1 1311 0
 2141 002a 4FF4066C 		mov	ip, #2144
 2142              		.loc 1 1329 0
 2143 002e 91F80080 		ldrb	r8, [r1, #0]	@ zero_extendqisi2
 2144              		.loc 1 1311 0
 2145 0032 A4F82CC0 		strh	ip, [r4, #44]	@ movhi
 2146              		.loc 1 1310 0
 2147 0036 0021     		movs	r1, #0
 2148 0038 0A46     		mov	r2, r1	@ movhi
 2149              		.loc 1 1338 0
 2150 003a 4FF45D40 		mov	r0, #56576
 2151              		.loc 1 1310 0
 2152 003e A4F86810 		strh	r1, [r4, #104]	@ movhi
 2153              		.loc 1 1312 0
 2154 0042 A4F82EC0 		strh	ip, [r4, #46]	@ movhi
 2155              		.loc 1 1313 0
 2156 0046 6172     		strb	r1, [r4, #9]
 2157              		.loc 1 1314 0
 2158 0048 4FF0FF0C 		mov	ip, #255
 2159              		.loc 1 1319 0
 2160 004c A4F84010 		strh	r1, [r4, #64]	@ movhi
 2161              	.LBB32:
 2162              	.LBB30:
 2163              		.loc 1 1575 0
 2164 0050 3360     		str	r3, [r6, #0]
 2165              	.LBE30:
 2166              	.LBE32:
 2167              		.loc 1 1321 0
 2168 0052 4FF6FF71 		movw	r1, #65535
 2169              		.loc 1 1324 0
 2170 0056 A365     		str	r3, [r4, #88]
 2171              		.loc 1 1325 0
 2172 0058 2365     		str	r3, [r4, #80]
 2173              		.loc 1 1326 0
 2174 005a A364     		str	r3, [r4, #72]
 2175              		.loc 1 1327 0
 2176 005c E365     		str	r3, [r4, #92]
 2177              		.loc 1 1334 0
 2178 005e 364B     		ldr	r3, .L344+12
 2179              		.loc 1 1314 0
 2180 0060 84F80AC0 		strb	ip, [r4, #10]
 2181              		.loc 1 1318 0
 2182 0064 0627     		movs	r7, #6
 2183              		.loc 1 1338 0
 2184 0066 C0F26D00 		movt	r0, 109
 2185              		.loc 1 1309 0
 2186 006a 4FF48669 		mov	r9, #1072
 2187              		.loc 1 1317 0
 2188 006e 4FF4067C 		mov	ip, #536
 2189              		.loc 1 1321 0
 2190 0072 A186     		strh	r1, [r4, #52]	@ movhi
 2191              		.loc 1 1322 0
 2192 0074 0121     		movs	r1, #1
 2193              		.loc 1 1309 0
 2194 0076 A4F86690 		strh	r9, [r4, #102]	@ movhi
 2195              		.loc 1 1317 0
ARM GAS  C:\Users\jenny\AppData\Local\Temp\ccAyMdWJ.s 			page 40


 2196 007a A4F836C0 		strh	ip, [r4, #54]	@ movhi
 2197              		.loc 1 1318 0
 2198 007e A4F84470 		strh	r7, [r4, #68]	@ movhi
 2199              		.loc 1 1320 0
 2200 0082 A4F84270 		strh	r7, [r4, #66]	@ movhi
 2201              		.loc 1 1322 0
 2202 0086 A4F84C10 		strh	r1, [r4, #76]	@ movhi
 2203              		.loc 1 1328 0
 2204 008a 6562     		str	r5, [r4, #36]
 2205              		.loc 1 1329 0
 2206 008c 84F82180 		strb	r8, [r4, #33]
 2207              		.loc 1 1331 0
 2208 0090 E277     		strb	r2, [r4, #31]
 2209              		.loc 1 1334 0
 2210 0092 C4F88030 		str	r3, [r4, #128]
 2211              		.loc 1 1338 0
 2212 0096 C4F89000 		str	r0, [r4, #144]
 2213              		.loc 1 1345 0
 2214 009a 84F89620 		strb	r2, [r4, #150]
 2215              	.L333:
 2216              		.loc 1 1348 0
 2217 009e 2046     		mov	r0, r4
 2218 00a0 BDE8F883 		pop	{r3, r4, r5, r6, r7, r8, r9, pc}
 2219              	.LVL197:
 2220              	.L342:
 2221              	.LBB33:
 2222              	.LBB34:
 2223              		.loc 1 1258 0
 2224 00a4 254B     		ldr	r3, .L344+16
 2225 00a6 1B68     		ldr	r3, [r3, #0]
 2226              	.LVL198:
 2227 00a8 83B1     		cbz	r3, .L318
 2228              		.loc 1 1259 0
 2229 00aa 214A     		ldr	r2, .L344+4
 2230 00ac 596A     		ldr	r1, [r3, #36]
 2231 00ae 1468     		ldr	r4, [r2, #0]
 2232 00b0 1846     		mov	r0, r3
 2233              	.LVL199:
 2234 00b2 611A     		subs	r1, r4, r1
 2235 00b4 05E0     		b	.L341
 2236              	.LVL200:
 2237              	.L320:
 2238 00b6 5A6A     		ldr	r2, [r3, #36]
 2239 00b8 A21A     		subs	r2, r4, r2
 2240 00ba 8A42     		cmp	r2, r1
 2241 00bc 24BF     		itt	cs
 2242 00be 1146     		movcs	r1, r2
 2243              	.LVL201:
 2244 00c0 1846     		movcs	r0, r3
 2245              	.L341:
 2246              	.LVL202:
 2247              		.loc 1 1258 0
 2248 00c2 DB68     		ldr	r3, [r3, #12]
 2249              	.LVL203:
 2250 00c4 002B     		cmp	r3, #0
 2251 00c6 F6D1     		bne	.L320
 2252              		.loc 1 1267 0
ARM GAS  C:\Users\jenny\AppData\Local\Temp\ccAyMdWJ.s 			page 41


 2253 00c8 FFF7FEFF 		bl	tcp_abort
 2254              	.LVL204:
 2255              	.L318:
 2256              	.LBE34:
 2257              	.LBE33:
 2258              		.loc 1 1289 0
 2259 00cc 0220     		movs	r0, #2
 2260 00ce FFF7FEFF 		bl	memp_malloc
 2261              	.LVL205:
 2262              		.loc 1 1290 0
 2263 00d2 0446     		mov	r4, r0
 2264 00d4 30B1     		cbz	r0, .L343
 2265 00d6 1A48     		ldr	r0, .L344+20
 2266              	.LVL206:
 2267 00d8 B0F8CC50 		ldrh	r5, [r0, #204]
 2268              	.L326:
 2269              		.loc 1 1303 0
 2270 00dc 013D     		subs	r5, r5, #1
 2271 00de A0F8CC50 		strh	r5, [r0, #204]	@ movhi
 2272 00e2 96E7     		b	.L316
 2273              	.LVL207:
 2274              	.L343:
 2275              	.LBB35:
 2276              	.LBB36:
 2277              		.loc 1 1229 0
 2278 00e4 174B     		ldr	r3, .L344+24
 2279 00e6 1B68     		ldr	r3, [r3, #0]
 2280              	.LVL208:
 2281 00e8 A3B1     		cbz	r3, .L322
 2282              		.loc 1 1232 0
 2283 00ea 114E     		ldr	r6, .L344+4
 2284 00ec 3668     		ldr	r6, [r6, #0]
 2285              		.loc 1 1224 0
 2286 00ee 7F21     		movs	r1, #127
 2287              	.LVL209:
 2288              	.L324:
 2289              		.loc 1 1230 0
 2290 00f0 5A7E     		ldrb	r2, [r3, #25]	@ zero_extendqisi2
 2291 00f2 9742     		cmp	r7, r2
 2292 00f4 08D3     		bcc	.L323
 2293 00f6 9142     		cmp	r1, r2
 2294 00f8 06D3     		bcc	.L323
 2295              		.loc 1 1232 0
 2296 00fa 5D6A     		ldr	r5, [r3, #36]
 2297 00fc 751B     		subs	r5, r6, r5
 2298              		.loc 1 1231 0
 2299 00fe AC42     		cmp	r4, r5
 2300 0100 02D8     		bhi	.L323
 2301 0102 1846     		mov	r0, r3
 2302 0104 1146     		mov	r1, r2
 2303 0106 2C46     		mov	r4, r5
 2304              	.L323:
 2305              	.LVL210:
 2306              		.loc 1 1229 0
 2307 0108 DB68     		ldr	r3, [r3, #12]
 2308              	.LVL211:
 2309 010a 002B     		cmp	r3, #0
ARM GAS  C:\Users\jenny\AppData\Local\Temp\ccAyMdWJ.s 			page 42


 2310 010c F0D1     		bne	.L324
 2311              		.loc 1 1238 0
 2312 010e 08B1     		cbz	r0, .L322
 2313              		.loc 1 1241 0
 2314 0110 FFF7FEFF 		bl	tcp_abort
 2315              	.LVL212:
 2316              	.L322:
 2317              	.LBE36:
 2318              	.LBE35:
 2319              		.loc 1 1295 0
 2320 0114 0220     		movs	r0, #2
 2321 0116 FFF7FEFF 		bl	memp_malloc
 2322              	.LVL213:
 2323              		.loc 1 1296 0
 2324 011a 0446     		mov	r4, r0
 2325 011c 0028     		cmp	r0, #0
 2326 011e BED0     		beq	.L333
 2327              		.loc 1 1298 0
 2328 0120 0748     		ldr	r0, .L344+20
 2329              	.LVL214:
 2330 0122 B0F8CC60 		ldrh	r6, [r0, #204]
 2331 0126 721E     		subs	r2, r6, #1
 2332 0128 95B2     		uxth	r5, r2
 2333 012a D7E7     		b	.L326
 2334              	.L345:
 2335              		.align	2
 2336              	.L344:
 2337 012c 00000000 		.word	.LANCHOR12
 2338 0130 00000000 		.word	.LANCHOR5
 2339 0134 00000000 		.word	.LANCHOR6
 2340 0138 00000000 		.word	tcp_recv_null
 2341 013c 00000000 		.word	.LANCHOR8
 2342 0140 00000000 		.word	lwip_stats
 2343 0144 00000000 		.word	.LANCHOR7
 2344              		.cfi_endproc
 2345              	.LFE31:
 2346              		.size	tcp_alloc, .-tcp_alloc
 2347 0148 AFF30080 		.section	.text.tcp_new,"ax",%progbits
 2347      AFF30080 
 2348              		.align	2
 2349              		.p2align 4,,15
 2350              		.global	tcp_new
 2351              		.thumb
 2352              		.thumb_func
 2353              		.type	tcp_new, %function
 2354              	tcp_new:
 2355              	.LFB32:
 2356              		.loc 1 1364 0
 2357              		.cfi_startproc
 2358              		@ args = 0, pretend = 0, frame = 0
 2359              		@ frame_needed = 0, uses_anonymous_args = 0
 2360              		@ link register save eliminated.
 2361              		.loc 1 1365 0
 2362 0000 4020     		movs	r0, #64
 2363              		.loc 1 1366 0
 2364              		.loc 1 1365 0
 2365 0002 FFF7FEBF 		b	tcp_alloc
ARM GAS  C:\Users\jenny\AppData\Local\Temp\ccAyMdWJ.s 			page 43


 2366              	.LVL215:
 2367              		.cfi_endproc
 2368              	.LFE32:
 2369              		.size	tcp_new, .-tcp_new
 2370 0006 00BFAFF3 		.section	.text.tcp_close_shutdown,"ax",%progbits
 2370      0080AFF3 
 2370      0080
 2371              		.align	2
 2372              		.p2align 4,,15
 2373              		.thumb
 2374              		.thumb_func
 2375              		.type	tcp_close_shutdown, %function
 2376              	tcp_close_shutdown:
 2377              	.LFB9:
 2378              		.loc 1 171 0
 2379              		.cfi_startproc
 2380              		@ args = 0, pretend = 0, frame = 0
 2381              		@ frame_needed = 0, uses_anonymous_args = 0
 2382              	.LVL216:
 2383 0000 30B5     		push	{r4, r5, lr}
 2384              	.LCFI23:
 2385              		.cfi_def_cfa_offset 12
 2386              		.cfi_offset 4, -12
 2387              		.cfi_offset 5, -8
 2388              		.cfi_offset 14, -4
 2389              		.loc 1 174 0
 2390 0002 037E     		ldrb	r3, [r0, #24]	@ zero_extendqisi2
 2391              		.loc 1 171 0
 2392 0004 83B0     		sub	sp, sp, #12
 2393              	.LCFI24:
 2394              		.cfi_def_cfa_offset 24
 2395              		.loc 1 171 0
 2396 0006 0446     		mov	r4, r0
 2397              		.loc 1 174 0
 2398 0008 19B1     		cbz	r1, .L350
 2399              		.loc 1 174 0 is_stmt 0 discriminator 1
 2400 000a 042B     		cmp	r3, #4
 2401 000c 16D0     		beq	.L349
 2402 000e 072B     		cmp	r3, #7
 2403 0010 14D0     		beq	.L349
 2404              	.LVL217:
 2405              	.L350:
 2406              		.loc 1 199 0 is_stmt 1
 2407 0012 072B     		cmp	r3, #7
 2408 0014 0ED8     		bhi	.L398
 2409 0016 DFE803F0 		tbb	[pc, r3]
 2410              	.L370:
 2411 001a 3A       		.byte	(.L364-.L370)/2
 2412 001b 4F       		.byte	(.L365-.L370)/2
 2413 001c 58       		.byte	(.L366-.L370)/2
 2414 001d 04       		.byte	(.L368-.L370)/2
 2415 001e 04       		.byte	(.L368-.L370)/2
 2416 001f 0D       		.byte	(.L398-.L370)/2
 2417 0020 0D       		.byte	(.L398-.L370)/2
 2418 0021 64       		.byte	(.L369-.L370)/2
 2419              		.align	1
 2420              	.L368:
ARM GAS  C:\Users\jenny\AppData\Local\Temp\ccAyMdWJ.s 			page 44


 2421              		.loc 1 236 0
 2422 0022 2046     		mov	r0, r4
 2423 0024 FFF7FEFF 		bl	tcp_send_fin
 2424              	.LVL218:
 2425              		.loc 1 237 0
 2426 0028 28B9     		cbnz	r0, .L362
 2427              		.loc 1 239 0
 2428 002a 0521     		movs	r1, #5
 2429 002c 2176     		strb	r1, [r4, #24]
 2430              	.L381:
 2431              	.LVL219:
 2432              		.loc 1 265 0
 2433 002e 2046     		mov	r0, r4
 2434 0030 FFF7FEFF 		bl	tcp_output
 2435              	.LVL220:
 2436              	.L398:
 2437 0034 0020     		movs	r0, #0
 2438              	.L362:
 2439 0036 40B2     		sxtb	r0, r0
 2440              		.loc 1 268 0
 2441 0038 03B0     		add	sp, sp, #12
 2442 003a 30BD     		pop	{r4, r5, pc}
 2443              	.LVL221:
 2444              	.L349:
 2445              		.loc 1 175 0
 2446 003c A26F     		ldr	r2, [r4, #120]
 2447 003e 002A     		cmp	r2, #0
 2448 0040 00F08980 		beq	.L401
 2449              	.LVL222:
 2450              	.L351:
 2451              		.loc 1 178 0
 2452 0044 A57F     		ldrb	r5, [r4, #30]	@ zero_extendqisi2
 2453 0046 05F01003 		and	r3, r5, #16
 2454 004a DAB2     		uxtb	r2, r3
 2455 004c 002A     		cmp	r2, #0
 2456 004e 50D0     		beq	.L402
 2457              	.LVL223:
 2458              	.L352:
 2459              		.loc 1 182 0
 2460 0050 638B     		ldrh	r3, [r4, #26]
 2461 0052 A58B     		ldrh	r5, [r4, #28]
 2462 0054 206D     		ldr	r0, [r4, #80]
 2463 0056 A16A     		ldr	r1, [r4, #40]
 2464 0058 0093     		str	r3, [sp, #0]
 2465 005a 2246     		mov	r2, r4
 2466 005c 231D     		adds	r3, r4, #4
 2467 005e 0195     		str	r5, [sp, #4]
 2468 0060 FFF7FEFF 		bl	tcp_rst
 2469              	.LVL224:
 2470              		.loc 1 185 0
 2471 0064 2046     		mov	r0, r4
 2472 0066 FFF7FEFF 		bl	tcp_pcb_purge
 2473              	.LVL225:
 2474              		.loc 1 186 0
 2475 006a 4048     		ldr	r0, .L412
 2476 006c 0268     		ldr	r2, [r0, #0]
 2477 006e A242     		cmp	r2, r4
ARM GAS  C:\Users\jenny\AppData\Local\Temp\ccAyMdWJ.s 			page 45


 2478 0070 68D0     		beq	.L403
 2479              		.loc 1 186 0 is_stmt 0 discriminator 2
 2480 0072 3F49     		ldr	r1, .L412+4
 2481 0074 0A60     		str	r2, [r1, #0]
 2482 0076 002A     		cmp	r2, #0
 2483 0078 41D0     		beq	.L354
 2484              		.loc 1 186 0
 2485 007a D368     		ldr	r3, [r2, #12]
 2486 007c A342     		cmp	r3, r4
 2487 007e 64D0     		beq	.L404
 2488              	.L395:
 2489              		.loc 1 186 0 discriminator 5
 2490 0080 002B     		cmp	r3, #0
 2491 0082 53D0     		beq	.L405
 2492              		.loc 1 186 0 discriminator 7
 2493 0084 DD68     		ldr	r5, [r3, #12]
 2494 0086 A542     		cmp	r5, r4
 2495 0088 36D0     		beq	.L406
 2496              		.loc 1 186 0
 2497 008a 2B46     		mov	r3, r5
 2498 008c F8E7     		b	.L395
 2499              	.LVL226:
 2500              	.L364:
 2501              		.loc 1 209 0 is_stmt 1
 2502 008e 608B     		ldrh	r0, [r4, #26]
 2503 0090 0028     		cmp	r0, #0
 2504 0092 46D0     		beq	.L371
 2505              		.loc 1 210 0
 2506 0094 3749     		ldr	r1, .L412+8
 2507              	.LVL227:
 2508 0096 0A68     		ldr	r2, [r1, #0]
 2509 0098 A242     		cmp	r2, r4
 2510 009a 3ED0     		beq	.L407
 2511              		.loc 1 210 0 is_stmt 0 discriminator 2
 2512 009c 3448     		ldr	r0, .L412+4
 2513 009e 0260     		str	r2, [r0, #0]
 2514 00a0 002A     		cmp	r2, #0
 2515 00a2 3CD0     		beq	.L373
 2516              		.loc 1 210 0
 2517 00a4 D368     		ldr	r3, [r2, #12]
 2518 00a6 A342     		cmp	r3, r4
 2519 00a8 51D0     		beq	.L408
 2520              	.L396:
 2521              		.loc 1 210 0 discriminator 5
 2522 00aa 002B     		cmp	r3, #0
 2523 00ac 59D0     		beq	.L409
 2524              		.loc 1 210 0 discriminator 7
 2525 00ae D968     		ldr	r1, [r3, #12]
 2526 00b0 A142     		cmp	r1, r4
 2527 00b2 58D0     		beq	.L410
 2528              		.loc 1 210 0
 2529 00b4 0B46     		mov	r3, r1
 2530 00b6 F8E7     		b	.L396
 2531              	.LVL228:
 2532              	.L365:
 2533              		.loc 1 217 0 is_stmt 1
 2534 00b8 2146     		mov	r1, r4
ARM GAS  C:\Users\jenny\AppData\Local\Temp\ccAyMdWJ.s 			page 46


 2535              	.LVL229:
 2536 00ba 2F48     		ldr	r0, .L412+12
 2537 00bc FFF7FEFF 		bl	tcp_pcb_remove
 2538              	.LVL230:
 2539              		.loc 1 218 0
 2540 00c0 0320     		movs	r0, #3
 2541 00c2 2146     		mov	r1, r4
 2542 00c4 FFF7FEFF 		bl	memp_free
 2543              	.LVL231:
 2544              		.loc 1 220 0
 2545 00c8 B4E7     		b	.L398
 2546              	.LVL232:
 2547              	.L366:
 2548              		.loc 1 223 0
 2549 00ca 2146     		mov	r1, r4
 2550              	.LVL233:
 2551 00cc 2748     		ldr	r0, .L412
 2552 00ce FFF7FEFF 		bl	tcp_pcb_remove
 2553              	.LVL234:
 2554 00d2 2A4B     		ldr	r3, .L412+16
 2555 00d4 0122     		movs	r2, #1
 2556              		.loc 1 224 0
 2557 00d6 0220     		movs	r0, #2
 2558 00d8 2146     		mov	r1, r4
 2559              		.loc 1 223 0
 2560 00da 1A70     		strb	r2, [r3, #0]
 2561              		.loc 1 224 0
 2562 00dc FFF7FEFF 		bl	memp_free
 2563              	.LVL235:
 2564              		.loc 1 227 0
 2565 00e0 A8E7     		b	.L398
 2566              	.LVL236:
 2567              	.L369:
 2568              		.loc 1 243 0
 2569 00e2 2046     		mov	r0, r4
 2570 00e4 FFF7FEFF 		bl	tcp_send_fin
 2571              	.LVL237:
 2572              		.loc 1 244 0
 2573 00e8 0028     		cmp	r0, #0
 2574 00ea A4D1     		bne	.L362
 2575              		.loc 1 246 0
 2576 00ec 0923     		movs	r3, #9
 2577 00ee 2376     		strb	r3, [r4, #24]
 2578 00f0 9DE7     		b	.L381
 2579              	.LVL238:
 2580              	.L402:
 2581              		.loc 1 178 0 discriminator 1
 2582 00f2 FFF7FEFF 		bl	port_halt
 2583              	.LVL239:
 2584 00f6 ABE7     		b	.L352
 2585              	.L406:
 2586 00f8 0B60     		str	r3, [r1, #0]
 2587              	.L356:
 2588              		.loc 1 186 0 discriminator 4
 2589 00fa E068     		ldr	r0, [r4, #12]
 2590 00fc D860     		str	r0, [r3, #12]
 2591              	.L354:
ARM GAS  C:\Users\jenny\AppData\Local\Temp\ccAyMdWJ.s 			page 47


 2592              		.loc 1 187 0 discriminator 6
 2593 00fe 237E     		ldrb	r3, [r4, #24]	@ zero_extendqisi2
 2594              		.loc 1 186 0 discriminator 6
 2595 0100 1E48     		ldr	r0, .L412+16
 2596 0102 0025     		movs	r5, #0
 2597 0104 0121     		movs	r1, #1
 2598              		.loc 1 187 0 discriminator 6
 2599 0106 042B     		cmp	r3, #4
 2600              		.loc 1 186 0 discriminator 6
 2601 0108 E560     		str	r5, [r4, #12]
 2602 010a 0170     		strb	r1, [r0, #0]
 2603              		.loc 1 187 0 discriminator 6
 2604 010c 10D0     		beq	.L411
 2605              		.loc 1 193 0
 2606 010e 0220     		movs	r0, #2
 2607 0110 2146     		mov	r1, r4
 2608 0112 FFF7FEFF 		bl	memp_free
 2609              	.LVL240:
 2610              		.loc 1 195 0
 2611 0116 2846     		mov	r0, r5
 2612 0118 8DE7     		b	.L362
 2613              	.LVL241:
 2614              	.L407:
 2615              		.loc 1 210 0 discriminator 1
 2616 011a E068     		ldr	r0, [r4, #12]
 2617 011c 0860     		str	r0, [r1, #0]
 2618              	.L373:
 2619              		.loc 1 210 0 is_stmt 0 discriminator 6
 2620 011e 0021     		movs	r1, #0
 2621 0120 E160     		str	r1, [r4, #12]
 2622              	.L371:
 2623              		.loc 1 212 0 is_stmt 1
 2624 0122 0220     		movs	r0, #2
 2625 0124 2146     		mov	r1, r4
 2626 0126 FFF7FEFF 		bl	memp_free
 2627              	.LVL242:
 2628              		.loc 1 214 0
 2629 012a 83E7     		b	.L398
 2630              	.LVL243:
 2631              	.L405:
 2632 012c 0B60     		str	r3, [r1, #0]
 2633 012e E6E7     		b	.L354
 2634              	.L411:
 2635              		.loc 1 190 0
 2636 0130 134B     		ldr	r3, .L412+20
 2637 0132 1A68     		ldr	r2, [r3, #0]
 2638 0134 1C60     		str	r4, [r3, #0]
 2639              		.loc 1 189 0
 2640 0136 0A21     		movs	r1, #10
 2641 0138 2176     		strb	r1, [r4, #24]
 2642              		.loc 1 190 0
 2643 013a E260     		str	r2, [r4, #12]
 2644 013c FFF7FEFF 		bl	tcp_timer_needed
 2645              	.LVL244:
 2646              		.loc 1 195 0
 2647 0140 2846     		mov	r0, r5
 2648 0142 78E7     		b	.L362
ARM GAS  C:\Users\jenny\AppData\Local\Temp\ccAyMdWJ.s 			page 48


 2649              	.L403:
 2650              		.loc 1 186 0 discriminator 1
 2651 0144 E268     		ldr	r2, [r4, #12]
 2652 0146 0260     		str	r2, [r0, #0]
 2653 0148 D9E7     		b	.L354
 2654              	.L404:
 2655              		.loc 1 186 0 is_stmt 0
 2656 014a 1346     		mov	r3, r2
 2657 014c D5E7     		b	.L356
 2658              	.LVL245:
 2659              	.L408:
 2660              		.loc 1 210 0 is_stmt 1
 2661 014e 1346     		mov	r3, r2
 2662              	.L375:
 2663              		.loc 1 210 0 is_stmt 0 discriminator 4
 2664 0150 E268     		ldr	r2, [r4, #12]
 2665 0152 DA60     		str	r2, [r3, #12]
 2666 0154 E3E7     		b	.L373
 2667              	.LVL246:
 2668              	.L401:
 2669              		.loc 1 175 0 is_stmt 1 discriminator 1
 2670 0156 A08D     		ldrh	r0, [r4, #44]
 2671              	.LVL247:
 2672 0158 B0F5066F 		cmp	r0, #2144
 2673 015c 7FF472AF 		bne	.L351
 2674 0160 57E7     		b	.L350
 2675              	.LVL248:
 2676              	.L409:
 2677 0162 0360     		str	r3, [r0, #0]
 2678 0164 DBE7     		b	.L373
 2679              	.L410:
 2680 0166 0360     		str	r3, [r0, #0]
 2681 0168 F2E7     		b	.L375
 2682              	.L413:
 2683 016a 00BF     		.align	2
 2684              	.L412:
 2685 016c 00000000 		.word	.LANCHOR7
 2686 0170 00000000 		.word	.LANCHOR3
 2687 0174 00000000 		.word	.LANCHOR2
 2688 0178 00000000 		.word	.LANCHOR4
 2689 017c 00000000 		.word	.LANCHOR11
 2690 0180 00000000 		.word	.LANCHOR8
 2691              		.cfi_endproc
 2692              	.LFE9:
 2693              		.size	tcp_close_shutdown, .-tcp_close_shutdown
 2694 0184 AFF30080 		.section	.text.tcp_shutdown,"ax",%progbits
 2694      AFF30080 
 2694      AFF30080 
 2695              		.align	2
 2696              		.p2align 4,,15
 2697              		.global	tcp_shutdown
 2698              		.thumb
 2699              		.thumb_func
 2700              		.type	tcp_shutdown, %function
 2701              	tcp_shutdown:
 2702              	.LFB11:
 2703              		.loc 1 314 0
ARM GAS  C:\Users\jenny\AppData\Local\Temp\ccAyMdWJ.s 			page 49


 2704              		.cfi_startproc
 2705              		@ args = 0, pretend = 0, frame = 0
 2706              		@ frame_needed = 0, uses_anonymous_args = 0
 2707              	.LVL249:
 2708              		.loc 1 315 0
 2709 0000 037E     		ldrb	r3, [r0, #24]	@ zero_extendqisi2
 2710 0002 012B     		cmp	r3, #1
 2711              		.loc 1 314 0
 2712 0004 70B5     		push	{r4, r5, r6, lr}
 2713              	.LCFI25:
 2714              		.cfi_def_cfa_offset 16
 2715              		.cfi_offset 4, -16
 2716              		.cfi_offset 5, -12
 2717              		.cfi_offset 6, -8
 2718              		.cfi_offset 14, -4
 2719              		.loc 1 314 0
 2720 0006 0446     		mov	r4, r0
 2721 0008 0E46     		mov	r6, r1
 2722 000a 1546     		mov	r5, r2
 2723              		.loc 1 315 0
 2724 000c 11D0     		beq	.L422
 2725              		.loc 1 318 0
 2726 000e 61B1     		cbz	r1, .L416
 2727              		.loc 1 320 0
 2728 0010 817F     		ldrb	r1, [r0, #30]	@ zero_extendqisi2
 2729              	.LVL250:
 2730 0012 41F01002 		orr	r2, r1, #16
 2731              	.LVL251:
 2732 0016 8277     		strb	r2, [r0, #30]
 2733              		.loc 1 321 0
 2734 0018 C5B9     		cbnz	r5, .L427
 2735              		.loc 1 326 0
 2736 001a 806F     		ldr	r0, [r0, #120]
 2737              	.LVL252:
 2738 001c 10B1     		cbz	r0, .L418
 2739              		.loc 1 327 0
 2740 001e FFF7FEFF 		bl	pbuf_free
 2741              	.LVL253:
 2742              		.loc 1 328 0
 2743 0022 A567     		str	r5, [r4, #120]
 2744              	.L418:
 2745              		.loc 1 345 0
 2746 0024 0020     		movs	r0, #0
 2747              	.L415:
 2748 0026 40B2     		sxtb	r0, r0
 2749 0028 70BD     		pop	{r4, r5, r6, pc}
 2750              	.LVL254:
 2751              	.L416:
 2752              		.loc 1 331 0
 2753 002a 002A     		cmp	r2, #0
 2754 002c FAD0     		beq	.L418
 2755              		.loc 1 334 0
 2756 002e 072B     		cmp	r3, #7
 2757 0030 01D9     		bls	.L428
 2758              	.LVL255:
 2759              	.L422:
 2760              		.loc 1 342 0
ARM GAS  C:\Users\jenny\AppData\Local\Temp\ccAyMdWJ.s 			page 50


 2761 0032 F320     		movs	r0, #243
 2762              	.LVL256:
 2763 0034 F7E7     		b	.L415
 2764              	.LVL257:
 2765              	.L428:
 2766              		.loc 1 334 0
 2767 0036 0122     		movs	r2, #1
 2768              	.LVL258:
 2769 0038 5BB2     		sxtb	r3, r3
 2770 003a 02FA03F3 		lsl	r3, r2, r3
 2771 003e 13F0980F 		tst	r3, #152
 2772 0042 F6D0     		beq	.L422
 2773              		.loc 1 346 0
 2774 0044 BDE87040 		pop	{r4, r5, r6, lr}
 2775              		.loc 1 338 0
 2776 0048 FFF7FEBF 		b	tcp_close_shutdown
 2777              	.LVL259:
 2778              	.L427:
 2779              		.loc 1 323 0
 2780 004c 0121     		movs	r1, #1
 2781              		.loc 1 346 0
 2782 004e BDE87040 		pop	{r4, r5, r6, lr}
 2783              		.loc 1 323 0
 2784 0052 FFF7FEBF 		b	tcp_close_shutdown
 2785              	.LVL260:
 2786              		.cfi_endproc
 2787              	.LFE11:
 2788              		.size	tcp_shutdown, .-tcp_shutdown
 2789 0056 00BFAFF3 		.section	.text.tcp_close,"ax",%progbits
 2789      0080AFF3 
 2789      0080
 2790              		.align	2
 2791              		.p2align 4,,15
 2792              		.global	tcp_close
 2793              		.thumb
 2794              		.thumb_func
 2795              		.type	tcp_close, %function
 2796              	tcp_close:
 2797              	.LFB10:
 2798              		.loc 1 286 0
 2799              		.cfi_startproc
 2800              		@ args = 0, pretend = 0, frame = 0
 2801              		@ frame_needed = 0, uses_anonymous_args = 0
 2802              		@ link register save eliminated.
 2803              	.LVL261:
 2804              		.loc 1 292 0
 2805 0000 037E     		ldrb	r3, [r0, #24]	@ zero_extendqisi2
 2806 0002 012B     		cmp	r3, #1
 2807 0004 03D0     		beq	.L430
 2808              		.loc 1 294 0
 2809 0006 817F     		ldrb	r1, [r0, #30]	@ zero_extendqisi2
 2810 0008 41F01002 		orr	r2, r1, #16
 2811 000c 8277     		strb	r2, [r0, #30]
 2812              	.L430:
 2813              		.loc 1 297 0
 2814 000e 0121     		movs	r1, #1
 2815              		.loc 1 298 0
ARM GAS  C:\Users\jenny\AppData\Local\Temp\ccAyMdWJ.s 			page 51


 2816              		.loc 1 297 0
 2817 0010 FFF7FEBF 		b	tcp_close_shutdown
 2818              	.LVL262:
 2819              		.cfi_endproc
 2820              	.LFE10:
 2821              		.size	tcp_close, .-tcp_close
 2822 0014 AFF30080 		.section	.text.tcp_recv_null,"ax",%progbits
 2822      AFF30080 
 2822      AFF30080 
 2823              		.align	2
 2824              		.p2align 4,,15
 2825              		.global	tcp_recv_null
 2826              		.thumb
 2827              		.thumb_func
 2828              		.type	tcp_recv_null, %function
 2829              	tcp_recv_null:
 2830              	.LFB28:
 2831              		.loc 1 1198 0
 2832              		.cfi_startproc
 2833              		@ args = 0, pretend = 0, frame = 0
 2834              		@ frame_needed = 0, uses_anonymous_args = 0
 2835              	.LVL263:
 2836 0000 10B5     		push	{r4, lr}
 2837              	.LCFI26:
 2838              		.cfi_def_cfa_offset 8
 2839              		.cfi_offset 4, -8
 2840              		.cfi_offset 14, -4
 2841              		.loc 1 1200 0
 2842 0002 1446     		mov	r4, r2
 2843 0004 42B1     		cbz	r2, .L435
 2844              		.loc 1 1201 0
 2845 0006 0846     		mov	r0, r1
 2846              	.LVL264:
 2847 0008 1189     		ldrh	r1, [r2, #8]
 2848              	.LVL265:
 2849 000a FFF7FEFF 		bl	tcp_recved
 2850              	.LVL266:
 2851              		.loc 1 1202 0
 2852 000e 2046     		mov	r0, r4
 2853 0010 FFF7FEFF 		bl	pbuf_free
 2854              	.LVL267:
 2855              	.L436:
 2856              		.loc 1 1207 0
 2857 0014 0020     		movs	r0, #0
 2858 0016 10BD     		pop	{r4, pc}
 2859              	.LVL268:
 2860              	.L435:
 2861              	.LBB39:
 2862              	.LBB40:
 2863              		.loc 1 1203 0
 2864 0018 002B     		cmp	r3, #0
 2865 001a FBD1     		bne	.L436
 2866              		.loc 1 1204 0
 2867 001c 0846     		mov	r0, r1
 2868              	.LVL269:
 2869              	.LBE40:
 2870              	.LBE39:
ARM GAS  C:\Users\jenny\AppData\Local\Temp\ccAyMdWJ.s 			page 52


 2871              		.loc 1 1207 0
 2872 001e BDE81040 		pop	{r4, lr}
 2873              	.LBB42:
 2874              	.LBB41:
 2875              		.loc 1 1204 0
 2876 0022 FFF7FEBF 		b	tcp_close
 2877              	.LVL270:
 2878              	.LBE41:
 2879              	.LBE42:
 2880              		.cfi_endproc
 2881              	.LFE28:
 2882              		.size	tcp_recv_null, .-tcp_recv_null
 2883 0026 00BFAFF3 		.section	.text.tcp_process_refused_data,"ax",%progbits
 2883      0080AFF3 
 2883      0080
 2884              		.align	2
 2885              		.p2align 4,,15
 2886              		.global	tcp_process_refused_data
 2887              		.thumb
 2888              		.thumb_func
 2889              		.type	tcp_process_refused_data, %function
 2890              	tcp_process_refused_data:
 2891              	.LFB23:
 2892              		.loc 1 1086 0
 2893              		.cfi_startproc
 2894              		@ args = 0, pretend = 0, frame = 0
 2895              		@ frame_needed = 0, uses_anonymous_args = 0
 2896              	.LVL271:
 2897 0000 F8B5     		push	{r3, r4, r5, r6, r7, lr}
 2898              	.LCFI27:
 2899              		.cfi_def_cfa_offset 24
 2900              		.cfi_offset 3, -24
 2901              		.cfi_offset 4, -20
 2902              		.cfi_offset 5, -16
 2903              		.cfi_offset 6, -12
 2904              		.cfi_offset 7, -8
 2905              		.cfi_offset 14, -4
 2906              		.loc 1 1088 0
 2907 0002 856F     		ldr	r5, [r0, #120]
 2908              		.loc 1 1095 0
 2909 0004 D0F88060 		ldr	r6, [r0, #128]
 2910              		.loc 1 1088 0
 2911 0008 6F7B     		ldrb	r7, [r5, #13]	@ zero_extendqisi2
 2912              	.LVL272:
 2913              		.loc 1 1092 0
 2914 000a 0023     		movs	r3, #0
 2915              		.loc 1 1086 0
 2916 000c 0446     		mov	r4, r0
 2917              		.loc 1 1092 0
 2918 000e 8367     		str	r3, [r0, #120]
 2919              		.loc 1 1095 0
 2920 0010 0EB3     		cbz	r6, .L439
 2921              		.loc 1 1095 0 is_stmt 0 discriminator 1
 2922 0012 0069     		ldr	r0, [r0, #16]
 2923              	.LVL273:
 2924 0014 2146     		mov	r1, r4
 2925 0016 2A46     		mov	r2, r5
ARM GAS  C:\Users\jenny\AppData\Local\Temp\ccAyMdWJ.s 			page 53


 2926 0018 B047     		blx	r6
 2927              	.LVL274:
 2928              	.L440:
 2929              		.loc 1 1096 0 is_stmt 1
 2930 001a B0B9     		cbnz	r0, .L441
 2931              		.loc 1 1098 0
 2932 001c 07F02007 		and	r7, r7, #32
 2933              	.LVL275:
 2934 0020 FFB2     		uxtb	r7, r7
 2935 0022 87B1     		cbz	r7, .L442
 2936              		.loc 1 1101 0
 2937 0024 A38D     		ldrh	r3, [r4, #44]
 2938 0026 B3F5066F 		cmp	r3, #2144
 2939 002a 01D0     		beq	.L443
 2940              		.loc 1 1102 0
 2941 002c 591C     		adds	r1, r3, #1
 2942 002e A185     		strh	r1, [r4, #44]	@ movhi
 2943              	.L443:
 2944              		.loc 1 1104 0
 2945 0030 D4F88050 		ldr	r5, [r4, #128]
 2946              	.LVL276:
 2947 0034 35B1     		cbz	r5, .L454
 2948              		.loc 1 1104 0 is_stmt 0 discriminator 1
 2949 0036 0022     		movs	r2, #0
 2950 0038 2069     		ldr	r0, [r4, #16]
 2951              	.LVL277:
 2952 003a 2146     		mov	r1, r4
 2953 003c 1346     		mov	r3, r2
 2954 003e A847     		blx	r5
 2955              	.LVL278:
 2956              		.loc 1 1105 0 is_stmt 1 discriminator 1
 2957 0040 0A30     		adds	r0, r0, #10
 2958              	.LVL279:
 2959 0042 0FD0     		beq	.L446
 2960              	.L454:
 2961              		.loc 1 1119 0
 2962 0044 0020     		movs	r0, #0
 2963              	.L442:
 2964              		.loc 1 1120 0
 2965 0046 40B2     		sxtb	r0, r0
 2966 0048 F8BD     		pop	{r3, r4, r5, r6, r7, pc}
 2967              	.LVL280:
 2968              	.L441:
 2969              		.loc 1 1109 0
 2970 004a 40B2     		sxtb	r0, r0
 2971              	.LVL281:
 2972 004c 0A30     		adds	r0, r0, #10
 2973 004e 09D0     		beq	.L446
 2974              		.loc 1 1117 0
 2975 0050 A567     		str	r5, [r4, #120]
 2976              		.loc 1 1119 0
 2977 0052 0020     		movs	r0, #0
 2978 0054 F7E7     		b	.L442
 2979              	.LVL282:
 2980              	.L439:
 2981              		.loc 1 1095 0 discriminator 2
 2982 0056 3046     		mov	r0, r6
ARM GAS  C:\Users\jenny\AppData\Local\Temp\ccAyMdWJ.s 			page 54


 2983              	.LVL283:
 2984 0058 2146     		mov	r1, r4
 2985 005a 2A46     		mov	r2, r5
 2986 005c 3346     		mov	r3, r6
 2987 005e FFF7FEFF 		bl	tcp_recv_null
 2988              	.LVL284:
 2989 0062 DAE7     		b	.L440
 2990              	.LVL285:
 2991              	.L446:
 2992              		.loc 1 1106 0
 2993 0064 F620     		movs	r0, #246
 2994 0066 EEE7     		b	.L442
 2995              		.cfi_endproc
 2996              	.LFE23:
 2997              		.size	tcp_process_refused_data, .-tcp_process_refused_data
 2998 0068 AFF30080 		.section	.text.tcp_fasttmr,"ax",%progbits
 2998      AFF30080 
 2999              		.align	2
 3000              		.p2align 4,,15
 3001              		.global	tcp_fasttmr
 3002              		.thumb
 3003              		.thumb_func
 3004              		.type	tcp_fasttmr, %function
 3005              	tcp_fasttmr:
 3006              	.LFB22:
 3007              		.loc 1 1047 0
 3008              		.cfi_startproc
 3009              		@ args = 0, pretend = 0, frame = 0
 3010              		@ frame_needed = 0, uses_anonymous_args = 0
 3011 0000 2DE9F041 		push	{r4, r5, r6, r7, r8, lr}
 3012              	.LCFI28:
 3013              		.cfi_def_cfa_offset 24
 3014              		.cfi_offset 4, -24
 3015              		.cfi_offset 5, -20
 3016              		.cfi_offset 6, -16
 3017              		.cfi_offset 7, -12
 3018              		.cfi_offset 8, -8
 3019              		.cfi_offset 14, -4
 3020              		.loc 1 1050 0
 3021 0004 174D     		ldr	r5, .L470
 3022 0006 184F     		ldr	r7, .L470+4
 3023 0008 2B78     		ldrb	r3, [r5, #0]	@ zero_extendqisi2
 3024              	.LBB43:
 3025              		.loc 1 1071 0
 3026 000a 184E     		ldr	r6, .L470+8
 3027              	.LBE43:
 3028              		.loc 1 1050 0
 3029 000c 581C     		adds	r0, r3, #1
 3030 000e 2870     		strb	r0, [r5, #0]
 3031              	.LBB44:
 3032              		.loc 1 1071 0
 3033 0010 4FF00008 		mov	r8, #0
 3034              	.L456:
 3035              	.LBE44:
 3036              		.loc 1 1053 0
 3037 0014 3C68     		ldr	r4, [r7, #0]
 3038              	.LVL286:
ARM GAS  C:\Users\jenny\AppData\Local\Temp\ccAyMdWJ.s 			page 55


 3039              	.L457:
 3040              		.loc 1 1055 0 discriminator 1
 3041 0016 C4B1     		cbz	r4, .L455
 3042              	.L469:
 3043              		.loc 1 1056 0
 3044 0018 94F82120 		ldrb	r2, [r4, #33]	@ zero_extendqisi2
 3045 001c 2978     		ldrb	r1, [r5, #0]	@ zero_extendqisi2
 3046 001e 8A42     		cmp	r2, r1
 3047 0020 00D1     		bne	.L463
 3048              	.L458:
 3049 0022 FEE7     		b	.L458
 3050              	.L463:
 3051              	.LBB45:
 3052              		.loc 1 1060 0
 3053 0024 A37F     		ldrb	r3, [r4, #30]	@ zero_extendqisi2
 3054              		.loc 1 1058 0
 3055 0026 84F82110 		strb	r1, [r4, #33]
 3056              		.loc 1 1060 0
 3057 002a D907     		lsls	r1, r3, #31
 3058 002c 0FD4     		bmi	.L468
 3059              	.L459:
 3060              		.loc 1 1070 0
 3061 002e A36F     		ldr	r3, [r4, #120]
 3062              		.loc 1 1072 0
 3063 0030 2046     		mov	r0, r4
 3064              		.loc 1 1067 0
 3065 0032 E468     		ldr	r4, [r4, #12]
 3066              	.LVL287:
 3067              		.loc 1 1070 0
 3068 0034 002B     		cmp	r3, #0
 3069 0036 EED0     		beq	.L457
 3070              		.loc 1 1071 0
 3071 0038 86F80080 		strb	r8, [r6, #0]
 3072              		.loc 1 1072 0
 3073 003c FFF7FEFF 		bl	tcp_process_refused_data
 3074              	.LVL288:
 3075              		.loc 1 1073 0
 3076 0040 3078     		ldrb	r0, [r6, #0]	@ zero_extendqisi2
 3077 0042 0028     		cmp	r0, #0
 3078 0044 E6D1     		bne	.L456
 3079              	.LVL289:
 3080              	.LBE45:
 3081              		.loc 1 1055 0
 3082 0046 002C     		cmp	r4, #0
 3083 0048 E6D1     		bne	.L469
 3084              	.LVL290:
 3085              	.L455:
 3086 004a BDE8F081 		pop	{r4, r5, r6, r7, r8, pc}
 3087              	.L468:
 3088              	.LBB46:
 3089              		.loc 1 1062 0
 3090 004e 43F00200 		orr	r0, r3, #2
 3091 0052 A077     		strb	r0, [r4, #30]
 3092              		.loc 1 1063 0
 3093 0054 2046     		mov	r0, r4
 3094 0056 FFF7FEFF 		bl	tcp_output
 3095              	.LVL291:
ARM GAS  C:\Users\jenny\AppData\Local\Temp\ccAyMdWJ.s 			page 56


 3096              		.loc 1 1064 0
 3097 005a A27F     		ldrb	r2, [r4, #30]	@ zero_extendqisi2
 3098 005c 22F00301 		bic	r1, r2, #3
 3099 0060 A177     		strb	r1, [r4, #30]
 3100 0062 E4E7     		b	.L459
 3101              	.L471:
 3102              		.align	2
 3103              	.L470:
 3104 0064 00000000 		.word	.LANCHOR6
 3105 0068 00000000 		.word	.LANCHOR7
 3106 006c 00000000 		.word	.LANCHOR11
 3107              	.LBE46:
 3108              		.cfi_endproc
 3109              	.LFE22:
 3110              		.size	tcp_fasttmr, .-tcp_fasttmr
 3111              		.section	.text.tcp_tmr,"ax",%progbits
 3112              		.align	2
 3113              		.p2align 4,,15
 3114              		.global	tcp_tmr
 3115              		.thumb
 3116              		.thumb_func
 3117              		.type	tcp_tmr, %function
 3118              	tcp_tmr:
 3119              	.LFB8:
 3120              		.loc 1 142 0
 3121              		.cfi_startproc
 3122              		@ args = 0, pretend = 0, frame = 0
 3123              		@ frame_needed = 0, uses_anonymous_args = 0
 3124 0000 08B5     		push	{r3, lr}
 3125              	.LCFI29:
 3126              		.cfi_def_cfa_offset 8
 3127              		.cfi_offset 3, -8
 3128              		.cfi_offset 14, -4
 3129              		.loc 1 144 0
 3130 0002 FFF7FEFF 		bl	tcp_fasttmr
 3131              	.LVL292:
 3132              		.loc 1 146 0
 3133 0006 064A     		ldr	r2, .L475
 3134 0008 1378     		ldrb	r3, [r2, #0]	@ zero_extendqisi2
 3135 000a 581C     		adds	r0, r3, #1
 3136 000c C1B2     		uxtb	r1, r0
 3137 000e C807     		lsls	r0, r1, #31
 3138 0010 1170     		strb	r1, [r2, #0]
 3139 0012 00D4     		bmi	.L474
 3140 0014 08BD     		pop	{r3, pc}
 3141              	.L474:
 3142              		.loc 1 151 0
 3143 0016 BDE80840 		pop	{r3, lr}
 3144              		.loc 1 149 0
 3145 001a FFF7FEBF 		b	tcp_slowtmr
 3146              	.LVL293:
 3147              	.L476:
 3148 001e 00BF     		.align	2
 3149              	.L475:
 3150 0020 00000000 		.word	.LANCHOR13
 3151              		.cfi_endproc
 3152              	.LFE8:
ARM GAS  C:\Users\jenny\AppData\Local\Temp\ccAyMdWJ.s 			page 57


 3153              		.size	tcp_tmr, .-tcp_tmr
 3154 0024 AFF30080 		.section	.text.tcp_next_iss,"ax",%progbits
 3154      AFF30080 
 3154      AFF30080 
 3155              		.align	2
 3156              		.p2align 4,,15
 3157              		.global	tcp_next_iss
 3158              		.thumb
 3159              		.thumb_func
 3160              		.type	tcp_next_iss, %function
 3161              	tcp_next_iss:
 3162              	.LFB41:
 3163              		.loc 1 1572 0
 3164              		.cfi_startproc
 3165              		@ args = 0, pretend = 0, frame = 0
 3166              		@ frame_needed = 0, uses_anonymous_args = 0
 3167              		@ link register save eliminated.
 3168              		.loc 1 1575 0
 3169 0000 40F20002 		movw	r2, #:lower16:.LANCHOR5
 3170 0004 40F20003 		movw	r3, #:lower16:.LANCHOR12
 3171 0008 C0F20003 		movt	r3, #:upper16:.LANCHOR12
 3172 000c C0F20002 		movt	r2, #:upper16:.LANCHOR5
 3173 0010 1968     		ldr	r1, [r3, #0]
 3174 0012 1068     		ldr	r0, [r2, #0]
 3175 0014 4018     		adds	r0, r0, r1
 3176 0016 1860     		str	r0, [r3, #0]
 3177              		.loc 1 1577 0
 3178 0018 7047     		bx	lr
 3179              		.cfi_endproc
 3180              	.LFE41:
 3181              		.size	tcp_next_iss, .-tcp_next_iss
 3182 001a 00BFAFF3 		.section	.text.tcp_eff_send_mss,"ax",%progbits
 3182      0080
 3183              		.align	2
 3184              		.p2align 4,,15
 3185              		.global	tcp_eff_send_mss
 3186              		.thumb
 3187              		.thumb_func
 3188              		.type	tcp_eff_send_mss, %function
 3189              	tcp_eff_send_mss:
 3190              	.LFB42:
 3191              		.loc 1 1587 0
 3192              		.cfi_startproc
 3193              		@ args = 0, pretend = 0, frame = 0
 3194              		@ frame_needed = 0, uses_anonymous_args = 0
 3195              	.LVL294:
 3196 0000 10B5     		push	{r4, lr}
 3197              	.LCFI30:
 3198              		.cfi_def_cfa_offset 8
 3199              		.cfi_offset 4, -8
 3200              		.cfi_offset 14, -4
 3201              		.loc 1 1587 0
 3202 0002 0446     		mov	r4, r0
 3203              		.loc 1 1591 0
 3204 0004 0846     		mov	r0, r1
 3205              	.LVL295:
 3206 0006 FFF7FEFF 		bl	ip_route
ARM GAS  C:\Users\jenny\AppData\Local\Temp\ccAyMdWJ.s 			page 58


 3207              	.LVL296:
 3208              		.loc 1 1592 0
 3209 000a 30B1     		cbz	r0, .L479
 3210              		.loc 1 1592 0 is_stmt 0 discriminator 1
 3211 000c 038C     		ldrh	r3, [r0, #32]
 3212 000e 23B1     		cbz	r3, .L479
 3213              	.LVL297:
 3214              		.loc 1 1593 0 is_stmt 1
 3215 0010 283B     		subs	r3, r3, #40
 3216              	.LVL298:
 3217              		.loc 1 1598 0
 3218 0012 98B2     		uxth	r0, r3
 3219              	.LVL299:
 3220 0014 8442     		cmp	r4, r0
 3221 0016 28BF     		it	cs
 3222 0018 0446     		movcs	r4, r0
 3223              	.LVL300:
 3224              	.L479:
 3225              		.loc 1 1601 0
 3226 001a 2046     		mov	r0, r4
 3227 001c 10BD     		pop	{r4, pc}
 3228              		.cfi_endproc
 3229              	.LFE42:
 3230              		.size	tcp_eff_send_mss, .-tcp_eff_send_mss
 3231 001e 00BF     		.section	.text.tcp_connect,"ax",%progbits
 3232              		.align	2
 3233              		.p2align 4,,15
 3234              		.global	tcp_connect
 3235              		.thumb
 3236              		.thumb_func
 3237              		.type	tcp_connect, %function
 3238              	tcp_connect:
 3239              	.LFB20:
 3240              		.loc 1 686 0
 3241              		.cfi_startproc
 3242              		@ args = 0, pretend = 0, frame = 0
 3243              		@ frame_needed = 0, uses_anonymous_args = 0
 3244              	.LVL301:
 3245 0000 2DE9F843 		push	{r3, r4, r5, r6, r7, r8, r9, lr}
 3246              	.LCFI31:
 3247              		.cfi_def_cfa_offset 32
 3248              		.cfi_offset 3, -32
 3249              		.cfi_offset 4, -28
 3250              		.cfi_offset 5, -24
 3251              		.cfi_offset 6, -20
 3252              		.cfi_offset 7, -16
 3253              		.cfi_offset 8, -12
 3254              		.cfi_offset 9, -8
 3255              		.cfi_offset 14, -4
 3256              		.loc 1 686 0
 3257 0004 0D46     		mov	r5, r1
 3258              		.loc 1 691 0
 3259 0006 017E     		ldrb	r1, [r0, #24]	@ zero_extendqisi2
 3260              	.LVL302:
 3261              		.loc 1 686 0
 3262 0008 0446     		mov	r4, r0
 3263 000a 9946     		mov	r9, r3
ARM GAS  C:\Users\jenny\AppData\Local\Temp\ccAyMdWJ.s 			page 59


 3264              		.loc 1 691 0
 3265 000c 0029     		cmp	r1, #0
 3266 000e 78D1     		bne	.L511
 3267              		.loc 1 694 0
 3268 0010 002D     		cmp	r5, #0
 3269 0012 57D0     		beq	.L502
 3270              		.loc 1 695 0
 3271 0014 2868     		ldr	r0, [r5, #0]
 3272              	.LVL303:
 3273              		.loc 1 702 0
 3274 0016 2368     		ldr	r3, [r4, #0]
 3275              	.LVL304:
 3276              		.loc 1 695 0
 3277 0018 6060     		str	r0, [r4, #4]
 3278              		.loc 1 699 0
 3279 001a A283     		strh	r2, [r4, #28]	@ movhi
 3280              		.loc 1 702 0
 3281 001c 33B9     		cbnz	r3, .L489
 3282              	.LBB47:
 3283              		.loc 1 704 0
 3284 001e 201D     		adds	r0, r4, #4
 3285 0020 FFF7FEFF 		bl	ip_route
 3286              	.LVL305:
 3287              		.loc 1 705 0
 3288 0024 0028     		cmp	r0, #0
 3289 0026 70D0     		beq	.L503
 3290              		.loc 1 711 0
 3291 0028 4268     		ldr	r2, [r0, #4]
 3292 002a 2260     		str	r2, [r4, #0]
 3293              	.LVL306:
 3294              	.L489:
 3295              	.LBE47:
 3296              		.loc 1 714 0
 3297 002c B4F81A80 		ldrh	r8, [r4, #26]
 3298              	.LVL307:
 3299              		.loc 1 715 0
 3300 0030 B8F1000F 		cmp	r8, #0
 3301 0034 04D1     		bne	.L492
 3302              		.loc 1 716 0
 3303 0036 FFF7FEFF 		bl	tcp_new_port
 3304              	.LVL308:
 3305 003a 6083     		strh	r0, [r4, #26]	@ movhi
 3306              		.loc 1 717 0
 3307 003c 0028     		cmp	r0, #0
 3308 003e 59D0     		beq	.L512
 3309              	.L492:
 3310              	.LBB48:
 3311              	.LBB49:
 3312              		.loc 1 1575 0
 3313 0040 334F     		ldr	r7, .L517
 3314 0042 3449     		ldr	r1, .L517+4
 3315 0044 3E68     		ldr	r6, [r7, #0]
 3316 0046 0868     		ldr	r0, [r1, #0]
 3317 0048 8219     		adds	r2, r0, r6
 3318              	.LBE49:
 3319              	.LBE48:
 3320              		.loc 1 744 0
ARM GAS  C:\Users\jenny\AppData\Local\Temp\ccAyMdWJ.s 			page 60


 3321 004a 02F1FF3E 		add	lr, r2, #-1
 3322              		.loc 1 742 0
 3323 004e 0023     		movs	r3, #0
 3324              		.loc 1 746 0
 3325 0050 4FF40666 		mov	r6, #2144
 3326              		.loc 1 752 0
 3327 0054 4FF40670 		mov	r0, #536
 3328              		.loc 1 754 0
 3329 0058 2946     		mov	r1, r5
 3330              		.loc 1 742 0
 3331 005a A362     		str	r3, [r4, #40]
 3332              		.loc 1 743 0
 3333 005c 2265     		str	r2, [r4, #80]
 3334              		.loc 1 744 0
 3335 005e C4F848E0 		str	lr, [r4, #72]
 3336              		.loc 1 745 0
 3337 0062 C4F85CE0 		str	lr, [r4, #92]
 3338              		.loc 1 748 0
 3339 0066 2363     		str	r3, [r4, #48]
 3340              		.loc 1 746 0
 3341 0068 A685     		strh	r6, [r4, #44]	@ movhi
 3342              		.loc 1 747 0
 3343 006a E685     		strh	r6, [r4, #46]	@ movhi
 3344              		.loc 1 749 0
 3345 006c A4F86060 		strh	r6, [r4, #96]	@ movhi
 3346              		.loc 1 752 0
 3347 0070 E086     		strh	r0, [r4, #54]	@ movhi
 3348              	.LBB51:
 3349              	.LBB50:
 3350              		.loc 1 1575 0
 3351 0072 3A60     		str	r2, [r7, #0]
 3352              	.LBE50:
 3353              	.LBE51:
 3354              		.loc 1 754 0
 3355 0074 FFF7FEFF 		bl	tcp_eff_send_mss
 3356              	.LVL309:
 3357              		.loc 1 757 0
 3358 0078 00EB8005 		add	r5, r0, r0, lsl #2
 3359              	.LVL310:
 3360 007c 6900     		lsls	r1, r5, #1
 3361              		.loc 1 754 0
 3362 007e E086     		strh	r0, [r4, #54]	@ movhi
 3363              		.loc 1 756 0
 3364 0080 0120     		movs	r0, #1
 3365 0082 A4F84C00 		strh	r0, [r4, #76]	@ movhi
 3366              		.loc 1 757 0
 3367 0086 A4F84E10 		strh	r1, [r4, #78]	@ movhi
 3368              		.loc 1 759 0
 3369 008a C4F88490 		str	r9, [r4, #132]
 3370              		.loc 1 765 0
 3371 008e 2046     		mov	r0, r4
 3372 0090 0221     		movs	r1, #2
 3373 0092 FFF7FEFF 		bl	tcp_enqueue_flags
 3374              	.LVL311:
 3375              		.loc 1 766 0
 3376 0096 0546     		mov	r5, r0
 3377 0098 A8B9     		cbnz	r0, .L488
ARM GAS  C:\Users\jenny\AppData\Local\Temp\ccAyMdWJ.s 			page 61


 3378              		.loc 1 768 0
 3379 009a 0222     		movs	r2, #2
 3380 009c 2276     		strb	r2, [r4, #24]
 3381              		.loc 1 769 0
 3382 009e B8F1000F 		cmp	r8, #0
 3383 00a2 16D0     		beq	.L493
 3384              		.loc 1 770 0
 3385 00a4 1C4B     		ldr	r3, .L517+8
 3386 00a6 1868     		ldr	r0, [r3, #0]
 3387              	.LVL312:
 3388 00a8 A042     		cmp	r0, r4
 3389 00aa 27D0     		beq	.L513
 3390              		.loc 1 770 0 is_stmt 0 discriminator 2
 3391 00ac 1B49     		ldr	r1, .L517+12
 3392 00ae 0860     		str	r0, [r1, #0]
 3393 00b0 78B1     		cbz	r0, .L493
 3394              		.loc 1 770 0
 3395 00b2 C368     		ldr	r3, [r0, #12]
 3396 00b4 A342     		cmp	r3, r4
 3397 00b6 1FD0     		beq	.L514
 3398              	.L510:
 3399              		.loc 1 770 0 discriminator 5
 3400 00b8 D3B1     		cbz	r3, .L515
 3401              		.loc 1 770 0 discriminator 7
 3402 00ba DA68     		ldr	r2, [r3, #12]
 3403 00bc A242     		cmp	r2, r4
 3404 00be 05D0     		beq	.L516
 3405              		.loc 1 770 0
 3406 00c0 1346     		mov	r3, r2
 3407 00c2 F9E7     		b	.L510
 3408              	.LVL313:
 3409              	.L502:
 3410              		.loc 1 697 0 is_stmt 1
 3411 00c4 FA25     		movs	r5, #250
 3412              	.LVL314:
 3413              	.L488:
 3414              		.loc 1 778 0
 3415 00c6 68B2     		sxtb	r0, r5
 3416 00c8 BDE8F883 		pop	{r3, r4, r5, r6, r7, r8, r9, pc}
 3417              	.LVL315:
 3418              	.L516:
 3419 00cc 0B60     		str	r3, [r1, #0]
 3420              	.L497:
 3421              		.loc 1 770 0 discriminator 4
 3422 00ce E068     		ldr	r0, [r4, #12]
 3423 00d0 D860     		str	r0, [r3, #12]
 3424              	.L493:
 3425              		.loc 1 772 0
 3426 00d2 134B     		ldr	r3, .L517+16
 3427 00d4 1A68     		ldr	r2, [r3, #0]
 3428 00d6 1C60     		str	r4, [r3, #0]
 3429 00d8 E260     		str	r2, [r4, #12]
 3430 00da FFF7FEFF 		bl	tcp_timer_needed
 3431              	.LVL316:
 3432 00de 114B     		ldr	r3, .L517+20
 3433 00e0 0121     		movs	r1, #1
 3434              		.loc 1 775 0
ARM GAS  C:\Users\jenny\AppData\Local\Temp\ccAyMdWJ.s 			page 62


 3435 00e2 2046     		mov	r0, r4
 3436              		.loc 1 772 0
 3437 00e4 1970     		strb	r1, [r3, #0]
 3438              		.loc 1 775 0
 3439 00e6 FFF7FEFF 		bl	tcp_output
 3440              	.LVL317:
 3441              		.loc 1 778 0
 3442 00ea 68B2     		sxtb	r0, r5
 3443 00ec BDE8F883 		pop	{r3, r4, r5, r6, r7, r8, r9, pc}
 3444              	.L515:
 3445 00f0 0B60     		str	r3, [r1, #0]
 3446 00f2 EEE7     		b	.L493
 3447              	.LVL318:
 3448              	.L512:
 3449              		.loc 1 718 0
 3450 00f4 FE25     		movs	r5, #254
 3451              	.LVL319:
 3452 00f6 E6E7     		b	.L488
 3453              	.L514:
 3454              		.loc 1 770 0
 3455 00f8 0346     		mov	r3, r0
 3456 00fa E8E7     		b	.L497
 3457              	.L513:
 3458              		.loc 1 770 0 is_stmt 0 discriminator 1
 3459 00fc E168     		ldr	r1, [r4, #12]
 3460 00fe 1960     		str	r1, [r3, #0]
 3461 0100 E7E7     		b	.L493
 3462              	.LVL320:
 3463              	.L511:
 3464              		.loc 1 691 0 is_stmt 1 discriminator 1
 3465 0102 FFF7FEFF 		bl	port_halt
 3466              	.LVL321:
 3467 0106 F725     		movs	r5, #247
 3468              	.LVL322:
 3469 0108 DDE7     		b	.L488
 3470              	.LVL323:
 3471              	.L503:
 3472              	.LBB52:
 3473              		.loc 1 708 0
 3474 010a FC25     		movs	r5, #252
 3475              	.LVL324:
 3476 010c DBE7     		b	.L488
 3477              	.L518:
 3478 010e 00BF     		.align	2
 3479              	.L517:
 3480 0110 00000000 		.word	.LANCHOR12
 3481 0114 00000000 		.word	.LANCHOR5
 3482 0118 00000000 		.word	.LANCHOR2
 3483 011c 00000000 		.word	.LANCHOR3
 3484 0120 00000000 		.word	.LANCHOR7
 3485 0124 00000000 		.word	.LANCHOR11
 3486              	.LBE52:
 3487              		.cfi_endproc
 3488              	.LFE20:
 3489              		.size	tcp_connect, .-tcp_connect
 3490 0128 AFF30080 		.section	.text.tcp_debug_state_str,"ax",%progbits
 3490      AFF30080 
ARM GAS  C:\Users\jenny\AppData\Local\Temp\ccAyMdWJ.s 			page 63


 3491              		.align	2
 3492              		.p2align 4,,15
 3493              		.global	tcp_debug_state_str
 3494              		.thumb
 3495              		.thumb_func
 3496              		.type	tcp_debug_state_str, %function
 3497              	tcp_debug_state_str:
 3498              	.LFB43:
 3499              		.loc 1 1606 0
 3500              		.cfi_startproc
 3501              		@ args = 0, pretend = 0, frame = 0
 3502              		@ frame_needed = 0, uses_anonymous_args = 0
 3503              		@ link register save eliminated.
 3504              	.LVL325:
 3505              		.loc 1 1607 0
 3506 0000 40F20003 		movw	r3, #:lower16:.LANCHOR14
 3507 0004 C0F20003 		movt	r3, #:upper16:.LANCHOR14
 3508              		.loc 1 1608 0
 3509 0008 53F82000 		ldr	r0, [r3, r0, lsl #2]
 3510              	.LVL326:
 3511 000c 7047     		bx	lr
 3512              		.cfi_endproc
 3513              	.LFE43:
 3514              		.size	tcp_debug_state_str, .-tcp_debug_state_str
 3515              		.global	tcp_active_pcbs_changed
 3516              		.global	tcp_tmp_pcb
 3517              		.global	tcp_pcb_lists
 3518              		.global	tcp_tw_pcbs
 3519              		.global	tcp_active_pcbs
 3520              		.global	tcp_listen_pcbs
 3521              		.global	tcp_bound_pcbs
 3522              		.global	tcp_persist_backoff
 3523              		.global	tcp_backoff
 3524              		.global	tcp_ticks
 3525              		.global	tcp_state_str
 3526 000e 00BF     		.section	.bss.tcp_active_pcbs_changed,"aw",%nobits
 3527              		.set	.LANCHOR11,. + 0
 3528              		.type	tcp_active_pcbs_changed, %object
 3529              		.size	tcp_active_pcbs_changed, 1
 3530              	tcp_active_pcbs_changed:
 3531 0000 00       		.space	1
 3532              		.section	.rodata.tcp_state_str,"a",%progbits
 3533              		.align	2
 3534              		.set	.LANCHOR14,. + 0
 3535              		.type	tcp_state_str, %object
 3536              		.size	tcp_state_str, 44
 3537              	tcp_state_str:
 3538 0000 00000000 		.word	.LC0
 3539 0004 08000000 		.word	.LC1
 3540 0008 10000000 		.word	.LC2
 3541 000c 1C000000 		.word	.LC3
 3542 0010 28000000 		.word	.LC4
 3543 0014 34000000 		.word	.LC5
 3544 0018 40000000 		.word	.LC6
 3545 001c 4C000000 		.word	.LC7
 3546 0020 58000000 		.word	.LC8
 3547 0024 60000000 		.word	.LC9
ARM GAS  C:\Users\jenny\AppData\Local\Temp\ccAyMdWJ.s 			page 64


 3548 0028 6C000000 		.word	.LC10
 3549              		.section	.rodata.tcp_pcb_lists,"a",%progbits
 3550              		.align	2
 3551              		.set	.LANCHOR1,. + 0
 3552              		.type	tcp_pcb_lists, %object
 3553              		.size	tcp_pcb_lists, 16
 3554              	tcp_pcb_lists:
 3555 0000 00000000 		.word	tcp_listen_pcbs
 3556 0004 00000000 		.word	tcp_bound_pcbs
 3557 0008 00000000 		.word	tcp_active_pcbs
 3558 000c 00000000 		.word	tcp_tw_pcbs
 3559              		.section	.bss.tcp_ticks,"aw",%nobits
 3560              		.align	2
 3561              		.set	.LANCHOR5,. + 0
 3562              		.type	tcp_ticks, %object
 3563              		.size	tcp_ticks, 4
 3564              	tcp_ticks:
 3565 0000 00000000 		.space	4
 3566              		.section	.bss.tcp_timer,"aw",%nobits
 3567              		.set	.LANCHOR13,. + 0
 3568              		.type	tcp_timer, %object
 3569              		.size	tcp_timer, 1
 3570              	tcp_timer:
 3571 0000 00       		.space	1
 3572              		.section	.rodata.tcp_backoff,"a",%progbits
 3573              		.align	2
 3574              		.set	.LANCHOR10,. + 0
 3575              		.type	tcp_backoff, %object
 3576              		.size	tcp_backoff, 13
 3577              	tcp_backoff:
 3578 0000 01       		.byte	1
 3579 0001 02       		.byte	2
 3580 0002 03       		.byte	3
 3581 0003 04       		.byte	4
 3582 0004 05       		.byte	5
 3583 0005 06       		.byte	6
 3584 0006 07       		.byte	7
 3585 0007 07       		.byte	7
 3586 0008 07       		.byte	7
 3587 0009 07       		.byte	7
 3588 000a 07       		.byte	7
 3589 000b 07       		.byte	7
 3590 000c 07       		.byte	7
 3591 000d 000000   		.section	.bss.tcp_listen_pcbs,"aw",%nobits
 3592              		.align	2
 3593              		.set	.LANCHOR4,. + 0
 3594              		.type	tcp_listen_pcbs, %object
 3595              		.size	tcp_listen_pcbs, 4
 3596              	tcp_listen_pcbs:
 3597 0000 00000000 		.space	4
 3598              		.section	.data.tcp_port,"aw",%progbits
 3599              		.align	1
 3600              		.set	.LANCHOR0,. + 0
 3601              		.type	tcp_port, %object
 3602              		.size	tcp_port, 2
 3603              	tcp_port:
 3604 0000 00C0     		.short	-16384
ARM GAS  C:\Users\jenny\AppData\Local\Temp\ccAyMdWJ.s 			page 65


 3605              		.section	.bss.tcp_active_pcbs,"aw",%nobits
 3606              		.align	2
 3607              		.set	.LANCHOR7,. + 0
 3608              		.type	tcp_active_pcbs, %object
 3609              		.size	tcp_active_pcbs, 4
 3610              	tcp_active_pcbs:
 3611 0000 00000000 		.space	4
 3612              		.section	.bss.tcp_timer_ctr,"aw",%nobits
 3613              		.set	.LANCHOR6,. + 0
 3614              		.type	tcp_timer_ctr, %object
 3615              		.size	tcp_timer_ctr, 1
 3616              	tcp_timer_ctr:
 3617 0000 00       		.space	1
 3618              		.section	.bss.tcp_tw_pcbs,"aw",%nobits
 3619              		.align	2
 3620              		.set	.LANCHOR8,. + 0
 3621              		.type	tcp_tw_pcbs, %object
 3622              		.size	tcp_tw_pcbs, 4
 3623              	tcp_tw_pcbs:
 3624 0000 00000000 		.space	4
 3625              		.section	.bss.tcp_tmp_pcb,"aw",%nobits
 3626              		.align	2
 3627              		.set	.LANCHOR3,. + 0
 3628              		.type	tcp_tmp_pcb, %object
 3629              		.size	tcp_tmp_pcb, 4
 3630              	tcp_tmp_pcb:
 3631 0000 00000000 		.space	4
 3632              		.section	.data.iss.6034,"aw",%progbits
 3633              		.align	2
 3634              		.set	.LANCHOR12,. + 0
 3635              		.type	iss.6034, %object
 3636              		.size	iss.6034, 4
 3637              	iss.6034:
 3638 0000 6E190000 		.word	6510
 3639              		.section	.rodata.str1.4,"aMS",%progbits,1
 3640              		.align	2
 3641              	.LC0:
 3642 0000 434C4F53 		.ascii	"CLOSED\000"
 3642      454400
 3643 0007 00       		.space	1
 3644              	.LC1:
 3645 0008 4C495354 		.ascii	"LISTEN\000"
 3645      454E00
 3646 000f 00       		.space	1
 3647              	.LC2:
 3648 0010 53594E5F 		.ascii	"SYN_SENT\000"
 3648      53454E54 
 3648      00
 3649 0019 000000   		.space	3
 3650              	.LC3:
 3651 001c 53594E5F 		.ascii	"SYN_RCVD\000"
 3651      52435644 
 3651      00
 3652 0025 000000   		.space	3
 3653              	.LC4:
 3654 0028 45535441 		.ascii	"ESTABLISHED\000"
 3654      424C4953 
ARM GAS  C:\Users\jenny\AppData\Local\Temp\ccAyMdWJ.s 			page 66


 3654      48454400 
 3655              	.LC5:
 3656 0034 46494E5F 		.ascii	"FIN_WAIT_1\000"
 3656      57414954 
 3656      5F3100
 3657 003f 00       		.space	1
 3658              	.LC6:
 3659 0040 46494E5F 		.ascii	"FIN_WAIT_2\000"
 3659      57414954 
 3659      5F3200
 3660 004b 00       		.space	1
 3661              	.LC7:
 3662 004c 434C4F53 		.ascii	"CLOSE_WAIT\000"
 3662      455F5741 
 3662      495400
 3663 0057 00       		.space	1
 3664              	.LC8:
 3665 0058 434C4F53 		.ascii	"CLOSING\000"
 3665      494E4700 
 3666              	.LC9:
 3667 0060 4C415354 		.ascii	"LAST_ACK\000"
 3667      5F41434B 
 3667      00
 3668 0069 000000   		.space	3
 3669              	.LC10:
 3670 006c 54494D45 		.ascii	"TIME_WAIT\000"
 3670      5F574149 
 3670      5400
 3671 0076 0000     		.section	.rodata.tcp_persist_backoff,"a",%progbits
 3672              		.align	2
 3673              		.set	.LANCHOR9,. + 0
 3674              		.type	tcp_persist_backoff, %object
 3675              		.size	tcp_persist_backoff, 7
 3676              	tcp_persist_backoff:
 3677 0000 03       		.byte	3
 3678 0001 06       		.byte	6
 3679 0002 0C       		.byte	12
 3680 0003 18       		.byte	24
 3681 0004 30       		.byte	48
 3682 0005 60       		.byte	96
 3683 0006 78       		.byte	120
 3684 0007 00       		.section	.bss.tcp_bound_pcbs,"aw",%nobits
 3685              		.align	2
 3686              		.set	.LANCHOR2,. + 0
 3687              		.type	tcp_bound_pcbs, %object
 3688              		.size	tcp_bound_pcbs, 4
 3689              	tcp_bound_pcbs:
 3690 0000 00000000 		.space	4
 3691              		.text
 3692              	.Letext0:
 3693              		.file 2 "c:\\fbin\\yagarto\\bin\\../lib/gcc/arm-none-eabi/4.7.4/../../../../arm-none-eabi/include/
 3694              		.file 3 "../../os/various/lwip_bindings/arch/cc.h"
 3695              		.file 4 "../../ext/lwip/src/include/lwip/mem.h"
 3696              		.file 5 "../../ext/lwip/src/include/lwip/memp.h"
 3697              		.file 6 "../../ext/lwip/src/include/ipv4/lwip/ip_addr.h"
 3698              		.file 7 "../../ext/lwip/src/include/lwip/err.h"
 3699              		.file 8 "../../ext/lwip/src/include/lwip/pbuf.h"
ARM GAS  C:\Users\jenny\AppData\Local\Temp\ccAyMdWJ.s 			page 67


 3700              		.file 9 "../../ext/lwip/src/include/lwip/netif.h"
 3701              		.file 10 "../../ext/lwip/src/include/lwip/tcp.h"
 3702              		.file 11 "../../ext/lwip/src/include/lwip/tcp_impl.h"
 3703              		.file 12 "../../ext/lwip/src/include/lwip/stats.h"
 3704              		.file 13 "../../os/ports/GCC/ARMCMx/chcore_v7m.h"
 3705              		.file 14 "../../ext/lwip/src/include/ipv4/lwip/ip.h"