ARM GAS  C:\Users\jenny\AppData\Local\Temp\ccUygzzS.s 			page 1


   1              		.syntax unified
   2              		.cpu cortex-m4
   3              		.eabi_attribute 27, 3
   4              		.fpu fpv4-sp-d16
   5              		.eabi_attribute 20, 1
   6              		.eabi_attribute 21, 1
   7              		.eabi_attribute 23, 3
   8              		.eabi_attribute 24, 1
   9              		.eabi_attribute 25, 1
  10              		.eabi_attribute 26, 1
  11              		.eabi_attribute 30, 2
  12              		.eabi_attribute 34, 1
  13              		.eabi_attribute 18, 4
  14              		.thumb
  15              		.file	"tcp_out.c"
  16              		.text
  17              	.Ltext0:
  18              		.cfi_sections	.debug_frame
  19              		.section	.text.tcp_pbuf_prealloc,"ax",%progbits
  20              		.align	2
  21              		.p2align 4,,15
  22              		.thumb
  23              		.thumb_func
  24              		.type	tcp_pbuf_prealloc, %function
  25              	tcp_pbuf_prealloc:
  26              	.LFB10:
  27              		.file 1 "../../ext/lwip/src/core/tcp_out.c"
  28              		.loc 1 222 0
  29              		.cfi_startproc
  30              		@ args = 12, pretend = 0, frame = 0
  31              		@ frame_needed = 0, uses_anonymous_args = 0
  32              	.LVL0:
  33              		.loc 1 234 0
  34 0000 9142     		cmp	r1, r2
  35              		.loc 1 222 0
  36 0002 70B5     		push	{r4, r5, r6, lr}
  37              	.LCFI0:
  38              		.cfi_def_cfa_offset 16
  39              		.cfi_offset 4, -16
  40              		.cfi_offset 5, -12
  41              		.cfi_offset 6, -8
  42              		.cfi_offset 14, -4
  43              		.loc 1 222 0
  44 0004 0D46     		mov	r5, r1
  45              	.LVL1:
  46 0006 1E46     		mov	r6, r3
  47              		.loc 1 234 0
  48 0008 14D2     		bcs	.L8
  49              		.loc 1 246 0
  50 000a 9DF81430 		ldrb	r3, [sp, #20]	@ zero_extendqisi2
  51              	.LVL2:
  52 000e 03F00201 		and	r1, r3, #2
  53              	.LVL3:
  54 0012 CCB2     		uxtb	r4, r1
  55 0014 44B1     		cbz	r4, .L19
  56              	.L3:
  57              		.loc 1 251 0
ARM GAS  C:\Users\jenny\AppData\Local\Temp\ccUygzzS.s 			page 2


  58 0016 05F21B24 		addw	r4, r5, #539
  59 001a 24F00303 		bic	r3, r4, #3
  60 001e 9342     		cmp	r3, r2
  61 0020 B8BF     		it	lt
  62 0022 1A46     		movlt	r2, r3
  63              	.LVL4:
  64 0024 91B2     		uxth	r1, r2
  65              	.LVL5:
  66 0026 06E0     		b	.L2
  67              	.LVL6:
  68              	.L19:
  69              		.loc 1 247 0 discriminator 1
  70 0028 0499     		ldr	r1, [sp, #16]
  71 002a 8B7F     		ldrb	r3, [r1, #30]	@ zero_extendqisi2
  72              		.loc 1 246 0 discriminator 1
  73 002c 03F04004 		and	r4, r3, #64
  74 0030 E3B2     		uxtb	r3, r4
  75 0032 83B1     		cbz	r3, .L20
  76              	.L8:
  77              		.loc 1 249 0
  78 0034 2946     		mov	r1, r5
  79              	.LVL7:
  80              	.L2:
  81              		.loc 1 255 0
  82 0036 0022     		movs	r2, #0
  83 0038 FFF7FEFF 		bl	pbuf_alloc
  84              	.LVL8:
  85              		.loc 1 256 0
  86 003c 0446     		mov	r4, r0
  87 003e 40B1     		cbz	r0, .L4
  88              		.loc 1 259 0
  89 0040 0068     		ldr	r0, [r0, #0]
  90              	.LVL9:
  91 0042 08B1     		cbz	r0, .L5
  92              		.loc 1 259 0 is_stmt 0 discriminator 1
  93 0044 FFF7FEFF 		bl	port_halt
  94              	.LVL10:
  95              	.L5:
  96              		.loc 1 260 0 is_stmt 1
  97 0048 6289     		ldrh	r2, [r4, #10]
  98 004a 511B     		subs	r1, r2, r5
  99 004c 3180     		strh	r1, [r6, #0]	@ movhi
 100              		.loc 1 262 0
 101 004e 2581     		strh	r5, [r4, #8]	@ movhi
 102 0050 6581     		strh	r5, [r4, #10]	@ movhi
 103              	.L4:
 104              		.loc 1 264 0
 105 0052 2046     		mov	r0, r4
 106 0054 70BD     		pop	{r4, r5, r6, pc}
 107              	.LVL11:
 108              	.L20:
 109              		.loc 1 247 0
 110 0056 9DF81840 		ldrb	r4, [sp, #24]	@ zero_extendqisi2
 111 005a 002C     		cmp	r4, #0
 112 005c DBD0     		beq	.L3
 113              		.loc 1 248 0
 114 005e CB6E     		ldr	r3, [r1, #108]
ARM GAS  C:\Users\jenny\AppData\Local\Temp\ccUygzzS.s 			page 3


 115 0060 002B     		cmp	r3, #0
 116 0062 D8D1     		bne	.L3
 117              		.loc 1 249 0
 118 0064 096F     		ldr	r1, [r1, #112]
 119 0066 0029     		cmp	r1, #0
 120 0068 D5D1     		bne	.L3
 121 006a E3E7     		b	.L8
 122              		.cfi_endproc
 123              	.LFE10:
 124              		.size	tcp_pbuf_prealloc, .-tcp_pbuf_prealloc
 125 006c AFF30080 		.section	.text.tcp_create_segment,"ax",%progbits
 126              		.align	2
 127              		.p2align 4,,15
 128              		.thumb
 129              		.thumb_func
 130              		.type	tcp_create_segment, %function
 131              	tcp_create_segment:
 132              	.LFB9:
 133              		.loc 1 160 0
 134              		.cfi_startproc
 135              		@ args = 4, pretend = 0, frame = 0
 136              		@ frame_needed = 0, uses_anonymous_args = 0
 137              	.LVL12:
 138 0000 2DE9F84F 		push	{r3, r4, r5, r6, r7, r8, r9, sl, fp, lr}
 139              	.LCFI1:
 140              		.cfi_def_cfa_offset 40
 141              		.cfi_offset 3, -40
 142              		.cfi_offset 4, -36
 143              		.cfi_offset 5, -32
 144              		.cfi_offset 6, -28
 145              		.cfi_offset 7, -24
 146              		.cfi_offset 8, -20
 147              		.cfi_offset 9, -16
 148              		.cfi_offset 10, -12
 149              		.cfi_offset 11, -8
 150              		.cfi_offset 14, -4
 151              		.loc 1 160 0
 152 0004 9DF82850 		ldrb	r5, [sp, #40]	@ zero_extendqisi2
 153              		.loc 1 162 0
 154 0008 15F0010F 		tst	r5, #1
 155 000c 05F00207 		and	r7, r5, #2
 156 0010 0CBF     		ite	eq
 157 0012 0024     		moveq	r4, #0
 158 0014 0424     		movne	r4, #4
 159 0016 FEB2     		uxtb	r6, r7
 160              		.loc 1 160 0
 161 0018 8046     		mov	r8, r0
 162              		.loc 1 164 0
 163 001a 0420     		movs	r0, #4
 164              	.LVL13:
 165              		.loc 1 162 0
 166 001c 002E     		cmp	r6, #0
 167 001e 14BF     		ite	ne
 168 0020 0C27     		movne	r7, #12
 169 0022 0027     		moveq	r7, #0
 170              		.loc 1 160 0
 171 0024 9146     		mov	r9, r2
ARM GAS  C:\Users\jenny\AppData\Local\Temp\ccUygzzS.s 			page 4


 172 0026 0E46     		mov	r6, r1
 173 0028 9A46     		mov	sl, r3
 174              		.loc 1 164 0
 175 002a FFF7FEFF 		bl	memp_malloc
 176              	.LVL14:
 177              		.loc 1 162 0
 178 002e 3F19     		adds	r7, r7, r4
 179              	.LVL15:
 180              		.loc 1 164 0
 181 0030 0446     		mov	r4, r0
 182 0032 0028     		cmp	r0, #0
 183 0034 3BD0     		beq	.L29
 184              		.loc 1 169 0
 185 0036 8572     		strb	r5, [r0, #10]
 186              		.loc 1 172 0
 187 0038 3389     		ldrh	r3, [r6, #8]
 188              		.loc 1 171 0
 189 003a 4660     		str	r6, [r0, #4]
 190              		.loc 1 170 0
 191 003c 4FF0000B 		mov	fp, #0
 192              		.loc 1 172 0
 193 0040 D81B     		subs	r0, r3, r7
 194              	.LVL16:
 195 0042 2081     		strh	r0, [r4, #8]	@ movhi
 196              		.loc 1 170 0
 197 0044 C4F800B0 		str	fp, [r4, #0]
 198              		.loc 1 185 0
 199 0048 3046     		mov	r0, r6
 200 004a 1421     		movs	r1, #20
 201 004c FFF7FEFF 		bl	pbuf_header
 202              	.LVL17:
 203 0050 0546     		mov	r5, r0
 204 0052 08BB     		cbnz	r0, .L30
 205              		.loc 1 191 0
 206 0054 6168     		ldr	r1, [r4, #4]
 207              		.loc 1 192 0
 208 0056 B8F81A00 		ldrh	r0, [r8, #26]
 209              		.loc 1 191 0
 210 005a 4E68     		ldr	r6, [r1, #4]
 211              	.LVL18:
 212 005c E660     		str	r6, [r4, #12]
 213              		.loc 1 192 0
 214 005e FFF7FEFF 		bl	lwip_htons
 215              	.LVL19:
 216 0062 3080     		strh	r0, [r6, #0]	@ unaligned
 217              		.loc 1 193 0
 218 0064 B8F81C00 		ldrh	r0, [r8, #28]
 219 0068 E668     		ldr	r6, [r4, #12]
 220 006a FFF7FEFF 		bl	lwip_htons
 221              	.LVL20:
 222 006e 7080     		strh	r0, [r6, #2]	@ unaligned
 223              		.loc 1 194 0
 224 0070 5046     		mov	r0, sl
 225 0072 E668     		ldr	r6, [r4, #12]
 226 0074 FFF7FEFF 		bl	lwip_htonl
 227              	.LVL21:
 228              		.loc 1 196 0
ARM GAS  C:\Users\jenny\AppData\Local\Temp\ccUygzzS.s 			page 5


 229 0078 BA02     		lsls	r2, r7, #10
 230 007a 02F5A047 		add	r7, r2, #20480
 231              	.LVL22:
 232              		.loc 1 194 0
 233 007e 7060     		str	r0, [r6, #4]	@ unaligned
 234              		.loc 1 196 0
 235 0080 47EA0900 		orr	r0, r7, r9
 236 0084 E668     		ldr	r6, [r4, #12]
 237 0086 FFF7FEFF 		bl	lwip_htons
 238              	.LVL23:
 239 008a B081     		strh	r0, [r6, #12]	@ unaligned
 240              		.loc 1 198 0
 241 008c E368     		ldr	r3, [r4, #12]
 242 008e 9D74     		strb	r5, [r3, #18]
 243 0090 DD74     		strb	r5, [r3, #19]
 244              	.LVL24:
 245              	.L25:
 246              		.loc 1 200 0
 247 0092 2046     		mov	r0, r4
 248 0094 BDE8F88F 		pop	{r3, r4, r5, r6, r7, r8, r9, sl, fp, pc}
 249              	.LVL25:
 250              	.L30:
 251              		.loc 1 187 0
 252 0098 0749     		ldr	r1, .L31
 253 009a B1F8A420 		ldrh	r2, [r1, #164]
 254              		.loc 1 188 0
 255 009e 2046     		mov	r0, r4
 256              		.loc 1 187 0
 257 00a0 541C     		adds	r4, r2, #1
 258              	.LVL26:
 259 00a2 A1F8A440 		strh	r4, [r1, #164]	@ movhi
 260              		.loc 1 189 0
 261 00a6 5C46     		mov	r4, fp
 262              		.loc 1 188 0
 263 00a8 FFF7FEFF 		bl	tcp_seg_free
 264              	.LVL27:
 265              		.loc 1 189 0
 266 00ac F1E7     		b	.L25
 267              	.LVL28:
 268              	.L29:
 269              		.loc 1 166 0
 270 00ae 3046     		mov	r0, r6
 271              	.LVL29:
 272 00b0 FFF7FEFF 		bl	pbuf_free
 273              	.LVL30:
 274              		.loc 1 167 0
 275 00b4 EDE7     		b	.L25
 276              	.L32:
 277 00b6 00BF     		.align	2
 278              	.L31:
 279 00b8 00000000 		.word	lwip_stats
 280              		.cfi_endproc
 281              	.LFE9:
 282              		.size	tcp_create_segment, .-tcp_create_segment
 283 00bc AFF30080 		.section	.text.tcp_output_alloc_header.constprop.0,"ax",%progbits
 284              		.align	2
 285              		.p2align 4,,15
ARM GAS  C:\Users\jenny\AppData\Local\Temp\ccUygzzS.s 			page 6


 286              		.thumb
 287              		.thumb_func
 288              		.type	tcp_output_alloc_header.constprop.0, %function
 289              	tcp_output_alloc_header.constprop.0:
 290              	.LFB23:
 291              		.loc 1 94 0
 292              		.cfi_startproc
 293              		@ args = 0, pretend = 0, frame = 0
 294              		@ frame_needed = 0, uses_anonymous_args = 0
 295              	.LVL31:
 296              		.loc 1 98 0
 297 0000 1431     		adds	r1, r1, #20
 298              	.LVL32:
 299              		.loc 1 94 0
 300 0002 F8B5     		push	{r3, r4, r5, r6, r7, lr}
 301              	.LCFI2:
 302              		.cfi_def_cfa_offset 24
 303              		.cfi_offset 3, -24
 304              		.cfi_offset 4, -20
 305              		.cfi_offset 5, -16
 306              		.cfi_offset 6, -12
 307              		.cfi_offset 7, -8
 308              		.cfi_offset 14, -4
 309              		.loc 1 98 0
 310 0004 89B2     		uxth	r1, r1
 311              		.loc 1 94 0
 312 0006 0546     		mov	r5, r0
 313 0008 1746     		mov	r7, r2
 314              		.loc 1 98 0
 315 000a 0120     		movs	r0, #1
 316              	.LVL33:
 317 000c 0022     		movs	r2, #0
 318              	.LVL34:
 319 000e FFF7FEFF 		bl	pbuf_alloc
 320              	.LVL35:
 321              		.loc 1 99 0
 322 0012 0646     		mov	r6, r0
 323 0014 10B3     		cbz	r0, .L34
 324              		.loc 1 100 0
 325 0016 4389     		ldrh	r3, [r0, #10]
 326 0018 132B     		cmp	r3, #19
 327 001a 21DD     		ble	.L39
 328              	.LVL36:
 329              	.L35:
 330              		.loc 1 103 0
 331 001c 688B     		ldrh	r0, [r5, #26]
 332              		.loc 1 102 0
 333 001e 7468     		ldr	r4, [r6, #4]
 334              	.LVL37:
 335              		.loc 1 103 0
 336 0020 FFF7FEFF 		bl	lwip_htons
 337              	.LVL38:
 338 0024 2080     		strh	r0, [r4, #0]	@ unaligned
 339              		.loc 1 104 0
 340 0026 A88B     		ldrh	r0, [r5, #28]
 341 0028 FFF7FEFF 		bl	lwip_htons
 342              	.LVL39:
ARM GAS  C:\Users\jenny\AppData\Local\Temp\ccUygzzS.s 			page 7


 343              		.loc 1 105 0
 344 002c 6760     		str	r7, [r4, #4]	@ unaligned
 345              		.loc 1 104 0
 346 002e 6080     		strh	r0, [r4, #2]	@ unaligned
 347              		.loc 1 106 0
 348 0030 A86A     		ldr	r0, [r5, #40]
 349 0032 FFF7FEFF 		bl	lwip_htonl
 350              	.LVL40:
 351 0036 A060     		str	r0, [r4, #8]	@ unaligned
 352              		.loc 1 107 0
 353 0038 45F21000 		movw	r0, #20496
 354 003c FFF7FEFF 		bl	lwip_htons
 355              	.LVL41:
 356 0040 A081     		strh	r0, [r4, #12]	@ unaligned
 357              		.loc 1 108 0
 358 0042 E88D     		ldrh	r0, [r5, #46]
 359 0044 FFF7FEFF 		bl	lwip_htons
 360              	.LVL42:
 361              		.loc 1 109 0
 362 0048 0021     		movs	r1, #0
 363              		.loc 1 108 0
 364 004a E081     		strh	r0, [r4, #14]	@ unaligned
 365              		.loc 1 109 0
 366 004c 2174     		strb	r1, [r4, #16]
 367 004e 6174     		strb	r1, [r4, #17]
 368              		.loc 1 110 0
 369 0050 A174     		strb	r1, [r4, #18]
 370 0052 E174     		strb	r1, [r4, #19]
 371              		.loc 1 113 0
 372 0054 EA8D     		ldrh	r2, [r5, #46]
 373 0056 A86A     		ldr	r0, [r5, #40]
 374 0058 1318     		adds	r3, r2, r0
 375 005a 2B63     		str	r3, [r5, #48]
 376              	.LVL43:
 377              	.L34:
 378              		.loc 1 116 0
 379 005c 3046     		mov	r0, r6
 380 005e F8BD     		pop	{r3, r4, r5, r6, r7, pc}
 381              	.LVL44:
 382              	.L39:
 383              		.loc 1 100 0
 384 0060 FFF7FEFF 		bl	port_halt
 385              	.LVL45:
 386 0064 DAE7     		b	.L35
 387              		.cfi_endproc
 388              	.LFE23:
 389              		.size	tcp_output_alloc_header.constprop.0, .-tcp_output_alloc_header.constprop.0
 390 0066 00BFAFF3 		.section	.text.tcp_write,"ax",%progbits
 390      0080AFF3 
 390      0080
 391              		.align	2
 392              		.p2align 4,,15
 393              		.global	tcp_write
 394              		.thumb
 395              		.thumb_func
 396              		.type	tcp_write, %function
 397              	tcp_write:
ARM GAS  C:\Users\jenny\AppData\Local\Temp\ccUygzzS.s 			page 8


 398              	.LFB12:
 399              		.loc 1 355 0
 400              		.cfi_startproc
 401              		@ args = 0, pretend = 0, frame = 48
 402              		@ frame_needed = 0, uses_anonymous_args = 0
 403              	.LVL46:
 404 0000 2DE9F04F 		push	{r4, r5, r6, r7, r8, r9, sl, fp, lr}
 405              	.LCFI3:
 406              		.cfi_def_cfa_offset 36
 407              		.cfi_offset 4, -36
 408              		.cfi_offset 5, -32
 409              		.cfi_offset 6, -28
 410              		.cfi_offset 7, -24
 411              		.cfi_offset 8, -20
 412              		.cfi_offset 9, -16
 413              		.cfi_offset 10, -12
 414              		.cfi_offset 11, -8
 415              		.cfi_offset 14, -4
 416              		.loc 1 373 0
 417 0004 B0F86240 		ldrh	r4, [r0, #98]
 418              		.loc 1 355 0
 419 0008 0546     		mov	r5, r0
 420              		.loc 1 373 0
 421 000a C08E     		ldrh	r0, [r0, #54]
 422              	.LVL47:
 423              		.loc 1 355 0
 424 000c 91B0     		sub	sp, sp, #68
 425              	.LCFI4:
 426              		.cfi_def_cfa_offset 104
 427              		.loc 1 373 0
 428 000e 6408     		lsrs	r4, r4, #1
 429              		.loc 1 363 0
 430 0010 0026     		movs	r6, #0
 431              		.loc 1 373 0
 432 0012 8442     		cmp	r4, r0
 433 0014 28BF     		it	cs
 434 0016 0446     		movcs	r4, r0
 435              		.loc 1 363 0
 436 0018 ADF83E60 		strh	r6, [sp, #62]	@ movhi
 437              	.LVL48:
 438              		.loc 1 382 0
 439 001c 0891     		str	r1, [sp, #32]
 440              		.loc 1 355 0
 441 001e 9246     		mov	sl, r2
 442 0020 0A93     		str	r3, [sp, #40]
 443              		.loc 1 373 0
 444 0022 0794     		str	r4, [sp, #28]
 445              	.LVL49:
 446              		.loc 1 382 0
 447 0024 0029     		cmp	r1, #0
 448 0026 00F02C82 		beq	.L161
 449              	.LVL50:
 450              	.LBB9:
 451              	.LBB10:
 452              		.loc 1 297 0
 453 002a 2B7E     		ldrb	r3, [r5, #24]	@ zero_extendqisi2
 454              	.LVL51:
ARM GAS  C:\Users\jenny\AppData\Local\Temp\ccUygzzS.s 			page 9


 455 002c 042B     		cmp	r3, #4
 456 002e 06D0     		beq	.L43
 457 0030 072B     		cmp	r3, #7
 458 0032 04D0     		beq	.L43
 459              		.loc 1 298 0
 460 0034 022B     		cmp	r3, #2
 461 0036 02D0     		beq	.L43
 462              		.loc 1 299 0
 463 0038 032B     		cmp	r3, #3
 464 003a 40F0CF81 		bne	.L87
 465              	.L43:
 466              		.loc 1 303 0
 467 003e BAF1000F 		cmp	sl, #0
 468 0042 71D0     		beq	.L45
 469              		.loc 1 308 0
 470 0044 B5F86610 		ldrh	r1, [r5, #102]
 471              	.LVL52:
 472 0048 5145     		cmp	r1, sl
 473 004a C0F0F781 		bcc	.L160
 474              		.loc 1 320 0
 475 004e B5F86880 		ldrh	r8, [r5, #104]
 476 0052 B8F1070F 		cmp	r8, #7
 477 0056 00F2EB81 		bhi	.L162
 478              		.loc 1 328 0
 479 005a 2A6F     		ldr	r2, [r5, #112]
 480              	.LVL53:
 481              		.loc 1 327 0
 482 005c B8F1000F 		cmp	r8, #0
 483 0060 47D0     		beq	.L48
 484              		.loc 1 328 0
 485 0062 002A     		cmp	r2, #0
 486 0064 00F0B381 		beq	.L163
 487              	.L49:
 488              	.LVL54:
 489              	.LBE10:
 490              	.LBE9:
 491              		.loc 1 422 0
 492 0068 D5F86CB0 		ldr	fp, [r5, #108]
 493 006c BBF1000F 		cmp	fp, #0
 494 0070 01D1     		bne	.L135
 495 0072 4AE0     		b	.L52
 496              	.LVL55:
 497              	.L88:
 498              	.LBB15:
 499              		.loc 1 428 0
 500 0074 B346     		mov	fp, r6
 501              	.LVL56:
 502              	.L135:
 503              		.loc 1 427 0 discriminator 1
 504 0076 DBF80060 		ldr	r6, [fp, #0]
 505 007a 002E     		cmp	r6, #0
 506 007c FAD1     		bne	.L88
 507              		.loc 1 431 0
 508 007e 9BF80A10 		ldrb	r1, [fp, #10]	@ zero_extendqisi2
 509 0082 BBF80890 		ldrh	r9, [fp, #8]
 510 0086 079E     		ldr	r6, [sp, #28]
 511              		.loc 1 447 0
ARM GAS  C:\Users\jenny\AppData\Local\Temp\ccUygzzS.s 			page 10


 512 0088 B5F86A40 		ldrh	r4, [r5, #106]
 513              		.loc 1 431 0
 514 008c 11F0010F 		tst	r1, #1
 515 0090 01F00200 		and	r0, r1, #2
 516 0094 0CBF     		ite	eq
 517 0096 0022     		moveq	r2, #0
 518 0098 0422     		movne	r2, #4
 519 009a C9EB0601 		rsb	r1, r9, r6
 520 009e C3B2     		uxtb	r3, r0
 521 00a0 002B     		cmp	r3, #0
 522 00a2 14BF     		ite	ne
 523 00a4 0C20     		movne	r0, #12
 524 00a6 0020     		moveq	r0, #0
 525              	.LVL57:
 526              		.loc 1 432 0
 527 00a8 C2EB010C 		rsb	ip, r2, r1
 528 00ac C0EB0C09 		rsb	r9, r0, ip
 529 00b0 1FFA89F9 		uxth	r9, r9
 530              	.LVL58:
 531              		.loc 1 447 0
 532 00b4 ADF83E40 		strh	r4, [sp, #62]	@ movhi
 533              		.loc 1 448 0
 534 00b8 002C     		cmp	r4, #0
 535 00ba 38D0     		beq	.L91
 536              	.LVL59:
 537              		.loc 1 451 0
 538 00bc A245     		cmp	sl, r4
 539 00be 34BF     		ite	cc
 540 00c0 5246     		movcc	r2, sl
 541 00c2 2246     		movcs	r2, r4
 542              	.LVL60:
 543              		.loc 1 453 0
 544 00c4 A41A     		subs	r4, r4, r2
 545 00c6 A4B2     		uxth	r4, r4
 546              	.LVL61:
 547              		.loc 1 454 0
 548 00c8 C2EB0903 		rsb	r3, r2, r9
 549              		.loc 1 451 0
 550 00cc 0C92     		str	r2, [sp, #48]
 551              	.LVL62:
 552              		.loc 1 453 0
 553 00ce ADF83E40 		strh	r4, [sp, #62]	@ movhi
 554              		.loc 1 454 0
 555 00d2 1FFA83F9 		uxth	r9, r3
 556              	.LVL63:
 557              		.loc 1 457 0
 558 00d6 002C     		cmp	r4, #0
 559 00d8 00F0D781 		beq	.L92
 560              		.loc 1 457 0 is_stmt 0 discriminator 1
 561 00dc 9245     		cmp	sl, r2
 562 00de 00F0B080 		beq	.L93
 563              		.loc 1 457 0 discriminator 2
 564 00e2 FFF7FEFF 		bl	port_halt
 565              	.LVL64:
 566 00e6 0C9C     		ldr	r4, [sp, #48]
 567              		.loc 1 467 0 is_stmt 1 discriminator 2
 568 00e8 A245     		cmp	sl, r4
ARM GAS  C:\Users\jenny\AppData\Local\Temp\ccUygzzS.s 			page 11


 569              		.loc 1 457 0 discriminator 2
 570 00ea 5E46     		mov	r6, fp
 571              		.loc 1 467 0 discriminator 2
 572 00ec 22D8     		bhi	.L164
 573              	.LVL65:
 574              	.L94:
 575              		.loc 1 467 0 is_stmt 0
 576 00ee 0C94     		str	r4, [sp, #48]
 577 00f0 A8E0     		b	.L57
 578              	.LVL66:
 579              	.L48:
 580              	.LBE15:
 581              	.LBB19:
 582              	.LBB11:
 583              		.loc 1 331 0 is_stmt 1
 584 00f2 002A     		cmp	r2, #0
 585 00f4 00F00481 		beq	.L165
 586              	.L51:
 587 00f8 FFF7FEFF 		bl	port_halt
 588              	.LVL67:
 589              	.LBE11:
 590              	.LBE19:
 591              		.loc 1 422 0
 592 00fc D5F86CB0 		ldr	fp, [r5, #108]
 593 0100 B5F86880 		ldrh	r8, [r5, #104]
 594              	.LVL68:
 595 0104 BBF1000F 		cmp	fp, #0
 596 0108 B5D1     		bne	.L135
 597              	.LVL69:
 598              	.L52:
 599              		.loc 1 511 0
 600 010a B5F86A30 		ldrh	r3, [r5, #106]
 601 010e 002B     		cmp	r3, #0
 602 0110 40F09A81 		bne	.L166
 603              		.loc 1 364 0
 604 0114 0C93     		str	r3, [sp, #48]
 605              		.loc 1 358 0
 606 0116 1C46     		mov	r4, r3
 607              		.loc 1 357 0
 608 0118 9B46     		mov	fp, r3
 609              		.loc 1 356 0
 610 011a 0B93     		str	r3, [sp, #44]
 611              	.LVL70:
 612              	.L64:
 613              		.loc 1 522 0 discriminator 1
 614 011c A245     		cmp	sl, r4
 615 011e 0FD8     		bhi	.L58
 616              		.loc 1 522 0 is_stmt 0
 617 0120 0023     		movs	r3, #0
 618 0122 5E46     		mov	r6, fp
 619 0124 0693     		str	r3, [sp, #24]
 620 0126 90E0     		b	.L65
 621              	.LVL71:
 622              	.L45:
 623 0128 B5F86880 		ldrh	r8, [r5, #104]
 624 012c 9CE7     		b	.L49
 625              	.LVL72:
ARM GAS  C:\Users\jenny\AppData\Local\Temp\ccUygzzS.s 			page 12


 626              	.L91:
 627              	.LBB20:
 628              		.loc 1 357 0 is_stmt 1
 629 012e 2646     		mov	r6, r4
 630              	.LVL73:
 631              	.L56:
 632              		.loc 1 467 0
 633 0130 A245     		cmp	sl, r4
 634 0132 DCD9     		bls	.L94
 635              	.LVL74:
 636              	.L164:
 637              		.loc 1 467 0 is_stmt 0 discriminator 1
 638 0134 B9F1000F 		cmp	r9, #0
 639 0138 7BD1     		bne	.L167
 640              		.loc 1 467 0
 641 013a 0C94     		str	r4, [sp, #48]
 642 013c CDF82C90 		str	r9, [sp, #44]
 643              	.LVL75:
 644              	.L58:
 645 0140 0A99     		ldr	r1, [sp, #40]
 646 0142 CDF834B0 		str	fp, [sp, #52]
 647              	.LBB16:
 648              		.loc 1 506 0 is_stmt 1
 649 0146 0027     		movs	r7, #0
 650 0148 2846     		mov	r0, r5
 651 014a 01F00102 		and	r2, r1, #1
 652 014e 0697     		str	r7, [sp, #24]
 653 0150 0992     		str	r2, [sp, #36]
 654 0152 3D46     		mov	r5, r7
 655              	.LVL76:
 656 0154 8146     		mov	r9, r0
 657 0156 42E0     		b	.L60
 658              	.LVL77:
 659              	.L66:
 660              	.LBE16:
 661              	.LBE20:
 662              	.LBB21:
 663              	.LBB22:
 664              		.loc 1 550 0
 665 0158 BDF83E00 		ldrh	r0, [sp, #62]
 666              	.LVL78:
 667 015c 0028     		cmp	r0, #0
 668 015e 40F0D480 		bne	.L168
 669              	.LVL79:
 670              	.L70:
 671              		.loc 1 552 0
 672 0162 0020     		movs	r0, #0
 673              	.LVL80:
 674 0164 3946     		mov	r1, r7
 675 0166 0122     		movs	r2, #1
 676 0168 FFF7FEFF 		bl	pbuf_alloc
 677              	.LVL81:
 678 016c 8346     		mov	fp, r0
 679 016e 0028     		cmp	r0, #0
 680 0170 00F0E280 		beq	.L156
 681              		.loc 1 561 0
 682 0174 089E     		ldr	r6, [sp, #32]
ARM GAS  C:\Users\jenny\AppData\Local\Temp\ccUygzzS.s 			page 13


 683              		.loc 1 564 0
 684 0176 0020     		movs	r0, #0
 685              	.LVL82:
 686              		.loc 1 561 0
 687 0178 3319     		adds	r3, r6, r4
 688 017a CBF80430 		str	r3, [fp, #4]
 689              		.loc 1 564 0
 690 017e 0146     		mov	r1, r0
 691 0180 0246     		mov	r2, r0
 692 0182 FFF7FEFF 		bl	pbuf_alloc
 693              	.LVL83:
 694 0186 0646     		mov	r6, r0
 695 0188 0028     		cmp	r0, #0
 696 018a 00F0FC80 		beq	.L169
 697              		.loc 1 572 0
 698 018e 5946     		mov	r1, fp
 699 0190 FFF7FEFF 		bl	pbuf_cat
 700              	.LVL84:
 701              	.L69:
 702              	.LBE22:
 703              		.loc 1 575 0
 704 0194 3046     		mov	r0, r6
 705 0196 FFF7FEFF 		bl	pbuf_clen
 706              	.LVL85:
 707 019a 08EB0002 		add	r2, r8, r0
 708 019e 1FFA82F8 		uxth	r8, r2
 709              	.LVL86:
 710              		.loc 1 580 0
 711 01a2 B8F1080F 		cmp	r8, #8
 712 01a6 00F2E980 		bhi	.L170
 713              		.loc 1 586 0
 714 01aa D9F85C30 		ldr	r3, [r9, #92]
 715 01ae 0022     		movs	r2, #0
 716              	.LVL87:
 717 01b0 0092     		str	r2, [sp, #0]
 718 01b2 4846     		mov	r0, r9
 719 01b4 3146     		mov	r1, r6
 720 01b6 E318     		adds	r3, r4, r3
 721 01b8 FFF7FEFF 		bl	tcp_create_segment
 722              	.LVL88:
 723 01bc 0028     		cmp	r0, #0
 724 01be 00F0BB80 		beq	.L156
 725              		.loc 1 599 0
 726 01c2 0699     		ldr	r1, [sp, #24]
 727 01c4 0029     		cmp	r1, #0
 728 01c6 00F0A380 		beq	.L97
 729              		.loc 1 603 0
 730 01ca 002D     		cmp	r5, #0
 731 01cc 00F0AF80 		beq	.L171
 732              	.LVL89:
 733              	.L75:
 734              		.loc 1 604 0
 735 01d0 2860     		str	r0, [r5, #0]
 736              	.LVL90:
 737              		.loc 1 613 0
 738 01d2 3D19     		adds	r5, r7, r4
 739 01d4 ACB2     		uxth	r4, r5
ARM GAS  C:\Users\jenny\AppData\Local\Temp\ccUygzzS.s 			page 14


 740              	.LVL91:
 741              	.LBE21:
 742              		.loc 1 522 0
 743 01d6 A245     		cmp	sl, r4
 744 01d8 0546     		mov	r5, r0
 745              	.LVL92:
 746 01da 40F2A080 		bls	.L172
 747              	.LVL93:
 748              	.L60:
 749              	.LBB25:
 750              		.loc 1 524 0
 751 01de C4EB0A03 		rsb	r3, r4, sl
 752              		.loc 1 526 0
 753 01e2 0799     		ldr	r1, [sp, #28]
 754              		.loc 1 532 0
 755 01e4 099A     		ldr	r2, [sp, #36]
 756              		.loc 1 526 0
 757 01e6 9FB2     		uxth	r7, r3
 758 01e8 8F42     		cmp	r7, r1
 759 01ea 28BF     		it	cs
 760 01ec 0F46     		movcs	r7, r1
 761              	.LVL94:
 762              		.loc 1 532 0
 763 01ee 002A     		cmp	r2, #0
 764 01f0 B2D0     		beq	.L66
 765              		.loc 1 535 0
 766 01f2 069A     		ldr	r2, [sp, #24]
 767 01f4 0A9E     		ldr	r6, [sp, #40]
 768 01f6 CDF80090 		str	r9, [sp, #0]
 769 01fa D2F10100 		rsbs	r0, r2, #1
 770 01fe 38BF     		it	cc
 771 0200 0020     		movcc	r0, #0
 772 0202 0196     		str	r6, [sp, #4]
 773 0204 0290     		str	r0, [sp, #8]
 774 0206 3946     		mov	r1, r7
 775 0208 0020     		movs	r0, #0
 776 020a 079A     		ldr	r2, [sp, #28]
 777 020c 0DF13E03 		add	r3, sp, #62
 778 0210 FFF7FEFF 		bl	tcp_pbuf_prealloc
 779              	.LVL95:
 780 0214 0646     		mov	r6, r0
 781 0216 0028     		cmp	r0, #0
 782 0218 00F08E80 		beq	.L156
 783              		.loc 1 539 0
 784 021c 4389     		ldrh	r3, [r0, #10]
 785 021e BB42     		cmp	r3, r7
 786 0220 C0F08280 		bcc	.L173
 787              	.LVL96:
 788              	.L68:
 789              		.loc 1 541 0
 790 0224 0899     		ldr	r1, [sp, #32]
 791 0226 7068     		ldr	r0, [r6, #4]
 792 0228 0919     		adds	r1, r1, r4
 793 022a 3A46     		mov	r2, r7
 794 022c FFF7FEFF 		bl	memcpy
 795              	.LVL97:
 796 0230 B0E7     		b	.L69
ARM GAS  C:\Users\jenny\AppData\Local\Temp\ccUygzzS.s 			page 15


 797              	.LVL98:
 798              	.L167:
 799              	.LBE25:
 800              	.LBB26:
 801              		.loc 1 467 0 discriminator 1
 802 0232 BBF80870 		ldrh	r7, [fp, #8]
 803 0236 002F     		cmp	r7, #0
 804 0238 40F0AA80 		bne	.L59
 805              		.loc 1 467 0 is_stmt 0
 806 023c 0C94     		str	r4, [sp, #48]
 807 023e 0B97     		str	r7, [sp, #44]
 808 0240 7EE7     		b	.L58
 809              	.LVL99:
 810              	.L93:
 811              		.loc 1 457 0 is_stmt 1
 812 0242 5E46     		mov	r6, fp
 813              	.LVL100:
 814              	.L57:
 815              	.LBE26:
 816              		.loc 1 522 0
 817 0244 0021     		movs	r1, #0
 818 0246 0B91     		str	r1, [sp, #44]
 819 0248 0691     		str	r1, [sp, #24]
 820              	.LVL101:
 821              	.L65:
 822              		.loc 1 626 0
 823 024a 0C98     		ldr	r0, [sp, #48]
 824 024c F0B1     		cbz	r0, .L76
 825              	.LBB27:
 826              		.loc 1 629 0
 827 024e DBF80440 		ldr	r4, [fp, #4]
 828              	.LVL102:
 829 0252 ACB1     		cbz	r4, .L77
 830 0254 0C9F     		ldr	r7, [sp, #48]
 831 0256 00E0     		b	.L151
 832              	.LVL103:
 833              	.L79:
 834              	.LBE27:
 835              		.loc 1 522 0
 836 0258 0446     		mov	r4, r0
 837              	.L151:
 838              	.LBB28:
 839              		.loc 1 630 0
 840 025a 2289     		ldrh	r2, [r4, #8]
 841              		.loc 1 631 0
 842 025c 2068     		ldr	r0, [r4, #0]
 843              		.loc 1 630 0
 844 025e B918     		adds	r1, r7, r2
 845 0260 2181     		strh	r1, [r4, #8]	@ movhi
 846              		.loc 1 631 0
 847 0262 0028     		cmp	r0, #0
 848 0264 F8D1     		bne	.L79
 849              		.loc 1 632 0
 850 0266 6089     		ldrh	r0, [r4, #10]
 851 0268 6368     		ldr	r3, [r4, #4]
 852 026a 0899     		ldr	r1, [sp, #32]
 853 026c 3A46     		mov	r2, r7
ARM GAS  C:\Users\jenny\AppData\Local\Temp\ccUygzzS.s 			page 16


 854 026e 1818     		adds	r0, r3, r0
 855 0270 FFF7FEFF 		bl	memcpy
 856              	.LVL104:
 857              		.loc 1 633 0
 858 0274 6289     		ldrh	r2, [r4, #10]
 859              		.loc 1 629 0
 860 0276 2068     		ldr	r0, [r4, #0]
 861              	.LVL105:
 862              		.loc 1 633 0
 863 0278 B918     		adds	r1, r7, r2
 864 027a 6181     		strh	r1, [r4, #10]	@ movhi
 865              		.loc 1 629 0
 866 027c 0028     		cmp	r0, #0
 867 027e EBD1     		bne	.L79
 868              	.LVL106:
 869              	.L77:
 870              		.loc 1 636 0
 871 0280 BBF80830 		ldrh	r3, [fp, #8]
 872 0284 0C9A     		ldr	r2, [sp, #48]
 873 0286 D018     		adds	r0, r2, r3
 874 0288 ABF80800 		strh	r0, [fp, #8]	@ movhi
 875              	.LVL107:
 876              	.L76:
 877              	.LBE28:
 878              		.loc 1 643 0
 879 028c BDF83E10 		ldrh	r1, [sp, #62]
 880              		.loc 1 649 0
 881 0290 0B9B     		ldr	r3, [sp, #44]
 882              		.loc 1 643 0
 883 0292 A5F86A10 		strh	r1, [r5, #106]	@ movhi
 884              		.loc 1 649 0
 885 0296 002B     		cmp	r3, #0
 886 0298 00F0DE80 		beq	.L80
 887              		.loc 1 650 0
 888 029c BBF1000F 		cmp	fp, #0
 889 02a0 00F0EC80 		beq	.L174
 890              	.L81:
 891              		.loc 1 652 0
 892 02a4 DBF80400 		ldr	r0, [fp, #4]
 893 02a8 0B99     		ldr	r1, [sp, #44]
 894 02aa FFF7FEFF 		bl	pbuf_cat
 895              	.LVL108:
 896              		.loc 1 653 0
 897 02ae 0B98     		ldr	r0, [sp, #44]
 898 02b0 BBF80830 		ldrh	r3, [fp, #8]
 899 02b4 0189     		ldrh	r1, [r0, #8]
 900 02b6 CA18     		adds	r2, r1, r3
 901 02b8 ABF80820 		strh	r2, [fp, #8]	@ movhi
 902              	.L82:
 903              		.loc 1 670 0
 904 02bc 0698     		ldr	r0, [sp, #24]
 905 02be CBF80000 		str	r0, [fp, #0]
 906              	.L83:
 907              		.loc 1 676 0
 908 02c2 E96D     		ldr	r1, [r5, #92]
 909              		.loc 1 677 0
 910 02c4 B5F86620 		ldrh	r2, [r5, #102]
ARM GAS  C:\Users\jenny\AppData\Local\Temp\ccUygzzS.s 			page 17


 911              		.loc 1 678 0
 912 02c8 A5F86880 		strh	r8, [r5, #104]	@ movhi
 913              		.loc 1 676 0
 914 02cc 01EB0A03 		add	r3, r1, sl
 915              		.loc 1 677 0
 916 02d0 CAEB020A 		rsb	sl, sl, r2
 917              	.LVL109:
 918              		.loc 1 676 0
 919 02d4 EB65     		str	r3, [r5, #92]
 920              		.loc 1 677 0
 921 02d6 A5F866A0 		strh	sl, [r5, #102]	@ movhi
 922              		.loc 1 682 0
 923 02da B8F1000F 		cmp	r8, #0
 924 02de 03D0     		beq	.L84
 925              		.loc 1 683 0
 926 02e0 286F     		ldr	r0, [r5, #112]
 927 02e2 0028     		cmp	r0, #0
 928 02e4 00F09D80 		beq	.L175
 929              	.L84:
 930              		.loc 1 688 0
 931 02e8 46B1     		cbz	r6, .L100
 932              		.loc 1 688 0 is_stmt 0 discriminator 1
 933 02ea F468     		ldr	r4, [r6, #12]
 934 02ec 34B1     		cbz	r4, .L100
 935 02ee 0A9E     		ldr	r6, [sp, #40]
 936              	.LVL110:
 937 02f0 06F00202 		and	r2, r6, #2
 938 02f4 D6B2     		uxtb	r6, r2
 939 02f6 002E     		cmp	r6, #0
 940 02f8 00F08780 		beq	.L176
 941              	.L100:
 942              		.loc 1 692 0 is_stmt 1
 943 02fc 0022     		movs	r2, #0
 944 02fe 39E0     		b	.L42
 945              	.LVL111:
 946              	.L165:
 947              	.LBB29:
 948              	.LBB12:
 949              		.loc 1 331 0
 950 0300 EC6E     		ldr	r4, [r5, #108]
 951 0302 002C     		cmp	r4, #0
 952 0304 7FF4F8AE 		bne	.L51
 953 0308 FFE6     		b	.L52
 954              	.LVL112:
 955              	.L168:
 956              	.LBE12:
 957              	.LBE29:
 958              	.LBB30:
 959              	.LBB23:
 960              		.loc 1 550 0 discriminator 1
 961 030a FFF7FEFF 		bl	port_halt
 962              	.LVL113:
 963 030e 28E7     		b	.L70
 964              	.LVL114:
 965              	.L97:
 966              	.LBE23:
 967              		.loc 1 613 0
ARM GAS  C:\Users\jenny\AppData\Local\Temp\ccUygzzS.s 			page 18


 968 0310 3D19     		adds	r5, r7, r4
 969 0312 ACB2     		uxth	r4, r5
 970              	.LVL115:
 971              	.LBE30:
 972              		.loc 1 522 0
 973 0314 A245     		cmp	sl, r4
 974              	.LBB31:
 975              		.loc 1 599 0
 976 0316 0690     		str	r0, [sp, #24]
 977              	.LVL116:
 978 0318 0546     		mov	r5, r0
 979              	.LVL117:
 980              	.LBE31:
 981              		.loc 1 522 0
 982 031a 3FF660AF 		bhi	.L60
 983              	.LVL118:
 984              	.L172:
 985 031e DDF834B0 		ldr	fp, [sp, #52]
 986 0322 0646     		mov	r6, r0
 987              	.LVL119:
 988 0324 4D46     		mov	r5, r9
 989 0326 90E7     		b	.L65
 990              	.LVL120:
 991              	.L173:
 992              	.LBB32:
 993              		.loc 1 539 0 discriminator 1
 994 0328 FFF7FEFF 		bl	port_halt
 995              	.LVL121:
 996 032c 7AE7     		b	.L68
 997              	.LVL122:
 998              	.L171:
 999              		.loc 1 603 0 discriminator 1
 1000 032e 0590     		str	r0, [sp, #20]
 1001 0330 FFF7FEFF 		bl	port_halt
 1002              	.LVL123:
 1003 0334 0598     		ldr	r0, [sp, #20]
 1004 0336 4BE7     		b	.L75
 1005              	.LVL124:
 1006              	.L156:
 1007 0338 4D46     		mov	r5, r9
 1008              	.LVL125:
 1009              	.L72:
 1010              	.LBE32:
 1011              		.loc 1 694 0
 1012 033a A87F     		ldrb	r0, [r5, #30]	@ zero_extendqisi2
 1013              		.loc 1 695 0
 1014 033c 544B     		ldr	r3, .L179
 1015              		.loc 1 694 0
 1016 033e 60F07F01 		orn	r1, r0, #127
 1017 0342 A977     		strb	r1, [r5, #30]
 1018              		.loc 1 695 0
 1019 0344 B3F89C20 		ldrh	r2, [r3, #156]
 1020 0348 501C     		adds	r0, r2, #1
 1021 034a A3F89C00 		strh	r0, [r3, #156]	@ movhi
 1022              		.loc 1 697 0
 1023 034e 0B9B     		ldr	r3, [sp, #44]
 1024 0350 13B1     		cbz	r3, .L85
ARM GAS  C:\Users\jenny\AppData\Local\Temp\ccUygzzS.s 			page 19


 1025              		.loc 1 698 0
 1026 0352 1846     		mov	r0, r3
 1027 0354 FFF7FEFF 		bl	pbuf_free
 1028              	.LVL126:
 1029              	.L85:
 1030              		.loc 1 700 0
 1031 0358 0699     		ldr	r1, [sp, #24]
 1032 035a 11B1     		cbz	r1, .L86
 1033              		.loc 1 701 0
 1034 035c 0846     		mov	r0, r1
 1035 035e FFF7FEFF 		bl	tcp_segs_free
 1036              	.LVL127:
 1037              	.L86:
 1038              		.loc 1 703 0
 1039 0362 B5F86800 		ldrh	r0, [r5, #104]
 1040 0366 20B1     		cbz	r0, .L103
 1041              		.loc 1 704 0
 1042 0368 2B6F     		ldr	r3, [r5, #112]
 1043 036a 13B9     		cbnz	r3, .L103
 1044              		.loc 1 704 0 is_stmt 0 discriminator 1
 1045 036c E96E     		ldr	r1, [r5, #108]
 1046 036e 0029     		cmp	r1, #0
 1047 0370 53D0     		beq	.L177
 1048              	.L103:
 1049              		.loc 1 708 0 is_stmt 1
 1050 0372 FF22     		movs	r2, #255
 1051              	.LVL128:
 1052              	.L42:
 1053 0374 50B2     		sxtb	r0, r2
 1054              		.loc 1 709 0
 1055 0376 11B0     		add	sp, sp, #68
 1056 0378 BDE8F08F 		pop	{r4, r5, r6, r7, r8, r9, sl, fp, pc}
 1057              	.LVL129:
 1058              	.L170:
 1059              	.LBB33:
 1060              		.loc 1 582 0
 1061 037c 3046     		mov	r0, r6
 1062 037e 4D46     		mov	r5, r9
 1063 0380 FFF7FEFF 		bl	pbuf_free
 1064              	.LVL130:
 1065              		.loc 1 583 0
 1066 0384 D9E7     		b	.L72
 1067              	.LVL131:
 1068              	.L169:
 1069              	.LBB24:
 1070              		.loc 1 567 0
 1071 0386 5846     		mov	r0, fp
 1072              	.LVL132:
 1073 0388 4D46     		mov	r5, r9
 1074 038a FFF7FEFF 		bl	pbuf_free
 1075              	.LVL133:
 1076              		.loc 1 569 0
 1077 038e D4E7     		b	.L72
 1078              	.LVL134:
 1079              	.L59:
 1080              	.LBE24:
 1081              	.LBE33:
ARM GAS  C:\Users\jenny\AppData\Local\Temp\ccUygzzS.s 			page 20


 1082              	.LBB34:
 1083              	.LBB17:
 1084              		.loc 1 474 0
 1085 0390 0A98     		ldr	r0, [sp, #40]
 1086              		.loc 1 468 0
 1087 0392 C4EB0A07 		rsb	r7, r4, sl
 1088 0396 4F45     		cmp	r7, r9
 1089 0398 A8BF     		it	ge
 1090 039a 4F46     		movge	r7, r9
 1091              		.loc 1 474 0
 1092 039c C307     		lsls	r3, r0, #31
 1093              		.loc 1 468 0
 1094 039e BEB2     		uxth	r6, r7
 1095              	.LVL135:
 1096              		.loc 1 474 0
 1097 03a0 1ED4     		bmi	.L178
 1098              		.loc 1 491 0
 1099 03a2 0320     		movs	r0, #3
 1100 03a4 3146     		mov	r1, r6
 1101 03a6 0122     		movs	r2, #1
 1102 03a8 FFF7FEFF 		bl	pbuf_alloc
 1103              	.LVL136:
 1104 03ac 0B90     		str	r0, [sp, #44]
 1105 03ae 0028     		cmp	r0, #0
 1106 03b0 59D0     		beq	.L62
 1107              		.loc 1 503 0
 1108 03b2 089A     		ldr	r2, [sp, #32]
 1109 03b4 1319     		adds	r3, r2, r4
 1110 03b6 4360     		str	r3, [r0, #4]
 1111              	.LVL137:
 1112              	.L63:
 1113              		.loc 1 507 0
 1114 03b8 0B98     		ldr	r0, [sp, #44]
 1115 03ba FFF7FEFF 		bl	pbuf_clen
 1116              	.LVL138:
 1117              		.loc 1 506 0
 1118 03be 3619     		adds	r6, r6, r4
 1119 03c0 B6B2     		uxth	r6, r6
 1120              	.LVL139:
 1121              		.loc 1 507 0
 1122 03c2 4044     		add	r0, r0, r8
 1123 03c4 0C94     		str	r4, [sp, #48]
 1124 03c6 1FFA80F8 		uxth	r8, r0
 1125              	.LVL140:
 1126              		.loc 1 506 0
 1127 03ca 3446     		mov	r4, r6
 1128 03cc A6E6     		b	.L64
 1129              	.LVL141:
 1130              	.L163:
 1131              	.LBE17:
 1132              	.LBE34:
 1133              	.LBB35:
 1134              	.LBB13:
 1135              		.loc 1 328 0
 1136 03ce D5F86CB0 		ldr	fp, [r5, #108]
 1137 03d2 BBF1000F 		cmp	fp, #0
 1138 03d6 7FF44EAE 		bne	.L135
ARM GAS  C:\Users\jenny\AppData\Local\Temp\ccUygzzS.s 			page 21


 1139 03da 8DE6     		b	.L51
 1140              	.LVL142:
 1141              	.L87:
 1142              		.loc 1 302 0
 1143 03dc F322     		movs	r2, #243
 1144              	.LVL143:
 1145 03de C9E7     		b	.L42
 1146              	.LVL144:
 1147              	.L178:
 1148              	.LBE13:
 1149              	.LBE35:
 1150              	.LBB36:
 1151              	.LBB18:
 1152              		.loc 1 476 0
 1153 03e0 0121     		movs	r1, #1
 1154 03e2 0190     		str	r0, [sp, #4]
 1155 03e4 0291     		str	r1, [sp, #8]
 1156 03e6 0095     		str	r5, [sp, #0]
 1157 03e8 0320     		movs	r0, #3
 1158 03ea 3146     		mov	r1, r6
 1159 03ec 4A46     		mov	r2, r9
 1160 03ee 0DF13E03 		add	r3, sp, #62
 1161 03f2 FFF7FEFF 		bl	tcp_pbuf_prealloc
 1162              	.LVL145:
 1163 03f6 0B90     		str	r0, [sp, #44]
 1164 03f8 0028     		cmp	r0, #0
 1165 03fa 34D0     		beq	.L62
 1166              		.loc 1 485 0
 1167 03fc 089A     		ldr	r2, [sp, #32]
 1168 03fe 4068     		ldr	r0, [r0, #4]
 1169              	.LVL146:
 1170 0400 1119     		adds	r1, r2, r4
 1171 0402 3246     		mov	r2, r6
 1172 0404 FFF7FEFF 		bl	memcpy
 1173              	.LVL147:
 1174 0408 D6E7     		b	.L63
 1175              	.LVL148:
 1176              	.L176:
 1177              	.LBE18:
 1178              	.LBE36:
 1179              		.loc 1 689 0
 1180 040a 0820     		movs	r0, #8
 1181 040c A589     		ldrh	r5, [r4, #12]	@ unaligned
 1182              	.LVL149:
 1183 040e FFF7FEFF 		bl	lwip_htons
 1184              	.LVL150:
 1185 0412 2843     		orrs	r0, r0, r5
 1186 0414 A081     		strh	r0, [r4, #12]	@ unaligned
 1187              		.loc 1 692 0
 1188 0416 3246     		mov	r2, r6
 1189 0418 ACE7     		b	.L42
 1190              	.LVL151:
 1191              	.L177:
 1192              		.loc 1 704 0 discriminator 2
 1193 041a FFF7FEFF 		bl	port_halt
 1194              	.LVL152:
 1195              		.loc 1 708 0 discriminator 2
ARM GAS  C:\Users\jenny\AppData\Local\Temp\ccUygzzS.s 			page 22


 1196 041e FF22     		movs	r2, #255
 1197 0420 A8E7     		b	.L42
 1198              	.LVL153:
 1199              	.L175:
 1200              		.loc 1 683 0 discriminator 1
 1201 0422 E96E     		ldr	r1, [r5, #108]
 1202 0424 0029     		cmp	r1, #0
 1203 0426 7FF45FAF 		bne	.L84
 1204              		.loc 1 683 0 is_stmt 0 discriminator 2
 1205 042a FFF7FEFF 		bl	port_halt
 1206              	.LVL154:
 1207 042e 5BE7     		b	.L84
 1208              	.LVL155:
 1209              	.L162:
 1210              	.LBB37:
 1211              	.LBB14:
 1212              		.loc 1 323 0 is_stmt 1
 1213 0430 1748     		ldr	r0, .L179
 1214 0432 B0F89C30 		ldrh	r3, [r0, #156]
 1215 0436 591C     		adds	r1, r3, #1
 1216 0438 A0F89C10 		strh	r1, [r0, #156]	@ movhi
 1217              	.L160:
 1218              		.loc 1 324 0
 1219 043c AA7F     		ldrb	r2, [r5, #30]	@ zero_extendqisi2
 1220              	.LVL156:
 1221 043e 62F07F00 		orn	r0, r2, #127
 1222 0442 A877     		strb	r0, [r5, #30]
 1223              		.loc 1 325 0
 1224 0444 FF22     		movs	r2, #255
 1225 0446 95E7     		b	.L42
 1226              	.L166:
 1227              	.LBE14:
 1228              	.LBE37:
 1229              		.loc 1 364 0 discriminator 1
 1230 0448 0024     		movs	r4, #0
 1231 044a 0C94     		str	r4, [sp, #48]
 1232              		.loc 1 511 0 discriminator 1
 1233 044c FFF7FEFF 		bl	port_halt
 1234              	.LVL157:
 1235              		.loc 1 358 0 discriminator 1
 1236 0450 0C9C     		ldr	r4, [sp, #48]
 1237              		.loc 1 357 0 discriminator 1
 1238 0452 A346     		mov	fp, r4
 1239              		.loc 1 356 0 discriminator 1
 1240 0454 0B94     		str	r4, [sp, #44]
 1241 0456 61E6     		b	.L64
 1242              	.LVL158:
 1243              	.L80:
 1244              		.loc 1 667 0
 1245 0458 BBF1000F 		cmp	fp, #0
 1246 045c 7FF42EAF 		bne	.L82
 1247              		.loc 1 668 0
 1248 0460 069A     		ldr	r2, [sp, #24]
 1249 0462 EA66     		str	r2, [r5, #108]
 1250 0464 2DE7     		b	.L83
 1251              	.LVL159:
 1252              	.L62:
ARM GAS  C:\Users\jenny\AppData\Local\Temp\ccUygzzS.s 			page 23


 1253              		.loc 1 694 0
 1254 0466 AA7F     		ldrb	r2, [r5, #30]	@ zero_extendqisi2
 1255              		.loc 1 695 0
 1256 0468 0948     		ldr	r0, .L179
 1257              		.loc 1 694 0
 1258 046a 62F07F03 		orn	r3, r2, #127
 1259 046e AB77     		strb	r3, [r5, #30]
 1260              		.loc 1 695 0
 1261 0470 B0F89C10 		ldrh	r1, [r0, #156]
 1262 0474 4A1C     		adds	r2, r1, #1
 1263 0476 A0F89C20 		strh	r2, [r0, #156]	@ movhi
 1264 047a 72E7     		b	.L86
 1265              	.LVL160:
 1266              	.L174:
 1267              		.loc 1 650 0 discriminator 1
 1268 047c FFF7FEFF 		bl	port_halt
 1269              	.LVL161:
 1270 0480 10E7     		b	.L81
 1271              	.LVL162:
 1272              	.L161:
 1273              		.loc 1 382 0 discriminator 1
 1274 0482 FFF7FEFF 		bl	port_halt
 1275              	.LVL163:
 1276 0486 F222     		movs	r2, #242
 1277 0488 74E7     		b	.L42
 1278              	.LVL164:
 1279              	.L92:
 1280              	.LBB38:
 1281              		.loc 1 451 0
 1282 048a 0C9C     		ldr	r4, [sp, #48]
 1283              	.LVL165:
 1284              		.loc 1 457 0
 1285 048c 5E46     		mov	r6, fp
 1286 048e 4FE6     		b	.L56
 1287              	.L180:
 1288              		.align	2
 1289              	.L179:
 1290 0490 00000000 		.word	lwip_stats
 1291              	.LBE38:
 1292              		.cfi_endproc
 1293              	.LFE12:
 1294              		.size	tcp_write, .-tcp_write
 1295 0494 AFF30080 		.section	.text.tcp_enqueue_flags,"ax",%progbits
 1295      AFF30080 
 1295      AFF30080 
 1296              		.align	2
 1297              		.p2align 4,,15
 1298              		.global	tcp_enqueue_flags
 1299              		.thumb
 1300              		.thumb_func
 1301              		.type	tcp_enqueue_flags, %function
 1302              	tcp_enqueue_flags:
 1303              	.LFB13:
 1304              		.loc 1 723 0
 1305              		.cfi_startproc
 1306              		@ args = 0, pretend = 0, frame = 0
 1307              		@ frame_needed = 0, uses_anonymous_args = 0
ARM GAS  C:\Users\jenny\AppData\Local\Temp\ccUygzzS.s 			page 24


 1308              	.LVL166:
 1309 0000 2DE9F043 		push	{r4, r5, r6, r7, r8, r9, lr}
 1310              	.LCFI5:
 1311              		.cfi_def_cfa_offset 28
 1312              		.cfi_offset 4, -28
 1313              		.cfi_offset 5, -24
 1314              		.cfi_offset 6, -20
 1315              		.cfi_offset 7, -16
 1316              		.cfi_offset 8, -12
 1317              		.cfi_offset 9, -8
 1318              		.cfi_offset 14, -4
 1319              		.loc 1 731 0
 1320 0004 11F00308 		ands	r8, r1, #3
 1321              		.loc 1 723 0
 1322 0008 83B0     		sub	sp, sp, #12
 1323              	.LCFI6:
 1324              		.cfi_def_cfa_offset 40
 1325              		.loc 1 723 0
 1326 000a 0E46     		mov	r6, r1
 1327 000c 0546     		mov	r5, r0
 1328              		.loc 1 731 0
 1329 000e 5BD0     		beq	.L216
 1330              	.LVL167:
 1331              	.L182:
 1332              		.loc 1 735 0
 1333 0010 B5F86830 		ldrh	r3, [r5, #104]
 1334 0014 072B     		cmp	r3, #7
 1335 0016 76D8     		bhi	.L217
 1336              		.loc 1 743 0
 1337 0018 06F00200 		and	r0, r6, #2
 1338 001c C1B2     		uxtb	r1, r0
 1339 001e 0029     		cmp	r1, #0
 1340 0020 4ED1     		bne	.L218
 1341              		.loc 1 726 0
 1342 0022 8946     		mov	r9, r1
 1343              		.loc 1 751 0
 1344 0024 0F46     		mov	r7, r1
 1345              	.L185:
 1346              	.LVL168:
 1347              		.loc 1 757 0 discriminator 3
 1348 0026 B5F86620 		ldrh	r2, [r5, #102]
 1349 002a 002A     		cmp	r2, #0
 1350 002c 63D0     		beq	.L219
 1351              		.loc 1 764 0
 1352 002e 0020     		movs	r0, #0
 1353 0030 3946     		mov	r1, r7
 1354 0032 0246     		mov	r2, r0
 1355 0034 FFF7FEFF 		bl	pbuf_alloc
 1356              	.LVL169:
 1357 0038 0446     		mov	r4, r0
 1358 003a 0028     		cmp	r0, #0
 1359 003c 6FD0     		beq	.L215
 1360              		.loc 1 769 0
 1361 003e 4389     		ldrh	r3, [r0, #10]
 1362 0040 BB42     		cmp	r3, r7
 1363 0042 44D3     		bcc	.L220
 1364              	.LVL170:
ARM GAS  C:\Users\jenny\AppData\Local\Temp\ccUygzzS.s 			page 25


 1365              	.L188:
 1366              		.loc 1 773 0
 1367 0044 EB6D     		ldr	r3, [r5, #92]
 1368 0046 CDF80090 		str	r9, [sp, #0]
 1369 004a 2846     		mov	r0, r5
 1370 004c 2146     		mov	r1, r4
 1371 004e 3246     		mov	r2, r6
 1372 0050 FFF7FEFF 		bl	tcp_create_segment
 1373              	.LVL171:
 1374 0054 0746     		mov	r7, r0
 1375              	.LVL172:
 1376 0056 0028     		cmp	r0, #0
 1377 0058 61D0     		beq	.L215
 1378              		.loc 1 778 0
 1379 005a C468     		ldr	r4, [r0, #12]
 1380              	.LVL173:
 1381 005c A107     		lsls	r1, r4, #30
 1382 005e 40D1     		bne	.L221
 1383              	.LVL174:
 1384              	.L190:
 1385              		.loc 1 779 0
 1386 0060 3889     		ldrh	r0, [r7, #8]
 1387 0062 0028     		cmp	r0, #0
 1388 0064 36D1     		bne	.L222
 1389              		.loc 1 788 0
 1390 0066 EA6E     		ldr	r2, [r5, #108]
 1391 0068 0AB9     		cbnz	r2, .L210
 1392 006a 38E0     		b	.L223
 1393              	.LVL175:
 1394              	.L198:
 1395              	.LBB39:
 1396              		.loc 1 792 0
 1397 006c 0A46     		mov	r2, r1
 1398              	.LVL176:
 1399              	.L210:
 1400              		.loc 1 792 0 is_stmt 0 discriminator 1
 1401 006e 1168     		ldr	r1, [r2, #0]
 1402 0070 0029     		cmp	r1, #0
 1403 0072 FBD1     		bne	.L198
 1404              		.loc 1 793 0 is_stmt 1
 1405 0074 1760     		str	r7, [r2, #0]
 1406              	.LVL177:
 1407              	.L193:
 1408              	.LBE39:
 1409              		.loc 1 797 0
 1410 0076 0023     		movs	r3, #0
 1411 0078 A5F86A30 		strh	r3, [r5, #106]	@ movhi
 1412              		.loc 1 801 0
 1413 007c B8F1000F 		cmp	r8, #0
 1414 0080 07D0     		beq	.L195
 1415              		.loc 1 802 0
 1416 0082 EC6D     		ldr	r4, [r5, #92]
 1417              		.loc 1 804 0
 1418 0084 B5F86600 		ldrh	r0, [r5, #102]
 1419              		.loc 1 802 0
 1420 0088 611C     		adds	r1, r4, #1
 1421              		.loc 1 804 0
ARM GAS  C:\Users\jenny\AppData\Local\Temp\ccUygzzS.s 			page 26


 1422 008a 421E     		subs	r2, r0, #1
 1423              		.loc 1 802 0
 1424 008c E965     		str	r1, [r5, #92]
 1425              		.loc 1 804 0
 1426 008e A5F86620 		strh	r2, [r5, #102]	@ movhi
 1427              	.L195:
 1428              		.loc 1 806 0
 1429 0092 F207     		lsls	r2, r6, #31
 1430 0094 03D5     		bpl	.L196
 1431              		.loc 1 807 0
 1432 0096 AB7F     		ldrb	r3, [r5, #30]	@ zero_extendqisi2
 1433 0098 43F02004 		orr	r4, r3, #32
 1434 009c AC77     		strb	r4, [r5, #30]
 1435              	.L196:
 1436              		.loc 1 811 0
 1437 009e 7868     		ldr	r0, [r7, #4]
 1438 00a0 B5F86840 		ldrh	r4, [r5, #104]
 1439 00a4 FFF7FEFF 		bl	pbuf_clen
 1440              	.LVL178:
 1441 00a8 0019     		adds	r0, r0, r4
 1442 00aa 81B2     		uxth	r1, r0
 1443 00ac A5F86810 		strh	r1, [r5, #104]	@ movhi
 1444              		.loc 1 813 0
 1445 00b0 11B1     		cbz	r1, .L184
 1446              		.loc 1 814 0
 1447 00b2 296F     		ldr	r1, [r5, #112]
 1448 00b4 C1B1     		cbz	r1, .L224
 1449              		.loc 1 818 0
 1450 00b6 0021     		movs	r1, #0
 1451              	.LVL179:
 1452              	.L184:
 1453              		.loc 1 819 0
 1454 00b8 48B2     		sxtb	r0, r1
 1455 00ba 03B0     		add	sp, sp, #12
 1456 00bc BDE8F083 		pop	{r4, r5, r6, r7, r8, r9, pc}
 1457              	.LVL180:
 1458              	.L218:
 1459              		.loc 1 744 0
 1460 00c0 4FF00109 		mov	r9, #1
 1461              		.loc 1 751 0
 1462 00c4 0427     		movs	r7, #4
 1463 00c6 AEE7     		b	.L185
 1464              	.LVL181:
 1465              	.L216:
 1466              		.loc 1 731 0 discriminator 1
 1467 00c8 FFF7FEFF 		bl	port_halt
 1468              	.LVL182:
 1469 00cc A0E7     		b	.L182
 1470              	.LVL183:
 1471              	.L220:
 1472              		.loc 1 769 0 discriminator 1
 1473 00ce FFF7FEFF 		bl	port_halt
 1474              	.LVL184:
 1475 00d2 B7E7     		b	.L188
 1476              	.LVL185:
 1477              	.L222:
 1478              		.loc 1 779 0 discriminator 1
ARM GAS  C:\Users\jenny\AppData\Local\Temp\ccUygzzS.s 			page 27


 1479 00d4 FFF7FEFF 		bl	port_halt
 1480              	.LVL186:
 1481              		.loc 1 788 0 discriminator 1
 1482 00d8 EA6E     		ldr	r2, [r5, #108]
 1483 00da 002A     		cmp	r2, #0
 1484 00dc C7D1     		bne	.L210
 1485              	.L223:
 1486              		.loc 1 789 0
 1487 00de EF66     		str	r7, [r5, #108]
 1488 00e0 C9E7     		b	.L193
 1489              	.LVL187:
 1490              	.L221:
 1491              		.loc 1 778 0 discriminator 1
 1492 00e2 FFF7FEFF 		bl	port_halt
 1493              	.LVL188:
 1494 00e6 BBE7     		b	.L190
 1495              	.L224:
 1496              		.loc 1 814 0 discriminator 1
 1497 00e8 EC6E     		ldr	r4, [r5, #108]
 1498 00ea 002C     		cmp	r4, #0
 1499 00ec E4D1     		bne	.L184
 1500              		.loc 1 814 0 is_stmt 0 discriminator 2
 1501 00ee FFF7FEFF 		bl	port_halt
 1502              	.LVL189:
 1503              		.loc 1 818 0 is_stmt 1 discriminator 2
 1504 00f2 2146     		mov	r1, r4
 1505 00f4 E0E7     		b	.L184
 1506              	.LVL190:
 1507              	.L219:
 1508              		.loc 1 759 0
 1509 00f6 104B     		ldr	r3, .L225
 1510 00f8 B3F89C00 		ldrh	r0, [r3, #156]
 1511 00fc 411C     		adds	r1, r0, #1
 1512 00fe A3F89C10 		strh	r1, [r3, #156]	@ movhi
 1513              		.loc 1 760 0
 1514 0102 FF21     		movs	r1, #255
 1515 0104 D8E7     		b	.L184
 1516              	.LVL191:
 1517              	.L217:
 1518              		.loc 1 738 0
 1519 0106 0C4B     		ldr	r3, .L225
 1520 0108 B3F89C20 		ldrh	r2, [r3, #156]
 1521 010c 501C     		adds	r0, r2, #1
 1522 010e A3F89C00 		strh	r0, [r3, #156]	@ movhi
 1523              		.loc 1 739 0
 1524 0112 A97F     		ldrb	r1, [r5, #30]	@ zero_extendqisi2
 1525 0114 61F07F03 		orn	r3, r1, #127
 1526 0118 AB77     		strb	r3, [r5, #30]
 1527              		.loc 1 740 0
 1528 011a FF21     		movs	r1, #255
 1529 011c CCE7     		b	.L184
 1530              	.LVL192:
 1531              	.L215:
 1532              		.loc 1 774 0
 1533 011e AA7F     		ldrb	r2, [r5, #30]	@ zero_extendqisi2
 1534              		.loc 1 775 0
 1535 0120 054B     		ldr	r3, .L225
ARM GAS  C:\Users\jenny\AppData\Local\Temp\ccUygzzS.s 			page 28


 1536              		.loc 1 774 0
 1537 0122 62F07F00 		orn	r0, r2, #127
 1538 0126 A877     		strb	r0, [r5, #30]
 1539              		.loc 1 775 0
 1540 0128 B3F89C10 		ldrh	r1, [r3, #156]
 1541 012c 4A1C     		adds	r2, r1, #1
 1542 012e A3F89C20 		strh	r2, [r3, #156]	@ movhi
 1543              		.loc 1 776 0
 1544 0132 FF21     		movs	r1, #255
 1545 0134 C0E7     		b	.L184
 1546              	.L226:
 1547 0136 00BF     		.align	2
 1548              	.L225:
 1549 0138 00000000 		.word	lwip_stats
 1550              		.cfi_endproc
 1551              	.LFE13:
 1552              		.size	tcp_enqueue_flags, .-tcp_enqueue_flags
 1553 013c AFF30080 		.section	.text.tcp_send_fin,"ax",%progbits
 1554              		.align	2
 1555              		.p2align 4,,15
 1556              		.global	tcp_send_fin
 1557              		.thumb
 1558              		.thumb_func
 1559              		.type	tcp_send_fin, %function
 1560              	tcp_send_fin:
 1561              	.LFB8:
 1562              		.loc 1 126 0
 1563              		.cfi_startproc
 1564              		@ args = 0, pretend = 0, frame = 0
 1565              		@ frame_needed = 0, uses_anonymous_args = 0
 1566              	.LVL193:
 1567 0000 F8B5     		push	{r3, r4, r5, r6, r7, lr}
 1568              	.LCFI7:
 1569              		.cfi_def_cfa_offset 24
 1570              		.cfi_offset 3, -24
 1571              		.cfi_offset 4, -20
 1572              		.cfi_offset 5, -16
 1573              		.cfi_offset 6, -12
 1574              		.cfi_offset 7, -8
 1575              		.cfi_offset 14, -4
 1576              		.loc 1 128 0
 1577 0002 C46E     		ldr	r4, [r0, #108]
 1578              		.loc 1 126 0
 1579 0004 0546     		mov	r5, r0
 1580              		.loc 1 128 0
 1581 0006 0CB9     		cbnz	r4, .L235
 1582 0008 0AE0     		b	.L228
 1583              	.LVL194:
 1584              	.L231:
 1585              	.LBB40:
 1586              		.loc 1 131 0
 1587 000a 1C46     		mov	r4, r3
 1588              	.LVL195:
 1589              	.L235:
 1590              		.loc 1 130 0 discriminator 1
 1591 000c 2368     		ldr	r3, [r4, #0]
 1592 000e 002B     		cmp	r3, #0
ARM GAS  C:\Users\jenny\AppData\Local\Temp\ccUygzzS.s 			page 29


 1593 0010 FBD1     		bne	.L231
 1594              		.loc 1 133 0
 1595 0012 E068     		ldr	r0, [r4, #12]
 1596              	.LVL196:
 1597 0014 8089     		ldrh	r0, [r0, #12]	@ unaligned
 1598 0016 FFF7FEFF 		bl	lwip_ntohs
 1599              	.LVL197:
 1600 001a 10F00706 		ands	r6, r0, #7
 1601 001e 05D0     		beq	.L237
 1602              	.LVL198:
 1603              	.L228:
 1604              	.LBE40:
 1605              		.loc 1 141 0
 1606 0020 2846     		mov	r0, r5
 1607 0022 0121     		movs	r1, #1
 1608              		.loc 1 142 0
 1609 0024 BDE8F840 		pop	{r3, r4, r5, r6, r7, lr}
 1610              		.loc 1 141 0
 1611 0028 FFF7FEBF 		b	tcp_enqueue_flags
 1612              	.LVL199:
 1613              	.L237:
 1614              	.LBB41:
 1615              		.loc 1 135 0
 1616 002c E468     		ldr	r4, [r4, #12]
 1617              	.LVL200:
 1618 002e 0120     		movs	r0, #1
 1619 0030 A789     		ldrh	r7, [r4, #12]	@ unaligned
 1620 0032 FFF7FEFF 		bl	lwip_htons
 1621              	.LVL201:
 1622 0036 3843     		orrs	r0, r0, r7
 1623 0038 A081     		strh	r0, [r4, #12]	@ unaligned
 1624              		.loc 1 136 0
 1625 003a A97F     		ldrb	r1, [r5, #30]	@ zero_extendqisi2
 1626 003c 41F02002 		orr	r2, r1, #32
 1627 0040 AA77     		strb	r2, [r5, #30]
 1628              	.LBE41:
 1629              		.loc 1 142 0
 1630 0042 3046     		mov	r0, r6
 1631 0044 F8BD     		pop	{r3, r4, r5, r6, r7, pc}
 1632              		.cfi_endproc
 1633              	.LFE8:
 1634              		.size	tcp_send_fin, .-tcp_send_fin
 1635 0046 00BFAFF3 		.section	.text.tcp_send_empty_ack,"ax",%progbits
 1635      0080AFF3 
 1635      0080
 1636              		.align	2
 1637              		.p2align 4,,15
 1638              		.global	tcp_send_empty_ack
 1639              		.thumb
 1640              		.thumb_func
 1641              		.type	tcp_send_empty_ack, %function
 1642              	tcp_send_empty_ack:
 1643              	.LFB14:
 1644              		.loc 1 843 0
 1645              		.cfi_startproc
 1646              		@ args = 0, pretend = 0, frame = 0
 1647              		@ frame_needed = 0, uses_anonymous_args = 0
ARM GAS  C:\Users\jenny\AppData\Local\Temp\ccUygzzS.s 			page 30


 1648              	.LVL202:
 1649 0000 F0B5     		push	{r4, r5, r6, r7, lr}
 1650              	.LCFI8:
 1651              		.cfi_def_cfa_offset 20
 1652              		.cfi_offset 4, -20
 1653              		.cfi_offset 5, -16
 1654              		.cfi_offset 6, -12
 1655              		.cfi_offset 7, -8
 1656              		.cfi_offset 14, -4
 1657 0002 0446     		mov	r4, r0
 1658 0004 83B0     		sub	sp, sp, #12
 1659              	.LCFI9:
 1660              		.cfi_def_cfa_offset 32
 1661              		.loc 1 854 0
 1662 0006 006D     		ldr	r0, [r0, #80]
 1663              	.LVL203:
 1664 0008 FFF7FEFF 		bl	lwip_htonl
 1665              	.LVL204:
 1666 000c 0021     		movs	r1, #0
 1667 000e 0246     		mov	r2, r0
 1668 0010 2046     		mov	r0, r4
 1669 0012 FFF7FEFF 		bl	tcp_output_alloc_header.constprop.0
 1670              	.LVL205:
 1671              		.loc 1 855 0
 1672 0016 0546     		mov	r5, r0
 1673 0018 0028     		cmp	r0, #0
 1674 001a 20D0     		beq	.L240
 1675              		.loc 1 863 0
 1676 001c A37F     		ldrb	r3, [r4, #30]	@ zero_extendqisi2
 1677              		.loc 1 859 0
 1678 001e 4768     		ldr	r7, [r0, #4]
 1679              	.LVL206:
 1680              		.loc 1 863 0
 1681 0020 23F00301 		bic	r1, r3, #3
 1682 0024 A177     		strb	r1, [r4, #30]
 1683              		.loc 1 875 0
 1684 0026 B0F808E0 		ldrh	lr, [r0, #8]
 1685 002a 261D     		adds	r6, r4, #4
 1686 002c CDF800E0 		str	lr, [sp, #0]
 1687 0030 2146     		mov	r1, r4
 1688 0032 3246     		mov	r2, r6
 1689 0034 0623     		movs	r3, #6
 1690 0036 FFF7FEFF 		bl	inet_chksum_pseudo
 1691              	.LVL207:
 1692 003a 3882     		strh	r0, [r7, #16]	@ unaligned
 1693              		.loc 1 882 0
 1694 003c 607A     		ldrb	r0, [r4, #9]	@ zero_extendqisi2
 1695 003e A37A     		ldrb	r3, [r4, #10]	@ zero_extendqisi2
 1696 0040 0090     		str	r0, [sp, #0]
 1697 0042 0620     		movs	r0, #6
 1698 0044 3246     		mov	r2, r6
 1699 0046 2146     		mov	r1, r4
 1700 0048 0190     		str	r0, [sp, #4]
 1701 004a 2846     		mov	r0, r5
 1702 004c FFF7FEFF 		bl	ip_output
 1703              	.LVL208:
 1704              		.loc 1 885 0
ARM GAS  C:\Users\jenny\AppData\Local\Temp\ccUygzzS.s 			page 31


 1705 0050 2846     		mov	r0, r5
 1706 0052 FFF7FEFF 		bl	pbuf_free
 1707              	.LVL209:
 1708              		.loc 1 887 0
 1709 0056 0022     		movs	r2, #0
 1710              	.LVL210:
 1711              	.L239:
 1712              		.loc 1 888 0
 1713 0058 50B2     		sxtb	r0, r2
 1714 005a 03B0     		add	sp, sp, #12
 1715 005c F0BD     		pop	{r4, r5, r6, r7, pc}
 1716              	.LVL211:
 1717              	.L240:
 1718              		.loc 1 857 0
 1719 005e FE22     		movs	r2, #254
 1720 0060 FAE7     		b	.L239
 1721              		.cfi_endproc
 1722              	.LFE14:
 1723              		.size	tcp_send_empty_ack, .-tcp_send_empty_ack
 1724 0062 00BFAFF3 		.section	.text.tcp_output,"ax",%progbits
 1724      0080AFF3 
 1724      0080AFF3 
 1724      0080
 1725              		.align	2
 1726              		.p2align 4,,15
 1727              		.global	tcp_output
 1728              		.thumb
 1729              		.thumb_func
 1730              		.type	tcp_output, %function
 1731              	tcp_output:
 1732              	.LFB15:
 1733              		.loc 1 899 0
 1734              		.cfi_startproc
 1735              		@ args = 0, pretend = 0, frame = 8
 1736              		@ frame_needed = 0, uses_anonymous_args = 0
 1737              	.LVL212:
 1738 0000 2DE9F04F 		push	{r4, r5, r6, r7, r8, r9, sl, fp, lr}
 1739              	.LCFI10:
 1740              		.cfi_def_cfa_offset 36
 1741              		.cfi_offset 4, -36
 1742              		.cfi_offset 5, -32
 1743              		.cfi_offset 6, -28
 1744              		.cfi_offset 7, -24
 1745              		.cfi_offset 8, -20
 1746              		.cfi_offset 9, -16
 1747              		.cfi_offset 10, -12
 1748              		.cfi_offset 11, -8
 1749              		.cfi_offset 14, -4
 1750              		.loc 1 907 0
 1751 0004 037E     		ldrb	r3, [r0, #24]	@ zero_extendqisi2
 1752 0006 012B     		cmp	r3, #1
 1753              		.loc 1 899 0
 1754 0008 85B0     		sub	sp, sp, #20
 1755              	.LCFI11:
 1756              		.cfi_def_cfa_offset 56
 1757              		.loc 1 899 0
 1758 000a 0446     		mov	r4, r0
ARM GAS  C:\Users\jenny\AppData\Local\Temp\ccUygzzS.s 			page 32


 1759              		.loc 1 907 0
 1760 000c 00F07481 		beq	.L310
 1761              	.LVL213:
 1762              	.L242:
 1763              		.loc 1 914 0
 1764 0010 AC48     		ldr	r0, .L318
 1765 0012 0168     		ldr	r1, [r0, #0]
 1766 0014 A142     		cmp	r1, r4
 1767 0016 00F01681 		beq	.L295
 1768              		.loc 1 928 0
 1769 001a A37F     		ldrb	r3, [r4, #30]	@ zero_extendqisi2
 1770              		.loc 1 918 0
 1771 001c B4F860A0 		ldrh	sl, [r4, #96]
 1772 0020 B4F84C20 		ldrh	r2, [r4, #76]
 1773              		.loc 1 920 0
 1774 0024 E56E     		ldr	r5, [r4, #108]
 1775              		.loc 1 928 0
 1776 0026 03F00200 		and	r0, r3, #2
 1777              		.loc 1 918 0
 1778 002a 9245     		cmp	sl, r2
 1779 002c 28BF     		it	cs
 1780 002e 9246     		movcs	sl, r2
 1781              		.loc 1 928 0
 1782 0030 C1B2     		uxtb	r1, r0
 1783              		.loc 1 918 0
 1784 0032 CDF80CA0 		str	sl, [sp, #12]
 1785              	.LVL214:
 1786              		.loc 1 928 0
 1787 0036 0029     		cmp	r1, #0
 1788 0038 40F04881 		bne	.L311
 1789              	.L244:
 1790              		.loc 1 935 0
 1791 003c 276F     		ldr	r7, [r4, #112]
 1792              	.LVL215:
 1793              		.loc 1 936 0
 1794 003e 0FB9     		cbnz	r7, .L300
 1795 0040 03E0     		b	.L251
 1796              	.L276:
 1797              		.loc 1 937 0
 1798 0042 0F46     		mov	r7, r1
 1799              	.LVL216:
 1800              	.L300:
 1801              		.loc 1 937 0 is_stmt 0 discriminator 1
 1802 0044 3968     		ldr	r1, [r7, #0]
 1803 0046 0029     		cmp	r1, #0
 1804 0048 FBD1     		bne	.L276
 1805              	.L251:
 1806              		.loc 1 962 0 is_stmt 1 discriminator 1
 1807 004a 002D     		cmp	r5, #0
 1808 004c 00F05181 		beq	.L309
 1809              	.LBB46:
 1810              	.LBB47:
 1811              		.loc 1 1163 0 discriminator 2
 1812 0050 DFF87492 		ldr	r9, .L318+4
 1813              	.LBB48:
 1814              		.loc 1 1073 0 discriminator 2
 1815 0054 04F10408 		add	r8, r4, #4
ARM GAS  C:\Users\jenny\AppData\Local\Temp\ccUygzzS.s 			page 33


 1816              	.LBE48:
 1817              		.loc 1 1092 0 discriminator 2
 1818 0058 0026     		movs	r6, #0
 1819 005a B7E0     		b	.L296
 1820              	.LVL217:
 1821              	.L252:
 1822              	.LBE47:
 1823              	.LBE46:
 1824              		.loc 1 973 0
 1825 005c 226F     		ldr	r2, [r4, #112]
 1826 005e 5AB1     		cbz	r2, .L253
 1827              		.loc 1 973 0 is_stmt 0 discriminator 2
 1828 0060 A37F     		ldrb	r3, [r4, #30]	@ zero_extendqisi2
 1829 0062 13F0440F 		tst	r3, #68
 1830 0066 07D1     		bne	.L253
 1831              		.loc 1 973 0 discriminator 3
 1832 0068 E26E     		ldr	r2, [r4, #108]
 1833 006a 002A     		cmp	r2, #0
 1834 006c 00F01581 		beq	.L254
 1835              		.loc 1 973 0 discriminator 4
 1836 0070 1168     		ldr	r1, [r2, #0]
 1837 0072 0029     		cmp	r1, #0
 1838 0074 00F00C81 		beq	.L312
 1839              	.L253:
 1840              		.loc 1 988 0 is_stmt 1
 1841 0078 227E     		ldrb	r2, [r4, #24]	@ zero_extendqisi2
 1842              		.loc 1 986 0
 1843 007a 2B68     		ldr	r3, [r5, #0]
 1844              		.loc 1 988 0
 1845 007c 022A     		cmp	r2, #2
 1846              		.loc 1 986 0
 1847 007e E366     		str	r3, [r4, #108]
 1848              		.loc 1 988 0
 1849 0080 0ED0     		beq	.L256
 1850              		.loc 1 989 0
 1851 0082 D5F80CA0 		ldr	sl, [r5, #12]
 1852 0086 1020     		movs	r0, #16
 1853 0088 BAF80CB0 		ldrh	fp, [sl, #12]	@ unaligned
 1854 008c FFF7FEFF 		bl	lwip_htons
 1855              	.LVL218:
 1856 0090 40EA0B00 		orr	r0, r0, fp
 1857 0094 AAF80C00 		strh	r0, [sl, #12]	@ unaligned
 1858              		.loc 1 990 0
 1859 0098 A17F     		ldrb	r1, [r4, #30]	@ zero_extendqisi2
 1860 009a 21F00303 		bic	r3, r1, #3
 1861 009e A377     		strb	r3, [r4, #30]
 1862              	.L256:
 1863              	.LVL219:
 1864              	.LBB53:
 1865              	.LBB50:
 1866              		.loc 1 1060 0
 1867 00a0 A06A     		ldr	r0, [r4, #40]
 1868 00a2 D5F80CA0 		ldr	sl, [r5, #12]
 1869 00a6 FFF7FEFF 		bl	lwip_htonl
 1870              	.LVL220:
 1871 00aa CAF80800 		str	r0, [sl, #8]	@ unaligned
 1872              		.loc 1 1063 0
ARM GAS  C:\Users\jenny\AppData\Local\Temp\ccUygzzS.s 			page 34


 1873 00ae E08D     		ldrh	r0, [r4, #46]
 1874 00b0 D5F80CB0 		ldr	fp, [r5, #12]
 1875 00b4 FFF7FEFF 		bl	lwip_htons
 1876              	.LVL221:
 1877 00b8 ABF80E00 		strh	r0, [fp, #14]	@ unaligned
 1878              		.loc 1 1065 0
 1879 00bc A06A     		ldr	r0, [r4, #40]
 1880 00be E28D     		ldrh	r2, [r4, #46]
 1881              		.loc 1 1069 0
 1882 00c0 D5F80CA0 		ldr	sl, [r5, #12]
 1883              	.LVL222:
 1884              		.loc 1 1065 0
 1885 00c4 1118     		adds	r1, r2, r0
 1886 00c6 2163     		str	r1, [r4, #48]
 1887              	.LBE50:
 1888              		.loc 1 1070 0
 1889 00c8 AB7A     		ldrb	r3, [r5, #10]	@ zero_extendqisi2
 1890              	.LBB51:
 1891 00ca D807     		lsls	r0, r3, #31
 1892 00cc 00F19780 		bmi	.L313
 1893              	.LVL223:
 1894              	.L257:
 1895              		.loc 1 1091 0
 1896 00d0 B4F93420 		ldrsh	r2, [r4, #52]
 1897              		.loc 1 1097 0
 1898 00d4 2068     		ldr	r0, [r4, #0]
 1899              		.loc 1 1091 0
 1900 00d6 531C     		adds	r3, r2, #1
 1901              		.loc 1 1092 0
 1902 00d8 08BF     		it	eq
 1903 00da A686     		strheq	r6, [r4, #52]	@ movhi
 1904              		.loc 1 1097 0
 1905 00dc 30B9     		cbnz	r0, .L259
 1906              		.loc 1 1098 0
 1907 00de 4046     		mov	r0, r8
 1908 00e0 FFF7FEFF 		bl	ip_route
 1909              	.LVL224:
 1910              		.loc 1 1099 0
 1911 00e4 0028     		cmp	r0, #0
 1912 00e6 35D0     		beq	.L260
 1913              		.loc 1 1102 0
 1914 00e8 4168     		ldr	r1, [r0, #4]
 1915 00ea 2160     		str	r1, [r4, #0]
 1916              	.LVL225:
 1917              	.L259:
 1918              		.loc 1 1105 0
 1919 00ec A36B     		ldr	r3, [r4, #56]
 1920 00ee 002B     		cmp	r3, #0
 1921 00f0 00F09180 		beq	.L314
 1922              	.L261:
 1923              		.loc 1 1115 0
 1924 00f4 6868     		ldr	r0, [r5, #4]
 1925 00f6 D5F80CB0 		ldr	fp, [r5, #12]
 1926 00fa 4368     		ldr	r3, [r0, #4]
 1927              		.loc 1 1118 0
 1928 00fc B0F808E0 		ldrh	lr, [r0, #8]
 1929              		.loc 1 1117 0
ARM GAS  C:\Users\jenny\AppData\Local\Temp\ccUygzzS.s 			page 35


 1930 0100 4289     		ldrh	r2, [r0, #10]
 1931              		.loc 1 1120 0
 1932 0102 C0F804B0 		str	fp, [r0, #4]
 1933              		.loc 1 1115 0
 1934 0106 C3EB0B01 		rsb	r1, r3, fp
 1935 010a 8BB2     		uxth	r3, r1
 1936              	.LVL226:
 1937              		.loc 1 1118 0
 1938 010c C3EB0E0C 		rsb	ip, r3, lr
 1939 0110 1FFA8CFA 		uxth	sl, ip
 1940              		.loc 1 1117 0
 1941 0114 D21A     		subs	r2, r2, r3
 1942 0116 4281     		strh	r2, [r0, #10]	@ movhi
 1943              		.loc 1 1118 0
 1944 0118 A0F808A0 		strh	sl, [r0, #8]	@ movhi
 1945              		.loc 1 1158 0
 1946 011c 2146     		mov	r1, r4
 1947              	.LVL227:
 1948              		.loc 1 1122 0
 1949 011e 8BF81060 		strb	r6, [fp, #16]
 1950 0122 8BF81160 		strb	r6, [fp, #17]
 1951              		.loc 1 1158 0
 1952 0126 4246     		mov	r2, r8
 1953 0128 0623     		movs	r3, #6
 1954              	.LVL228:
 1955 012a CDF800A0 		str	sl, [sp, #0]
 1956 012e FFF7FEFF 		bl	inet_chksum_pseudo
 1957              	.LVL229:
 1958 0132 ABF81000 		strh	r0, [fp, #16]	@ unaligned
 1959              		.loc 1 1163 0
 1960 0136 B9F89010 		ldrh	r1, [r9, #144]
 1961              		.loc 1 1169 0
 1962 013a 6868     		ldr	r0, [r5, #4]
 1963              		.loc 1 1163 0
 1964 013c 4B1C     		adds	r3, r1, #1
 1965 013e A9F89030 		strh	r3, [r9, #144]	@ movhi
 1966              		.loc 1 1169 0
 1967 0142 627A     		ldrb	r2, [r4, #9]	@ zero_extendqisi2
 1968 0144 A37A     		ldrb	r3, [r4, #10]	@ zero_extendqisi2
 1969 0146 0092     		str	r2, [sp, #0]
 1970 0148 0621     		movs	r1, #6
 1971 014a 0191     		str	r1, [sp, #4]
 1972 014c 4246     		mov	r2, r8
 1973 014e 2146     		mov	r1, r4
 1974 0150 FFF7FEFF 		bl	ip_output
 1975              	.LVL230:
 1976              	.L260:
 1977              	.LBE51:
 1978              	.LBE53:
 1979              		.loc 1 994 0
 1980 0154 E868     		ldr	r0, [r5, #12]
 1981 0156 4068     		ldr	r0, [r0, #4]	@ unaligned
 1982 0158 FFF7FEFF 		bl	lwip_ntohl
 1983              	.LVL231:
 1984 015c EB68     		ldr	r3, [r5, #12]
 1985 015e B5F808A0 		ldrh	sl, [r5, #8]
 1986 0162 8346     		mov	fp, r0
ARM GAS  C:\Users\jenny\AppData\Local\Temp\ccUygzzS.s 			page 36


 1987 0164 9889     		ldrh	r0, [r3, #12]	@ unaligned
 1988 0166 FFF7FEFF 		bl	lwip_ntohs
 1989              	.LVL232:
 1990 016a 10F00302 		ands	r2, r0, #3
 1991 016e 18BF     		it	ne
 1992 0170 0122     		movne	r2, #1
 1993              		.loc 1 995 0
 1994 0172 206D     		ldr	r0, [r4, #80]
 1995              		.loc 1 994 0
 1996 0174 0AEB0201 		add	r1, sl, r2
 1997 0178 01EB0B03 		add	r3, r1, fp
 1998              	.LVL233:
 1999              		.loc 1 995 0
 2000 017c C21A     		subs	r2, r0, r3
 2001 017e 002A     		cmp	r2, #0
 2002              		.loc 1 999 0
 2003 0180 E968     		ldr	r1, [r5, #12]
 2004              		.loc 1 996 0
 2005 0182 B8BF     		it	lt
 2006 0184 2365     		strlt	r3, [r4, #80]
 2007              		.loc 1 999 0
 2008 0186 8889     		ldrh	r0, [r1, #12]	@ unaligned
 2009 0188 B5F808B0 		ldrh	fp, [r5, #8]
 2010 018c FFF7FEFF 		bl	lwip_ntohs
 2011              	.LVL234:
 2012 0190 10F00300 		ands	r0, r0, #3
 2013 0194 18BF     		it	ne
 2014 0196 0120     		movne	r0, #1
 2015 0198 0BEB0003 		add	r3, fp, r0
 2016 019c 002B     		cmp	r3, #0
 2017 019e 73D0     		beq	.L263
 2018              		.loc 1 1002 0
 2019 01a0 226F     		ldr	r2, [r4, #112]
 2020              		.loc 1 1000 0
 2021 01a2 2E60     		str	r6, [r5, #0]
 2022              		.loc 1 1002 0
 2023 01a4 002A     		cmp	r2, #0
 2024 01a6 42D0     		beq	.L315
 2025              		.loc 1 1010 0
 2026 01a8 E968     		ldr	r1, [r5, #12]
 2027 01aa 4868     		ldr	r0, [r1, #4]	@ unaligned
 2028 01ac FFF7FEFF 		bl	lwip_ntohl
 2029              	.LVL235:
 2030 01b0 8346     		mov	fp, r0
 2031 01b2 F868     		ldr	r0, [r7, #12]
 2032 01b4 4068     		ldr	r0, [r0, #4]	@ unaligned
 2033 01b6 FFF7FEFF 		bl	lwip_ntohl
 2034              	.LVL236:
 2035 01ba C0EB0B03 		rsb	r3, r0, fp
 2036 01be 002B     		cmp	r3, #0
 2037 01c0 45DB     		blt	.L316
 2038              		.loc 1 1021 0
 2039 01c2 3D60     		str	r5, [r7, #0]
 2040              	.LVL237:
 2041 01c4 2F46     		mov	r7, r5
 2042              	.LVL238:
 2043              	.L265:
ARM GAS  C:\Users\jenny\AppData\Local\Temp\ccUygzzS.s 			page 37


 2044              		.loc 1 1029 0
 2045 01c6 E56E     		ldr	r5, [r4, #108]
 2046              	.LVL239:
 2047              		.loc 1 962 0
 2048 01c8 002D     		cmp	r5, #0
 2049 01ca 35D0     		beq	.L317
 2050              	.LVL240:
 2051              	.L296:
 2052              		.loc 1 963 0 discriminator 2
 2053 01cc EB68     		ldr	r3, [r5, #12]
 2054 01ce 5868     		ldr	r0, [r3, #4]	@ unaligned
 2055 01d0 FFF7FEFF 		bl	lwip_ntohl
 2056              	.LVL241:
 2057 01d4 2A89     		ldrh	r2, [r5, #8]
 2058 01d6 A16C     		ldr	r1, [r4, #72]
 2059 01d8 531A     		subs	r3, r2, r1
 2060              		.loc 1 962 0 discriminator 2
 2061 01da 039A     		ldr	r2, [sp, #12]
 2062              		.loc 1 963 0 discriminator 2
 2063 01dc 1818     		adds	r0, r3, r0
 2064              		.loc 1 962 0 discriminator 2
 2065 01de 8242     		cmp	r2, r0
 2066 01e0 C0F08780 		bcc	.L309
 2067              		.loc 1 964 0
 2068 01e4 E968     		ldr	r1, [r5, #12]
 2069 01e6 8889     		ldrh	r0, [r1, #12]	@ unaligned
 2070 01e8 FFF7FEFF 		bl	lwip_ntohs
 2071              	.LVL242:
 2072 01ec 00F00403 		and	r3, r0, #4
 2073 01f0 98B2     		uxth	r0, r3
 2074 01f2 0028     		cmp	r0, #0
 2075 01f4 3FF432AF 		beq	.L252
 2076              		.loc 1 964 0 is_stmt 0 discriminator 1
 2077 01f8 FFF7FEFF 		bl	port_halt
 2078              	.LVL243:
 2079 01fc 2EE7     		b	.L252
 2080              	.LVL244:
 2081              	.L313:
 2082              	.LBB54:
 2083              	.LBB52:
 2084              	.LBB49:
 2085              		.loc 1 1073 0 is_stmt 1
 2086 01fe 4146     		mov	r1, r8
 2087 0200 4FF40670 		mov	r0, #536
 2088 0204 FFF7FEFF 		bl	tcp_eff_send_mss
 2089              	.LVL245:
 2090              		.loc 1 1077 0
 2091 0208 40F00170 		orr	r0, r0, #33816576
 2092              	.LVL246:
 2093 020c FFF7FEFF 		bl	lwip_htonl
 2094              	.LVL247:
 2095 0210 CAF81400 		str	r0, [sl, #20]
 2096              	.LVL248:
 2097 0214 5CE7     		b	.L257
 2098              	.LVL249:
 2099              	.L314:
 2100              	.LBE49:
ARM GAS  C:\Users\jenny\AppData\Local\Temp\ccUygzzS.s 			page 38


 2101              		.loc 1 1106 0
 2102 0216 40F20002 		movw	r2, #:lower16:tcp_ticks
 2103 021a C0F20002 		movt	r2, #:upper16:tcp_ticks
 2104              		.loc 1 1107 0
 2105 021e E968     		ldr	r1, [r5, #12]
 2106              		.loc 1 1106 0
 2107 0220 1068     		ldr	r0, [r2, #0]
 2108 0222 A063     		str	r0, [r4, #56]
 2109              		.loc 1 1107 0
 2110 0224 4868     		ldr	r0, [r1, #4]	@ unaligned
 2111 0226 FFF7FEFF 		bl	lwip_ntohl
 2112              	.LVL250:
 2113 022a E063     		str	r0, [r4, #60]
 2114 022c 62E7     		b	.L261
 2115              	.L315:
 2116              	.LBE52:
 2117              	.LBE54:
 2118              		.loc 1 1003 0
 2119 022e 2567     		str	r5, [r4, #112]
 2120              	.LVL251:
 2121 0230 2F46     		mov	r7, r5
 2122              		.loc 1 1029 0
 2123 0232 E56E     		ldr	r5, [r4, #108]
 2124              	.LVL252:
 2125              		.loc 1 962 0
 2126 0234 002D     		cmp	r5, #0
 2127 0236 C9D1     		bne	.L296
 2128              	.LVL253:
 2129              	.L317:
 2130 0238 A37F     		ldrb	r3, [r4, #30]	@ zero_extendqisi2
 2131              	.LVL254:
 2132              	.L272:
 2133              		.loc 1 1034 0
 2134 023a 0022     		movs	r2, #0
 2135              		.loc 1 1038 0
 2136 023c 03F07F01 		and	r1, r3, #127
 2137              		.loc 1 1034 0
 2138 0240 A4F86A20 		strh	r2, [r4, #106]	@ movhi
 2139              		.loc 1 1038 0
 2140 0244 A177     		strb	r1, [r4, #30]
 2141              	.LVL255:
 2142              	.L295:
 2143              		.loc 1 1040 0
 2144 0246 0020     		movs	r0, #0
 2145 0248 05B0     		add	sp, sp, #20
 2146 024a BDE8F08F 		pop	{r4, r5, r6, r7, r8, r9, sl, fp, pc}
 2147              	.LVL256:
 2148              	.L316:
 2149              	.LBB55:
 2150              		.loc 1 1013 0
 2151 024e 236F     		ldr	r3, [r4, #112]
 2152              		.loc 1 1012 0
 2153 0250 04F1700B 		add	fp, r4, #112
 2154              	.LVL257:
 2155              		.loc 1 1013 0
 2156 0254 2BB9     		cbnz	r3, .L297
 2157 0256 13E0     		b	.L268
ARM GAS  C:\Users\jenny\AppData\Local\Temp\ccUygzzS.s 			page 39


 2158              	.L270:
 2159              		.loc 1 1015 0
 2160 0258 DBF800B0 		ldr	fp, [fp, #0]
 2161              	.LVL258:
 2162              		.loc 1 1013 0
 2163 025c DBF80030 		ldr	r3, [fp, #0]
 2164 0260 73B1     		cbz	r3, .L268
 2165              	.L297:
 2166              		.loc 1 1014 0 discriminator 2
 2167 0262 DA68     		ldr	r2, [r3, #12]
 2168 0264 5068     		ldr	r0, [r2, #4]	@ unaligned
 2169 0266 FFF7FEFF 		bl	lwip_ntohl
 2170              	.LVL259:
 2171 026a E968     		ldr	r1, [r5, #12]
 2172 026c 8246     		mov	sl, r0
 2173 026e 4868     		ldr	r0, [r1, #4]	@ unaligned
 2174 0270 FFF7FEFF 		bl	lwip_ntohl
 2175              	.LVL260:
 2176 0274 C0EB0A00 		rsb	r0, r0, sl
 2177              		.loc 1 1013 0 discriminator 2
 2178 0278 0028     		cmp	r0, #0
 2179 027a EDDB     		blt	.L270
 2180 027c DBF80030 		ldr	r3, [fp, #0]
 2181              	.L268:
 2182              		.loc 1 1017 0
 2183 0280 2B60     		str	r3, [r5, #0]
 2184              		.loc 1 1018 0
 2185 0282 CBF80050 		str	r5, [fp, #0]
 2186 0286 9EE7     		b	.L265
 2187              	.LVL261:
 2188              	.L263:
 2189              	.LBE55:
 2190              		.loc 1 1027 0
 2191 0288 2846     		mov	r0, r5
 2192 028a FFF7FEFF 		bl	tcp_seg_free
 2193              	.LVL262:
 2194 028e 9AE7     		b	.L265
 2195              	.LVL263:
 2196              	.L312:
 2197              		.loc 1 973 0 discriminator 6
 2198 0290 1089     		ldrh	r0, [r2, #8]
 2199 0292 E18E     		ldrh	r1, [r4, #54]
 2200 0294 8842     		cmp	r0, r1
 2201 0296 BFF4EFAE 		bcs	.L253
 2202              	.L254:
 2203              		.loc 1 973 0 is_stmt 0 discriminator 5
 2204 029a B4F86600 		ldrh	r0, [r4, #102]
 2205 029e 0028     		cmp	r0, #0
 2206 02a0 3FF4EAAE 		beq	.L253
 2207              		.loc 1 973 0 discriminator 7
 2208 02a4 B4F86810 		ldrh	r1, [r4, #104]
 2209 02a8 0729     		cmp	r1, #7
 2210 02aa 3FF6E5AE 		bhi	.L253
 2211              		.loc 1 973 0
 2212 02ae 13F0A00F 		tst	r3, #160
 2213 02b2 7FF4E1AE 		bne	.L253
 2214              	.L249:
ARM GAS  C:\Users\jenny\AppData\Local\Temp\ccUygzzS.s 			page 40


 2215              		.loc 1 1032 0 is_stmt 1
 2216 02b6 002A     		cmp	r2, #0
 2217 02b8 BFD0     		beq	.L272
 2218              		.loc 1 1038 0
 2219 02ba 03F07F01 		and	r1, r3, #127
 2220 02be A177     		strb	r1, [r4, #30]
 2221              		.loc 1 1039 0
 2222 02c0 C1E7     		b	.L295
 2223              	.L319:
 2224 02c2 00BF     		.align	2
 2225              	.L318:
 2226 02c4 00000000 		.word	tcp_input_pcb
 2227 02c8 00000000 		.word	lwip_stats
 2228              	.LVL264:
 2229              	.L311:
 2230              		.loc 1 928 0 discriminator 1
 2231 02cc 5DB1     		cbz	r5, .L246
 2232              		.loc 1 930 0
 2233 02ce EB68     		ldr	r3, [r5, #12]
 2234 02d0 5868     		ldr	r0, [r3, #4]	@ unaligned
 2235 02d2 FFF7FEFF 		bl	lwip_ntohl
 2236              	.LVL265:
 2237 02d6 2A89     		ldrh	r2, [r5, #8]
 2238 02d8 A16C     		ldr	r1, [r4, #72]
 2239 02da 531A     		subs	r3, r2, r1
 2240              		.loc 1 929 0
 2241 02dc 039A     		ldr	r2, [sp, #12]
 2242              		.loc 1 930 0
 2243 02de 1818     		adds	r0, r3, r0
 2244              		.loc 1 929 0
 2245 02e0 8242     		cmp	r2, r0
 2246 02e2 BFF4ABAE 		bcs	.L244
 2247              	.L246:
 2248              		.loc 1 931 0
 2249 02e6 2046     		mov	r0, r4
 2250              		.loc 1 1040 0
 2251 02e8 05B0     		add	sp, sp, #20
 2252 02ea BDE8F04F 		pop	{r4, r5, r6, r7, r8, r9, sl, fp, lr}
 2253              		.loc 1 931 0
 2254 02ee FFF7FEBF 		b	tcp_send_empty_ack
 2255              	.LVL266:
 2256              	.L309:
 2257 02f2 E26E     		ldr	r2, [r4, #108]
 2258 02f4 A37F     		ldrb	r3, [r4, #30]	@ zero_extendqisi2
 2259 02f6 DEE7     		b	.L249
 2260              	.LVL267:
 2261              	.L310:
 2262              		.loc 1 907 0 discriminator 1
 2263 02f8 FFF7FEFF 		bl	port_halt
 2264              	.LVL268:
 2265 02fc 88E6     		b	.L242
 2266              		.cfi_endproc
 2267              	.LFE15:
 2268              		.size	tcp_output, .-tcp_output
 2269 02fe 00BF     		.section	.text.tcp_rst,"ax",%progbits
 2270              		.align	2
 2271              		.p2align 4,,15
ARM GAS  C:\Users\jenny\AppData\Local\Temp\ccUygzzS.s 			page 41


 2272              		.global	tcp_rst
 2273              		.thumb
 2274              		.thumb_func
 2275              		.type	tcp_rst, %function
 2276              	tcp_rst:
 2277              	.LFB17:
 2278              		.loc 1 1198 0
 2279              		.cfi_startproc
 2280              		@ args = 8, pretend = 0, frame = 0
 2281              		@ frame_needed = 0, uses_anonymous_args = 0
 2282              	.LVL269:
 2283 0000 2DE9F047 		push	{r4, r5, r6, r7, r8, r9, sl, lr}
 2284              	.LCFI12:
 2285              		.cfi_def_cfa_offset 32
 2286              		.cfi_offset 4, -32
 2287              		.cfi_offset 5, -28
 2288              		.cfi_offset 6, -24
 2289              		.cfi_offset 7, -20
 2290              		.cfi_offset 8, -16
 2291              		.cfi_offset 9, -12
 2292              		.cfi_offset 10, -8
 2293              		.cfi_offset 14, -4
 2294 0004 82B0     		sub	sp, sp, #8
 2295              	.LCFI13:
 2296              		.cfi_def_cfa_offset 40
 2297              		.loc 1 1198 0
 2298 0006 8146     		mov	r9, r0
 2299 0008 0E46     		mov	r6, r1
 2300 000a 9046     		mov	r8, r2
 2301              		.loc 1 1201 0
 2302 000c 0120     		movs	r0, #1
 2303              	.LVL270:
 2304 000e 1421     		movs	r1, #20
 2305              	.LVL271:
 2306 0010 0022     		movs	r2, #0
 2307              	.LVL272:
 2308              		.loc 1 1198 0
 2309 0012 1F46     		mov	r7, r3
 2310 0014 BDF82840 		ldrh	r4, [sp, #40]
 2311 0018 BDF82CA0 		ldrh	sl, [sp, #44]
 2312              		.loc 1 1201 0
 2313 001c FFF7FEFF 		bl	pbuf_alloc
 2314              	.LVL273:
 2315              		.loc 1 1202 0
 2316 0020 0546     		mov	r5, r0
 2317 0022 0028     		cmp	r0, #0
 2318 0024 43D0     		beq	.L320
 2319              		.loc 1 1206 0
 2320 0026 4389     		ldrh	r3, [r0, #10]
 2321 0028 132B     		cmp	r3, #19
 2322 002a 3DD9     		bls	.L323
 2323              	.LVL274:
 2324              	.L322:
 2325              		.loc 1 1210 0
 2326 002c 2046     		mov	r0, r4
 2327              		.loc 1 1209 0
 2328 002e 6C68     		ldr	r4, [r5, #4]
ARM GAS  C:\Users\jenny\AppData\Local\Temp\ccUygzzS.s 			page 42


 2329              	.LVL275:
 2330              		.loc 1 1210 0
 2331 0030 FFF7FEFF 		bl	lwip_htons
 2332              	.LVL276:
 2333 0034 2080     		strh	r0, [r4, #0]	@ unaligned
 2334              		.loc 1 1211 0
 2335 0036 5046     		mov	r0, sl
 2336 0038 FFF7FEFF 		bl	lwip_htons
 2337              	.LVL277:
 2338 003c 6080     		strh	r0, [r4, #2]	@ unaligned
 2339              		.loc 1 1212 0
 2340 003e 4846     		mov	r0, r9
 2341 0040 FFF7FEFF 		bl	lwip_htonl
 2342              	.LVL278:
 2343 0044 6060     		str	r0, [r4, #4]	@ unaligned
 2344              		.loc 1 1213 0
 2345 0046 3046     		mov	r0, r6
 2346 0048 FFF7FEFF 		bl	lwip_htonl
 2347              	.LVL279:
 2348 004c A060     		str	r0, [r4, #8]	@ unaligned
 2349              		.loc 1 1214 0
 2350 004e 45F21400 		movw	r0, #20500
 2351 0052 FFF7FEFF 		bl	lwip_htons
 2352              	.LVL280:
 2353              		.loc 1 1215 0
 2354 0056 0026     		movs	r6, #0
 2355              	.LVL281:
 2356              		.loc 1 1214 0
 2357 0058 A081     		strh	r0, [r4, #12]	@ unaligned
 2358              		.loc 1 1215 0
 2359 005a 6021     		movs	r1, #96
 2360 005c 0820     		movs	r0, #8
 2361 005e E173     		strb	r1, [r4, #15]
 2362              		.loc 1 1216 0
 2363 0060 2674     		strb	r6, [r4, #16]
 2364 0062 6674     		strb	r6, [r4, #17]
 2365              		.loc 1 1217 0
 2366 0064 A674     		strb	r6, [r4, #18]
 2367 0066 E674     		strb	r6, [r4, #19]
 2368              		.loc 1 1215 0
 2369 0068 A073     		strb	r0, [r4, #14]
 2370              		.loc 1 1220 0
 2371 006a 2889     		ldrh	r0, [r5, #8]
 2372 006c 4146     		mov	r1, r8
 2373 006e 3A46     		mov	r2, r7
 2374 0070 0623     		movs	r3, #6
 2375 0072 0090     		str	r0, [sp, #0]
 2376 0074 2846     		mov	r0, r5
 2377 0076 FFF7FEFF 		bl	inet_chksum_pseudo
 2378              	.LVL282:
 2379              		.loc 1 1223 0
 2380 007a DFF838E0 		ldr	lr, .L324
 2381              		.loc 1 1220 0
 2382 007e 2082     		strh	r0, [r4, #16]	@ unaligned
 2383              		.loc 1 1223 0
 2384 0080 BEF89020 		ldrh	r2, [lr, #144]
 2385              		.loc 1 1226 0
ARM GAS  C:\Users\jenny\AppData\Local\Temp\ccUygzzS.s 			page 43


 2386 0084 0096     		str	r6, [sp, #0]
 2387              		.loc 1 1223 0
 2388 0086 541C     		adds	r4, r2, #1
 2389              	.LVL283:
 2390              		.loc 1 1226 0
 2391 0088 0623     		movs	r3, #6
 2392 008a 0193     		str	r3, [sp, #4]
 2393 008c 2846     		mov	r0, r5
 2394 008e 4146     		mov	r1, r8
 2395 0090 3A46     		mov	r2, r7
 2396 0092 FF23     		movs	r3, #255
 2397              		.loc 1 1223 0
 2398 0094 AEF89040 		strh	r4, [lr, #144]	@ movhi
 2399              		.loc 1 1226 0
 2400 0098 FFF7FEFF 		bl	ip_output
 2401              	.LVL284:
 2402              		.loc 1 1227 0
 2403 009c 2846     		mov	r0, r5
 2404              		.loc 1 1229 0
 2405 009e 02B0     		add	sp, sp, #8
 2406 00a0 BDE8F047 		pop	{r4, r5, r6, r7, r8, r9, sl, lr}
 2407              		.loc 1 1227 0
 2408 00a4 FFF7FEBF 		b	pbuf_free
 2409              	.LVL285:
 2410              	.L323:
 2411              		.loc 1 1206 0 discriminator 1
 2412 00a8 FFF7FEFF 		bl	port_halt
 2413              	.LVL286:
 2414 00ac BEE7     		b	.L322
 2415              	.LVL287:
 2416              	.L320:
 2417              		.loc 1 1229 0
 2418 00ae 02B0     		add	sp, sp, #8
 2419 00b0 BDE8F087 		pop	{r4, r5, r6, r7, r8, r9, sl, pc}
 2420              	.L325:
 2421              		.align	2
 2422              	.L324:
 2423 00b4 00000000 		.word	lwip_stats
 2424              		.cfi_endproc
 2425              	.LFE17:
 2426              		.size	tcp_rst, .-tcp_rst
 2427 00b8 AFF30080 		.section	.text.tcp_rexmit_rto,"ax",%progbits
 2427      AFF30080 
 2428              		.align	2
 2429              		.p2align 4,,15
 2430              		.global	tcp_rexmit_rto
 2431              		.thumb
 2432              		.thumb_func
 2433              		.type	tcp_rexmit_rto, %function
 2434              	tcp_rexmit_rto:
 2435              	.LFB18:
 2436              		.loc 1 1240 0
 2437              		.cfi_startproc
 2438              		@ args = 0, pretend = 0, frame = 0
 2439              		@ frame_needed = 0, uses_anonymous_args = 0
 2440              		@ link register save eliminated.
 2441              	.LVL288:
ARM GAS  C:\Users\jenny\AppData\Local\Temp\ccUygzzS.s 			page 44


 2442              		.loc 1 1243 0
 2443 0000 016F     		ldr	r1, [r0, #112]
 2444              		.loc 1 1240 0
 2445 0002 10B4     		push	{r4}
 2446              	.LCFI14:
 2447              		.cfi_def_cfa_offset 4
 2448              		.cfi_offset 4, -4
 2449              		.loc 1 1243 0
 2450 0004 91B1     		cbz	r1, .L326
 2451              		.loc 1 1243 0 is_stmt 0 discriminator 1
 2452 0006 0A46     		mov	r2, r1
 2453 0008 00E0     		b	.L328
 2454              	.LVL289:
 2455              	.L329:
 2456              		.loc 1 1248 0 is_stmt 1
 2457 000a 1A46     		mov	r2, r3
 2458              	.LVL290:
 2459              	.L328:
 2460              		.loc 1 1248 0 is_stmt 0 discriminator 1
 2461 000c 1368     		ldr	r3, [r2, #0]
 2462 000e 002B     		cmp	r3, #0
 2463 0010 FBD1     		bne	.L329
 2464              		.loc 1 1250 0 is_stmt 1
 2465 0012 C46E     		ldr	r4, [r0, #108]
 2466 0014 1460     		str	r4, [r2, #0]
 2467              		.loc 1 1258 0
 2468 0016 90F84620 		ldrb	r2, [r0, #70]	@ zero_extendqisi2
 2469              	.LVL291:
 2470              		.loc 1 1252 0
 2471 001a C166     		str	r1, [r0, #108]
 2472              		.loc 1 1258 0
 2473 001c 511C     		adds	r1, r2, #1
 2474              		.loc 1 1254 0
 2475 001e 0367     		str	r3, [r0, #112]
 2476              		.loc 1 1258 0
 2477 0020 80F84610 		strb	r1, [r0, #70]
 2478              		.loc 1 1261 0
 2479 0024 8363     		str	r3, [r0, #56]
 2480              		.loc 1 1265 0
 2481 0026 10BC     		pop	{r4}
 2482              		.loc 1 1264 0
 2483 0028 FFF7FEBF 		b	tcp_output
 2484              	.LVL292:
 2485              	.L326:
 2486              		.loc 1 1265 0
 2487 002c 10BC     		pop	{r4}
 2488 002e 7047     		bx	lr
 2489              		.cfi_endproc
 2490              	.LFE18:
 2491              		.size	tcp_rexmit_rto, .-tcp_rexmit_rto
 2492              		.section	.text.tcp_rexmit,"ax",%progbits
 2493              		.align	2
 2494              		.p2align 4,,15
 2495              		.global	tcp_rexmit
 2496              		.thumb
 2497              		.thumb_func
 2498              		.type	tcp_rexmit, %function
ARM GAS  C:\Users\jenny\AppData\Local\Temp\ccUygzzS.s 			page 45


 2499              	tcp_rexmit:
 2500              	.LFB19:
 2501              		.loc 1 1276 0
 2502              		.cfi_startproc
 2503              		@ args = 0, pretend = 0, frame = 0
 2504              		@ frame_needed = 0, uses_anonymous_args = 0
 2505              	.LVL293:
 2506 0000 F8B5     		push	{r3, r4, r5, r6, r7, lr}
 2507              	.LCFI15:
 2508              		.cfi_def_cfa_offset 24
 2509              		.cfi_offset 3, -24
 2510              		.cfi_offset 4, -20
 2511              		.cfi_offset 5, -16
 2512              		.cfi_offset 6, -12
 2513              		.cfi_offset 7, -8
 2514              		.cfi_offset 14, -4
 2515              		.loc 1 1280 0
 2516 0002 066F     		ldr	r6, [r0, #112]
 2517              		.loc 1 1276 0
 2518 0004 0746     		mov	r7, r0
 2519              		.loc 1 1280 0
 2520 0006 0EB3     		cbz	r6, .L330
 2521              	.LVL294:
 2522              		.loc 1 1287 0
 2523 0008 3268     		ldr	r2, [r6, #0]
 2524              		.loc 1 1290 0
 2525 000a C36E     		ldr	r3, [r0, #108]
 2526              		.loc 1 1287 0
 2527 000c 0267     		str	r2, [r0, #112]
 2528              		.loc 1 1289 0
 2529 000e 00F16C04 		add	r4, r0, #108
 2530              	.LVL295:
 2531              		.loc 1 1290 0
 2532 0012 1BB9     		cbnz	r3, .L339
 2533 0014 0FE0     		b	.L333
 2534              	.LVL296:
 2535              	.L335:
 2536              		.loc 1 1292 0
 2537 0016 2468     		ldr	r4, [r4, #0]
 2538              	.LVL297:
 2539              		.loc 1 1290 0
 2540 0018 2368     		ldr	r3, [r4, #0]
 2541 001a 63B1     		cbz	r3, .L333
 2542              	.L339:
 2543              		.loc 1 1291 0 discriminator 2
 2544 001c DB68     		ldr	r3, [r3, #12]
 2545 001e 5868     		ldr	r0, [r3, #4]	@ unaligned
 2546 0020 FFF7FEFF 		bl	lwip_ntohl
 2547              	.LVL298:
 2548 0024 0546     		mov	r5, r0
 2549 0026 F068     		ldr	r0, [r6, #12]
 2550 0028 4068     		ldr	r0, [r0, #4]	@ unaligned
 2551 002a FFF7FEFF 		bl	lwip_ntohl
 2552              	.LVL299:
 2553 002e 291A     		subs	r1, r5, r0
 2554              		.loc 1 1290 0 discriminator 2
 2555 0030 0029     		cmp	r1, #0
ARM GAS  C:\Users\jenny\AppData\Local\Temp\ccUygzzS.s 			page 46


 2556 0032 F0DB     		blt	.L335
 2557 0034 2368     		ldr	r3, [r4, #0]
 2558              	.L333:
 2559              		.loc 1 1294 0
 2560 0036 3360     		str	r3, [r6, #0]
 2561              		.loc 1 1295 0
 2562 0038 2660     		str	r6, [r4, #0]
 2563              		.loc 1 1297 0
 2564 003a 3268     		ldr	r2, [r6, #0]
 2565 003c 3AB1     		cbz	r2, .L342
 2566              	.L336:
 2567              		.loc 1 1303 0
 2568 003e 97F84600 		ldrb	r0, [r7, #70]	@ zero_extendqisi2
 2569              		.loc 1 1306 0
 2570 0042 0023     		movs	r3, #0
 2571              		.loc 1 1303 0
 2572 0044 411C     		adds	r1, r0, #1
 2573 0046 87F84610 		strb	r1, [r7, #70]
 2574              		.loc 1 1306 0
 2575 004a BB63     		str	r3, [r7, #56]
 2576              	.LVL300:
 2577              	.L330:
 2578 004c F8BD     		pop	{r3, r4, r5, r6, r7, pc}
 2579              	.LVL301:
 2580              	.L342:
 2581              		.loc 1 1299 0
 2582 004e A7F86A20 		strh	r2, [r7, #106]	@ movhi
 2583 0052 F4E7     		b	.L336
 2584              		.cfi_endproc
 2585              	.LFE19:
 2586              		.size	tcp_rexmit, .-tcp_rexmit
 2587 0054 AFF30080 		.section	.text.tcp_rexmit_fast,"ax",%progbits
 2587      AFF30080 
 2587      AFF30080 
 2588              		.align	2
 2589              		.p2align 4,,15
 2590              		.global	tcp_rexmit_fast
 2591              		.thumb
 2592              		.thumb_func
 2593              		.type	tcp_rexmit_fast, %function
 2594              	tcp_rexmit_fast:
 2595              	.LFB20:
 2596              		.loc 1 1322 0
 2597              		.cfi_startproc
 2598              		@ args = 0, pretend = 0, frame = 0
 2599              		@ frame_needed = 0, uses_anonymous_args = 0
 2600              	.LVL302:
 2601              		.loc 1 1323 0
 2602 0000 036F     		ldr	r3, [r0, #112]
 2603              		.loc 1 1322 0
 2604 0002 10B5     		push	{r4, lr}
 2605              	.LCFI16:
 2606              		.cfi_def_cfa_offset 8
 2607              		.cfi_offset 4, -8
 2608              		.cfi_offset 14, -4
 2609              		.loc 1 1322 0
 2610 0004 0446     		mov	r4, r0
ARM GAS  C:\Users\jenny\AppData\Local\Temp\ccUygzzS.s 			page 47


 2611              		.loc 1 1323 0
 2612 0006 23B1     		cbz	r3, .L343
 2613              		.loc 1 1323 0 is_stmt 0 discriminator 1
 2614 0008 817F     		ldrb	r1, [r0, #30]	@ zero_extendqisi2
 2615 000a 01F00402 		and	r2, r1, #4
 2616 000e D3B2     		uxtb	r3, r2
 2617 0010 03B1     		cbz	r3, .L351
 2618              	.L343:
 2619 0012 10BD     		pop	{r4, pc}
 2620              	.L351:
 2621              		.loc 1 1330 0 is_stmt 1
 2622 0014 FFF7FEFF 		bl	tcp_rexmit
 2623              	.LVL303:
 2624              		.loc 1 1334 0
 2625 0018 B4F84C00 		ldrh	r0, [r4, #76]
 2626 001c B4F86010 		ldrh	r1, [r4, #96]
 2627 0020 8842     		cmp	r0, r1
 2628 0022 13D8     		bhi	.L352
 2629              		.loc 1 1337 0
 2630 0024 4308     		lsrs	r3, r0, #1
 2631 0026 A4F84E30 		strh	r3, [r4, #78]	@ movhi
 2632              	.L346:
 2633              		.loc 1 1341 0
 2634 002a E18E     		ldrh	r1, [r4, #54]
 2635              		.loc 1 1350 0
 2636 002c A07F     		ldrb	r0, [r4, #30]	@ zero_extendqisi2
 2637              		.loc 1 1341 0
 2638 002e 4A00     		lsls	r2, r1, #1
 2639 0030 9342     		cmp	r3, r2
 2640              		.loc 1 1346 0
 2641 0032 B8BF     		it	lt
 2642 0034 93B2     		uxthlt	r3, r2
 2643              		.loc 1 1349 0
 2644 0036 1144     		add	r1, r2, r1
 2645              		.loc 1 1346 0
 2646 0038 B8BF     		it	lt
 2647 003a A4F84E30 		strhlt	r3, [r4, #78]	@ movhi
 2648              		.loc 1 1350 0
 2649 003e 40F00402 		orr	r2, r0, #4
 2650              		.loc 1 1349 0
 2651 0042 5B18     		adds	r3, r3, r1
 2652 0044 A4F84C30 		strh	r3, [r4, #76]	@ movhi
 2653              		.loc 1 1350 0
 2654 0048 A277     		strb	r2, [r4, #30]
 2655 004a 10BD     		pop	{r4, pc}
 2656              	.L352:
 2657              		.loc 1 1335 0
 2658 004c 4B08     		lsrs	r3, r1, #1
 2659 004e A4F84E30 		strh	r3, [r4, #78]	@ movhi
 2660 0052 EAE7     		b	.L346
 2661              		.cfi_endproc
 2662              	.LFE20:
 2663              		.size	tcp_rexmit_fast, .-tcp_rexmit_fast
 2664 0054 AFF30080 		.section	.text.tcp_keepalive,"ax",%progbits
 2664      AFF30080 
 2664      AFF30080 
 2665              		.align	2
ARM GAS  C:\Users\jenny\AppData\Local\Temp\ccUygzzS.s 			page 48


 2666              		.p2align 4,,15
 2667              		.global	tcp_keepalive
 2668              		.thumb
 2669              		.thumb_func
 2670              		.type	tcp_keepalive, %function
 2671              	tcp_keepalive:
 2672              	.LFB21:
 2673              		.loc 1 1365 0
 2674              		.cfi_startproc
 2675              		@ args = 0, pretend = 0, frame = 0
 2676              		@ frame_needed = 0, uses_anonymous_args = 0
 2677              	.LVL304:
 2678 0000 F0B5     		push	{r4, r5, r6, r7, lr}
 2679              	.LCFI17:
 2680              		.cfi_def_cfa_offset 20
 2681              		.cfi_offset 4, -20
 2682              		.cfi_offset 5, -16
 2683              		.cfi_offset 6, -12
 2684              		.cfi_offset 7, -8
 2685              		.cfi_offset 14, -4
 2686 0002 0446     		mov	r4, r0
 2687              		.loc 1 1376 0
 2688 0004 006D     		ldr	r0, [r0, #80]
 2689              	.LVL305:
 2690              		.loc 1 1365 0
 2691 0006 83B0     		sub	sp, sp, #12
 2692              	.LCFI18:
 2693              		.cfi_def_cfa_offset 32
 2694              		.loc 1 1376 0
 2695 0008 0138     		subs	r0, r0, #1
 2696 000a FFF7FEFF 		bl	lwip_htonl
 2697              	.LVL306:
 2698 000e 0021     		movs	r1, #0
 2699 0010 0246     		mov	r2, r0
 2700 0012 2046     		mov	r0, r4
 2701 0014 FFF7FEFF 		bl	tcp_output_alloc_header.constprop.0
 2702              	.LVL307:
 2703              		.loc 1 1377 0
 2704 0018 0546     		mov	r5, r0
 2705 001a 00B3     		cbz	r0, .L353
 2706              		.loc 1 1385 0
 2707 001c 0389     		ldrh	r3, [r0, #8]
 2708              		.loc 1 1382 0
 2709 001e 4768     		ldr	r7, [r0, #4]
 2710              	.LVL308:
 2711              		.loc 1 1385 0
 2712 0020 0093     		str	r3, [sp, #0]
 2713 0022 261D     		adds	r6, r4, #4
 2714 0024 2146     		mov	r1, r4
 2715 0026 3246     		mov	r2, r6
 2716 0028 0623     		movs	r3, #6
 2717 002a FFF7FEFF 		bl	inet_chksum_pseudo
 2718              	.LVL309:
 2719              		.loc 1 1388 0
 2720 002e 0D49     		ldr	r1, .L355
 2721              		.loc 1 1385 0
 2722 0030 3882     		strh	r0, [r7, #16]	@ unaligned
ARM GAS  C:\Users\jenny\AppData\Local\Temp\ccUygzzS.s 			page 49


 2723              		.loc 1 1388 0
 2724 0032 B1F89020 		ldrh	r2, [r1, #144]
 2725 0036 501C     		adds	r0, r2, #1
 2726 0038 A1F89000 		strh	r0, [r1, #144]	@ movhi
 2727              		.loc 1 1395 0
 2728 003c 0022     		movs	r2, #0
 2729 003e 4FF0060E 		mov	lr, #6
 2730 0042 A37A     		ldrb	r3, [r4, #10]	@ zero_extendqisi2
 2731 0044 2846     		mov	r0, r5
 2732 0046 8DE80440 		stmia	sp, {r2, lr}
 2733 004a 2146     		mov	r1, r4
 2734 004c 3246     		mov	r2, r6
 2735 004e FFF7FEFF 		bl	ip_output
 2736              	.LVL310:
 2737              		.loc 1 1398 0
 2738 0052 2846     		mov	r0, r5
 2739              		.loc 1 1402 0
 2740 0054 03B0     		add	sp, sp, #12
 2741 0056 BDE8F040 		pop	{r4, r5, r6, r7, lr}
 2742              		.loc 1 1398 0
 2743 005a FFF7FEBF 		b	pbuf_free
 2744              	.LVL311:
 2745              	.L353:
 2746              		.loc 1 1402 0
 2747 005e 03B0     		add	sp, sp, #12
 2748 0060 F0BD     		pop	{r4, r5, r6, r7, pc}
 2749              	.L356:
 2750 0062 00BF     		.align	2
 2751              	.L355:
 2752 0064 00000000 		.word	lwip_stats
 2753              		.cfi_endproc
 2754              	.LFE21:
 2755              		.size	tcp_keepalive, .-tcp_keepalive
 2756 0068 AFF30080 		.section	.text.tcp_zero_window_probe,"ax",%progbits
 2756      AFF30080 
 2757              		.align	2
 2758              		.p2align 4,,15
 2759              		.global	tcp_zero_window_probe
 2760              		.thumb
 2761              		.thumb_func
 2762              		.type	tcp_zero_window_probe, %function
 2763              	tcp_zero_window_probe:
 2764              	.LFB22:
 2765              		.loc 1 1415 0
 2766              		.cfi_startproc
 2767              		@ args = 0, pretend = 0, frame = 0
 2768              		@ frame_needed = 0, uses_anonymous_args = 0
 2769              	.LVL312:
 2770 0000 2DE9F041 		push	{r4, r5, r6, r7, r8, lr}
 2771              	.LCFI19:
 2772              		.cfi_def_cfa_offset 24
 2773              		.cfi_offset 4, -24
 2774              		.cfi_offset 5, -20
 2775              		.cfi_offset 6, -16
 2776              		.cfi_offset 7, -12
 2777              		.cfi_offset 8, -8
 2778              		.cfi_offset 14, -4
ARM GAS  C:\Users\jenny\AppData\Local\Temp\ccUygzzS.s 			page 50


 2779              		.loc 1 1433 0
 2780 0004 066F     		ldr	r6, [r0, #112]
 2781              	.LVL313:
 2782              		.loc 1 1415 0
 2783 0006 82B0     		sub	sp, sp, #8
 2784              	.LCFI20:
 2785              		.cfi_def_cfa_offset 32
 2786              		.loc 1 1415 0
 2787 0008 0446     		mov	r4, r0
 2788              		.loc 1 1435 0
 2789 000a 002E     		cmp	r6, #0
 2790 000c 54D0     		beq	.L369
 2791              	.L358:
 2792              		.loc 1 1442 0
 2793 000e F368     		ldr	r3, [r6, #12]
 2794 0010 9889     		ldrh	r0, [r3, #12]	@ unaligned
 2795              	.LVL314:
 2796 0012 FFF7FEFF 		bl	lwip_ntohs
 2797              	.LVL315:
 2798 0016 10F00100 		ands	r0, r0, #1
 2799 001a 37D1     		bne	.L370
 2800 001c 0121     		movs	r1, #1
 2801 001e 8046     		mov	r8, r0
 2802              	.L360:
 2803              	.LVL316:
 2804              		.loc 1 1446 0 discriminator 4
 2805 0020 F268     		ldr	r2, [r6, #12]
 2806 0022 2046     		mov	r0, r4
 2807 0024 5268     		ldr	r2, [r2, #4]	@ unaligned
 2808 0026 FFF7FEFF 		bl	tcp_output_alloc_header.constprop.0
 2809              	.LVL317:
 2810              		.loc 1 1447 0 discriminator 4
 2811 002a 0546     		mov	r5, r0
 2812 002c 0028     		cmp	r0, #0
 2813 002e 46D0     		beq	.L357
 2814              		.loc 1 1451 0
 2815 0030 4768     		ldr	r7, [r0, #4]
 2816              	.LVL318:
 2817              		.loc 1 1453 0
 2818 0032 B8F1000F 		cmp	r8, #0
 2819 0036 34D0     		beq	.L362
 2820              		.loc 1 1455 0
 2821 0038 B989     		ldrh	r1, [r7, #12]	@ unaligned
 2822 003a 4CF2FF06 		movw	r6, #49407
 2823              	.LVL319:
 2824 003e 1120     		movs	r0, #17
 2825              	.LVL320:
 2826 0040 0E40     		ands	r6, r6, r1
 2827 0042 FFF7FEFF 		bl	lwip_htons
 2828              	.LVL321:
 2829 0046 3043     		orrs	r0, r0, r6
 2830 0048 B881     		strh	r0, [r7, #12]	@ unaligned
 2831              	.L363:
 2832              		.loc 1 1466 0
 2833 004a 2889     		ldrh	r0, [r5, #8]
 2834 004c 261D     		adds	r6, r4, #4
 2835 004e 2146     		mov	r1, r4
ARM GAS  C:\Users\jenny\AppData\Local\Temp\ccUygzzS.s 			page 51


 2836 0050 3246     		mov	r2, r6
 2837 0052 0623     		movs	r3, #6
 2838 0054 0090     		str	r0, [sp, #0]
 2839 0056 2846     		mov	r0, r5
 2840 0058 FFF7FEFF 		bl	inet_chksum_pseudo
 2841              	.LVL322:
 2842              		.loc 1 1469 0
 2843 005c 194B     		ldr	r3, .L371
 2844              		.loc 1 1466 0
 2845 005e 3882     		strh	r0, [r7, #16]	@ unaligned
 2846              		.loc 1 1469 0
 2847 0060 B3F89020 		ldrh	r2, [r3, #144]
 2848 0064 511C     		adds	r1, r2, #1
 2849 0066 A3F89010 		strh	r1, [r3, #144]	@ movhi
 2850              		.loc 1 1476 0
 2851 006a 0022     		movs	r2, #0
 2852 006c 4FF0060C 		mov	ip, #6
 2853 0070 A37A     		ldrb	r3, [r4, #10]	@ zero_extendqisi2
 2854 0072 2846     		mov	r0, r5
 2855 0074 8DE80410 		stmia	sp, {r2, ip}
 2856 0078 2146     		mov	r1, r4
 2857 007a 3246     		mov	r2, r6
 2858 007c FFF7FEFF 		bl	ip_output
 2859              	.LVL323:
 2860              		.loc 1 1479 0
 2861 0080 2846     		mov	r0, r5
 2862              		.loc 1 1484 0
 2863 0082 02B0     		add	sp, sp, #8
 2864 0084 BDE8F041 		pop	{r4, r5, r6, r7, r8, lr}
 2865              		.loc 1 1479 0
 2866 0088 FFF7FEBF 		b	pbuf_free
 2867              	.LVL324:
 2868              	.L370:
 2869              		.loc 1 1442 0 discriminator 1
 2870 008c 3189     		ldrh	r1, [r6, #8]
 2871 008e 0029     		cmp	r1, #0
 2872 0090 0CBF     		ite	eq
 2873 0092 0021     		moveq	r1, #0
 2874 0094 0121     		movne	r1, #1
 2875 0096 14BF     		ite	ne
 2876 0098 4FF00008 		movne	r8, #0
 2877 009c 4FF00108 		moveq	r8, #1
 2878 00a0 BEE7     		b	.L360
 2879              	.LVL325:
 2880              	.L362:
 2881              	.LBB56:
 2882              		.loc 1 1462 0
 2883 00a2 7068     		ldr	r0, [r6, #4]
 2884              	.LVL326:
 2885 00a4 3689     		ldrh	r6, [r6, #8]
 2886              	.LVL327:
 2887 00a6 0389     		ldrh	r3, [r0, #8]
 2888 00a8 9E1B     		subs	r6, r3, r6
 2889 00aa 07F11401 		add	r1, r7, #20
 2890              	.LVL328:
 2891 00ae 0122     		movs	r2, #1
 2892 00b0 B3B2     		uxth	r3, r6
ARM GAS  C:\Users\jenny\AppData\Local\Temp\ccUygzzS.s 			page 52


 2893 00b2 FFF7FEFF 		bl	pbuf_copy_partial
 2894              	.LVL329:
 2895 00b6 C8E7     		b	.L363
 2896              	.LVL330:
 2897              	.L369:
 2898              	.LBE56:
 2899              		.loc 1 1436 0
 2900 00b8 C66E     		ldr	r6, [r0, #108]
 2901              	.LVL331:
 2902              		.loc 1 1438 0
 2903 00ba 002E     		cmp	r6, #0
 2904 00bc A7D1     		bne	.L358
 2905              	.LVL332:
 2906              	.L357:
 2907              		.loc 1 1484 0
 2908 00be 02B0     		add	sp, sp, #8
 2909 00c0 BDE8F081 		pop	{r4, r5, r6, r7, r8, pc}
 2910              	.L372:
 2911              		.align	2
 2912              	.L371:
 2913 00c4 00000000 		.word	lwip_stats
 2914              		.cfi_endproc
 2915              	.LFE22:
 2916              		.size	tcp_zero_window_probe, .-tcp_zero_window_probe
 2917 00c8 AFF30080 		.text
 2917      AFF30080 
 2918              	.Letext0:
 2919              		.file 2 "c:\\fbin\\yagarto\\bin\\../lib/gcc/arm-none-eabi/4.7.4/../../../../arm-none-eabi/include/
 2920              		.file 3 "../../os/various/lwip_bindings/arch/cc.h"
 2921              		.file 4 "../../ext/lwip/src/include/lwip/mem.h"
 2922              		.file 5 "../../ext/lwip/src/include/lwip/err.h"
 2923              		.file 6 "../../ext/lwip/src/include/lwip/pbuf.h"
 2924              		.file 7 "../../ext/lwip/src/include/ipv4/lwip/ip_addr.h"
 2925              		.file 8 "../../ext/lwip/src/include/lwip/netif.h"
 2926              		.file 9 "../../ext/lwip/src/include/lwip/tcp.h"
 2927              		.file 10 "../../ext/lwip/src/include/lwip/tcp_impl.h"
 2928              		.file 11 "../../ext/lwip/src/include/lwip/memp.h"
 2929              		.file 12 "../../ext/lwip/src/include/lwip/stats.h"
 2930              		.file 13 "../../ext/lwip/src/include/lwip/def.h"
 2931              		.file 14 "../../ext/lwip/src/include/ipv4/lwip/inet_chksum.h"
 2932              		.file 15 "../../ext/lwip/src/include/ipv4/lwip/ip.h"
 2933              		.file 16 "../../os/ports/GCC/ARMCMx/chcore_v7m.h"
 2934              		.section	.debug_info,"",%progbits
 2935              	.Ldebug_info0:
 2936 0000 8C1E0000 		.4byte	0x1e8c
 2937 0004 0200     		.2byte	0x2
 2938 0006 00000000 		.4byte	.Ldebug_abbrev0
 2939 000a 04       		.byte	0x4
 2940 000b 01       		.uleb128 0x1
 2941 000c FC000000 		.4byte	.LASF234
 2942 0010 01       		.byte	0x1
 2943 0011 D1000000 		.4byte	.LASF235
 2944 0015 31030000 		.4byte	.LASF236
 2945 0019 70010000 		.4byte	.Ldebug_ranges0+0x170
 2946 001d 00000000 		.4byte	0
 2947 0021 00000000 		.4byte	0
 2948 0025 00000000 		.4byte	.Ldebug_line0
ARM GAS  C:\Users\jenny\AppData\Local\Temp\ccUygzzS.s 			page 53


 2949 0029 02       		.uleb128 0x2
 2950 002a 04       		.byte	0x4
 2951 002b 05       		.byte	0x5
 2952 002c 696E7400 		.ascii	"int\000"
 2953 0030 03       		.uleb128 0x3
 2954 0031 04       		.byte	0x4
 2955 0032 07       		.byte	0x7
 2956 0033 8E050000 		.4byte	.LASF0
 2957 0037 04       		.uleb128 0x4
 2958 0038 00000000 		.4byte	.LASF2
 2959 003c 02       		.byte	0x2
 2960 003d 29       		.byte	0x29
 2961 003e 42000000 		.4byte	0x42
 2962 0042 03       		.uleb128 0x3
 2963 0043 01       		.byte	0x1
 2964 0044 06       		.byte	0x6
 2965 0045 07020000 		.4byte	.LASF1
 2966 0049 04       		.uleb128 0x4
 2967 004a 26020000 		.4byte	.LASF3
 2968 004e 02       		.byte	0x2
 2969 004f 2A       		.byte	0x2a
 2970 0050 54000000 		.4byte	0x54
 2971 0054 03       		.uleb128 0x3
 2972 0055 01       		.byte	0x1
 2973 0056 08       		.byte	0x8
 2974 0057 4C020000 		.4byte	.LASF4
 2975 005b 04       		.uleb128 0x4
 2976 005c 9B080000 		.4byte	.LASF5
 2977 0060 02       		.byte	0x2
 2978 0061 35       		.byte	0x35
 2979 0062 66000000 		.4byte	0x66
 2980 0066 03       		.uleb128 0x3
 2981 0067 02       		.byte	0x2
 2982 0068 05       		.byte	0x5
 2983 0069 6E080000 		.4byte	.LASF6
 2984 006d 04       		.uleb128 0x4
 2985 006e 13070000 		.4byte	.LASF7
 2986 0072 02       		.byte	0x2
 2987 0073 36       		.byte	0x36
 2988 0074 78000000 		.4byte	0x78
 2989 0078 03       		.uleb128 0x3
 2990 0079 02       		.byte	0x2
 2991 007a 07       		.byte	0x7
 2992 007b 6B090000 		.4byte	.LASF8
 2993 007f 04       		.uleb128 0x4
 2994 0080 70000000 		.4byte	.LASF9
 2995 0084 02       		.byte	0x2
 2996 0085 4F       		.byte	0x4f
 2997 0086 8A000000 		.4byte	0x8a
 2998 008a 03       		.uleb128 0x3
 2999 008b 04       		.byte	0x4
 3000 008c 05       		.byte	0x5
 3001 008d 96010000 		.4byte	.LASF10
 3002 0091 04       		.uleb128 0x4
 3003 0092 53090000 		.4byte	.LASF11
 3004 0096 02       		.byte	0x2
 3005 0097 50       		.byte	0x50
ARM GAS  C:\Users\jenny\AppData\Local\Temp\ccUygzzS.s 			page 54


 3006 0098 9C000000 		.4byte	0x9c
 3007 009c 03       		.uleb128 0x3
 3008 009d 04       		.byte	0x4
 3009 009e 07       		.byte	0x7
 3010 009f 47040000 		.4byte	.LASF12
 3011 00a3 03       		.uleb128 0x3
 3012 00a4 08       		.byte	0x8
 3013 00a5 05       		.byte	0x5
 3014 00a6 1A050000 		.4byte	.LASF13
 3015 00aa 03       		.uleb128 0x3
 3016 00ab 08       		.byte	0x8
 3017 00ac 07       		.byte	0x7
 3018 00ad D6060000 		.4byte	.LASF14
 3019 00b1 03       		.uleb128 0x3
 3020 00b2 01       		.byte	0x1
 3021 00b3 02       		.byte	0x2
 3022 00b4 83020000 		.4byte	.LASF15
 3023 00b8 05       		.uleb128 0x5
 3024 00b9 04       		.byte	0x4
 3025 00ba 03       		.uleb128 0x3
 3026 00bb 04       		.byte	0x4
 3027 00bc 07       		.byte	0x7
 3028 00bd 0F000000 		.4byte	.LASF16
 3029 00c1 03       		.uleb128 0x3
 3030 00c2 01       		.byte	0x1
 3031 00c3 08       		.byte	0x8
 3032 00c4 C8020000 		.4byte	.LASF17
 3033 00c8 04       		.uleb128 0x4
 3034 00c9 83090000 		.4byte	.LASF18
 3035 00cd 03       		.byte	0x3
 3036 00ce 38       		.byte	0x38
 3037 00cf 49000000 		.4byte	0x49
 3038 00d3 04       		.uleb128 0x4
 3039 00d4 7E090000 		.4byte	.LASF19
 3040 00d8 03       		.byte	0x3
 3041 00d9 39       		.byte	0x39
 3042 00da 37000000 		.4byte	0x37
 3043 00de 04       		.uleb128 0x4
 3044 00df A8050000 		.4byte	.LASF20
 3045 00e3 03       		.byte	0x3
 3046 00e4 3A       		.byte	0x3a
 3047 00e5 6D000000 		.4byte	0x6d
 3048 00e9 04       		.uleb128 0x4
 3049 00ea 23090000 		.4byte	.LASF21
 3050 00ee 03       		.byte	0x3
 3051 00ef 3B       		.byte	0x3b
 3052 00f0 5B000000 		.4byte	0x5b
 3053 00f4 04       		.uleb128 0x4
 3054 00f5 07080000 		.4byte	.LASF22
 3055 00f9 03       		.byte	0x3
 3056 00fa 3C       		.byte	0x3c
 3057 00fb 91000000 		.4byte	0x91
 3058 00ff 04       		.uleb128 0x4
 3059 0100 B3000000 		.4byte	.LASF23
 3060 0104 03       		.byte	0x3
 3061 0105 3D       		.byte	0x3d
 3062 0106 7F000000 		.4byte	0x7f
ARM GAS  C:\Users\jenny\AppData\Local\Temp\ccUygzzS.s 			page 55


 3063 010a 04       		.uleb128 0x4
 3064 010b 44090000 		.4byte	.LASF24
 3065 010f 03       		.byte	0x3
 3066 0110 3E       		.byte	0x3e
 3067 0111 91000000 		.4byte	0x91
 3068 0115 04       		.uleb128 0x4
 3069 0116 0B030000 		.4byte	.LASF25
 3070 011a 04       		.byte	0x4
 3071 011b 4C       		.byte	0x4c
 3072 011c DE000000 		.4byte	0xde
 3073 0120 04       		.uleb128 0x4
 3074 0121 80060000 		.4byte	.LASF26
 3075 0125 05       		.byte	0x5
 3076 0126 2F       		.byte	0x2f
 3077 0127 D3000000 		.4byte	0xd3
 3078 012b 06       		.uleb128 0x6
 3079 012c 01       		.byte	0x1
 3080 012d 06       		.byte	0x6
 3081 012e 32       		.byte	0x32
 3082 012f 4C010000 		.4byte	0x14c
 3083 0133 07       		.uleb128 0x7
 3084 0134 5C090000 		.4byte	.LASF27
 3085 0138 00       		.sleb128 0
 3086 0139 07       		.uleb128 0x7
 3087 013a C2050000 		.4byte	.LASF28
 3088 013e 01       		.sleb128 1
 3089 013f 07       		.uleb128 0x7
 3090 0140 F7090000 		.4byte	.LASF29
 3091 0144 02       		.sleb128 2
 3092 0145 07       		.uleb128 0x7
 3093 0146 B7090000 		.4byte	.LASF30
 3094 014a 03       		.sleb128 3
 3095 014b 00       		.byte	0
 3096 014c 04       		.uleb128 0x4
 3097 014d 9F070000 		.4byte	.LASF31
 3098 0151 06       		.byte	0x6
 3099 0152 37       		.byte	0x37
 3100 0153 2B010000 		.4byte	0x12b
 3101 0157 06       		.uleb128 0x6
 3102 0158 01       		.byte	0x1
 3103 0159 06       		.byte	0x6
 3104 015a 39       		.byte	0x39
 3105 015b 78010000 		.4byte	0x178
 3106 015f 07       		.uleb128 0x7
 3107 0160 A0090000 		.4byte	.LASF32
 3108 0164 00       		.sleb128 0
 3109 0165 07       		.uleb128 0x7
 3110 0166 83040000 		.4byte	.LASF33
 3111 016a 01       		.sleb128 1
 3112 016b 07       		.uleb128 0x7
 3113 016c F3000000 		.4byte	.LASF34
 3114 0170 02       		.sleb128 2
 3115 0171 07       		.uleb128 0x7
 3116 0172 9F020000 		.4byte	.LASF35
 3117 0176 03       		.sleb128 3
 3118 0177 00       		.byte	0
 3119 0178 04       		.uleb128 0x4
ARM GAS  C:\Users\jenny\AppData\Local\Temp\ccUygzzS.s 			page 56


 3120 0179 00060000 		.4byte	.LASF36
 3121 017d 06       		.byte	0x6
 3122 017e 3E       		.byte	0x3e
 3123 017f 57010000 		.4byte	0x157
 3124 0183 08       		.uleb128 0x8
 3125 0184 E4020000 		.4byte	.LASF42
 3126 0188 10       		.byte	0x10
 3127 0189 06       		.byte	0x6
 3128 018a 4F       		.byte	0x4f
 3129 018b F2010000 		.4byte	0x1f2
 3130 018f 09       		.uleb128 0x9
 3131 0190 C6090000 		.4byte	.LASF37
 3132 0194 06       		.byte	0x6
 3133 0195 51       		.byte	0x51
 3134 0196 F2010000 		.4byte	0x1f2
 3135 019a 02       		.byte	0x2
 3136 019b 23       		.byte	0x23
 3137 019c 00       		.uleb128 0
 3138 019d 09       		.uleb128 0x9
 3139 019e DB040000 		.4byte	.LASF38
 3140 01a2 06       		.byte	0x6
 3141 01a3 54       		.byte	0x54
 3142 01a4 B8000000 		.4byte	0xb8
 3143 01a8 02       		.byte	0x2
 3144 01a9 23       		.byte	0x23
 3145 01aa 04       		.uleb128 0x4
 3146 01ab 09       		.uleb128 0x9
 3147 01ac 4F060000 		.4byte	.LASF39
 3148 01b0 06       		.byte	0x6
 3149 01b1 5D       		.byte	0x5d
 3150 01b2 DE000000 		.4byte	0xde
 3151 01b6 02       		.byte	0x2
 3152 01b7 23       		.byte	0x23
 3153 01b8 08       		.uleb128 0x8
 3154 01b9 0A       		.uleb128 0xa
 3155 01ba 6C656E00 		.ascii	"len\000"
 3156 01be 06       		.byte	0x6
 3157 01bf 60       		.byte	0x60
 3158 01c0 DE000000 		.4byte	0xde
 3159 01c4 02       		.byte	0x2
 3160 01c5 23       		.byte	0x23
 3161 01c6 0A       		.uleb128 0xa
 3162 01c7 09       		.uleb128 0x9
 3163 01c8 C2000000 		.4byte	.LASF40
 3164 01cc 06       		.byte	0x6
 3165 01cd 63       		.byte	0x63
 3166 01ce C8000000 		.4byte	0xc8
 3167 01d2 02       		.byte	0x2
 3168 01d3 23       		.byte	0x23
 3169 01d4 0C       		.uleb128 0xc
 3170 01d5 09       		.uleb128 0x9
 3171 01d6 FD020000 		.4byte	.LASF41
 3172 01da 06       		.byte	0x6
 3173 01db 66       		.byte	0x66
 3174 01dc C8000000 		.4byte	0xc8
 3175 01e0 02       		.byte	0x2
 3176 01e1 23       		.byte	0x23
ARM GAS  C:\Users\jenny\AppData\Local\Temp\ccUygzzS.s 			page 57


 3177 01e2 0D       		.uleb128 0xd
 3178 01e3 0A       		.uleb128 0xa
 3179 01e4 72656600 		.ascii	"ref\000"
 3180 01e8 06       		.byte	0x6
 3181 01e9 6D       		.byte	0x6d
 3182 01ea DE000000 		.4byte	0xde
 3183 01ee 02       		.byte	0x2
 3184 01ef 23       		.byte	0x23
 3185 01f0 0E       		.uleb128 0xe
 3186 01f1 00       		.byte	0
 3187 01f2 0B       		.uleb128 0xb
 3188 01f3 04       		.byte	0x4
 3189 01f4 83010000 		.4byte	0x183
 3190 01f8 08       		.uleb128 0x8
 3191 01f9 29030000 		.4byte	.LASF43
 3192 01fd 04       		.byte	0x4
 3193 01fe 07       		.byte	0x7
 3194 01ff 2C       		.byte	0x2c
 3195 0200 13020000 		.4byte	0x213
 3196 0204 09       		.uleb128 0x9
 3197 0205 83050000 		.4byte	.LASF44
 3198 0209 07       		.byte	0x7
 3199 020a 2D       		.byte	0x2d
 3200 020b F4000000 		.4byte	0xf4
 3201 020f 02       		.byte	0x2
 3202 0210 23       		.byte	0x23
 3203 0211 00       		.uleb128 0
 3204 0212 00       		.byte	0
 3205 0213 04       		.uleb128 0x4
 3206 0214 5E060000 		.4byte	.LASF45
 3207 0218 07       		.byte	0x7
 3208 0219 40       		.byte	0x40
 3209 021a F8010000 		.4byte	0x1f8
 3210 021e 0B       		.uleb128 0xb
 3211 021f 04       		.byte	0x4
 3212 0220 24020000 		.4byte	0x224
 3213 0224 08       		.uleb128 0x8
 3214 0225 59040000 		.4byte	.LASF46
 3215 0229 30       		.byte	0x30
 3216 022a 08       		.byte	0x8
 3217 022b 88       		.byte	0x88
 3218 022c F4020000 		.4byte	0x2f4
 3219 0230 09       		.uleb128 0x9
 3220 0231 C6090000 		.4byte	.LASF37
 3221 0235 08       		.byte	0x8
 3222 0236 8A       		.byte	0x8a
 3223 0237 1E020000 		.4byte	0x21e
 3224 023b 02       		.byte	0x2
 3225 023c 23       		.byte	0x23
 3226 023d 00       		.uleb128 0
 3227 023e 09       		.uleb128 0x9
 3228 023f 29030000 		.4byte	.LASF43
 3229 0243 08       		.byte	0x8
 3230 0244 8D       		.byte	0x8d
 3231 0245 13020000 		.4byte	0x213
 3232 0249 02       		.byte	0x2
 3233 024a 23       		.byte	0x23
ARM GAS  C:\Users\jenny\AppData\Local\Temp\ccUygzzS.s 			page 58


 3234 024b 04       		.uleb128 0x4
 3235 024c 09       		.uleb128 0x9
 3236 024d 32050000 		.4byte	.LASF47
 3237 0251 08       		.byte	0x8
 3238 0252 8E       		.byte	0x8e
 3239 0253 13020000 		.4byte	0x213
 3240 0257 02       		.byte	0x2
 3241 0258 23       		.byte	0x23
 3242 0259 08       		.uleb128 0x8
 3243 025a 0A       		.uleb128 0xa
 3244 025b 677700   		.ascii	"gw\000"
 3245 025e 08       		.byte	0x8
 3246 025f 8F       		.byte	0x8f
 3247 0260 13020000 		.4byte	0x213
 3248 0264 02       		.byte	0x2
 3249 0265 23       		.byte	0x23
 3250 0266 0C       		.uleb128 0xc
 3251 0267 09       		.uleb128 0x9
 3252 0268 84030000 		.4byte	.LASF48
 3253 026c 08       		.byte	0x8
 3254 026d 93       		.byte	0x93
 3255 026e F4020000 		.4byte	0x2f4
 3256 0272 02       		.byte	0x2
 3257 0273 23       		.byte	0x23
 3258 0274 10       		.uleb128 0x10
 3259 0275 09       		.uleb128 0x9
 3260 0276 CD020000 		.4byte	.LASF49
 3261 027a 08       		.byte	0x8
 3262 027b 97       		.byte	0x97
 3263 027c 1A030000 		.4byte	0x31a
 3264 0280 02       		.byte	0x2
 3265 0281 23       		.byte	0x23
 3266 0282 14       		.uleb128 0x14
 3267 0283 09       		.uleb128 0x9
 3268 0284 E2010000 		.4byte	.LASF50
 3269 0288 08       		.byte	0x8
 3270 0289 9B       		.byte	0x9b
 3271 028a 4B030000 		.4byte	0x34b
 3272 028e 02       		.byte	0x2
 3273 028f 23       		.byte	0x23
 3274 0290 18       		.uleb128 0x18
 3275 0291 09       		.uleb128 0x9
 3276 0292 AD000000 		.4byte	.LASF51
 3277 0296 08       		.byte	0x8
 3278 0297 AC       		.byte	0xac
 3279 0298 B8000000 		.4byte	0xb8
 3280 029c 02       		.byte	0x2
 3281 029d 23       		.byte	0x23
 3282 029e 1C       		.uleb128 0x1c
 3283 029f 0A       		.uleb128 0xa
 3284 02a0 6D747500 		.ascii	"mtu\000"
 3285 02a4 08       		.byte	0x8
 3286 02a5 BA       		.byte	0xba
 3287 02a6 DE000000 		.4byte	0xde
 3288 02aa 02       		.byte	0x2
 3289 02ab 23       		.byte	0x23
 3290 02ac 20       		.uleb128 0x20
ARM GAS  C:\Users\jenny\AppData\Local\Temp\ccUygzzS.s 			page 59


 3291 02ad 09       		.uleb128 0x9
 3292 02ae ED010000 		.4byte	.LASF52
 3293 02b2 08       		.byte	0x8
 3294 02b3 BC       		.byte	0xbc
 3295 02b4 C8000000 		.4byte	0xc8
 3296 02b8 02       		.byte	0x2
 3297 02b9 23       		.byte	0x23
 3298 02ba 22       		.uleb128 0x22
 3299 02bb 09       		.uleb128 0x9
 3300 02bc 8C040000 		.4byte	.LASF53
 3301 02c0 08       		.byte	0x8
 3302 02c1 BE       		.byte	0xbe
 3303 02c2 71030000 		.4byte	0x371
 3304 02c6 02       		.byte	0x2
 3305 02c7 23       		.byte	0x23
 3306 02c8 23       		.uleb128 0x23
 3307 02c9 09       		.uleb128 0x9
 3308 02ca FD020000 		.4byte	.LASF41
 3309 02ce 08       		.byte	0x8
 3310 02cf C0       		.byte	0xc0
 3311 02d0 C8000000 		.4byte	0xc8
 3312 02d4 02       		.byte	0x2
 3313 02d5 23       		.byte	0x23
 3314 02d6 29       		.uleb128 0x29
 3315 02d7 09       		.uleb128 0x9
 3316 02d8 3D080000 		.4byte	.LASF54
 3317 02dc 08       		.byte	0x8
 3318 02dd C2       		.byte	0xc2
 3319 02de 81030000 		.4byte	0x381
 3320 02e2 02       		.byte	0x2
 3321 02e3 23       		.byte	0x23
 3322 02e4 2A       		.uleb128 0x2a
 3323 02e5 0A       		.uleb128 0xa
 3324 02e6 6E756D00 		.ascii	"num\000"
 3325 02ea 08       		.byte	0x8
 3326 02eb C4       		.byte	0xc4
 3327 02ec C8000000 		.4byte	0xc8
 3328 02f0 02       		.byte	0x2
 3329 02f1 23       		.byte	0x23
 3330 02f2 2C       		.uleb128 0x2c
 3331 02f3 00       		.byte	0
 3332 02f4 04       		.uleb128 0x4
 3333 02f5 E3050000 		.4byte	.LASF55
 3334 02f9 08       		.byte	0x8
 3335 02fa 6D       		.byte	0x6d
 3336 02fb FF020000 		.4byte	0x2ff
 3337 02ff 0B       		.uleb128 0xb
 3338 0300 04       		.byte	0x4
 3339 0301 05030000 		.4byte	0x305
 3340 0305 0C       		.uleb128 0xc
 3341 0306 01       		.byte	0x1
 3342 0307 20010000 		.4byte	0x120
 3343 030b 1A030000 		.4byte	0x31a
 3344 030f 0D       		.uleb128 0xd
 3345 0310 F2010000 		.4byte	0x1f2
 3346 0314 0D       		.uleb128 0xd
 3347 0315 1E020000 		.4byte	0x21e
ARM GAS  C:\Users\jenny\AppData\Local\Temp\ccUygzzS.s 			page 60


 3348 0319 00       		.byte	0
 3349 031a 04       		.uleb128 0x4
 3350 031b 3A060000 		.4byte	.LASF56
 3351 031f 08       		.byte	0x8
 3352 0320 76       		.byte	0x76
 3353 0321 25030000 		.4byte	0x325
 3354 0325 0B       		.uleb128 0xb
 3355 0326 04       		.byte	0x4
 3356 0327 2B030000 		.4byte	0x32b
 3357 032b 0C       		.uleb128 0xc
 3358 032c 01       		.byte	0x1
 3359 032d 20010000 		.4byte	0x120
 3360 0331 45030000 		.4byte	0x345
 3361 0335 0D       		.uleb128 0xd
 3362 0336 1E020000 		.4byte	0x21e
 3363 033a 0D       		.uleb128 0xd
 3364 033b F2010000 		.4byte	0x1f2
 3365 033f 0D       		.uleb128 0xd
 3366 0340 45030000 		.4byte	0x345
 3367 0344 00       		.byte	0
 3368 0345 0B       		.uleb128 0xb
 3369 0346 04       		.byte	0x4
 3370 0347 13020000 		.4byte	0x213
 3371 034b 04       		.uleb128 0x4
 3372 034c 17060000 		.4byte	.LASF57
 3373 0350 08       		.byte	0x8
 3374 0351 7E       		.byte	0x7e
 3375 0352 56030000 		.4byte	0x356
 3376 0356 0B       		.uleb128 0xb
 3377 0357 04       		.byte	0x4
 3378 0358 5C030000 		.4byte	0x35c
 3379 035c 0C       		.uleb128 0xc
 3380 035d 01       		.byte	0x1
 3381 035e 20010000 		.4byte	0x120
 3382 0362 71030000 		.4byte	0x371
 3383 0366 0D       		.uleb128 0xd
 3384 0367 1E020000 		.4byte	0x21e
 3385 036b 0D       		.uleb128 0xd
 3386 036c F2010000 		.4byte	0x1f2
 3387 0370 00       		.byte	0
 3388 0371 0E       		.uleb128 0xe
 3389 0372 C8000000 		.4byte	0xc8
 3390 0376 81030000 		.4byte	0x381
 3391 037a 0F       		.uleb128 0xf
 3392 037b BA000000 		.4byte	0xba
 3393 037f 05       		.byte	0x5
 3394 0380 00       		.byte	0
 3395 0381 0E       		.uleb128 0xe
 3396 0382 C1000000 		.4byte	0xc1
 3397 0386 91030000 		.4byte	0x391
 3398 038a 0F       		.uleb128 0xf
 3399 038b BA000000 		.4byte	0xba
 3400 038f 01       		.byte	0x1
 3401 0390 00       		.byte	0
 3402 0391 04       		.uleb128 0x4
 3403 0392 A9090000 		.4byte	.LASF58
 3404 0396 09       		.byte	0x9
ARM GAS  C:\Users\jenny\AppData\Local\Temp\ccUygzzS.s 			page 61


 3405 0397 3C       		.byte	0x3c
 3406 0398 9C030000 		.4byte	0x39c
 3407 039c 0B       		.uleb128 0xb
 3408 039d 04       		.byte	0x4
 3409 039e A2030000 		.4byte	0x3a2
 3410 03a2 0C       		.uleb128 0xc
 3411 03a3 01       		.byte	0x1
 3412 03a4 20010000 		.4byte	0x120
 3413 03a8 BC030000 		.4byte	0x3bc
 3414 03ac 0D       		.uleb128 0xd
 3415 03ad B8000000 		.4byte	0xb8
 3416 03b1 0D       		.uleb128 0xd
 3417 03b2 BC030000 		.4byte	0x3bc
 3418 03b6 0D       		.uleb128 0xd
 3419 03b7 20010000 		.4byte	0x120
 3420 03bb 00       		.byte	0
 3421 03bc 0B       		.uleb128 0xb
 3422 03bd 04       		.byte	0x4
 3423 03be C2030000 		.4byte	0x3c2
 3424 03c2 08       		.uleb128 0x8
 3425 03c3 03030000 		.4byte	.LASF59
 3426 03c7 98       		.byte	0x98
 3427 03c8 09       		.byte	0x9
 3428 03c9 A8       		.byte	0xa8
 3429 03ca EC060000 		.4byte	0x6ec
 3430 03ce 09       		.uleb128 0x9
 3431 03cf 43020000 		.4byte	.LASF60
 3432 03d3 09       		.byte	0x9
 3433 03d4 AA       		.byte	0xaa
 3434 03d5 13020000 		.4byte	0x213
 3435 03d9 02       		.byte	0x2
 3436 03da 23       		.byte	0x23
 3437 03db 00       		.uleb128 0
 3438 03dc 09       		.uleb128 0x9
 3439 03dd EC070000 		.4byte	.LASF61
 3440 03e1 09       		.byte	0x9
 3441 03e2 AA       		.byte	0xaa
 3442 03e3 13020000 		.4byte	0x213
 3443 03e7 02       		.byte	0x2
 3444 03e8 23       		.byte	0x23
 3445 03e9 04       		.uleb128 0x4
 3446 03ea 09       		.uleb128 0x9
 3447 03eb 8A000000 		.4byte	.LASF62
 3448 03ef 09       		.byte	0x9
 3449 03f0 AA       		.byte	0xaa
 3450 03f1 C8000000 		.4byte	0xc8
 3451 03f5 02       		.byte	0x2
 3452 03f6 23       		.byte	0x23
 3453 03f7 08       		.uleb128 0x8
 3454 03f8 0A       		.uleb128 0xa
 3455 03f9 746F7300 		.ascii	"tos\000"
 3456 03fd 09       		.byte	0x9
 3457 03fe AA       		.byte	0xaa
 3458 03ff C8000000 		.4byte	0xc8
 3459 0403 02       		.byte	0x2
 3460 0404 23       		.byte	0x23
 3461 0405 09       		.uleb128 0x9
ARM GAS  C:\Users\jenny\AppData\Local\Temp\ccUygzzS.s 			page 62


 3462 0406 0A       		.uleb128 0xa
 3463 0407 74746C00 		.ascii	"ttl\000"
 3464 040b 09       		.byte	0x9
 3465 040c AA       		.byte	0xaa
 3466 040d C8000000 		.4byte	0xc8
 3467 0411 02       		.byte	0x2
 3468 0412 23       		.byte	0x23
 3469 0413 0A       		.uleb128 0xa
 3470 0414 09       		.uleb128 0x9
 3471 0415 C6090000 		.4byte	.LASF37
 3472 0419 09       		.byte	0x9
 3473 041a AC       		.byte	0xac
 3474 041b BC030000 		.4byte	0x3bc
 3475 041f 02       		.byte	0x2
 3476 0420 23       		.byte	0x23
 3477 0421 0C       		.uleb128 0xc
 3478 0422 09       		.uleb128 0x9
 3479 0423 A3080000 		.4byte	.LASF63
 3480 0427 09       		.byte	0x9
 3481 0428 AC       		.byte	0xac
 3482 0429 B8000000 		.4byte	0xb8
 3483 042d 02       		.byte	0x2
 3484 042e 23       		.byte	0x23
 3485 042f 10       		.uleb128 0x10
 3486 0430 09       		.uleb128 0x9
 3487 0431 D1080000 		.4byte	.LASF64
 3488 0435 09       		.byte	0x9
 3489 0436 AC       		.byte	0xac
 3490 0437 91030000 		.4byte	0x391
 3491 043b 02       		.byte	0x2
 3492 043c 23       		.byte	0x23
 3493 043d 14       		.uleb128 0x14
 3494 043e 09       		.uleb128 0x9
 3495 043f AD000000 		.4byte	.LASF51
 3496 0443 09       		.byte	0x9
 3497 0444 AC       		.byte	0xac
 3498 0445 9A070000 		.4byte	0x79a
 3499 0449 02       		.byte	0x2
 3500 044a 23       		.byte	0x23
 3501 044b 18       		.uleb128 0x18
 3502 044c 09       		.uleb128 0x9
 3503 044d 5E010000 		.4byte	.LASF65
 3504 0451 09       		.byte	0x9
 3505 0452 AC       		.byte	0xac
 3506 0453 C8000000 		.4byte	0xc8
 3507 0457 02       		.byte	0x2
 3508 0458 23       		.byte	0x23
 3509 0459 19       		.uleb128 0x19
 3510 045a 09       		.uleb128 0x9
 3511 045b F2020000 		.4byte	.LASF66
 3512 045f 09       		.byte	0x9
 3513 0460 AC       		.byte	0xac
 3514 0461 DE000000 		.4byte	0xde
 3515 0465 02       		.byte	0x2
 3516 0466 23       		.byte	0x23
 3517 0467 1A       		.uleb128 0x1a
 3518 0468 09       		.uleb128 0x9
ARM GAS  C:\Users\jenny\AppData\Local\Temp\ccUygzzS.s 			page 63


 3519 0469 FA060000 		.4byte	.LASF67
 3520 046d 09       		.byte	0x9
 3521 046e AF       		.byte	0xaf
 3522 046f DE000000 		.4byte	0xde
 3523 0473 02       		.byte	0x2
 3524 0474 23       		.byte	0x23
 3525 0475 1C       		.uleb128 0x1c
 3526 0476 09       		.uleb128 0x9
 3527 0477 FD020000 		.4byte	.LASF41
 3528 047b 09       		.byte	0x9
 3529 047c B1       		.byte	0xb1
 3530 047d C8000000 		.4byte	0xc8
 3531 0481 02       		.byte	0x2
 3532 0482 23       		.byte	0x23
 3533 0483 1E       		.uleb128 0x1e
 3534 0484 09       		.uleb128 0x9
 3535 0485 78010000 		.4byte	.LASF68
 3536 0489 09       		.byte	0x9
 3537 048a BF       		.byte	0xbf
 3538 048b C8000000 		.4byte	0xc8
 3539 048f 02       		.byte	0x2
 3540 0490 23       		.byte	0x23
 3541 0491 1F       		.uleb128 0x1f
 3542 0492 09       		.uleb128 0x9
 3543 0493 5C050000 		.4byte	.LASF69
 3544 0497 09       		.byte	0x9
 3545 0498 BF       		.byte	0xbf
 3546 0499 C8000000 		.4byte	0xc8
 3547 049d 02       		.byte	0x2
 3548 049e 23       		.byte	0x23
 3549 049f 20       		.uleb128 0x20
 3550 04a0 09       		.uleb128 0x9
 3551 04a1 F4030000 		.4byte	.LASF70
 3552 04a5 09       		.byte	0x9
 3553 04a6 C0       		.byte	0xc0
 3554 04a7 C8000000 		.4byte	0xc8
 3555 04ab 02       		.byte	0x2
 3556 04ac 23       		.byte	0x23
 3557 04ad 21       		.uleb128 0x21
 3558 04ae 0A       		.uleb128 0xa
 3559 04af 746D7200 		.ascii	"tmr\000"
 3560 04b3 09       		.byte	0x9
 3561 04b4 C1       		.byte	0xc1
 3562 04b5 F4000000 		.4byte	0xf4
 3563 04b9 02       		.byte	0x2
 3564 04ba 23       		.byte	0x23
 3565 04bb 24       		.uleb128 0x24
 3566 04bc 09       		.uleb128 0x9
 3567 04bd BA050000 		.4byte	.LASF71
 3568 04c1 09       		.byte	0x9
 3569 04c2 C4       		.byte	0xc4
 3570 04c3 F4000000 		.4byte	0xf4
 3571 04c7 02       		.byte	0x2
 3572 04c8 23       		.byte	0x23
 3573 04c9 28       		.uleb128 0x28
 3574 04ca 09       		.uleb128 0x9
 3575 04cb 82000000 		.4byte	.LASF72
ARM GAS  C:\Users\jenny\AppData\Local\Temp\ccUygzzS.s 			page 64


 3576 04cf 09       		.byte	0x9
 3577 04d0 C5       		.byte	0xc5
 3578 04d1 DE000000 		.4byte	0xde
 3579 04d5 02       		.byte	0x2
 3580 04d6 23       		.byte	0x23
 3581 04d7 2C       		.uleb128 0x2c
 3582 04d8 09       		.uleb128 0x9
 3583 04d9 26000000 		.4byte	.LASF73
 3584 04dd 09       		.byte	0x9
 3585 04de C6       		.byte	0xc6
 3586 04df DE000000 		.4byte	0xde
 3587 04e3 02       		.byte	0x2
 3588 04e4 23       		.byte	0x23
 3589 04e5 2E       		.uleb128 0x2e
 3590 04e6 09       		.uleb128 0x9
 3591 04e7 D6030000 		.4byte	.LASF74
 3592 04eb 09       		.byte	0x9
 3593 04ec C7       		.byte	0xc7
 3594 04ed F4000000 		.4byte	0xf4
 3595 04f1 02       		.byte	0x2
 3596 04f2 23       		.byte	0x23
 3597 04f3 30       		.uleb128 0x30
 3598 04f4 09       		.uleb128 0x9
 3599 04f5 2B060000 		.4byte	.LASF75
 3600 04f9 09       		.byte	0x9
 3601 04fa CA       		.byte	0xca
 3602 04fb E9000000 		.4byte	0xe9
 3603 04ff 02       		.byte	0x2
 3604 0500 23       		.byte	0x23
 3605 0501 34       		.uleb128 0x34
 3606 0502 0A       		.uleb128 0xa
 3607 0503 6D737300 		.ascii	"mss\000"
 3608 0507 09       		.byte	0x9
 3609 0508 CC       		.byte	0xcc
 3610 0509 DE000000 		.4byte	0xde
 3611 050d 02       		.byte	0x2
 3612 050e 23       		.byte	0x23
 3613 050f 36       		.uleb128 0x36
 3614 0510 09       		.uleb128 0x9
 3615 0511 16030000 		.4byte	.LASF76
 3616 0515 09       		.byte	0x9
 3617 0516 CF       		.byte	0xcf
 3618 0517 F4000000 		.4byte	0xf4
 3619 051b 02       		.byte	0x2
 3620 051c 23       		.byte	0x23
 3621 051d 38       		.uleb128 0x38
 3622 051e 09       		.uleb128 0x9
 3623 051f E9030000 		.4byte	.LASF77
 3624 0523 09       		.byte	0x9
 3625 0524 D0       		.byte	0xd0
 3626 0525 F4000000 		.4byte	0xf4
 3627 0529 02       		.byte	0x2
 3628 052a 23       		.byte	0x23
 3629 052b 3C       		.uleb128 0x3c
 3630 052c 0A       		.uleb128 0xa
 3631 052d 736100   		.ascii	"sa\000"
 3632 0530 09       		.byte	0x9
ARM GAS  C:\Users\jenny\AppData\Local\Temp\ccUygzzS.s 			page 65


 3633 0531 D1       		.byte	0xd1
 3634 0532 E9000000 		.4byte	0xe9
 3635 0536 02       		.byte	0x2
 3636 0537 23       		.byte	0x23
 3637 0538 40       		.uleb128 0x40
 3638 0539 0A       		.uleb128 0xa
 3639 053a 737600   		.ascii	"sv\000"
 3640 053d 09       		.byte	0x9
 3641 053e D1       		.byte	0xd1
 3642 053f E9000000 		.4byte	0xe9
 3643 0543 02       		.byte	0x2
 3644 0544 23       		.byte	0x23
 3645 0545 42       		.uleb128 0x42
 3646 0546 0A       		.uleb128 0xa
 3647 0547 72746F00 		.ascii	"rto\000"
 3648 054b 09       		.byte	0x9
 3649 054c D3       		.byte	0xd3
 3650 054d E9000000 		.4byte	0xe9
 3651 0551 02       		.byte	0x2
 3652 0552 23       		.byte	0x23
 3653 0553 44       		.uleb128 0x44
 3654 0554 09       		.uleb128 0x9
 3655 0555 E3040000 		.4byte	.LASF78
 3656 0559 09       		.byte	0x9
 3657 055a D4       		.byte	0xd4
 3658 055b C8000000 		.4byte	0xc8
 3659 055f 02       		.byte	0x2
 3660 0560 23       		.byte	0x23
 3661 0561 46       		.uleb128 0x46
 3662 0562 09       		.uleb128 0x9
 3663 0563 1B090000 		.4byte	.LASF79
 3664 0567 09       		.byte	0x9
 3665 0568 D7       		.byte	0xd7
 3666 0569 C8000000 		.4byte	0xc8
 3667 056d 02       		.byte	0x2
 3668 056e 23       		.byte	0x23
 3669 056f 47       		.uleb128 0x47
 3670 0570 09       		.uleb128 0x9
 3671 0571 ED040000 		.4byte	.LASF80
 3672 0575 09       		.byte	0x9
 3673 0576 D8       		.byte	0xd8
 3674 0577 F4000000 		.4byte	0xf4
 3675 057b 02       		.byte	0x2
 3676 057c 23       		.byte	0x23
 3677 057d 48       		.uleb128 0x48
 3678 057e 09       		.uleb128 0x9
 3679 057f 4C070000 		.4byte	.LASF81
 3680 0583 09       		.byte	0x9
 3681 0584 DB       		.byte	0xdb
 3682 0585 DE000000 		.4byte	0xde
 3683 0589 02       		.byte	0x2
 3684 058a 23       		.byte	0x23
 3685 058b 4C       		.uleb128 0x4c
 3686 058c 09       		.uleb128 0x9
 3687 058d B9000000 		.4byte	.LASF82
 3688 0591 09       		.byte	0x9
 3689 0592 DC       		.byte	0xdc
ARM GAS  C:\Users\jenny\AppData\Local\Temp\ccUygzzS.s 			page 66


 3690 0593 DE000000 		.4byte	0xde
 3691 0597 02       		.byte	0x2
 3692 0598 23       		.byte	0x23
 3693 0599 4E       		.uleb128 0x4e
 3694 059a 09       		.uleb128 0x9
 3695 059b F5040000 		.4byte	.LASF83
 3696 059f 09       		.byte	0x9
 3697 05a0 DF       		.byte	0xdf
 3698 05a1 F4000000 		.4byte	0xf4
 3699 05a5 02       		.byte	0x2
 3700 05a6 23       		.byte	0x23
 3701 05a7 50       		.uleb128 0x50
 3702 05a8 09       		.uleb128 0x9
 3703 05a9 FB080000 		.4byte	.LASF84
 3704 05ad 09       		.byte	0x9
 3705 05ae E0       		.byte	0xe0
 3706 05af F4000000 		.4byte	0xf4
 3707 05b3 02       		.byte	0x2
 3708 05b4 23       		.byte	0x23
 3709 05b5 54       		.uleb128 0x54
 3710 05b6 09       		.uleb128 0x9
 3711 05b7 03090000 		.4byte	.LASF85
 3712 05bb 09       		.byte	0x9
 3713 05bc E0       		.byte	0xe0
 3714 05bd F4000000 		.4byte	0xf4
 3715 05c1 02       		.byte	0x2
 3716 05c2 23       		.byte	0x23
 3717 05c3 58       		.uleb128 0x58
 3718 05c4 09       		.uleb128 0x9
 3719 05c5 8A030000 		.4byte	.LASF86
 3720 05c9 09       		.byte	0x9
 3721 05ca E2       		.byte	0xe2
 3722 05cb F4000000 		.4byte	0xf4
 3723 05cf 02       		.byte	0x2
 3724 05d0 23       		.byte	0x23
 3725 05d1 5C       		.uleb128 0x5c
 3726 05d2 09       		.uleb128 0x9
 3727 05d3 98090000 		.4byte	.LASF87
 3728 05d7 09       		.byte	0x9
 3729 05d8 E3       		.byte	0xe3
 3730 05d9 DE000000 		.4byte	0xde
 3731 05dd 02       		.byte	0x2
 3732 05de 23       		.byte	0x23
 3733 05df 60       		.uleb128 0x60
 3734 05e0 09       		.uleb128 0x9
 3735 05e1 AE050000 		.4byte	.LASF88
 3736 05e5 09       		.byte	0x9
 3737 05e6 E4       		.byte	0xe4
 3738 05e7 DE000000 		.4byte	0xde
 3739 05eb 02       		.byte	0x2
 3740 05ec 23       		.byte	0x23
 3741 05ed 62       		.uleb128 0x62
 3742 05ee 09       		.uleb128 0x9
 3743 05ef 4C080000 		.4byte	.LASF89
 3744 05f3 09       		.byte	0x9
 3745 05f4 E6       		.byte	0xe6
 3746 05f5 DE000000 		.4byte	0xde
ARM GAS  C:\Users\jenny\AppData\Local\Temp\ccUygzzS.s 			page 67


 3747 05f9 02       		.byte	0x2
 3748 05fa 23       		.byte	0x23
 3749 05fb 64       		.uleb128 0x64
 3750 05fc 09       		.uleb128 0x9
 3751 05fd 90090000 		.4byte	.LASF90
 3752 0601 09       		.byte	0x9
 3753 0602 E8       		.byte	0xe8
 3754 0603 DE000000 		.4byte	0xde
 3755 0607 02       		.byte	0x2
 3756 0608 23       		.byte	0x23
 3757 0609 66       		.uleb128 0x66
 3758 060a 09       		.uleb128 0x9
 3759 060b 6E070000 		.4byte	.LASF91
 3760 060f 09       		.byte	0x9
 3761 0610 EA       		.byte	0xea
 3762 0611 DE000000 		.4byte	0xde
 3763 0615 02       		.byte	0x2
 3764 0616 23       		.byte	0x23
 3765 0617 68       		.uleb128 0x68
 3766 0618 09       		.uleb128 0x9
 3767 0619 C4070000 		.4byte	.LASF92
 3768 061d 09       		.byte	0x9
 3769 061e EE       		.byte	0xee
 3770 061f DE000000 		.4byte	0xde
 3771 0623 02       		.byte	0x2
 3772 0624 23       		.byte	0x23
 3773 0625 6A       		.uleb128 0x6a
 3774 0626 09       		.uleb128 0x9
 3775 0627 AA070000 		.4byte	.LASF93
 3776 062b 09       		.byte	0x9
 3777 062c F2       		.byte	0xf2
 3778 062d 40080000 		.4byte	0x840
 3779 0631 02       		.byte	0x2
 3780 0632 23       		.byte	0x23
 3781 0633 6C       		.uleb128 0x6c
 3782 0634 09       		.uleb128 0x9
 3783 0635 93080000 		.4byte	.LASF94
 3784 0639 09       		.byte	0x9
 3785 063a F3       		.byte	0xf3
 3786 063b 40080000 		.4byte	0x840
 3787 063f 02       		.byte	0x2
 3788 0640 23       		.byte	0x23
 3789 0641 70       		.uleb128 0x70
 3790 0642 09       		.uleb128 0x9
 3791 0643 F1090000 		.4byte	.LASF95
 3792 0647 09       		.byte	0x9
 3793 0648 F5       		.byte	0xf5
 3794 0649 40080000 		.4byte	0x840
 3795 064d 02       		.byte	0x2
 3796 064e 23       		.byte	0x23
 3797 064f 74       		.uleb128 0x74
 3798 0650 09       		.uleb128 0x9
 3799 0651 58070000 		.4byte	.LASF96
 3800 0655 09       		.byte	0x9
 3801 0656 F8       		.byte	0xf8
 3802 0657 F2010000 		.4byte	0x1f2
 3803 065b 02       		.byte	0x2
ARM GAS  C:\Users\jenny\AppData\Local\Temp\ccUygzzS.s 			page 68


 3804 065c 23       		.byte	0x23
 3805 065d 78       		.uleb128 0x78
 3806 065e 09       		.uleb128 0x9
 3807 065f 15050000 		.4byte	.LASF97
 3808 0663 09       		.byte	0x9
 3809 0664 FC       		.byte	0xfc
 3810 0665 1C070000 		.4byte	0x71c
 3811 0669 02       		.byte	0x2
 3812 066a 23       		.byte	0x23
 3813 066b 7C       		.uleb128 0x7c
 3814 066c 09       		.uleb128 0x9
 3815 066d 4A060000 		.4byte	.LASF98
 3816 0671 09       		.byte	0x9
 3817 0672 FE       		.byte	0xfe
 3818 0673 EC060000 		.4byte	0x6ec
 3819 0677 03       		.byte	0x3
 3820 0678 23       		.byte	0x23
 3821 0679 8001     		.uleb128 0x80
 3822 067b 10       		.uleb128 0x10
 3823 067c D3090000 		.4byte	.LASF99
 3824 0680 09       		.byte	0x9
 3825 0681 0001     		.2byte	0x100
 3826 0683 8F070000 		.4byte	0x78f
 3827 0687 03       		.byte	0x3
 3828 0688 23       		.byte	0x23
 3829 0689 8401     		.uleb128 0x84
 3830 068b 10       		.uleb128 0x10
 3831 068c 0A060000 		.4byte	.LASF100
 3832 0690 09       		.byte	0x9
 3833 0691 0201     		.2byte	0x102
 3834 0693 47070000 		.4byte	0x747
 3835 0697 03       		.byte	0x3
 3836 0698 23       		.byte	0x23
 3837 0699 8801     		.uleb128 0x88
 3838 069b 10       		.uleb128 0x10
 3839 069c C3080000 		.4byte	.LASF101
 3840 06a0 09       		.byte	0x9
 3841 06a1 0401     		.2byte	0x104
 3842 06a3 6D070000 		.4byte	0x76d
 3843 06a7 03       		.byte	0x3
 3844 06a8 23       		.byte	0x23
 3845 06a9 8C01     		.uleb128 0x8c
 3846 06ab 10       		.uleb128 0x10
 3847 06ac 52080000 		.4byte	.LASF102
 3848 06b0 09       		.byte	0x9
 3849 06b1 0D01     		.2byte	0x10d
 3850 06b3 F4000000 		.4byte	0xf4
 3851 06b7 03       		.byte	0x3
 3852 06b8 23       		.byte	0x23
 3853 06b9 9001     		.uleb128 0x90
 3854 06bb 10       		.uleb128 0x10
 3855 06bc B2030000 		.4byte	.LASF103
 3856 06c0 09       		.byte	0x9
 3857 06c1 1401     		.2byte	0x114
 3858 06c3 C8000000 		.4byte	0xc8
 3859 06c7 03       		.byte	0x3
 3860 06c8 23       		.byte	0x23
ARM GAS  C:\Users\jenny\AppData\Local\Temp\ccUygzzS.s 			page 69


 3861 06c9 9401     		.uleb128 0x94
 3862 06cb 10       		.uleb128 0x10
 3863 06cc 1C070000 		.4byte	.LASF104
 3864 06d0 09       		.byte	0x9
 3865 06d1 1601     		.2byte	0x116
 3866 06d3 C8000000 		.4byte	0xc8
 3867 06d7 03       		.byte	0x3
 3868 06d8 23       		.byte	0x23
 3869 06d9 9501     		.uleb128 0x95
 3870 06db 10       		.uleb128 0x10
 3871 06dc 2E020000 		.4byte	.LASF105
 3872 06e0 09       		.byte	0x9
 3873 06e1 1901     		.2byte	0x119
 3874 06e3 C8000000 		.4byte	0xc8
 3875 06e7 03       		.byte	0x3
 3876 06e8 23       		.byte	0x23
 3877 06e9 9601     		.uleb128 0x96
 3878 06eb 00       		.byte	0
 3879 06ec 04       		.uleb128 0x4
 3880 06ed E3080000 		.4byte	.LASF106
 3881 06f1 09       		.byte	0x9
 3882 06f2 48       		.byte	0x48
 3883 06f3 F7060000 		.4byte	0x6f7
 3884 06f7 0B       		.uleb128 0xb
 3885 06f8 04       		.byte	0x4
 3886 06f9 FD060000 		.4byte	0x6fd
 3887 06fd 0C       		.uleb128 0xc
 3888 06fe 01       		.byte	0x1
 3889 06ff 20010000 		.4byte	0x120
 3890 0703 1C070000 		.4byte	0x71c
 3891 0707 0D       		.uleb128 0xd
 3892 0708 B8000000 		.4byte	0xb8
 3893 070c 0D       		.uleb128 0xd
 3894 070d BC030000 		.4byte	0x3bc
 3895 0711 0D       		.uleb128 0xd
 3896 0712 F2010000 		.4byte	0x1f2
 3897 0716 0D       		.uleb128 0xd
 3898 0717 20010000 		.4byte	0x120
 3899 071b 00       		.byte	0
 3900 071c 04       		.uleb128 0x4
 3901 071d D6010000 		.4byte	.LASF107
 3902 0721 09       		.byte	0x9
 3903 0722 56       		.byte	0x56
 3904 0723 27070000 		.4byte	0x727
 3905 0727 0B       		.uleb128 0xb
 3906 0728 04       		.byte	0x4
 3907 0729 2D070000 		.4byte	0x72d
 3908 072d 0C       		.uleb128 0xc
 3909 072e 01       		.byte	0x1
 3910 072f 20010000 		.4byte	0x120
 3911 0733 47070000 		.4byte	0x747
 3912 0737 0D       		.uleb128 0xd
 3913 0738 B8000000 		.4byte	0xb8
 3914 073c 0D       		.uleb128 0xd
 3915 073d BC030000 		.4byte	0x3bc
 3916 0741 0D       		.uleb128 0xd
 3917 0742 DE000000 		.4byte	0xde
ARM GAS  C:\Users\jenny\AppData\Local\Temp\ccUygzzS.s 			page 70


 3918 0746 00       		.byte	0
 3919 0747 04       		.uleb128 0x4
 3920 0748 C4040000 		.4byte	.LASF108
 3921 074c 09       		.byte	0x9
 3922 074d 62       		.byte	0x62
 3923 074e 52070000 		.4byte	0x752
 3924 0752 0B       		.uleb128 0xb
 3925 0753 04       		.byte	0x4
 3926 0754 58070000 		.4byte	0x758
 3927 0758 0C       		.uleb128 0xc
 3928 0759 01       		.byte	0x1
 3929 075a 20010000 		.4byte	0x120
 3930 075e 6D070000 		.4byte	0x76d
 3931 0762 0D       		.uleb128 0xd
 3932 0763 B8000000 		.4byte	0xb8
 3933 0767 0D       		.uleb128 0xd
 3934 0768 BC030000 		.4byte	0x3bc
 3935 076c 00       		.byte	0
 3936 076d 04       		.uleb128 0x4
 3937 076e D8080000 		.4byte	.LASF109
 3938 0772 09       		.byte	0x9
 3939 0773 6E       		.byte	0x6e
 3940 0774 78070000 		.4byte	0x778
 3941 0778 0B       		.uleb128 0xb
 3942 0779 04       		.byte	0x4
 3943 077a 7E070000 		.4byte	0x77e
 3944 077e 11       		.uleb128 0x11
 3945 077f 01       		.byte	0x1
 3946 0780 8F070000 		.4byte	0x78f
 3947 0784 0D       		.uleb128 0xd
 3948 0785 B8000000 		.4byte	0xb8
 3949 0789 0D       		.uleb128 0xd
 3950 078a 20010000 		.4byte	0x120
 3951 078e 00       		.byte	0
 3952 078f 04       		.uleb128 0x4
 3953 0790 F6070000 		.4byte	.LASF110
 3954 0794 09       		.byte	0x9
 3955 0795 7C       		.byte	0x7c
 3956 0796 9C030000 		.4byte	0x39c
 3957 079a 12       		.uleb128 0x12
 3958 079b 54010000 		.4byte	.LASF237
 3959 079f 01       		.byte	0x1
 3960 07a0 09       		.byte	0x9
 3961 07a1 7E       		.byte	0x7e
 3962 07a2 E9070000 		.4byte	0x7e9
 3963 07a6 07       		.uleb128 0x7
 3964 07a7 14090000 		.4byte	.LASF111
 3965 07ab 00       		.sleb128 0
 3966 07ac 07       		.uleb128 0x7
 3967 07ad A6000000 		.4byte	.LASF112
 3968 07b1 01       		.sleb128 1
 3969 07b2 07       		.uleb128 0x7
 3970 07b3 B3020000 		.4byte	.LASF113
 3971 07b7 02       		.sleb128 2
 3972 07b8 07       		.uleb128 0x7
 3973 07b9 31060000 		.4byte	.LASF114
 3974 07bd 03       		.sleb128 3
ARM GAS  C:\Users\jenny\AppData\Local\Temp\ccUygzzS.s 			page 71


 3975 07be 07       		.uleb128 0x7
 3976 07bf C4010000 		.4byte	.LASF115
 3977 07c3 04       		.sleb128 4
 3978 07c4 07       		.uleb128 0x7
 3979 07c5 89020000 		.4byte	.LASF116
 3980 07c9 05       		.sleb128 5
 3981 07ca 07       		.uleb128 0x7
 3982 07cb 94020000 		.4byte	.LASF117
 3983 07cf 06       		.sleb128 6
 3984 07d0 07       		.uleb128 0x7
 3985 07d1 CB030000 		.4byte	.LASF118
 3986 07d5 07       		.sleb128 7
 3987 07d6 07       		.uleb128 0x7
 3988 07d7 88090000 		.4byte	.LASF119
 3989 07db 08       		.sleb128 8
 3990 07dc 07       		.uleb128 0x7
 3991 07dd E9020000 		.4byte	.LASF120
 3992 07e1 09       		.sleb128 9
 3993 07e2 07       		.uleb128 0x7
 3994 07e3 45010000 		.4byte	.LASF121
 3995 07e7 0A       		.sleb128 10
 3996 07e8 00       		.byte	0
 3997 07e9 13       		.uleb128 0x13
 3998 07ea CB090000 		.4byte	.LASF122
 3999 07ee 10       		.byte	0x10
 4000 07ef 0A       		.byte	0xa
 4001 07f0 1501     		.2byte	0x115
 4002 07f2 40080000 		.4byte	0x840
 4003 07f6 10       		.uleb128 0x10
 4004 07f7 C6090000 		.4byte	.LASF37
 4005 07fb 0A       		.byte	0xa
 4006 07fc 1601     		.2byte	0x116
 4007 07fe 40080000 		.4byte	0x840
 4008 0802 02       		.byte	0x2
 4009 0803 23       		.byte	0x23
 4010 0804 00       		.uleb128 0
 4011 0805 14       		.uleb128 0x14
 4012 0806 7000     		.ascii	"p\000"
 4013 0808 0A       		.byte	0xa
 4014 0809 1701     		.2byte	0x117
 4015 080b F2010000 		.4byte	0x1f2
 4016 080f 02       		.byte	0x2
 4017 0810 23       		.byte	0x23
 4018 0811 04       		.uleb128 0x4
 4019 0812 14       		.uleb128 0x14
 4020 0813 6C656E00 		.ascii	"len\000"
 4021 0817 0A       		.byte	0xa
 4022 0818 1801     		.2byte	0x118
 4023 081a DE000000 		.4byte	0xde
 4024 081e 02       		.byte	0x2
 4025 081f 23       		.byte	0x23
 4026 0820 08       		.uleb128 0x8
 4027 0821 10       		.uleb128 0x10
 4028 0822 FD020000 		.4byte	.LASF41
 4029 0826 0A       		.byte	0xa
 4030 0827 2201     		.2byte	0x122
 4031 0829 C8000000 		.4byte	0xc8
ARM GAS  C:\Users\jenny\AppData\Local\Temp\ccUygzzS.s 			page 72


 4032 082d 02       		.byte	0x2
 4033 082e 23       		.byte	0x23
 4034 082f 0A       		.uleb128 0xa
 4035 0830 10       		.uleb128 0x10
 4036 0831 D4020000 		.4byte	.LASF123
 4037 0835 0A       		.byte	0xa
 4038 0836 2701     		.2byte	0x127
 4039 0838 C3080000 		.4byte	0x8c3
 4040 083c 02       		.byte	0x2
 4041 083d 23       		.byte	0x23
 4042 083e 0C       		.uleb128 0xc
 4043 083f 00       		.byte	0
 4044 0840 0B       		.uleb128 0xb
 4045 0841 04       		.byte	0x4
 4046 0842 E9070000 		.4byte	0x7e9
 4047 0846 08       		.uleb128 0x8
 4048 0847 90070000 		.4byte	.LASF124
 4049 084b 14       		.byte	0x14
 4050 084c 0A       		.byte	0xa
 4051 084d 9F       		.byte	0x9f
 4052 084e C3080000 		.4byte	0x8c3
 4053 0852 0A       		.uleb128 0xa
 4054 0853 73726300 		.ascii	"src\000"
 4055 0857 0A       		.byte	0xa
 4056 0858 A0       		.byte	0xa0
 4057 0859 DE000000 		.4byte	0xde
 4058 085d 02       		.byte	0x2
 4059 085e 23       		.byte	0x23
 4060 085f 00       		.uleb128 0
 4061 0860 09       		.uleb128 0x9
 4062 0861 DE070000 		.4byte	.LASF125
 4063 0865 0A       		.byte	0xa
 4064 0866 A1       		.byte	0xa1
 4065 0867 DE000000 		.4byte	0xde
 4066 086b 02       		.byte	0x2
 4067 086c 23       		.byte	0x23
 4068 086d 02       		.uleb128 0x2
 4069 086e 09       		.uleb128 0x9
 4070 086f 42050000 		.4byte	.LASF126
 4071 0873 0A       		.byte	0xa
 4072 0874 A2       		.byte	0xa2
 4073 0875 F4000000 		.4byte	0xf4
 4074 0879 02       		.byte	0x2
 4075 087a 23       		.byte	0x23
 4076 087b 04       		.uleb128 0x4
 4077 087c 09       		.uleb128 0x9
 4078 087d 0D080000 		.4byte	.LASF127
 4079 0881 0A       		.byte	0xa
 4080 0882 A3       		.byte	0xa3
 4081 0883 F4000000 		.4byte	0xf4
 4082 0887 02       		.byte	0x2
 4083 0888 23       		.byte	0x23
 4084 0889 08       		.uleb128 0x8
 4085 088a 09       		.uleb128 0x9
 4086 088b 2A080000 		.4byte	.LASF128
 4087 088f 0A       		.byte	0xa
 4088 0890 A4       		.byte	0xa4
ARM GAS  C:\Users\jenny\AppData\Local\Temp\ccUygzzS.s 			page 73


 4089 0891 DE000000 		.4byte	0xde
 4090 0895 02       		.byte	0x2
 4091 0896 23       		.byte	0x23
 4092 0897 0C       		.uleb128 0xc
 4093 0898 0A       		.uleb128 0xa
 4094 0899 776E6400 		.ascii	"wnd\000"
 4095 089d 0A       		.byte	0xa
 4096 089e A5       		.byte	0xa5
 4097 089f DE000000 		.4byte	0xde
 4098 08a3 02       		.byte	0x2
 4099 08a4 23       		.byte	0x23
 4100 08a5 0E       		.uleb128 0xe
 4101 08a6 09       		.uleb128 0x9
 4102 08a7 8D060000 		.4byte	.LASF129
 4103 08ab 0A       		.byte	0xa
 4104 08ac A6       		.byte	0xa6
 4105 08ad DE000000 		.4byte	0xde
 4106 08b1 02       		.byte	0x2
 4107 08b2 23       		.byte	0x23
 4108 08b3 10       		.uleb128 0x10
 4109 08b4 09       		.uleb128 0x9
 4110 08b5 4E090000 		.4byte	.LASF130
 4111 08b9 0A       		.byte	0xa
 4112 08ba A7       		.byte	0xa7
 4113 08bb DE000000 		.4byte	0xde
 4114 08bf 02       		.byte	0x2
 4115 08c0 23       		.byte	0x23
 4116 08c1 12       		.uleb128 0x12
 4117 08c2 00       		.byte	0
 4118 08c3 0B       		.uleb128 0xb
 4119 08c4 04       		.byte	0x4
 4120 08c5 46080000 		.4byte	0x846
 4121 08c9 06       		.uleb128 0x6
 4122 08ca 01       		.byte	0x1
 4123 08cb 0B       		.byte	0xb
 4124 08cc 2B       		.byte	0x2b
 4125 08cd 2C090000 		.4byte	0x92c
 4126 08d1 07       		.uleb128 0x7
 4127 08d2 15040000 		.4byte	.LASF131
 4128 08d6 00       		.sleb128 0
 4129 08d7 07       		.uleb128 0x7
 4130 08d8 ED060000 		.4byte	.LASF132
 4131 08dc 01       		.sleb128 1
 4132 08dd 07       		.uleb128 0x7
 4133 08de 63000000 		.4byte	.LASF133
 4134 08e2 02       		.sleb128 2
 4135 08e3 07       		.uleb128 0x7
 4136 08e4 DD090000 		.4byte	.LASF134
 4137 08e8 03       		.sleb128 3
 4138 08e9 07       		.uleb128 0x7
 4139 08ea 06070000 		.4byte	.LASF135
 4140 08ee 04       		.sleb128 4
 4141 08ef 07       		.uleb128 0x7
 4142 08f0 A5060000 		.4byte	.LASF136
 4143 08f4 05       		.sleb128 5
 4144 08f5 07       		.uleb128 0x7
 4145 08f6 C7060000 		.4byte	.LASF137
ARM GAS  C:\Users\jenny\AppData\Local\Temp\ccUygzzS.s 			page 74


 4146 08fa 06       		.sleb128 6
 4147 08fb 07       		.uleb128 0x7
 4148 08fc 69020000 		.4byte	.LASF138
 4149 0900 07       		.sleb128 7
 4150 0901 07       		.uleb128 0x7
 4151 0902 BE030000 		.4byte	.LASF139
 4152 0906 08       		.sleb128 8
 4153 0907 07       		.uleb128 0x7
 4154 0908 B0080000 		.4byte	.LASF140
 4155 090c 09       		.sleb128 9
 4156 090d 07       		.uleb128 0x7
 4157 090e 2C070000 		.4byte	.LASF141
 4158 0912 0A       		.sleb128 10
 4159 0913 07       		.uleb128 0x7
 4160 0914 95000000 		.4byte	.LASF142
 4161 0918 0B       		.sleb128 11
 4162 0919 07       		.uleb128 0x7
 4163 091a 42080000 		.4byte	.LASF143
 4164 091e 0C       		.sleb128 12
 4165 091f 07       		.uleb128 0x7
 4166 0920 F8010000 		.4byte	.LASF144
 4167 0924 0D       		.sleb128 13
 4168 0925 07       		.uleb128 0x7
 4169 0926 E3070000 		.4byte	.LASF145
 4170 092a 0E       		.sleb128 14
 4171 092b 00       		.byte	0
 4172 092c 04       		.uleb128 0x4
 4173 092d 86060000 		.4byte	.LASF146
 4174 0931 0B       		.byte	0xb
 4175 0932 2F       		.byte	0x2f
 4176 0933 C9080000 		.4byte	0x8c9
 4177 0937 08       		.uleb128 0x8
 4178 0938 77050000 		.4byte	.LASF147
 4179 093c 18       		.byte	0x18
 4180 093d 0C       		.byte	0xc
 4181 093e 3A       		.byte	0x3a
 4182 093f EB090000 		.4byte	0x9eb
 4183 0943 09       		.uleb128 0x9
 4184 0944 E8040000 		.4byte	.LASF148
 4185 0948 0C       		.byte	0xc
 4186 0949 3B       		.byte	0x3b
 4187 094a DE000000 		.4byte	0xde
 4188 094e 02       		.byte	0x2
 4189 094f 23       		.byte	0x23
 4190 0950 00       		.uleb128 0
 4191 0951 09       		.uleb128 0x9
 4192 0952 4A060000 		.4byte	.LASF98
 4193 0956 0C       		.byte	0xc
 4194 0957 3C       		.byte	0x3c
 4195 0958 DE000000 		.4byte	0xde
 4196 095c 02       		.byte	0x2
 4197 095d 23       		.byte	0x23
 4198 095e 02       		.uleb128 0x2
 4199 095f 0A       		.uleb128 0xa
 4200 0960 667700   		.ascii	"fw\000"
 4201 0963 0C       		.byte	0xc
 4202 0964 3D       		.byte	0x3d
ARM GAS  C:\Users\jenny\AppData\Local\Temp\ccUygzzS.s 			page 75


 4203 0965 DE000000 		.4byte	0xde
 4204 0969 02       		.byte	0x2
 4205 096a 23       		.byte	0x23
 4206 096b 04       		.uleb128 0x4
 4207 096c 09       		.uleb128 0x9
 4208 096d 7E020000 		.4byte	.LASF149
 4209 0971 0C       		.byte	0xc
 4210 0972 3E       		.byte	0x3e
 4211 0973 DE000000 		.4byte	0xde
 4212 0977 02       		.byte	0x2
 4213 0978 23       		.byte	0x23
 4214 0979 06       		.uleb128 0x6
 4215 097a 09       		.uleb128 0x9
 4216 097b 98070000 		.4byte	.LASF150
 4217 097f 0C       		.byte	0xc
 4218 0980 3F       		.byte	0x3f
 4219 0981 DE000000 		.4byte	0xde
 4220 0985 02       		.byte	0x2
 4221 0986 23       		.byte	0x23
 4222 0987 08       		.uleb128 0x8
 4223 0988 09       		.uleb128 0x9
 4224 0989 5A020000 		.4byte	.LASF151
 4225 098d 0C       		.byte	0xc
 4226 098e 40       		.byte	0x40
 4227 098f DE000000 		.4byte	0xde
 4228 0993 02       		.byte	0x2
 4229 0994 23       		.byte	0x23
 4230 0995 0A       		.uleb128 0xa
 4231 0996 09       		.uleb128 0x9
 4232 0997 A4030000 		.4byte	.LASF152
 4233 099b 0C       		.byte	0xc
 4234 099c 41       		.byte	0x41
 4235 099d DE000000 		.4byte	0xde
 4236 09a1 02       		.byte	0x2
 4237 09a2 23       		.byte	0x23
 4238 09a3 0C       		.uleb128 0xc
 4239 09a4 09       		.uleb128 0x9
 4240 09a5 C0090000 		.4byte	.LASF153
 4241 09a9 0C       		.byte	0xc
 4242 09aa 42       		.byte	0x42
 4243 09ab DE000000 		.4byte	0xde
 4244 09af 02       		.byte	0x2
 4245 09b0 23       		.byte	0x23
 4246 09b1 0E       		.uleb128 0xe
 4247 09b2 09       		.uleb128 0x9
 4248 09b3 07000000 		.4byte	.LASF154
 4249 09b7 0C       		.byte	0xc
 4250 09b8 43       		.byte	0x43
 4251 09b9 DE000000 		.4byte	0xde
 4252 09bd 02       		.byte	0x2
 4253 09be 23       		.byte	0x23
 4254 09bf 10       		.uleb128 0x10
 4255 09c0 09       		.uleb128 0x9
 4256 09c1 89070000 		.4byte	.LASF155
 4257 09c5 0C       		.byte	0xc
 4258 09c6 44       		.byte	0x44
 4259 09c7 DE000000 		.4byte	0xde
ARM GAS  C:\Users\jenny\AppData\Local\Temp\ccUygzzS.s 			page 76


 4260 09cb 02       		.byte	0x2
 4261 09cc 23       		.byte	0x23
 4262 09cd 12       		.uleb128 0x12
 4263 09ce 0A       		.uleb128 0xa
 4264 09cf 65727200 		.ascii	"err\000"
 4265 09d3 0C       		.byte	0xc
 4266 09d4 45       		.byte	0x45
 4267 09d5 DE000000 		.4byte	0xde
 4268 09d9 02       		.byte	0x2
 4269 09da 23       		.byte	0x23
 4270 09db 14       		.uleb128 0x14
 4271 09dc 09       		.uleb128 0x9
 4272 09dd 92030000 		.4byte	.LASF156
 4273 09e1 0C       		.byte	0xc
 4274 09e2 46       		.byte	0x46
 4275 09e3 DE000000 		.4byte	0xde
 4276 09e7 02       		.byte	0x2
 4277 09e8 23       		.byte	0x23
 4278 09e9 16       		.uleb128 0x16
 4279 09ea 00       		.byte	0
 4280 09eb 08       		.uleb128 0x8
 4281 09ec 20080000 		.4byte	.LASF157
 4282 09f0 0A       		.byte	0xa
 4283 09f1 0C       		.byte	0xc
 4284 09f2 5A       		.byte	0x5a
 4285 09f3 3E0A0000 		.4byte	0xa3e
 4286 09f7 09       		.uleb128 0x9
 4287 09f8 D0010000 		.4byte	.LASF158
 4288 09fc 0C       		.byte	0xc
 4289 09fd 5E       		.byte	0x5e
 4290 09fe 15010000 		.4byte	0x115
 4291 0a02 02       		.byte	0x2
 4292 0a03 23       		.byte	0x23
 4293 0a04 00       		.uleb128 0
 4294 0a05 09       		.uleb128 0x9
 4295 0a06 4E000000 		.4byte	.LASF159
 4296 0a0a 0C       		.byte	0xc
 4297 0a0b 5F       		.byte	0x5f
 4298 0a0c 15010000 		.4byte	0x115
 4299 0a10 02       		.byte	0x2
 4300 0a11 23       		.byte	0x23
 4301 0a12 02       		.uleb128 0x2
 4302 0a13 0A       		.uleb128 0xa
 4303 0a14 6D617800 		.ascii	"max\000"
 4304 0a18 0C       		.byte	0xc
 4305 0a19 60       		.byte	0x60
 4306 0a1a 15010000 		.4byte	0x115
 4307 0a1e 02       		.byte	0x2
 4308 0a1f 23       		.byte	0x23
 4309 0a20 04       		.uleb128 0x4
 4310 0a21 0A       		.uleb128 0xa
 4311 0a22 65727200 		.ascii	"err\000"
 4312 0a26 0C       		.byte	0xc
 4313 0a27 61       		.byte	0x61
 4314 0a28 DE000000 		.4byte	0xde
 4315 0a2c 02       		.byte	0x2
 4316 0a2d 23       		.byte	0x23
ARM GAS  C:\Users\jenny\AppData\Local\Temp\ccUygzzS.s 			page 77


 4317 0a2e 06       		.uleb128 0x6
 4318 0a2f 09       		.uleb128 0x9
 4319 0a30 7B070000 		.4byte	.LASF160
 4320 0a34 0C       		.byte	0xc
 4321 0a35 62       		.byte	0x62
 4322 0a36 DE000000 		.4byte	0xde
 4323 0a3a 02       		.byte	0x2
 4324 0a3b 23       		.byte	0x23
 4325 0a3c 08       		.uleb128 0x8
 4326 0a3d 00       		.byte	0
 4327 0a3e 08       		.uleb128 0x8
 4328 0a3f 69050000 		.4byte	.LASF161
 4329 0a43 06       		.byte	0x6
 4330 0a44 0C       		.byte	0xc
 4331 0a45 65       		.byte	0x65
 4332 0a46 750A0000 		.4byte	0xa75
 4333 0a4a 09       		.uleb128 0x9
 4334 0a4b 4E000000 		.4byte	.LASF159
 4335 0a4f 0C       		.byte	0xc
 4336 0a50 66       		.byte	0x66
 4337 0a51 DE000000 		.4byte	0xde
 4338 0a55 02       		.byte	0x2
 4339 0a56 23       		.byte	0x23
 4340 0a57 00       		.uleb128 0
 4341 0a58 0A       		.uleb128 0xa
 4342 0a59 6D617800 		.ascii	"max\000"
 4343 0a5d 0C       		.byte	0xc
 4344 0a5e 67       		.byte	0x67
 4345 0a5f DE000000 		.4byte	0xde
 4346 0a63 02       		.byte	0x2
 4347 0a64 23       		.byte	0x23
 4348 0a65 02       		.uleb128 0x2
 4349 0a66 0A       		.uleb128 0xa
 4350 0a67 65727200 		.ascii	"err\000"
 4351 0a6b 0C       		.byte	0xc
 4352 0a6c 68       		.byte	0x68
 4353 0a6d DE000000 		.4byte	0xde
 4354 0a71 02       		.byte	0x2
 4355 0a72 23       		.byte	0x23
 4356 0a73 04       		.uleb128 0x4
 4357 0a74 00       		.byte	0
 4358 0a75 08       		.uleb128 0x8
 4359 0a76 9B060000 		.4byte	.LASF162
 4360 0a7a 12       		.byte	0x12
 4361 0a7b 0C       		.byte	0xc
 4362 0a7c 6B       		.byte	0x6b
 4363 0a7d AC0A0000 		.4byte	0xaac
 4364 0a81 0A       		.uleb128 0xa
 4365 0a82 73656D00 		.ascii	"sem\000"
 4366 0a86 0C       		.byte	0xc
 4367 0a87 6C       		.byte	0x6c
 4368 0a88 3E0A0000 		.4byte	0xa3e
 4369 0a8c 02       		.byte	0x2
 4370 0a8d 23       		.byte	0x23
 4371 0a8e 00       		.uleb128 0
 4372 0a8f 09       		.uleb128 0x9
 4373 0a90 56050000 		.4byte	.LASF163
ARM GAS  C:\Users\jenny\AppData\Local\Temp\ccUygzzS.s 			page 78


 4374 0a94 0C       		.byte	0xc
 4375 0a95 6D       		.byte	0x6d
 4376 0a96 3E0A0000 		.4byte	0xa3e
 4377 0a9a 02       		.byte	0x2
 4378 0a9b 23       		.byte	0x23
 4379 0a9c 06       		.uleb128 0x6
 4380 0a9d 09       		.uleb128 0x9
 4381 0a9e BD060000 		.4byte	.LASF164
 4382 0aa2 0C       		.byte	0xc
 4383 0aa3 6E       		.byte	0x6e
 4384 0aa4 3E0A0000 		.4byte	0xa3e
 4385 0aa8 02       		.byte	0x2
 4386 0aa9 23       		.byte	0x23
 4387 0aaa 0C       		.uleb128 0xc
 4388 0aab 00       		.byte	0
 4389 0aac 15       		.uleb128 0x15
 4390 0aad AB030000 		.4byte	.LASF165
 4391 0ab1 5001     		.2byte	0x150
 4392 0ab3 0C       		.byte	0xc
 4393 0ab4 71       		.byte	0x71
 4394 0ab5 490B0000 		.4byte	0xb49
 4395 0ab9 09       		.uleb128 0x9
 4396 0aba BF040000 		.4byte	.LASF166
 4397 0abe 0C       		.byte	0xc
 4398 0abf 73       		.byte	0x73
 4399 0ac0 37090000 		.4byte	0x937
 4400 0ac4 02       		.byte	0x2
 4401 0ac5 23       		.byte	0x23
 4402 0ac6 00       		.uleb128 0
 4403 0ac7 09       		.uleb128 0x9
 4404 0ac8 63010000 		.4byte	.LASF167
 4405 0acc 0C       		.byte	0xc
 4406 0acd 76       		.byte	0x76
 4407 0ace 37090000 		.4byte	0x937
 4408 0ad2 02       		.byte	0x2
 4409 0ad3 23       		.byte	0x23
 4410 0ad4 18       		.uleb128 0x18
 4411 0ad5 09       		.uleb128 0x9
 4412 0ad6 9B050000 		.4byte	.LASF168
 4413 0ada 0C       		.byte	0xc
 4414 0adb 79       		.byte	0x79
 4415 0adc 37090000 		.4byte	0x937
 4416 0ae0 02       		.byte	0x2
 4417 0ae1 23       		.byte	0x23
 4418 0ae2 30       		.uleb128 0x30
 4419 0ae3 0A       		.uleb128 0xa
 4420 0ae4 697000   		.ascii	"ip\000"
 4421 0ae7 0C       		.byte	0xc
 4422 0ae8 7C       		.byte	0x7c
 4423 0ae9 37090000 		.4byte	0x937
 4424 0aed 02       		.byte	0x2
 4425 0aee 23       		.byte	0x23
 4426 0aef 48       		.uleb128 0x48
 4427 0af0 09       		.uleb128 0x9
 4428 0af1 C2060000 		.4byte	.LASF169
 4429 0af5 0C       		.byte	0xc
 4430 0af6 7F       		.byte	0x7f
ARM GAS  C:\Users\jenny\AppData\Local\Temp\ccUygzzS.s 			page 79


 4431 0af7 37090000 		.4byte	0x937
 4432 0afb 02       		.byte	0x2
 4433 0afc 23       		.byte	0x23
 4434 0afd 60       		.uleb128 0x60
 4435 0afe 0A       		.uleb128 0xa
 4436 0aff 75647000 		.ascii	"udp\000"
 4437 0b03 0C       		.byte	0xc
 4438 0b04 85       		.byte	0x85
 4439 0b05 37090000 		.4byte	0x937
 4440 0b09 02       		.byte	0x2
 4441 0b0a 23       		.byte	0x23
 4442 0b0b 78       		.uleb128 0x78
 4443 0b0c 0A       		.uleb128 0xa
 4444 0b0d 74637000 		.ascii	"tcp\000"
 4445 0b11 0C       		.byte	0xc
 4446 0b12 88       		.byte	0x88
 4447 0b13 37090000 		.4byte	0x937
 4448 0b17 03       		.byte	0x3
 4449 0b18 23       		.byte	0x23
 4450 0b19 9001     		.uleb128 0x90
 4451 0b1b 0A       		.uleb128 0xa
 4452 0b1c 6D656D00 		.ascii	"mem\000"
 4453 0b20 0C       		.byte	0xc
 4454 0b21 8B       		.byte	0x8b
 4455 0b22 EB090000 		.4byte	0x9eb
 4456 0b26 03       		.byte	0x3
 4457 0b27 23       		.byte	0x23
 4458 0b28 A801     		.uleb128 0xa8
 4459 0b2a 09       		.uleb128 0x9
 4460 0b2b 4F010000 		.4byte	.LASF170
 4461 0b2f 0C       		.byte	0xc
 4462 0b30 8E       		.byte	0x8e
 4463 0b31 490B0000 		.4byte	0xb49
 4464 0b35 03       		.byte	0x3
 4465 0b36 23       		.byte	0x23
 4466 0b37 B201     		.uleb128 0xb2
 4467 0b39 0A       		.uleb128 0xa
 4468 0b3a 73797300 		.ascii	"sys\000"
 4469 0b3e 0C       		.byte	0xc
 4470 0b3f 91       		.byte	0x91
 4471 0b40 750A0000 		.4byte	0xa75
 4472 0b44 03       		.byte	0x3
 4473 0b45 23       		.byte	0x23
 4474 0b46 BE02     		.uleb128 0x13e
 4475 0b48 00       		.byte	0
 4476 0b49 0E       		.uleb128 0xe
 4477 0b4a EB090000 		.4byte	0x9eb
 4478 0b4e 590B0000 		.4byte	0xb59
 4479 0b52 0F       		.uleb128 0xf
 4480 0b53 BA000000 		.4byte	0xba
 4481 0b57 0D       		.byte	0xd
 4482 0b58 00       		.byte	0
 4483 0b59 0B       		.uleb128 0xb
 4484 0b5a 04       		.byte	0x4
 4485 0b5b C1000000 		.4byte	0xc1
 4486 0b5f 16       		.uleb128 0x16
 4487 0b60 9C040000 		.4byte	.LASF184
ARM GAS  C:\Users\jenny\AppData\Local\Temp\ccUygzzS.s 			page 80


 4488 0b64 01       		.byte	0x1
 4489 0b65 5E       		.byte	0x5e
 4490 0b66 01       		.byte	0x1
 4491 0b67 F2010000 		.4byte	0x1f2
 4492 0b6b 01       		.byte	0x1
 4493 0b6c B10B0000 		.4byte	0xbb1
 4494 0b70 17       		.uleb128 0x17
 4495 0b71 70636200 		.ascii	"pcb\000"
 4496 0b75 01       		.byte	0x1
 4497 0b76 5E       		.byte	0x5e
 4498 0b77 BC030000 		.4byte	0x3bc
 4499 0b7b 18       		.uleb128 0x18
 4500 0b7c 51070000 		.4byte	.LASF171
 4501 0b80 01       		.byte	0x1
 4502 0b81 5E       		.byte	0x5e
 4503 0b82 DE000000 		.4byte	0xde
 4504 0b86 18       		.uleb128 0x18
 4505 0b87 0F060000 		.4byte	.LASF172
 4506 0b8b 01       		.byte	0x1
 4507 0b8c 5E       		.byte	0x5e
 4508 0b8d DE000000 		.4byte	0xde
 4509 0b91 18       		.uleb128 0x18
 4510 0b92 B4060000 		.4byte	.LASF173
 4511 0b96 01       		.byte	0x1
 4512 0b97 5F       		.byte	0x5f
 4513 0b98 F4000000 		.4byte	0xf4
 4514 0b9c 19       		.uleb128 0x19
 4515 0b9d D4020000 		.4byte	.LASF123
 4516 0ba1 01       		.byte	0x1
 4517 0ba2 61       		.byte	0x61
 4518 0ba3 C3080000 		.4byte	0x8c3
 4519 0ba7 1A       		.uleb128 0x1a
 4520 0ba8 7000     		.ascii	"p\000"
 4521 0baa 01       		.byte	0x1
 4522 0bab 62       		.byte	0x62
 4523 0bac F2010000 		.4byte	0x1f2
 4524 0bb0 00       		.byte	0
 4525 0bb1 1B       		.uleb128 0x1b
 4526 0bb2 FD040000 		.4byte	.LASF181
 4527 0bb6 01       		.byte	0x1
 4528 0bb7 DB       		.byte	0xdb
 4529 0bb8 01       		.byte	0x1
 4530 0bb9 F2010000 		.4byte	0x1f2
 4531 0bbd 00000000 		.4byte	.LFB10
 4532 0bc1 6C000000 		.4byte	.LFE10
 4533 0bc5 00000000 		.4byte	.LLST0
 4534 0bc9 01       		.byte	0x1
 4535 0bca 6D0C0000 		.4byte	0xc6d
 4536 0bce 1C       		.uleb128 0x1c
 4537 0bcf DD050000 		.4byte	.LASF174
 4538 0bd3 01       		.byte	0x1
 4539 0bd4 DB       		.byte	0xdb
 4540 0bd5 4C010000 		.4byte	0x14c
 4541 0bd9 20000000 		.4byte	.LLST1
 4542 0bdd 1C       		.uleb128 0x1c
 4543 0bde 94060000 		.4byte	.LASF175
 4544 0be2 01       		.byte	0x1
ARM GAS  C:\Users\jenny\AppData\Local\Temp\ccUygzzS.s 			page 81


 4545 0be3 DB       		.byte	0xdb
 4546 0be4 DE000000 		.4byte	0xde
 4547 0be8 4C000000 		.4byte	.LLST2
 4548 0bec 1C       		.uleb128 0x1c
 4549 0bed B4040000 		.4byte	.LASF176
 4550 0bf1 01       		.byte	0x1
 4551 0bf2 DB       		.byte	0xdb
 4552 0bf3 DE000000 		.4byte	0xde
 4553 0bf7 6D000000 		.4byte	.LLST3
 4554 0bfb 1C       		.uleb128 0x1c
 4555 0bfc 65070000 		.4byte	.LASF177
 4556 0c00 01       		.byte	0x1
 4557 0c01 DC       		.byte	0xdc
 4558 0c02 6D0C0000 		.4byte	0xc6d
 4559 0c06 B2000000 		.4byte	.LLST4
 4560 0c0a 1D       		.uleb128 0x1d
 4561 0c0b 70636200 		.ascii	"pcb\000"
 4562 0c0f 01       		.byte	0x1
 4563 0c10 DC       		.byte	0xdc
 4564 0c11 BC030000 		.4byte	0x3bc
 4565 0c15 02       		.byte	0x2
 4566 0c16 91       		.byte	0x91
 4567 0c17 00       		.sleb128 0
 4568 0c18 1E       		.uleb128 0x1e
 4569 0c19 C8080000 		.4byte	.LASF178
 4570 0c1d 01       		.byte	0x1
 4571 0c1e DC       		.byte	0xdc
 4572 0c1f C8000000 		.4byte	0xc8
 4573 0c23 02       		.byte	0x2
 4574 0c24 91       		.byte	0x91
 4575 0c25 04       		.sleb128 4
 4576 0c26 1E       		.uleb128 0x1e
 4577 0c27 3A090000 		.4byte	.LASF179
 4578 0c2b 01       		.byte	0x1
 4579 0c2c DD       		.byte	0xdd
 4580 0c2d C8000000 		.4byte	0xc8
 4581 0c31 02       		.byte	0x2
 4582 0c32 91       		.byte	0x91
 4583 0c33 08       		.sleb128 8
 4584 0c34 1F       		.uleb128 0x1f
 4585 0c35 7000     		.ascii	"p\000"
 4586 0c37 01       		.byte	0x1
 4587 0c38 DF       		.byte	0xdf
 4588 0c39 F2010000 		.4byte	0x1f2
 4589 0c3d D0000000 		.4byte	.LLST5
 4590 0c41 20       		.uleb128 0x20
 4591 0c42 88050000 		.4byte	.LASF180
 4592 0c46 01       		.byte	0x1
 4593 0c47 E0       		.byte	0xe0
 4594 0c48 DE000000 		.4byte	0xde
 4595 0c4c EE000000 		.4byte	.LLST6
 4596 0c50 21       		.uleb128 0x21
 4597 0c51 3C000000 		.4byte	.LVL8
 4598 0c55 831C0000 		.4byte	0x1c83
 4599 0c59 630C0000 		.4byte	0xc63
 4600 0c5d 22       		.uleb128 0x22
 4601 0c5e 01       		.byte	0x1
ARM GAS  C:\Users\jenny\AppData\Local\Temp\ccUygzzS.s 			page 82


 4602 0c5f 52       		.byte	0x52
 4603 0c60 01       		.byte	0x1
 4604 0c61 30       		.byte	0x30
 4605 0c62 00       		.byte	0
 4606 0c63 23       		.uleb128 0x23
 4607 0c64 48000000 		.4byte	.LVL10
 4608 0c68 A51C0000 		.4byte	0x1ca5
 4609 0c6c 00       		.byte	0
 4610 0c6d 0B       		.uleb128 0xb
 4611 0c6e 04       		.byte	0x4
 4612 0c6f DE000000 		.4byte	0xde
 4613 0c73 1B       		.uleb128 0x1b
 4614 0c74 CA050000 		.4byte	.LASF182
 4615 0c78 01       		.byte	0x1
 4616 0c79 9F       		.byte	0x9f
 4617 0c7a 01       		.byte	0x1
 4618 0c7b 40080000 		.4byte	0x840
 4619 0c7f 00000000 		.4byte	.LFB9
 4620 0c83 BC000000 		.4byte	.LFE9
 4621 0c87 38010000 		.4byte	.LLST7
 4622 0c8b 01       		.byte	0x1
 4623 0c8c 790D0000 		.4byte	0xd79
 4624 0c90 24       		.uleb128 0x24
 4625 0c91 70636200 		.ascii	"pcb\000"
 4626 0c95 01       		.byte	0x1
 4627 0c96 9F       		.byte	0x9f
 4628 0c97 BC030000 		.4byte	0x3bc
 4629 0c9b 58010000 		.4byte	.LLST8
 4630 0c9f 24       		.uleb128 0x24
 4631 0ca0 7000     		.ascii	"p\000"
 4632 0ca2 01       		.byte	0x1
 4633 0ca3 9F       		.byte	0x9f
 4634 0ca4 F2010000 		.4byte	0x1f2
 4635 0ca8 76010000 		.4byte	.LLST9
 4636 0cac 1C       		.uleb128 0x1c
 4637 0cad FD020000 		.4byte	.LASF41
 4638 0cb1 01       		.byte	0x1
 4639 0cb2 9F       		.byte	0x9f
 4640 0cb3 C8000000 		.4byte	0xc8
 4641 0cb7 AD010000 		.4byte	.LLST10
 4642 0cbb 1C       		.uleb128 0x1c
 4643 0cbc 42050000 		.4byte	.LASF126
 4644 0cc0 01       		.byte	0x1
 4645 0cc1 9F       		.byte	0x9f
 4646 0cc2 F4000000 		.4byte	0xf4
 4647 0cc6 CE010000 		.4byte	.LLST11
 4648 0cca 1E       		.uleb128 0x1e
 4649 0ccb AA010000 		.4byte	.LASF183
 4650 0ccf 01       		.byte	0x1
 4651 0cd0 9F       		.byte	0x9f
 4652 0cd1 C8000000 		.4byte	0xc8
 4653 0cd5 02       		.byte	0x2
 4654 0cd6 91       		.byte	0x91
 4655 0cd7 00       		.sleb128 0
 4656 0cd8 1F       		.uleb128 0x1f
 4657 0cd9 73656700 		.ascii	"seg\000"
 4658 0cdd 01       		.byte	0x1
ARM GAS  C:\Users\jenny\AppData\Local\Temp\ccUygzzS.s 			page 83


 4659 0cde A1       		.byte	0xa1
 4660 0cdf 40080000 		.4byte	0x840
 4661 0ce3 EC010000 		.4byte	.LLST12
 4662 0ce7 20       		.uleb128 0x20
 4663 0ce8 51070000 		.4byte	.LASF171
 4664 0cec 01       		.byte	0x1
 4665 0ced A2       		.byte	0xa2
 4666 0cee C8000000 		.4byte	0xc8
 4667 0cf2 36020000 		.4byte	.LLST13
 4668 0cf6 21       		.uleb128 0x21
 4669 0cf7 2E000000 		.4byte	.LVL14
 4670 0cfb B01C0000 		.4byte	0x1cb0
 4671 0cff 090D0000 		.4byte	0xd09
 4672 0d03 22       		.uleb128 0x22
 4673 0d04 01       		.byte	0x1
 4674 0d05 50       		.byte	0x50
 4675 0d06 01       		.byte	0x1
 4676 0d07 34       		.byte	0x34
 4677 0d08 00       		.byte	0
 4678 0d09 21       		.uleb128 0x21
 4679 0d0a 50000000 		.4byte	.LVL17
 4680 0d0e C81C0000 		.4byte	0x1cc8
 4681 0d12 220D0000 		.4byte	0xd22
 4682 0d16 22       		.uleb128 0x22
 4683 0d17 01       		.byte	0x1
 4684 0d18 51       		.byte	0x51
 4685 0d19 01       		.byte	0x1
 4686 0d1a 44       		.byte	0x44
 4687 0d1b 22       		.uleb128 0x22
 4688 0d1c 01       		.byte	0x1
 4689 0d1d 50       		.byte	0x50
 4690 0d1e 02       		.byte	0x2
 4691 0d1f 76       		.byte	0x76
 4692 0d20 00       		.sleb128 0
 4693 0d21 00       		.byte	0
 4694 0d22 23       		.uleb128 0x23
 4695 0d23 62000000 		.4byte	.LVL19
 4696 0d27 E51C0000 		.4byte	0x1ce5
 4697 0d2b 23       		.uleb128 0x23
 4698 0d2c 6E000000 		.4byte	.LVL20
 4699 0d30 E51C0000 		.4byte	0x1ce5
 4700 0d34 21       		.uleb128 0x21
 4701 0d35 78000000 		.4byte	.LVL21
 4702 0d39 FD1C0000 		.4byte	0x1cfd
 4703 0d3d 480D0000 		.4byte	0xd48
 4704 0d41 22       		.uleb128 0x22
 4705 0d42 01       		.byte	0x1
 4706 0d43 50       		.byte	0x50
 4707 0d44 02       		.byte	0x2
 4708 0d45 7A       		.byte	0x7a
 4709 0d46 00       		.sleb128 0
 4710 0d47 00       		.byte	0
 4711 0d48 21       		.uleb128 0x21
 4712 0d49 8A000000 		.4byte	.LVL23
 4713 0d4d E51C0000 		.4byte	0x1ce5
 4714 0d51 5F0D0000 		.4byte	0xd5f
 4715 0d55 22       		.uleb128 0x22
ARM GAS  C:\Users\jenny\AppData\Local\Temp\ccUygzzS.s 			page 84


 4716 0d56 01       		.byte	0x1
 4717 0d57 50       		.byte	0x50
 4718 0d58 05       		.byte	0x5
 4719 0d59 77       		.byte	0x77
 4720 0d5a 00       		.sleb128 0
 4721 0d5b 79       		.byte	0x79
 4722 0d5c 00       		.sleb128 0
 4723 0d5d 21       		.byte	0x21
 4724 0d5e 00       		.byte	0
 4725 0d5f 23       		.uleb128 0x23
 4726 0d60 AC000000 		.4byte	.LVL27
 4727 0d64 151D0000 		.4byte	0x1d15
 4728 0d68 25       		.uleb128 0x25
 4729 0d69 B4000000 		.4byte	.LVL30
 4730 0d6d 2A1D0000 		.4byte	0x1d2a
 4731 0d71 22       		.uleb128 0x22
 4732 0d72 01       		.byte	0x1
 4733 0d73 50       		.byte	0x50
 4734 0d74 02       		.byte	0x2
 4735 0d75 76       		.byte	0x76
 4736 0d76 00       		.sleb128 0
 4737 0d77 00       		.byte	0
 4738 0d78 00       		.byte	0
 4739 0d79 26       		.uleb128 0x26
 4740 0d7a 5F0B0000 		.4byte	0xb5f
 4741 0d7e 00000000 		.4byte	.LFB23
 4742 0d82 66000000 		.4byte	.LFE23
 4743 0d86 86020000 		.4byte	.LLST14
 4744 0d8a 01       		.byte	0x1
 4745 0d8b 1D0E0000 		.4byte	0xe1d
 4746 0d8f 27       		.uleb128 0x27
 4747 0d90 700B0000 		.4byte	0xb70
 4748 0d94 A6020000 		.4byte	.LLST15
 4749 0d98 27       		.uleb128 0x27
 4750 0d99 860B0000 		.4byte	0xb86
 4751 0d9d C4020000 		.4byte	.LLST16
 4752 0da1 27       		.uleb128 0x27
 4753 0da2 910B0000 		.4byte	0xb91
 4754 0da6 E5020000 		.4byte	.LLST17
 4755 0daa 28       		.uleb128 0x28
 4756 0dab 9C0B0000 		.4byte	0xb9c
 4757 0daf 03030000 		.4byte	.LLST18
 4758 0db3 28       		.uleb128 0x28
 4759 0db4 A70B0000 		.4byte	0xba7
 4760 0db8 16030000 		.4byte	.LLST19
 4761 0dbc 29       		.uleb128 0x29
 4762 0dbd 7B0B0000 		.4byte	0xb7b
 4763 0dc1 00       		.byte	0
 4764 0dc2 21       		.uleb128 0x21
 4765 0dc3 12000000 		.4byte	.LVL35
 4766 0dc7 831C0000 		.4byte	0x1c83
 4767 0dcb DA0D0000 		.4byte	0xdda
 4768 0dcf 22       		.uleb128 0x22
 4769 0dd0 01       		.byte	0x1
 4770 0dd1 52       		.byte	0x52
 4771 0dd2 01       		.byte	0x1
 4772 0dd3 30       		.byte	0x30
ARM GAS  C:\Users\jenny\AppData\Local\Temp\ccUygzzS.s 			page 85


 4773 0dd4 22       		.uleb128 0x22
 4774 0dd5 01       		.byte	0x1
 4775 0dd6 50       		.byte	0x50
 4776 0dd7 01       		.byte	0x1
 4777 0dd8 31       		.byte	0x31
 4778 0dd9 00       		.byte	0
 4779 0dda 23       		.uleb128 0x23
 4780 0ddb 24000000 		.4byte	.LVL38
 4781 0ddf E51C0000 		.4byte	0x1ce5
 4782 0de3 23       		.uleb128 0x23
 4783 0de4 2C000000 		.4byte	.LVL39
 4784 0de8 E51C0000 		.4byte	0x1ce5
 4785 0dec 23       		.uleb128 0x23
 4786 0ded 36000000 		.4byte	.LVL40
 4787 0df1 FD1C0000 		.4byte	0x1cfd
 4788 0df5 21       		.uleb128 0x21
 4789 0df6 40000000 		.4byte	.LVL41
 4790 0dfa E51C0000 		.4byte	0x1ce5
 4791 0dfe 0A0E0000 		.4byte	0xe0a
 4792 0e02 22       		.uleb128 0x22
 4793 0e03 01       		.byte	0x1
 4794 0e04 50       		.byte	0x50
 4795 0e05 03       		.byte	0x3
 4796 0e06 0A       		.byte	0xa
 4797 0e07 1050     		.2byte	0x5010
 4798 0e09 00       		.byte	0
 4799 0e0a 23       		.uleb128 0x23
 4800 0e0b 48000000 		.4byte	.LVL42
 4801 0e0f E51C0000 		.4byte	0x1ce5
 4802 0e13 23       		.uleb128 0x23
 4803 0e14 64000000 		.4byte	.LVL45
 4804 0e18 A51C0000 		.4byte	0x1ca5
 4805 0e1c 00       		.byte	0
 4806 0e1d 2A       		.uleb128 0x2a
 4807 0e1e 3D000000 		.4byte	.LASF185
 4808 0e22 01       		.byte	0x1
 4809 0e23 2601     		.2byte	0x126
 4810 0e25 01       		.byte	0x1
 4811 0e26 20010000 		.4byte	0x120
 4812 0e2a 01       		.byte	0x1
 4813 0e2b 480E0000 		.4byte	0xe48
 4814 0e2f 2B       		.uleb128 0x2b
 4815 0e30 70636200 		.ascii	"pcb\000"
 4816 0e34 01       		.byte	0x1
 4817 0e35 2601     		.2byte	0x126
 4818 0e37 BC030000 		.4byte	0x3bc
 4819 0e3b 2B       		.uleb128 0x2b
 4820 0e3c 6C656E00 		.ascii	"len\000"
 4821 0e40 01       		.byte	0x1
 4822 0e41 2601     		.2byte	0x126
 4823 0e43 DE000000 		.4byte	0xde
 4824 0e47 00       		.byte	0
 4825 0e48 2C       		.uleb128 0x2c
 4826 0e49 01       		.byte	0x1
 4827 0e4a C7000000 		.4byte	.LASF198
 4828 0e4e 01       		.byte	0x1
 4829 0e4f 6201     		.2byte	0x162
ARM GAS  C:\Users\jenny\AppData\Local\Temp\ccUygzzS.s 			page 86


 4830 0e51 01       		.byte	0x1
 4831 0e52 20010000 		.4byte	0x120
 4832 0e56 00000000 		.4byte	.LFB12
 4833 0e5a 94040000 		.4byte	.LFE12
 4834 0e5e 4A030000 		.4byte	.LLST20
 4835 0e62 01       		.byte	0x1
 4836 0e63 EC120000 		.4byte	0x12ec
 4837 0e67 2D       		.uleb128 0x2d
 4838 0e68 70636200 		.ascii	"pcb\000"
 4839 0e6c 01       		.byte	0x1
 4840 0e6d 6201     		.2byte	0x162
 4841 0e6f BC030000 		.4byte	0x3bc
 4842 0e73 77030000 		.4byte	.LLST21
 4843 0e77 2D       		.uleb128 0x2d
 4844 0e78 61726700 		.ascii	"arg\000"
 4845 0e7c 01       		.byte	0x1
 4846 0e7d 6201     		.2byte	0x162
 4847 0e7f EC120000 		.4byte	0x12ec
 4848 0e83 09040000 		.4byte	.LLST22
 4849 0e87 2D       		.uleb128 0x2d
 4850 0e88 6C656E00 		.ascii	"len\000"
 4851 0e8c 01       		.byte	0x1
 4852 0e8d 6201     		.2byte	0x162
 4853 0e8f DE000000 		.4byte	0xde
 4854 0e93 71040000 		.4byte	.LLST23
 4855 0e97 2E       		.uleb128 0x2e
 4856 0e98 C8080000 		.4byte	.LASF178
 4857 0e9c 01       		.byte	0x1
 4858 0e9d 6201     		.2byte	0x162
 4859 0e9f C8000000 		.4byte	0xc8
 4860 0ea3 F6040000 		.4byte	.LLST24
 4861 0ea7 2F       		.uleb128 0x2f
 4862 0ea8 DB020000 		.4byte	.LASF186
 4863 0eac 01       		.byte	0x1
 4864 0ead 6401     		.2byte	0x164
 4865 0eaf F2010000 		.4byte	0x1f2
 4866 0eb3 30050000 		.4byte	.LLST25
 4867 0eb7 2F       		.uleb128 0x2f
 4868 0eb8 EF080000 		.4byte	.LASF187
 4869 0ebc 01       		.byte	0x1
 4870 0ebd 6501     		.2byte	0x165
 4871 0ebf 40080000 		.4byte	0x840
 4872 0ec3 EA050000 		.4byte	.LLST26
 4873 0ec7 30       		.uleb128 0x30
 4874 0ec8 73656700 		.ascii	"seg\000"
 4875 0ecc 01       		.byte	0x1
 4876 0ecd 6501     		.2byte	0x165
 4877 0ecf 40080000 		.4byte	0x840
 4878 0ed3 9E060000 		.4byte	.LLST27
 4879 0ed7 2F       		.uleb128 0x2f
 4880 0ed8 0B090000 		.4byte	.LASF188
 4881 0edc 01       		.byte	0x1
 4882 0edd 6501     		.2byte	0x165
 4883 0edf 40080000 		.4byte	0x840
 4884 0ee3 96070000 		.4byte	.LLST28
 4885 0ee7 2F       		.uleb128 0x2f
 4886 0ee8 83070000 		.4byte	.LASF189
ARM GAS  C:\Users\jenny\AppData\Local\Temp\ccUygzzS.s 			page 87


 4887 0eec 01       		.byte	0x1
 4888 0eed 6501     		.2byte	0x165
 4889 0eef 40080000 		.4byte	0x840
 4890 0ef3 15080000 		.4byte	.LLST29
 4891 0ef7 30       		.uleb128 0x30
 4892 0ef8 706F7300 		.ascii	"pos\000"
 4893 0efc 01       		.byte	0x1
 4894 0efd 6601     		.2byte	0x166
 4895 0eff DE000000 		.4byte	0xde
 4896 0f03 98080000 		.4byte	.LLST30
 4897 0f07 2F       		.uleb128 0x2f
 4898 0f08 93040000 		.4byte	.LASF190
 4899 0f0c 01       		.byte	0x1
 4900 0f0d 6701     		.2byte	0x167
 4901 0f0f DE000000 		.4byte	0xde
 4902 0f13 5A090000 		.4byte	.LLST31
 4903 0f17 31       		.uleb128 0x31
 4904 0f18 51070000 		.4byte	.LASF171
 4905 0f1c 01       		.byte	0x1
 4906 0f1d 6801     		.2byte	0x168
 4907 0f1f C8000000 		.4byte	0xc8
 4908 0f23 00       		.byte	0
 4909 0f24 31       		.uleb128 0x31
 4910 0f25 AA010000 		.4byte	.LASF183
 4911 0f29 01       		.byte	0x1
 4912 0f2a 6901     		.2byte	0x169
 4913 0f2c C8000000 		.4byte	0xc8
 4914 0f30 00       		.byte	0
 4915 0f31 2F       		.uleb128 0x2f
 4916 0f32 65070000 		.4byte	.LASF177
 4917 0f36 01       		.byte	0x1
 4918 0f37 6B01     		.2byte	0x16b
 4919 0f39 DE000000 		.4byte	0xde
 4920 0f3d DD090000 		.4byte	.LLST32
 4921 0f41 2F       		.uleb128 0x2f
 4922 0f42 72060000 		.4byte	.LASF191
 4923 0f46 01       		.byte	0x1
 4924 0f47 6C01     		.2byte	0x16c
 4925 0f49 DE000000 		.4byte	0xde
 4926 0f4d 920A0000 		.4byte	.LLST33
 4927 0f51 32       		.uleb128 0x32
 4928 0f52 65727200 		.ascii	"err\000"
 4929 0f56 01       		.byte	0x1
 4930 0f57 7301     		.2byte	0x173
 4931 0f59 20010000 		.4byte	0x120
 4932 0f5d 01       		.byte	0x1
 4933 0f5e 50       		.byte	0x50
 4934 0f5f 33       		.uleb128 0x33
 4935 0f60 29090000 		.4byte	.LASF192
 4936 0f64 01       		.byte	0x1
 4937 0f65 7501     		.2byte	0x175
 4938 0f67 DE000000 		.4byte	0xde
 4939 0f6b 03       		.byte	0x3
 4940 0f6c 91       		.byte	0x91
 4941 0f6d B47F     		.sleb128 -76
 4942 0f6f 34       		.uleb128 0x34
 4943 0f70 A4030000 		.4byte	.LASF152
ARM GAS  C:\Users\jenny\AppData\Local\Temp\ccUygzzS.s 			page 88


 4944 0f74 01       		.byte	0x1
 4945 0f75 B502     		.2byte	0x2b5
 4946 0f77 3A030000 		.4byte	.L72
 4947 0f7b 35       		.uleb128 0x35
 4948 0f7c 1D0E0000 		.4byte	0xe1d
 4949 0f80 2A000000 		.4byte	.LBB9
 4950 0f84 00000000 		.4byte	.Ldebug_ranges0+0
 4951 0f88 01       		.byte	0x1
 4952 0f89 8101     		.2byte	0x181
 4953 0f8b AB0F0000 		.4byte	0xfab
 4954 0f8f 27       		.uleb128 0x27
 4955 0f90 3B0E0000 		.4byte	0xe3b
 4956 0f94 1E0B0000 		.4byte	.LLST34
 4957 0f98 27       		.uleb128 0x27
 4958 0f99 2F0E0000 		.4byte	0xe2f
 4959 0f9d AA0B0000 		.4byte	.LLST35
 4960 0fa1 23       		.uleb128 0x23
 4961 0fa2 FC000000 		.4byte	.LVL67
 4962 0fa6 A51C0000 		.4byte	0x1ca5
 4963 0faa 00       		.byte	0
 4964 0fab 36       		.uleb128 0x36
 4965 0fac 30000000 		.4byte	.Ldebug_ranges0+0x30
 4966 0fb0 81100000 		.4byte	0x1081
 4967 0fb4 2F       		.uleb128 0x2f
 4968 0fb5 0F050000 		.4byte	.LASF193
 4969 0fb9 01       		.byte	0x1
 4970 0fba A701     		.2byte	0x1a7
 4971 0fbc DE000000 		.4byte	0xde
 4972 0fc0 2E0C0000 		.4byte	.LLST36
 4973 0fc4 2F       		.uleb128 0x2f
 4974 0fc5 48050000 		.4byte	.LASF194
 4975 0fc9 01       		.byte	0x1
 4976 0fca A801     		.2byte	0x1a8
 4977 0fcc DE000000 		.4byte	0xde
 4978 0fd0 780C0000 		.4byte	.LLST37
 4979 0fd4 36       		.uleb128 0x36
 4980 0fd5 68000000 		.4byte	.Ldebug_ranges0+0x68
 4981 0fd9 77100000 		.4byte	0x1077
 4982 0fdd 2F       		.uleb128 0x2f
 4983 0fde 57060000 		.4byte	.LASF195
 4984 0fe2 01       		.byte	0x1
 4985 0fe3 D401     		.2byte	0x1d4
 4986 0fe5 DE000000 		.4byte	0xde
 4987 0fe9 2E0D0000 		.4byte	.LLST38
 4988 0fed 21       		.uleb128 0x21
 4989 0fee AC030000 		.4byte	.LVL136
 4990 0ff2 831C0000 		.4byte	0x1c83
 4991 0ff6 0B100000 		.4byte	0x100b
 4992 0ffa 22       		.uleb128 0x22
 4993 0ffb 01       		.byte	0x1
 4994 0ffc 52       		.byte	0x52
 4995 0ffd 01       		.byte	0x1
 4996 0ffe 31       		.byte	0x31
 4997 0fff 22       		.uleb128 0x22
 4998 1000 01       		.byte	0x1
 4999 1001 51       		.byte	0x51
 5000 1002 02       		.byte	0x2
ARM GAS  C:\Users\jenny\AppData\Local\Temp\ccUygzzS.s 			page 89


 5001 1003 76       		.byte	0x76
 5002 1004 00       		.sleb128 0
 5003 1005 22       		.uleb128 0x22
 5004 1006 01       		.byte	0x1
 5005 1007 50       		.byte	0x50
 5006 1008 01       		.byte	0x1
 5007 1009 33       		.byte	0x33
 5008 100a 00       		.byte	0
 5009 100b 21       		.uleb128 0x21
 5010 100c BE030000 		.4byte	.LVL138
 5011 1010 421D0000 		.4byte	0x1d42
 5012 1014 20100000 		.4byte	0x1020
 5013 1018 22       		.uleb128 0x22
 5014 1019 01       		.byte	0x1
 5015 101a 50       		.byte	0x50
 5016 101b 03       		.byte	0x3
 5017 101c 91       		.byte	0x91
 5018 101d 44       		.sleb128 -60
 5019 101e 06       		.byte	0x6
 5020 101f 00       		.byte	0
 5021 1020 21       		.uleb128 0x21
 5022 1021 F6030000 		.4byte	.LVL145
 5023 1025 B10B0000 		.4byte	0xbb1
 5024 1029 5B100000 		.4byte	0x105b
 5025 102d 22       		.uleb128 0x22
 5026 102e 01       		.byte	0x1
 5027 102f 53       		.byte	0x53
 5028 1030 02       		.byte	0x2
 5029 1031 91       		.byte	0x91
 5030 1032 56       		.sleb128 -42
 5031 1033 22       		.uleb128 0x22
 5032 1034 01       		.byte	0x1
 5033 1035 52       		.byte	0x52
 5034 1036 02       		.byte	0x2
 5035 1037 79       		.byte	0x79
 5036 1038 00       		.sleb128 0
 5037 1039 22       		.uleb128 0x22
 5038 103a 01       		.byte	0x1
 5039 103b 51       		.byte	0x51
 5040 103c 02       		.byte	0x2
 5041 103d 76       		.byte	0x76
 5042 103e 00       		.sleb128 0
 5043 103f 22       		.uleb128 0x22
 5044 1040 01       		.byte	0x1
 5045 1041 50       		.byte	0x50
 5046 1042 01       		.byte	0x1
 5047 1043 33       		.byte	0x33
 5048 1044 22       		.uleb128 0x22
 5049 1045 02       		.byte	0x2
 5050 1046 7D       		.byte	0x7d
 5051 1047 08       		.sleb128 8
 5052 1048 01       		.byte	0x1
 5053 1049 31       		.byte	0x31
 5054 104a 22       		.uleb128 0x22
 5055 104b 02       		.byte	0x2
 5056 104c 7D       		.byte	0x7d
 5057 104d 04       		.sleb128 4
ARM GAS  C:\Users\jenny\AppData\Local\Temp\ccUygzzS.s 			page 90


 5058 104e 04       		.byte	0x4
 5059 104f 91       		.byte	0x91
 5060 1050 40       		.sleb128 -64
 5061 1051 94       		.byte	0x94
 5062 1052 01       		.byte	0x1
 5063 1053 22       		.uleb128 0x22
 5064 1054 02       		.byte	0x2
 5065 1055 7D       		.byte	0x7d
 5066 1056 00       		.sleb128 0
 5067 1057 02       		.byte	0x2
 5068 1058 75       		.byte	0x75
 5069 1059 00       		.sleb128 0
 5070 105a 00       		.byte	0
 5071 105b 25       		.uleb128 0x25
 5072 105c 08040000 		.4byte	.LVL147
 5073 1060 5A1D0000 		.4byte	0x1d5a
 5074 1064 22       		.uleb128 0x22
 5075 1065 01       		.byte	0x1
 5076 1066 52       		.byte	0x52
 5077 1067 02       		.byte	0x2
 5078 1068 76       		.byte	0x76
 5079 1069 00       		.sleb128 0
 5080 106a 22       		.uleb128 0x22
 5081 106b 01       		.byte	0x1
 5082 106c 51       		.byte	0x51
 5083 106d 07       		.byte	0x7
 5084 106e 91       		.byte	0x91
 5085 106f B87F     		.sleb128 -72
 5086 1071 06       		.byte	0x6
 5087 1072 74       		.byte	0x74
 5088 1073 00       		.sleb128 0
 5089 1074 22       		.byte	0x22
 5090 1075 00       		.byte	0
 5091 1076 00       		.byte	0
 5092 1077 23       		.uleb128 0x23
 5093 1078 E6000000 		.4byte	.LVL64
 5094 107c A51C0000 		.4byte	0x1ca5
 5095 1080 00       		.byte	0
 5096 1081 36       		.uleb128 0x36
 5097 1082 88000000 		.4byte	.Ldebug_ranges0+0x88
 5098 1086 3B120000 		.4byte	0x123b
 5099 108a 30       		.uleb128 0x30
 5100 108b 7000     		.ascii	"p\000"
 5101 108d 01       		.byte	0x1
 5102 108e 0B02     		.2byte	0x20b
 5103 1090 F2010000 		.4byte	0x1f2
 5104 1094 570D0000 		.4byte	.LLST39
 5105 1098 2F       		.uleb128 0x2f
 5106 1099 EF030000 		.4byte	.LASF196
 5107 109d 01       		.byte	0x1
 5108 109e 0C02     		.2byte	0x20c
 5109 10a0 DE000000 		.4byte	0xde
 5110 10a4 CD0D0000 		.4byte	.LLST40
 5111 10a8 2F       		.uleb128 0x2f
 5112 10a9 7B040000 		.4byte	.LASF197
 5113 10ad 01       		.byte	0x1
 5114 10ae 0D02     		.2byte	0x20d
ARM GAS  C:\Users\jenny\AppData\Local\Temp\ccUygzzS.s 			page 91


 5115 10b0 DE000000 		.4byte	0xde
 5116 10b4 250E0000 		.4byte	.LLST41
 5117 10b8 2F       		.uleb128 0x2f
 5118 10b9 57060000 		.4byte	.LASF195
 5119 10bd 01       		.byte	0x1
 5120 10be 0E02     		.2byte	0x20e
 5121 10c0 DE000000 		.4byte	0xde
 5122 10c4 540E0000 		.4byte	.LLST42
 5123 10c8 36       		.uleb128 0x36
 5124 10c9 C0000000 		.4byte	.Ldebug_ranges0+0xc0
 5125 10cd 5F110000 		.4byte	0x115f
 5126 10d1 30       		.uleb128 0x30
 5127 10d2 703200   		.ascii	"p2\000"
 5128 10d5 01       		.byte	0x1
 5129 10d6 2402     		.2byte	0x224
 5130 10d8 F2010000 		.4byte	0x1f2
 5131 10dc 880E0000 		.4byte	.LLST43
 5132 10e0 21       		.uleb128 0x21
 5133 10e1 6C010000 		.4byte	.LVL81
 5134 10e5 831C0000 		.4byte	0x1c83
 5135 10e9 02110000 		.4byte	0x1102
 5136 10ed 22       		.uleb128 0x22
 5137 10ee 01       		.byte	0x1
 5138 10ef 52       		.byte	0x52
 5139 10f0 01       		.byte	0x1
 5140 10f1 31       		.byte	0x31
 5141 10f2 22       		.uleb128 0x22
 5142 10f3 01       		.byte	0x1
 5143 10f4 51       		.byte	0x51
 5144 10f5 02       		.byte	0x2
 5145 10f6 77       		.byte	0x77
 5146 10f7 00       		.sleb128 0
 5147 10f8 22       		.uleb128 0x22
 5148 10f9 01       		.byte	0x1
 5149 10fa 50       		.byte	0x50
 5150 10fb 05       		.byte	0x5
 5151 10fc 91       		.byte	0x91
 5152 10fd B07F     		.sleb128 -80
 5153 10ff 94       		.byte	0x94
 5154 1100 01       		.byte	0x1
 5155 1101 00       		.byte	0
 5156 1102 21       		.uleb128 0x21
 5157 1103 86010000 		.4byte	.LVL83
 5158 1107 831C0000 		.4byte	0x1c83
 5159 110b 2B110000 		.4byte	0x112b
 5160 110f 22       		.uleb128 0x22
 5161 1110 01       		.byte	0x1
 5162 1111 52       		.byte	0x52
 5163 1112 05       		.byte	0x5
 5164 1113 91       		.byte	0x91
 5165 1114 B07F     		.sleb128 -80
 5166 1116 94       		.byte	0x94
 5167 1117 01       		.byte	0x1
 5168 1118 22       		.uleb128 0x22
 5169 1119 01       		.byte	0x1
 5170 111a 51       		.byte	0x51
 5171 111b 05       		.byte	0x5
ARM GAS  C:\Users\jenny\AppData\Local\Temp\ccUygzzS.s 			page 92


 5172 111c 91       		.byte	0x91
 5173 111d B07F     		.sleb128 -80
 5174 111f 94       		.byte	0x94
 5175 1120 02       		.byte	0x2
 5176 1121 22       		.uleb128 0x22
 5177 1122 01       		.byte	0x1
 5178 1123 50       		.byte	0x50
 5179 1124 05       		.byte	0x5
 5180 1125 91       		.byte	0x91
 5181 1126 B07F     		.sleb128 -80
 5182 1128 94       		.byte	0x94
 5183 1129 01       		.byte	0x1
 5184 112a 00       		.byte	0
 5185 112b 21       		.uleb128 0x21
 5186 112c 94010000 		.4byte	.LVL84
 5187 1130 7B1D0000 		.4byte	0x1d7b
 5188 1134 45110000 		.4byte	0x1145
 5189 1138 22       		.uleb128 0x22
 5190 1139 01       		.byte	0x1
 5191 113a 51       		.byte	0x51
 5192 113b 02       		.byte	0x2
 5193 113c 7B       		.byte	0x7b
 5194 113d 00       		.sleb128 0
 5195 113e 22       		.uleb128 0x22
 5196 113f 01       		.byte	0x1
 5197 1140 50       		.byte	0x50
 5198 1141 02       		.byte	0x2
 5199 1142 76       		.byte	0x76
 5200 1143 00       		.sleb128 0
 5201 1144 00       		.byte	0
 5202 1145 23       		.uleb128 0x23
 5203 1146 0E030000 		.4byte	.LVL113
 5204 114a A51C0000 		.4byte	0x1ca5
 5205 114e 25       		.uleb128 0x25
 5206 114f 8E030000 		.4byte	.LVL133
 5207 1153 2A1D0000 		.4byte	0x1d2a
 5208 1157 22       		.uleb128 0x22
 5209 1158 01       		.byte	0x1
 5210 1159 50       		.byte	0x50
 5211 115a 02       		.byte	0x2
 5212 115b 7B       		.byte	0x7b
 5213 115c 00       		.sleb128 0
 5214 115d 00       		.byte	0
 5215 115e 00       		.byte	0
 5216 115f 21       		.uleb128 0x21
 5217 1160 9A010000 		.4byte	.LVL85
 5218 1164 421D0000 		.4byte	0x1d42
 5219 1168 73110000 		.4byte	0x1173
 5220 116c 22       		.uleb128 0x22
 5221 116d 01       		.byte	0x1
 5222 116e 50       		.byte	0x50
 5223 116f 02       		.byte	0x2
 5224 1170 76       		.byte	0x76
 5225 1171 00       		.sleb128 0
 5226 1172 00       		.byte	0
 5227 1173 21       		.uleb128 0x21
 5228 1174 BC010000 		.4byte	.LVL88
ARM GAS  C:\Users\jenny\AppData\Local\Temp\ccUygzzS.s 			page 93


 5229 1178 730C0000 		.4byte	0xc73
 5230 117c A0110000 		.4byte	0x11a0
 5231 1180 22       		.uleb128 0x22
 5232 1181 01       		.byte	0x1
 5233 1182 52       		.byte	0x52
 5234 1183 05       		.byte	0x5
 5235 1184 91       		.byte	0x91
 5236 1185 B07F     		.sleb128 -80
 5237 1187 94       		.byte	0x94
 5238 1188 01       		.byte	0x1
 5239 1189 22       		.uleb128 0x22
 5240 118a 01       		.byte	0x1
 5241 118b 51       		.byte	0x51
 5242 118c 02       		.byte	0x2
 5243 118d 76       		.byte	0x76
 5244 118e 00       		.sleb128 0
 5245 118f 22       		.uleb128 0x22
 5246 1190 01       		.byte	0x1
 5247 1191 50       		.byte	0x50
 5248 1192 02       		.byte	0x2
 5249 1193 79       		.byte	0x79
 5250 1194 00       		.sleb128 0
 5251 1195 22       		.uleb128 0x22
 5252 1196 02       		.byte	0x2
 5253 1197 7D       		.byte	0x7d
 5254 1198 00       		.sleb128 0
 5255 1199 05       		.byte	0x5
 5256 119a 91       		.byte	0x91
 5257 119b B07F     		.sleb128 -80
 5258 119d 94       		.byte	0x94
 5259 119e 01       		.byte	0x1
 5260 119f 00       		.byte	0
 5261 11a0 21       		.uleb128 0x21
 5262 11a1 14020000 		.4byte	.LVL95
 5263 11a5 B10B0000 		.4byte	0xbb1
 5264 11a9 F9110000 		.4byte	0x11f9
 5265 11ad 22       		.uleb128 0x22
 5266 11ae 01       		.byte	0x1
 5267 11af 53       		.byte	0x53
 5268 11b0 02       		.byte	0x2
 5269 11b1 91       		.byte	0x91
 5270 11b2 56       		.sleb128 -42
 5271 11b3 22       		.uleb128 0x22
 5272 11b4 01       		.byte	0x1
 5273 11b5 52       		.byte	0x52
 5274 11b6 05       		.byte	0x5
 5275 11b7 91       		.byte	0x91
 5276 11b8 B47F     		.sleb128 -76
 5277 11ba 94       		.byte	0x94
 5278 11bb 02       		.byte	0x2
 5279 11bc 22       		.uleb128 0x22
 5280 11bd 01       		.byte	0x1
 5281 11be 51       		.byte	0x51
 5282 11bf 02       		.byte	0x2
 5283 11c0 77       		.byte	0x77
 5284 11c1 00       		.sleb128 0
 5285 11c2 22       		.uleb128 0x22
ARM GAS  C:\Users\jenny\AppData\Local\Temp\ccUygzzS.s 			page 94


 5286 11c3 01       		.byte	0x1
 5287 11c4 50       		.byte	0x50
 5288 11c5 05       		.byte	0x5
 5289 11c6 91       		.byte	0x91
 5290 11c7 B07F     		.sleb128 -80
 5291 11c9 94       		.byte	0x94
 5292 11ca 01       		.byte	0x1
 5293 11cb 22       		.uleb128 0x22
 5294 11cc 02       		.byte	0x2
 5295 11cd 7D       		.byte	0x7d
 5296 11ce 08       		.sleb128 8
 5297 11cf 1A       		.byte	0x1a
 5298 11d0 30       		.byte	0x30
 5299 11d1 31       		.byte	0x31
 5300 11d2 91       		.byte	0x91
 5301 11d3 B07F     		.sleb128 -80
 5302 11d5 06       		.byte	0x6
 5303 11d6 1C       		.byte	0x1c
 5304 11d7 31       		.byte	0x31
 5305 11d8 40       		.byte	0x40
 5306 11d9 4B       		.byte	0x4b
 5307 11da 24       		.byte	0x24
 5308 11db 22       		.byte	0x22
 5309 11dc 91       		.byte	0x91
 5310 11dd B07F     		.sleb128 -80
 5311 11df 06       		.byte	0x6
 5312 11e0 40       		.byte	0x40
 5313 11e1 4B       		.byte	0x4b
 5314 11e2 24       		.byte	0x24
 5315 11e3 22       		.byte	0x22
 5316 11e4 2D       		.byte	0x2d
 5317 11e5 28       		.byte	0x28
 5318 11e6 0100     		.2byte	0x1
 5319 11e8 16       		.byte	0x16
 5320 11e9 13       		.byte	0x13
 5321 11ea 22       		.uleb128 0x22
 5322 11eb 02       		.byte	0x2
 5323 11ec 7D       		.byte	0x7d
 5324 11ed 04       		.sleb128 4
 5325 11ee 02       		.byte	0x2
 5326 11ef 76       		.byte	0x76
 5327 11f0 00       		.sleb128 0
 5328 11f1 22       		.uleb128 0x22
 5329 11f2 02       		.byte	0x2
 5330 11f3 7D       		.byte	0x7d
 5331 11f4 00       		.sleb128 0
 5332 11f5 02       		.byte	0x2
 5333 11f6 79       		.byte	0x79
 5334 11f7 00       		.sleb128 0
 5335 11f8 00       		.byte	0
 5336 11f9 21       		.uleb128 0x21
 5337 11fa 30020000 		.4byte	.LVL97
 5338 11fe 5A1D0000 		.4byte	0x1d5a
 5339 1202 18120000 		.4byte	0x1218
 5340 1206 22       		.uleb128 0x22
 5341 1207 01       		.byte	0x1
 5342 1208 52       		.byte	0x52
ARM GAS  C:\Users\jenny\AppData\Local\Temp\ccUygzzS.s 			page 95


 5343 1209 02       		.byte	0x2
 5344 120a 77       		.byte	0x77
 5345 120b 00       		.sleb128 0
 5346 120c 22       		.uleb128 0x22
 5347 120d 01       		.byte	0x1
 5348 120e 51       		.byte	0x51
 5349 120f 07       		.byte	0x7
 5350 1210 91       		.byte	0x91
 5351 1211 B87F     		.sleb128 -72
 5352 1213 06       		.byte	0x6
 5353 1214 74       		.byte	0x74
 5354 1215 00       		.sleb128 0
 5355 1216 22       		.byte	0x22
 5356 1217 00       		.byte	0
 5357 1218 23       		.uleb128 0x23
 5358 1219 2C030000 		.4byte	.LVL121
 5359 121d A51C0000 		.4byte	0x1ca5
 5360 1221 23       		.uleb128 0x23
 5361 1222 34030000 		.4byte	.LVL123
 5362 1226 A51C0000 		.4byte	0x1ca5
 5363 122a 25       		.uleb128 0x25
 5364 122b 84030000 		.4byte	.LVL130
 5365 122f 2A1D0000 		.4byte	0x1d2a
 5366 1233 22       		.uleb128 0x22
 5367 1234 01       		.byte	0x1
 5368 1235 50       		.byte	0x50
 5369 1236 02       		.byte	0x2
 5370 1237 76       		.byte	0x76
 5371 1238 00       		.sleb128 0
 5372 1239 00       		.byte	0
 5373 123a 00       		.byte	0
 5374 123b 36       		.uleb128 0x36
 5375 123c E0000000 		.4byte	.Ldebug_ranges0+0xe0
 5376 1240 6B120000 		.4byte	0x126b
 5377 1244 30       		.uleb128 0x30
 5378 1245 7000     		.ascii	"p\000"
 5379 1247 01       		.byte	0x1
 5380 1248 7302     		.2byte	0x273
 5381 124a F2010000 		.4byte	0x1f2
 5382 124e B10E0000 		.4byte	.LLST44
 5383 1252 25       		.uleb128 0x25
 5384 1253 74020000 		.4byte	.LVL104
 5385 1257 5A1D0000 		.4byte	0x1d5a
 5386 125b 22       		.uleb128 0x22
 5387 125c 01       		.byte	0x1
 5388 125d 52       		.byte	0x52
 5389 125e 02       		.byte	0x2
 5390 125f 77       		.byte	0x77
 5391 1260 00       		.sleb128 0
 5392 1261 22       		.uleb128 0x22
 5393 1262 01       		.byte	0x1
 5394 1263 51       		.byte	0x51
 5395 1264 04       		.byte	0x4
 5396 1265 91       		.byte	0x91
 5397 1266 B87F     		.sleb128 -72
 5398 1268 06       		.byte	0x6
 5399 1269 00       		.byte	0
ARM GAS  C:\Users\jenny\AppData\Local\Temp\ccUygzzS.s 			page 96


 5400 126a 00       		.byte	0
 5401 126b 21       		.uleb128 0x21
 5402 126c AE020000 		.4byte	.LVL108
 5403 1270 7B1D0000 		.4byte	0x1d7b
 5404 1274 80120000 		.4byte	0x1280
 5405 1278 22       		.uleb128 0x22
 5406 1279 01       		.byte	0x1
 5407 127a 51       		.byte	0x51
 5408 127b 03       		.byte	0x3
 5409 127c 91       		.byte	0x91
 5410 127d 44       		.sleb128 -60
 5411 127e 06       		.byte	0x6
 5412 127f 00       		.byte	0
 5413 1280 21       		.uleb128 0x21
 5414 1281 58030000 		.4byte	.LVL126
 5415 1285 2A1D0000 		.4byte	0x1d2a
 5416 1289 95120000 		.4byte	0x1295
 5417 128d 22       		.uleb128 0x22
 5418 128e 01       		.byte	0x1
 5419 128f 50       		.byte	0x50
 5420 1290 03       		.byte	0x3
 5421 1291 91       		.byte	0x91
 5422 1292 44       		.sleb128 -60
 5423 1293 06       		.byte	0x6
 5424 1294 00       		.byte	0
 5425 1295 21       		.uleb128 0x21
 5426 1296 62030000 		.4byte	.LVL127
 5427 129a 941D0000 		.4byte	0x1d94
 5428 129e AB120000 		.4byte	0x12ab
 5429 12a2 22       		.uleb128 0x22
 5430 12a3 01       		.byte	0x1
 5431 12a4 50       		.byte	0x50
 5432 12a5 04       		.byte	0x4
 5433 12a6 91       		.byte	0x91
 5434 12a7 B07F     		.sleb128 -80
 5435 12a9 06       		.byte	0x6
 5436 12aa 00       		.byte	0
 5437 12ab 21       		.uleb128 0x21
 5438 12ac 12040000 		.4byte	.LVL150
 5439 12b0 E51C0000 		.4byte	0x1ce5
 5440 12b4 BE120000 		.4byte	0x12be
 5441 12b8 22       		.uleb128 0x22
 5442 12b9 01       		.byte	0x1
 5443 12ba 50       		.byte	0x50
 5444 12bb 01       		.byte	0x1
 5445 12bc 38       		.byte	0x38
 5446 12bd 00       		.byte	0
 5447 12be 23       		.uleb128 0x23
 5448 12bf 1E040000 		.4byte	.LVL152
 5449 12c3 A51C0000 		.4byte	0x1ca5
 5450 12c7 23       		.uleb128 0x23
 5451 12c8 2E040000 		.4byte	.LVL154
 5452 12cc A51C0000 		.4byte	0x1ca5
 5453 12d0 23       		.uleb128 0x23
 5454 12d1 50040000 		.4byte	.LVL157
 5455 12d5 A51C0000 		.4byte	0x1ca5
 5456 12d9 23       		.uleb128 0x23
ARM GAS  C:\Users\jenny\AppData\Local\Temp\ccUygzzS.s 			page 97


 5457 12da 80040000 		.4byte	.LVL161
 5458 12de A51C0000 		.4byte	0x1ca5
 5459 12e2 23       		.uleb128 0x23
 5460 12e3 86040000 		.4byte	.LVL163
 5461 12e7 A51C0000 		.4byte	0x1ca5
 5462 12eb 00       		.byte	0
 5463 12ec 0B       		.uleb128 0xb
 5464 12ed 04       		.byte	0x4
 5465 12ee F2120000 		.4byte	0x12f2
 5466 12f2 37       		.uleb128 0x37
 5467 12f3 2C       		.uleb128 0x2c
 5468 12f4 01       		.byte	0x1
 5469 12f5 5C080000 		.4byte	.LASF199
 5470 12f9 01       		.byte	0x1
 5471 12fa D202     		.2byte	0x2d2
 5472 12fc 01       		.byte	0x1
 5473 12fd 20010000 		.4byte	0x120
 5474 1301 00000000 		.4byte	.LFB13
 5475 1305 3C010000 		.4byte	.LFE13
 5476 1309 CF0E0000 		.4byte	.LLST45
 5477 130d 01       		.byte	0x1
 5478 130e 07140000 		.4byte	0x1407
 5479 1312 2D       		.uleb128 0x2d
 5480 1313 70636200 		.ascii	"pcb\000"
 5481 1317 01       		.byte	0x1
 5482 1318 D202     		.2byte	0x2d2
 5483 131a BC030000 		.4byte	0x3bc
 5484 131e FB0E0000 		.4byte	.LLST46
 5485 1322 2E       		.uleb128 0x2e
 5486 1323 FD020000 		.4byte	.LASF41
 5487 1327 01       		.byte	0x1
 5488 1328 D202     		.2byte	0x2d2
 5489 132a C8000000 		.4byte	0xc8
 5490 132e 2F0F0000 		.4byte	.LLST47
 5491 1332 30       		.uleb128 0x30
 5492 1333 7000     		.ascii	"p\000"
 5493 1335 01       		.byte	0x1
 5494 1336 D402     		.2byte	0x2d4
 5495 1338 F2010000 		.4byte	0x1f2
 5496 133c 690F0000 		.4byte	.LLST48
 5497 1340 30       		.uleb128 0x30
 5498 1341 73656700 		.ascii	"seg\000"
 5499 1345 01       		.byte	0x1
 5500 1346 D502     		.2byte	0x2d5
 5501 1348 40080000 		.4byte	0x840
 5502 134c A80F0000 		.4byte	.LLST49
 5503 1350 31       		.uleb128 0x31
 5504 1351 AA010000 		.4byte	.LASF183
 5505 1355 01       		.byte	0x1
 5506 1356 D602     		.2byte	0x2d6
 5507 1358 C8000000 		.4byte	0xc8
 5508 135c 00       		.byte	0
 5509 135d 2F       		.uleb128 0x2f
 5510 135e 51070000 		.4byte	.LASF171
 5511 1362 01       		.byte	0x1
 5512 1363 D702     		.2byte	0x2d7
 5513 1365 C8000000 		.4byte	0xc8
ARM GAS  C:\Users\jenny\AppData\Local\Temp\ccUygzzS.s 			page 98


 5514 1369 E70F0000 		.4byte	.LLST50
 5515 136d 38       		.uleb128 0x38
 5516 136e 6C000000 		.4byte	.LBB39
 5517 1372 76000000 		.4byte	.LBE39
 5518 1376 8B130000 		.4byte	0x138b
 5519 137a 2F       		.uleb128 0x2f
 5520 137b 5E000000 		.4byte	.LASF200
 5521 137f 01       		.byte	0x1
 5522 1380 1703     		.2byte	0x317
 5523 1382 40080000 		.4byte	0x840
 5524 1386 34100000 		.4byte	.LLST51
 5525 138a 00       		.byte	0
 5526 138b 21       		.uleb128 0x21
 5527 138c 38000000 		.4byte	.LVL169
 5528 1390 831C0000 		.4byte	0x1c83
 5529 1394 A9130000 		.4byte	0x13a9
 5530 1398 22       		.uleb128 0x22
 5531 1399 01       		.byte	0x1
 5532 139a 52       		.byte	0x52
 5533 139b 01       		.byte	0x1
 5534 139c 30       		.byte	0x30
 5535 139d 22       		.uleb128 0x22
 5536 139e 01       		.byte	0x1
 5537 139f 51       		.byte	0x51
 5538 13a0 02       		.byte	0x2
 5539 13a1 77       		.byte	0x77
 5540 13a2 00       		.sleb128 0
 5541 13a3 22       		.uleb128 0x22
 5542 13a4 01       		.byte	0x1
 5543 13a5 50       		.byte	0x50
 5544 13a6 01       		.byte	0x1
 5545 13a7 30       		.byte	0x30
 5546 13a8 00       		.byte	0
 5547 13a9 21       		.uleb128 0x21
 5548 13aa 54000000 		.4byte	.LVL171
 5549 13ae 730C0000 		.4byte	0xc73
 5550 13b2 D0130000 		.4byte	0x13d0
 5551 13b6 22       		.uleb128 0x22
 5552 13b7 01       		.byte	0x1
 5553 13b8 52       		.byte	0x52
 5554 13b9 02       		.byte	0x2
 5555 13ba 76       		.byte	0x76
 5556 13bb 00       		.sleb128 0
 5557 13bc 22       		.uleb128 0x22
 5558 13bd 01       		.byte	0x1
 5559 13be 51       		.byte	0x51
 5560 13bf 02       		.byte	0x2
 5561 13c0 74       		.byte	0x74
 5562 13c1 00       		.sleb128 0
 5563 13c2 22       		.uleb128 0x22
 5564 13c3 01       		.byte	0x1
 5565 13c4 50       		.byte	0x50
 5566 13c5 02       		.byte	0x2
 5567 13c6 75       		.byte	0x75
 5568 13c7 00       		.sleb128 0
 5569 13c8 22       		.uleb128 0x22
 5570 13c9 02       		.byte	0x2
ARM GAS  C:\Users\jenny\AppData\Local\Temp\ccUygzzS.s 			page 99


 5571 13ca 7D       		.byte	0x7d
 5572 13cb 00       		.sleb128 0
 5573 13cc 02       		.byte	0x2
 5574 13cd 79       		.byte	0x79
 5575 13ce 00       		.sleb128 0
 5576 13cf 00       		.byte	0
 5577 13d0 23       		.uleb128 0x23
 5578 13d1 A8000000 		.4byte	.LVL178
 5579 13d5 421D0000 		.4byte	0x1d42
 5580 13d9 23       		.uleb128 0x23
 5581 13da CC000000 		.4byte	.LVL182
 5582 13de A51C0000 		.4byte	0x1ca5
 5583 13e2 23       		.uleb128 0x23
 5584 13e3 D2000000 		.4byte	.LVL184
 5585 13e7 A51C0000 		.4byte	0x1ca5
 5586 13eb 23       		.uleb128 0x23
 5587 13ec D8000000 		.4byte	.LVL186
 5588 13f0 A51C0000 		.4byte	0x1ca5
 5589 13f4 23       		.uleb128 0x23
 5590 13f5 E6000000 		.4byte	.LVL188
 5591 13f9 A51C0000 		.4byte	0x1ca5
 5592 13fd 23       		.uleb128 0x23
 5593 13fe F2000000 		.4byte	.LVL189
 5594 1402 A51C0000 		.4byte	0x1ca5
 5595 1406 00       		.byte	0
 5596 1407 39       		.uleb128 0x39
 5597 1408 01       		.byte	0x1
 5598 1409 13080000 		.4byte	.LASF201
 5599 140d 01       		.byte	0x1
 5600 140e 7D       		.byte	0x7d
 5601 140f 01       		.byte	0x1
 5602 1410 20010000 		.4byte	0x120
 5603 1414 00000000 		.4byte	.LFB8
 5604 1418 46000000 		.4byte	.LFE8
 5605 141c 47100000 		.4byte	.LLST52
 5606 1420 01       		.byte	0x1
 5607 1421 7C140000 		.4byte	0x147c
 5608 1425 24       		.uleb128 0x24
 5609 1426 70636200 		.ascii	"pcb\000"
 5610 142a 01       		.byte	0x1
 5611 142b 7D       		.byte	0x7d
 5612 142c BC030000 		.4byte	0x3bc
 5613 1430 67100000 		.4byte	.LLST53
 5614 1434 36       		.uleb128 0x36
 5615 1435 F8000000 		.4byte	.Ldebug_ranges0+0xf8
 5616 1439 65140000 		.4byte	0x1465
 5617 143d 20       		.uleb128 0x20
 5618 143e EF080000 		.4byte	.LASF187
 5619 1442 01       		.byte	0x1
 5620 1443 81       		.byte	0x81
 5621 1444 40080000 		.4byte	0x840
 5622 1448 85100000 		.4byte	.LLST54
 5623 144c 23       		.uleb128 0x23
 5624 144d 1A000000 		.4byte	.LVL197
 5625 1451 A91D0000 		.4byte	0x1da9
 5626 1455 25       		.uleb128 0x25
 5627 1456 36000000 		.4byte	.LVL201
ARM GAS  C:\Users\jenny\AppData\Local\Temp\ccUygzzS.s 			page 100


 5628 145a E51C0000 		.4byte	0x1ce5
 5629 145e 22       		.uleb128 0x22
 5630 145f 01       		.byte	0x1
 5631 1460 50       		.byte	0x50
 5632 1461 01       		.byte	0x1
 5633 1462 31       		.byte	0x31
 5634 1463 00       		.byte	0
 5635 1464 00       		.byte	0
 5636 1465 3A       		.uleb128 0x3a
 5637 1466 2C000000 		.4byte	.LVL199
 5638 146a 01       		.byte	0x1
 5639 146b F3120000 		.4byte	0x12f3
 5640 146f 22       		.uleb128 0x22
 5641 1470 01       		.byte	0x1
 5642 1471 51       		.byte	0x51
 5643 1472 01       		.byte	0x1
 5644 1473 31       		.byte	0x31
 5645 1474 22       		.uleb128 0x22
 5646 1475 01       		.byte	0x1
 5647 1476 50       		.byte	0x50
 5648 1477 02       		.byte	0x2
 5649 1478 75       		.byte	0x75
 5650 1479 00       		.sleb128 0
 5651 147a 00       		.byte	0
 5652 147b 00       		.byte	0
 5653 147c 2C       		.uleb128 0x2c
 5654 147d 01       		.byte	0x1
 5655 147e B1070000 		.4byte	.LASF202
 5656 1482 01       		.byte	0x1
 5657 1483 4A03     		.2byte	0x34a
 5658 1485 01       		.byte	0x1
 5659 1486 20010000 		.4byte	0x120
 5660 148a 00000000 		.4byte	.LFB14
 5661 148e 62000000 		.4byte	.LFE14
 5662 1492 A3100000 		.4byte	.LLST55
 5663 1496 01       		.byte	0x1
 5664 1497 54150000 		.4byte	0x1554
 5665 149b 2D       		.uleb128 0x2d
 5666 149c 70636200 		.ascii	"pcb\000"
 5667 14a0 01       		.byte	0x1
 5668 14a1 4A03     		.2byte	0x34a
 5669 14a3 BC030000 		.4byte	0x3bc
 5670 14a7 CF100000 		.4byte	.LLST56
 5671 14ab 30       		.uleb128 0x30
 5672 14ac 7000     		.ascii	"p\000"
 5673 14ae 01       		.byte	0x1
 5674 14af 4C03     		.2byte	0x34c
 5675 14b1 F2010000 		.4byte	0x1f2
 5676 14b5 ED100000 		.4byte	.LLST57
 5677 14b9 2F       		.uleb128 0x2f
 5678 14ba D4020000 		.4byte	.LASF123
 5679 14be 01       		.byte	0x1
 5680 14bf 4D03     		.2byte	0x34d
 5681 14c1 C3080000 		.4byte	0x8c3
 5682 14c5 16110000 		.4byte	.LLST58
 5683 14c9 31       		.uleb128 0x31
 5684 14ca 51070000 		.4byte	.LASF171
ARM GAS  C:\Users\jenny\AppData\Local\Temp\ccUygzzS.s 			page 101


 5685 14ce 01       		.byte	0x1
 5686 14cf 4E03     		.2byte	0x34e
 5687 14d1 C8000000 		.4byte	0xc8
 5688 14d5 00       		.byte	0
 5689 14d6 23       		.uleb128 0x23
 5690 14d7 0C000000 		.4byte	.LVL204
 5691 14db FD1C0000 		.4byte	0x1cfd
 5692 14df 21       		.uleb128 0x21
 5693 14e0 16000000 		.4byte	.LVL205
 5694 14e4 790D0000 		.4byte	0xd79
 5695 14e8 F8140000 		.4byte	0x14f8
 5696 14ec 22       		.uleb128 0x22
 5697 14ed 01       		.byte	0x1
 5698 14ee 51       		.byte	0x51
 5699 14ef 01       		.byte	0x1
 5700 14f0 30       		.byte	0x30
 5701 14f1 22       		.uleb128 0x22
 5702 14f2 01       		.byte	0x1
 5703 14f3 50       		.byte	0x50
 5704 14f4 02       		.byte	0x2
 5705 14f5 74       		.byte	0x74
 5706 14f6 00       		.sleb128 0
 5707 14f7 00       		.byte	0
 5708 14f8 21       		.uleb128 0x21
 5709 14f9 3A000000 		.4byte	.LVL207
 5710 14fd C11D0000 		.4byte	0x1dc1
 5711 1501 1D150000 		.4byte	0x151d
 5712 1505 22       		.uleb128 0x22
 5713 1506 01       		.byte	0x1
 5714 1507 53       		.byte	0x53
 5715 1508 01       		.byte	0x1
 5716 1509 36       		.byte	0x36
 5717 150a 22       		.uleb128 0x22
 5718 150b 01       		.byte	0x1
 5719 150c 52       		.byte	0x52
 5720 150d 02       		.byte	0x2
 5721 150e 76       		.byte	0x76
 5722 150f 00       		.sleb128 0
 5723 1510 22       		.uleb128 0x22
 5724 1511 01       		.byte	0x1
 5725 1512 51       		.byte	0x51
 5726 1513 02       		.byte	0x2
 5727 1514 74       		.byte	0x74
 5728 1515 00       		.sleb128 0
 5729 1516 22       		.uleb128 0x22
 5730 1517 01       		.byte	0x1
 5731 1518 50       		.byte	0x50
 5732 1519 02       		.byte	0x2
 5733 151a 75       		.byte	0x75
 5734 151b 00       		.sleb128 0
 5735 151c 00       		.byte	0
 5736 151d 21       		.uleb128 0x21
 5737 151e 50000000 		.4byte	.LVL208
 5738 1522 ED1D0000 		.4byte	0x1ded
 5739 1526 43150000 		.4byte	0x1543
 5740 152a 22       		.uleb128 0x22
 5741 152b 01       		.byte	0x1
ARM GAS  C:\Users\jenny\AppData\Local\Temp\ccUygzzS.s 			page 102


 5742 152c 52       		.byte	0x52
 5743 152d 02       		.byte	0x2
 5744 152e 76       		.byte	0x76
 5745 152f 00       		.sleb128 0
 5746 1530 22       		.uleb128 0x22
 5747 1531 01       		.byte	0x1
 5748 1532 51       		.byte	0x51
 5749 1533 02       		.byte	0x2
 5750 1534 74       		.byte	0x74
 5751 1535 00       		.sleb128 0
 5752 1536 22       		.uleb128 0x22
 5753 1537 01       		.byte	0x1
 5754 1538 50       		.byte	0x50
 5755 1539 02       		.byte	0x2
 5756 153a 75       		.byte	0x75
 5757 153b 00       		.sleb128 0
 5758 153c 22       		.uleb128 0x22
 5759 153d 02       		.byte	0x2
 5760 153e 7D       		.byte	0x7d
 5761 153f 04       		.sleb128 4
 5762 1540 01       		.byte	0x1
 5763 1541 36       		.byte	0x36
 5764 1542 00       		.byte	0
 5765 1543 25       		.uleb128 0x25
 5766 1544 56000000 		.4byte	.LVL209
 5767 1548 2A1D0000 		.4byte	0x1d2a
 5768 154c 22       		.uleb128 0x22
 5769 154d 01       		.byte	0x1
 5770 154e 50       		.byte	0x50
 5771 154f 02       		.byte	0x2
 5772 1550 75       		.byte	0x75
 5773 1551 00       		.sleb128 0
 5774 1552 00       		.byte	0
 5775 1553 00       		.byte	0
 5776 1554 3B       		.uleb128 0x3b
 5777 1555 34040000 		.4byte	.LASF238
 5778 1559 01       		.byte	0x1
 5779 155a 1904     		.2byte	0x419
 5780 155c 01       		.byte	0x1
 5781 155d 01       		.byte	0x1
 5782 155e AD150000 		.4byte	0x15ad
 5783 1562 2B       		.uleb128 0x2b
 5784 1563 73656700 		.ascii	"seg\000"
 5785 1567 01       		.byte	0x1
 5786 1568 1904     		.2byte	0x419
 5787 156a 40080000 		.4byte	0x840
 5788 156e 2B       		.uleb128 0x2b
 5789 156f 70636200 		.ascii	"pcb\000"
 5790 1573 01       		.byte	0x1
 5791 1574 1904     		.2byte	0x419
 5792 1576 BC030000 		.4byte	0x3bc
 5793 157a 3C       		.uleb128 0x3c
 5794 157b 6C656E00 		.ascii	"len\000"
 5795 157f 01       		.byte	0x1
 5796 1580 1B04     		.2byte	0x41b
 5797 1582 DE000000 		.4byte	0xde
 5798 1586 3D       		.uleb128 0x3d
ARM GAS  C:\Users\jenny\AppData\Local\Temp\ccUygzzS.s 			page 103


 5799 1587 59040000 		.4byte	.LASF46
 5800 158b 01       		.byte	0x1
 5801 158c 1C04     		.2byte	0x41c
 5802 158e 1E020000 		.4byte	0x21e
 5803 1592 3D       		.uleb128 0x3d
 5804 1593 A3050000 		.4byte	.LASF203
 5805 1597 01       		.byte	0x1
 5806 1598 1D04     		.2byte	0x41d
 5807 159a AD150000 		.4byte	0x15ad
 5808 159e 3E       		.uleb128 0x3e
 5809 159f 3C       		.uleb128 0x3c
 5810 15a0 6D737300 		.ascii	"mss\000"
 5811 15a4 01       		.byte	0x1
 5812 15a5 2F04     		.2byte	0x42f
 5813 15a7 DE000000 		.4byte	0xde
 5814 15ab 00       		.byte	0
 5815 15ac 00       		.byte	0
 5816 15ad 0B       		.uleb128 0xb
 5817 15ae 04       		.byte	0x4
 5818 15af F4000000 		.4byte	0xf4
 5819 15b3 2C       		.uleb128 0x2c
 5820 15b4 01       		.byte	0x1
 5821 15b5 D0040000 		.4byte	.LASF204
 5822 15b9 01       		.byte	0x1
 5823 15ba 8203     		.2byte	0x382
 5824 15bc 01       		.byte	0x1
 5825 15bd 20010000 		.4byte	0x120
 5826 15c1 00000000 		.4byte	.LFB15
 5827 15c5 FE020000 		.4byte	.LFE15
 5828 15c9 29110000 		.4byte	.LLST59
 5829 15cd 01       		.byte	0x1
 5830 15ce DD170000 		.4byte	0x17dd
 5831 15d2 2D       		.uleb128 0x2d
 5832 15d3 70636200 		.ascii	"pcb\000"
 5833 15d7 01       		.byte	0x1
 5834 15d8 8203     		.2byte	0x382
 5835 15da BC030000 		.4byte	0x3bc
 5836 15de 55110000 		.4byte	.LLST60
 5837 15e2 30       		.uleb128 0x30
 5838 15e3 73656700 		.ascii	"seg\000"
 5839 15e7 01       		.byte	0x1
 5840 15e8 8403     		.2byte	0x384
 5841 15ea 40080000 		.4byte	0x840
 5842 15ee 89110000 		.4byte	.LLST61
 5843 15f2 2F       		.uleb128 0x2f
 5844 15f3 5E000000 		.4byte	.LASF200
 5845 15f7 01       		.byte	0x1
 5846 15f8 8403     		.2byte	0x384
 5847 15fa 40080000 		.4byte	0x840
 5848 15fe A7110000 		.4byte	.LLST62
 5849 1602 30       		.uleb128 0x30
 5850 1603 776E6400 		.ascii	"wnd\000"
 5851 1607 01       		.byte	0x1
 5852 1608 8503     		.2byte	0x385
 5853 160a F4000000 		.4byte	0xf4
 5854 160e FF110000 		.4byte	.LLST63
 5855 1612 2F       		.uleb128 0x2f
ARM GAS  C:\Users\jenny\AppData\Local\Temp\ccUygzzS.s 			page 104


 5856 1613 F5040000 		.4byte	.LASF83
 5857 1617 01       		.byte	0x1
 5858 1618 8503     		.2byte	0x385
 5859 161a F4000000 		.4byte	0xf4
 5860 161e 41120000 		.4byte	.LLST64
 5861 1622 35       		.uleb128 0x35
 5862 1623 54150000 		.4byte	0x1554
 5863 1627 50000000 		.4byte	.LBB46
 5864 162b 10010000 		.4byte	.Ldebug_ranges0+0x110
 5865 162f 01       		.byte	0x1
 5866 1630 E103     		.2byte	0x3e1
 5867 1632 16170000 		.4byte	0x1716
 5868 1636 27       		.uleb128 0x27
 5869 1637 6E150000 		.4byte	0x156e
 5870 163b 54120000 		.4byte	.LLST65
 5871 163f 27       		.uleb128 0x27
 5872 1640 62150000 		.4byte	0x1562
 5873 1644 7D120000 		.4byte	.LLST66
 5874 1648 3F       		.uleb128 0x3f
 5875 1649 30010000 		.4byte	.Ldebug_ranges0+0x130
 5876 164d 28       		.uleb128 0x28
 5877 164e 7A150000 		.4byte	0x157a
 5878 1652 B3120000 		.4byte	.LLST67
 5879 1656 28       		.uleb128 0x28
 5880 1657 86150000 		.4byte	0x1586
 5881 165b E2120000 		.4byte	.LLST68
 5882 165f 28       		.uleb128 0x28
 5883 1660 92150000 		.4byte	0x1592
 5884 1664 F5120000 		.4byte	.LLST69
 5885 1668 36       		.uleb128 0x36
 5886 1669 58010000 		.4byte	.Ldebug_ranges0+0x158
 5887 166d 9F160000 		.4byte	0x169f
 5888 1671 28       		.uleb128 0x28
 5889 1672 9F150000 		.4byte	0x159f
 5890 1676 24130000 		.4byte	.LLST70
 5891 167a 21       		.uleb128 0x21
 5892 167b 08020000 		.4byte	.LVL245
 5893 167f 1E1E0000 		.4byte	0x1e1e
 5894 1683 95160000 		.4byte	0x1695
 5895 1687 22       		.uleb128 0x22
 5896 1688 01       		.byte	0x1
 5897 1689 51       		.byte	0x51
 5898 168a 02       		.byte	0x2
 5899 168b 78       		.byte	0x78
 5900 168c 00       		.sleb128 0
 5901 168d 22       		.uleb128 0x22
 5902 168e 01       		.byte	0x1
 5903 168f 50       		.byte	0x50
 5904 1690 03       		.byte	0x3
 5905 1691 0A       		.byte	0xa
 5906 1692 1802     		.2byte	0x218
 5907 1694 00       		.byte	0
 5908 1695 23       		.uleb128 0x23
 5909 1696 10020000 		.4byte	.LVL247
 5910 169a FD1C0000 		.4byte	0x1cfd
 5911 169e 00       		.byte	0
 5912 169f 23       		.uleb128 0x23
ARM GAS  C:\Users\jenny\AppData\Local\Temp\ccUygzzS.s 			page 105


 5913 16a0 AA000000 		.4byte	.LVL220
 5914 16a4 FD1C0000 		.4byte	0x1cfd
 5915 16a8 23       		.uleb128 0x23
 5916 16a9 B8000000 		.4byte	.LVL221
 5917 16ad E51C0000 		.4byte	0x1ce5
 5918 16b1 21       		.uleb128 0x21
 5919 16b2 E4000000 		.4byte	.LVL224
 5920 16b6 3C1E0000 		.4byte	0x1e3c
 5921 16ba C5160000 		.4byte	0x16c5
 5922 16be 22       		.uleb128 0x22
 5923 16bf 01       		.byte	0x1
 5924 16c0 50       		.byte	0x50
 5925 16c1 02       		.byte	0x2
 5926 16c2 78       		.byte	0x78
 5927 16c3 00       		.sleb128 0
 5928 16c4 00       		.byte	0
 5929 16c5 21       		.uleb128 0x21
 5930 16c6 32010000 		.4byte	.LVL229
 5931 16ca C11D0000 		.4byte	0x1dc1
 5932 16ce EB160000 		.4byte	0x16eb
 5933 16d2 22       		.uleb128 0x22
 5934 16d3 01       		.byte	0x1
 5935 16d4 53       		.byte	0x53
 5936 16d5 01       		.byte	0x1
 5937 16d6 36       		.byte	0x36
 5938 16d7 22       		.uleb128 0x22
 5939 16d8 01       		.byte	0x1
 5940 16d9 52       		.byte	0x52
 5941 16da 02       		.byte	0x2
 5942 16db 78       		.byte	0x78
 5943 16dc 00       		.sleb128 0
 5944 16dd 22       		.uleb128 0x22
 5945 16de 01       		.byte	0x1
 5946 16df 51       		.byte	0x51
 5947 16e0 02       		.byte	0x2
 5948 16e1 74       		.byte	0x74
 5949 16e2 00       		.sleb128 0
 5950 16e3 22       		.uleb128 0x22
 5951 16e4 02       		.byte	0x2
 5952 16e5 7D       		.byte	0x7d
 5953 16e6 00       		.sleb128 0
 5954 16e7 02       		.byte	0x2
 5955 16e8 7A       		.byte	0x7a
 5956 16e9 00       		.sleb128 0
 5957 16ea 00       		.byte	0
 5958 16eb 21       		.uleb128 0x21
 5959 16ec 54010000 		.4byte	.LVL230
 5960 16f0 ED1D0000 		.4byte	0x1ded
 5961 16f4 0B170000 		.4byte	0x170b
 5962 16f8 22       		.uleb128 0x22
 5963 16f9 01       		.byte	0x1
 5964 16fa 52       		.byte	0x52
 5965 16fb 02       		.byte	0x2
 5966 16fc 78       		.byte	0x78
 5967 16fd 00       		.sleb128 0
 5968 16fe 22       		.uleb128 0x22
 5969 16ff 01       		.byte	0x1
ARM GAS  C:\Users\jenny\AppData\Local\Temp\ccUygzzS.s 			page 106


 5970 1700 51       		.byte	0x51
 5971 1701 02       		.byte	0x2
 5972 1702 74       		.byte	0x74
 5973 1703 00       		.sleb128 0
 5974 1704 22       		.uleb128 0x22
 5975 1705 02       		.byte	0x2
 5976 1706 7D       		.byte	0x7d
 5977 1707 04       		.sleb128 4
 5978 1708 01       		.byte	0x1
 5979 1709 36       		.byte	0x36
 5980 170a 00       		.byte	0
 5981 170b 23       		.uleb128 0x23
 5982 170c 2A020000 		.4byte	.LVL250
 5983 1710 541E0000 		.4byte	0x1e54
 5984 1714 00       		.byte	0
 5985 1715 00       		.byte	0
 5986 1716 38       		.uleb128 0x38
 5987 1717 4E020000 		.4byte	.LBB55
 5988 171b 88020000 		.4byte	.LBE55
 5989 171f 46170000 		.4byte	0x1746
 5990 1723 2F       		.uleb128 0x2f
 5991 1724 3A050000 		.4byte	.LASF205
 5992 1728 01       		.byte	0x1
 5993 1729 F403     		.2byte	0x3f4
 5994 172b DD170000 		.4byte	0x17dd
 5995 172f 37130000 		.4byte	.LLST71
 5996 1733 23       		.uleb128 0x23
 5997 1734 6A020000 		.4byte	.LVL259
 5998 1738 541E0000 		.4byte	0x1e54
 5999 173c 23       		.uleb128 0x23
 6000 173d 74020000 		.4byte	.LVL260
 6001 1741 541E0000 		.4byte	0x1e54
 6002 1745 00       		.byte	0
 6003 1746 21       		.uleb128 0x21
 6004 1747 90000000 		.4byte	.LVL218
 6005 174b E51C0000 		.4byte	0x1ce5
 6006 174f 59170000 		.4byte	0x1759
 6007 1753 22       		.uleb128 0x22
 6008 1754 01       		.byte	0x1
 6009 1755 50       		.byte	0x50
 6010 1756 01       		.byte	0x1
 6011 1757 40       		.byte	0x40
 6012 1758 00       		.byte	0
 6013 1759 23       		.uleb128 0x23
 6014 175a 5C010000 		.4byte	.LVL231
 6015 175e 541E0000 		.4byte	0x1e54
 6016 1762 23       		.uleb128 0x23
 6017 1763 6A010000 		.4byte	.LVL232
 6018 1767 A91D0000 		.4byte	0x1da9
 6019 176b 23       		.uleb128 0x23
 6020 176c 90010000 		.4byte	.LVL234
 6021 1770 A91D0000 		.4byte	0x1da9
 6022 1774 23       		.uleb128 0x23
 6023 1775 B0010000 		.4byte	.LVL235
 6024 1779 541E0000 		.4byte	0x1e54
 6025 177d 23       		.uleb128 0x23
 6026 177e BA010000 		.4byte	.LVL236
ARM GAS  C:\Users\jenny\AppData\Local\Temp\ccUygzzS.s 			page 107


 6027 1782 541E0000 		.4byte	0x1e54
 6028 1786 23       		.uleb128 0x23
 6029 1787 D4010000 		.4byte	.LVL241
 6030 178b 541E0000 		.4byte	0x1e54
 6031 178f 23       		.uleb128 0x23
 6032 1790 EC010000 		.4byte	.LVL242
 6033 1794 A91D0000 		.4byte	0x1da9
 6034 1798 23       		.uleb128 0x23
 6035 1799 FC010000 		.4byte	.LVL243
 6036 179d A51C0000 		.4byte	0x1ca5
 6037 17a1 21       		.uleb128 0x21
 6038 17a2 8E020000 		.4byte	.LVL262
 6039 17a6 151D0000 		.4byte	0x1d15
 6040 17aa B5170000 		.4byte	0x17b5
 6041 17ae 22       		.uleb128 0x22
 6042 17af 01       		.byte	0x1
 6043 17b0 50       		.byte	0x50
 6044 17b1 02       		.byte	0x2
 6045 17b2 75       		.byte	0x75
 6046 17b3 00       		.sleb128 0
 6047 17b4 00       		.byte	0
 6048 17b5 23       		.uleb128 0x23
 6049 17b6 D6020000 		.4byte	.LVL265
 6050 17ba 541E0000 		.4byte	0x1e54
 6051 17be 40       		.uleb128 0x40
 6052 17bf F2020000 		.4byte	.LVL266
 6053 17c3 01       		.byte	0x1
 6054 17c4 7C140000 		.4byte	0x147c
 6055 17c8 D3170000 		.4byte	0x17d3
 6056 17cc 22       		.uleb128 0x22
 6057 17cd 01       		.byte	0x1
 6058 17ce 50       		.byte	0x50
 6059 17cf 02       		.byte	0x2
 6060 17d0 74       		.byte	0x74
 6061 17d1 00       		.sleb128 0
 6062 17d2 00       		.byte	0
 6063 17d3 23       		.uleb128 0x23
 6064 17d4 FC020000 		.4byte	.LVL268
 6065 17d8 A51C0000 		.4byte	0x1ca5
 6066 17dc 00       		.byte	0
 6067 17dd 0B       		.uleb128 0xb
 6068 17de 04       		.byte	0x4
 6069 17df 40080000 		.4byte	0x840
 6070 17e3 41       		.uleb128 0x41
 6071 17e4 01       		.byte	0x1
 6072 17e5 61020000 		.4byte	.LASF206
 6073 17e9 01       		.byte	0x1
 6074 17ea AB04     		.2byte	0x4ab
 6075 17ec 01       		.byte	0x1
 6076 17ed 00000000 		.4byte	.LFB17
 6077 17f1 B8000000 		.4byte	.LFE17
 6078 17f5 4A130000 		.4byte	.LLST72
 6079 17f9 01       		.byte	0x1
 6080 17fa 68190000 		.4byte	0x1968
 6081 17fe 2E       		.uleb128 0x2e
 6082 17ff 42050000 		.4byte	.LASF126
 6083 1803 01       		.byte	0x1
ARM GAS  C:\Users\jenny\AppData\Local\Temp\ccUygzzS.s 			page 108


 6084 1804 AB04     		.2byte	0x4ab
 6085 1806 F4000000 		.4byte	0xf4
 6086 180a 76130000 		.4byte	.LLST73
 6087 180e 2E       		.uleb128 0x2e
 6088 180f 0D080000 		.4byte	.LASF127
 6089 1813 01       		.byte	0x1
 6090 1814 AB04     		.2byte	0x4ab
 6091 1816 F4000000 		.4byte	0xf4
 6092 181a 94130000 		.4byte	.LLST74
 6093 181e 2E       		.uleb128 0x2e
 6094 181f 43020000 		.4byte	.LASF60
 6095 1823 01       		.byte	0x1
 6096 1824 AC04     		.2byte	0x4ac
 6097 1826 45030000 		.4byte	0x345
 6098 182a CB130000 		.4byte	.LLST75
 6099 182e 2E       		.uleb128 0x2e
 6100 182f EC070000 		.4byte	.LASF61
 6101 1833 01       		.byte	0x1
 6102 1834 AC04     		.2byte	0x4ac
 6103 1836 45030000 		.4byte	0x345
 6104 183a E9130000 		.4byte	.LLST76
 6105 183e 42       		.uleb128 0x42
 6106 183f F2020000 		.4byte	.LASF66
 6107 1843 01       		.byte	0x1
 6108 1844 AD04     		.2byte	0x4ad
 6109 1846 DE000000 		.4byte	0xde
 6110 184a 02       		.byte	0x2
 6111 184b 91       		.byte	0x91
 6112 184c 00       		.sleb128 0
 6113 184d 42       		.uleb128 0x42
 6114 184e FA060000 		.4byte	.LASF67
 6115 1852 01       		.byte	0x1
 6116 1853 AD04     		.2byte	0x4ad
 6117 1855 DE000000 		.4byte	0xde
 6118 1859 02       		.byte	0x2
 6119 185a 91       		.byte	0x91
 6120 185b 04       		.sleb128 4
 6121 185c 30       		.uleb128 0x30
 6122 185d 7000     		.ascii	"p\000"
 6123 185f 01       		.byte	0x1
 6124 1860 AF04     		.2byte	0x4af
 6125 1862 F2010000 		.4byte	0x1f2
 6126 1866 07140000 		.4byte	.LLST77
 6127 186a 2F       		.uleb128 0x2f
 6128 186b D4020000 		.4byte	.LASF123
 6129 186f 01       		.byte	0x1
 6130 1870 B004     		.2byte	0x4b0
 6131 1872 C3080000 		.4byte	0x8c3
 6132 1876 46140000 		.4byte	.LLST78
 6133 187a 21       		.uleb128 0x21
 6134 187b 20000000 		.4byte	.LVL273
 6135 187f 831C0000 		.4byte	0x1c83
 6136 1883 97180000 		.4byte	0x1897
 6137 1887 22       		.uleb128 0x22
 6138 1888 01       		.byte	0x1
 6139 1889 52       		.byte	0x52
 6140 188a 01       		.byte	0x1
ARM GAS  C:\Users\jenny\AppData\Local\Temp\ccUygzzS.s 			page 109


 6141 188b 30       		.byte	0x30
 6142 188c 22       		.uleb128 0x22
 6143 188d 01       		.byte	0x1
 6144 188e 51       		.byte	0x51
 6145 188f 01       		.byte	0x1
 6146 1890 44       		.byte	0x44
 6147 1891 22       		.uleb128 0x22
 6148 1892 01       		.byte	0x1
 6149 1893 50       		.byte	0x50
 6150 1894 01       		.byte	0x1
 6151 1895 31       		.byte	0x31
 6152 1896 00       		.byte	0
 6153 1897 21       		.uleb128 0x21
 6154 1898 34000000 		.4byte	.LVL276
 6155 189c E51C0000 		.4byte	0x1ce5
 6156 18a0 AD180000 		.4byte	0x18ad
 6157 18a4 22       		.uleb128 0x22
 6158 18a5 01       		.byte	0x1
 6159 18a6 50       		.byte	0x50
 6160 18a7 04       		.byte	0x4
 6161 18a8 91       		.byte	0x91
 6162 18a9 00       		.sleb128 0
 6163 18aa 94       		.byte	0x94
 6164 18ab 02       		.byte	0x2
 6165 18ac 00       		.byte	0
 6166 18ad 21       		.uleb128 0x21
 6167 18ae 3C000000 		.4byte	.LVL277
 6168 18b2 E51C0000 		.4byte	0x1ce5
 6169 18b6 C1180000 		.4byte	0x18c1
 6170 18ba 22       		.uleb128 0x22
 6171 18bb 01       		.byte	0x1
 6172 18bc 50       		.byte	0x50
 6173 18bd 02       		.byte	0x2
 6174 18be 7A       		.byte	0x7a
 6175 18bf 00       		.sleb128 0
 6176 18c0 00       		.byte	0
 6177 18c1 21       		.uleb128 0x21
 6178 18c2 44000000 		.4byte	.LVL278
 6179 18c6 FD1C0000 		.4byte	0x1cfd
 6180 18ca D5180000 		.4byte	0x18d5
 6181 18ce 22       		.uleb128 0x22
 6182 18cf 01       		.byte	0x1
 6183 18d0 50       		.byte	0x50
 6184 18d1 02       		.byte	0x2
 6185 18d2 79       		.byte	0x79
 6186 18d3 00       		.sleb128 0
 6187 18d4 00       		.byte	0
 6188 18d5 21       		.uleb128 0x21
 6189 18d6 4C000000 		.4byte	.LVL279
 6190 18da FD1C0000 		.4byte	0x1cfd
 6191 18de E9180000 		.4byte	0x18e9
 6192 18e2 22       		.uleb128 0x22
 6193 18e3 01       		.byte	0x1
 6194 18e4 50       		.byte	0x50
 6195 18e5 02       		.byte	0x2
 6196 18e6 76       		.byte	0x76
 6197 18e7 00       		.sleb128 0
ARM GAS  C:\Users\jenny\AppData\Local\Temp\ccUygzzS.s 			page 110


 6198 18e8 00       		.byte	0
 6199 18e9 21       		.uleb128 0x21
 6200 18ea 56000000 		.4byte	.LVL280
 6201 18ee E51C0000 		.4byte	0x1ce5
 6202 18f2 FE180000 		.4byte	0x18fe
 6203 18f6 22       		.uleb128 0x22
 6204 18f7 01       		.byte	0x1
 6205 18f8 50       		.byte	0x50
 6206 18f9 03       		.byte	0x3
 6207 18fa 0A       		.byte	0xa
 6208 18fb 1450     		.2byte	0x5014
 6209 18fd 00       		.byte	0
 6210 18fe 21       		.uleb128 0x21
 6211 18ff 7A000000 		.4byte	.LVL282
 6212 1903 C11D0000 		.4byte	0x1dc1
 6213 1907 23190000 		.4byte	0x1923
 6214 190b 22       		.uleb128 0x22
 6215 190c 01       		.byte	0x1
 6216 190d 53       		.byte	0x53
 6217 190e 01       		.byte	0x1
 6218 190f 36       		.byte	0x36
 6219 1910 22       		.uleb128 0x22
 6220 1911 01       		.byte	0x1
 6221 1912 52       		.byte	0x52
 6222 1913 02       		.byte	0x2
 6223 1914 77       		.byte	0x77
 6224 1915 00       		.sleb128 0
 6225 1916 22       		.uleb128 0x22
 6226 1917 01       		.byte	0x1
 6227 1918 51       		.byte	0x51
 6228 1919 02       		.byte	0x2
 6229 191a 78       		.byte	0x78
 6230 191b 00       		.sleb128 0
 6231 191c 22       		.uleb128 0x22
 6232 191d 01       		.byte	0x1
 6233 191e 50       		.byte	0x50
 6234 191f 02       		.byte	0x2
 6235 1920 75       		.byte	0x75
 6236 1921 00       		.sleb128 0
 6237 1922 00       		.byte	0
 6238 1923 21       		.uleb128 0x21
 6239 1924 9C000000 		.4byte	.LVL284
 6240 1928 ED1D0000 		.4byte	0x1ded
 6241 192c 49190000 		.4byte	0x1949
 6242 1930 22       		.uleb128 0x22
 6243 1931 01       		.byte	0x1
 6244 1932 53       		.byte	0x53
 6245 1933 02       		.byte	0x2
 6246 1934 09       		.byte	0x9
 6247 1935 FF       		.byte	0xff
 6248 1936 22       		.uleb128 0x22
 6249 1937 01       		.byte	0x1
 6250 1938 52       		.byte	0x52
 6251 1939 02       		.byte	0x2
 6252 193a 77       		.byte	0x77
 6253 193b 00       		.sleb128 0
 6254 193c 22       		.uleb128 0x22
ARM GAS  C:\Users\jenny\AppData\Local\Temp\ccUygzzS.s 			page 111


 6255 193d 01       		.byte	0x1
 6256 193e 51       		.byte	0x51
 6257 193f 02       		.byte	0x2
 6258 1940 78       		.byte	0x78
 6259 1941 00       		.sleb128 0
 6260 1942 22       		.uleb128 0x22
 6261 1943 01       		.byte	0x1
 6262 1944 50       		.byte	0x50
 6263 1945 02       		.byte	0x2
 6264 1946 75       		.byte	0x75
 6265 1947 00       		.sleb128 0
 6266 1948 00       		.byte	0
 6267 1949 40       		.uleb128 0x40
 6268 194a A8000000 		.4byte	.LVL285
 6269 194e 01       		.byte	0x1
 6270 194f 2A1D0000 		.4byte	0x1d2a
 6271 1953 5E190000 		.4byte	0x195e
 6272 1957 22       		.uleb128 0x22
 6273 1958 01       		.byte	0x1
 6274 1959 50       		.byte	0x50
 6275 195a 02       		.byte	0x2
 6276 195b 75       		.byte	0x75
 6277 195c 00       		.sleb128 0
 6278 195d 00       		.byte	0
 6279 195e 23       		.uleb128 0x23
 6280 195f AC000000 		.4byte	.LVL286
 6281 1963 A51C0000 		.4byte	0x1ca5
 6282 1967 00       		.byte	0
 6283 1968 41       		.uleb128 0x41
 6284 1969 01       		.byte	0x1
 6285 196a 6C040000 		.4byte	.LASF207
 6286 196e 01       		.byte	0x1
 6287 196f D704     		.2byte	0x4d7
 6288 1971 01       		.byte	0x1
 6289 1972 00000000 		.4byte	.LFB18
 6290 1976 30000000 		.4byte	.LFE18
 6291 197a 59140000 		.4byte	.LLST79
 6292 197e 01       		.byte	0x1
 6293 197f B6190000 		.4byte	0x19b6
 6294 1983 2D       		.uleb128 0x2d
 6295 1984 70636200 		.ascii	"pcb\000"
 6296 1988 01       		.byte	0x1
 6297 1989 D704     		.2byte	0x4d7
 6298 198b BC030000 		.4byte	0x3bc
 6299 198f 79140000 		.4byte	.LLST80
 6300 1993 30       		.uleb128 0x30
 6301 1994 73656700 		.ascii	"seg\000"
 6302 1998 01       		.byte	0x1
 6303 1999 D904     		.2byte	0x4d9
 6304 199b 40080000 		.4byte	0x840
 6305 199f A5140000 		.4byte	.LLST81
 6306 19a3 3A       		.uleb128 0x3a
 6307 19a4 2C000000 		.4byte	.LVL292
 6308 19a8 01       		.byte	0x1
 6309 19a9 B3150000 		.4byte	0x15b3
 6310 19ad 22       		.uleb128 0x22
 6311 19ae 01       		.byte	0x1
ARM GAS  C:\Users\jenny\AppData\Local\Temp\ccUygzzS.s 			page 112


 6312 19af 50       		.byte	0x50
 6313 19b0 03       		.byte	0x3
 6314 19b1 F3       		.byte	0xf3
 6315 19b2 01       		.uleb128 0x1
 6316 19b3 50       		.byte	0x50
 6317 19b4 00       		.byte	0
 6318 19b5 00       		.byte	0
 6319 19b6 41       		.uleb128 0x41
 6320 19b7 01       		.byte	0x1
 6321 19b8 80010000 		.4byte	.LASF208
 6322 19bc 01       		.byte	0x1
 6323 19bd FB04     		.2byte	0x4fb
 6324 19bf 01       		.byte	0x1
 6325 19c0 00000000 		.4byte	.LFB19
 6326 19c4 54000000 		.4byte	.LFE19
 6327 19c8 B8140000 		.4byte	.LLST82
 6328 19cc 01       		.byte	0x1
 6329 19cd 141A0000 		.4byte	0x1a14
 6330 19d1 2D       		.uleb128 0x2d
 6331 19d2 70636200 		.ascii	"pcb\000"
 6332 19d6 01       		.byte	0x1
 6333 19d7 FB04     		.2byte	0x4fb
 6334 19d9 BC030000 		.4byte	0x3bc
 6335 19dd D8140000 		.4byte	.LLST83
 6336 19e1 30       		.uleb128 0x30
 6337 19e2 73656700 		.ascii	"seg\000"
 6338 19e6 01       		.byte	0x1
 6339 19e7 FD04     		.2byte	0x4fd
 6340 19e9 40080000 		.4byte	0x840
 6341 19ed F6140000 		.4byte	.LLST84
 6342 19f1 2F       		.uleb128 0x2f
 6343 19f2 3A050000 		.4byte	.LASF205
 6344 19f6 01       		.byte	0x1
 6345 19f7 FE04     		.2byte	0x4fe
 6346 19f9 DD170000 		.4byte	0x17dd
 6347 19fd 14150000 		.4byte	.LLST85
 6348 1a01 23       		.uleb128 0x23
 6349 1a02 24000000 		.4byte	.LVL298
 6350 1a06 541E0000 		.4byte	0x1e54
 6351 1a0a 23       		.uleb128 0x23
 6352 1a0b 2E000000 		.4byte	.LVL299
 6353 1a0f 541E0000 		.4byte	0x1e54
 6354 1a13 00       		.byte	0
 6355 1a14 41       		.uleb128 0x41
 6356 1a15 01       		.byte	0x1
 6357 1a16 83080000 		.4byte	.LASF209
 6358 1a1a 01       		.byte	0x1
 6359 1a1b 2905     		.2byte	0x529
 6360 1a1d 01       		.byte	0x1
 6361 1a1e 00000000 		.4byte	.LFB20
 6362 1a22 54000000 		.4byte	.LFE20
 6363 1a26 32150000 		.4byte	.LLST86
 6364 1a2a 01       		.byte	0x1
 6365 1a2b 491A0000 		.4byte	0x1a49
 6366 1a2f 2D       		.uleb128 0x2d
 6367 1a30 70636200 		.ascii	"pcb\000"
 6368 1a34 01       		.byte	0x1
ARM GAS  C:\Users\jenny\AppData\Local\Temp\ccUygzzS.s 			page 113


 6369 1a35 2905     		.2byte	0x529
 6370 1a37 BC030000 		.4byte	0x3bc
 6371 1a3b 52150000 		.4byte	.LLST87
 6372 1a3f 23       		.uleb128 0x23
 6373 1a40 18000000 		.4byte	.LVL303
 6374 1a44 B6190000 		.4byte	0x19b6
 6375 1a48 00       		.byte	0
 6376 1a49 41       		.uleb128 0x41
 6377 1a4a 01       		.byte	0x1
 6378 1a4b 6A010000 		.4byte	.LASF210
 6379 1a4f 01       		.byte	0x1
 6380 1a50 5405     		.2byte	0x554
 6381 1a52 01       		.byte	0x1
 6382 1a53 00000000 		.4byte	.LFB21
 6383 1a57 68000000 		.4byte	.LFE21
 6384 1a5b 70150000 		.4byte	.LLST88
 6385 1a5f 01       		.byte	0x1
 6386 1a60 171B0000 		.4byte	0x1b17
 6387 1a64 2D       		.uleb128 0x2d
 6388 1a65 70636200 		.ascii	"pcb\000"
 6389 1a69 01       		.byte	0x1
 6390 1a6a 5405     		.2byte	0x554
 6391 1a6c BC030000 		.4byte	0x3bc
 6392 1a70 9C150000 		.4byte	.LLST89
 6393 1a74 30       		.uleb128 0x30
 6394 1a75 7000     		.ascii	"p\000"
 6395 1a77 01       		.byte	0x1
 6396 1a78 5605     		.2byte	0x556
 6397 1a7a F2010000 		.4byte	0x1f2
 6398 1a7e BA150000 		.4byte	.LLST90
 6399 1a82 2F       		.uleb128 0x2f
 6400 1a83 D4020000 		.4byte	.LASF123
 6401 1a87 01       		.byte	0x1
 6402 1a88 5705     		.2byte	0x557
 6403 1a8a C3080000 		.4byte	0x8c3
 6404 1a8e E3150000 		.4byte	.LLST91
 6405 1a92 23       		.uleb128 0x23
 6406 1a93 0E000000 		.4byte	.LVL306
 6407 1a97 FD1C0000 		.4byte	0x1cfd
 6408 1a9b 21       		.uleb128 0x21
 6409 1a9c 18000000 		.4byte	.LVL307
 6410 1aa0 790D0000 		.4byte	0xd79
 6411 1aa4 B41A0000 		.4byte	0x1ab4
 6412 1aa8 22       		.uleb128 0x22
 6413 1aa9 01       		.byte	0x1
 6414 1aaa 51       		.byte	0x51
 6415 1aab 01       		.byte	0x1
 6416 1aac 30       		.byte	0x30
 6417 1aad 22       		.uleb128 0x22
 6418 1aae 01       		.byte	0x1
 6419 1aaf 50       		.byte	0x50
 6420 1ab0 02       		.byte	0x2
 6421 1ab1 74       		.byte	0x74
 6422 1ab2 00       		.sleb128 0
 6423 1ab3 00       		.byte	0
 6424 1ab4 21       		.uleb128 0x21
 6425 1ab5 2E000000 		.4byte	.LVL309
ARM GAS  C:\Users\jenny\AppData\Local\Temp\ccUygzzS.s 			page 114


 6426 1ab9 C11D0000 		.4byte	0x1dc1
 6427 1abd D91A0000 		.4byte	0x1ad9
 6428 1ac1 22       		.uleb128 0x22
 6429 1ac2 01       		.byte	0x1
 6430 1ac3 53       		.byte	0x53
 6431 1ac4 01       		.byte	0x1
 6432 1ac5 36       		.byte	0x36
 6433 1ac6 22       		.uleb128 0x22
 6434 1ac7 01       		.byte	0x1
 6435 1ac8 52       		.byte	0x52
 6436 1ac9 02       		.byte	0x2
 6437 1aca 76       		.byte	0x76
 6438 1acb 00       		.sleb128 0
 6439 1acc 22       		.uleb128 0x22
 6440 1acd 01       		.byte	0x1
 6441 1ace 51       		.byte	0x51
 6442 1acf 02       		.byte	0x2
 6443 1ad0 74       		.byte	0x74
 6444 1ad1 00       		.sleb128 0
 6445 1ad2 22       		.uleb128 0x22
 6446 1ad3 01       		.byte	0x1
 6447 1ad4 50       		.byte	0x50
 6448 1ad5 02       		.byte	0x2
 6449 1ad6 75       		.byte	0x75
 6450 1ad7 00       		.sleb128 0
 6451 1ad8 00       		.byte	0
 6452 1ad9 21       		.uleb128 0x21
 6453 1ada 52000000 		.4byte	.LVL310
 6454 1ade ED1D0000 		.4byte	0x1ded
 6455 1ae2 051B0000 		.4byte	0x1b05
 6456 1ae6 22       		.uleb128 0x22
 6457 1ae7 01       		.byte	0x1
 6458 1ae8 52       		.byte	0x52
 6459 1ae9 02       		.byte	0x2
 6460 1aea 76       		.byte	0x76
 6461 1aeb 00       		.sleb128 0
 6462 1aec 22       		.uleb128 0x22
 6463 1aed 01       		.byte	0x1
 6464 1aee 51       		.byte	0x51
 6465 1aef 02       		.byte	0x2
 6466 1af0 74       		.byte	0x74
 6467 1af1 00       		.sleb128 0
 6468 1af2 22       		.uleb128 0x22
 6469 1af3 01       		.byte	0x1
 6470 1af4 50       		.byte	0x50
 6471 1af5 02       		.byte	0x2
 6472 1af6 75       		.byte	0x75
 6473 1af7 00       		.sleb128 0
 6474 1af8 22       		.uleb128 0x22
 6475 1af9 02       		.byte	0x2
 6476 1afa 7D       		.byte	0x7d
 6477 1afb 04       		.sleb128 4
 6478 1afc 01       		.byte	0x1
 6479 1afd 36       		.byte	0x36
 6480 1afe 22       		.uleb128 0x22
 6481 1aff 02       		.byte	0x2
 6482 1b00 7D       		.byte	0x7d
ARM GAS  C:\Users\jenny\AppData\Local\Temp\ccUygzzS.s 			page 115


 6483 1b01 00       		.sleb128 0
 6484 1b02 01       		.byte	0x1
 6485 1b03 30       		.byte	0x30
 6486 1b04 00       		.byte	0
 6487 1b05 3A       		.uleb128 0x3a
 6488 1b06 5E000000 		.4byte	.LVL311
 6489 1b0a 01       		.byte	0x1
 6490 1b0b 2A1D0000 		.4byte	0x1d2a
 6491 1b0f 22       		.uleb128 0x22
 6492 1b10 01       		.byte	0x1
 6493 1b11 50       		.byte	0x50
 6494 1b12 02       		.byte	0x2
 6495 1b13 75       		.byte	0x75
 6496 1b14 00       		.sleb128 0
 6497 1b15 00       		.byte	0
 6498 1b16 00       		.byte	0
 6499 1b17 41       		.uleb128 0x41
 6500 1b18 01       		.byte	0x1
 6501 1b19 FF030000 		.4byte	.LASF211
 6502 1b1d 01       		.byte	0x1
 6503 1b1e 8605     		.2byte	0x586
 6504 1b20 01       		.byte	0x1
 6505 1b21 00000000 		.4byte	.LFB22
 6506 1b25 C8000000 		.4byte	.LFE22
 6507 1b29 F6150000 		.4byte	.LLST92
 6508 1b2d 01       		.byte	0x1
 6509 1b2e 5A1C0000 		.4byte	0x1c5a
 6510 1b32 2D       		.uleb128 0x2d
 6511 1b33 70636200 		.ascii	"pcb\000"
 6512 1b37 01       		.byte	0x1
 6513 1b38 8605     		.2byte	0x586
 6514 1b3a BC030000 		.4byte	0x3bc
 6515 1b3e 22160000 		.4byte	.LLST93
 6516 1b42 30       		.uleb128 0x30
 6517 1b43 7000     		.ascii	"p\000"
 6518 1b45 01       		.byte	0x1
 6519 1b46 8805     		.2byte	0x588
 6520 1b48 F2010000 		.4byte	0x1f2
 6521 1b4c 56160000 		.4byte	.LLST94
 6522 1b50 2F       		.uleb128 0x2f
 6523 1b51 D4020000 		.4byte	.LASF123
 6524 1b55 01       		.byte	0x1
 6525 1b56 8905     		.2byte	0x589
 6526 1b58 C3080000 		.4byte	0x8c3
 6527 1b5c 8A160000 		.4byte	.LLST95
 6528 1b60 30       		.uleb128 0x30
 6529 1b61 73656700 		.ascii	"seg\000"
 6530 1b65 01       		.byte	0x1
 6531 1b66 8A05     		.2byte	0x58a
 6532 1b68 40080000 		.4byte	0x840
 6533 1b6c A8160000 		.4byte	.LLST96
 6534 1b70 30       		.uleb128 0x30
 6535 1b71 6C656E00 		.ascii	"len\000"
 6536 1b75 01       		.byte	0x1
 6537 1b76 8B05     		.2byte	0x58b
 6538 1b78 DE000000 		.4byte	0xde
 6539 1b7c D1160000 		.4byte	.LLST97
ARM GAS  C:\Users\jenny\AppData\Local\Temp\ccUygzzS.s 			page 116


 6540 1b80 2F       		.uleb128 0x2f
 6541 1b81 3C020000 		.4byte	.LASF212
 6542 1b85 01       		.byte	0x1
 6543 1b86 8C05     		.2byte	0x58c
 6544 1b88 C8000000 		.4byte	0xc8
 6545 1b8c E4160000 		.4byte	.LLST98
 6546 1b90 38       		.uleb128 0x38
 6547 1b91 A2000000 		.4byte	.LBB56
 6548 1b95 B8000000 		.4byte	.LBE56
 6549 1b99 C71B0000 		.4byte	0x1bc7
 6550 1b9d 30       		.uleb128 0x30
 6551 1b9e 6400     		.ascii	"d\000"
 6552 1ba0 01       		.byte	0x1
 6553 1ba1 B205     		.2byte	0x5b2
 6554 1ba3 590B0000 		.4byte	0xb59
 6555 1ba7 02170000 		.4byte	.LLST99
 6556 1bab 25       		.uleb128 0x25
 6557 1bac B6000000 		.4byte	.LVL329
 6558 1bb0 6C1E0000 		.4byte	0x1e6c
 6559 1bb4 22       		.uleb128 0x22
 6560 1bb5 01       		.byte	0x1
 6561 1bb6 53       		.byte	0x53
 6562 1bb7 02       		.byte	0x2
 6563 1bb8 76       		.byte	0x76
 6564 1bb9 00       		.sleb128 0
 6565 1bba 22       		.uleb128 0x22
 6566 1bbb 01       		.byte	0x1
 6567 1bbc 52       		.byte	0x52
 6568 1bbd 01       		.byte	0x1
 6569 1bbe 31       		.byte	0x31
 6570 1bbf 22       		.uleb128 0x22
 6571 1bc0 01       		.byte	0x1
 6572 1bc1 51       		.byte	0x51
 6573 1bc2 02       		.byte	0x2
 6574 1bc3 77       		.byte	0x77
 6575 1bc4 14       		.sleb128 20
 6576 1bc5 00       		.byte	0
 6577 1bc6 00       		.byte	0
 6578 1bc7 23       		.uleb128 0x23
 6579 1bc8 16000000 		.4byte	.LVL315
 6580 1bcc A91D0000 		.4byte	0x1da9
 6581 1bd0 21       		.uleb128 0x21
 6582 1bd1 2A000000 		.4byte	.LVL317
 6583 1bd5 790D0000 		.4byte	0xd79
 6584 1bd9 E41B0000 		.4byte	0x1be4
 6585 1bdd 22       		.uleb128 0x22
 6586 1bde 01       		.byte	0x1
 6587 1bdf 50       		.byte	0x50
 6588 1be0 02       		.byte	0x2
 6589 1be1 74       		.byte	0x74
 6590 1be2 00       		.sleb128 0
 6591 1be3 00       		.byte	0
 6592 1be4 21       		.uleb128 0x21
 6593 1be5 46000000 		.4byte	.LVL321
 6594 1be9 E51C0000 		.4byte	0x1ce5
 6595 1bed F71B0000 		.4byte	0x1bf7
 6596 1bf1 22       		.uleb128 0x22
ARM GAS  C:\Users\jenny\AppData\Local\Temp\ccUygzzS.s 			page 117


 6597 1bf2 01       		.byte	0x1
 6598 1bf3 50       		.byte	0x50
 6599 1bf4 01       		.byte	0x1
 6600 1bf5 41       		.byte	0x41
 6601 1bf6 00       		.byte	0
 6602 1bf7 21       		.uleb128 0x21
 6603 1bf8 5C000000 		.4byte	.LVL322
 6604 1bfc C11D0000 		.4byte	0x1dc1
 6605 1c00 1C1C0000 		.4byte	0x1c1c
 6606 1c04 22       		.uleb128 0x22
 6607 1c05 01       		.byte	0x1
 6608 1c06 53       		.byte	0x53
 6609 1c07 01       		.byte	0x1
 6610 1c08 36       		.byte	0x36
 6611 1c09 22       		.uleb128 0x22
 6612 1c0a 01       		.byte	0x1
 6613 1c0b 52       		.byte	0x52
 6614 1c0c 02       		.byte	0x2
 6615 1c0d 76       		.byte	0x76
 6616 1c0e 00       		.sleb128 0
 6617 1c0f 22       		.uleb128 0x22
 6618 1c10 01       		.byte	0x1
 6619 1c11 51       		.byte	0x51
 6620 1c12 02       		.byte	0x2
 6621 1c13 74       		.byte	0x74
 6622 1c14 00       		.sleb128 0
 6623 1c15 22       		.uleb128 0x22
 6624 1c16 01       		.byte	0x1
 6625 1c17 50       		.byte	0x50
 6626 1c18 02       		.byte	0x2
 6627 1c19 75       		.byte	0x75
 6628 1c1a 00       		.sleb128 0
 6629 1c1b 00       		.byte	0
 6630 1c1c 21       		.uleb128 0x21
 6631 1c1d 80000000 		.4byte	.LVL323
 6632 1c21 ED1D0000 		.4byte	0x1ded
 6633 1c25 481C0000 		.4byte	0x1c48
 6634 1c29 22       		.uleb128 0x22
 6635 1c2a 01       		.byte	0x1
 6636 1c2b 52       		.byte	0x52
 6637 1c2c 02       		.byte	0x2
 6638 1c2d 76       		.byte	0x76
 6639 1c2e 00       		.sleb128 0
 6640 1c2f 22       		.uleb128 0x22
 6641 1c30 01       		.byte	0x1
 6642 1c31 51       		.byte	0x51
 6643 1c32 02       		.byte	0x2
 6644 1c33 74       		.byte	0x74
 6645 1c34 00       		.sleb128 0
 6646 1c35 22       		.uleb128 0x22
 6647 1c36 01       		.byte	0x1
 6648 1c37 50       		.byte	0x50
 6649 1c38 02       		.byte	0x2
 6650 1c39 75       		.byte	0x75
 6651 1c3a 00       		.sleb128 0
 6652 1c3b 22       		.uleb128 0x22
 6653 1c3c 02       		.byte	0x2
ARM GAS  C:\Users\jenny\AppData\Local\Temp\ccUygzzS.s 			page 118


 6654 1c3d 7D       		.byte	0x7d
 6655 1c3e 04       		.sleb128 4
 6656 1c3f 01       		.byte	0x1
 6657 1c40 36       		.byte	0x36
 6658 1c41 22       		.uleb128 0x22
 6659 1c42 02       		.byte	0x2
 6660 1c43 7D       		.byte	0x7d
 6661 1c44 00       		.sleb128 0
 6662 1c45 01       		.byte	0x1
 6663 1c46 30       		.byte	0x30
 6664 1c47 00       		.byte	0
 6665 1c48 3A       		.uleb128 0x3a
 6666 1c49 8C000000 		.4byte	.LVL324
 6667 1c4d 01       		.byte	0x1
 6668 1c4e 2A1D0000 		.4byte	0x1d2a
 6669 1c52 22       		.uleb128 0x22
 6670 1c53 01       		.byte	0x1
 6671 1c54 50       		.byte	0x50
 6672 1c55 02       		.byte	0x2
 6673 1c56 75       		.byte	0x75
 6674 1c57 00       		.sleb128 0
 6675 1c58 00       		.byte	0
 6676 1c59 00       		.byte	0
 6677 1c5a 43       		.uleb128 0x43
 6678 1c5b F2050000 		.4byte	.LASF213
 6679 1c5f 0A       		.byte	0xa
 6680 1c60 3201     		.2byte	0x132
 6681 1c62 BC030000 		.4byte	0x3bc
 6682 1c66 01       		.byte	0x1
 6683 1c67 01       		.byte	0x1
 6684 1c68 43       		.uleb128 0x43
 6685 1c69 28050000 		.4byte	.LASF214
 6686 1c6d 0A       		.byte	0xa
 6687 1c6e 3301     		.2byte	0x133
 6688 1c70 F4000000 		.4byte	0xf4
 6689 1c74 01       		.byte	0x1
 6690 1c75 01       		.byte	0x1
 6691 1c76 44       		.uleb128 0x44
 6692 1c77 78080000 		.4byte	.LASF215
 6693 1c7b 0C       		.byte	0xc
 6694 1c7c 95       		.byte	0x95
 6695 1c7d AC0A0000 		.4byte	0xaac
 6696 1c81 01       		.byte	0x1
 6697 1c82 01       		.byte	0x1
 6698 1c83 45       		.uleb128 0x45
 6699 1c84 01       		.byte	0x1
 6700 1c85 41070000 		.4byte	.LASF216
 6701 1c89 06       		.byte	0x6
 6702 1c8a 92       		.byte	0x92
 6703 1c8b 01       		.byte	0x1
 6704 1c8c F2010000 		.4byte	0x1f2
 6705 1c90 01       		.byte	0x1
 6706 1c91 A51C0000 		.4byte	0x1ca5
 6707 1c95 0D       		.uleb128 0xd
 6708 1c96 4C010000 		.4byte	0x14c
 6709 1c9a 0D       		.uleb128 0xd
 6710 1c9b DE000000 		.4byte	0xde
ARM GAS  C:\Users\jenny\AppData\Local\Temp\ccUygzzS.s 			page 119


 6711 1c9f 0D       		.uleb128 0xd
 6712 1ca0 78010000 		.4byte	0x178
 6713 1ca4 00       		.byte	0
 6714 1ca5 46       		.uleb128 0x46
 6715 1ca6 01       		.byte	0x1
 6716 1ca7 A9020000 		.4byte	.LASF239
 6717 1cab 10       		.byte	0x10
 6718 1cac 0102     		.2byte	0x201
 6719 1cae 01       		.byte	0x1
 6720 1caf 01       		.byte	0x1
 6721 1cb0 45       		.uleb128 0x45
 6722 1cb1 01       		.byte	0x1
 6723 1cb2 BC020000 		.4byte	.LASF217
 6724 1cb6 0B       		.byte	0xb
 6725 1cb7 6A       		.byte	0x6a
 6726 1cb8 01       		.byte	0x1
 6727 1cb9 B8000000 		.4byte	0xb8
 6728 1cbd 01       		.byte	0x1
 6729 1cbe C81C0000 		.4byte	0x1cc8
 6730 1cc2 0D       		.uleb128 0xd
 6731 1cc3 2C090000 		.4byte	0x92c
 6732 1cc7 00       		.byte	0
 6733 1cc8 45       		.uleb128 0x45
 6734 1cc9 01       		.byte	0x1
 6735 1cca 1D030000 		.4byte	.LASF218
 6736 1cce 06       		.byte	0x6
 6737 1ccf 99       		.byte	0x99
 6738 1cd0 01       		.byte	0x1
 6739 1cd1 C8000000 		.4byte	0xc8
 6740 1cd5 01       		.byte	0x1
 6741 1cd6 E51C0000 		.4byte	0x1ce5
 6742 1cda 0D       		.uleb128 0xd
 6743 1cdb F2010000 		.4byte	0x1f2
 6744 1cdf 0D       		.uleb128 0xd
 6745 1ce0 E9000000 		.4byte	0xe9
 6746 1ce4 00       		.byte	0
 6747 1ce5 45       		.uleb128 0x45
 6748 1ce6 01       		.byte	0x1
 6749 1ce7 9F010000 		.4byte	.LASF219
 6750 1ceb 0D       		.byte	0xd
 6751 1cec 63       		.byte	0x63
 6752 1ced 01       		.byte	0x1
 6753 1cee DE000000 		.4byte	0xde
 6754 1cf2 01       		.byte	0x1
 6755 1cf3 FD1C0000 		.4byte	0x1cfd
 6756 1cf7 0D       		.uleb128 0xd
 6757 1cf8 DE000000 		.4byte	0xde
 6758 1cfc 00       		.byte	0
 6759 1cfd 45       		.uleb128 0x45
 6760 1cfe 01       		.byte	0x1
 6761 1cff 8B010000 		.4byte	.LASF220
 6762 1d03 0D       		.byte	0xd
 6763 1d04 65       		.byte	0x65
 6764 1d05 01       		.byte	0x1
 6765 1d06 F4000000 		.4byte	0xf4
 6766 1d0a 01       		.byte	0x1
 6767 1d0b 151D0000 		.4byte	0x1d15
ARM GAS  C:\Users\jenny\AppData\Local\Temp\ccUygzzS.s 			page 120


 6768 1d0f 0D       		.uleb128 0xd
 6769 1d10 F4000000 		.4byte	0xf4
 6770 1d14 00       		.byte	0
 6771 1d15 47       		.uleb128 0x47
 6772 1d16 01       		.byte	0x1
 6773 1d17 5F040000 		.4byte	.LASF223
 6774 1d1b 0A       		.byte	0xa
 6775 1d1c A401     		.2byte	0x1a4
 6776 1d1e 01       		.byte	0x1
 6777 1d1f 01       		.byte	0x1
 6778 1d20 2A1D0000 		.4byte	0x1d2a
 6779 1d24 0D       		.uleb128 0xd
 6780 1d25 40080000 		.4byte	0x840
 6781 1d29 00       		.byte	0
 6782 1d2a 45       		.uleb128 0x45
 6783 1d2b 01       		.byte	0x1
 6784 1d2c D4070000 		.4byte	.LASF221
 6785 1d30 06       		.byte	0x6
 6786 1d31 9B       		.byte	0x9b
 6787 1d32 01       		.byte	0x1
 6788 1d33 C8000000 		.4byte	0xc8
 6789 1d37 01       		.byte	0x1
 6790 1d38 421D0000 		.4byte	0x1d42
 6791 1d3c 0D       		.uleb128 0xd
 6792 1d3d F2010000 		.4byte	0x1f2
 6793 1d41 00       		.byte	0
 6794 1d42 45       		.uleb128 0x45
 6795 1d43 01       		.byte	0x1
 6796 1d44 78000000 		.4byte	.LASF222
 6797 1d48 06       		.byte	0x6
 6798 1d49 9C       		.byte	0x9c
 6799 1d4a 01       		.byte	0x1
 6800 1d4b C8000000 		.4byte	0xc8
 6801 1d4f 01       		.byte	0x1
 6802 1d50 5A1D0000 		.4byte	0x1d5a
 6803 1d54 0D       		.uleb128 0xd
 6804 1d55 F2010000 		.4byte	0x1f2
 6805 1d59 00       		.byte	0
 6806 1d5a 48       		.uleb128 0x48
 6807 1d5b 01       		.byte	0x1
 6808 1d5c 33090000 		.4byte	.LASF224
 6809 1d60 01       		.byte	0x1
 6810 1d61 B8000000 		.4byte	0xb8
 6811 1d65 01       		.byte	0x1
 6812 1d66 01       		.byte	0x1
 6813 1d67 7B1D0000 		.4byte	0x1d7b
 6814 1d6b 0D       		.uleb128 0xd
 6815 1d6c B8000000 		.4byte	0xb8
 6816 1d70 0D       		.uleb128 0xd
 6817 1d71 EC120000 		.4byte	0x12ec
 6818 1d75 0D       		.uleb128 0xd
 6819 1d76 BA000000 		.4byte	0xba
 6820 1d7a 00       		.byte	0
 6821 1d7b 49       		.uleb128 0x49
 6822 1d7c 01       		.byte	0x1
 6823 1d7d 9B030000 		.4byte	.LASF225
 6824 1d81 06       		.byte	0x6
ARM GAS  C:\Users\jenny\AppData\Local\Temp\ccUygzzS.s 			page 121


 6825 1d82 9D       		.byte	0x9d
 6826 1d83 01       		.byte	0x1
 6827 1d84 01       		.byte	0x1
 6828 1d85 941D0000 		.4byte	0x1d94
 6829 1d89 0D       		.uleb128 0xd
 6830 1d8a F2010000 		.4byte	0x1f2
 6831 1d8e 0D       		.uleb128 0xd
 6832 1d8f F2010000 		.4byte	0x1f2
 6833 1d93 00       		.byte	0
 6834 1d94 47       		.uleb128 0x47
 6835 1d95 01       		.byte	0x1
 6836 1d96 18000000 		.4byte	.LASF226
 6837 1d9a 0A       		.byte	0xa
 6838 1d9b A301     		.2byte	0x1a3
 6839 1d9d 01       		.byte	0x1
 6840 1d9e 01       		.byte	0x1
 6841 1d9f A91D0000 		.4byte	0x1da9
 6842 1da3 0D       		.uleb128 0xd
 6843 1da4 40080000 		.4byte	0x840
 6844 1da8 00       		.byte	0
 6845 1da9 45       		.uleb128 0x45
 6846 1daa 01       		.byte	0x1
 6847 1dab 53000000 		.4byte	.LASF227
 6848 1daf 0D       		.byte	0xd
 6849 1db0 64       		.byte	0x64
 6850 1db1 01       		.byte	0x1
 6851 1db2 DE000000 		.4byte	0xde
 6852 1db6 01       		.byte	0x1
 6853 1db7 C11D0000 		.4byte	0x1dc1
 6854 1dbb 0D       		.uleb128 0xd
 6855 1dbc DE000000 		.4byte	0xde
 6856 1dc0 00       		.byte	0
 6857 1dc1 45       		.uleb128 0x45
 6858 1dc2 01       		.byte	0x1
 6859 1dc3 13020000 		.4byte	.LASF228
 6860 1dc7 0E       		.byte	0xe
 6861 1dc8 4B       		.byte	0x4b
 6862 1dc9 01       		.byte	0x1
 6863 1dca DE000000 		.4byte	0xde
 6864 1dce 01       		.byte	0x1
 6865 1dcf ED1D0000 		.4byte	0x1ded
 6866 1dd3 0D       		.uleb128 0xd
 6867 1dd4 F2010000 		.4byte	0x1f2
 6868 1dd8 0D       		.uleb128 0xd
 6869 1dd9 45030000 		.4byte	0x345
 6870 1ddd 0D       		.uleb128 0xd
 6871 1dde 45030000 		.4byte	0x345
 6872 1de2 0D       		.uleb128 0xd
 6873 1de3 C8000000 		.4byte	0xc8
 6874 1de7 0D       		.uleb128 0xd
 6875 1de8 DE000000 		.4byte	0xde
 6876 1dec 00       		.byte	0
 6877 1ded 45       		.uleb128 0x45
 6878 1dee 01       		.byte	0x1
 6879 1def 68060000 		.4byte	.LASF229
 6880 1df3 0F       		.byte	0xf
 6881 1df4 B1       		.byte	0xb1
ARM GAS  C:\Users\jenny\AppData\Local\Temp\ccUygzzS.s 			page 122


 6882 1df5 01       		.byte	0x1
 6883 1df6 20010000 		.4byte	0x120
 6884 1dfa 01       		.byte	0x1
 6885 1dfb 1E1E0000 		.4byte	0x1e1e
 6886 1dff 0D       		.uleb128 0xd
 6887 1e00 F2010000 		.4byte	0x1f2
 6888 1e04 0D       		.uleb128 0xd
 6889 1e05 45030000 		.4byte	0x345
 6890 1e09 0D       		.uleb128 0xd
 6891 1e0a 45030000 		.4byte	0x345
 6892 1e0e 0D       		.uleb128 0xd
 6893 1e0f C8000000 		.4byte	0xc8
 6894 1e13 0D       		.uleb128 0xd
 6895 1e14 C8000000 		.4byte	0xc8
 6896 1e18 0D       		.uleb128 0xd
 6897 1e19 C8000000 		.4byte	0xc8
 6898 1e1d 00       		.byte	0
 6899 1e1e 4A       		.uleb128 0x4a
 6900 1e1f 01       		.byte	0x1
 6901 1e20 B3010000 		.4byte	.LASF230
 6902 1e24 0A       		.byte	0xa
 6903 1e25 C601     		.2byte	0x1c6
 6904 1e27 01       		.byte	0x1
 6905 1e28 DE000000 		.4byte	0xde
 6906 1e2c 01       		.byte	0x1
 6907 1e2d 3C1E0000 		.4byte	0x1e3c
 6908 1e31 0D       		.uleb128 0xd
 6909 1e32 DE000000 		.4byte	0xde
 6910 1e36 0D       		.uleb128 0xd
 6911 1e37 45030000 		.4byte	0x345
 6912 1e3b 00       		.byte	0
 6913 1e3c 45       		.uleb128 0x45
 6914 1e3d 01       		.byte	0x1
 6915 1e3e 75020000 		.4byte	.LASF231
 6916 1e42 0F       		.byte	0xf
 6917 1e43 AF       		.byte	0xaf
 6918 1e44 01       		.byte	0x1
 6919 1e45 1E020000 		.4byte	0x21e
 6920 1e49 01       		.byte	0x1
 6921 1e4a 541E0000 		.4byte	0x1e54
 6922 1e4e 0D       		.uleb128 0xd
 6923 1e4f 45030000 		.4byte	0x345
 6924 1e53 00       		.byte	0
 6925 1e54 45       		.uleb128 0x45
 6926 1e55 01       		.byte	0x1
 6927 1e56 32000000 		.4byte	.LASF232
 6928 1e5a 0D       		.byte	0xd
 6929 1e5b 66       		.byte	0x66
 6930 1e5c 01       		.byte	0x1
 6931 1e5d F4000000 		.4byte	0xf4
 6932 1e61 01       		.byte	0x1
 6933 1e62 6C1E0000 		.4byte	0x1e6c
 6934 1e66 0D       		.uleb128 0xd
 6935 1e67 F4000000 		.4byte	0xf4
 6936 1e6b 00       		.byte	0
 6937 1e6c 4B       		.uleb128 0x4b
 6938 1e6d 01       		.byte	0x1
ARM GAS  C:\Users\jenny\AppData\Local\Temp\ccUygzzS.s 			page 123


 6939 1e6e 22040000 		.4byte	.LASF233
 6940 1e72 06       		.byte	0x6
 6941 1e73 A1       		.byte	0xa1
 6942 1e74 01       		.byte	0x1
 6943 1e75 DE000000 		.4byte	0xde
 6944 1e79 01       		.byte	0x1
 6945 1e7a 0D       		.uleb128 0xd
 6946 1e7b F2010000 		.4byte	0x1f2
 6947 1e7f 0D       		.uleb128 0xd
 6948 1e80 B8000000 		.4byte	0xb8
 6949 1e84 0D       		.uleb128 0xd
 6950 1e85 DE000000 		.4byte	0xde
 6951 1e89 0D       		.uleb128 0xd
 6952 1e8a DE000000 		.4byte	0xde
 6953 1e8e 00       		.byte	0
 6954 1e8f 00       		.byte	0
 6955              		.section	.debug_abbrev,"",%progbits
 6956              	.Ldebug_abbrev0:
 6957 0000 01       		.uleb128 0x1
 6958 0001 11       		.uleb128 0x11
 6959 0002 01       		.byte	0x1
 6960 0003 25       		.uleb128 0x25
 6961 0004 0E       		.uleb128 0xe
 6962 0005 13       		.uleb128 0x13
 6963 0006 0B       		.uleb128 0xb
 6964 0007 03       		.uleb128 0x3
 6965 0008 0E       		.uleb128 0xe
 6966 0009 1B       		.uleb128 0x1b
 6967 000a 0E       		.uleb128 0xe
 6968 000b 55       		.uleb128 0x55
 6969 000c 06       		.uleb128 0x6
 6970 000d 11       		.uleb128 0x11
 6971 000e 01       		.uleb128 0x1
 6972 000f 52       		.uleb128 0x52
 6973 0010 01       		.uleb128 0x1
 6974 0011 10       		.uleb128 0x10
 6975 0012 06       		.uleb128 0x6
 6976 0013 00       		.byte	0
 6977 0014 00       		.byte	0
 6978 0015 02       		.uleb128 0x2
 6979 0016 24       		.uleb128 0x24
 6980 0017 00       		.byte	0
 6981 0018 0B       		.uleb128 0xb
 6982 0019 0B       		.uleb128 0xb
 6983 001a 3E       		.uleb128 0x3e
 6984 001b 0B       		.uleb128 0xb
 6985 001c 03       		.uleb128 0x3
 6986 001d 08       		.uleb128 0x8
 6987 001e 00       		.byte	0
 6988 001f 00       		.byte	0
 6989 0020 03       		.uleb128 0x3
 6990 0021 24       		.uleb128 0x24
 6991 0022 00       		.byte	0
 6992 0023 0B       		.uleb128 0xb
 6993 0024 0B       		.uleb128 0xb
 6994 0025 3E       		.uleb128 0x3e
 6995 0026 0B       		.uleb128 0xb
ARM GAS  C:\Users\jenny\AppData\Local\Temp\ccUygzzS.s 			page 124


 6996 0027 03       		.uleb128 0x3
 6997 0028 0E       		.uleb128 0xe
 6998 0029 00       		.byte	0
 6999 002a 00       		.byte	0
 7000 002b 04       		.uleb128 0x4
 7001 002c 16       		.uleb128 0x16
 7002 002d 00       		.byte	0
 7003 002e 03       		.uleb128 0x3
 7004 002f 0E       		.uleb128 0xe
 7005 0030 3A       		.uleb128 0x3a
 7006 0031 0B       		.uleb128 0xb
 7007 0032 3B       		.uleb128 0x3b
 7008 0033 0B       		.uleb128 0xb
 7009 0034 49       		.uleb128 0x49
 7010 0035 13       		.uleb128 0x13
 7011 0036 00       		.byte	0
 7012 0037 00       		.byte	0
 7013 0038 05       		.uleb128 0x5
 7014 0039 0F       		.uleb128 0xf
 7015 003a 00       		.byte	0
 7016 003b 0B       		.uleb128 0xb
 7017 003c 0B       		.uleb128 0xb
 7018 003d 00       		.byte	0
 7019 003e 00       		.byte	0
 7020 003f 06       		.uleb128 0x6
 7021 0040 04       		.uleb128 0x4
 7022 0041 01       		.byte	0x1
 7023 0042 0B       		.uleb128 0xb
 7024 0043 0B       		.uleb128 0xb
 7025 0044 3A       		.uleb128 0x3a
 7026 0045 0B       		.uleb128 0xb
 7027 0046 3B       		.uleb128 0x3b
 7028 0047 0B       		.uleb128 0xb
 7029 0048 01       		.uleb128 0x1
 7030 0049 13       		.uleb128 0x13
 7031 004a 00       		.byte	0
 7032 004b 00       		.byte	0
 7033 004c 07       		.uleb128 0x7
 7034 004d 28       		.uleb128 0x28
 7035 004e 00       		.byte	0
 7036 004f 03       		.uleb128 0x3
 7037 0050 0E       		.uleb128 0xe
 7038 0051 1C       		.uleb128 0x1c
 7039 0052 0D       		.uleb128 0xd
 7040 0053 00       		.byte	0
 7041 0054 00       		.byte	0
 7042 0055 08       		.uleb128 0x8
 7043 0056 13       		.uleb128 0x13
 7044 0057 01       		.byte	0x1
 7045 0058 03       		.uleb128 0x3
 7046 0059 0E       		.uleb128 0xe
 7047 005a 0B       		.uleb128 0xb
 7048 005b 0B       		.uleb128 0xb
 7049 005c 3A       		.uleb128 0x3a
 7050 005d 0B       		.uleb128 0xb
 7051 005e 3B       		.uleb128 0x3b
 7052 005f 0B       		.uleb128 0xb
ARM GAS  C:\Users\jenny\AppData\Local\Temp\ccUygzzS.s 			page 125


 7053 0060 01       		.uleb128 0x1
 7054 0061 13       		.uleb128 0x13
 7055 0062 00       		.byte	0
 7056 0063 00       		.byte	0
 7057 0064 09       		.uleb128 0x9
 7058 0065 0D       		.uleb128 0xd
 7059 0066 00       		.byte	0
 7060 0067 03       		.uleb128 0x3
 7061 0068 0E       		.uleb128 0xe
 7062 0069 3A       		.uleb128 0x3a
 7063 006a 0B       		.uleb128 0xb
 7064 006b 3B       		.uleb128 0x3b
 7065 006c 0B       		.uleb128 0xb
 7066 006d 49       		.uleb128 0x49
 7067 006e 13       		.uleb128 0x13
 7068 006f 38       		.uleb128 0x38
 7069 0070 0A       		.uleb128 0xa
 7070 0071 00       		.byte	0
 7071 0072 00       		.byte	0
 7072 0073 0A       		.uleb128 0xa
 7073 0074 0D       		.uleb128 0xd
 7074 0075 00       		.byte	0
 7075 0076 03       		.uleb128 0x3
 7076 0077 08       		.uleb128 0x8
 7077 0078 3A       		.uleb128 0x3a
 7078 0079 0B       		.uleb128 0xb
 7079 007a 3B       		.uleb128 0x3b
 7080 007b 0B       		.uleb128 0xb
 7081 007c 49       		.uleb128 0x49
 7082 007d 13       		.uleb128 0x13
 7083 007e 38       		.uleb128 0x38
 7084 007f 0A       		.uleb128 0xa
 7085 0080 00       		.byte	0
 7086 0081 00       		.byte	0
 7087 0082 0B       		.uleb128 0xb
 7088 0083 0F       		.uleb128 0xf
 7089 0084 00       		.byte	0
 7090 0085 0B       		.uleb128 0xb
 7091 0086 0B       		.uleb128 0xb
 7092 0087 49       		.uleb128 0x49
 7093 0088 13       		.uleb128 0x13
 7094 0089 00       		.byte	0
 7095 008a 00       		.byte	0
 7096 008b 0C       		.uleb128 0xc
 7097 008c 15       		.uleb128 0x15
 7098 008d 01       		.byte	0x1
 7099 008e 27       		.uleb128 0x27
 7100 008f 0C       		.uleb128 0xc
 7101 0090 49       		.uleb128 0x49
 7102 0091 13       		.uleb128 0x13
 7103 0092 01       		.uleb128 0x1
 7104 0093 13       		.uleb128 0x13
 7105 0094 00       		.byte	0
 7106 0095 00       		.byte	0
 7107 0096 0D       		.uleb128 0xd
 7108 0097 05       		.uleb128 0x5
 7109 0098 00       		.byte	0
ARM GAS  C:\Users\jenny\AppData\Local\Temp\ccUygzzS.s 			page 126


 7110 0099 49       		.uleb128 0x49
 7111 009a 13       		.uleb128 0x13
 7112 009b 00       		.byte	0
 7113 009c 00       		.byte	0
 7114 009d 0E       		.uleb128 0xe
 7115 009e 01       		.uleb128 0x1
 7116 009f 01       		.byte	0x1
 7117 00a0 49       		.uleb128 0x49
 7118 00a1 13       		.uleb128 0x13
 7119 00a2 01       		.uleb128 0x1
 7120 00a3 13       		.uleb128 0x13
 7121 00a4 00       		.byte	0
 7122 00a5 00       		.byte	0
 7123 00a6 0F       		.uleb128 0xf
 7124 00a7 21       		.uleb128 0x21
 7125 00a8 00       		.byte	0
 7126 00a9 49       		.uleb128 0x49
 7127 00aa 13       		.uleb128 0x13
 7128 00ab 2F       		.uleb128 0x2f
 7129 00ac 0B       		.uleb128 0xb
 7130 00ad 00       		.byte	0
 7131 00ae 00       		.byte	0
 7132 00af 10       		.uleb128 0x10
 7133 00b0 0D       		.uleb128 0xd
 7134 00b1 00       		.byte	0
 7135 00b2 03       		.uleb128 0x3
 7136 00b3 0E       		.uleb128 0xe
 7137 00b4 3A       		.uleb128 0x3a
 7138 00b5 0B       		.uleb128 0xb
 7139 00b6 3B       		.uleb128 0x3b
 7140 00b7 05       		.uleb128 0x5
 7141 00b8 49       		.uleb128 0x49
 7142 00b9 13       		.uleb128 0x13
 7143 00ba 38       		.uleb128 0x38
 7144 00bb 0A       		.uleb128 0xa
 7145 00bc 00       		.byte	0
 7146 00bd 00       		.byte	0
 7147 00be 11       		.uleb128 0x11
 7148 00bf 15       		.uleb128 0x15
 7149 00c0 01       		.byte	0x1
 7150 00c1 27       		.uleb128 0x27
 7151 00c2 0C       		.uleb128 0xc
 7152 00c3 01       		.uleb128 0x1
 7153 00c4 13       		.uleb128 0x13
 7154 00c5 00       		.byte	0
 7155 00c6 00       		.byte	0
 7156 00c7 12       		.uleb128 0x12
 7157 00c8 04       		.uleb128 0x4
 7158 00c9 01       		.byte	0x1
 7159 00ca 03       		.uleb128 0x3
 7160 00cb 0E       		.uleb128 0xe
 7161 00cc 0B       		.uleb128 0xb
 7162 00cd 0B       		.uleb128 0xb
 7163 00ce 3A       		.uleb128 0x3a
 7164 00cf 0B       		.uleb128 0xb
 7165 00d0 3B       		.uleb128 0x3b
 7166 00d1 0B       		.uleb128 0xb
ARM GAS  C:\Users\jenny\AppData\Local\Temp\ccUygzzS.s 			page 127


 7167 00d2 01       		.uleb128 0x1
 7168 00d3 13       		.uleb128 0x13
 7169 00d4 00       		.byte	0
 7170 00d5 00       		.byte	0
 7171 00d6 13       		.uleb128 0x13
 7172 00d7 13       		.uleb128 0x13
 7173 00d8 01       		.byte	0x1
 7174 00d9 03       		.uleb128 0x3
 7175 00da 0E       		.uleb128 0xe
 7176 00db 0B       		.uleb128 0xb
 7177 00dc 0B       		.uleb128 0xb
 7178 00dd 3A       		.uleb128 0x3a
 7179 00de 0B       		.uleb128 0xb
 7180 00df 3B       		.uleb128 0x3b
 7181 00e0 05       		.uleb128 0x5
 7182 00e1 01       		.uleb128 0x1
 7183 00e2 13       		.uleb128 0x13
 7184 00e3 00       		.byte	0
 7185 00e4 00       		.byte	0
 7186 00e5 14       		.uleb128 0x14
 7187 00e6 0D       		.uleb128 0xd
 7188 00e7 00       		.byte	0
 7189 00e8 03       		.uleb128 0x3
 7190 00e9 08       		.uleb128 0x8
 7191 00ea 3A       		.uleb128 0x3a
 7192 00eb 0B       		.uleb128 0xb
 7193 00ec 3B       		.uleb128 0x3b
 7194 00ed 05       		.uleb128 0x5
 7195 00ee 49       		.uleb128 0x49
 7196 00ef 13       		.uleb128 0x13
 7197 00f0 38       		.uleb128 0x38
 7198 00f1 0A       		.uleb128 0xa
 7199 00f2 00       		.byte	0
 7200 00f3 00       		.byte	0
 7201 00f4 15       		.uleb128 0x15
 7202 00f5 13       		.uleb128 0x13
 7203 00f6 01       		.byte	0x1
 7204 00f7 03       		.uleb128 0x3
 7205 00f8 0E       		.uleb128 0xe
 7206 00f9 0B       		.uleb128 0xb
 7207 00fa 05       		.uleb128 0x5
 7208 00fb 3A       		.uleb128 0x3a
 7209 00fc 0B       		.uleb128 0xb
 7210 00fd 3B       		.uleb128 0x3b
 7211 00fe 0B       		.uleb128 0xb
 7212 00ff 01       		.uleb128 0x1
 7213 0100 13       		.uleb128 0x13
 7214 0101 00       		.byte	0
 7215 0102 00       		.byte	0
 7216 0103 16       		.uleb128 0x16
 7217 0104 2E       		.uleb128 0x2e
 7218 0105 01       		.byte	0x1
 7219 0106 03       		.uleb128 0x3
 7220 0107 0E       		.uleb128 0xe
 7221 0108 3A       		.uleb128 0x3a
 7222 0109 0B       		.uleb128 0xb
 7223 010a 3B       		.uleb128 0x3b
ARM GAS  C:\Users\jenny\AppData\Local\Temp\ccUygzzS.s 			page 128


 7224 010b 0B       		.uleb128 0xb
 7225 010c 27       		.uleb128 0x27
 7226 010d 0C       		.uleb128 0xc
 7227 010e 49       		.uleb128 0x49
 7228 010f 13       		.uleb128 0x13
 7229 0110 20       		.uleb128 0x20
 7230 0111 0B       		.uleb128 0xb
 7231 0112 01       		.uleb128 0x1
 7232 0113 13       		.uleb128 0x13
 7233 0114 00       		.byte	0
 7234 0115 00       		.byte	0
 7235 0116 17       		.uleb128 0x17
 7236 0117 05       		.uleb128 0x5
 7237 0118 00       		.byte	0
 7238 0119 03       		.uleb128 0x3
 7239 011a 08       		.uleb128 0x8
 7240 011b 3A       		.uleb128 0x3a
 7241 011c 0B       		.uleb128 0xb
 7242 011d 3B       		.uleb128 0x3b
 7243 011e 0B       		.uleb128 0xb
 7244 011f 49       		.uleb128 0x49
 7245 0120 13       		.uleb128 0x13
 7246 0121 00       		.byte	0
 7247 0122 00       		.byte	0
 7248 0123 18       		.uleb128 0x18
 7249 0124 05       		.uleb128 0x5
 7250 0125 00       		.byte	0
 7251 0126 03       		.uleb128 0x3
 7252 0127 0E       		.uleb128 0xe
 7253 0128 3A       		.uleb128 0x3a
 7254 0129 0B       		.uleb128 0xb
 7255 012a 3B       		.uleb128 0x3b
 7256 012b 0B       		.uleb128 0xb
 7257 012c 49       		.uleb128 0x49
 7258 012d 13       		.uleb128 0x13
 7259 012e 00       		.byte	0
 7260 012f 00       		.byte	0
 7261 0130 19       		.uleb128 0x19
 7262 0131 34       		.uleb128 0x34
 7263 0132 00       		.byte	0
 7264 0133 03       		.uleb128 0x3
 7265 0134 0E       		.uleb128 0xe
 7266 0135 3A       		.uleb128 0x3a
 7267 0136 0B       		.uleb128 0xb
 7268 0137 3B       		.uleb128 0x3b
 7269 0138 0B       		.uleb128 0xb
 7270 0139 49       		.uleb128 0x49
 7271 013a 13       		.uleb128 0x13
 7272 013b 00       		.byte	0
 7273 013c 00       		.byte	0
 7274 013d 1A       		.uleb128 0x1a
 7275 013e 34       		.uleb128 0x34
 7276 013f 00       		.byte	0
 7277 0140 03       		.uleb128 0x3
 7278 0141 08       		.uleb128 0x8
 7279 0142 3A       		.uleb128 0x3a
 7280 0143 0B       		.uleb128 0xb
ARM GAS  C:\Users\jenny\AppData\Local\Temp\ccUygzzS.s 			page 129


 7281 0144 3B       		.uleb128 0x3b
 7282 0145 0B       		.uleb128 0xb
 7283 0146 49       		.uleb128 0x49
 7284 0147 13       		.uleb128 0x13
 7285 0148 00       		.byte	0
 7286 0149 00       		.byte	0
 7287 014a 1B       		.uleb128 0x1b
 7288 014b 2E       		.uleb128 0x2e
 7289 014c 01       		.byte	0x1
 7290 014d 03       		.uleb128 0x3
 7291 014e 0E       		.uleb128 0xe
 7292 014f 3A       		.uleb128 0x3a
 7293 0150 0B       		.uleb128 0xb
 7294 0151 3B       		.uleb128 0x3b
 7295 0152 0B       		.uleb128 0xb
 7296 0153 27       		.uleb128 0x27
 7297 0154 0C       		.uleb128 0xc
 7298 0155 49       		.uleb128 0x49
 7299 0156 13       		.uleb128 0x13
 7300 0157 11       		.uleb128 0x11
 7301 0158 01       		.uleb128 0x1
 7302 0159 12       		.uleb128 0x12
 7303 015a 01       		.uleb128 0x1
 7304 015b 40       		.uleb128 0x40
 7305 015c 06       		.uleb128 0x6
 7306 015d 9742     		.uleb128 0x2117
 7307 015f 0C       		.uleb128 0xc
 7308 0160 01       		.uleb128 0x1
 7309 0161 13       		.uleb128 0x13
 7310 0162 00       		.byte	0
 7311 0163 00       		.byte	0
 7312 0164 1C       		.uleb128 0x1c
 7313 0165 05       		.uleb128 0x5
 7314 0166 00       		.byte	0
 7315 0167 03       		.uleb128 0x3
 7316 0168 0E       		.uleb128 0xe
 7317 0169 3A       		.uleb128 0x3a
 7318 016a 0B       		.uleb128 0xb
 7319 016b 3B       		.uleb128 0x3b
 7320 016c 0B       		.uleb128 0xb
 7321 016d 49       		.uleb128 0x49
 7322 016e 13       		.uleb128 0x13
 7323 016f 02       		.uleb128 0x2
 7324 0170 06       		.uleb128 0x6
 7325 0171 00       		.byte	0
 7326 0172 00       		.byte	0
 7327 0173 1D       		.uleb128 0x1d
 7328 0174 05       		.uleb128 0x5
 7329 0175 00       		.byte	0
 7330 0176 03       		.uleb128 0x3
 7331 0177 08       		.uleb128 0x8
 7332 0178 3A       		.uleb128 0x3a
 7333 0179 0B       		.uleb128 0xb
 7334 017a 3B       		.uleb128 0x3b
 7335 017b 0B       		.uleb128 0xb
 7336 017c 49       		.uleb128 0x49
 7337 017d 13       		.uleb128 0x13
ARM GAS  C:\Users\jenny\AppData\Local\Temp\ccUygzzS.s 			page 130


 7338 017e 02       		.uleb128 0x2
 7339 017f 0A       		.uleb128 0xa
 7340 0180 00       		.byte	0
 7341 0181 00       		.byte	0
 7342 0182 1E       		.uleb128 0x1e
 7343 0183 05       		.uleb128 0x5
 7344 0184 00       		.byte	0
 7345 0185 03       		.uleb128 0x3
 7346 0186 0E       		.uleb128 0xe
 7347 0187 3A       		.uleb128 0x3a
 7348 0188 0B       		.uleb128 0xb
 7349 0189 3B       		.uleb128 0x3b
 7350 018a 0B       		.uleb128 0xb
 7351 018b 49       		.uleb128 0x49
 7352 018c 13       		.uleb128 0x13
 7353 018d 02       		.uleb128 0x2
 7354 018e 0A       		.uleb128 0xa
 7355 018f 00       		.byte	0
 7356 0190 00       		.byte	0
 7357 0191 1F       		.uleb128 0x1f
 7358 0192 34       		.uleb128 0x34
 7359 0193 00       		.byte	0
 7360 0194 03       		.uleb128 0x3
 7361 0195 08       		.uleb128 0x8
 7362 0196 3A       		.uleb128 0x3a
 7363 0197 0B       		.uleb128 0xb
 7364 0198 3B       		.uleb128 0x3b
 7365 0199 0B       		.uleb128 0xb
 7366 019a 49       		.uleb128 0x49
 7367 019b 13       		.uleb128 0x13
 7368 019c 02       		.uleb128 0x2
 7369 019d 06       		.uleb128 0x6
 7370 019e 00       		.byte	0
 7371 019f 00       		.byte	0
 7372 01a0 20       		.uleb128 0x20
 7373 01a1 34       		.uleb128 0x34
 7374 01a2 00       		.byte	0
 7375 01a3 03       		.uleb128 0x3
 7376 01a4 0E       		.uleb128 0xe
 7377 01a5 3A       		.uleb128 0x3a
 7378 01a6 0B       		.uleb128 0xb
 7379 01a7 3B       		.uleb128 0x3b
 7380 01a8 0B       		.uleb128 0xb
 7381 01a9 49       		.uleb128 0x49
 7382 01aa 13       		.uleb128 0x13
 7383 01ab 02       		.uleb128 0x2
 7384 01ac 06       		.uleb128 0x6
 7385 01ad 00       		.byte	0
 7386 01ae 00       		.byte	0
 7387 01af 21       		.uleb128 0x21
 7388 01b0 898201   		.uleb128 0x4109
 7389 01b3 01       		.byte	0x1
 7390 01b4 11       		.uleb128 0x11
 7391 01b5 01       		.uleb128 0x1
 7392 01b6 31       		.uleb128 0x31
 7393 01b7 13       		.uleb128 0x13
 7394 01b8 01       		.uleb128 0x1
ARM GAS  C:\Users\jenny\AppData\Local\Temp\ccUygzzS.s 			page 131


 7395 01b9 13       		.uleb128 0x13
 7396 01ba 00       		.byte	0
 7397 01bb 00       		.byte	0
 7398 01bc 22       		.uleb128 0x22
 7399 01bd 8A8201   		.uleb128 0x410a
 7400 01c0 00       		.byte	0
 7401 01c1 02       		.uleb128 0x2
 7402 01c2 0A       		.uleb128 0xa
 7403 01c3 9142     		.uleb128 0x2111
 7404 01c5 0A       		.uleb128 0xa
 7405 01c6 00       		.byte	0
 7406 01c7 00       		.byte	0
 7407 01c8 23       		.uleb128 0x23
 7408 01c9 898201   		.uleb128 0x4109
 7409 01cc 00       		.byte	0
 7410 01cd 11       		.uleb128 0x11
 7411 01ce 01       		.uleb128 0x1
 7412 01cf 31       		.uleb128 0x31
 7413 01d0 13       		.uleb128 0x13
 7414 01d1 00       		.byte	0
 7415 01d2 00       		.byte	0
 7416 01d3 24       		.uleb128 0x24
 7417 01d4 05       		.uleb128 0x5
 7418 01d5 00       		.byte	0
 7419 01d6 03       		.uleb128 0x3
 7420 01d7 08       		.uleb128 0x8
 7421 01d8 3A       		.uleb128 0x3a
 7422 01d9 0B       		.uleb128 0xb
 7423 01da 3B       		.uleb128 0x3b
 7424 01db 0B       		.uleb128 0xb
 7425 01dc 49       		.uleb128 0x49
 7426 01dd 13       		.uleb128 0x13
 7427 01de 02       		.uleb128 0x2
 7428 01df 06       		.uleb128 0x6
 7429 01e0 00       		.byte	0
 7430 01e1 00       		.byte	0
 7431 01e2 25       		.uleb128 0x25
 7432 01e3 898201   		.uleb128 0x4109
 7433 01e6 01       		.byte	0x1
 7434 01e7 11       		.uleb128 0x11
 7435 01e8 01       		.uleb128 0x1
 7436 01e9 31       		.uleb128 0x31
 7437 01ea 13       		.uleb128 0x13
 7438 01eb 00       		.byte	0
 7439 01ec 00       		.byte	0
 7440 01ed 26       		.uleb128 0x26
 7441 01ee 2E       		.uleb128 0x2e
 7442 01ef 01       		.byte	0x1
 7443 01f0 31       		.uleb128 0x31
 7444 01f1 13       		.uleb128 0x13
 7445 01f2 11       		.uleb128 0x11
 7446 01f3 01       		.uleb128 0x1
 7447 01f4 12       		.uleb128 0x12
 7448 01f5 01       		.uleb128 0x1
 7449 01f6 40       		.uleb128 0x40
 7450 01f7 06       		.uleb128 0x6
 7451 01f8 9742     		.uleb128 0x2117
ARM GAS  C:\Users\jenny\AppData\Local\Temp\ccUygzzS.s 			page 132


 7452 01fa 0C       		.uleb128 0xc
 7453 01fb 01       		.uleb128 0x1
 7454 01fc 13       		.uleb128 0x13
 7455 01fd 00       		.byte	0
 7456 01fe 00       		.byte	0
 7457 01ff 27       		.uleb128 0x27
 7458 0200 05       		.uleb128 0x5
 7459 0201 00       		.byte	0
 7460 0202 31       		.uleb128 0x31
 7461 0203 13       		.uleb128 0x13
 7462 0204 02       		.uleb128 0x2
 7463 0205 06       		.uleb128 0x6
 7464 0206 00       		.byte	0
 7465 0207 00       		.byte	0
 7466 0208 28       		.uleb128 0x28
 7467 0209 34       		.uleb128 0x34
 7468 020a 00       		.byte	0
 7469 020b 31       		.uleb128 0x31
 7470 020c 13       		.uleb128 0x13
 7471 020d 02       		.uleb128 0x2
 7472 020e 06       		.uleb128 0x6
 7473 020f 00       		.byte	0
 7474 0210 00       		.byte	0
 7475 0211 29       		.uleb128 0x29
 7476 0212 05       		.uleb128 0x5
 7477 0213 00       		.byte	0
 7478 0214 31       		.uleb128 0x31
 7479 0215 13       		.uleb128 0x13
 7480 0216 1C       		.uleb128 0x1c
 7481 0217 0B       		.uleb128 0xb
 7482 0218 00       		.byte	0
 7483 0219 00       		.byte	0
 7484 021a 2A       		.uleb128 0x2a
 7485 021b 2E       		.uleb128 0x2e
 7486 021c 01       		.byte	0x1
 7487 021d 03       		.uleb128 0x3
 7488 021e 0E       		.uleb128 0xe
 7489 021f 3A       		.uleb128 0x3a
 7490 0220 0B       		.uleb128 0xb
 7491 0221 3B       		.uleb128 0x3b
 7492 0222 05       		.uleb128 0x5
 7493 0223 27       		.uleb128 0x27
 7494 0224 0C       		.uleb128 0xc
 7495 0225 49       		.uleb128 0x49
 7496 0226 13       		.uleb128 0x13
 7497 0227 20       		.uleb128 0x20
 7498 0228 0B       		.uleb128 0xb
 7499 0229 01       		.uleb128 0x1
 7500 022a 13       		.uleb128 0x13
 7501 022b 00       		.byte	0
 7502 022c 00       		.byte	0
 7503 022d 2B       		.uleb128 0x2b
 7504 022e 05       		.uleb128 0x5
 7505 022f 00       		.byte	0
 7506 0230 03       		.uleb128 0x3
 7507 0231 08       		.uleb128 0x8
 7508 0232 3A       		.uleb128 0x3a
ARM GAS  C:\Users\jenny\AppData\Local\Temp\ccUygzzS.s 			page 133


 7509 0233 0B       		.uleb128 0xb
 7510 0234 3B       		.uleb128 0x3b
 7511 0235 05       		.uleb128 0x5
 7512 0236 49       		.uleb128 0x49
 7513 0237 13       		.uleb128 0x13
 7514 0238 00       		.byte	0
 7515 0239 00       		.byte	0
 7516 023a 2C       		.uleb128 0x2c
 7517 023b 2E       		.uleb128 0x2e
 7518 023c 01       		.byte	0x1
 7519 023d 3F       		.uleb128 0x3f
 7520 023e 0C       		.uleb128 0xc
 7521 023f 03       		.uleb128 0x3
 7522 0240 0E       		.uleb128 0xe
 7523 0241 3A       		.uleb128 0x3a
 7524 0242 0B       		.uleb128 0xb
 7525 0243 3B       		.uleb128 0x3b
 7526 0244 05       		.uleb128 0x5
 7527 0245 27       		.uleb128 0x27
 7528 0246 0C       		.uleb128 0xc
 7529 0247 49       		.uleb128 0x49
 7530 0248 13       		.uleb128 0x13
 7531 0249 11       		.uleb128 0x11
 7532 024a 01       		.uleb128 0x1
 7533 024b 12       		.uleb128 0x12
 7534 024c 01       		.uleb128 0x1
 7535 024d 40       		.uleb128 0x40
 7536 024e 06       		.uleb128 0x6
 7537 024f 9742     		.uleb128 0x2117
 7538 0251 0C       		.uleb128 0xc
 7539 0252 01       		.uleb128 0x1
 7540 0253 13       		.uleb128 0x13
 7541 0254 00       		.byte	0
 7542 0255 00       		.byte	0
 7543 0256 2D       		.uleb128 0x2d
 7544 0257 05       		.uleb128 0x5
 7545 0258 00       		.byte	0
 7546 0259 03       		.uleb128 0x3
 7547 025a 08       		.uleb128 0x8
 7548 025b 3A       		.uleb128 0x3a
 7549 025c 0B       		.uleb128 0xb
 7550 025d 3B       		.uleb128 0x3b
 7551 025e 05       		.uleb128 0x5
 7552 025f 49       		.uleb128 0x49
 7553 0260 13       		.uleb128 0x13
 7554 0261 02       		.uleb128 0x2
 7555 0262 06       		.uleb128 0x6
 7556 0263 00       		.byte	0
 7557 0264 00       		.byte	0
 7558 0265 2E       		.uleb128 0x2e
 7559 0266 05       		.uleb128 0x5
 7560 0267 00       		.byte	0
 7561 0268 03       		.uleb128 0x3
 7562 0269 0E       		.uleb128 0xe
 7563 026a 3A       		.uleb128 0x3a
 7564 026b 0B       		.uleb128 0xb
 7565 026c 3B       		.uleb128 0x3b
ARM GAS  C:\Users\jenny\AppData\Local\Temp\ccUygzzS.s 			page 134


 7566 026d 05       		.uleb128 0x5
 7567 026e 49       		.uleb128 0x49
 7568 026f 13       		.uleb128 0x13
 7569 0270 02       		.uleb128 0x2
 7570 0271 06       		.uleb128 0x6
 7571 0272 00       		.byte	0
 7572 0273 00       		.byte	0
 7573 0274 2F       		.uleb128 0x2f
 7574 0275 34       		.uleb128 0x34
 7575 0276 00       		.byte	0
 7576 0277 03       		.uleb128 0x3
 7577 0278 0E       		.uleb128 0xe
 7578 0279 3A       		.uleb128 0x3a
 7579 027a 0B       		.uleb128 0xb
 7580 027b 3B       		.uleb128 0x3b
 7581 027c 05       		.uleb128 0x5
 7582 027d 49       		.uleb128 0x49
 7583 027e 13       		.uleb128 0x13
 7584 027f 02       		.uleb128 0x2
 7585 0280 06       		.uleb128 0x6
 7586 0281 00       		.byte	0
 7587 0282 00       		.byte	0
 7588 0283 30       		.uleb128 0x30
 7589 0284 34       		.uleb128 0x34
 7590 0285 00       		.byte	0
 7591 0286 03       		.uleb128 0x3
 7592 0287 08       		.uleb128 0x8
 7593 0288 3A       		.uleb128 0x3a
 7594 0289 0B       		.uleb128 0xb
 7595 028a 3B       		.uleb128 0x3b
 7596 028b 05       		.uleb128 0x5
 7597 028c 49       		.uleb128 0x49
 7598 028d 13       		.uleb128 0x13
 7599 028e 02       		.uleb128 0x2
 7600 028f 06       		.uleb128 0x6
 7601 0290 00       		.byte	0
 7602 0291 00       		.byte	0
 7603 0292 31       		.uleb128 0x31
 7604 0293 34       		.uleb128 0x34
 7605 0294 00       		.byte	0
 7606 0295 03       		.uleb128 0x3
 7607 0296 0E       		.uleb128 0xe
 7608 0297 3A       		.uleb128 0x3a
 7609 0298 0B       		.uleb128 0xb
 7610 0299 3B       		.uleb128 0x3b
 7611 029a 05       		.uleb128 0x5
 7612 029b 49       		.uleb128 0x49
 7613 029c 13       		.uleb128 0x13
 7614 029d 1C       		.uleb128 0x1c
 7615 029e 0B       		.uleb128 0xb
 7616 029f 00       		.byte	0
 7617 02a0 00       		.byte	0
 7618 02a1 32       		.uleb128 0x32
 7619 02a2 34       		.uleb128 0x34
 7620 02a3 00       		.byte	0
 7621 02a4 03       		.uleb128 0x3
 7622 02a5 08       		.uleb128 0x8
ARM GAS  C:\Users\jenny\AppData\Local\Temp\ccUygzzS.s 			page 135


 7623 02a6 3A       		.uleb128 0x3a
 7624 02a7 0B       		.uleb128 0xb
 7625 02a8 3B       		.uleb128 0x3b
 7626 02a9 05       		.uleb128 0x5
 7627 02aa 49       		.uleb128 0x49
 7628 02ab 13       		.uleb128 0x13
 7629 02ac 02       		.uleb128 0x2
 7630 02ad 0A       		.uleb128 0xa
 7631 02ae 00       		.byte	0
 7632 02af 00       		.byte	0
 7633 02b0 33       		.uleb128 0x33
 7634 02b1 34       		.uleb128 0x34
 7635 02b2 00       		.byte	0
 7636 02b3 03       		.uleb128 0x3
 7637 02b4 0E       		.uleb128 0xe
 7638 02b5 3A       		.uleb128 0x3a
 7639 02b6 0B       		.uleb128 0xb
 7640 02b7 3B       		.uleb128 0x3b
 7641 02b8 05       		.uleb128 0x5
 7642 02b9 49       		.uleb128 0x49
 7643 02ba 13       		.uleb128 0x13
 7644 02bb 02       		.uleb128 0x2
 7645 02bc 0A       		.uleb128 0xa
 7646 02bd 00       		.byte	0
 7647 02be 00       		.byte	0
 7648 02bf 34       		.uleb128 0x34
 7649 02c0 0A       		.uleb128 0xa
 7650 02c1 00       		.byte	0
 7651 02c2 03       		.uleb128 0x3
 7652 02c3 0E       		.uleb128 0xe
 7653 02c4 3A       		.uleb128 0x3a
 7654 02c5 0B       		.uleb128 0xb
 7655 02c6 3B       		.uleb128 0x3b
 7656 02c7 05       		.uleb128 0x5
 7657 02c8 11       		.uleb128 0x11
 7658 02c9 01       		.uleb128 0x1
 7659 02ca 00       		.byte	0
 7660 02cb 00       		.byte	0
 7661 02cc 35       		.uleb128 0x35
 7662 02cd 1D       		.uleb128 0x1d
 7663 02ce 01       		.byte	0x1
 7664 02cf 31       		.uleb128 0x31
 7665 02d0 13       		.uleb128 0x13
 7666 02d1 52       		.uleb128 0x52
 7667 02d2 01       		.uleb128 0x1
 7668 02d3 55       		.uleb128 0x55
 7669 02d4 06       		.uleb128 0x6
 7670 02d5 58       		.uleb128 0x58
 7671 02d6 0B       		.uleb128 0xb
 7672 02d7 59       		.uleb128 0x59
 7673 02d8 05       		.uleb128 0x5
 7674 02d9 01       		.uleb128 0x1
 7675 02da 13       		.uleb128 0x13
 7676 02db 00       		.byte	0
 7677 02dc 00       		.byte	0
 7678 02dd 36       		.uleb128 0x36
 7679 02de 0B       		.uleb128 0xb
ARM GAS  C:\Users\jenny\AppData\Local\Temp\ccUygzzS.s 			page 136


 7680 02df 01       		.byte	0x1
 7681 02e0 55       		.uleb128 0x55
 7682 02e1 06       		.uleb128 0x6
 7683 02e2 01       		.uleb128 0x1
 7684 02e3 13       		.uleb128 0x13
 7685 02e4 00       		.byte	0
 7686 02e5 00       		.byte	0
 7687 02e6 37       		.uleb128 0x37
 7688 02e7 26       		.uleb128 0x26
 7689 02e8 00       		.byte	0
 7690 02e9 00       		.byte	0
 7691 02ea 00       		.byte	0
 7692 02eb 38       		.uleb128 0x38
 7693 02ec 0B       		.uleb128 0xb
 7694 02ed 01       		.byte	0x1
 7695 02ee 11       		.uleb128 0x11
 7696 02ef 01       		.uleb128 0x1
 7697 02f0 12       		.uleb128 0x12
 7698 02f1 01       		.uleb128 0x1
 7699 02f2 01       		.uleb128 0x1
 7700 02f3 13       		.uleb128 0x13
 7701 02f4 00       		.byte	0
 7702 02f5 00       		.byte	0
 7703 02f6 39       		.uleb128 0x39
 7704 02f7 2E       		.uleb128 0x2e
 7705 02f8 01       		.byte	0x1
 7706 02f9 3F       		.uleb128 0x3f
 7707 02fa 0C       		.uleb128 0xc
 7708 02fb 03       		.uleb128 0x3
 7709 02fc 0E       		.uleb128 0xe
 7710 02fd 3A       		.uleb128 0x3a
 7711 02fe 0B       		.uleb128 0xb
 7712 02ff 3B       		.uleb128 0x3b
 7713 0300 0B       		.uleb128 0xb
 7714 0301 27       		.uleb128 0x27
 7715 0302 0C       		.uleb128 0xc
 7716 0303 49       		.uleb128 0x49
 7717 0304 13       		.uleb128 0x13
 7718 0305 11       		.uleb128 0x11
 7719 0306 01       		.uleb128 0x1
 7720 0307 12       		.uleb128 0x12
 7721 0308 01       		.uleb128 0x1
 7722 0309 40       		.uleb128 0x40
 7723 030a 06       		.uleb128 0x6
 7724 030b 9742     		.uleb128 0x2117
 7725 030d 0C       		.uleb128 0xc
 7726 030e 01       		.uleb128 0x1
 7727 030f 13       		.uleb128 0x13
 7728 0310 00       		.byte	0
 7729 0311 00       		.byte	0
 7730 0312 3A       		.uleb128 0x3a
 7731 0313 898201   		.uleb128 0x4109
 7732 0316 01       		.byte	0x1
 7733 0317 11       		.uleb128 0x11
 7734 0318 01       		.uleb128 0x1
 7735 0319 9542     		.uleb128 0x2115
 7736 031b 0C       		.uleb128 0xc
ARM GAS  C:\Users\jenny\AppData\Local\Temp\ccUygzzS.s 			page 137


 7737 031c 31       		.uleb128 0x31
 7738 031d 13       		.uleb128 0x13
 7739 031e 00       		.byte	0
 7740 031f 00       		.byte	0
 7741 0320 3B       		.uleb128 0x3b
 7742 0321 2E       		.uleb128 0x2e
 7743 0322 01       		.byte	0x1
 7744 0323 03       		.uleb128 0x3
 7745 0324 0E       		.uleb128 0xe
 7746 0325 3A       		.uleb128 0x3a
 7747 0326 0B       		.uleb128 0xb
 7748 0327 3B       		.uleb128 0x3b
 7749 0328 05       		.uleb128 0x5
 7750 0329 27       		.uleb128 0x27
 7751 032a 0C       		.uleb128 0xc
 7752 032b 20       		.uleb128 0x20
 7753 032c 0B       		.uleb128 0xb
 7754 032d 01       		.uleb128 0x1
 7755 032e 13       		.uleb128 0x13
 7756 032f 00       		.byte	0
 7757 0330 00       		.byte	0
 7758 0331 3C       		.uleb128 0x3c
 7759 0332 34       		.uleb128 0x34
 7760 0333 00       		.byte	0
 7761 0334 03       		.uleb128 0x3
 7762 0335 08       		.uleb128 0x8
 7763 0336 3A       		.uleb128 0x3a
 7764 0337 0B       		.uleb128 0xb
 7765 0338 3B       		.uleb128 0x3b
 7766 0339 05       		.uleb128 0x5
 7767 033a 49       		.uleb128 0x49
 7768 033b 13       		.uleb128 0x13
 7769 033c 00       		.byte	0
 7770 033d 00       		.byte	0
 7771 033e 3D       		.uleb128 0x3d
 7772 033f 34       		.uleb128 0x34
 7773 0340 00       		.byte	0
 7774 0341 03       		.uleb128 0x3
 7775 0342 0E       		.uleb128 0xe
 7776 0343 3A       		.uleb128 0x3a
 7777 0344 0B       		.uleb128 0xb
 7778 0345 3B       		.uleb128 0x3b
 7779 0346 05       		.uleb128 0x5
 7780 0347 49       		.uleb128 0x49
 7781 0348 13       		.uleb128 0x13
 7782 0349 00       		.byte	0
 7783 034a 00       		.byte	0
 7784 034b 3E       		.uleb128 0x3e
 7785 034c 0B       		.uleb128 0xb
 7786 034d 01       		.byte	0x1
 7787 034e 00       		.byte	0
 7788 034f 00       		.byte	0
 7789 0350 3F       		.uleb128 0x3f
 7790 0351 0B       		.uleb128 0xb
 7791 0352 01       		.byte	0x1
 7792 0353 55       		.uleb128 0x55
 7793 0354 06       		.uleb128 0x6
ARM GAS  C:\Users\jenny\AppData\Local\Temp\ccUygzzS.s 			page 138


 7794 0355 00       		.byte	0
 7795 0356 00       		.byte	0
 7796 0357 40       		.uleb128 0x40
 7797 0358 898201   		.uleb128 0x4109
 7798 035b 01       		.byte	0x1
 7799 035c 11       		.uleb128 0x11
 7800 035d 01       		.uleb128 0x1
 7801 035e 9542     		.uleb128 0x2115
 7802 0360 0C       		.uleb128 0xc
 7803 0361 31       		.uleb128 0x31
 7804 0362 13       		.uleb128 0x13
 7805 0363 01       		.uleb128 0x1
 7806 0364 13       		.uleb128 0x13
 7807 0365 00       		.byte	0
 7808 0366 00       		.byte	0
 7809 0367 41       		.uleb128 0x41
 7810 0368 2E       		.uleb128 0x2e
 7811 0369 01       		.byte	0x1
 7812 036a 3F       		.uleb128 0x3f
 7813 036b 0C       		.uleb128 0xc
 7814 036c 03       		.uleb128 0x3
 7815 036d 0E       		.uleb128 0xe
 7816 036e 3A       		.uleb128 0x3a
 7817 036f 0B       		.uleb128 0xb
 7818 0370 3B       		.uleb128 0x3b
 7819 0371 05       		.uleb128 0x5
 7820 0372 27       		.uleb128 0x27
 7821 0373 0C       		.uleb128 0xc
 7822 0374 11       		.uleb128 0x11
 7823 0375 01       		.uleb128 0x1
 7824 0376 12       		.uleb128 0x12
 7825 0377 01       		.uleb128 0x1
 7826 0378 40       		.uleb128 0x40
 7827 0379 06       		.uleb128 0x6
 7828 037a 9742     		.uleb128 0x2117
 7829 037c 0C       		.uleb128 0xc
 7830 037d 01       		.uleb128 0x1
 7831 037e 13       		.uleb128 0x13
 7832 037f 00       		.byte	0
 7833 0380 00       		.byte	0
 7834 0381 42       		.uleb128 0x42
 7835 0382 05       		.uleb128 0x5
 7836 0383 00       		.byte	0
 7837 0384 03       		.uleb128 0x3
 7838 0385 0E       		.uleb128 0xe
 7839 0386 3A       		.uleb128 0x3a
 7840 0387 0B       		.uleb128 0xb
 7841 0388 3B       		.uleb128 0x3b
 7842 0389 05       		.uleb128 0x5
 7843 038a 49       		.uleb128 0x49
 7844 038b 13       		.uleb128 0x13
 7845 038c 02       		.uleb128 0x2
 7846 038d 0A       		.uleb128 0xa
 7847 038e 00       		.byte	0
 7848 038f 00       		.byte	0
 7849 0390 43       		.uleb128 0x43
 7850 0391 34       		.uleb128 0x34
ARM GAS  C:\Users\jenny\AppData\Local\Temp\ccUygzzS.s 			page 139


 7851 0392 00       		.byte	0
 7852 0393 03       		.uleb128 0x3
 7853 0394 0E       		.uleb128 0xe
 7854 0395 3A       		.uleb128 0x3a
 7855 0396 0B       		.uleb128 0xb
 7856 0397 3B       		.uleb128 0x3b
 7857 0398 05       		.uleb128 0x5
 7858 0399 49       		.uleb128 0x49
 7859 039a 13       		.uleb128 0x13
 7860 039b 3F       		.uleb128 0x3f
 7861 039c 0C       		.uleb128 0xc
 7862 039d 3C       		.uleb128 0x3c
 7863 039e 0C       		.uleb128 0xc
 7864 039f 00       		.byte	0
 7865 03a0 00       		.byte	0
 7866 03a1 44       		.uleb128 0x44
 7867 03a2 34       		.uleb128 0x34
 7868 03a3 00       		.byte	0
 7869 03a4 03       		.uleb128 0x3
 7870 03a5 0E       		.uleb128 0xe
 7871 03a6 3A       		.uleb128 0x3a
 7872 03a7 0B       		.uleb128 0xb
 7873 03a8 3B       		.uleb128 0x3b
 7874 03a9 0B       		.uleb128 0xb
 7875 03aa 49       		.uleb128 0x49
 7876 03ab 13       		.uleb128 0x13
 7877 03ac 3F       		.uleb128 0x3f
 7878 03ad 0C       		.uleb128 0xc
 7879 03ae 3C       		.uleb128 0x3c
 7880 03af 0C       		.uleb128 0xc
 7881 03b0 00       		.byte	0
 7882 03b1 00       		.byte	0
 7883 03b2 45       		.uleb128 0x45
 7884 03b3 2E       		.uleb128 0x2e
 7885 03b4 01       		.byte	0x1
 7886 03b5 3F       		.uleb128 0x3f
 7887 03b6 0C       		.uleb128 0xc
 7888 03b7 03       		.uleb128 0x3
 7889 03b8 0E       		.uleb128 0xe
 7890 03b9 3A       		.uleb128 0x3a
 7891 03ba 0B       		.uleb128 0xb
 7892 03bb 3B       		.uleb128 0x3b
 7893 03bc 0B       		.uleb128 0xb
 7894 03bd 27       		.uleb128 0x27
 7895 03be 0C       		.uleb128 0xc
 7896 03bf 49       		.uleb128 0x49
 7897 03c0 13       		.uleb128 0x13
 7898 03c1 3C       		.uleb128 0x3c
 7899 03c2 0C       		.uleb128 0xc
 7900 03c3 01       		.uleb128 0x1
 7901 03c4 13       		.uleb128 0x13
 7902 03c5 00       		.byte	0
 7903 03c6 00       		.byte	0
 7904 03c7 46       		.uleb128 0x46
 7905 03c8 2E       		.uleb128 0x2e
 7906 03c9 00       		.byte	0
 7907 03ca 3F       		.uleb128 0x3f
ARM GAS  C:\Users\jenny\AppData\Local\Temp\ccUygzzS.s 			page 140


 7908 03cb 0C       		.uleb128 0xc
 7909 03cc 03       		.uleb128 0x3
 7910 03cd 0E       		.uleb128 0xe
 7911 03ce 3A       		.uleb128 0x3a
 7912 03cf 0B       		.uleb128 0xb
 7913 03d0 3B       		.uleb128 0x3b
 7914 03d1 05       		.uleb128 0x5
 7915 03d2 27       		.uleb128 0x27
 7916 03d3 0C       		.uleb128 0xc
 7917 03d4 3C       		.uleb128 0x3c
 7918 03d5 0C       		.uleb128 0xc
 7919 03d6 00       		.byte	0
 7920 03d7 00       		.byte	0
 7921 03d8 47       		.uleb128 0x47
 7922 03d9 2E       		.uleb128 0x2e
 7923 03da 01       		.byte	0x1
 7924 03db 3F       		.uleb128 0x3f
 7925 03dc 0C       		.uleb128 0xc
 7926 03dd 03       		.uleb128 0x3
 7927 03de 0E       		.uleb128 0xe
 7928 03df 3A       		.uleb128 0x3a
 7929 03e0 0B       		.uleb128 0xb
 7930 03e1 3B       		.uleb128 0x3b
 7931 03e2 05       		.uleb128 0x5
 7932 03e3 27       		.uleb128 0x27
 7933 03e4 0C       		.uleb128 0xc
 7934 03e5 3C       		.uleb128 0x3c
 7935 03e6 0C       		.uleb128 0xc
 7936 03e7 01       		.uleb128 0x1
 7937 03e8 13       		.uleb128 0x13
 7938 03e9 00       		.byte	0
 7939 03ea 00       		.byte	0
 7940 03eb 48       		.uleb128 0x48
 7941 03ec 2E       		.uleb128 0x2e
 7942 03ed 01       		.byte	0x1
 7943 03ee 3F       		.uleb128 0x3f
 7944 03ef 0C       		.uleb128 0xc
 7945 03f0 03       		.uleb128 0x3
 7946 03f1 0E       		.uleb128 0xe
 7947 03f2 27       		.uleb128 0x27
 7948 03f3 0C       		.uleb128 0xc
 7949 03f4 49       		.uleb128 0x49
 7950 03f5 13       		.uleb128 0x13
 7951 03f6 34       		.uleb128 0x34
 7952 03f7 0C       		.uleb128 0xc
 7953 03f8 3C       		.uleb128 0x3c
 7954 03f9 0C       		.uleb128 0xc
 7955 03fa 01       		.uleb128 0x1
 7956 03fb 13       		.uleb128 0x13
 7957 03fc 00       		.byte	0
 7958 03fd 00       		.byte	0
 7959 03fe 49       		.uleb128 0x49
 7960 03ff 2E       		.uleb128 0x2e
 7961 0400 01       		.byte	0x1
 7962 0401 3F       		.uleb128 0x3f
 7963 0402 0C       		.uleb128 0xc
 7964 0403 03       		.uleb128 0x3
ARM GAS  C:\Users\jenny\AppData\Local\Temp\ccUygzzS.s 			page 141


 7965 0404 0E       		.uleb128 0xe
 7966 0405 3A       		.uleb128 0x3a
 7967 0406 0B       		.uleb128 0xb
 7968 0407 3B       		.uleb128 0x3b
 7969 0408 0B       		.uleb128 0xb
 7970 0409 27       		.uleb128 0x27
 7971 040a 0C       		.uleb128 0xc
 7972 040b 3C       		.uleb128 0x3c
 7973 040c 0C       		.uleb128 0xc
 7974 040d 01       		.uleb128 0x1
 7975 040e 13       		.uleb128 0x13
 7976 040f 00       		.byte	0
 7977 0410 00       		.byte	0
 7978 0411 4A       		.uleb128 0x4a
 7979 0412 2E       		.uleb128 0x2e
 7980 0413 01       		.byte	0x1
 7981 0414 3F       		.uleb128 0x3f
 7982 0415 0C       		.uleb128 0xc
 7983 0416 03       		.uleb128 0x3
 7984 0417 0E       		.uleb128 0xe
 7985 0418 3A       		.uleb128 0x3a
 7986 0419 0B       		.uleb128 0xb
 7987 041a 3B       		.uleb128 0x3b
 7988 041b 05       		.uleb128 0x5
 7989 041c 27       		.uleb128 0x27
 7990 041d 0C       		.uleb128 0xc
 7991 041e 49       		.uleb128 0x49
 7992 041f 13       		.uleb128 0x13
 7993 0420 3C       		.uleb128 0x3c
 7994 0421 0C       		.uleb128 0xc
 7995 0422 01       		.uleb128 0x1
 7996 0423 13       		.uleb128 0x13
 7997 0424 00       		.byte	0
 7998 0425 00       		.byte	0
 7999 0426 4B       		.uleb128 0x4b
 8000 0427 2E       		.uleb128 0x2e
 8001 0428 01       		.byte	0x1
 8002 0429 3F       		.uleb128 0x3f
 8003 042a 0C       		.uleb128 0xc
 8004 042b 03       		.uleb128 0x3
 8005 042c 0E       		.uleb128 0xe
 8006 042d 3A       		.uleb128 0x3a
 8007 042e 0B       		.uleb128 0xb
 8008 042f 3B       		.uleb128 0x3b
 8009 0430 0B       		.uleb128 0xb
 8010 0431 27       		.uleb128 0x27
 8011 0432 0C       		.uleb128 0xc
 8012 0433 49       		.uleb128 0x49
 8013 0434 13       		.uleb128 0x13
 8014 0435 3C       		.uleb128 0x3c
 8015 0436 0C       		.uleb128 0xc
 8016 0437 00       		.byte	0
 8017 0438 00       		.byte	0
 8018 0439 00       		.byte	0
 8019              		.section	.debug_loc,"",%progbits
 8020              	.Ldebug_loc0:
 8021              	.LLST0:
ARM GAS  C:\Users\jenny\AppData\Local\Temp\ccUygzzS.s 			page 142


 8022 0000 00000000 		.4byte	.LFB10
 8023 0004 04000000 		.4byte	.LCFI0
 8024 0008 0200     		.2byte	0x2
 8025 000a 7D       		.byte	0x7d
 8026 000b 00       		.sleb128 0
 8027 000c 04000000 		.4byte	.LCFI0
 8028 0010 6C000000 		.4byte	.LFE10
 8029 0014 0200     		.2byte	0x2
 8030 0016 7D       		.byte	0x7d
 8031 0017 10       		.sleb128 16
 8032 0018 00000000 		.4byte	0
 8033 001c 00000000 		.4byte	0
 8034              	.LLST1:
 8035 0020 00000000 		.4byte	.LVL0
 8036 0024 3B000000 		.4byte	.LVL8-1
 8037 0028 0100     		.2byte	0x1
 8038 002a 50       		.byte	0x50
 8039 002b 3B000000 		.4byte	.LVL8-1
 8040 002f 56000000 		.4byte	.LVL11
 8041 0033 0400     		.2byte	0x4
 8042 0035 F3       		.byte	0xf3
 8043 0036 01       		.uleb128 0x1
 8044 0037 50       		.byte	0x50
 8045 0038 9F       		.byte	0x9f
 8046 0039 56000000 		.4byte	.LVL11
 8047 003d 6C000000 		.4byte	.LFE10
 8048 0041 0100     		.2byte	0x1
 8049 0043 50       		.byte	0x50
 8050 0044 00000000 		.4byte	0
 8051 0048 00000000 		.4byte	0
 8052              	.LLST2:
 8053 004c 00000000 		.4byte	.LVL0
 8054 0050 12000000 		.4byte	.LVL3
 8055 0054 0100     		.2byte	0x1
 8056 0056 51       		.byte	0x51
 8057 0057 12000000 		.4byte	.LVL3
 8058 005b 6C000000 		.4byte	.LFE10
 8059 005f 0400     		.2byte	0x4
 8060 0061 F3       		.byte	0xf3
 8061 0062 01       		.uleb128 0x1
 8062 0063 51       		.byte	0x51
 8063 0064 9F       		.byte	0x9f
 8064 0065 00000000 		.4byte	0
 8065 0069 00000000 		.4byte	0
 8066              	.LLST3:
 8067 006d 00000000 		.4byte	.LVL0
 8068 0071 24000000 		.4byte	.LVL4
 8069 0075 0100     		.2byte	0x1
 8070 0077 52       		.byte	0x52
 8071 0078 24000000 		.4byte	.LVL4
 8072 007c 28000000 		.4byte	.LVL6
 8073 0080 0400     		.2byte	0x4
 8074 0082 F3       		.byte	0xf3
 8075 0083 01       		.uleb128 0x1
 8076 0084 52       		.byte	0x52
 8077 0085 9F       		.byte	0x9f
 8078 0086 28000000 		.4byte	.LVL6
ARM GAS  C:\Users\jenny\AppData\Local\Temp\ccUygzzS.s 			page 143


 8079 008a 36000000 		.4byte	.LVL7
 8080 008e 0100     		.2byte	0x1
 8081 0090 52       		.byte	0x52
 8082 0091 36000000 		.4byte	.LVL7
 8083 0095 56000000 		.4byte	.LVL11
 8084 0099 0400     		.2byte	0x4
 8085 009b F3       		.byte	0xf3
 8086 009c 01       		.uleb128 0x1
 8087 009d 52       		.byte	0x52
 8088 009e 9F       		.byte	0x9f
 8089 009f 56000000 		.4byte	.LVL11
 8090 00a3 6C000000 		.4byte	.LFE10
 8091 00a7 0100     		.2byte	0x1
 8092 00a9 52       		.byte	0x52
 8093 00aa 00000000 		.4byte	0
 8094 00ae 00000000 		.4byte	0
 8095              	.LLST4:
 8096 00b2 00000000 		.4byte	.LVL0
 8097 00b6 0E000000 		.4byte	.LVL2
 8098 00ba 0100     		.2byte	0x1
 8099 00bc 53       		.byte	0x53
 8100 00bd 0E000000 		.4byte	.LVL2
 8101 00c1 6C000000 		.4byte	.LFE10
 8102 00c5 0100     		.2byte	0x1
 8103 00c7 56       		.byte	0x56
 8104 00c8 00000000 		.4byte	0
 8105 00cc 00000000 		.4byte	0
 8106              	.LLST5:
 8107 00d0 3C000000 		.4byte	.LVL8
 8108 00d4 42000000 		.4byte	.LVL9
 8109 00d8 0100     		.2byte	0x1
 8110 00da 50       		.byte	0x50
 8111 00db 42000000 		.4byte	.LVL9
 8112 00df 56000000 		.4byte	.LVL11
 8113 00e3 0100     		.2byte	0x1
 8114 00e5 54       		.byte	0x54
 8115 00e6 00000000 		.4byte	0
 8116 00ea 00000000 		.4byte	0
 8117              	.LLST6:
 8118 00ee 06000000 		.4byte	.LVL1
 8119 00f2 12000000 		.4byte	.LVL3
 8120 00f6 0100     		.2byte	0x1
 8121 00f8 51       		.byte	0x51
 8122 00f9 12000000 		.4byte	.LVL3
 8123 00fd 26000000 		.4byte	.LVL5
 8124 0101 0100     		.2byte	0x1
 8125 0103 55       		.byte	0x55
 8126 0104 26000000 		.4byte	.LVL5
 8127 0108 28000000 		.4byte	.LVL6
 8128 010c 0100     		.2byte	0x1
 8129 010e 52       		.byte	0x52
 8130 010f 28000000 		.4byte	.LVL6
 8131 0113 36000000 		.4byte	.LVL7
 8132 0117 0100     		.2byte	0x1
 8133 0119 55       		.byte	0x55
 8134 011a 36000000 		.4byte	.LVL7
 8135 011e 3B000000 		.4byte	.LVL8-1
ARM GAS  C:\Users\jenny\AppData\Local\Temp\ccUygzzS.s 			page 144


 8136 0122 0100     		.2byte	0x1
 8137 0124 51       		.byte	0x51
 8138 0125 56000000 		.4byte	.LVL11
 8139 0129 6C000000 		.4byte	.LFE10
 8140 012d 0100     		.2byte	0x1
 8141 012f 55       		.byte	0x55
 8142 0130 00000000 		.4byte	0
 8143 0134 00000000 		.4byte	0
 8144              	.LLST7:
 8145 0138 00000000 		.4byte	.LFB9
 8146 013c 04000000 		.4byte	.LCFI1
 8147 0140 0200     		.2byte	0x2
 8148 0142 7D       		.byte	0x7d
 8149 0143 00       		.sleb128 0
 8150 0144 04000000 		.4byte	.LCFI1
 8151 0148 BC000000 		.4byte	.LFE9
 8152 014c 0200     		.2byte	0x2
 8153 014e 7D       		.byte	0x7d
 8154 014f 28       		.sleb128 40
 8155 0150 00000000 		.4byte	0
 8156 0154 00000000 		.4byte	0
 8157              	.LLST8:
 8158 0158 00000000 		.4byte	.LVL12
 8159 015c 1C000000 		.4byte	.LVL13
 8160 0160 0100     		.2byte	0x1
 8161 0162 50       		.byte	0x50
 8162 0163 1C000000 		.4byte	.LVL13
 8163 0167 BC000000 		.4byte	.LFE9
 8164 016b 0100     		.2byte	0x1
 8165 016d 58       		.byte	0x58
 8166 016e 00000000 		.4byte	0
 8167 0172 00000000 		.4byte	0
 8168              	.LLST9:
 8169 0176 00000000 		.4byte	.LVL12
 8170 017a 2D000000 		.4byte	.LVL14-1
 8171 017e 0100     		.2byte	0x1
 8172 0180 51       		.byte	0x51
 8173 0181 2D000000 		.4byte	.LVL14-1
 8174 0185 5C000000 		.4byte	.LVL18
 8175 0189 0100     		.2byte	0x1
 8176 018b 56       		.byte	0x56
 8177 018c 5C000000 		.4byte	.LVL18
 8178 0190 98000000 		.4byte	.LVL25
 8179 0194 0400     		.2byte	0x4
 8180 0196 F3       		.byte	0xf3
 8181 0197 01       		.uleb128 0x1
 8182 0198 51       		.byte	0x51
 8183 0199 9F       		.byte	0x9f
 8184 019a 98000000 		.4byte	.LVL25
 8185 019e BC000000 		.4byte	.LFE9
 8186 01a2 0100     		.2byte	0x1
 8187 01a4 56       		.byte	0x56
 8188 01a5 00000000 		.4byte	0
 8189 01a9 00000000 		.4byte	0
 8190              	.LLST10:
 8191 01ad 00000000 		.4byte	.LVL12
 8192 01b1 2D000000 		.4byte	.LVL14-1
ARM GAS  C:\Users\jenny\AppData\Local\Temp\ccUygzzS.s 			page 145


 8193 01b5 0100     		.2byte	0x1
 8194 01b7 52       		.byte	0x52
 8195 01b8 2D000000 		.4byte	.LVL14-1
 8196 01bc BC000000 		.4byte	.LFE9
 8197 01c0 0400     		.2byte	0x4
 8198 01c2 F3       		.byte	0xf3
 8199 01c3 01       		.uleb128 0x1
 8200 01c4 52       		.byte	0x52
 8201 01c5 9F       		.byte	0x9f
 8202 01c6 00000000 		.4byte	0
 8203 01ca 00000000 		.4byte	0
 8204              	.LLST11:
 8205 01ce 00000000 		.4byte	.LVL12
 8206 01d2 2D000000 		.4byte	.LVL14-1
 8207 01d6 0100     		.2byte	0x1
 8208 01d8 53       		.byte	0x53
 8209 01d9 2D000000 		.4byte	.LVL14-1
 8210 01dd BC000000 		.4byte	.LFE9
 8211 01e1 0100     		.2byte	0x1
 8212 01e3 5A       		.byte	0x5a
 8213 01e4 00000000 		.4byte	0
 8214 01e8 00000000 		.4byte	0
 8215              	.LLST12:
 8216 01ec 30000000 		.4byte	.LVL15
 8217 01f0 42000000 		.4byte	.LVL16
 8218 01f4 0100     		.2byte	0x1
 8219 01f6 50       		.byte	0x50
 8220 01f7 42000000 		.4byte	.LVL16
 8221 01fb 92000000 		.4byte	.LVL24
 8222 01ff 0100     		.2byte	0x1
 8223 0201 54       		.byte	0x54
 8224 0202 98000000 		.4byte	.LVL25
 8225 0206 A2000000 		.4byte	.LVL26
 8226 020a 0100     		.2byte	0x1
 8227 020c 54       		.byte	0x54
 8228 020d A2000000 		.4byte	.LVL26
 8229 0211 AB000000 		.4byte	.LVL27-1
 8230 0215 0100     		.2byte	0x1
 8231 0217 50       		.byte	0x50
 8232 0218 AE000000 		.4byte	.LVL28
 8233 021c B0000000 		.4byte	.LVL29
 8234 0220 0100     		.2byte	0x1
 8235 0222 50       		.byte	0x50
 8236 0223 B0000000 		.4byte	.LVL29
 8237 0227 BC000000 		.4byte	.LFE9
 8238 022b 0100     		.2byte	0x1
 8239 022d 54       		.byte	0x54
 8240 022e 00000000 		.4byte	0
 8241 0232 00000000 		.4byte	0
 8242              	.LLST13:
 8243 0236 30000000 		.4byte	.LVL15
 8244 023a 7E000000 		.4byte	.LVL22
 8245 023e 0100     		.2byte	0x1
 8246 0240 57       		.byte	0x57
 8247 0241 7E000000 		.4byte	.LVL22
 8248 0245 98000000 		.4byte	.LVL25
 8249 0249 2800     		.2byte	0x28
ARM GAS  C:\Users\jenny\AppData\Local\Temp\ccUygzzS.s 			page 146


 8250 024b 3C       		.byte	0x3c
 8251 024c 30       		.byte	0x30
 8252 024d 91       		.byte	0x91
 8253 024e 00       		.sleb128 0
 8254 024f 94       		.byte	0x94
 8255 0250 01       		.byte	0x1
 8256 0251 32       		.byte	0x32
 8257 0252 1A       		.byte	0x1a
 8258 0253 08       		.byte	0x8
 8259 0254 FF       		.byte	0xff
 8260 0255 1A       		.byte	0x1a
 8261 0256 30       		.byte	0x30
 8262 0257 2E       		.byte	0x2e
 8263 0258 28       		.byte	0x28
 8264 0259 0100     		.2byte	0x1
 8265 025b 16       		.byte	0x16
 8266 025c 13       		.byte	0x13
 8267 025d 30       		.byte	0x30
 8268 025e 34       		.byte	0x34
 8269 025f 91       		.byte	0x91
 8270 0260 00       		.sleb128 0
 8271 0261 94       		.byte	0x94
 8272 0262 01       		.byte	0x1
 8273 0263 08       		.byte	0x8
 8274 0264 FF       		.byte	0xff
 8275 0265 1A       		.byte	0x1a
 8276 0266 33       		.byte	0x33
 8277 0267 24       		.byte	0x24
 8278 0268 33       		.byte	0x33
 8279 0269 25       		.byte	0x25
 8280 026a 30       		.byte	0x30
 8281 026b 29       		.byte	0x29
 8282 026c 28       		.byte	0x28
 8283 026d 0100     		.2byte	0x1
 8284 026f 16       		.byte	0x16
 8285 0270 13       		.byte	0x13
 8286 0271 22       		.byte	0x22
 8287 0272 9F       		.byte	0x9f
 8288 0273 98000000 		.4byte	.LVL25
 8289 0277 BC000000 		.4byte	.LFE9
 8290 027b 0100     		.2byte	0x1
 8291 027d 57       		.byte	0x57
 8292 027e 00000000 		.4byte	0
 8293 0282 00000000 		.4byte	0
 8294              	.LLST14:
 8295 0286 00000000 		.4byte	.LFB23
 8296 028a 04000000 		.4byte	.LCFI2
 8297 028e 0200     		.2byte	0x2
 8298 0290 7D       		.byte	0x7d
 8299 0291 00       		.sleb128 0
 8300 0292 04000000 		.4byte	.LCFI2
 8301 0296 66000000 		.4byte	.LFE23
 8302 029a 0200     		.2byte	0x2
 8303 029c 7D       		.byte	0x7d
 8304 029d 18       		.sleb128 24
 8305 029e 00000000 		.4byte	0
 8306 02a2 00000000 		.4byte	0
ARM GAS  C:\Users\jenny\AppData\Local\Temp\ccUygzzS.s 			page 147


 8307              	.LLST15:
 8308 02a6 00000000 		.4byte	.LVL31
 8309 02aa 0C000000 		.4byte	.LVL33
 8310 02ae 0100     		.2byte	0x1
 8311 02b0 50       		.byte	0x50
 8312 02b1 0C000000 		.4byte	.LVL33
 8313 02b5 66000000 		.4byte	.LFE23
 8314 02b9 0100     		.2byte	0x1
 8315 02bb 55       		.byte	0x55
 8316 02bc 00000000 		.4byte	0
 8317 02c0 00000000 		.4byte	0
 8318              	.LLST16:
 8319 02c4 00000000 		.4byte	.LVL31
 8320 02c8 02000000 		.4byte	.LVL32
 8321 02cc 0100     		.2byte	0x1
 8322 02ce 51       		.byte	0x51
 8323 02cf 02000000 		.4byte	.LVL32
 8324 02d3 66000000 		.4byte	.LFE23
 8325 02d7 0400     		.2byte	0x4
 8326 02d9 F3       		.byte	0xf3
 8327 02da 01       		.uleb128 0x1
 8328 02db 51       		.byte	0x51
 8329 02dc 9F       		.byte	0x9f
 8330 02dd 00000000 		.4byte	0
 8331 02e1 00000000 		.4byte	0
 8332              	.LLST17:
 8333 02e5 00000000 		.4byte	.LVL31
 8334 02e9 0E000000 		.4byte	.LVL34
 8335 02ed 0100     		.2byte	0x1
 8336 02ef 52       		.byte	0x52
 8337 02f0 0E000000 		.4byte	.LVL34
 8338 02f4 66000000 		.4byte	.LFE23
 8339 02f8 0100     		.2byte	0x1
 8340 02fa 57       		.byte	0x57
 8341 02fb 00000000 		.4byte	0
 8342 02ff 00000000 		.4byte	0
 8343              	.LLST18:
 8344 0303 20000000 		.4byte	.LVL37
 8345 0307 5C000000 		.4byte	.LVL43
 8346 030b 0100     		.2byte	0x1
 8347 030d 54       		.byte	0x54
 8348 030e 00000000 		.4byte	0
 8349 0312 00000000 		.4byte	0
 8350              	.LLST19:
 8351 0316 12000000 		.4byte	.LVL35
 8352 031a 1C000000 		.4byte	.LVL36
 8353 031e 0100     		.2byte	0x1
 8354 0320 50       		.byte	0x50
 8355 0321 1C000000 		.4byte	.LVL36
 8356 0325 60000000 		.4byte	.LVL44
 8357 0329 0100     		.2byte	0x1
 8358 032b 56       		.byte	0x56
 8359 032c 60000000 		.4byte	.LVL44
 8360 0330 63000000 		.4byte	.LVL45-1
 8361 0334 0100     		.2byte	0x1
 8362 0336 50       		.byte	0x50
 8363 0337 63000000 		.4byte	.LVL45-1
ARM GAS  C:\Users\jenny\AppData\Local\Temp\ccUygzzS.s 			page 148


 8364 033b 66000000 		.4byte	.LFE23
 8365 033f 0100     		.2byte	0x1
 8366 0341 56       		.byte	0x56
 8367 0342 00000000 		.4byte	0
 8368 0346 00000000 		.4byte	0
 8369              	.LLST20:
 8370 034a 00000000 		.4byte	.LFB12
 8371 034e 04000000 		.4byte	.LCFI3
 8372 0352 0200     		.2byte	0x2
 8373 0354 7D       		.byte	0x7d
 8374 0355 00       		.sleb128 0
 8375 0356 04000000 		.4byte	.LCFI3
 8376 035a 0E000000 		.4byte	.LCFI4
 8377 035e 0200     		.2byte	0x2
 8378 0360 7D       		.byte	0x7d
 8379 0361 24       		.sleb128 36
 8380 0362 0E000000 		.4byte	.LCFI4
 8381 0366 94040000 		.4byte	.LFE12
 8382 036a 0300     		.2byte	0x3
 8383 036c 7D       		.byte	0x7d
 8384 036d E800     		.sleb128 104
 8385 036f 00000000 		.4byte	0
 8386 0373 00000000 		.4byte	0
 8387              	.LLST21:
 8388 0377 00000000 		.4byte	.LVL46
 8389 037b 0C000000 		.4byte	.LVL47
 8390 037f 0100     		.2byte	0x1
 8391 0381 50       		.byte	0x50
 8392 0382 0C000000 		.4byte	.LVL47
 8393 0386 54010000 		.4byte	.LVL76
 8394 038a 0100     		.2byte	0x1
 8395 038c 55       		.byte	0x55
 8396 038d 54010000 		.4byte	.LVL76
 8397 0391 58010000 		.4byte	.LVL77
 8398 0395 0100     		.2byte	0x1
 8399 0397 50       		.byte	0x50
 8400 0398 58010000 		.4byte	.LVL77
 8401 039c 32020000 		.4byte	.LVL98
 8402 03a0 0100     		.2byte	0x1
 8403 03a2 59       		.byte	0x59
 8404 03a3 32020000 		.4byte	.LVL98
 8405 03a7 0A030000 		.4byte	.LVL112
 8406 03ab 0100     		.2byte	0x1
 8407 03ad 55       		.byte	0x55
 8408 03ae 0A030000 		.4byte	.LVL112
 8409 03b2 3A030000 		.4byte	.LVL125
 8410 03b6 0100     		.2byte	0x1
 8411 03b8 59       		.byte	0x59
 8412 03b9 3A030000 		.4byte	.LVL125
 8413 03bd 74030000 		.4byte	.LVL128
 8414 03c1 0100     		.2byte	0x1
 8415 03c3 55       		.byte	0x55
 8416 03c4 74030000 		.4byte	.LVL128
 8417 03c8 7C030000 		.4byte	.LVL129
 8418 03cc 0400     		.2byte	0x4
 8419 03ce F3       		.byte	0xf3
 8420 03cf 01       		.uleb128 0x1
ARM GAS  C:\Users\jenny\AppData\Local\Temp\ccUygzzS.s 			page 149


 8421 03d0 50       		.byte	0x50
 8422 03d1 9F       		.byte	0x9f
 8423 03d2 7C030000 		.4byte	.LVL129
 8424 03d6 90030000 		.4byte	.LVL134
 8425 03da 0100     		.2byte	0x1
 8426 03dc 59       		.byte	0x59
 8427 03dd 90030000 		.4byte	.LVL134
 8428 03e1 0E040000 		.4byte	.LVL149
 8429 03e5 0100     		.2byte	0x1
 8430 03e7 55       		.byte	0x55
 8431 03e8 0E040000 		.4byte	.LVL149
 8432 03ec 1A040000 		.4byte	.LVL151
 8433 03f0 0400     		.2byte	0x4
 8434 03f2 F3       		.byte	0xf3
 8435 03f3 01       		.uleb128 0x1
 8436 03f4 50       		.byte	0x50
 8437 03f5 9F       		.byte	0x9f
 8438 03f6 1A040000 		.4byte	.LVL151
 8439 03fa 94040000 		.4byte	.LFE12
 8440 03fe 0100     		.2byte	0x1
 8441 0400 55       		.byte	0x55
 8442 0401 00000000 		.4byte	0
 8443 0405 00000000 		.4byte	0
 8444              	.LLST22:
 8445 0409 00000000 		.4byte	.LVL46
 8446 040d 48000000 		.4byte	.LVL52
 8447 0411 0100     		.2byte	0x1
 8448 0413 51       		.byte	0x51
 8449 0414 48000000 		.4byte	.LVL52
 8450 0418 28010000 		.4byte	.LVL71
 8451 041c 0300     		.2byte	0x3
 8452 041e 91       		.byte	0x91
 8453 041f B87F     		.sleb128 -72
 8454 0421 28010000 		.4byte	.LVL71
 8455 0425 2E010000 		.4byte	.LVL72
 8456 0429 0100     		.2byte	0x1
 8457 042b 51       		.byte	0x51
 8458 042c 2E010000 		.4byte	.LVL72
 8459 0430 DC030000 		.4byte	.LVL142
 8460 0434 0300     		.2byte	0x3
 8461 0436 91       		.byte	0x91
 8462 0437 B87F     		.sleb128 -72
 8463 0439 DC030000 		.4byte	.LVL142
 8464 043d E0030000 		.4byte	.LVL144
 8465 0441 0100     		.2byte	0x1
 8466 0443 51       		.byte	0x51
 8467 0444 E0030000 		.4byte	.LVL144
 8468 0448 82040000 		.4byte	.LVL162
 8469 044c 0300     		.2byte	0x3
 8470 044e 91       		.byte	0x91
 8471 044f B87F     		.sleb128 -72
 8472 0451 82040000 		.4byte	.LVL162
 8473 0455 85040000 		.4byte	.LVL163-1
 8474 0459 0100     		.2byte	0x1
 8475 045b 51       		.byte	0x51
 8476 045c 85040000 		.4byte	.LVL163-1
 8477 0460 94040000 		.4byte	.LFE12
ARM GAS  C:\Users\jenny\AppData\Local\Temp\ccUygzzS.s 			page 150


 8478 0464 0300     		.2byte	0x3
 8479 0466 91       		.byte	0x91
 8480 0467 B87F     		.sleb128 -72
 8481 0469 00000000 		.4byte	0
 8482 046d 00000000 		.4byte	0
 8483              	.LLST23:
 8484 0471 00000000 		.4byte	.LVL46
 8485 0475 5C000000 		.4byte	.LVL53
 8486 0479 0100     		.2byte	0x1
 8487 047b 52       		.byte	0x52
 8488 047c 5C000000 		.4byte	.LVL53
 8489 0480 28010000 		.4byte	.LVL71
 8490 0484 0400     		.2byte	0x4
 8491 0486 F3       		.byte	0xf3
 8492 0487 01       		.uleb128 0x1
 8493 0488 52       		.byte	0x52
 8494 0489 9F       		.byte	0x9f
 8495 048a 28010000 		.4byte	.LVL71
 8496 048e 2E010000 		.4byte	.LVL72
 8497 0492 0100     		.2byte	0x1
 8498 0494 52       		.byte	0x52
 8499 0495 2E010000 		.4byte	.LVL72
 8500 0499 DC030000 		.4byte	.LVL142
 8501 049d 0400     		.2byte	0x4
 8502 049f F3       		.byte	0xf3
 8503 04a0 01       		.uleb128 0x1
 8504 04a1 52       		.byte	0x52
 8505 04a2 9F       		.byte	0x9f
 8506 04a3 DC030000 		.4byte	.LVL142
 8507 04a7 DE030000 		.4byte	.LVL143
 8508 04ab 0100     		.2byte	0x1
 8509 04ad 52       		.byte	0x52
 8510 04ae DE030000 		.4byte	.LVL143
 8511 04b2 30040000 		.4byte	.LVL155
 8512 04b6 0400     		.2byte	0x4
 8513 04b8 F3       		.byte	0xf3
 8514 04b9 01       		.uleb128 0x1
 8515 04ba 52       		.byte	0x52
 8516 04bb 9F       		.byte	0x9f
 8517 04bc 30040000 		.4byte	.LVL155
 8518 04c0 3E040000 		.4byte	.LVL156
 8519 04c4 0100     		.2byte	0x1
 8520 04c6 52       		.byte	0x52
 8521 04c7 3E040000 		.4byte	.LVL156
 8522 04cb 82040000 		.4byte	.LVL162
 8523 04cf 0400     		.2byte	0x4
 8524 04d1 F3       		.byte	0xf3
 8525 04d2 01       		.uleb128 0x1
 8526 04d3 52       		.byte	0x52
 8527 04d4 9F       		.byte	0x9f
 8528 04d5 82040000 		.4byte	.LVL162
 8529 04d9 85040000 		.4byte	.LVL163-1
 8530 04dd 0100     		.2byte	0x1
 8531 04df 52       		.byte	0x52
 8532 04e0 85040000 		.4byte	.LVL163-1
 8533 04e4 94040000 		.4byte	.LFE12
 8534 04e8 0400     		.2byte	0x4
ARM GAS  C:\Users\jenny\AppData\Local\Temp\ccUygzzS.s 			page 151


 8535 04ea F3       		.byte	0xf3
 8536 04eb 01       		.uleb128 0x1
 8537 04ec 52       		.byte	0x52
 8538 04ed 9F       		.byte	0x9f
 8539 04ee 00000000 		.4byte	0
 8540 04f2 00000000 		.4byte	0
 8541              	.LLST24:
 8542 04f6 00000000 		.4byte	.LVL46
 8543 04fa 2C000000 		.4byte	.LVL51
 8544 04fe 0100     		.2byte	0x1
 8545 0500 53       		.byte	0x53
 8546 0501 2C000000 		.4byte	.LVL51
 8547 0505 82040000 		.4byte	.LVL162
 8548 0509 0400     		.2byte	0x4
 8549 050b F3       		.byte	0xf3
 8550 050c 01       		.uleb128 0x1
 8551 050d 53       		.byte	0x53
 8552 050e 9F       		.byte	0x9f
 8553 050f 82040000 		.4byte	.LVL162
 8554 0513 85040000 		.4byte	.LVL163-1
 8555 0517 0100     		.2byte	0x1
 8556 0519 53       		.byte	0x53
 8557 051a 85040000 		.4byte	.LVL163-1
 8558 051e 94040000 		.4byte	.LFE12
 8559 0522 0400     		.2byte	0x4
 8560 0524 F3       		.byte	0xf3
 8561 0525 01       		.uleb128 0x1
 8562 0526 53       		.byte	0x53
 8563 0527 9F       		.byte	0x9f
 8564 0528 00000000 		.4byte	0
 8565 052c 00000000 		.4byte	0
 8566              	.LLST25:
 8567 0530 00000000 		.4byte	.LVL46
 8568 0534 1C010000 		.4byte	.LVL70
 8569 0538 0200     		.2byte	0x2
 8570 053a 30       		.byte	0x30
 8571 053b 9F       		.byte	0x9f
 8572 053c 1C010000 		.4byte	.LVL70
 8573 0540 28010000 		.4byte	.LVL71
 8574 0544 0200     		.2byte	0x2
 8575 0546 91       		.byte	0x91
 8576 0547 44       		.sleb128 -60
 8577 0548 28010000 		.4byte	.LVL71
 8578 054c 40010000 		.4byte	.LVL75
 8579 0550 0200     		.2byte	0x2
 8580 0552 30       		.byte	0x30
 8581 0553 9F       		.byte	0x9f
 8582 0554 32020000 		.4byte	.LVL98
 8583 0558 4A020000 		.4byte	.LVL101
 8584 055c 0200     		.2byte	0x2
 8585 055e 30       		.byte	0x30
 8586 055f 9F       		.byte	0x9f
 8587 0560 00030000 		.4byte	.LVL111
 8588 0564 0A030000 		.4byte	.LVL112
 8589 0568 0200     		.2byte	0x2
 8590 056a 30       		.byte	0x30
 8591 056b 9F       		.byte	0x9f
ARM GAS  C:\Users\jenny\AppData\Local\Temp\ccUygzzS.s 			page 152


 8592 056c 3A030000 		.4byte	.LVL125
 8593 0570 62030000 		.4byte	.LVL127
 8594 0574 0200     		.2byte	0x2
 8595 0576 91       		.byte	0x91
 8596 0577 44       		.sleb128 -60
 8597 0578 90030000 		.4byte	.LVL134
 8598 057c AC030000 		.4byte	.LVL136
 8599 0580 0200     		.2byte	0x2
 8600 0582 30       		.byte	0x30
 8601 0583 9F       		.byte	0x9f
 8602 0584 AC030000 		.4byte	.LVL136
 8603 0588 B8030000 		.4byte	.LVL137
 8604 058c 0100     		.2byte	0x1
 8605 058e 50       		.byte	0x50
 8606 058f B8030000 		.4byte	.LVL137
 8607 0593 CE030000 		.4byte	.LVL141
 8608 0597 0200     		.2byte	0x2
 8609 0599 91       		.byte	0x91
 8610 059a 44       		.sleb128 -60
 8611 059b CE030000 		.4byte	.LVL141
 8612 059f F6030000 		.4byte	.LVL145
 8613 05a3 0200     		.2byte	0x2
 8614 05a5 30       		.byte	0x30
 8615 05a6 9F       		.byte	0x9f
 8616 05a7 F6030000 		.4byte	.LVL145
 8617 05ab 00040000 		.4byte	.LVL146
 8618 05af 0100     		.2byte	0x1
 8619 05b1 50       		.byte	0x50
 8620 05b2 00040000 		.4byte	.LVL146
 8621 05b6 0A040000 		.4byte	.LVL148
 8622 05ba 0200     		.2byte	0x2
 8623 05bc 91       		.byte	0x91
 8624 05bd 44       		.sleb128 -60
 8625 05be 30040000 		.4byte	.LVL155
 8626 05c2 58040000 		.4byte	.LVL158
 8627 05c6 0200     		.2byte	0x2
 8628 05c8 30       		.byte	0x30
 8629 05c9 9F       		.byte	0x9f
 8630 05ca 66040000 		.4byte	.LVL159
 8631 05ce 7C040000 		.4byte	.LVL160
 8632 05d2 0200     		.2byte	0x2
 8633 05d4 30       		.byte	0x30
 8634 05d5 9F       		.byte	0x9f
 8635 05d6 82040000 		.4byte	.LVL162
 8636 05da 94040000 		.4byte	.LFE12
 8637 05de 0200     		.2byte	0x2
 8638 05e0 30       		.byte	0x30
 8639 05e1 9F       		.byte	0x9f
 8640 05e2 00000000 		.4byte	0
 8641 05e6 00000000 		.4byte	0
 8642              	.LLST26:
 8643 05ea 00000000 		.4byte	.LVL46
 8644 05ee 74000000 		.4byte	.LVL55
 8645 05f2 0200     		.2byte	0x2
 8646 05f4 30       		.byte	0x30
 8647 05f5 9F       		.byte	0x9f
 8648 05f6 74000000 		.4byte	.LVL55
ARM GAS  C:\Users\jenny\AppData\Local\Temp\ccUygzzS.s 			page 153


 8649 05fa F2000000 		.4byte	.LVL66
 8650 05fe 0100     		.2byte	0x1
 8651 0600 5B       		.byte	0x5b
 8652 0601 F2000000 		.4byte	.LVL66
 8653 0605 1C010000 		.4byte	.LVL70
 8654 0609 0200     		.2byte	0x2
 8655 060b 30       		.byte	0x30
 8656 060c 9F       		.byte	0x9f
 8657 060d 1C010000 		.4byte	.LVL70
 8658 0611 28010000 		.4byte	.LVL71
 8659 0615 0100     		.2byte	0x1
 8660 0617 5B       		.byte	0x5b
 8661 0618 28010000 		.4byte	.LVL71
 8662 061c 2E010000 		.4byte	.LVL72
 8663 0620 0200     		.2byte	0x2
 8664 0622 30       		.byte	0x30
 8665 0623 9F       		.byte	0x9f
 8666 0624 2E010000 		.4byte	.LVL72
 8667 0628 58010000 		.4byte	.LVL77
 8668 062c 0100     		.2byte	0x1
 8669 062e 5B       		.byte	0x5b
 8670 062f 32020000 		.4byte	.LVL98
 8671 0633 44020000 		.4byte	.LVL100
 8672 0637 0100     		.2byte	0x1
 8673 0639 5B       		.byte	0x5b
 8674 063a 00030000 		.4byte	.LVL111
 8675 063e 0A030000 		.4byte	.LVL112
 8676 0642 0200     		.2byte	0x2
 8677 0644 30       		.byte	0x30
 8678 0645 9F       		.byte	0x9f
 8679 0646 90030000 		.4byte	.LVL134
 8680 064a CE030000 		.4byte	.LVL141
 8681 064e 0100     		.2byte	0x1
 8682 0650 5B       		.byte	0x5b
 8683 0651 CE030000 		.4byte	.LVL141
 8684 0655 E0030000 		.4byte	.LVL144
 8685 0659 0200     		.2byte	0x2
 8686 065b 30       		.byte	0x30
 8687 065c 9F       		.byte	0x9f
 8688 065d E0030000 		.4byte	.LVL144
 8689 0661 0A040000 		.4byte	.LVL148
 8690 0665 0100     		.2byte	0x1
 8691 0667 5B       		.byte	0x5b
 8692 0668 30040000 		.4byte	.LVL155
 8693 066c 58040000 		.4byte	.LVL158
 8694 0670 0200     		.2byte	0x2
 8695 0672 30       		.byte	0x30
 8696 0673 9F       		.byte	0x9f
 8697 0674 66040000 		.4byte	.LVL159
 8698 0678 7C040000 		.4byte	.LVL160
 8699 067c 0100     		.2byte	0x1
 8700 067e 5B       		.byte	0x5b
 8701 067f 82040000 		.4byte	.LVL162
 8702 0683 8A040000 		.4byte	.LVL164
 8703 0687 0200     		.2byte	0x2
 8704 0689 30       		.byte	0x30
 8705 068a 9F       		.byte	0x9f
ARM GAS  C:\Users\jenny\AppData\Local\Temp\ccUygzzS.s 			page 154


 8706 068b 8A040000 		.4byte	.LVL164
 8707 068f 94040000 		.4byte	.LFE12
 8708 0693 0100     		.2byte	0x1
 8709 0695 5B       		.byte	0x5b
 8710 0696 00000000 		.4byte	0
 8711 069a 00000000 		.4byte	0
 8712              	.LLST27:
 8713 069e 00000000 		.4byte	.LVL46
 8714 06a2 BC000000 		.4byte	.LVL59
 8715 06a6 0200     		.2byte	0x2
 8716 06a8 30       		.byte	0x30
 8717 06a9 9F       		.byte	0x9f
 8718 06aa BC000000 		.4byte	.LVL59
 8719 06ae EE000000 		.4byte	.LVL65
 8720 06b2 0100     		.2byte	0x1
 8721 06b4 5B       		.byte	0x5b
 8722 06b5 F2000000 		.4byte	.LVL66
 8723 06b9 1C010000 		.4byte	.LVL70
 8724 06bd 0200     		.2byte	0x2
 8725 06bf 30       		.byte	0x30
 8726 06c0 9F       		.byte	0x9f
 8727 06c1 1C010000 		.4byte	.LVL70
 8728 06c5 28010000 		.4byte	.LVL71
 8729 06c9 0100     		.2byte	0x1
 8730 06cb 5B       		.byte	0x5b
 8731 06cc 28010000 		.4byte	.LVL71
 8732 06d0 30010000 		.4byte	.LVL73
 8733 06d4 0200     		.2byte	0x2
 8734 06d6 30       		.byte	0x30
 8735 06d7 9F       		.byte	0x9f
 8736 06d8 BC010000 		.4byte	.LVL88
 8737 06dc D0010000 		.4byte	.LVL89
 8738 06e0 0100     		.2byte	0x1
 8739 06e2 50       		.byte	0x50
 8740 06e3 D6010000 		.4byte	.LVL91
 8741 06e7 DE010000 		.4byte	.LVL93
 8742 06eb 0100     		.2byte	0x1
 8743 06ed 50       		.byte	0x50
 8744 06ee 42020000 		.4byte	.LVL99
 8745 06f2 44020000 		.4byte	.LVL100
 8746 06f6 0100     		.2byte	0x1
 8747 06f8 5B       		.byte	0x5b
 8748 06f9 44020000 		.4byte	.LVL100
 8749 06fd F0020000 		.4byte	.LVL110
 8750 0701 0100     		.2byte	0x1
 8751 0703 56       		.byte	0x56
 8752 0704 00030000 		.4byte	.LVL111
 8753 0708 0A030000 		.4byte	.LVL112
 8754 070c 0200     		.2byte	0x2
 8755 070e 30       		.byte	0x30
 8756 070f 9F       		.byte	0x9f
 8757 0710 10030000 		.4byte	.LVL114
 8758 0714 18030000 		.4byte	.LVL116
 8759 0718 0100     		.2byte	0x1
 8760 071a 50       		.byte	0x50
 8761 071b 18030000 		.4byte	.LVL116
 8762 071f 1E030000 		.4byte	.LVL118
ARM GAS  C:\Users\jenny\AppData\Local\Temp\ccUygzzS.s 			page 155


 8763 0723 0300     		.2byte	0x3
 8764 0725 91       		.byte	0x91
 8765 0726 B07F     		.sleb128 -80
 8766 0728 1E030000 		.4byte	.LVL118
 8767 072c 28030000 		.4byte	.LVL120
 8768 0730 0100     		.2byte	0x1
 8769 0732 50       		.byte	0x50
 8770 0733 2E030000 		.4byte	.LVL122
 8771 0737 33030000 		.4byte	.LVL123-1
 8772 073b 0100     		.2byte	0x1
 8773 073d 50       		.byte	0x50
 8774 073e CE030000 		.4byte	.LVL141
 8775 0742 E0030000 		.4byte	.LVL144
 8776 0746 0200     		.2byte	0x2
 8777 0748 30       		.byte	0x30
 8778 0749 9F       		.byte	0x9f
 8779 074a 22040000 		.4byte	.LVL153
 8780 074e 30040000 		.4byte	.LVL155
 8781 0752 0100     		.2byte	0x1
 8782 0754 56       		.byte	0x56
 8783 0755 30040000 		.4byte	.LVL155
 8784 0759 58040000 		.4byte	.LVL158
 8785 075d 0200     		.2byte	0x2
 8786 075f 30       		.byte	0x30
 8787 0760 9F       		.byte	0x9f
 8788 0761 58040000 		.4byte	.LVL158
 8789 0765 66040000 		.4byte	.LVL159
 8790 0769 0100     		.2byte	0x1
 8791 076b 56       		.byte	0x56
 8792 076c 7C040000 		.4byte	.LVL160
 8793 0770 82040000 		.4byte	.LVL162
 8794 0774 0100     		.2byte	0x1
 8795 0776 56       		.byte	0x56
 8796 0777 82040000 		.4byte	.LVL162
 8797 077b 8A040000 		.4byte	.LVL164
 8798 077f 0200     		.2byte	0x2
 8799 0781 30       		.byte	0x30
 8800 0782 9F       		.byte	0x9f
 8801 0783 8A040000 		.4byte	.LVL164
 8802 0787 94040000 		.4byte	.LFE12
 8803 078b 0100     		.2byte	0x1
 8804 078d 5B       		.byte	0x5b
 8805 078e 00000000 		.4byte	0
 8806 0792 00000000 		.4byte	0
 8807              	.LLST28:
 8808 0796 00000000 		.4byte	.LVL46
 8809 079a 58010000 		.4byte	.LVL77
 8810 079e 0200     		.2byte	0x2
 8811 07a0 30       		.byte	0x30
 8812 07a1 9F       		.byte	0x9f
 8813 07a2 D2010000 		.4byte	.LVL90
 8814 07a6 DE010000 		.4byte	.LVL93
 8815 07aa 0100     		.2byte	0x1
 8816 07ac 50       		.byte	0x50
 8817 07ad 32020000 		.4byte	.LVL98
 8818 07b1 4A020000 		.4byte	.LVL101
 8819 07b5 0200     		.2byte	0x2
ARM GAS  C:\Users\jenny\AppData\Local\Temp\ccUygzzS.s 			page 156


 8820 07b7 30       		.byte	0x30
 8821 07b8 9F       		.byte	0x9f
 8822 07b9 00030000 		.4byte	.LVL111
 8823 07bd 0A030000 		.4byte	.LVL112
 8824 07c1 0200     		.2byte	0x2
 8825 07c3 30       		.byte	0x30
 8826 07c4 9F       		.byte	0x9f
 8827 07c5 18030000 		.4byte	.LVL116
 8828 07c9 1E030000 		.4byte	.LVL118
 8829 07cd 0300     		.2byte	0x3
 8830 07cf 91       		.byte	0x91
 8831 07d0 B07F     		.sleb128 -80
 8832 07d2 1E030000 		.4byte	.LVL118
 8833 07d6 28030000 		.4byte	.LVL120
 8834 07da 0100     		.2byte	0x1
 8835 07dc 50       		.byte	0x50
 8836 07dd 90030000 		.4byte	.LVL134
 8837 07e1 0A040000 		.4byte	.LVL148
 8838 07e5 0200     		.2byte	0x2
 8839 07e7 30       		.byte	0x30
 8840 07e8 9F       		.byte	0x9f
 8841 07e9 30040000 		.4byte	.LVL155
 8842 07ed 58040000 		.4byte	.LVL158
 8843 07f1 0200     		.2byte	0x2
 8844 07f3 30       		.byte	0x30
 8845 07f4 9F       		.byte	0x9f
 8846 07f5 66040000 		.4byte	.LVL159
 8847 07f9 7C040000 		.4byte	.LVL160
 8848 07fd 0200     		.2byte	0x2
 8849 07ff 30       		.byte	0x30
 8850 0800 9F       		.byte	0x9f
 8851 0801 82040000 		.4byte	.LVL162
 8852 0805 94040000 		.4byte	.LFE12
 8853 0809 0200     		.2byte	0x2
 8854 080b 30       		.byte	0x30
 8855 080c 9F       		.byte	0x9f
 8856 080d 00000000 		.4byte	0
 8857 0811 00000000 		.4byte	0
 8858              	.LLST29:
 8859 0815 00000000 		.4byte	.LVL46
 8860 0819 58010000 		.4byte	.LVL77
 8861 081d 0200     		.2byte	0x2
 8862 081f 30       		.byte	0x30
 8863 0820 9F       		.byte	0x9f
 8864 0821 D2010000 		.4byte	.LVL90
 8865 0825 DE010000 		.4byte	.LVL93
 8866 0829 0300     		.2byte	0x3
 8867 082b 91       		.byte	0x91
 8868 082c B07F     		.sleb128 -80
 8869 082e 32020000 		.4byte	.LVL98
 8870 0832 4A020000 		.4byte	.LVL101
 8871 0836 0200     		.2byte	0x2
 8872 0838 30       		.byte	0x30
 8873 0839 9F       		.byte	0x9f
 8874 083a 00030000 		.4byte	.LVL111
 8875 083e 0A030000 		.4byte	.LVL112
 8876 0842 0200     		.2byte	0x2
ARM GAS  C:\Users\jenny\AppData\Local\Temp\ccUygzzS.s 			page 157


 8877 0844 30       		.byte	0x30
 8878 0845 9F       		.byte	0x9f
 8879 0846 18030000 		.4byte	.LVL116
 8880 084a 28030000 		.4byte	.LVL120
 8881 084e 0300     		.2byte	0x3
 8882 0850 91       		.byte	0x91
 8883 0851 B07F     		.sleb128 -80
 8884 0853 3A030000 		.4byte	.LVL125
 8885 0857 62030000 		.4byte	.LVL127
 8886 085b 0300     		.2byte	0x3
 8887 085d 91       		.byte	0x91
 8888 085e B07F     		.sleb128 -80
 8889 0860 90030000 		.4byte	.LVL134
 8890 0864 0A040000 		.4byte	.LVL148
 8891 0868 0200     		.2byte	0x2
 8892 086a 30       		.byte	0x30
 8893 086b 9F       		.byte	0x9f
 8894 086c 30040000 		.4byte	.LVL155
 8895 0870 58040000 		.4byte	.LVL158
 8896 0874 0200     		.2byte	0x2
 8897 0876 30       		.byte	0x30
 8898 0877 9F       		.byte	0x9f
 8899 0878 66040000 		.4byte	.LVL159
 8900 087c 7C040000 		.4byte	.LVL160
 8901 0880 0200     		.2byte	0x2
 8902 0882 30       		.byte	0x30
 8903 0883 9F       		.byte	0x9f
 8904 0884 82040000 		.4byte	.LVL162
 8905 0888 94040000 		.4byte	.LFE12
 8906 088c 0200     		.2byte	0x2
 8907 088e 30       		.byte	0x30
 8908 088f 9F       		.byte	0x9f
 8909 0890 00000000 		.4byte	0
 8910 0894 00000000 		.4byte	0
 8911              	.LLST30:
 8912 0898 00000000 		.4byte	.LVL46
 8913 089c CE000000 		.4byte	.LVL62
 8914 08a0 0200     		.2byte	0x2
 8915 08a2 30       		.byte	0x30
 8916 08a3 9F       		.byte	0x9f
 8917 08a4 CE000000 		.4byte	.LVL62
 8918 08a8 EE000000 		.4byte	.LVL65
 8919 08ac 0200     		.2byte	0x2
 8920 08ae 91       		.byte	0x91
 8921 08af 48       		.sleb128 -56
 8922 08b0 F2000000 		.4byte	.LVL66
 8923 08b4 1C010000 		.4byte	.LVL70
 8924 08b8 0200     		.2byte	0x2
 8925 08ba 30       		.byte	0x30
 8926 08bb 9F       		.byte	0x9f
 8927 08bc 1C010000 		.4byte	.LVL70
 8928 08c0 28010000 		.4byte	.LVL71
 8929 08c4 0100     		.2byte	0x1
 8930 08c6 54       		.byte	0x54
 8931 08c7 28010000 		.4byte	.LVL71
 8932 08cb 30010000 		.4byte	.LVL73
 8933 08cf 0200     		.2byte	0x2
ARM GAS  C:\Users\jenny\AppData\Local\Temp\ccUygzzS.s 			page 158


 8934 08d1 30       		.byte	0x30
 8935 08d2 9F       		.byte	0x9f
 8936 08d3 D6010000 		.4byte	.LVL91
 8937 08d7 DA010000 		.4byte	.LVL92
 8938 08db 0100     		.2byte	0x1
 8939 08dd 55       		.byte	0x55
 8940 08de DA010000 		.4byte	.LVL92
 8941 08e2 DE010000 		.4byte	.LVL93
 8942 08e6 0100     		.2byte	0x1
 8943 08e8 54       		.byte	0x54
 8944 08e9 42020000 		.4byte	.LVL99
 8945 08ed 44020000 		.4byte	.LVL100
 8946 08f1 0200     		.2byte	0x2
 8947 08f3 91       		.byte	0x91
 8948 08f4 48       		.sleb128 -56
 8949 08f5 00030000 		.4byte	.LVL111
 8950 08f9 0A030000 		.4byte	.LVL112
 8951 08fd 0200     		.2byte	0x2
 8952 08ff 30       		.byte	0x30
 8953 0900 9F       		.byte	0x9f
 8954 0901 18030000 		.4byte	.LVL116
 8955 0905 1A030000 		.4byte	.LVL117
 8956 0909 0100     		.2byte	0x1
 8957 090b 55       		.byte	0x55
 8958 090c 1A030000 		.4byte	.LVL117
 8959 0910 1E030000 		.4byte	.LVL118
 8960 0914 0100     		.2byte	0x1
 8961 0916 54       		.byte	0x54
 8962 0917 C2030000 		.4byte	.LVL139
 8963 091b CE030000 		.4byte	.LVL141
 8964 091f 0100     		.2byte	0x1
 8965 0921 56       		.byte	0x56
 8966 0922 CE030000 		.4byte	.LVL141
 8967 0926 E0030000 		.4byte	.LVL144
 8968 092a 0200     		.2byte	0x2
 8969 092c 30       		.byte	0x30
 8970 092d 9F       		.byte	0x9f
 8971 092e 30040000 		.4byte	.LVL155
 8972 0932 58040000 		.4byte	.LVL158
 8973 0936 0200     		.2byte	0x2
 8974 0938 30       		.byte	0x30
 8975 0939 9F       		.byte	0x9f
 8976 093a 82040000 		.4byte	.LVL162
 8977 093e 8A040000 		.4byte	.LVL164
 8978 0942 0200     		.2byte	0x2
 8979 0944 30       		.byte	0x30
 8980 0945 9F       		.byte	0x9f
 8981 0946 8A040000 		.4byte	.LVL164
 8982 094a 94040000 		.4byte	.LFE12
 8983 094e 0200     		.2byte	0x2
 8984 0950 91       		.byte	0x91
 8985 0951 48       		.sleb128 -56
 8986 0952 00000000 		.4byte	0
 8987 0956 00000000 		.4byte	0
 8988              	.LLST31:
 8989 095a 68000000 		.4byte	.LVL54
 8990 095e 74000000 		.4byte	.LVL55
ARM GAS  C:\Users\jenny\AppData\Local\Temp\ccUygzzS.s 			page 159


 8991 0962 0100     		.2byte	0x1
 8992 0964 58       		.byte	0x58
 8993 0965 04010000 		.4byte	.LVL68
 8994 0969 0A010000 		.4byte	.LVL69
 8995 096d 0300     		.2byte	0x3
 8996 096f 75       		.byte	0x75
 8997 0970 E800     		.sleb128 104
 8998 0972 1C010000 		.4byte	.LVL70
 8999 0976 28010000 		.4byte	.LVL71
 9000 097a 0100     		.2byte	0x1
 9001 097c 58       		.byte	0x58
 9002 097d A2010000 		.4byte	.LVL86
 9003 0981 B0010000 		.4byte	.LVL87
 9004 0985 0100     		.2byte	0x1
 9005 0987 52       		.byte	0x52
 9006 0988 B0010000 		.4byte	.LVL87
 9007 098c DE010000 		.4byte	.LVL93
 9008 0990 0100     		.2byte	0x1
 9009 0992 58       		.byte	0x58
 9010 0993 44020000 		.4byte	.LVL100
 9011 0997 4A020000 		.4byte	.LVL101
 9012 099b 0100     		.2byte	0x1
 9013 099d 58       		.byte	0x58
 9014 099e 10030000 		.4byte	.LVL114
 9015 09a2 1E030000 		.4byte	.LVL118
 9016 09a6 0100     		.2byte	0x1
 9017 09a8 58       		.byte	0x58
 9018 09a9 2E030000 		.4byte	.LVL122
 9019 09ad 38030000 		.4byte	.LVL124
 9020 09b1 0100     		.2byte	0x1
 9021 09b3 58       		.byte	0x58
 9022 09b4 7C030000 		.4byte	.LVL129
 9023 09b8 83030000 		.4byte	.LVL130-1
 9024 09bc 0100     		.2byte	0x1
 9025 09be 52       		.byte	0x52
 9026 09bf 83030000 		.4byte	.LVL130-1
 9027 09c3 86030000 		.4byte	.LVL131
 9028 09c7 0100     		.2byte	0x1
 9029 09c9 58       		.byte	0x58
 9030 09ca CA030000 		.4byte	.LVL140
 9031 09ce CE030000 		.4byte	.LVL141
 9032 09d2 0100     		.2byte	0x1
 9033 09d4 50       		.byte	0x50
 9034 09d5 00000000 		.4byte	0
 9035 09d9 00000000 		.4byte	0
 9036              	.LLST32:
 9037 09dd 1C000000 		.4byte	.LVL48
 9038 09e1 C8000000 		.4byte	.LVL61
 9039 09e5 0200     		.2byte	0x2
 9040 09e7 91       		.byte	0x91
 9041 09e8 56       		.sleb128 -42
 9042 09e9 CE000000 		.4byte	.LVL62
 9043 09ed 5C010000 		.4byte	.LVL78
 9044 09f1 0100     		.2byte	0x1
 9045 09f3 54       		.byte	0x54
 9046 09f4 62010000 		.4byte	.LVL79
 9047 09f8 64010000 		.4byte	.LVL80
ARM GAS  C:\Users\jenny\AppData\Local\Temp\ccUygzzS.s 			page 160


 9048 09fc 0100     		.2byte	0x1
 9049 09fe 50       		.byte	0x50
 9050 09ff 94010000 		.4byte	.LVL84
 9051 0a03 42020000 		.4byte	.LVL99
 9052 0a07 0200     		.2byte	0x2
 9053 0a09 91       		.byte	0x91
 9054 0a0a 56       		.sleb128 -42
 9055 0a0b 42020000 		.4byte	.LVL99
 9056 0a0f 8C020000 		.4byte	.LVL107
 9057 0a13 0100     		.2byte	0x1
 9058 0a15 54       		.byte	0x54
 9059 0a16 8C020000 		.4byte	.LVL107
 9060 0a1a 0A030000 		.4byte	.LVL112
 9061 0a1e 0200     		.2byte	0x2
 9062 0a20 91       		.byte	0x91
 9063 0a21 56       		.sleb128 -42
 9064 0a22 0A030000 		.4byte	.LVL112
 9065 0a26 0D030000 		.4byte	.LVL113-1
 9066 0a2a 0100     		.2byte	0x1
 9067 0a2c 50       		.byte	0x50
 9068 0a2d 10030000 		.4byte	.LVL114
 9069 0a31 86030000 		.4byte	.LVL131
 9070 0a35 0200     		.2byte	0x2
 9071 0a37 91       		.byte	0x91
 9072 0a38 56       		.sleb128 -42
 9073 0a39 90030000 		.4byte	.LVL134
 9074 0a3d 58040000 		.4byte	.LVL158
 9075 0a41 0200     		.2byte	0x2
 9076 0a43 91       		.byte	0x91
 9077 0a44 56       		.sleb128 -42
 9078 0a45 58040000 		.4byte	.LVL158
 9079 0a49 66040000 		.4byte	.LVL159
 9080 0a4d 0100     		.2byte	0x1
 9081 0a4f 51       		.byte	0x51
 9082 0a50 66040000 		.4byte	.LVL159
 9083 0a54 7C040000 		.4byte	.LVL160
 9084 0a58 0200     		.2byte	0x2
 9085 0a5a 91       		.byte	0x91
 9086 0a5b 56       		.sleb128 -42
 9087 0a5c 7C040000 		.4byte	.LVL160
 9088 0a60 7F040000 		.4byte	.LVL161-1
 9089 0a64 0100     		.2byte	0x1
 9090 0a66 51       		.byte	0x51
 9091 0a67 7F040000 		.4byte	.LVL161-1
 9092 0a6b 8A040000 		.4byte	.LVL164
 9093 0a6f 0200     		.2byte	0x2
 9094 0a71 91       		.byte	0x91
 9095 0a72 56       		.sleb128 -42
 9096 0a73 8A040000 		.4byte	.LVL164
 9097 0a77 8C040000 		.4byte	.LVL165
 9098 0a7b 0100     		.2byte	0x1
 9099 0a7d 54       		.byte	0x54
 9100 0a7e 8C040000 		.4byte	.LVL165
 9101 0a82 94040000 		.4byte	.LFE12
 9102 0a86 0200     		.2byte	0x2
 9103 0a88 91       		.byte	0x91
 9104 0a89 56       		.sleb128 -42
ARM GAS  C:\Users\jenny\AppData\Local\Temp\ccUygzzS.s 			page 161


 9105 0a8a 00000000 		.4byte	0
 9106 0a8e 00000000 		.4byte	0
 9107              	.LLST33:
 9108 0a92 1C000000 		.4byte	.LVL48
 9109 0a96 CE000000 		.4byte	.LVL62
 9110 0a9a 0200     		.2byte	0x2
 9111 0a9c 30       		.byte	0x30
 9112 0a9d 9F       		.byte	0x9f
 9113 0a9e CE000000 		.4byte	.LVL62
 9114 0aa2 EE000000 		.4byte	.LVL65
 9115 0aa6 0200     		.2byte	0x2
 9116 0aa8 91       		.byte	0x91
 9117 0aa9 48       		.sleb128 -56
 9118 0aaa F2000000 		.4byte	.LVL66
 9119 0aae 1C010000 		.4byte	.LVL70
 9120 0ab2 0200     		.2byte	0x2
 9121 0ab4 30       		.byte	0x30
 9122 0ab5 9F       		.byte	0x9f
 9123 0ab6 1C010000 		.4byte	.LVL70
 9124 0aba 28010000 		.4byte	.LVL71
 9125 0abe 0200     		.2byte	0x2
 9126 0ac0 91       		.byte	0x91
 9127 0ac1 48       		.sleb128 -56
 9128 0ac2 28010000 		.4byte	.LVL71
 9129 0ac6 30010000 		.4byte	.LVL73
 9130 0aca 0200     		.2byte	0x2
 9131 0acc 30       		.byte	0x30
 9132 0acd 9F       		.byte	0x9f
 9133 0ace 42020000 		.4byte	.LVL99
 9134 0ad2 4A020000 		.4byte	.LVL101
 9135 0ad6 0200     		.2byte	0x2
 9136 0ad8 91       		.byte	0x91
 9137 0ad9 48       		.sleb128 -56
 9138 0ada 00030000 		.4byte	.LVL111
 9139 0ade 0A030000 		.4byte	.LVL112
 9140 0ae2 0200     		.2byte	0x2
 9141 0ae4 30       		.byte	0x30
 9142 0ae5 9F       		.byte	0x9f
 9143 0ae6 CE030000 		.4byte	.LVL141
 9144 0aea E0030000 		.4byte	.LVL144
 9145 0aee 0200     		.2byte	0x2
 9146 0af0 30       		.byte	0x30
 9147 0af1 9F       		.byte	0x9f
 9148 0af2 30040000 		.4byte	.LVL155
 9149 0af6 58040000 		.4byte	.LVL158
 9150 0afa 0200     		.2byte	0x2
 9151 0afc 30       		.byte	0x30
 9152 0afd 9F       		.byte	0x9f
 9153 0afe 82040000 		.4byte	.LVL162
 9154 0b02 8A040000 		.4byte	.LVL164
 9155 0b06 0200     		.2byte	0x2
 9156 0b08 30       		.byte	0x30
 9157 0b09 9F       		.byte	0x9f
 9158 0b0a 8A040000 		.4byte	.LVL164
 9159 0b0e 94040000 		.4byte	.LFE12
 9160 0b12 0200     		.2byte	0x2
 9161 0b14 91       		.byte	0x91
ARM GAS  C:\Users\jenny\AppData\Local\Temp\ccUygzzS.s 			page 162


 9162 0b15 48       		.sleb128 -56
 9163 0b16 00000000 		.4byte	0
 9164 0b1a 00000000 		.4byte	0
 9165              	.LLST34:
 9166 0b1e 2A000000 		.4byte	.LVL50
 9167 0b22 5C000000 		.4byte	.LVL53
 9168 0b26 0100     		.2byte	0x1
 9169 0b28 52       		.byte	0x52
 9170 0b29 5C000000 		.4byte	.LVL53
 9171 0b2d 28010000 		.4byte	.LVL71
 9172 0b31 0100     		.2byte	0x1
 9173 0b33 5A       		.byte	0x5a
 9174 0b34 28010000 		.4byte	.LVL71
 9175 0b38 2E010000 		.4byte	.LVL72
 9176 0b3c 0100     		.2byte	0x1
 9177 0b3e 52       		.byte	0x52
 9178 0b3f 2E010000 		.4byte	.LVL72
 9179 0b43 D4020000 		.4byte	.LVL109
 9180 0b47 0100     		.2byte	0x1
 9181 0b49 5A       		.byte	0x5a
 9182 0b4a 00030000 		.4byte	.LVL111
 9183 0b4e 74030000 		.4byte	.LVL128
 9184 0b52 0100     		.2byte	0x1
 9185 0b54 5A       		.byte	0x5a
 9186 0b55 7C030000 		.4byte	.LVL129
 9187 0b59 DC030000 		.4byte	.LVL142
 9188 0b5d 0100     		.2byte	0x1
 9189 0b5f 5A       		.byte	0x5a
 9190 0b60 DC030000 		.4byte	.LVL142
 9191 0b64 DE030000 		.4byte	.LVL143
 9192 0b68 0100     		.2byte	0x1
 9193 0b6a 52       		.byte	0x52
 9194 0b6b DE030000 		.4byte	.LVL143
 9195 0b6f 0A040000 		.4byte	.LVL148
 9196 0b73 0100     		.2byte	0x1
 9197 0b75 5A       		.byte	0x5a
 9198 0b76 1A040000 		.4byte	.LVL151
 9199 0b7a 22040000 		.4byte	.LVL153
 9200 0b7e 0100     		.2byte	0x1
 9201 0b80 5A       		.byte	0x5a
 9202 0b81 30040000 		.4byte	.LVL155
 9203 0b85 3E040000 		.4byte	.LVL156
 9204 0b89 0100     		.2byte	0x1
 9205 0b8b 52       		.byte	0x52
 9206 0b8c 3E040000 		.4byte	.LVL156
 9207 0b90 82040000 		.4byte	.LVL162
 9208 0b94 0100     		.2byte	0x1
 9209 0b96 5A       		.byte	0x5a
 9210 0b97 8A040000 		.4byte	.LVL164
 9211 0b9b 94040000 		.4byte	.LFE12
 9212 0b9f 0100     		.2byte	0x1
 9213 0ba1 5A       		.byte	0x5a
 9214 0ba2 00000000 		.4byte	0
 9215 0ba6 00000000 		.4byte	0
 9216              	.LLST35:
 9217 0baa 2A000000 		.4byte	.LVL50
 9218 0bae 54010000 		.4byte	.LVL76
ARM GAS  C:\Users\jenny\AppData\Local\Temp\ccUygzzS.s 			page 163


 9219 0bb2 0100     		.2byte	0x1
 9220 0bb4 55       		.byte	0x55
 9221 0bb5 54010000 		.4byte	.LVL76
 9222 0bb9 58010000 		.4byte	.LVL77
 9223 0bbd 0100     		.2byte	0x1
 9224 0bbf 50       		.byte	0x50
 9225 0bc0 58010000 		.4byte	.LVL77
 9226 0bc4 32020000 		.4byte	.LVL98
 9227 0bc8 0100     		.2byte	0x1
 9228 0bca 59       		.byte	0x59
 9229 0bcb 32020000 		.4byte	.LVL98
 9230 0bcf 0A030000 		.4byte	.LVL112
 9231 0bd3 0100     		.2byte	0x1
 9232 0bd5 55       		.byte	0x55
 9233 0bd6 0A030000 		.4byte	.LVL112
 9234 0bda 3A030000 		.4byte	.LVL125
 9235 0bde 0100     		.2byte	0x1
 9236 0be0 59       		.byte	0x59
 9237 0be1 3A030000 		.4byte	.LVL125
 9238 0be5 74030000 		.4byte	.LVL128
 9239 0be9 0100     		.2byte	0x1
 9240 0beb 55       		.byte	0x55
 9241 0bec 7C030000 		.4byte	.LVL129
 9242 0bf0 90030000 		.4byte	.LVL134
 9243 0bf4 0100     		.2byte	0x1
 9244 0bf6 59       		.byte	0x59
 9245 0bf7 90030000 		.4byte	.LVL134
 9246 0bfb 0E040000 		.4byte	.LVL149
 9247 0bff 0100     		.2byte	0x1
 9248 0c01 55       		.byte	0x55
 9249 0c02 0E040000 		.4byte	.LVL149
 9250 0c06 1A040000 		.4byte	.LVL151
 9251 0c0a 0400     		.2byte	0x4
 9252 0c0c F3       		.byte	0xf3
 9253 0c0d 01       		.uleb128 0x1
 9254 0c0e 50       		.byte	0x50
 9255 0c0f 9F       		.byte	0x9f
 9256 0c10 1A040000 		.4byte	.LVL151
 9257 0c14 82040000 		.4byte	.LVL162
 9258 0c18 0100     		.2byte	0x1
 9259 0c1a 55       		.byte	0x55
 9260 0c1b 8A040000 		.4byte	.LVL164
 9261 0c1f 94040000 		.4byte	.LFE12
 9262 0c23 0100     		.2byte	0x1
 9263 0c25 55       		.byte	0x55
 9264 0c26 00000000 		.4byte	0
 9265 0c2a 00000000 		.4byte	0
 9266              	.LLST36:
 9267 0c2e B4000000 		.4byte	.LVL58
 9268 0c32 D6000000 		.4byte	.LVL63
 9269 0c36 0100     		.2byte	0x1
 9270 0c38 59       		.byte	0x59
 9271 0c39 D6000000 		.4byte	.LVL63
 9272 0c3d E5000000 		.4byte	.LVL64-1
 9273 0c41 0100     		.2byte	0x1
 9274 0c43 53       		.byte	0x53
 9275 0c44 E5000000 		.4byte	.LVL64-1
ARM GAS  C:\Users\jenny\AppData\Local\Temp\ccUygzzS.s 			page 164


 9276 0c48 EE000000 		.4byte	.LVL65
 9277 0c4c 0100     		.2byte	0x1
 9278 0c4e 59       		.byte	0x59
 9279 0c4f 2E010000 		.4byte	.LVL72
 9280 0c53 30010000 		.4byte	.LVL73
 9281 0c57 0100     		.2byte	0x1
 9282 0c59 59       		.byte	0x59
 9283 0c5a 42020000 		.4byte	.LVL99
 9284 0c5e 44020000 		.4byte	.LVL100
 9285 0c62 0100     		.2byte	0x1
 9286 0c64 53       		.byte	0x53
 9287 0c65 8A040000 		.4byte	.LVL164
 9288 0c69 94040000 		.4byte	.LFE12
 9289 0c6d 0100     		.2byte	0x1
 9290 0c6f 53       		.byte	0x53
 9291 0c70 00000000 		.4byte	0
 9292 0c74 00000000 		.4byte	0
 9293              	.LLST37:
 9294 0c78 A8000000 		.4byte	.LVL57
 9295 0c7c C4000000 		.4byte	.LVL60
 9296 0c80 0700     		.2byte	0x7
 9297 0c82 70       		.byte	0x70
 9298 0c83 00       		.sleb128 0
 9299 0c84 1F       		.byte	0x1f
 9300 0c85 72       		.byte	0x72
 9301 0c86 00       		.sleb128 0
 9302 0c87 1C       		.byte	0x1c
 9303 0c88 9F       		.byte	0x9f
 9304 0c89 C4000000 		.4byte	.LVL60
 9305 0c8d E5000000 		.4byte	.LVL64-1
 9306 0c91 1900     		.2byte	0x19
 9307 0c93 70       		.byte	0x70
 9308 0c94 00       		.sleb128 0
 9309 0c95 1F       		.byte	0x1f
 9310 0c96 30       		.byte	0x30
 9311 0c97 34       		.byte	0x34
 9312 0c98 7B       		.byte	0x7b
 9313 0c99 0A       		.sleb128 10
 9314 0c9a 94       		.byte	0x94
 9315 0c9b 01       		.byte	0x1
 9316 0c9c 08       		.byte	0x8
 9317 0c9d FF       		.byte	0xff
 9318 0c9e 1A       		.byte	0x1a
 9319 0c9f 33       		.byte	0x33
 9320 0ca0 24       		.byte	0x24
 9321 0ca1 33       		.byte	0x33
 9322 0ca2 25       		.byte	0x25
 9323 0ca3 30       		.byte	0x30
 9324 0ca4 29       		.byte	0x29
 9325 0ca5 28       		.byte	0x28
 9326 0ca6 0100     		.2byte	0x1
 9327 0ca8 16       		.byte	0x16
 9328 0ca9 13       		.byte	0x13
 9329 0caa 1C       		.byte	0x1c
 9330 0cab 9F       		.byte	0x9f
 9331 0cac 2E010000 		.4byte	.LVL72
 9332 0cb0 30010000 		.4byte	.LVL73
ARM GAS  C:\Users\jenny\AppData\Local\Temp\ccUygzzS.s 			page 165


 9333 0cb4 0700     		.2byte	0x7
 9334 0cb6 70       		.byte	0x70
 9335 0cb7 00       		.sleb128 0
 9336 0cb8 1F       		.byte	0x1f
 9337 0cb9 72       		.byte	0x72
 9338 0cba 00       		.sleb128 0
 9339 0cbb 1C       		.byte	0x1c
 9340 0cbc 9F       		.byte	0x9f
 9341 0cbd 30010000 		.4byte	.LVL73
 9342 0cc1 34010000 		.4byte	.LVL74
 9343 0cc5 1900     		.2byte	0x19
 9344 0cc7 70       		.byte	0x70
 9345 0cc8 00       		.sleb128 0
 9346 0cc9 1F       		.byte	0x1f
 9347 0cca 30       		.byte	0x30
 9348 0ccb 34       		.byte	0x34
 9349 0ccc 7B       		.byte	0x7b
 9350 0ccd 0A       		.sleb128 10
 9351 0cce 94       		.byte	0x94
 9352 0ccf 01       		.byte	0x1
 9353 0cd0 08       		.byte	0x8
 9354 0cd1 FF       		.byte	0xff
 9355 0cd2 1A       		.byte	0x1a
 9356 0cd3 33       		.byte	0x33
 9357 0cd4 24       		.byte	0x24
 9358 0cd5 33       		.byte	0x33
 9359 0cd6 25       		.byte	0x25
 9360 0cd7 30       		.byte	0x30
 9361 0cd8 29       		.byte	0x29
 9362 0cd9 28       		.byte	0x28
 9363 0cda 0100     		.2byte	0x1
 9364 0cdc 16       		.byte	0x16
 9365 0cdd 13       		.byte	0x13
 9366 0cde 1C       		.byte	0x1c
 9367 0cdf 9F       		.byte	0x9f
 9368 0ce0 42020000 		.4byte	.LVL99
 9369 0ce4 44020000 		.4byte	.LVL100
 9370 0ce8 1900     		.2byte	0x19
 9371 0cea 70       		.byte	0x70
 9372 0ceb 00       		.sleb128 0
 9373 0cec 1F       		.byte	0x1f
 9374 0ced 30       		.byte	0x30
 9375 0cee 34       		.byte	0x34
 9376 0cef 7B       		.byte	0x7b
 9377 0cf0 0A       		.sleb128 10
 9378 0cf1 94       		.byte	0x94
 9379 0cf2 01       		.byte	0x1
 9380 0cf3 08       		.byte	0x8
 9381 0cf4 FF       		.byte	0xff
 9382 0cf5 1A       		.byte	0x1a
 9383 0cf6 33       		.byte	0x33
 9384 0cf7 24       		.byte	0x24
 9385 0cf8 33       		.byte	0x33
 9386 0cf9 25       		.byte	0x25
 9387 0cfa 30       		.byte	0x30
 9388 0cfb 29       		.byte	0x29
 9389 0cfc 28       		.byte	0x28
ARM GAS  C:\Users\jenny\AppData\Local\Temp\ccUygzzS.s 			page 166


 9390 0cfd 0100     		.2byte	0x1
 9391 0cff 16       		.byte	0x16
 9392 0d00 13       		.byte	0x13
 9393 0d01 1C       		.byte	0x1c
 9394 0d02 9F       		.byte	0x9f
 9395 0d03 8A040000 		.4byte	.LVL164
 9396 0d07 94040000 		.4byte	.LFE12
 9397 0d0b 1900     		.2byte	0x19
 9398 0d0d 70       		.byte	0x70
 9399 0d0e 00       		.sleb128 0
 9400 0d0f 1F       		.byte	0x1f
 9401 0d10 30       		.byte	0x30
 9402 0d11 34       		.byte	0x34
 9403 0d12 7B       		.byte	0x7b
 9404 0d13 0A       		.sleb128 10
 9405 0d14 94       		.byte	0x94
 9406 0d15 01       		.byte	0x1
 9407 0d16 08       		.byte	0x8
 9408 0d17 FF       		.byte	0xff
 9409 0d18 1A       		.byte	0x1a
 9410 0d19 33       		.byte	0x33
 9411 0d1a 24       		.byte	0x24
 9412 0d1b 33       		.byte	0x33
 9413 0d1c 25       		.byte	0x25
 9414 0d1d 30       		.byte	0x30
 9415 0d1e 29       		.byte	0x29
 9416 0d1f 28       		.byte	0x28
 9417 0d20 0100     		.2byte	0x1
 9418 0d22 16       		.byte	0x16
 9419 0d23 13       		.byte	0x13
 9420 0d24 1C       		.byte	0x1c
 9421 0d25 9F       		.byte	0x9f
 9422 0d26 00000000 		.4byte	0
 9423 0d2a 00000000 		.4byte	0
 9424              	.LLST38:
 9425 0d2e A0030000 		.4byte	.LVL135
 9426 0d32 CE030000 		.4byte	.LVL141
 9427 0d36 0100     		.2byte	0x1
 9428 0d38 57       		.byte	0x57
 9429 0d39 E0030000 		.4byte	.LVL144
 9430 0d3d 0A040000 		.4byte	.LVL148
 9431 0d41 0100     		.2byte	0x1
 9432 0d43 57       		.byte	0x57
 9433 0d44 66040000 		.4byte	.LVL159
 9434 0d48 7C040000 		.4byte	.LVL160
 9435 0d4c 0100     		.2byte	0x1
 9436 0d4e 57       		.byte	0x57
 9437 0d4f 00000000 		.4byte	0
 9438 0d53 00000000 		.4byte	0
 9439              	.LLST39:
 9440 0d57 86010000 		.4byte	.LVL83
 9441 0d5b 93010000 		.4byte	.LVL84-1
 9442 0d5f 0100     		.2byte	0x1
 9443 0d61 50       		.byte	0x50
 9444 0d62 93010000 		.4byte	.LVL84-1
 9445 0d66 DE010000 		.4byte	.LVL93
 9446 0d6a 0100     		.2byte	0x1
ARM GAS  C:\Users\jenny\AppData\Local\Temp\ccUygzzS.s 			page 167


 9447 0d6c 56       		.byte	0x56
 9448 0d6d 14020000 		.4byte	.LVL95
 9449 0d71 24020000 		.4byte	.LVL96
 9450 0d75 0100     		.2byte	0x1
 9451 0d77 50       		.byte	0x50
 9452 0d78 24020000 		.4byte	.LVL96
 9453 0d7c 32020000 		.4byte	.LVL98
 9454 0d80 0100     		.2byte	0x1
 9455 0d82 56       		.byte	0x56
 9456 0d83 10030000 		.4byte	.LVL114
 9457 0d87 24030000 		.4byte	.LVL119
 9458 0d8b 0100     		.2byte	0x1
 9459 0d8d 56       		.byte	0x56
 9460 0d8e 28030000 		.4byte	.LVL120
 9461 0d92 2B030000 		.4byte	.LVL121-1
 9462 0d96 0100     		.2byte	0x1
 9463 0d98 50       		.byte	0x50
 9464 0d99 2B030000 		.4byte	.LVL121-1
 9465 0d9d 38030000 		.4byte	.LVL124
 9466 0da1 0100     		.2byte	0x1
 9467 0da3 56       		.byte	0x56
 9468 0da4 7C030000 		.4byte	.LVL129
 9469 0da8 86030000 		.4byte	.LVL131
 9470 0dac 0100     		.2byte	0x1
 9471 0dae 56       		.byte	0x56
 9472 0daf 86030000 		.4byte	.LVL131
 9473 0db3 88030000 		.4byte	.LVL132
 9474 0db7 0100     		.2byte	0x1
 9475 0db9 50       		.byte	0x50
 9476 0dba 88030000 		.4byte	.LVL132
 9477 0dbe 90030000 		.4byte	.LVL134
 9478 0dc2 0100     		.2byte	0x1
 9479 0dc4 56       		.byte	0x56
 9480 0dc5 00000000 		.4byte	0
 9481 0dc9 00000000 		.4byte	0
 9482              	.LLST40:
 9483 0dcd 58010000 		.4byte	.LVL77
 9484 0dd1 D6010000 		.4byte	.LVL91
 9485 0dd5 0600     		.2byte	0x6
 9486 0dd7 7A       		.byte	0x7a
 9487 0dd8 00       		.sleb128 0
 9488 0dd9 74       		.byte	0x74
 9489 0dda 00       		.sleb128 0
 9490 0ddb 1C       		.byte	0x1c
 9491 0ddc 9F       		.byte	0x9f
 9492 0ddd DE010000 		.4byte	.LVL93
 9493 0de1 32020000 		.4byte	.LVL98
 9494 0de5 0600     		.2byte	0x6
 9495 0de7 7A       		.byte	0x7a
 9496 0de8 00       		.sleb128 0
 9497 0de9 74       		.byte	0x74
 9498 0dea 00       		.sleb128 0
 9499 0deb 1C       		.byte	0x1c
 9500 0dec 9F       		.byte	0x9f
 9501 0ded 0A030000 		.4byte	.LVL112
 9502 0df1 14030000 		.4byte	.LVL115
 9503 0df5 0600     		.2byte	0x6
ARM GAS  C:\Users\jenny\AppData\Local\Temp\ccUygzzS.s 			page 168


 9504 0df7 7A       		.byte	0x7a
 9505 0df8 00       		.sleb128 0
 9506 0df9 74       		.byte	0x74
 9507 0dfa 00       		.sleb128 0
 9508 0dfb 1C       		.byte	0x1c
 9509 0dfc 9F       		.byte	0x9f
 9510 0dfd 28030000 		.4byte	.LVL120
 9511 0e01 62030000 		.4byte	.LVL127
 9512 0e05 0600     		.2byte	0x6
 9513 0e07 7A       		.byte	0x7a
 9514 0e08 00       		.sleb128 0
 9515 0e09 74       		.byte	0x74
 9516 0e0a 00       		.sleb128 0
 9517 0e0b 1C       		.byte	0x1c
 9518 0e0c 9F       		.byte	0x9f
 9519 0e0d 7C030000 		.4byte	.LVL129
 9520 0e11 90030000 		.4byte	.LVL134
 9521 0e15 0600     		.2byte	0x6
 9522 0e17 7A       		.byte	0x7a
 9523 0e18 00       		.sleb128 0
 9524 0e19 74       		.byte	0x74
 9525 0e1a 00       		.sleb128 0
 9526 0e1b 1C       		.byte	0x1c
 9527 0e1c 9F       		.byte	0x9f
 9528 0e1d 00000000 		.4byte	0
 9529 0e21 00000000 		.4byte	0
 9530              	.LLST41:
 9531 0e25 58010000 		.4byte	.LVL77
 9532 0e29 32020000 		.4byte	.LVL98
 9533 0e2d 0300     		.2byte	0x3
 9534 0e2f 91       		.byte	0x91
 9535 0e30 B47F     		.sleb128 -76
 9536 0e32 0A030000 		.4byte	.LVL112
 9537 0e36 62030000 		.4byte	.LVL127
 9538 0e3a 0300     		.2byte	0x3
 9539 0e3c 91       		.byte	0x91
 9540 0e3d B47F     		.sleb128 -76
 9541 0e3f 7C030000 		.4byte	.LVL129
 9542 0e43 90030000 		.4byte	.LVL134
 9543 0e47 0300     		.2byte	0x3
 9544 0e49 91       		.byte	0x91
 9545 0e4a B47F     		.sleb128 -76
 9546 0e4c 00000000 		.4byte	0
 9547 0e50 00000000 		.4byte	0
 9548              	.LLST42:
 9549 0e54 58010000 		.4byte	.LVL77
 9550 0e58 DE010000 		.4byte	.LVL93
 9551 0e5c 0100     		.2byte	0x1
 9552 0e5e 57       		.byte	0x57
 9553 0e5f EE010000 		.4byte	.LVL94
 9554 0e63 32020000 		.4byte	.LVL98
 9555 0e67 0100     		.2byte	0x1
 9556 0e69 57       		.byte	0x57
 9557 0e6a 0A030000 		.4byte	.LVL112
 9558 0e6e 62030000 		.4byte	.LVL127
 9559 0e72 0100     		.2byte	0x1
 9560 0e74 57       		.byte	0x57
ARM GAS  C:\Users\jenny\AppData\Local\Temp\ccUygzzS.s 			page 169


 9561 0e75 7C030000 		.4byte	.LVL129
 9562 0e79 90030000 		.4byte	.LVL134
 9563 0e7d 0100     		.2byte	0x1
 9564 0e7f 57       		.byte	0x57
 9565 0e80 00000000 		.4byte	0
 9566 0e84 00000000 		.4byte	0
 9567              	.LLST43:
 9568 0e88 6C010000 		.4byte	.LVL81
 9569 0e8c 78010000 		.4byte	.LVL82
 9570 0e90 0100     		.2byte	0x1
 9571 0e92 50       		.byte	0x50
 9572 0e93 78010000 		.4byte	.LVL82
 9573 0e97 94010000 		.4byte	.LVL84
 9574 0e9b 0100     		.2byte	0x1
 9575 0e9d 5B       		.byte	0x5b
 9576 0e9e 86030000 		.4byte	.LVL131
 9577 0ea2 90030000 		.4byte	.LVL134
 9578 0ea6 0100     		.2byte	0x1
 9579 0ea8 5B       		.byte	0x5b
 9580 0ea9 00000000 		.4byte	0
 9581 0ead 00000000 		.4byte	0
 9582              	.LLST44:
 9583 0eb1 52020000 		.4byte	.LVL102
 9584 0eb5 58020000 		.4byte	.LVL103
 9585 0eb9 0100     		.2byte	0x1
 9586 0ebb 54       		.byte	0x54
 9587 0ebc 78020000 		.4byte	.LVL105
 9588 0ec0 80020000 		.4byte	.LVL106
 9589 0ec4 0100     		.2byte	0x1
 9590 0ec6 50       		.byte	0x50
 9591 0ec7 00000000 		.4byte	0
 9592 0ecb 00000000 		.4byte	0
 9593              	.LLST45:
 9594 0ecf 00000000 		.4byte	.LFB13
 9595 0ed3 04000000 		.4byte	.LCFI5
 9596 0ed7 0200     		.2byte	0x2
 9597 0ed9 7D       		.byte	0x7d
 9598 0eda 00       		.sleb128 0
 9599 0edb 04000000 		.4byte	.LCFI5
 9600 0edf 0A000000 		.4byte	.LCFI6
 9601 0ee3 0200     		.2byte	0x2
 9602 0ee5 7D       		.byte	0x7d
 9603 0ee6 1C       		.sleb128 28
 9604 0ee7 0A000000 		.4byte	.LCFI6
 9605 0eeb 3C010000 		.4byte	.LFE13
 9606 0eef 0200     		.2byte	0x2
 9607 0ef1 7D       		.byte	0x7d
 9608 0ef2 28       		.sleb128 40
 9609 0ef3 00000000 		.4byte	0
 9610 0ef7 00000000 		.4byte	0
 9611              	.LLST46:
 9612 0efb 00000000 		.4byte	.LVL166
 9613 0eff 10000000 		.4byte	.LVL167
 9614 0f03 0100     		.2byte	0x1
 9615 0f05 50       		.byte	0x50
 9616 0f06 10000000 		.4byte	.LVL167
 9617 0f0a C8000000 		.4byte	.LVL181
ARM GAS  C:\Users\jenny\AppData\Local\Temp\ccUygzzS.s 			page 170


 9618 0f0e 0100     		.2byte	0x1
 9619 0f10 55       		.byte	0x55
 9620 0f11 C8000000 		.4byte	.LVL181
 9621 0f15 CB000000 		.4byte	.LVL182-1
 9622 0f19 0100     		.2byte	0x1
 9623 0f1b 50       		.byte	0x50
 9624 0f1c CB000000 		.4byte	.LVL182-1
 9625 0f20 3C010000 		.4byte	.LFE13
 9626 0f24 0100     		.2byte	0x1
 9627 0f26 55       		.byte	0x55
 9628 0f27 00000000 		.4byte	0
 9629 0f2b 00000000 		.4byte	0
 9630              	.LLST47:
 9631 0f2f 00000000 		.4byte	.LVL166
 9632 0f33 10000000 		.4byte	.LVL167
 9633 0f37 0100     		.2byte	0x1
 9634 0f39 51       		.byte	0x51
 9635 0f3a 10000000 		.4byte	.LVL167
 9636 0f3e C8000000 		.4byte	.LVL181
 9637 0f42 0400     		.2byte	0x4
 9638 0f44 F3       		.byte	0xf3
 9639 0f45 01       		.uleb128 0x1
 9640 0f46 51       		.byte	0x51
 9641 0f47 9F       		.byte	0x9f
 9642 0f48 C8000000 		.4byte	.LVL181
 9643 0f4c CB000000 		.4byte	.LVL182-1
 9644 0f50 0100     		.2byte	0x1
 9645 0f52 51       		.byte	0x51
 9646 0f53 CB000000 		.4byte	.LVL182-1
 9647 0f57 3C010000 		.4byte	.LFE13
 9648 0f5b 0400     		.2byte	0x4
 9649 0f5d F3       		.byte	0xf3
 9650 0f5e 01       		.uleb128 0x1
 9651 0f5f 51       		.byte	0x51
 9652 0f60 9F       		.byte	0x9f
 9653 0f61 00000000 		.4byte	0
 9654 0f65 00000000 		.4byte	0
 9655              	.LLST48:
 9656 0f69 38000000 		.4byte	.LVL169
 9657 0f6d 44000000 		.4byte	.LVL170
 9658 0f71 0100     		.2byte	0x1
 9659 0f73 50       		.byte	0x50
 9660 0f74 44000000 		.4byte	.LVL170
 9661 0f78 5C000000 		.4byte	.LVL173
 9662 0f7c 0100     		.2byte	0x1
 9663 0f7e 54       		.byte	0x54
 9664 0f7f CE000000 		.4byte	.LVL183
 9665 0f83 D1000000 		.4byte	.LVL184-1
 9666 0f87 0100     		.2byte	0x1
 9667 0f89 50       		.byte	0x50
 9668 0f8a D1000000 		.4byte	.LVL184-1
 9669 0f8e D4000000 		.4byte	.LVL185
 9670 0f92 0100     		.2byte	0x1
 9671 0f94 54       		.byte	0x54
 9672 0f95 1E010000 		.4byte	.LVL192
 9673 0f99 3C010000 		.4byte	.LFE13
 9674 0f9d 0100     		.2byte	0x1
ARM GAS  C:\Users\jenny\AppData\Local\Temp\ccUygzzS.s 			page 171


 9675 0f9f 54       		.byte	0x54
 9676 0fa0 00000000 		.4byte	0
 9677 0fa4 00000000 		.4byte	0
 9678              	.LLST49:
 9679 0fa8 54000000 		.4byte	.LVL171
 9680 0fac 60000000 		.4byte	.LVL174
 9681 0fb0 0100     		.2byte	0x1
 9682 0fb2 50       		.byte	0x50
 9683 0fb3 60000000 		.4byte	.LVL174
 9684 0fb7 B8000000 		.4byte	.LVL179
 9685 0fbb 0100     		.2byte	0x1
 9686 0fbd 57       		.byte	0x57
 9687 0fbe D4000000 		.4byte	.LVL185
 9688 0fc2 E2000000 		.4byte	.LVL187
 9689 0fc6 0100     		.2byte	0x1
 9690 0fc8 57       		.byte	0x57
 9691 0fc9 E2000000 		.4byte	.LVL187
 9692 0fcd E5000000 		.4byte	.LVL188-1
 9693 0fd1 0100     		.2byte	0x1
 9694 0fd3 50       		.byte	0x50
 9695 0fd4 E5000000 		.4byte	.LVL188-1
 9696 0fd8 F6000000 		.4byte	.LVL190
 9697 0fdc 0100     		.2byte	0x1
 9698 0fde 57       		.byte	0x57
 9699 0fdf 00000000 		.4byte	0
 9700 0fe3 00000000 		.4byte	0
 9701              	.LLST50:
 9702 0fe7 00000000 		.4byte	.LVL166
 9703 0feb 26000000 		.4byte	.LVL168
 9704 0fef 0200     		.2byte	0x2
 9705 0ff1 30       		.byte	0x30
 9706 0ff2 9F       		.byte	0x9f
 9707 0ff3 26000000 		.4byte	.LVL168
 9708 0ff7 56000000 		.4byte	.LVL172
 9709 0ffb 0100     		.2byte	0x1
 9710 0ffd 57       		.byte	0x57
 9711 0ffe C0000000 		.4byte	.LVL180
 9712 1002 CE000000 		.4byte	.LVL183
 9713 1006 0200     		.2byte	0x2
 9714 1008 30       		.byte	0x30
 9715 1009 9F       		.byte	0x9f
 9716 100a CE000000 		.4byte	.LVL183
 9717 100e D4000000 		.4byte	.LVL185
 9718 1012 0100     		.2byte	0x1
 9719 1014 57       		.byte	0x57
 9720 1015 F6000000 		.4byte	.LVL190
 9721 1019 06010000 		.4byte	.LVL191
 9722 101d 0100     		.2byte	0x1
 9723 101f 57       		.byte	0x57
 9724 1020 06010000 		.4byte	.LVL191
 9725 1024 1E010000 		.4byte	.LVL192
 9726 1028 0200     		.2byte	0x2
 9727 102a 30       		.byte	0x30
 9728 102b 9F       		.byte	0x9f
 9729 102c 00000000 		.4byte	0
 9730 1030 00000000 		.4byte	0
 9731              	.LLST51:
ARM GAS  C:\Users\jenny\AppData\Local\Temp\ccUygzzS.s 			page 172


 9732 1034 6C000000 		.4byte	.LVL175
 9733 1038 76000000 		.4byte	.LVL177
 9734 103c 0100     		.2byte	0x1
 9735 103e 52       		.byte	0x52
 9736 103f 00000000 		.4byte	0
 9737 1043 00000000 		.4byte	0
 9738              	.LLST52:
 9739 1047 00000000 		.4byte	.LFB8
 9740 104b 02000000 		.4byte	.LCFI7
 9741 104f 0200     		.2byte	0x2
 9742 1051 7D       		.byte	0x7d
 9743 1052 00       		.sleb128 0
 9744 1053 02000000 		.4byte	.LCFI7
 9745 1057 46000000 		.4byte	.LFE8
 9746 105b 0200     		.2byte	0x2
 9747 105d 7D       		.byte	0x7d
 9748 105e 18       		.sleb128 24
 9749 105f 00000000 		.4byte	0
 9750 1063 00000000 		.4byte	0
 9751              	.LLST53:
 9752 1067 00000000 		.4byte	.LVL193
 9753 106b 14000000 		.4byte	.LVL196
 9754 106f 0100     		.2byte	0x1
 9755 1071 50       		.byte	0x50
 9756 1072 14000000 		.4byte	.LVL196
 9757 1076 46000000 		.4byte	.LFE8
 9758 107a 0100     		.2byte	0x1
 9759 107c 55       		.byte	0x55
 9760 107d 00000000 		.4byte	0
 9761 1081 00000000 		.4byte	0
 9762              	.LLST54:
 9763 1085 0A000000 		.4byte	.LVL194
 9764 1089 20000000 		.4byte	.LVL198
 9765 108d 0100     		.2byte	0x1
 9766 108f 54       		.byte	0x54
 9767 1090 2C000000 		.4byte	.LVL199
 9768 1094 2E000000 		.4byte	.LVL200
 9769 1098 0100     		.2byte	0x1
 9770 109a 54       		.byte	0x54
 9771 109b 00000000 		.4byte	0
 9772 109f 00000000 		.4byte	0
 9773              	.LLST55:
 9774 10a3 00000000 		.4byte	.LFB14
 9775 10a7 02000000 		.4byte	.LCFI8
 9776 10ab 0200     		.2byte	0x2
 9777 10ad 7D       		.byte	0x7d
 9778 10ae 00       		.sleb128 0
 9779 10af 02000000 		.4byte	.LCFI8
 9780 10b3 06000000 		.4byte	.LCFI9
 9781 10b7 0200     		.2byte	0x2
 9782 10b9 7D       		.byte	0x7d
 9783 10ba 14       		.sleb128 20
 9784 10bb 06000000 		.4byte	.LCFI9
 9785 10bf 62000000 		.4byte	.LFE14
 9786 10c3 0200     		.2byte	0x2
 9787 10c5 7D       		.byte	0x7d
 9788 10c6 20       		.sleb128 32
ARM GAS  C:\Users\jenny\AppData\Local\Temp\ccUygzzS.s 			page 173


 9789 10c7 00000000 		.4byte	0
 9790 10cb 00000000 		.4byte	0
 9791              	.LLST56:
 9792 10cf 00000000 		.4byte	.LVL202
 9793 10d3 08000000 		.4byte	.LVL203
 9794 10d7 0100     		.2byte	0x1
 9795 10d9 50       		.byte	0x50
 9796 10da 08000000 		.4byte	.LVL203
 9797 10de 62000000 		.4byte	.LFE14
 9798 10e2 0100     		.2byte	0x1
 9799 10e4 54       		.byte	0x54
 9800 10e5 00000000 		.4byte	0
 9801 10e9 00000000 		.4byte	0
 9802              	.LLST57:
 9803 10ed 16000000 		.4byte	.LVL205
 9804 10f1 39000000 		.4byte	.LVL207-1
 9805 10f5 0100     		.2byte	0x1
 9806 10f7 50       		.byte	0x50
 9807 10f8 39000000 		.4byte	.LVL207-1
 9808 10fc 5E000000 		.4byte	.LVL211
 9809 1100 0100     		.2byte	0x1
 9810 1102 55       		.byte	0x55
 9811 1103 5E000000 		.4byte	.LVL211
 9812 1107 62000000 		.4byte	.LFE14
 9813 110b 0100     		.2byte	0x1
 9814 110d 50       		.byte	0x50
 9815 110e 00000000 		.4byte	0
 9816 1112 00000000 		.4byte	0
 9817              	.LLST58:
 9818 1116 20000000 		.4byte	.LVL206
 9819 111a 58000000 		.4byte	.LVL210
 9820 111e 0100     		.2byte	0x1
 9821 1120 57       		.byte	0x57
 9822 1121 00000000 		.4byte	0
 9823 1125 00000000 		.4byte	0
 9824              	.LLST59:
 9825 1129 00000000 		.4byte	.LFB15
 9826 112d 04000000 		.4byte	.LCFI10
 9827 1131 0200     		.2byte	0x2
 9828 1133 7D       		.byte	0x7d
 9829 1134 00       		.sleb128 0
 9830 1135 04000000 		.4byte	.LCFI10
 9831 1139 0A000000 		.4byte	.LCFI11
 9832 113d 0200     		.2byte	0x2
 9833 113f 7D       		.byte	0x7d
 9834 1140 24       		.sleb128 36
 9835 1141 0A000000 		.4byte	.LCFI11
 9836 1145 FE020000 		.4byte	.LFE15
 9837 1149 0200     		.2byte	0x2
 9838 114b 7D       		.byte	0x7d
 9839 114c 38       		.sleb128 56
 9840 114d 00000000 		.4byte	0
 9841 1151 00000000 		.4byte	0
 9842              	.LLST60:
 9843 1155 00000000 		.4byte	.LVL212
 9844 1159 10000000 		.4byte	.LVL213
 9845 115d 0100     		.2byte	0x1
ARM GAS  C:\Users\jenny\AppData\Local\Temp\ccUygzzS.s 			page 174


 9846 115f 50       		.byte	0x50
 9847 1160 10000000 		.4byte	.LVL213
 9848 1164 F8020000 		.4byte	.LVL267
 9849 1168 0100     		.2byte	0x1
 9850 116a 54       		.byte	0x54
 9851 116b F8020000 		.4byte	.LVL267
 9852 116f FB020000 		.4byte	.LVL268-1
 9853 1173 0100     		.2byte	0x1
 9854 1175 50       		.byte	0x50
 9855 1176 FB020000 		.4byte	.LVL268-1
 9856 117a FE020000 		.4byte	.LFE15
 9857 117e 0100     		.2byte	0x1
 9858 1180 54       		.byte	0x54
 9859 1181 00000000 		.4byte	0
 9860 1185 00000000 		.4byte	0
 9861              	.LLST61:
 9862 1189 36000000 		.4byte	.LVL214
 9863 118d 46020000 		.4byte	.LVL255
 9864 1191 0100     		.2byte	0x1
 9865 1193 55       		.byte	0x55
 9866 1194 4E020000 		.4byte	.LVL256
 9867 1198 F8020000 		.4byte	.LVL267
 9868 119c 0100     		.2byte	0x1
 9869 119e 55       		.byte	0x55
 9870 119f 00000000 		.4byte	0
 9871 11a3 00000000 		.4byte	0
 9872              	.LLST62:
 9873 11a7 3E000000 		.4byte	.LVL215
 9874 11ab C4010000 		.4byte	.LVL237
 9875 11af 0100     		.2byte	0x1
 9876 11b1 57       		.byte	0x57
 9877 11b2 C4010000 		.4byte	.LVL237
 9878 11b6 C6010000 		.4byte	.LVL238
 9879 11ba 0200     		.2byte	0x2
 9880 11bc 77       		.byte	0x77
 9881 11bd 00       		.sleb128 0
 9882 11be C6010000 		.4byte	.LVL238
 9883 11c2 30020000 		.4byte	.LVL251
 9884 11c6 0100     		.2byte	0x1
 9885 11c8 57       		.byte	0x57
 9886 11c9 30020000 		.4byte	.LVL251
 9887 11cd 38020000 		.4byte	.LVL253
 9888 11d1 0300     		.2byte	0x3
 9889 11d3 74       		.byte	0x74
 9890 11d4 F000     		.sleb128 112
 9891 11d6 38020000 		.4byte	.LVL253
 9892 11da 46020000 		.4byte	.LVL255
 9893 11de 0100     		.2byte	0x1
 9894 11e0 57       		.byte	0x57
 9895 11e1 4E020000 		.4byte	.LVL256
 9896 11e5 CC020000 		.4byte	.LVL264
 9897 11e9 0100     		.2byte	0x1
 9898 11eb 57       		.byte	0x57
 9899 11ec F2020000 		.4byte	.LVL266
 9900 11f0 F8020000 		.4byte	.LVL267
 9901 11f4 0100     		.2byte	0x1
 9902 11f6 57       		.byte	0x57
ARM GAS  C:\Users\jenny\AppData\Local\Temp\ccUygzzS.s 			page 175


 9903 11f7 00000000 		.4byte	0
 9904 11fb 00000000 		.4byte	0
 9905              	.LLST63:
 9906 11ff 36000000 		.4byte	.LVL214
 9907 1203 5C000000 		.4byte	.LVL217
 9908 1207 0100     		.2byte	0x1
 9909 1209 5A       		.byte	0x5a
 9910 120a 5C000000 		.4byte	.LVL217
 9911 120e 46020000 		.4byte	.LVL255
 9912 1212 0200     		.2byte	0x2
 9913 1214 91       		.byte	0x91
 9914 1215 54       		.sleb128 -44
 9915 1216 4E020000 		.4byte	.LVL256
 9916 121a CC020000 		.4byte	.LVL264
 9917 121e 0200     		.2byte	0x2
 9918 1220 91       		.byte	0x91
 9919 1221 54       		.sleb128 -44
 9920 1222 CC020000 		.4byte	.LVL264
 9921 1226 F2020000 		.4byte	.LVL266
 9922 122a 0100     		.2byte	0x1
 9923 122c 5A       		.byte	0x5a
 9924 122d F2020000 		.4byte	.LVL266
 9925 1231 F8020000 		.4byte	.LVL267
 9926 1235 0200     		.2byte	0x2
 9927 1237 91       		.byte	0x91
 9928 1238 54       		.sleb128 -44
 9929 1239 00000000 		.4byte	0
 9930 123d 00000000 		.4byte	0
 9931              	.LLST64:
 9932 1241 7C010000 		.4byte	.LVL233
 9933 1245 8F010000 		.4byte	.LVL234-1
 9934 1249 0100     		.2byte	0x1
 9935 124b 53       		.byte	0x53
 9936 124c 00000000 		.4byte	0
 9937 1250 00000000 		.4byte	0
 9938              	.LLST65:
 9939 1254 A0000000 		.4byte	.LVL219
 9940 1258 CC010000 		.4byte	.LVL240
 9941 125c 0100     		.2byte	0x1
 9942 125e 54       		.byte	0x54
 9943 125f FE010000 		.4byte	.LVL244
 9944 1263 3A020000 		.4byte	.LVL254
 9945 1267 0100     		.2byte	0x1
 9946 1269 54       		.byte	0x54
 9947 126a 4E020000 		.4byte	.LVL256
 9948 126e 90020000 		.4byte	.LVL263
 9949 1272 0100     		.2byte	0x1
 9950 1274 54       		.byte	0x54
 9951 1275 00000000 		.4byte	0
 9952 1279 00000000 		.4byte	0
 9953              	.LLST66:
 9954 127d A0000000 		.4byte	.LVL219
 9955 1281 C8010000 		.4byte	.LVL239
 9956 1285 0100     		.2byte	0x1
 9957 1287 55       		.byte	0x55
 9958 1288 FE010000 		.4byte	.LVL244
 9959 128c 34020000 		.4byte	.LVL252
ARM GAS  C:\Users\jenny\AppData\Local\Temp\ccUygzzS.s 			page 176


 9960 1290 0100     		.2byte	0x1
 9961 1292 55       		.byte	0x55
 9962 1293 34020000 		.4byte	.LVL252
 9963 1297 38020000 		.4byte	.LVL253
 9964 129b 0300     		.2byte	0x3
 9965 129d 74       		.byte	0x74
 9966 129e F000     		.sleb128 112
 9967 12a0 4E020000 		.4byte	.LVL256
 9968 12a4 90020000 		.4byte	.LVL263
 9969 12a8 0100     		.2byte	0x1
 9970 12aa 55       		.byte	0x55
 9971 12ab 00000000 		.4byte	0
 9972 12af 00000000 		.4byte	0
 9973              	.LLST67:
 9974 12b3 0C010000 		.4byte	.LVL226
 9975 12b7 1E010000 		.4byte	.LVL227
 9976 12bb 0100     		.2byte	0x1
 9977 12bd 51       		.byte	0x51
 9978 12be 1E010000 		.4byte	.LVL227
 9979 12c2 2A010000 		.4byte	.LVL228
 9980 12c6 0100     		.2byte	0x1
 9981 12c8 53       		.byte	0x53
 9982 12c9 2A010000 		.4byte	.LVL228
 9983 12cd 31010000 		.4byte	.LVL229-1
 9984 12d1 0700     		.2byte	0x7
 9985 12d3 7B       		.byte	0x7b
 9986 12d4 00       		.sleb128 0
 9987 12d5 70       		.byte	0x70
 9988 12d6 04       		.sleb128 4
 9989 12d7 06       		.byte	0x6
 9990 12d8 1C       		.byte	0x1c
 9991 12d9 9F       		.byte	0x9f
 9992 12da 00000000 		.4byte	0
 9993 12de 00000000 		.4byte	0
 9994              	.LLST68:
 9995 12e2 E4000000 		.4byte	.LVL224
 9996 12e6 EC000000 		.4byte	.LVL225
 9997 12ea 0100     		.2byte	0x1
 9998 12ec 50       		.byte	0x50
 9999 12ed 00000000 		.4byte	0
 10000 12f1 00000000 		.4byte	0
 10001              	.LLST69:
 10002 12f5 C4000000 		.4byte	.LVL222
 10003 12f9 D0000000 		.4byte	.LVL223
 10004 12fd 0300     		.2byte	0x3
 10005 12ff 7A       		.byte	0x7a
 10006 1300 14       		.sleb128 20
 10007 1301 9F       		.byte	0x9f
 10008 1302 FE010000 		.4byte	.LVL244
 10009 1306 14020000 		.4byte	.LVL248
 10010 130a 0300     		.2byte	0x3
 10011 130c 7A       		.byte	0x7a
 10012 130d 14       		.sleb128 20
 10013 130e 9F       		.byte	0x9f
 10014 130f 14020000 		.4byte	.LVL248
 10015 1313 16020000 		.4byte	.LVL249
 10016 1317 0300     		.2byte	0x3
ARM GAS  C:\Users\jenny\AppData\Local\Temp\ccUygzzS.s 			page 177


 10017 1319 7A       		.byte	0x7a
 10018 131a 18       		.sleb128 24
 10019 131b 9F       		.byte	0x9f
 10020 131c 00000000 		.4byte	0
 10021 1320 00000000 		.4byte	0
 10022              	.LLST70:
 10023 1324 08020000 		.4byte	.LVL245
 10024 1328 0C020000 		.4byte	.LVL246
 10025 132c 0100     		.2byte	0x1
 10026 132e 50       		.byte	0x50
 10027 132f 00000000 		.4byte	0
 10028 1333 00000000 		.4byte	0
 10029              	.LLST71:
 10030 1337 54020000 		.4byte	.LVL257
 10031 133b 88020000 		.4byte	.LVL261
 10032 133f 0100     		.2byte	0x1
 10033 1341 5B       		.byte	0x5b
 10034 1342 00000000 		.4byte	0
 10035 1346 00000000 		.4byte	0
 10036              	.LLST72:
 10037 134a 00000000 		.4byte	.LFB17
 10038 134e 04000000 		.4byte	.LCFI12
 10039 1352 0200     		.2byte	0x2
 10040 1354 7D       		.byte	0x7d
 10041 1355 00       		.sleb128 0
 10042 1356 04000000 		.4byte	.LCFI12
 10043 135a 06000000 		.4byte	.LCFI13
 10044 135e 0200     		.2byte	0x2
 10045 1360 7D       		.byte	0x7d
 10046 1361 20       		.sleb128 32
 10047 1362 06000000 		.4byte	.LCFI13
 10048 1366 B8000000 		.4byte	.LFE17
 10049 136a 0200     		.2byte	0x2
 10050 136c 7D       		.byte	0x7d
 10051 136d 28       		.sleb128 40
 10052 136e 00000000 		.4byte	0
 10053 1372 00000000 		.4byte	0
 10054              	.LLST73:
 10055 1376 00000000 		.4byte	.LVL269
 10056 137a 0E000000 		.4byte	.LVL270
 10057 137e 0100     		.2byte	0x1
 10058 1380 50       		.byte	0x50
 10059 1381 0E000000 		.4byte	.LVL270
 10060 1385 B8000000 		.4byte	.LFE17
 10061 1389 0100     		.2byte	0x1
 10062 138b 59       		.byte	0x59
 10063 138c 00000000 		.4byte	0
 10064 1390 00000000 		.4byte	0
 10065              	.LLST74:
 10066 1394 00000000 		.4byte	.LVL269
 10067 1398 10000000 		.4byte	.LVL271
 10068 139c 0100     		.2byte	0x1
 10069 139e 51       		.byte	0x51
 10070 139f 10000000 		.4byte	.LVL271
 10071 13a3 58000000 		.4byte	.LVL281
 10072 13a7 0100     		.2byte	0x1
 10073 13a9 56       		.byte	0x56
ARM GAS  C:\Users\jenny\AppData\Local\Temp\ccUygzzS.s 			page 178


 10074 13aa 58000000 		.4byte	.LVL281
 10075 13ae A8000000 		.4byte	.LVL285
 10076 13b2 0400     		.2byte	0x4
 10077 13b4 F3       		.byte	0xf3
 10078 13b5 01       		.uleb128 0x1
 10079 13b6 51       		.byte	0x51
 10080 13b7 9F       		.byte	0x9f
 10081 13b8 A8000000 		.4byte	.LVL285
 10082 13bc B8000000 		.4byte	.LFE17
 10083 13c0 0100     		.2byte	0x1
 10084 13c2 56       		.byte	0x56
 10085 13c3 00000000 		.4byte	0
 10086 13c7 00000000 		.4byte	0
 10087              	.LLST75:
 10088 13cb 00000000 		.4byte	.LVL269
 10089 13cf 12000000 		.4byte	.LVL272
 10090 13d3 0100     		.2byte	0x1
 10091 13d5 52       		.byte	0x52
 10092 13d6 12000000 		.4byte	.LVL272
 10093 13da B8000000 		.4byte	.LFE17
 10094 13de 0100     		.2byte	0x1
 10095 13e0 58       		.byte	0x58
 10096 13e1 00000000 		.4byte	0
 10097 13e5 00000000 		.4byte	0
 10098              	.LLST76:
 10099 13e9 00000000 		.4byte	.LVL269
 10100 13ed 1F000000 		.4byte	.LVL273-1
 10101 13f1 0100     		.2byte	0x1
 10102 13f3 53       		.byte	0x53
 10103 13f4 1F000000 		.4byte	.LVL273-1
 10104 13f8 B8000000 		.4byte	.LFE17
 10105 13fc 0100     		.2byte	0x1
 10106 13fe 57       		.byte	0x57
 10107 13ff 00000000 		.4byte	0
 10108 1403 00000000 		.4byte	0
 10109              	.LLST77:
 10110 1407 20000000 		.4byte	.LVL273
 10111 140b 2C000000 		.4byte	.LVL274
 10112 140f 0100     		.2byte	0x1
 10113 1411 50       		.byte	0x50
 10114 1412 2C000000 		.4byte	.LVL274
 10115 1416 A8000000 		.4byte	.LVL285
 10116 141a 0100     		.2byte	0x1
 10117 141c 55       		.byte	0x55
 10118 141d A8000000 		.4byte	.LVL285
 10119 1421 AB000000 		.4byte	.LVL286-1
 10120 1425 0100     		.2byte	0x1
 10121 1427 50       		.byte	0x50
 10122 1428 AB000000 		.4byte	.LVL286-1
 10123 142c AE000000 		.4byte	.LVL287
 10124 1430 0100     		.2byte	0x1
 10125 1432 55       		.byte	0x55
 10126 1433 AE000000 		.4byte	.LVL287
 10127 1437 B8000000 		.4byte	.LFE17
 10128 143b 0100     		.2byte	0x1
 10129 143d 50       		.byte	0x50
 10130 143e 00000000 		.4byte	0
ARM GAS  C:\Users\jenny\AppData\Local\Temp\ccUygzzS.s 			page 179


 10131 1442 00000000 		.4byte	0
 10132              	.LLST78:
 10133 1446 30000000 		.4byte	.LVL275
 10134 144a 88000000 		.4byte	.LVL283
 10135 144e 0100     		.2byte	0x1
 10136 1450 54       		.byte	0x54
 10137 1451 00000000 		.4byte	0
 10138 1455 00000000 		.4byte	0
 10139              	.LLST79:
 10140 1459 00000000 		.4byte	.LFB18
 10141 145d 04000000 		.4byte	.LCFI14
 10142 1461 0200     		.2byte	0x2
 10143 1463 7D       		.byte	0x7d
 10144 1464 00       		.sleb128 0
 10145 1465 04000000 		.4byte	.LCFI14
 10146 1469 30000000 		.4byte	.LFE18
 10147 146d 0200     		.2byte	0x2
 10148 146f 7D       		.byte	0x7d
 10149 1470 04       		.sleb128 4
 10150 1471 00000000 		.4byte	0
 10151 1475 00000000 		.4byte	0
 10152              	.LLST80:
 10153 1479 00000000 		.4byte	.LVL288
 10154 147d 2B000000 		.4byte	.LVL292-1
 10155 1481 0100     		.2byte	0x1
 10156 1483 50       		.byte	0x50
 10157 1484 2B000000 		.4byte	.LVL292-1
 10158 1488 2C000000 		.4byte	.LVL292
 10159 148c 0400     		.2byte	0x4
 10160 148e F3       		.byte	0xf3
 10161 148f 01       		.uleb128 0x1
 10162 1490 50       		.byte	0x50
 10163 1491 9F       		.byte	0x9f
 10164 1492 2C000000 		.4byte	.LVL292
 10165 1496 30000000 		.4byte	.LFE18
 10166 149a 0100     		.2byte	0x1
 10167 149c 50       		.byte	0x50
 10168 149d 00000000 		.4byte	0
 10169 14a1 00000000 		.4byte	0
 10170              	.LLST81:
 10171 14a5 0A000000 		.4byte	.LVL289
 10172 14a9 1A000000 		.4byte	.LVL291
 10173 14ad 0100     		.2byte	0x1
 10174 14af 52       		.byte	0x52
 10175 14b0 00000000 		.4byte	0
 10176 14b4 00000000 		.4byte	0
 10177              	.LLST82:
 10178 14b8 00000000 		.4byte	.LFB19
 10179 14bc 02000000 		.4byte	.LCFI15
 10180 14c0 0200     		.2byte	0x2
 10181 14c2 7D       		.byte	0x7d
 10182 14c3 00       		.sleb128 0
 10183 14c4 02000000 		.4byte	.LCFI15
 10184 14c8 54000000 		.4byte	.LFE19
 10185 14cc 0200     		.2byte	0x2
 10186 14ce 7D       		.byte	0x7d
 10187 14cf 18       		.sleb128 24
ARM GAS  C:\Users\jenny\AppData\Local\Temp\ccUygzzS.s 			page 180


 10188 14d0 00000000 		.4byte	0
 10189 14d4 00000000 		.4byte	0
 10190              	.LLST83:
 10191 14d8 00000000 		.4byte	.LVL293
 10192 14dc 16000000 		.4byte	.LVL296
 10193 14e0 0100     		.2byte	0x1
 10194 14e2 50       		.byte	0x50
 10195 14e3 16000000 		.4byte	.LVL296
 10196 14e7 54000000 		.4byte	.LFE19
 10197 14eb 0100     		.2byte	0x1
 10198 14ed 57       		.byte	0x57
 10199 14ee 00000000 		.4byte	0
 10200 14f2 00000000 		.4byte	0
 10201              	.LLST84:
 10202 14f6 08000000 		.4byte	.LVL294
 10203 14fa 4C000000 		.4byte	.LVL300
 10204 14fe 0100     		.2byte	0x1
 10205 1500 56       		.byte	0x56
 10206 1501 4E000000 		.4byte	.LVL301
 10207 1505 54000000 		.4byte	.LFE19
 10208 1509 0100     		.2byte	0x1
 10209 150b 56       		.byte	0x56
 10210 150c 00000000 		.4byte	0
 10211 1510 00000000 		.4byte	0
 10212              	.LLST85:
 10213 1514 12000000 		.4byte	.LVL295
 10214 1518 4C000000 		.4byte	.LVL300
 10215 151c 0100     		.2byte	0x1
 10216 151e 54       		.byte	0x54
 10217 151f 4E000000 		.4byte	.LVL301
 10218 1523 54000000 		.4byte	.LFE19
 10219 1527 0100     		.2byte	0x1
 10220 1529 54       		.byte	0x54
 10221 152a 00000000 		.4byte	0
 10222 152e 00000000 		.4byte	0
 10223              	.LLST86:
 10224 1532 00000000 		.4byte	.LFB20
 10225 1536 04000000 		.4byte	.LCFI16
 10226 153a 0200     		.2byte	0x2
 10227 153c 7D       		.byte	0x7d
 10228 153d 00       		.sleb128 0
 10229 153e 04000000 		.4byte	.LCFI16
 10230 1542 54000000 		.4byte	.LFE20
 10231 1546 0200     		.2byte	0x2
 10232 1548 7D       		.byte	0x7d
 10233 1549 08       		.sleb128 8
 10234 154a 00000000 		.4byte	0
 10235 154e 00000000 		.4byte	0
 10236              	.LLST87:
 10237 1552 00000000 		.4byte	.LVL302
 10238 1556 17000000 		.4byte	.LVL303-1
 10239 155a 0100     		.2byte	0x1
 10240 155c 50       		.byte	0x50
 10241 155d 17000000 		.4byte	.LVL303-1
 10242 1561 54000000 		.4byte	.LFE20
 10243 1565 0100     		.2byte	0x1
 10244 1567 54       		.byte	0x54
ARM GAS  C:\Users\jenny\AppData\Local\Temp\ccUygzzS.s 			page 181


 10245 1568 00000000 		.4byte	0
 10246 156c 00000000 		.4byte	0
 10247              	.LLST88:
 10248 1570 00000000 		.4byte	.LFB21
 10249 1574 02000000 		.4byte	.LCFI17
 10250 1578 0200     		.2byte	0x2
 10251 157a 7D       		.byte	0x7d
 10252 157b 00       		.sleb128 0
 10253 157c 02000000 		.4byte	.LCFI17
 10254 1580 08000000 		.4byte	.LCFI18
 10255 1584 0200     		.2byte	0x2
 10256 1586 7D       		.byte	0x7d
 10257 1587 14       		.sleb128 20
 10258 1588 08000000 		.4byte	.LCFI18
 10259 158c 68000000 		.4byte	.LFE21
 10260 1590 0200     		.2byte	0x2
 10261 1592 7D       		.byte	0x7d
 10262 1593 20       		.sleb128 32
 10263 1594 00000000 		.4byte	0
 10264 1598 00000000 		.4byte	0
 10265              	.LLST89:
 10266 159c 00000000 		.4byte	.LVL304
 10267 15a0 06000000 		.4byte	.LVL305
 10268 15a4 0100     		.2byte	0x1
 10269 15a6 50       		.byte	0x50
 10270 15a7 06000000 		.4byte	.LVL305
 10271 15ab 68000000 		.4byte	.LFE21
 10272 15af 0100     		.2byte	0x1
 10273 15b1 54       		.byte	0x54
 10274 15b2 00000000 		.4byte	0
 10275 15b6 00000000 		.4byte	0
 10276              	.LLST90:
 10277 15ba 18000000 		.4byte	.LVL307
 10278 15be 2D000000 		.4byte	.LVL309-1
 10279 15c2 0100     		.2byte	0x1
 10280 15c4 50       		.byte	0x50
 10281 15c5 2D000000 		.4byte	.LVL309-1
 10282 15c9 5E000000 		.4byte	.LVL311
 10283 15cd 0100     		.2byte	0x1
 10284 15cf 55       		.byte	0x55
 10285 15d0 5E000000 		.4byte	.LVL311
 10286 15d4 68000000 		.4byte	.LFE21
 10287 15d8 0100     		.2byte	0x1
 10288 15da 50       		.byte	0x50
 10289 15db 00000000 		.4byte	0
 10290 15df 00000000 		.4byte	0
 10291              	.LLST91:
 10292 15e3 20000000 		.4byte	.LVL308
 10293 15e7 5E000000 		.4byte	.LVL311
 10294 15eb 0100     		.2byte	0x1
 10295 15ed 57       		.byte	0x57
 10296 15ee 00000000 		.4byte	0
 10297 15f2 00000000 		.4byte	0
 10298              	.LLST92:
 10299 15f6 00000000 		.4byte	.LFB22
 10300 15fa 04000000 		.4byte	.LCFI19
 10301 15fe 0200     		.2byte	0x2
ARM GAS  C:\Users\jenny\AppData\Local\Temp\ccUygzzS.s 			page 182


 10302 1600 7D       		.byte	0x7d
 10303 1601 00       		.sleb128 0
 10304 1602 04000000 		.4byte	.LCFI19
 10305 1606 08000000 		.4byte	.LCFI20
 10306 160a 0200     		.2byte	0x2
 10307 160c 7D       		.byte	0x7d
 10308 160d 18       		.sleb128 24
 10309 160e 08000000 		.4byte	.LCFI20
 10310 1612 C8000000 		.4byte	.LFE22
 10311 1616 0200     		.2byte	0x2
 10312 1618 7D       		.byte	0x7d
 10313 1619 20       		.sleb128 32
 10314 161a 00000000 		.4byte	0
 10315 161e 00000000 		.4byte	0
 10316              	.LLST93:
 10317 1622 00000000 		.4byte	.LVL312
 10318 1626 12000000 		.4byte	.LVL314
 10319 162a 0100     		.2byte	0x1
 10320 162c 50       		.byte	0x50
 10321 162d 12000000 		.4byte	.LVL314
 10322 1631 B8000000 		.4byte	.LVL330
 10323 1635 0100     		.2byte	0x1
 10324 1637 54       		.byte	0x54
 10325 1638 B8000000 		.4byte	.LVL330
 10326 163c BE000000 		.4byte	.LVL332
 10327 1640 0100     		.2byte	0x1
 10328 1642 50       		.byte	0x50
 10329 1643 BE000000 		.4byte	.LVL332
 10330 1647 C8000000 		.4byte	.LFE22
 10331 164b 0100     		.2byte	0x1
 10332 164d 54       		.byte	0x54
 10333 164e 00000000 		.4byte	0
 10334 1652 00000000 		.4byte	0
 10335              	.LLST94:
 10336 1656 2A000000 		.4byte	.LVL317
 10337 165a 40000000 		.4byte	.LVL320
 10338 165e 0100     		.2byte	0x1
 10339 1660 50       		.byte	0x50
 10340 1661 40000000 		.4byte	.LVL320
 10341 1665 8C000000 		.4byte	.LVL324
 10342 1669 0100     		.2byte	0x1
 10343 166b 55       		.byte	0x55
 10344 166c A2000000 		.4byte	.LVL325
 10345 1670 A4000000 		.4byte	.LVL326
 10346 1674 0100     		.2byte	0x1
 10347 1676 50       		.byte	0x50
 10348 1677 A4000000 		.4byte	.LVL326
 10349 167b B8000000 		.4byte	.LVL330
 10350 167f 0100     		.2byte	0x1
 10351 1681 55       		.byte	0x55
 10352 1682 00000000 		.4byte	0
 10353 1686 00000000 		.4byte	0
 10354              	.LLST95:
 10355 168a 32000000 		.4byte	.LVL318
 10356 168e 8C000000 		.4byte	.LVL324
 10357 1692 0100     		.2byte	0x1
 10358 1694 57       		.byte	0x57
ARM GAS  C:\Users\jenny\AppData\Local\Temp\ccUygzzS.s 			page 183


 10359 1695 A2000000 		.4byte	.LVL325
 10360 1699 B8000000 		.4byte	.LVL330
 10361 169d 0100     		.2byte	0x1
 10362 169f 57       		.byte	0x57
 10363 16a0 00000000 		.4byte	0
 10364 16a4 00000000 		.4byte	0
 10365              	.LLST96:
 10366 16a8 06000000 		.4byte	.LVL313
 10367 16ac 3E000000 		.4byte	.LVL319
 10368 16b0 0100     		.2byte	0x1
 10369 16b2 56       		.byte	0x56
 10370 16b3 8C000000 		.4byte	.LVL324
 10371 16b7 A6000000 		.4byte	.LVL327
 10372 16bb 0100     		.2byte	0x1
 10373 16bd 56       		.byte	0x56
 10374 16be B8000000 		.4byte	.LVL330
 10375 16c2 C8000000 		.4byte	.LFE22
 10376 16c6 0100     		.2byte	0x1
 10377 16c8 56       		.byte	0x56
 10378 16c9 00000000 		.4byte	0
 10379 16cd 00000000 		.4byte	0
 10380              	.LLST97:
 10381 16d1 20000000 		.4byte	.LVL316
 10382 16d5 29000000 		.4byte	.LVL317-1
 10383 16d9 0100     		.2byte	0x1
 10384 16db 51       		.byte	0x51
 10385 16dc 00000000 		.4byte	0
 10386 16e0 00000000 		.4byte	0
 10387              	.LLST98:
 10388 16e4 20000000 		.4byte	.LVL316
 10389 16e8 8C000000 		.4byte	.LVL324
 10390 16ec 0100     		.2byte	0x1
 10391 16ee 58       		.byte	0x58
 10392 16ef A2000000 		.4byte	.LVL325
 10393 16f3 B8000000 		.4byte	.LVL330
 10394 16f7 0100     		.2byte	0x1
 10395 16f9 58       		.byte	0x58
 10396 16fa 00000000 		.4byte	0
 10397 16fe 00000000 		.4byte	0
 10398              	.LLST99:
 10399 1702 A2000000 		.4byte	.LVL325
 10400 1706 AE000000 		.4byte	.LVL328
 10401 170a 0300     		.2byte	0x3
 10402 170c 77       		.byte	0x77
 10403 170d 14       		.sleb128 20
 10404 170e 9F       		.byte	0x9f
 10405 170f AE000000 		.4byte	.LVL328
 10406 1713 B5000000 		.4byte	.LVL329-1
 10407 1717 0100     		.2byte	0x1
 10408 1719 51       		.byte	0x51
 10409 171a B5000000 		.4byte	.LVL329-1
 10410 171e B8000000 		.4byte	.LVL330
 10411 1722 0300     		.2byte	0x3
 10412 1724 77       		.byte	0x77
 10413 1725 14       		.sleb128 20
 10414 1726 9F       		.byte	0x9f
 10415 1727 00000000 		.4byte	0
ARM GAS  C:\Users\jenny\AppData\Local\Temp\ccUygzzS.s 			page 184


 10416 172b 00000000 		.4byte	0
 10417              		.section	.debug_aranges,"",%progbits
 10418 0000 84000000 		.4byte	0x84
 10419 0004 0200     		.2byte	0x2
 10420 0006 00000000 		.4byte	.Ldebug_info0
 10421 000a 04       		.byte	0x4
 10422 000b 00       		.byte	0
 10423 000c 0000     		.2byte	0
 10424 000e 0000     		.2byte	0
 10425 0010 00000000 		.4byte	.LFB10
 10426 0014 6C000000 		.4byte	.LFE10-.LFB10
 10427 0018 00000000 		.4byte	.LFB9
 10428 001c BC000000 		.4byte	.LFE9-.LFB9
 10429 0020 00000000 		.4byte	.LFB23
 10430 0024 66000000 		.4byte	.LFE23-.LFB23
 10431 0028 00000000 		.4byte	.LFB12
 10432 002c 94040000 		.4byte	.LFE12-.LFB12
 10433 0030 00000000 		.4byte	.LFB13
 10434 0034 3C010000 		.4byte	.LFE13-.LFB13
 10435 0038 00000000 		.4byte	.LFB8
 10436 003c 46000000 		.4byte	.LFE8-.LFB8
 10437 0040 00000000 		.4byte	.LFB14
 10438 0044 62000000 		.4byte	.LFE14-.LFB14
 10439 0048 00000000 		.4byte	.LFB15
 10440 004c FE020000 		.4byte	.LFE15-.LFB15
 10441 0050 00000000 		.4byte	.LFB17
 10442 0054 B8000000 		.4byte	.LFE17-.LFB17
 10443 0058 00000000 		.4byte	.LFB18
 10444 005c 30000000 		.4byte	.LFE18-.LFB18
 10445 0060 00000000 		.4byte	.LFB19
 10446 0064 54000000 		.4byte	.LFE19-.LFB19
 10447 0068 00000000 		.4byte	.LFB20
 10448 006c 54000000 		.4byte	.LFE20-.LFB20
 10449 0070 00000000 		.4byte	.LFB21
 10450 0074 68000000 		.4byte	.LFE21-.LFB21
 10451 0078 00000000 		.4byte	.LFB22
 10452 007c C8000000 		.4byte	.LFE22-.LFB22
 10453 0080 00000000 		.4byte	0
 10454 0084 00000000 		.4byte	0
 10455              		.section	.debug_ranges,"",%progbits
 10456              	.Ldebug_ranges0:
 10457 0000 2A000000 		.4byte	.LBB9
 10458 0004 68000000 		.4byte	.LBE9
 10459 0008 F2000000 		.4byte	.LBB19
 10460 000c FC000000 		.4byte	.LBE19
 10461 0010 00030000 		.4byte	.LBB29
 10462 0014 0A030000 		.4byte	.LBE29
 10463 0018 CE030000 		.4byte	.LBB35
 10464 001c E0030000 		.4byte	.LBE35
 10465 0020 30040000 		.4byte	.LBB37
 10466 0024 48040000 		.4byte	.LBE37
 10467 0028 00000000 		.4byte	0
 10468 002c 00000000 		.4byte	0
 10469 0030 74000000 		.4byte	.LBB15
 10470 0034 F2000000 		.4byte	.LBE15
 10471 0038 2E010000 		.4byte	.LBB20
 10472 003c 58010000 		.4byte	.LBE20
ARM GAS  C:\Users\jenny\AppData\Local\Temp\ccUygzzS.s 			page 185


 10473 0040 32020000 		.4byte	.LBB26
 10474 0044 44020000 		.4byte	.LBE26
 10475 0048 90030000 		.4byte	.LBB34
 10476 004c CE030000 		.4byte	.LBE34
 10477 0050 E0030000 		.4byte	.LBB36
 10478 0054 0A040000 		.4byte	.LBE36
 10479 0058 8A040000 		.4byte	.LBB38
 10480 005c 94040000 		.4byte	.LBE38
 10481 0060 00000000 		.4byte	0
 10482 0064 00000000 		.4byte	0
 10483 0068 46010000 		.4byte	.LBB16
 10484 006c 58010000 		.4byte	.LBE16
 10485 0070 90030000 		.4byte	.LBB17
 10486 0074 CE030000 		.4byte	.LBE17
 10487 0078 E0030000 		.4byte	.LBB18
 10488 007c 0A040000 		.4byte	.LBE18
 10489 0080 00000000 		.4byte	0
 10490 0084 00000000 		.4byte	0
 10491 0088 58010000 		.4byte	.LBB21
 10492 008c D6010000 		.4byte	.LBE21
 10493 0090 DE010000 		.4byte	.LBB25
 10494 0094 32020000 		.4byte	.LBE25
 10495 0098 0A030000 		.4byte	.LBB30
 10496 009c 14030000 		.4byte	.LBE30
 10497 00a0 16030000 		.4byte	.LBB31
 10498 00a4 1A030000 		.4byte	.LBE31
 10499 00a8 28030000 		.4byte	.LBB32
 10500 00ac 3A030000 		.4byte	.LBE32
 10501 00b0 7C030000 		.4byte	.LBB33
 10502 00b4 90030000 		.4byte	.LBE33
 10503 00b8 00000000 		.4byte	0
 10504 00bc 00000000 		.4byte	0
 10505 00c0 58010000 		.4byte	.LBB22
 10506 00c4 94010000 		.4byte	.LBE22
 10507 00c8 0A030000 		.4byte	.LBB23
 10508 00cc 10030000 		.4byte	.LBE23
 10509 00d0 86030000 		.4byte	.LBB24
 10510 00d4 90030000 		.4byte	.LBE24
 10511 00d8 00000000 		.4byte	0
 10512 00dc 00000000 		.4byte	0
 10513 00e0 4E020000 		.4byte	.LBB27
 10514 00e4 58020000 		.4byte	.LBE27
 10515 00e8 5A020000 		.4byte	.LBB28
 10516 00ec 8C020000 		.4byte	.LBE28
 10517 00f0 00000000 		.4byte	0
 10518 00f4 00000000 		.4byte	0
 10519 00f8 0A000000 		.4byte	.LBB40
 10520 00fc 20000000 		.4byte	.LBE40
 10521 0100 2C000000 		.4byte	.LBB41
 10522 0104 42000000 		.4byte	.LBE41
 10523 0108 00000000 		.4byte	0
 10524 010c 00000000 		.4byte	0
 10525 0110 50000000 		.4byte	.LBB46
 10526 0114 5C000000 		.4byte	.LBE46
 10527 0118 A0000000 		.4byte	.LBB53
 10528 011c 54010000 		.4byte	.LBE53
 10529 0120 FE010000 		.4byte	.LBB54
ARM GAS  C:\Users\jenny\AppData\Local\Temp\ccUygzzS.s 			page 186


 10530 0124 2E020000 		.4byte	.LBE54
 10531 0128 00000000 		.4byte	0
 10532 012c 00000000 		.4byte	0
 10533 0130 50000000 		.4byte	.LBB47
 10534 0134 5C000000 		.4byte	.LBE47
 10535 0138 A0000000 		.4byte	.LBB50
 10536 013c C8000000 		.4byte	.LBE50
 10537 0140 CA000000 		.4byte	.LBB51
 10538 0144 54010000 		.4byte	.LBE51
 10539 0148 FE010000 		.4byte	.LBB52
 10540 014c 2E020000 		.4byte	.LBE52
 10541 0150 00000000 		.4byte	0
 10542 0154 00000000 		.4byte	0
 10543 0158 54000000 		.4byte	.LBB48
 10544 015c 58000000 		.4byte	.LBE48
 10545 0160 FE010000 		.4byte	.LBB49
 10546 0164 16020000 		.4byte	.LBE49
 10547 0168 00000000 		.4byte	0
 10548 016c 00000000 		.4byte	0
 10549 0170 00000000 		.4byte	.LFB10
 10550 0174 6C000000 		.4byte	.LFE10
 10551 0178 00000000 		.4byte	.LFB9
 10552 017c BC000000 		.4byte	.LFE9
 10553 0180 00000000 		.4byte	.LFB23
 10554 0184 66000000 		.4byte	.LFE23
 10555 0188 00000000 		.4byte	.LFB12
 10556 018c 94040000 		.4byte	.LFE12
 10557 0190 00000000 		.4byte	.LFB13
 10558 0194 3C010000 		.4byte	.LFE13
 10559 0198 00000000 		.4byte	.LFB8
 10560 019c 46000000 		.4byte	.LFE8
 10561 01a0 00000000 		.4byte	.LFB14
 10562 01a4 62000000 		.4byte	.LFE14
 10563 01a8 00000000 		.4byte	.LFB15
 10564 01ac FE020000 		.4byte	.LFE15
 10565 01b0 00000000 		.4byte	.LFB17
 10566 01b4 B8000000 		.4byte	.LFE17
 10567 01b8 00000000 		.4byte	.LFB18
 10568 01bc 30000000 		.4byte	.LFE18
 10569 01c0 00000000 		.4byte	.LFB19
 10570 01c4 54000000 		.4byte	.LFE19
 10571 01c8 00000000 		.4byte	.LFB20
 10572 01cc 54000000 		.4byte	.LFE20
 10573 01d0 00000000 		.4byte	.LFB21
 10574 01d4 68000000 		.4byte	.LFE21
 10575 01d8 00000000 		.4byte	.LFB22
 10576 01dc C8000000 		.4byte	.LFE22
 10577 01e0 00000000 		.4byte	0
 10578 01e4 00000000 		.4byte	0
 10579              		.section	.debug_line,"",%progbits
 10580              	.Ldebug_line0:
 10581 0000 84070000 		.section	.debug_str,"MS",%progbits,1
 10581      0200B601 
 10581      00000201 
 10581      FB0E0D00 
 10581      01010101 
 10582              	.LASF2:
ARM GAS  C:\Users\jenny\AppData\Local\Temp\ccUygzzS.s 			page 187


 10583 0000 696E7438 		.ascii	"int8_t\000"
 10583      5F7400
 10584              	.LASF154:
 10585 0007 70726F74 		.ascii	"proterr\000"
 10585      65727200 
 10586              	.LASF16:
 10587 000f 73697A65 		.ascii	"sizetype\000"
 10587      74797065 
 10587      00
 10588              	.LASF226:
 10589 0018 7463705F 		.ascii	"tcp_segs_free\000"
 10589      73656773 
 10589      5F667265 
 10589      6500
 10590              	.LASF73:
 10591 0026 7263765F 		.ascii	"rcv_ann_wnd\000"
 10591      616E6E5F 
 10591      776E6400 
 10592              	.LASF232:
 10593 0032 6C776970 		.ascii	"lwip_ntohl\000"
 10593      5F6E746F 
 10593      686C00
 10594              	.LASF185:
 10595 003d 7463705F 		.ascii	"tcp_write_checks\000"
 10595      77726974 
 10595      655F6368 
 10595      65636B73 
 10595      00
 10596              	.LASF159:
 10597 004e 75736564 		.ascii	"used\000"
 10597      00
 10598              	.LASF227:
 10599 0053 6C776970 		.ascii	"lwip_ntohs\000"
 10599      5F6E746F 
 10599      687300
 10600              	.LASF200:
 10601 005e 75736567 		.ascii	"useg\000"
 10601      00
 10602              	.LASF133:
 10603 0063 4D454D50 		.ascii	"MEMP_TCP_PCB\000"
 10603      5F544350 
 10603      5F504342 
 10603      00
 10604              	.LASF9:
 10605 0070 696E7433 		.ascii	"int32_t\000"
 10605      325F7400 
 10606              	.LASF222:
 10607 0078 70627566 		.ascii	"pbuf_clen\000"
 10607      5F636C65 
 10607      6E00
 10608              	.LASF72:
 10609 0082 7263765F 		.ascii	"rcv_wnd\000"
 10609      776E6400 
 10610              	.LASF62:
 10611 008a 736F5F6F 		.ascii	"so_options\000"
 10611      7074696F 
 10611      6E7300
ARM GAS  C:\Users\jenny\AppData\Local\Temp\ccUygzzS.s 			page 188


 10612              	.LASF142:
 10613 0095 4D454D50 		.ascii	"MEMP_SYS_TIMEOUT\000"
 10613      5F535953 
 10613      5F54494D 
 10613      454F5554 
 10613      00
 10614              	.LASF112:
 10615 00a6 4C495354 		.ascii	"LISTEN\000"
 10615      454E00
 10616              	.LASF51:
 10617 00ad 73746174 		.ascii	"state\000"
 10617      6500
 10618              	.LASF23:
 10619 00b3 7333325F 		.ascii	"s32_t\000"
 10619      7400
 10620              	.LASF82:
 10621 00b9 73737468 		.ascii	"ssthresh\000"
 10621      72657368 
 10621      00
 10622              	.LASF40:
 10623 00c2 74797065 		.ascii	"type\000"
 10623      00
 10624              	.LASF198:
 10625 00c7 7463705F 		.ascii	"tcp_write\000"
 10625      77726974 
 10625      6500
 10626              	.LASF235:
 10627 00d1 2E2E2F2E 		.ascii	"../../ext/lwip/src/core/tcp_out.c\000"
 10627      2E2F6578 
 10627      742F6C77 
 10627      69702F73 
 10627      72632F63 
 10628              	.LASF34:
 10629 00f3 50425546 		.ascii	"PBUF_REF\000"
 10629      5F524546 
 10629      00
 10630              	.LASF234:
 10631 00fc 474E5520 		.ascii	"GNU C 4.7.4 20130913 (release) [ARM/embedded-4_7-br"
 10631      4320342E 
 10631      372E3420 
 10631      32303133 
 10631      30393133 
 10632 012f 616E6368 		.ascii	"anch revision 202601]\000"
 10632      20726576 
 10632      6973696F 
 10632      6E203230 
 10632      32363031 
 10633              	.LASF121:
 10634 0145 54494D45 		.ascii	"TIME_WAIT\000"
 10634      5F574149 
 10634      5400
 10635              	.LASF170:
 10636 014f 6D656D70 		.ascii	"memp\000"
 10636      00
 10637              	.LASF237:
 10638 0154 7463705F 		.ascii	"tcp_state\000"
 10638      73746174 
ARM GAS  C:\Users\jenny\AppData\Local\Temp\ccUygzzS.s 			page 189


 10638      6500
 10639              	.LASF65:
 10640 015e 7072696F 		.ascii	"prio\000"
 10640      00
 10641              	.LASF167:
 10642 0163 65746861 		.ascii	"etharp\000"
 10642      727000
 10643              	.LASF210:
 10644 016a 7463705F 		.ascii	"tcp_keepalive\000"
 10644      6B656570 
 10644      616C6976 
 10644      6500
 10645              	.LASF68:
 10646 0178 706F6C6C 		.ascii	"polltmr\000"
 10646      746D7200 
 10647              	.LASF208:
 10648 0180 7463705F 		.ascii	"tcp_rexmit\000"
 10648      7265786D 
 10648      697400
 10649              	.LASF220:
 10650 018b 6C776970 		.ascii	"lwip_htonl\000"
 10650      5F68746F 
 10650      6E6C00
 10651              	.LASF10:
 10652 0196 6C6F6E67 		.ascii	"long int\000"
 10652      20696E74 
 10652      00
 10653              	.LASF219:
 10654 019f 6C776970 		.ascii	"lwip_htons\000"
 10654      5F68746F 
 10654      6E7300
 10655              	.LASF183:
 10656 01aa 6F707466 		.ascii	"optflags\000"
 10656      6C616773 
 10656      00
 10657              	.LASF230:
 10658 01b3 7463705F 		.ascii	"tcp_eff_send_mss\000"
 10658      6566665F 
 10658      73656E64 
 10658      5F6D7373 
 10658      00
 10659              	.LASF115:
 10660 01c4 45535441 		.ascii	"ESTABLISHED\000"
 10660      424C4953 
 10660      48454400 
 10661              	.LASF158:
 10662 01d0 61766169 		.ascii	"avail\000"
 10662      6C00
 10663              	.LASF107:
 10664 01d6 7463705F 		.ascii	"tcp_sent_fn\000"
 10664      73656E74 
 10664      5F666E00 
 10665              	.LASF50:
 10666 01e2 6C696E6B 		.ascii	"linkoutput\000"
 10666      6F757470 
 10666      757400
 10667              	.LASF52:
ARM GAS  C:\Users\jenny\AppData\Local\Temp\ccUygzzS.s 			page 190


 10668 01ed 68776164 		.ascii	"hwaddr_len\000"
 10668      64725F6C 
 10668      656E00
 10669              	.LASF144:
 10670 01f8 4D454D50 		.ascii	"MEMP_PBUF_POOL\000"
 10670      5F504255 
 10670      465F504F 
 10670      4F4C00
 10671              	.LASF1:
 10672 0207 7369676E 		.ascii	"signed char\000"
 10672      65642063 
 10672      68617200 
 10673              	.LASF228:
 10674 0213 696E6574 		.ascii	"inet_chksum_pseudo\000"
 10674      5F63686B 
 10674      73756D5F 
 10674      70736575 
 10674      646F00
 10675              	.LASF3:
 10676 0226 75696E74 		.ascii	"uint8_t\000"
 10676      385F7400 
 10677              	.LASF105:
 10678 022e 6B656570 		.ascii	"keep_cnt_sent\000"
 10678      5F636E74 
 10678      5F73656E 
 10678      7400
 10679              	.LASF212:
 10680 023c 69735F66 		.ascii	"is_fin\000"
 10680      696E00
 10681              	.LASF60:
 10682 0243 6C6F6361 		.ascii	"local_ip\000"
 10682      6C5F6970 
 10682      00
 10683              	.LASF4:
 10684 024c 756E7369 		.ascii	"unsigned char\000"
 10684      676E6564 
 10684      20636861 
 10684      7200
 10685              	.LASF151:
 10686 025a 6C656E65 		.ascii	"lenerr\000"
 10686      727200
 10687              	.LASF206:
 10688 0261 7463705F 		.ascii	"tcp_rst\000"
 10688      72737400 
 10689              	.LASF138:
 10690 0269 4D454D50 		.ascii	"MEMP_NETBUF\000"
 10690      5F4E4554 
 10690      42554600 
 10691              	.LASF231:
 10692 0275 69705F72 		.ascii	"ip_route\000"
 10692      6F757465 
 10692      00
 10693              	.LASF149:
 10694 027e 64726F70 		.ascii	"drop\000"
 10694      00
 10695              	.LASF15:
 10696 0283 5F426F6F 		.ascii	"_Bool\000"
ARM GAS  C:\Users\jenny\AppData\Local\Temp\ccUygzzS.s 			page 191


 10696      6C00
 10697              	.LASF116:
 10698 0289 46494E5F 		.ascii	"FIN_WAIT_1\000"
 10698      57414954 
 10698      5F3100
 10699              	.LASF117:
 10700 0294 46494E5F 		.ascii	"FIN_WAIT_2\000"
 10700      57414954 
 10700      5F3200
 10701              	.LASF35:
 10702 029f 50425546 		.ascii	"PBUF_POOL\000"
 10702      5F504F4F 
 10702      4C00
 10703              	.LASF239:
 10704 02a9 706F7274 		.ascii	"port_halt\000"
 10704      5F68616C 
 10704      7400
 10705              	.LASF113:
 10706 02b3 53594E5F 		.ascii	"SYN_SENT\000"
 10706      53454E54 
 10706      00
 10707              	.LASF217:
 10708 02bc 6D656D70 		.ascii	"memp_malloc\000"
 10708      5F6D616C 
 10708      6C6F6300 
 10709              	.LASF17:
 10710 02c8 63686172 		.ascii	"char\000"
 10710      00
 10711              	.LASF49:
 10712 02cd 6F757470 		.ascii	"output\000"
 10712      757400
 10713              	.LASF123:
 10714 02d4 74637068 		.ascii	"tcphdr\000"
 10714      647200
 10715              	.LASF186:
 10716 02db 636F6E63 		.ascii	"concat_p\000"
 10716      61745F70 
 10716      00
 10717              	.LASF42:
 10718 02e4 70627566 		.ascii	"pbuf\000"
 10718      00
 10719              	.LASF120:
 10720 02e9 4C415354 		.ascii	"LAST_ACK\000"
 10720      5F41434B 
 10720      00
 10721              	.LASF66:
 10722 02f2 6C6F6361 		.ascii	"local_port\000"
 10722      6C5F706F 
 10722      727400
 10723              	.LASF41:
 10724 02fd 666C6167 		.ascii	"flags\000"
 10724      7300
 10725              	.LASF59:
 10726 0303 7463705F 		.ascii	"tcp_pcb\000"
 10726      70636200 
 10727              	.LASF25:
 10728 030b 6D656D5F 		.ascii	"mem_size_t\000"
ARM GAS  C:\Users\jenny\AppData\Local\Temp\ccUygzzS.s 			page 192


 10728      73697A65 
 10728      5F7400
 10729              	.LASF76:
 10730 0316 72747465 		.ascii	"rttest\000"
 10730      737400
 10731              	.LASF218:
 10732 031d 70627566 		.ascii	"pbuf_header\000"
 10732      5F686561 
 10732      64657200 
 10733              	.LASF43:
 10734 0329 69705F61 		.ascii	"ip_addr\000"
 10734      64647200 
 10735              	.LASF236:
 10736 0331 443A5C6A 		.ascii	"D:\\jenny\\dev\\probe\\chibios\\chibios.workspace\\"
 10736      656E6E79 
 10736      5C646576 
 10736      5C70726F 
 10736      62655C63 
 10737 035e 64656D6F 		.ascii	"demos\\ARMCM4-STM32F407-LWIP-FATFS-USB\000"
 10737      735C4152 
 10737      4D434D34 
 10737      2D53544D 
 10737      33324634 
 10738              	.LASF48:
 10739 0384 696E7075 		.ascii	"input\000"
 10739      7400
 10740              	.LASF86:
 10741 038a 736E645F 		.ascii	"snd_lbb\000"
 10741      6C626200 
 10742              	.LASF156:
 10743 0392 63616368 		.ascii	"cachehit\000"
 10743      65686974 
 10743      00
 10744              	.LASF225:
 10745 039b 70627566 		.ascii	"pbuf_cat\000"
 10745      5F636174 
 10745      00
 10746              	.LASF152:
 10747 03a4 6D656D65 		.ascii	"memerr\000"
 10747      727200
 10748              	.LASF165:
 10749 03ab 73746174 		.ascii	"stats_\000"
 10749      735F00
 10750              	.LASF103:
 10751 03b2 70657273 		.ascii	"persist_cnt\000"
 10751      6973745F 
 10751      636E7400 
 10752              	.LASF139:
 10753 03be 4D454D50 		.ascii	"MEMP_NETCONN\000"
 10753      5F4E4554 
 10753      434F4E4E 
 10753      00
 10754              	.LASF118:
 10755 03cb 434C4F53 		.ascii	"CLOSE_WAIT\000"
 10755      455F5741 
 10755      495400
 10756              	.LASF74:
ARM GAS  C:\Users\jenny\AppData\Local\Temp\ccUygzzS.s 			page 193


 10757 03d6 7263765F 		.ascii	"rcv_ann_right_edge\000"
 10757      616E6E5F 
 10757      72696768 
 10757      745F6564 
 10757      676500
 10758              	.LASF77:
 10759 03e9 72747365 		.ascii	"rtseq\000"
 10759      7100
 10760              	.LASF196:
 10761 03ef 6C656674 		.ascii	"left\000"
 10761      00
 10762              	.LASF70:
 10763 03f4 6C617374 		.ascii	"last_timer\000"
 10763      5F74696D 
 10763      657200
 10764              	.LASF211:
 10765 03ff 7463705F 		.ascii	"tcp_zero_window_probe\000"
 10765      7A65726F 
 10765      5F77696E 
 10765      646F775F 
 10765      70726F62 
 10766              	.LASF131:
 10767 0415 4D454D50 		.ascii	"MEMP_RAW_PCB\000"
 10767      5F524157 
 10767      5F504342 
 10767      00
 10768              	.LASF233:
 10769 0422 70627566 		.ascii	"pbuf_copy_partial\000"
 10769      5F636F70 
 10769      795F7061 
 10769      72746961 
 10769      6C00
 10770              	.LASF238:
 10771 0434 7463705F 		.ascii	"tcp_output_segment\000"
 10771      6F757470 
 10771      75745F73 
 10771      65676D65 
 10771      6E7400
 10772              	.LASF12:
 10773 0447 6C6F6E67 		.ascii	"long unsigned int\000"
 10773      20756E73 
 10773      69676E65 
 10773      6420696E 
 10773      7400
 10774              	.LASF46:
 10775 0459 6E657469 		.ascii	"netif\000"
 10775      6600
 10776              	.LASF223:
 10777 045f 7463705F 		.ascii	"tcp_seg_free\000"
 10777      7365675F 
 10777      66726565 
 10777      00
 10778              	.LASF207:
 10779 046c 7463705F 		.ascii	"tcp_rexmit_rto\000"
 10779      7265786D 
 10779      69745F72 
 10779      746F00
ARM GAS  C:\Users\jenny\AppData\Local\Temp\ccUygzzS.s 			page 194


 10780              	.LASF197:
 10781 047b 6D61785F 		.ascii	"max_len\000"
 10781      6C656E00 
 10782              	.LASF33:
 10783 0483 50425546 		.ascii	"PBUF_ROM\000"
 10783      5F524F4D 
 10783      00
 10784              	.LASF53:
 10785 048c 68776164 		.ascii	"hwaddr\000"
 10785      647200
 10786              	.LASF190:
 10787 0493 71756575 		.ascii	"queuelen\000"
 10787      656C656E 
 10787      00
 10788              	.LASF184:
 10789 049c 7463705F 		.ascii	"tcp_output_alloc_header\000"
 10789      6F757470 
 10789      75745F61 
 10789      6C6C6F63 
 10789      5F686561 
 10790              	.LASF176:
 10791 04b4 6D61785F 		.ascii	"max_length\000"
 10791      6C656E67 
 10791      746800
 10792              	.LASF166:
 10793 04bf 6C696E6B 		.ascii	"link\000"
 10793      00
 10794              	.LASF108:
 10795 04c4 7463705F 		.ascii	"tcp_poll_fn\000"
 10795      706F6C6C 
 10795      5F666E00 
 10796              	.LASF204:
 10797 04d0 7463705F 		.ascii	"tcp_output\000"
 10797      6F757470 
 10797      757400
 10798              	.LASF38:
 10799 04db 7061796C 		.ascii	"payload\000"
 10799      6F616400 
 10800              	.LASF78:
 10801 04e3 6E727478 		.ascii	"nrtx\000"
 10801      00
 10802              	.LASF148:
 10803 04e8 786D6974 		.ascii	"xmit\000"
 10803      00
 10804              	.LASF80:
 10805 04ed 6C617374 		.ascii	"lastack\000"
 10805      61636B00 
 10806              	.LASF83:
 10807 04f5 736E645F 		.ascii	"snd_nxt\000"
 10807      6E787400 
 10808              	.LASF181:
 10809 04fd 7463705F 		.ascii	"tcp_pbuf_prealloc\000"
 10809      70627566 
 10809      5F707265 
 10809      616C6C6F 
 10809      6300
 10810              	.LASF193:
ARM GAS  C:\Users\jenny\AppData\Local\Temp\ccUygzzS.s 			page 195


 10811 050f 73706163 		.ascii	"space\000"
 10811      6500
 10812              	.LASF97:
 10813 0515 73656E74 		.ascii	"sent\000"
 10813      00
 10814              	.LASF13:
 10815 051a 6C6F6E67 		.ascii	"long long int\000"
 10815      206C6F6E 
 10815      6720696E 
 10815      7400
 10816              	.LASF214:
 10817 0528 7463705F 		.ascii	"tcp_ticks\000"
 10817      7469636B 
 10817      7300
 10818              	.LASF47:
 10819 0532 6E65746D 		.ascii	"netmask\000"
 10819      61736B00 
 10820              	.LASF205:
 10821 053a 6375725F 		.ascii	"cur_seg\000"
 10821      73656700 
 10822              	.LASF126:
 10823 0542 7365716E 		.ascii	"seqno\000"
 10823      6F00
 10824              	.LASF194:
 10825 0548 756E7365 		.ascii	"unsent_optlen\000"
 10825      6E745F6F 
 10825      70746C65 
 10825      6E00
 10826              	.LASF163:
 10827 0556 6D757465 		.ascii	"mutex\000"
 10827      7800
 10828              	.LASF69:
 10829 055c 706F6C6C 		.ascii	"pollinterval\000"
 10829      696E7465 
 10829      7276616C 
 10829      00
 10830              	.LASF161:
 10831 0569 73746174 		.ascii	"stats_syselem\000"
 10831      735F7379 
 10831      73656C65 
 10831      6D00
 10832              	.LASF147:
 10833 0577 73746174 		.ascii	"stats_proto\000"
 10833      735F7072 
 10833      6F746F00 
 10834              	.LASF44:
 10835 0583 61646472 		.ascii	"addr\000"
 10835      00
 10836              	.LASF180:
 10837 0588 616C6C6F 		.ascii	"alloc\000"
 10837      6300
 10838              	.LASF0:
 10839 058e 756E7369 		.ascii	"unsigned int\000"
 10839      676E6564 
 10839      20696E74 
 10839      00
 10840              	.LASF168:
ARM GAS  C:\Users\jenny\AppData\Local\Temp\ccUygzzS.s 			page 196


 10841 059b 69705F66 		.ascii	"ip_frag\000"
 10841      72616700 
 10842              	.LASF203:
 10843 05a3 6F707473 		.ascii	"opts\000"
 10843      00
 10844              	.LASF20:
 10845 05a8 7531365F 		.ascii	"u16_t\000"
 10845      7400
 10846              	.LASF88:
 10847 05ae 736E645F 		.ascii	"snd_wnd_max\000"
 10847      776E645F 
 10847      6D617800 
 10848              	.LASF71:
 10849 05ba 7263765F 		.ascii	"rcv_nxt\000"
 10849      6E787400 
 10850              	.LASF28:
 10851 05c2 50425546 		.ascii	"PBUF_IP\000"
 10851      5F495000 
 10852              	.LASF182:
 10853 05ca 7463705F 		.ascii	"tcp_create_segment\000"
 10853      63726561 
 10853      74655F73 
 10853      65676D65 
 10853      6E7400
 10854              	.LASF174:
 10855 05dd 6C617965 		.ascii	"layer\000"
 10855      7200
 10856              	.LASF55:
 10857 05e3 6E657469 		.ascii	"netif_input_fn\000"
 10857      665F696E 
 10857      7075745F 
 10857      666E00
 10858              	.LASF213:
 10859 05f2 7463705F 		.ascii	"tcp_input_pcb\000"
 10859      696E7075 
 10859      745F7063 
 10859      6200
 10860              	.LASF36:
 10861 0600 70627566 		.ascii	"pbuf_type\000"
 10861      5F747970 
 10861      6500
 10862              	.LASF100:
 10863 060a 706F6C6C 		.ascii	"poll\000"
 10863      00
 10864              	.LASF172:
 10865 060f 64617461 		.ascii	"datalen\000"
 10865      6C656E00 
 10866              	.LASF57:
 10867 0617 6E657469 		.ascii	"netif_linkoutput_fn\000"
 10867      665F6C69 
 10867      6E6B6F75 
 10867      74707574 
 10867      5F666E00 
 10868              	.LASF75:
 10869 062b 7274696D 		.ascii	"rtime\000"
 10869      6500
 10870              	.LASF114:
ARM GAS  C:\Users\jenny\AppData\Local\Temp\ccUygzzS.s 			page 197


 10871 0631 53594E5F 		.ascii	"SYN_RCVD\000"
 10871      52435644 
 10871      00
 10872              	.LASF56:
 10873 063a 6E657469 		.ascii	"netif_output_fn\000"
 10873      665F6F75 
 10873      74707574 
 10873      5F666E00 
 10874              	.LASF98:
 10875 064a 72656376 		.ascii	"recv\000"
 10875      00
 10876              	.LASF39:
 10877 064f 746F745F 		.ascii	"tot_len\000"
 10877      6C656E00 
 10878              	.LASF195:
 10879 0657 7365676C 		.ascii	"seglen\000"
 10879      656E00
 10880              	.LASF45:
 10881 065e 69705F61 		.ascii	"ip_addr_t\000"
 10881      6464725F 
 10881      7400
 10882              	.LASF229:
 10883 0668 69705F6F 		.ascii	"ip_output\000"
 10883      75747075 
 10883      7400
 10884              	.LASF191:
 10885 0672 6F766572 		.ascii	"oversize_used\000"
 10885      73697A65 
 10885      5F757365 
 10885      6400
 10886              	.LASF26:
 10887 0680 6572725F 		.ascii	"err_t\000"
 10887      7400
 10888              	.LASF146:
 10889 0686 6D656D70 		.ascii	"memp_t\000"
 10889      5F7400
 10890              	.LASF129:
 10891 068d 63686B73 		.ascii	"chksum\000"
 10891      756D00
 10892              	.LASF175:
 10893 0694 6C656E67 		.ascii	"length\000"
 10893      746800
 10894              	.LASF162:
 10895 069b 73746174 		.ascii	"stats_sys\000"
 10895      735F7379 
 10895      7300
 10896              	.LASF136:
 10897 06a5 4D454D50 		.ascii	"MEMP_REASSDATA\000"
 10897      5F524541 
 10897      53534441 
 10897      544100
 10898              	.LASF173:
 10899 06b4 7365716E 		.ascii	"seqno_be\000"
 10899      6F5F6265 
 10899      00
 10900              	.LASF164:
 10901 06bd 6D626F78 		.ascii	"mbox\000"
ARM GAS  C:\Users\jenny\AppData\Local\Temp\ccUygzzS.s 			page 198


 10901      00
 10902              	.LASF169:
 10903 06c2 69636D70 		.ascii	"icmp\000"
 10903      00
 10904              	.LASF137:
 10905 06c7 4D454D50 		.ascii	"MEMP_FRAG_PBUF\000"
 10905      5F465241 
 10905      475F5042 
 10905      554600
 10906              	.LASF14:
 10907 06d6 6C6F6E67 		.ascii	"long long unsigned int\000"
 10907      206C6F6E 
 10907      6720756E 
 10907      7369676E 
 10907      65642069 
 10908              	.LASF132:
 10909 06ed 4D454D50 		.ascii	"MEMP_UDP_PCB\000"
 10909      5F554450 
 10909      5F504342 
 10909      00
 10910              	.LASF67:
 10911 06fa 72656D6F 		.ascii	"remote_port\000"
 10911      74655F70 
 10911      6F727400 
 10912              	.LASF135:
 10913 0706 4D454D50 		.ascii	"MEMP_TCP_SEG\000"
 10913      5F544350 
 10913      5F534547 
 10913      00
 10914              	.LASF7:
 10915 0713 75696E74 		.ascii	"uint16_t\000"
 10915      31365F74 
 10915      00
 10916              	.LASF104:
 10917 071c 70657273 		.ascii	"persist_backoff\000"
 10917      6973745F 
 10917      6261636B 
 10917      6F666600 
 10918              	.LASF141:
 10919 072c 4D454D50 		.ascii	"MEMP_TCPIP_MSG_INPKT\000"
 10919      5F544350 
 10919      49505F4D 
 10919      53475F49 
 10919      4E504B54 
 10920              	.LASF216:
 10921 0741 70627566 		.ascii	"pbuf_alloc\000"
 10921      5F616C6C 
 10921      6F6300
 10922              	.LASF81:
 10923 074c 63776E64 		.ascii	"cwnd\000"
 10923      00
 10924              	.LASF171:
 10925 0751 6F70746C 		.ascii	"optlen\000"
 10925      656E00
 10926              	.LASF96:
 10927 0758 72656675 		.ascii	"refused_data\000"
 10927      7365645F 
ARM GAS  C:\Users\jenny\AppData\Local\Temp\ccUygzzS.s 			page 199


 10927      64617461 
 10927      00
 10928              	.LASF177:
 10929 0765 6F766572 		.ascii	"oversize\000"
 10929      73697A65 
 10929      00
 10930              	.LASF91:
 10931 076e 736E645F 		.ascii	"snd_queuelen\000"
 10931      71756575 
 10931      656C656E 
 10931      00
 10932              	.LASF160:
 10933 077b 696C6C65 		.ascii	"illegal\000"
 10933      67616C00 
 10934              	.LASF189:
 10935 0783 71756575 		.ascii	"queue\000"
 10935      6500
 10936              	.LASF155:
 10937 0789 6F707465 		.ascii	"opterr\000"
 10937      727200
 10938              	.LASF124:
 10939 0790 7463705F 		.ascii	"tcp_hdr\000"
 10939      68647200 
 10940              	.LASF150:
 10941 0798 63686B65 		.ascii	"chkerr\000"
 10941      727200
 10942              	.LASF31:
 10943 079f 70627566 		.ascii	"pbuf_layer\000"
 10943      5F6C6179 
 10943      657200
 10944              	.LASF93:
 10945 07aa 756E7365 		.ascii	"unsent\000"
 10945      6E7400
 10946              	.LASF202:
 10947 07b1 7463705F 		.ascii	"tcp_send_empty_ack\000"
 10947      73656E64 
 10947      5F656D70 
 10947      74795F61 
 10947      636B00
 10948              	.LASF92:
 10949 07c4 756E7365 		.ascii	"unsent_oversize\000"
 10949      6E745F6F 
 10949      76657273 
 10949      697A6500 
 10950              	.LASF221:
 10951 07d4 70627566 		.ascii	"pbuf_free\000"
 10951      5F667265 
 10951      6500
 10952              	.LASF125:
 10953 07de 64657374 		.ascii	"dest\000"
 10953      00
 10954              	.LASF145:
 10955 07e3 4D454D50 		.ascii	"MEMP_MAX\000"
 10955      5F4D4158 
 10955      00
 10956              	.LASF61:
 10957 07ec 72656D6F 		.ascii	"remote_ip\000"
ARM GAS  C:\Users\jenny\AppData\Local\Temp\ccUygzzS.s 			page 200


 10957      74655F69 
 10957      7000
 10958              	.LASF110:
 10959 07f6 7463705F 		.ascii	"tcp_connected_fn\000"
 10959      636F6E6E 
 10959      65637465 
 10959      645F666E 
 10959      00
 10960              	.LASF22:
 10961 0807 7533325F 		.ascii	"u32_t\000"
 10961      7400
 10962              	.LASF127:
 10963 080d 61636B6E 		.ascii	"ackno\000"
 10963      6F00
 10964              	.LASF201:
 10965 0813 7463705F 		.ascii	"tcp_send_fin\000"
 10965      73656E64 
 10965      5F66696E 
 10965      00
 10966              	.LASF157:
 10967 0820 73746174 		.ascii	"stats_mem\000"
 10967      735F6D65 
 10967      6D00
 10968              	.LASF128:
 10969 082a 5F686472 		.ascii	"_hdrlen_rsvd_flags\000"
 10969      6C656E5F 
 10969      72737664 
 10969      5F666C61 
 10969      677300
 10970              	.LASF54:
 10971 083d 6E616D65 		.ascii	"name\000"
 10971      00
 10972              	.LASF143:
 10973 0842 4D454D50 		.ascii	"MEMP_PBUF\000"
 10973      5F504255 
 10973      4600
 10974              	.LASF89:
 10975 084c 61636B65 		.ascii	"acked\000"
 10975      6400
 10976              	.LASF102:
 10977 0852 6B656570 		.ascii	"keep_idle\000"
 10977      5F69646C 
 10977      6500
 10978              	.LASF199:
 10979 085c 7463705F 		.ascii	"tcp_enqueue_flags\000"
 10979      656E7175 
 10979      6575655F 
 10979      666C6167 
 10979      7300
 10980              	.LASF6:
 10981 086e 73686F72 		.ascii	"short int\000"
 10981      7420696E 
 10981      7400
 10982              	.LASF215:
 10983 0878 6C776970 		.ascii	"lwip_stats\000"
 10983      5F737461 
 10983      747300
ARM GAS  C:\Users\jenny\AppData\Local\Temp\ccUygzzS.s 			page 201


 10984              	.LASF209:
 10985 0883 7463705F 		.ascii	"tcp_rexmit_fast\000"
 10985      7265786D 
 10985      69745F66 
 10985      61737400 
 10986              	.LASF94:
 10987 0893 756E6163 		.ascii	"unacked\000"
 10987      6B656400 
 10988              	.LASF5:
 10989 089b 696E7431 		.ascii	"int16_t\000"
 10989      365F7400 
 10990              	.LASF63:
 10991 08a3 63616C6C 		.ascii	"callback_arg\000"
 10991      6261636B 
 10991      5F617267 
 10991      00
 10992              	.LASF140:
 10993 08b0 4D454D50 		.ascii	"MEMP_TCPIP_MSG_API\000"
 10993      5F544350 
 10993      49505F4D 
 10993      53475F41 
 10993      504900
 10994              	.LASF101:
 10995 08c3 65727266 		.ascii	"errf\000"
 10995      00
 10996              	.LASF178:
 10997 08c8 61706966 		.ascii	"apiflags\000"
 10997      6C616773 
 10997      00
 10998              	.LASF64:
 10999 08d1 61636365 		.ascii	"accept\000"
 10999      707400
 11000              	.LASF109:
 11001 08d8 7463705F 		.ascii	"tcp_err_fn\000"
 11001      6572725F 
 11001      666E00
 11002              	.LASF106:
 11003 08e3 7463705F 		.ascii	"tcp_recv_fn\000"
 11003      72656376 
 11003      5F666E00 
 11004              	.LASF187:
 11005 08ef 6C617374 		.ascii	"last_unsent\000"
 11005      5F756E73 
 11005      656E7400 
 11006              	.LASF84:
 11007 08fb 736E645F 		.ascii	"snd_wl1\000"
 11007      776C3100 
 11008              	.LASF85:
 11009 0903 736E645F 		.ascii	"snd_wl2\000"
 11009      776C3200 
 11010              	.LASF188:
 11011 090b 70726576 		.ascii	"prev_seg\000"
 11011      5F736567 
 11011      00
 11012              	.LASF111:
 11013 0914 434C4F53 		.ascii	"CLOSED\000"
 11013      454400
ARM GAS  C:\Users\jenny\AppData\Local\Temp\ccUygzzS.s 			page 202


 11014              	.LASF79:
 11015 091b 64757061 		.ascii	"dupacks\000"
 11015      636B7300 
 11016              	.LASF21:
 11017 0923 7331365F 		.ascii	"s16_t\000"
 11017      7400
 11018              	.LASF192:
 11019 0929 6D73735F 		.ascii	"mss_local\000"
 11019      6C6F6361 
 11019      6C00
 11020              	.LASF224:
 11021 0933 6D656D63 		.ascii	"memcpy\000"
 11021      707900
 11022              	.LASF179:
 11023 093a 66697273 		.ascii	"first_seg\000"
 11023      745F7365 
 11023      6700
 11024              	.LASF24:
 11025 0944 6D656D5F 		.ascii	"mem_ptr_t\000"
 11025      7074725F 
 11025      7400
 11026              	.LASF130:
 11027 094e 75726770 		.ascii	"urgp\000"
 11027      00
 11028              	.LASF11:
 11029 0953 75696E74 		.ascii	"uint32_t\000"
 11029      33325F74 
 11029      00
 11030              	.LASF27:
 11031 095c 50425546 		.ascii	"PBUF_TRANSPORT\000"
 11031      5F545241 
 11031      4E53504F 
 11031      525400
 11032              	.LASF8:
 11033 096b 73686F72 		.ascii	"short unsigned int\000"
 11033      7420756E 
 11033      7369676E 
 11033      65642069 
 11033      6E7400
 11034              	.LASF19:
 11035 097e 73385F74 		.ascii	"s8_t\000"
 11035      00
 11036              	.LASF18:
 11037 0983 75385F74 		.ascii	"u8_t\000"
 11037      00
 11038              	.LASF119:
 11039 0988 434C4F53 		.ascii	"CLOSING\000"
 11039      494E4700 
 11040              	.LASF90:
 11041 0990 736E645F 		.ascii	"snd_buf\000"
 11041      62756600 
 11042              	.LASF87:
 11043 0998 736E645F 		.ascii	"snd_wnd\000"
 11043      776E6400 
 11044              	.LASF32:
 11045 09a0 50425546 		.ascii	"PBUF_RAM\000"
 11045      5F52414D 
ARM GAS  C:\Users\jenny\AppData\Local\Temp\ccUygzzS.s 			page 203


 11045      00
 11046              	.LASF58:
 11047 09a9 7463705F 		.ascii	"tcp_accept_fn\000"
 11047      61636365 
 11047      70745F66 
 11047      6E00
 11048              	.LASF30:
 11049 09b7 50425546 		.ascii	"PBUF_RAW\000"
 11049      5F524157 
 11049      00
 11050              	.LASF153:
 11051 09c0 72746572 		.ascii	"rterr\000"
 11051      7200
 11052              	.LASF37:
 11053 09c6 6E657874 		.ascii	"next\000"
 11053      00
 11054              	.LASF122:
 11055 09cb 7463705F 		.ascii	"tcp_seg\000"
 11055      73656700 
 11056              	.LASF99:
 11057 09d3 636F6E6E 		.ascii	"connected\000"
 11057      65637465 
 11057      6400
 11058              	.LASF134:
 11059 09dd 4D454D50 		.ascii	"MEMP_TCP_PCB_LISTEN\000"
 11059      5F544350 
 11059      5F504342 
 11059      5F4C4953 
 11059      54454E00 
 11060              	.LASF95:
 11061 09f1 6F6F7365 		.ascii	"ooseq\000"
 11061      7100
 11062              	.LASF29:
 11063 09f7 50425546 		.ascii	"PBUF_LINK\000"
 11063      5F4C494E 
 11063      4B00
 11064              		.ident	"GCC: (GNU Tools for ARM Embedded Processors) 4.7.4 20130913 (release) [ARM/embedded-4_7-br
ARM GAS  C:\Users\jenny\AppData\Local\Temp\ccUygzzS.s 			page 204


DEFINED SYMBOLS
                            *ABS*:00000000 tcp_out.c
C:\Users\jenny\AppData\Local\Temp\ccUygzzS.s:20     .text.tcp_pbuf_prealloc:00000000 $t
C:\Users\jenny\AppData\Local\Temp\ccUygzzS.s:25     .text.tcp_pbuf_prealloc:00000000 tcp_pbuf_prealloc
C:\Users\jenny\AppData\Local\Temp\ccUygzzS.s:126    .text.tcp_create_segment:00000000 $t
C:\Users\jenny\AppData\Local\Temp\ccUygzzS.s:131    .text.tcp_create_segment:00000000 tcp_create_segment
C:\Users\jenny\AppData\Local\Temp\ccUygzzS.s:279    .text.tcp_create_segment:000000b8 $d
C:\Users\jenny\AppData\Local\Temp\ccUygzzS.s:284    .text.tcp_output_alloc_header.constprop.0:00000000 $t
C:\Users\jenny\AppData\Local\Temp\ccUygzzS.s:289    .text.tcp_output_alloc_header.constprop.0:00000000 tcp_output_alloc_header.constprop.0
C:\Users\jenny\AppData\Local\Temp\ccUygzzS.s:391    .text.tcp_write:00000000 $t
C:\Users\jenny\AppData\Local\Temp\ccUygzzS.s:397    .text.tcp_write:00000000 tcp_write
C:\Users\jenny\AppData\Local\Temp\ccUygzzS.s:1290   .text.tcp_write:00000490 $d
C:\Users\jenny\AppData\Local\Temp\ccUygzzS.s:1296   .text.tcp_enqueue_flags:00000000 $t
C:\Users\jenny\AppData\Local\Temp\ccUygzzS.s:1302   .text.tcp_enqueue_flags:00000000 tcp_enqueue_flags
C:\Users\jenny\AppData\Local\Temp\ccUygzzS.s:1549   .text.tcp_enqueue_flags:00000138 $d
C:\Users\jenny\AppData\Local\Temp\ccUygzzS.s:1554   .text.tcp_send_fin:00000000 $t
C:\Users\jenny\AppData\Local\Temp\ccUygzzS.s:1560   .text.tcp_send_fin:00000000 tcp_send_fin
C:\Users\jenny\AppData\Local\Temp\ccUygzzS.s:1636   .text.tcp_send_empty_ack:00000000 $t
C:\Users\jenny\AppData\Local\Temp\ccUygzzS.s:1642   .text.tcp_send_empty_ack:00000000 tcp_send_empty_ack
C:\Users\jenny\AppData\Local\Temp\ccUygzzS.s:1725   .text.tcp_output:00000000 $t
C:\Users\jenny\AppData\Local\Temp\ccUygzzS.s:1731   .text.tcp_output:00000000 tcp_output
C:\Users\jenny\AppData\Local\Temp\ccUygzzS.s:2226   .text.tcp_output:000002c4 $d
C:\Users\jenny\AppData\Local\Temp\ccUygzzS.s:2231   .text.tcp_output:000002cc $t
C:\Users\jenny\AppData\Local\Temp\ccUygzzS.s:2270   .text.tcp_rst:00000000 $t
C:\Users\jenny\AppData\Local\Temp\ccUygzzS.s:2276   .text.tcp_rst:00000000 tcp_rst
C:\Users\jenny\AppData\Local\Temp\ccUygzzS.s:2423   .text.tcp_rst:000000b4 $d
C:\Users\jenny\AppData\Local\Temp\ccUygzzS.s:2428   .text.tcp_rexmit_rto:00000000 $t
C:\Users\jenny\AppData\Local\Temp\ccUygzzS.s:2434   .text.tcp_rexmit_rto:00000000 tcp_rexmit_rto
C:\Users\jenny\AppData\Local\Temp\ccUygzzS.s:2493   .text.tcp_rexmit:00000000 $t
C:\Users\jenny\AppData\Local\Temp\ccUygzzS.s:2499   .text.tcp_rexmit:00000000 tcp_rexmit
C:\Users\jenny\AppData\Local\Temp\ccUygzzS.s:2588   .text.tcp_rexmit_fast:00000000 $t
C:\Users\jenny\AppData\Local\Temp\ccUygzzS.s:2594   .text.tcp_rexmit_fast:00000000 tcp_rexmit_fast
C:\Users\jenny\AppData\Local\Temp\ccUygzzS.s:2665   .text.tcp_keepalive:00000000 $t
C:\Users\jenny\AppData\Local\Temp\ccUygzzS.s:2671   .text.tcp_keepalive:00000000 tcp_keepalive
C:\Users\jenny\AppData\Local\Temp\ccUygzzS.s:2752   .text.tcp_keepalive:00000064 $d
C:\Users\jenny\AppData\Local\Temp\ccUygzzS.s:2757   .text.tcp_zero_window_probe:00000000 $t
C:\Users\jenny\AppData\Local\Temp\ccUygzzS.s:2763   .text.tcp_zero_window_probe:00000000 tcp_zero_window_probe
C:\Users\jenny\AppData\Local\Temp\ccUygzzS.s:2913   .text.tcp_zero_window_probe:000000c4 $d
                     .debug_frame:00000010 $d
C:\Users\jenny\AppData\Local\Temp\ccUygzzS.s:283    .text.tcp_create_segment:000000bc $t
C:\Users\jenny\AppData\Local\Temp\ccUygzzS.s:1295   .text.tcp_write:00000494 $t
C:\Users\jenny\AppData\Local\Temp\ccUygzzS.s:1553   .text.tcp_enqueue_flags:0000013c $t
C:\Users\jenny\AppData\Local\Temp\ccUygzzS.s:2427   .text.tcp_rst:000000b8 $t
C:\Users\jenny\AppData\Local\Temp\ccUygzzS.s:2756   .text.tcp_keepalive:00000068 $t
C:\Users\jenny\AppData\Local\Temp\ccUygzzS.s:2917   .text.tcp_zero_window_probe:000000c8 $t

UNDEFINED SYMBOLS
pbuf_alloc
port_halt
memp_malloc
pbuf_header
lwip_htons
lwip_htonl
tcp_seg_free
pbuf_free
lwip_stats
pbuf_cat
ARM GAS  C:\Users\jenny\AppData\Local\Temp\ccUygzzS.s 			page 205


pbuf_clen
memcpy
tcp_segs_free
lwip_ntohs
inet_chksum_pseudo
ip_output
ip_route
lwip_ntohl
tcp_eff_send_mss
tcp_ticks
tcp_input_pcb
pbuf_copy_partial
