ARM GAS  C:\Users\jenny\AppData\Local\Temp\ccUygzzS.s 			page 1


   1              		.syntax unified
   2              		.cpu cortex-m4
   3              		.eabi_attribute 27, 3
   4              		.fpu fpv4-sp-d16
   5              		.eabi_attribute 20, 1
   6              		.eabi_attribute 21, 1
   7              		.eabi_attribute 23, 3
   8              		.eabi_attribute 24, 1
   9              		.eabi_attribute 25, 1
  10              		.eabi_attribute 26, 1
  11              		.eabi_attribute 30, 2
  12              		.eabi_attribute 34, 1
  13              		.eabi_attribute 18, 4
  14              		.thumb
  15              		.file	"tcp_out.c"
  16              		.text
  17              	.Ltext0:
  18              		.cfi_sections	.debug_frame
  19              		.section	.text.tcp_pbuf_prealloc,"ax",%progbits
  20              		.align	2
  21              		.p2align 4,,15
  22              		.thumb
  23              		.thumb_func
  24              		.type	tcp_pbuf_prealloc, %function
  25              	tcp_pbuf_prealloc:
  26              	.LFB10:
  27              		.file 1 "../../ext/lwip/src/core/tcp_out.c"
  28              		.loc 1 222 0
  29              		.cfi_startproc
  30              		@ args = 12, pretend = 0, frame = 0
  31              		@ frame_needed = 0, uses_anonymous_args = 0
  32              	.LVL0:
  33              		.loc 1 234 0
  34 0000 9142     		cmp	r1, r2
  35              		.loc 1 222 0
  36 0002 70B5     		push	{r4, r5, r6, lr}
  37              	.LCFI0:
  38              		.cfi_def_cfa_offset 16
  39              		.cfi_offset 4, -16
  40              		.cfi_offset 5, -12
  41              		.cfi_offset 6, -8
  42              		.cfi_offset 14, -4
  43              		.loc 1 222 0
  44 0004 0D46     		mov	r5, r1
  45              	.LVL1:
  46 0006 1E46     		mov	r6, r3
  47              		.loc 1 234 0
  48 0008 14D2     		bcs	.L8
  49              		.loc 1 246 0
  50 000a 9DF81430 		ldrb	r3, [sp, #20]	@ zero_extendqisi2
  51              	.LVL2:
  52 000e 03F00201 		and	r1, r3, #2
  53              	.LVL3:
  54 0012 CCB2     		uxtb	r4, r1
  55 0014 44B1     		cbz	r4, .L19
  56              	.L3:
  57              		.loc 1 251 0
ARM GAS  C:\Users\jenny\AppData\Local\Temp\ccUygzzS.s 			page 2


  58 0016 05F21B24 		addw	r4, r5, #539
  59 001a 24F00303 		bic	r3, r4, #3
  60 001e 9342     		cmp	r3, r2
  61 0020 B8BF     		it	lt
  62 0022 1A46     		movlt	r2, r3
  63              	.LVL4:
  64 0024 91B2     		uxth	r1, r2
  65              	.LVL5:
  66 0026 06E0     		b	.L2
  67              	.LVL6:
  68              	.L19:
  69              		.loc 1 247 0 discriminator 1
  70 0028 0499     		ldr	r1, [sp, #16]
  71 002a 8B7F     		ldrb	r3, [r1, #30]	@ zero_extendqisi2
  72              		.loc 1 246 0 discriminator 1
  73 002c 03F04004 		and	r4, r3, #64
  74 0030 E3B2     		uxtb	r3, r4
  75 0032 83B1     		cbz	r3, .L20
  76              	.L8:
  77              		.loc 1 249 0
  78 0034 2946     		mov	r1, r5
  79              	.LVL7:
  80              	.L2:
  81              		.loc 1 255 0
  82 0036 0022     		movs	r2, #0
  83 0038 FFF7FEFF 		bl	pbuf_alloc
  84              	.LVL8:
  85              		.loc 1 256 0
  86 003c 0446     		mov	r4, r0
  87 003e 40B1     		cbz	r0, .L4
  88              		.loc 1 259 0
  89 0040 0068     		ldr	r0, [r0, #0]
  90              	.LVL9:
  91 0042 08B1     		cbz	r0, .L5
  92              		.loc 1 259 0 is_stmt 0 discriminator 1
  93 0044 FFF7FEFF 		bl	port_halt
  94              	.LVL10:
  95              	.L5:
  96              		.loc 1 260 0 is_stmt 1
  97 0048 6289     		ldrh	r2, [r4, #10]
  98 004a 511B     		subs	r1, r2, r5
  99 004c 3180     		strh	r1, [r6, #0]	@ movhi
 100              		.loc 1 262 0
 101 004e 2581     		strh	r5, [r4, #8]	@ movhi
 102 0050 6581     		strh	r5, [r4, #10]	@ movhi
 103              	.L4:
 104              		.loc 1 264 0
 105 0052 2046     		mov	r0, r4
 106 0054 70BD     		pop	{r4, r5, r6, pc}
 107              	.LVL11:
 108              	.L20:
 109              		.loc 1 247 0
 110 0056 9DF81840 		ldrb	r4, [sp, #24]	@ zero_extendqisi2
 111 005a 002C     		cmp	r4, #0
 112 005c DBD0     		beq	.L3
 113              		.loc 1 248 0
 114 005e CB6E     		ldr	r3, [r1, #108]
ARM GAS  C:\Users\jenny\AppData\Local\Temp\ccUygzzS.s 			page 3


 115 0060 002B     		cmp	r3, #0
 116 0062 D8D1     		bne	.L3
 117              		.loc 1 249 0
 118 0064 096F     		ldr	r1, [r1, #112]
 119 0066 0029     		cmp	r1, #0
 120 0068 D5D1     		bne	.L3
 121 006a E3E7     		b	.L8
 122              		.cfi_endproc
 123              	.LFE10:
 124              		.size	tcp_pbuf_prealloc, .-tcp_pbuf_prealloc
 125 006c AFF30080 		.section	.text.tcp_create_segment,"ax",%progbits
 126              		.align	2
 127              		.p2align 4,,15
 128              		.thumb
 129              		.thumb_func
 130              		.type	tcp_create_segment, %function
 131              	tcp_create_segment:
 132              	.LFB9:
 133              		.loc 1 160 0
 134              		.cfi_startproc
 135              		@ args = 4, pretend = 0, frame = 0
 136              		@ frame_needed = 0, uses_anonymous_args = 0
 137              	.LVL12:
 138 0000 2DE9F84F 		push	{r3, r4, r5, r6, r7, r8, r9, sl, fp, lr}
 139              	.LCFI1:
 140              		.cfi_def_cfa_offset 40
 141              		.cfi_offset 3, -40
 142              		.cfi_offset 4, -36
 143              		.cfi_offset 5, -32
 144              		.cfi_offset 6, -28
 145              		.cfi_offset 7, -24
 146              		.cfi_offset 8, -20
 147              		.cfi_offset 9, -16
 148              		.cfi_offset 10, -12
 149              		.cfi_offset 11, -8
 150              		.cfi_offset 14, -4
 151              		.loc 1 160 0
 152 0004 9DF82850 		ldrb	r5, [sp, #40]	@ zero_extendqisi2
 153              		.loc 1 162 0
 154 0008 15F0010F 		tst	r5, #1
 155 000c 05F00207 		and	r7, r5, #2
 156 0010 0CBF     		ite	eq
 157 0012 0024     		moveq	r4, #0
 158 0014 0424     		movne	r4, #4
 159 0016 FEB2     		uxtb	r6, r7
 160              		.loc 1 160 0
 161 0018 8046     		mov	r8, r0
 162              		.loc 1 164 0
 163 001a 0420     		movs	r0, #4
 164              	.LVL13:
 165              		.loc 1 162 0
 166 001c 002E     		cmp	r6, #0
 167 001e 14BF     		ite	ne
 168 0020 0C27     		movne	r7, #12
 169 0022 0027     		moveq	r7, #0
 170              		.loc 1 160 0
 171 0024 9146     		mov	r9, r2
ARM GAS  C:\Users\jenny\AppData\Local\Temp\ccUygzzS.s 			page 4


 172 0026 0E46     		mov	r6, r1
 173 0028 9A46     		mov	sl, r3
 174              		.loc 1 164 0
 175 002a FFF7FEFF 		bl	memp_malloc
 176              	.LVL14:
 177              		.loc 1 162 0
 178 002e 3F19     		adds	r7, r7, r4
 179              	.LVL15:
 180              		.loc 1 164 0
 181 0030 0446     		mov	r4, r0
 182 0032 0028     		cmp	r0, #0
 183 0034 3BD0     		beq	.L29
 184              		.loc 1 169 0
 185 0036 8572     		strb	r5, [r0, #10]
 186              		.loc 1 172 0
 187 0038 3389     		ldrh	r3, [r6, #8]
 188              		.loc 1 171 0
 189 003a 4660     		str	r6, [r0, #4]
 190              		.loc 1 170 0
 191 003c 4FF0000B 		mov	fp, #0
 192              		.loc 1 172 0
 193 0040 D81B     		subs	r0, r3, r7
 194              	.LVL16:
 195 0042 2081     		strh	r0, [r4, #8]	@ movhi
 196              		.loc 1 170 0
 197 0044 C4F800B0 		str	fp, [r4, #0]
 198              		.loc 1 185 0
 199 0048 3046     		mov	r0, r6
 200 004a 1421     		movs	r1, #20
 201 004c FFF7FEFF 		bl	pbuf_header
 202              	.LVL17:
 203 0050 0546     		mov	r5, r0
 204 0052 08BB     		cbnz	r0, .L30
 205              		.loc 1 191 0
 206 0054 6168     		ldr	r1, [r4, #4]
 207              		.loc 1 192 0
 208 0056 B8F81A00 		ldrh	r0, [r8, #26]
 209              		.loc 1 191 0
 210 005a 4E68     		ldr	r6, [r1, #4]
 211              	.LVL18:
 212 005c E660     		str	r6, [r4, #12]
 213              		.loc 1 192 0
 214 005e FFF7FEFF 		bl	lwip_htons
 215              	.LVL19:
 216 0062 3080     		strh	r0, [r6, #0]	@ unaligned
 217              		.loc 1 193 0
 218 0064 B8F81C00 		ldrh	r0, [r8, #28]
 219 0068 E668     		ldr	r6, [r4, #12]
 220 006a FFF7FEFF 		bl	lwip_htons
 221              	.LVL20:
 222 006e 7080     		strh	r0, [r6, #2]	@ unaligned
 223              		.loc 1 194 0
 224 0070 5046     		mov	r0, sl
 225 0072 E668     		ldr	r6, [r4, #12]
 226 0074 FFF7FEFF 		bl	lwip_htonl
 227              	.LVL21:
 228              		.loc 1 196 0
ARM GAS  C:\Users\jenny\AppData\Local\Temp\ccUygzzS.s 			page 5


 229 0078 BA02     		lsls	r2, r7, #10
 230 007a 02F5A047 		add	r7, r2, #20480
 231              	.LVL22:
 232              		.loc 1 194 0
 233 007e 7060     		str	r0, [r6, #4]	@ unaligned
 234              		.loc 1 196 0
 235 0080 47EA0900 		orr	r0, r7, r9
 236 0084 E668     		ldr	r6, [r4, #12]
 237 0086 FFF7FEFF 		bl	lwip_htons
 238              	.LVL23:
 239 008a B081     		strh	r0, [r6, #12]	@ unaligned
 240              		.loc 1 198 0
 241 008c E368     		ldr	r3, [r4, #12]
 242 008e 9D74     		strb	r5, [r3, #18]
 243 0090 DD74     		strb	r5, [r3, #19]
 244              	.LVL24:
 245              	.L25:
 246              		.loc 1 200 0
 247 0092 2046     		mov	r0, r4
 248 0094 BDE8F88F 		pop	{r3, r4, r5, r6, r7, r8, r9, sl, fp, pc}
 249              	.LVL25:
 250              	.L30:
 251              		.loc 1 187 0
 252 0098 0749     		ldr	r1, .L31
 253 009a B1F8A420 		ldrh	r2, [r1, #164]
 254              		.loc 1 188 0
 255 009e 2046     		mov	r0, r4
 256              		.loc 1 187 0
 257 00a0 541C     		adds	r4, r2, #1
 258              	.LVL26:
 259 00a2 A1F8A440 		strh	r4, [r1, #164]	@ movhi
 260              		.loc 1 189 0
 261 00a6 5C46     		mov	r4, fp
 262              		.loc 1 188 0
 263 00a8 FFF7FEFF 		bl	tcp_seg_free
 264              	.LVL27:
 265              		.loc 1 189 0
 266 00ac F1E7     		b	.L25
 267              	.LVL28:
 268              	.L29:
 269              		.loc 1 166 0
 270 00ae 3046     		mov	r0, r6
 271              	.LVL29:
 272 00b0 FFF7FEFF 		bl	pbuf_free
 273              	.LVL30:
 274              		.loc 1 167 0
 275 00b4 EDE7     		b	.L25
 276              	.L32:
 277 00b6 00BF     		.align	2
 278              	.L31:
 279 00b8 00000000 		.word	lwip_stats
 280              		.cfi_endproc
 281              	.LFE9:
 282              		.size	tcp_create_segment, .-tcp_create_segment
 283 00bc AFF30080 		.section	.text.tcp_output_alloc_header.constprop.0,"ax",%progbits
 284              		.align	2
 285              		.p2align 4,,15
ARM GAS  C:\Users\jenny\AppData\Local\Temp\ccUygzzS.s 			page 6


 286              		.thumb
 287              		.thumb_func
 288              		.type	tcp_output_alloc_header.constprop.0, %function
 289              	tcp_output_alloc_header.constprop.0:
 290              	.LFB23:
 291              		.loc 1 94 0
 292              		.cfi_startproc
 293              		@ args = 0, pretend = 0, frame = 0
 294              		@ frame_needed = 0, uses_anonymous_args = 0
 295              	.LVL31:
 296              		.loc 1 98 0
 297 0000 1431     		adds	r1, r1, #20
 298              	.LVL32:
 299              		.loc 1 94 0
 300 0002 F8B5     		push	{r3, r4, r5, r6, r7, lr}
 301              	.LCFI2:
 302              		.cfi_def_cfa_offset 24
 303              		.cfi_offset 3, -24
 304              		.cfi_offset 4, -20
 305              		.cfi_offset 5, -16
 306              		.cfi_offset 6, -12
 307              		.cfi_offset 7, -8
 308              		.cfi_offset 14, -4
 309              		.loc 1 98 0
 310 0004 89B2     		uxth	r1, r1
 311              		.loc 1 94 0
 312 0006 0546     		mov	r5, r0
 313 0008 1746     		mov	r7, r2
 314              		.loc 1 98 0
 315 000a 0120     		movs	r0, #1
 316              	.LVL33:
 317 000c 0022     		movs	r2, #0
 318              	.LVL34:
 319 000e FFF7FEFF 		bl	pbuf_alloc
 320              	.LVL35:
 321              		.loc 1 99 0
 322 0012 0646     		mov	r6, r0
 323 0014 10B3     		cbz	r0, .L34
 324              		.loc 1 100 0
 325 0016 4389     		ldrh	r3, [r0, #10]
 326 0018 132B     		cmp	r3, #19
 327 001a 21DD     		ble	.L39
 328              	.LVL36:
 329              	.L35:
 330              		.loc 1 103 0
 331 001c 688B     		ldrh	r0, [r5, #26]
 332              		.loc 1 102 0
 333 001e 7468     		ldr	r4, [r6, #4]
 334              	.LVL37:
 335              		.loc 1 103 0
 336 0020 FFF7FEFF 		bl	lwip_htons
 337              	.LVL38:
 338 0024 2080     		strh	r0, [r4, #0]	@ unaligned
 339              		.loc 1 104 0
 340 0026 A88B     		ldrh	r0, [r5, #28]
 341 0028 FFF7FEFF 		bl	lwip_htons
 342              	.LVL39:
ARM GAS  C:\Users\jenny\AppData\Local\Temp\ccUygzzS.s 			page 7


 343              		.loc 1 105 0
 344 002c 6760     		str	r7, [r4, #4]	@ unaligned
 345              		.loc 1 104 0
 346 002e 6080     		strh	r0, [r4, #2]	@ unaligned
 347              		.loc 1 106 0
 348 0030 A86A     		ldr	r0, [r5, #40]
 349 0032 FFF7FEFF 		bl	lwip_htonl
 350              	.LVL40:
 351 0036 A060     		str	r0, [r4, #8]	@ unaligned
 352              		.loc 1 107 0
 353 0038 45F21000 		movw	r0, #20496
 354 003c FFF7FEFF 		bl	lwip_htons
 355              	.LVL41:
 356 0040 A081     		strh	r0, [r4, #12]	@ unaligned
 357              		.loc 1 108 0
 358 0042 E88D     		ldrh	r0, [r5, #46]
 359 0044 FFF7FEFF 		bl	lwip_htons
 360              	.LVL42:
 361              		.loc 1 109 0
 362 0048 0021     		movs	r1, #0
 363              		.loc 1 108 0
 364 004a E081     		strh	r0, [r4, #14]	@ unaligned
 365              		.loc 1 109 0
 366 004c 2174     		strb	r1, [r4, #16]
 367 004e 6174     		strb	r1, [r4, #17]
 368              		.loc 1 110 0
 369 0050 A174     		strb	r1, [r4, #18]
 370 0052 E174     		strb	r1, [r4, #19]
 371              		.loc 1 113 0
 372 0054 EA8D     		ldrh	r2, [r5, #46]
 373 0056 A86A     		ldr	r0, [r5, #40]
 374 0058 1318     		adds	r3, r2, r0
 375 005a 2B63     		str	r3, [r5, #48]
 376              	.LVL43:
 377              	.L34:
 378              		.loc 1 116 0
 379 005c 3046     		mov	r0, r6
 380 005e F8BD     		pop	{r3, r4, r5, r6, r7, pc}
 381              	.LVL44:
 382              	.L39:
 383              		.loc 1 100 0
 384 0060 FFF7FEFF 		bl	port_halt
 385              	.LVL45:
 386 0064 DAE7     		b	.L35
 387              		.cfi_endproc
 388              	.LFE23:
 389              		.size	tcp_output_alloc_header.constprop.0, .-tcp_output_alloc_header.constprop.0
 390 0066 00BFAFF3 		.section	.text.tcp_write,"ax",%progbits
 390      0080AFF3 
 390      0080
 391              		.align	2
 392              		.p2align 4,,15
 393              		.global	tcp_write
 394              		.thumb
 395              		.thumb_func
 396              		.type	tcp_write, %function
 397              	tcp_write:
ARM GAS  C:\Users\jenny\AppData\Local\Temp\ccUygzzS.s 			page 8


 398              	.LFB12:
 399              		.loc 1 355 0
 400              		.cfi_startproc
 401              		@ args = 0, pretend = 0, frame = 48
 402              		@ frame_needed = 0, uses_anonymous_args = 0
 403              	.LVL46:
 404 0000 2DE9F04F 		push	{r4, r5, r6, r7, r8, r9, sl, fp, lr}
 405              	.LCFI3:
 406              		.cfi_def_cfa_offset 36
 407              		.cfi_offset 4, -36
 408              		.cfi_offset 5, -32
 409              		.cfi_offset 6, -28
 410              		.cfi_offset 7, -24
 411              		.cfi_offset 8, -20
 412              		.cfi_offset 9, -16
 413              		.cfi_offset 10, -12
 414              		.cfi_offset 11, -8
 415              		.cfi_offset 14, -4
 416              		.loc 1 373 0
 417 0004 B0F86240 		ldrh	r4, [r0, #98]
 418              		.loc 1 355 0
 419 0008 0546     		mov	r5, r0
 420              		.loc 1 373 0
 421 000a C08E     		ldrh	r0, [r0, #54]
 422              	.LVL47:
 423              		.loc 1 355 0
 424 000c 91B0     		sub	sp, sp, #68
 425              	.LCFI4:
 426              		.cfi_def_cfa_offset 104
 427              		.loc 1 373 0
 428 000e 6408     		lsrs	r4, r4, #1
 429              		.loc 1 363 0
 430 0010 0026     		movs	r6, #0
 431              		.loc 1 373 0
 432 0012 8442     		cmp	r4, r0
 433 0014 28BF     		it	cs
 434 0016 0446     		movcs	r4, r0
 435              		.loc 1 363 0
 436 0018 ADF83E60 		strh	r6, [sp, #62]	@ movhi
 437              	.LVL48:
 438              		.loc 1 382 0
 439 001c 0891     		str	r1, [sp, #32]
 440              		.loc 1 355 0
 441 001e 9246     		mov	sl, r2
 442 0020 0A93     		str	r3, [sp, #40]
 443              		.loc 1 373 0
 444 0022 0794     		str	r4, [sp, #28]
 445              	.LVL49:
 446              		.loc 1 382 0
 447 0024 0029     		cmp	r1, #0
 448 0026 00F02C82 		beq	.L161
 449              	.LVL50:
 450              	.LBB9:
 451              	.LBB10:
 452              		.loc 1 297 0
 453 002a 2B7E     		ldrb	r3, [r5, #24]	@ zero_extendqisi2
 454              	.LVL51:
ARM GAS  C:\Users\jenny\AppData\Local\Temp\ccUygzzS.s 			page 9


 455 002c 042B     		cmp	r3, #4
 456 002e 06D0     		beq	.L43
 457 0030 072B     		cmp	r3, #7
 458 0032 04D0     		beq	.L43
 459              		.loc 1 298 0
 460 0034 022B     		cmp	r3, #2
 461 0036 02D0     		beq	.L43
 462              		.loc 1 299 0
 463 0038 032B     		cmp	r3, #3
 464 003a 40F0CF81 		bne	.L87
 465              	.L43:
 466              		.loc 1 303 0
 467 003e BAF1000F 		cmp	sl, #0
 468 0042 71D0     		beq	.L45
 469              		.loc 1 308 0
 470 0044 B5F86610 		ldrh	r1, [r5, #102]
 471              	.LVL52:
 472 0048 5145     		cmp	r1, sl
 473 004a C0F0F781 		bcc	.L160
 474              		.loc 1 320 0
 475 004e B5F86880 		ldrh	r8, [r5, #104]
 476 0052 B8F1070F 		cmp	r8, #7
 477 0056 00F2EB81 		bhi	.L162
 478              		.loc 1 328 0
 479 005a 2A6F     		ldr	r2, [r5, #112]
 480              	.LVL53:
 481              		.loc 1 327 0
 482 005c B8F1000F 		cmp	r8, #0
 483 0060 47D0     		beq	.L48
 484              		.loc 1 328 0
 485 0062 002A     		cmp	r2, #0
 486 0064 00F0B381 		beq	.L163
 487              	.L49:
 488              	.LVL54:
 489              	.LBE10:
 490              	.LBE9:
 491              		.loc 1 422 0
 492 0068 D5F86CB0 		ldr	fp, [r5, #108]
 493 006c BBF1000F 		cmp	fp, #0
 494 0070 01D1     		bne	.L135
 495 0072 4AE0     		b	.L52
 496              	.LVL55:
 497              	.L88:
 498              	.LBB15:
 499              		.loc 1 428 0
 500 0074 B346     		mov	fp, r6
 501              	.LVL56:
 502              	.L135:
 503              		.loc 1 427 0 discriminator 1
 504 0076 DBF80060 		ldr	r6, [fp, #0]
 505 007a 002E     		cmp	r6, #0
 506 007c FAD1     		bne	.L88
 507              		.loc 1 431 0
 508 007e 9BF80A10 		ldrb	r1, [fp, #10]	@ zero_extendqisi2
 509 0082 BBF80890 		ldrh	r9, [fp, #8]
 510 0086 079E     		ldr	r6, [sp, #28]
 511              		.loc 1 447 0
ARM GAS  C:\Users\jenny\AppData\Local\Temp\ccUygzzS.s 			page 10


 512 0088 B5F86A40 		ldrh	r4, [r5, #106]
 513              		.loc 1 431 0
 514 008c 11F0010F 		tst	r1, #1
 515 0090 01F00200 		and	r0, r1, #2
 516 0094 0CBF     		ite	eq
 517 0096 0022     		moveq	r2, #0
 518 0098 0422     		movne	r2, #4
 519 009a C9EB0601 		rsb	r1, r9, r6
 520 009e C3B2     		uxtb	r3, r0
 521 00a0 002B     		cmp	r3, #0
 522 00a2 14BF     		ite	ne
 523 00a4 0C20     		movne	r0, #12
 524 00a6 0020     		moveq	r0, #0
 525              	.LVL57:
 526              		.loc 1 432 0
 527 00a8 C2EB010C 		rsb	ip, r2, r1
 528 00ac C0EB0C09 		rsb	r9, r0, ip
 529 00b0 1FFA89F9 		uxth	r9, r9
 530              	.LVL58:
 531              		.loc 1 447 0
 532 00b4 ADF83E40 		strh	r4, [sp, #62]	@ movhi
 533              		.loc 1 448 0
 534 00b8 002C     		cmp	r4, #0
 535 00ba 38D0     		beq	.L91
 536              	.LVL59:
 537              		.loc 1 451 0
 538 00bc A245     		cmp	sl, r4
 539 00be 34BF     		ite	cc
 540 00c0 5246     		movcc	r2, sl
 541 00c2 2246     		movcs	r2, r4
 542              	.LVL60:
 543              		.loc 1 453 0
 544 00c4 A41A     		subs	r4, r4, r2
 545 00c6 A4B2     		uxth	r4, r4
 546              	.LVL61:
 547              		.loc 1 454 0
 548 00c8 C2EB0903 		rsb	r3, r2, r9
 549              		.loc 1 451 0
 550 00cc 0C92     		str	r2, [sp, #48]
 551              	.LVL62:
 552              		.loc 1 453 0
 553 00ce ADF83E40 		strh	r4, [sp, #62]	@ movhi
 554              		.loc 1 454 0
 555 00d2 1FFA83F9 		uxth	r9, r3
 556              	.LVL63:
 557              		.loc 1 457 0
 558 00d6 002C     		cmp	r4, #0
 559 00d8 00F0D781 		beq	.L92
 560              		.loc 1 457 0 is_stmt 0 discriminator 1
 561 00dc 9245     		cmp	sl, r2
 562 00de 00F0B080 		beq	.L93
 563              		.loc 1 457 0 discriminator 2
 564 00e2 FFF7FEFF 		bl	port_halt
 565              	.LVL64:
 566 00e6 0C9C     		ldr	r4, [sp, #48]
 567              		.loc 1 467 0 is_stmt 1 discriminator 2
 568 00e8 A245     		cmp	sl, r4
ARM GAS  C:\Users\jenny\AppData\Local\Temp\ccUygzzS.s 			page 11


 569              		.loc 1 457 0 discriminator 2
 570 00ea 5E46     		mov	r6, fp
 571              		.loc 1 467 0 discriminator 2
 572 00ec 22D8     		bhi	.L164
 573              	.LVL65:
 574              	.L94:
 575              		.loc 1 467 0 is_stmt 0
 576 00ee 0C94     		str	r4, [sp, #48]
 577 00f0 A8E0     		b	.L57
 578              	.LVL66:
 579              	.L48:
 580              	.LBE15:
 581              	.LBB19:
 582              	.LBB11:
 583              		.loc 1 331 0 is_stmt 1
 584 00f2 002A     		cmp	r2, #0
 585 00f4 00F00481 		beq	.L165
 586              	.L51:
 587 00f8 FFF7FEFF 		bl	port_halt
 588              	.LVL67:
 589              	.LBE11:
 590              	.LBE19:
 591              		.loc 1 422 0
 592 00fc D5F86CB0 		ldr	fp, [r5, #108]
 593 0100 B5F86880 		ldrh	r8, [r5, #104]
 594              	.LVL68:
 595 0104 BBF1000F 		cmp	fp, #0
 596 0108 B5D1     		bne	.L135
 597              	.LVL69:
 598              	.L52:
 599              		.loc 1 511 0
 600 010a B5F86A30 		ldrh	r3, [r5, #106]
 601 010e 002B     		cmp	r3, #0
 602 0110 40F09A81 		bne	.L166
 603              		.loc 1 364 0
 604 0114 0C93     		str	r3, [sp, #48]
 605              		.loc 1 358 0
 606 0116 1C46     		mov	r4, r3
 607              		.loc 1 357 0
 608 0118 9B46     		mov	fp, r3
 609              		.loc 1 356 0
 610 011a 0B93     		str	r3, [sp, #44]
 611              	.LVL70:
 612              	.L64:
 613              		.loc 1 522 0 discriminator 1
 614 011c A245     		cmp	sl, r4
 615 011e 0FD8     		bhi	.L58
 616              		.loc 1 522 0 is_stmt 0
 617 0120 0023     		movs	r3, #0
 618 0122 5E46     		mov	r6, fp
 619 0124 0693     		str	r3, [sp, #24]
 620 0126 90E0     		b	.L65
 621              	.LVL71:
 622              	.L45:
 623 0128 B5F86880 		ldrh	r8, [r5, #104]
 624 012c 9CE7     		b	.L49
 625              	.LVL72:
ARM GAS  C:\Users\jenny\AppData\Local\Temp\ccUygzzS.s 			page 12


 626              	.L91:
 627              	.LBB20:
 628              		.loc 1 357 0 is_stmt 1
 629 012e 2646     		mov	r6, r4
 630              	.LVL73:
 631              	.L56:
 632              		.loc 1 467 0
 633 0130 A245     		cmp	sl, r4
 634 0132 DCD9     		bls	.L94
 635              	.LVL74:
 636              	.L164:
 637              		.loc 1 467 0 is_stmt 0 discriminator 1
 638 0134 B9F1000F 		cmp	r9, #0
 639 0138 7BD1     		bne	.L167
 640              		.loc 1 467 0
 641 013a 0C94     		str	r4, [sp, #48]
 642 013c CDF82C90 		str	r9, [sp, #44]
 643              	.LVL75:
 644              	.L58:
 645 0140 0A99     		ldr	r1, [sp, #40]
 646 0142 CDF834B0 		str	fp, [sp, #52]
 647              	.LBB16:
 648              		.loc 1 506 0 is_stmt 1
 649 0146 0027     		movs	r7, #0
 650 0148 2846     		mov	r0, r5
 651 014a 01F00102 		and	r2, r1, #1
 652 014e 0697     		str	r7, [sp, #24]
 653 0150 0992     		str	r2, [sp, #36]
 654 0152 3D46     		mov	r5, r7
 655              	.LVL76:
 656 0154 8146     		mov	r9, r0
 657 0156 42E0     		b	.L60
 658              	.LVL77:
 659              	.L66:
 660              	.LBE16:
 661              	.LBE20:
 662              	.LBB21:
 663              	.LBB22:
 664              		.loc 1 550 0
 665 0158 BDF83E00 		ldrh	r0, [sp, #62]
 666              	.LVL78:
 667 015c 0028     		cmp	r0, #0
 668 015e 40F0D480 		bne	.L168
 669              	.LVL79:
 670              	.L70:
 671              		.loc 1 552 0
 672 0162 0020     		movs	r0, #0
 673              	.LVL80:
 674 0164 3946     		mov	r1, r7
 675 0166 0122     		movs	r2, #1
 676 0168 FFF7FEFF 		bl	pbuf_alloc
 677              	.LVL81:
 678 016c 8346     		mov	fp, r0
 679 016e 0028     		cmp	r0, #0
 680 0170 00F0E280 		beq	.L156
 681              		.loc 1 561 0
 682 0174 089E     		ldr	r6, [sp, #32]
ARM GAS  C:\Users\jenny\AppData\Local\Temp\ccUygzzS.s 			page 13


 683              		.loc 1 564 0
 684 0176 0020     		movs	r0, #0
 685              	.LVL82:
 686              		.loc 1 561 0
 687 0178 3319     		adds	r3, r6, r4
 688 017a CBF80430 		str	r3, [fp, #4]
 689              		.loc 1 564 0
 690 017e 0146     		mov	r1, r0
 691 0180 0246     		mov	r2, r0
 692 0182 FFF7FEFF 		bl	pbuf_alloc
 693              	.LVL83:
 694 0186 0646     		mov	r6, r0
 695 0188 0028     		cmp	r0, #0
 696 018a 00F0FC80 		beq	.L169
 697              		.loc 1 572 0
 698 018e 5946     		mov	r1, fp
 699 0190 FFF7FEFF 		bl	pbuf_cat
 700              	.LVL84:
 701              	.L69:
 702              	.LBE22:
 703              		.loc 1 575 0
 704 0194 3046     		mov	r0, r6
 705 0196 FFF7FEFF 		bl	pbuf_clen
 706              	.LVL85:
 707 019a 08EB0002 		add	r2, r8, r0
 708 019e 1FFA82F8 		uxth	r8, r2
 709              	.LVL86:
 710              		.loc 1 580 0
 711 01a2 B8F1080F 		cmp	r8, #8
 712 01a6 00F2E980 		bhi	.L170
 713              		.loc 1 586 0
 714 01aa D9F85C30 		ldr	r3, [r9, #92]
 715 01ae 0022     		movs	r2, #0
 716              	.LVL87:
 717 01b0 0092     		str	r2, [sp, #0]
 718 01b2 4846     		mov	r0, r9
 719 01b4 3146     		mov	r1, r6
 720 01b6 E318     		adds	r3, r4, r3
 721 01b8 FFF7FEFF 		bl	tcp_create_segment
 722              	.LVL88:
 723 01bc 0028     		cmp	r0, #0
 724 01be 00F0BB80 		beq	.L156
 725              		.loc 1 599 0
 726 01c2 0699     		ldr	r1, [sp, #24]
 727 01c4 0029     		cmp	r1, #0
 728 01c6 00F0A380 		beq	.L97
 729              		.loc 1 603 0
 730 01ca 002D     		cmp	r5, #0
 731 01cc 00F0AF80 		beq	.L171
 732              	.LVL89:
 733              	.L75:
 734              		.loc 1 604 0
 735 01d0 2860     		str	r0, [r5, #0]
 736              	.LVL90:
 737              		.loc 1 613 0
 738 01d2 3D19     		adds	r5, r7, r4
 739 01d4 ACB2     		uxth	r4, r5
ARM GAS  C:\Users\jenny\AppData\Local\Temp\ccUygzzS.s 			page 14


 740              	.LVL91:
 741              	.LBE21:
 742              		.loc 1 522 0
 743 01d6 A245     		cmp	sl, r4
 744 01d8 0546     		mov	r5, r0
 745              	.LVL92:
 746 01da 40F2A080 		bls	.L172
 747              	.LVL93:
 748              	.L60:
 749              	.LBB25:
 750              		.loc 1 524 0
 751 01de C4EB0A03 		rsb	r3, r4, sl
 752              		.loc 1 526 0
 753 01e2 0799     		ldr	r1, [sp, #28]
 754              		.loc 1 532 0
 755 01e4 099A     		ldr	r2, [sp, #36]
 756              		.loc 1 526 0
 757 01e6 9FB2     		uxth	r7, r3
 758 01e8 8F42     		cmp	r7, r1
 759 01ea 28BF     		it	cs
 760 01ec 0F46     		movcs	r7, r1
 761              	.LVL94:
 762              		.loc 1 532 0
 763 01ee 002A     		cmp	r2, #0
 764 01f0 B2D0     		beq	.L66
 765              		.loc 1 535 0
 766 01f2 069A     		ldr	r2, [sp, #24]
 767 01f4 0A9E     		ldr	r6, [sp, #40]
 768 01f6 CDF80090 		str	r9, [sp, #0]
 769 01fa D2F10100 		rsbs	r0, r2, #1
 770 01fe 38BF     		it	cc
 771 0200 0020     		movcc	r0, #0
 772 0202 0196     		str	r6, [sp, #4]
 773 0204 0290     		str	r0, [sp, #8]
 774 0206 3946     		mov	r1, r7
 775 0208 0020     		movs	r0, #0
 776 020a 079A     		ldr	r2, [sp, #28]
 777 020c 0DF13E03 		add	r3, sp, #62
 778 0210 FFF7FEFF 		bl	tcp_pbuf_prealloc
 779              	.LVL95:
 780 0214 0646     		mov	r6, r0
 781 0216 0028     		cmp	r0, #0
 782 0218 00F08E80 		beq	.L156
 783              		.loc 1 539 0
 784 021c 4389     		ldrh	r3, [r0, #10]
 785 021e BB42     		cmp	r3, r7
 786 0220 C0F08280 		bcc	.L173
 787              	.LVL96:
 788              	.L68:
 789              		.loc 1 541 0
 790 0224 0899     		ldr	r1, [sp, #32]
 791 0226 7068     		ldr	r0, [r6, #4]
 792 0228 0919     		adds	r1, r1, r4
 793 022a 3A46     		mov	r2, r7
 794 022c FFF7FEFF 		bl	memcpy
 795              	.LVL97:
 796 0230 B0E7     		b	.L69
ARM GAS  C:\Users\jenny\AppData\Local\Temp\ccUygzzS.s 			page 15


 797              	.LVL98:
 798              	.L167:
 799              	.LBE25:
 800              	.LBB26:
 801              		.loc 1 467 0 discriminator 1
 802 0232 BBF80870 		ldrh	r7, [fp, #8]
 803 0236 002F     		cmp	r7, #0
 804 0238 40F0AA80 		bne	.L59
 805              		.loc 1 467 0 is_stmt 0
 806 023c 0C94     		str	r4, [sp, #48]
 807 023e 0B97     		str	r7, [sp, #44]
 808 0240 7EE7     		b	.L58
 809              	.LVL99:
 810              	.L93:
 811              		.loc 1 457 0 is_stmt 1
 812 0242 5E46     		mov	r6, fp
 813              	.LVL100:
 814              	.L57:
 815              	.LBE26:
 816              		.loc 1 522 0
 817 0244 0021     		movs	r1, #0
 818 0246 0B91     		str	r1, [sp, #44]
 819 0248 0691     		str	r1, [sp, #24]
 820              	.LVL101:
 821              	.L65:
 822              		.loc 1 626 0
 823 024a 0C98     		ldr	r0, [sp, #48]
 824 024c F0B1     		cbz	r0, .L76
 825              	.LBB27:
 826              		.loc 1 629 0
 827 024e DBF80440 		ldr	r4, [fp, #4]
 828              	.LVL102:
 829 0252 ACB1     		cbz	r4, .L77
 830 0254 0C9F     		ldr	r7, [sp, #48]
 831 0256 00E0     		b	.L151
 832              	.LVL103:
 833              	.L79:
 834              	.LBE27:
 835              		.loc 1 522 0
 836 0258 0446     		mov	r4, r0
 837              	.L151:
 838              	.LBB28:
 839              		.loc 1 630 0
 840 025a 2289     		ldrh	r2, [r4, #8]
 841              		.loc 1 631 0
 842 025c 2068     		ldr	r0, [r4, #0]
 843              		.loc 1 630 0
 844 025e B918     		adds	r1, r7, r2
 845 0260 2181     		strh	r1, [r4, #8]	@ movhi
 846              		.loc 1 631 0
 847 0262 0028     		cmp	r0, #0
 848 0264 F8D1     		bne	.L79
 849              		.loc 1 632 0
 850 0266 6089     		ldrh	r0, [r4, #10]
 851 0268 6368     		ldr	r3, [r4, #4]
 852 026a 0899     		ldr	r1, [sp, #32]
 853 026c 3A46     		mov	r2, r7
ARM GAS  C:\Users\jenny\AppData\Local\Temp\ccUygzzS.s 			page 16


 854 026e 1818     		adds	r0, r3, r0
 855 0270 FFF7FEFF 		bl	memcpy
 856              	.LVL104:
 857              		.loc 1 633 0
 858 0274 6289     		ldrh	r2, [r4, #10]
 859              		.loc 1 629 0
 860 0276 2068     		ldr	r0, [r4, #0]
 861              	.LVL105:
 862              		.loc 1 633 0
 863 0278 B918     		adds	r1, r7, r2
 864 027a 6181     		strh	r1, [r4, #10]	@ movhi
 865              		.loc 1 629 0
 866 027c 0028     		cmp	r0, #0
 867 027e EBD1     		bne	.L79
 868              	.LVL106:
 869              	.L77:
 870              		.loc 1 636 0
 871 0280 BBF80830 		ldrh	r3, [fp, #8]
 872 0284 0C9A     		ldr	r2, [sp, #48]
 873 0286 D018     		adds	r0, r2, r3
 874 0288 ABF80800 		strh	r0, [fp, #8]	@ movhi
 875              	.LVL107:
 876              	.L76:
 877              	.LBE28:
 878              		.loc 1 643 0
 879 028c BDF83E10 		ldrh	r1, [sp, #62]
 880              		.loc 1 649 0
 881 0290 0B9B     		ldr	r3, [sp, #44]
 882              		.loc 1 643 0
 883 0292 A5F86A10 		strh	r1, [r5, #106]	@ movhi
 884              		.loc 1 649 0
 885 0296 002B     		cmp	r3, #0
 886 0298 00F0DE80 		beq	.L80
 887              		.loc 1 650 0
 888 029c BBF1000F 		cmp	fp, #0
 889 02a0 00F0EC80 		beq	.L174
 890              	.L81:
 891              		.loc 1 652 0
 892 02a4 DBF80400 		ldr	r0, [fp, #4]
 893 02a8 0B99     		ldr	r1, [sp, #44]
 894 02aa FFF7FEFF 		bl	pbuf_cat
 895              	.LVL108:
 896              		.loc 1 653 0
 897 02ae 0B98     		ldr	r0, [sp, #44]
 898 02b0 BBF80830 		ldrh	r3, [fp, #8]
 899 02b4 0189     		ldrh	r1, [r0, #8]
 900 02b6 CA18     		adds	r2, r1, r3
 901 02b8 ABF80820 		strh	r2, [fp, #8]	@ movhi
 902              	.L82:
 903              		.loc 1 670 0
 904 02bc 0698     		ldr	r0, [sp, #24]
 905 02be CBF80000 		str	r0, [fp, #0]
 906              	.L83:
 907              		.loc 1 676 0
 908 02c2 E96D     		ldr	r1, [r5, #92]
 909              		.loc 1 677 0
 910 02c4 B5F86620 		ldrh	r2, [r5, #102]
ARM GAS  C:\Users\jenny\AppData\Local\Temp\ccUygzzS.s 			page 17


 911              		.loc 1 678 0
 912 02c8 A5F86880 		strh	r8, [r5, #104]	@ movhi
 913              		.loc 1 676 0
 914 02cc 01EB0A03 		add	r3, r1, sl
 915              		.loc 1 677 0
 916 02d0 CAEB020A 		rsb	sl, sl, r2
 917              	.LVL109:
 918              		.loc 1 676 0
 919 02d4 EB65     		str	r3, [r5, #92]
 920              		.loc 1 677 0
 921 02d6 A5F866A0 		strh	sl, [r5, #102]	@ movhi
 922              		.loc 1 682 0
 923 02da B8F1000F 		cmp	r8, #0
 924 02de 03D0     		beq	.L84
 925              		.loc 1 683 0
 926 02e0 286F     		ldr	r0, [r5, #112]
 927 02e2 0028     		cmp	r0, #0
 928 02e4 00F09D80 		beq	.L175
 929              	.L84:
 930              		.loc 1 688 0
 931 02e8 46B1     		cbz	r6, .L100
 932              		.loc 1 688 0 is_stmt 0 discriminator 1
 933 02ea F468     		ldr	r4, [r6, #12]
 934 02ec 34B1     		cbz	r4, .L100
 935 02ee 0A9E     		ldr	r6, [sp, #40]
 936              	.LVL110:
 937 02f0 06F00202 		and	r2, r6, #2
 938 02f4 D6B2     		uxtb	r6, r2
 939 02f6 002E     		cmp	r6, #0
 940 02f8 00F08780 		beq	.L176
 941              	.L100:
 942              		.loc 1 692 0 is_stmt 1
 943 02fc 0022     		movs	r2, #0
 944 02fe 39E0     		b	.L42
 945              	.LVL111:
 946              	.L165:
 947              	.LBB29:
 948              	.LBB12:
 949              		.loc 1 331 0
 950 0300 EC6E     		ldr	r4, [r5, #108]
 951 0302 002C     		cmp	r4, #0
 952 0304 7FF4F8AE 		bne	.L51
 953 0308 FFE6     		b	.L52
 954              	.LVL112:
 955              	.L168:
 956              	.LBE12:
 957              	.LBE29:
 958              	.LBB30:
 959              	.LBB23:
 960              		.loc 1 550 0 discriminator 1
 961 030a FFF7FEFF 		bl	port_halt
 962              	.LVL113:
 963 030e 28E7     		b	.L70
 964              	.LVL114:
 965              	.L97:
 966              	.LBE23:
 967              		.loc 1 613 0
ARM GAS  C:\Users\jenny\AppData\Local\Temp\ccUygzzS.s 			page 18


 968 0310 3D19     		adds	r5, r7, r4
 969 0312 ACB2     		uxth	r4, r5
 970              	.LVL115:
 971              	.LBE30:
 972              		.loc 1 522 0
 973 0314 A245     		cmp	sl, r4
 974              	.LBB31:
 975              		.loc 1 599 0
 976 0316 0690     		str	r0, [sp, #24]
 977              	.LVL116:
 978 0318 0546     		mov	r5, r0
 979              	.LVL117:
 980              	.LBE31:
 981              		.loc 1 522 0
 982 031a 3FF660AF 		bhi	.L60
 983              	.LVL118:
 984              	.L172:
 985 031e DDF834B0 		ldr	fp, [sp, #52]
 986 0322 0646     		mov	r6, r0
 987              	.LVL119:
 988 0324 4D46     		mov	r5, r9
 989 0326 90E7     		b	.L65
 990              	.LVL120:
 991              	.L173:
 992              	.LBB32:
 993              		.loc 1 539 0 discriminator 1
 994 0328 FFF7FEFF 		bl	port_halt
 995              	.LVL121:
 996 032c 7AE7     		b	.L68
 997              	.LVL122:
 998              	.L171:
 999              		.loc 1 603 0 discriminator 1
 1000 032e 0590     		str	r0, [sp, #20]
 1001 0330 FFF7FEFF 		bl	port_halt
 1002              	.LVL123:
 1003 0334 0598     		ldr	r0, [sp, #20]
 1004 0336 4BE7     		b	.L75
 1005              	.LVL124:
 1006              	.L156:
 1007 0338 4D46     		mov	r5, r9
 1008              	.LVL125:
 1009              	.L72:
 1010              	.LBE32:
 1011              		.loc 1 694 0
 1012 033a A87F     		ldrb	r0, [r5, #30]	@ zero_extendqisi2
 1013              		.loc 1 695 0
 1014 033c 544B     		ldr	r3, .L179
 1015              		.loc 1 694 0
 1016 033e 60F07F01 		orn	r1, r0, #127
 1017 0342 A977     		strb	r1, [r5, #30]
 1018              		.loc 1 695 0
 1019 0344 B3F89C20 		ldrh	r2, [r3, #156]
 1020 0348 501C     		adds	r0, r2, #1
 1021 034a A3F89C00 		strh	r0, [r3, #156]	@ movhi
 1022              		.loc 1 697 0
 1023 034e 0B9B     		ldr	r3, [sp, #44]
 1024 0350 13B1     		cbz	r3, .L85
ARM GAS  C:\Users\jenny\AppData\Local\Temp\ccUygzzS.s 			page 19


 1025              		.loc 1 698 0
 1026 0352 1846     		mov	r0, r3
 1027 0354 FFF7FEFF 		bl	pbuf_free
 1028              	.LVL126:
 1029              	.L85:
 1030              		.loc 1 700 0
 1031 0358 0699     		ldr	r1, [sp, #24]
 1032 035a 11B1     		cbz	r1, .L86
 1033              		.loc 1 701 0
 1034 035c 0846     		mov	r0, r1
 1035 035e FFF7FEFF 		bl	tcp_segs_free
 1036              	.LVL127:
 1037              	.L86:
 1038              		.loc 1 703 0
 1039 0362 B5F86800 		ldrh	r0, [r5, #104]
 1040 0366 20B1     		cbz	r0, .L103
 1041              		.loc 1 704 0
 1042 0368 2B6F     		ldr	r3, [r5, #112]
 1043 036a 13B9     		cbnz	r3, .L103
 1044              		.loc 1 704 0 is_stmt 0 discriminator 1
 1045 036c E96E     		ldr	r1, [r5, #108]
 1046 036e 0029     		cmp	r1, #0
 1047 0370 53D0     		beq	.L177
 1048              	.L103:
 1049              		.loc 1 708 0 is_stmt 1
 1050 0372 FF22     		movs	r2, #255
 1051              	.LVL128:
 1052              	.L42:
 1053 0374 50B2     		sxtb	r0, r2
 1054              		.loc 1 709 0
 1055 0376 11B0     		add	sp, sp, #68
 1056 0378 BDE8F08F 		pop	{r4, r5, r6, r7, r8, r9, sl, fp, pc}
 1057              	.LVL129:
 1058              	.L170:
 1059              	.LBB33:
 1060              		.loc 1 582 0
 1061 037c 3046     		mov	r0, r6
 1062 037e 4D46     		mov	r5, r9
 1063 0380 FFF7FEFF 		bl	pbuf_free
 1064              	.LVL130:
 1065              		.loc 1 583 0
 1066 0384 D9E7     		b	.L72
 1067              	.LVL131:
 1068              	.L169:
 1069              	.LBB24:
 1070              		.loc 1 567 0
 1071 0386 5846     		mov	r0, fp
 1072              	.LVL132:
 1073 0388 4D46     		mov	r5, r9
 1074 038a FFF7FEFF 		bl	pbuf_free
 1075              	.LVL133:
 1076              		.loc 1 569 0
 1077 038e D4E7     		b	.L72
 1078              	.LVL134:
 1079              	.L59:
 1080              	.LBE24:
 1081              	.LBE33:
ARM GAS  C:\Users\jenny\AppData\Local\Temp\ccUygzzS.s 			page 20


 1082              	.LBB34:
 1083              	.LBB17:
 1084              		.loc 1 474 0
 1085 0390 0A98     		ldr	r0, [sp, #40]
 1086              		.loc 1 468 0
 1087 0392 C4EB0A07 		rsb	r7, r4, sl
 1088 0396 4F45     		cmp	r7, r9
 1089 0398 A8BF     		it	ge
 1090 039a 4F46     		movge	r7, r9
 1091              		.loc 1 474 0
 1092 039c C307     		lsls	r3, r0, #31
 1093              		.loc 1 468 0
 1094 039e BEB2     		uxth	r6, r7
 1095              	.LVL135:
 1096              		.loc 1 474 0
 1097 03a0 1ED4     		bmi	.L178
 1098              		.loc 1 491 0
 1099 03a2 0320     		movs	r0, #3
 1100 03a4 3146     		mov	r1, r6
 1101 03a6 0122     		movs	r2, #1
 1102 03a8 FFF7FEFF 		bl	pbuf_alloc
 1103              	.LVL136:
 1104 03ac 0B90     		str	r0, [sp, #44]
 1105 03ae 0028     		cmp	r0, #0
 1106 03b0 59D0     		beq	.L62
 1107              		.loc 1 503 0
 1108 03b2 089A     		ldr	r2, [sp, #32]
 1109 03b4 1319     		adds	r3, r2, r4
 1110 03b6 4360     		str	r3, [r0, #4]
 1111              	.LVL137:
 1112              	.L63:
 1113              		.loc 1 507 0
 1114 03b8 0B98     		ldr	r0, [sp, #44]
 1115 03ba FFF7FEFF 		bl	pbuf_clen
 1116              	.LVL138:
 1117              		.loc 1 506 0
 1118 03be 3619     		adds	r6, r6, r4
 1119 03c0 B6B2     		uxth	r6, r6
 1120              	.LVL139:
 1121              		.loc 1 507 0
 1122 03c2 4044     		add	r0, r0, r8
 1123 03c4 0C94     		str	r4, [sp, #48]
 1124 03c6 1FFA80F8 		uxth	r8, r0
 1125              	.LVL140:
 1126              		.loc 1 506 0
 1127 03ca 3446     		mov	r4, r6
 1128 03cc A6E6     		b	.L64
 1129              	.LVL141:
 1130              	.L163:
 1131              	.LBE17:
 1132              	.LBE34:
 1133              	.LBB35:
 1134              	.LBB13:
 1135              		.loc 1 328 0
 1136 03ce D5F86CB0 		ldr	fp, [r5, #108]
 1137 03d2 BBF1000F 		cmp	fp, #0
 1138 03d6 7FF44EAE 		bne	.L135
ARM GAS  C:\Users\jenny\AppData\Local\Temp\ccUygzzS.s 			page 21


 1139 03da 8DE6     		b	.L51
 1140              	.LVL142:
 1141              	.L87:
 1142              		.loc 1 302 0
 1143 03dc F322     		movs	r2, #243
 1144              	.LVL143:
 1145 03de C9E7     		b	.L42
 1146              	.LVL144:
 1147              	.L178:
 1148              	.LBE13:
 1149              	.LBE35:
 1150              	.LBB36:
 1151              	.LBB18:
 1152              		.loc 1 476 0
 1153 03e0 0121     		movs	r1, #1
 1154 03e2 0190     		str	r0, [sp, #4]
 1155 03e4 0291     		str	r1, [sp, #8]
 1156 03e6 0095     		str	r5, [sp, #0]
 1157 03e8 0320     		movs	r0, #3
 1158 03ea 3146     		mov	r1, r6
 1159 03ec 4A46     		mov	r2, r9
 1160 03ee 0DF13E03 		add	r3, sp, #62
 1161 03f2 FFF7FEFF 		bl	tcp_pbuf_prealloc
 1162              	.LVL145:
 1163 03f6 0B90     		str	r0, [sp, #44]
 1164 03f8 0028     		cmp	r0, #0
 1165 03fa 34D0     		beq	.L62
 1166              		.loc 1 485 0
 1167 03fc 089A     		ldr	r2, [sp, #32]
 1168 03fe 4068     		ldr	r0, [r0, #4]
 1169              	.LVL146:
 1170 0400 1119     		adds	r1, r2, r4
 1171 0402 3246     		mov	r2, r6
 1172 0404 FFF7FEFF 		bl	memcpy
 1173              	.LVL147:
 1174 0408 D6E7     		b	.L63
 1175              	.LVL148:
 1176              	.L176:
 1177              	.LBE18:
 1178              	.LBE36:
 1179              		.loc 1 689 0
 1180 040a 0820     		movs	r0, #8
 1181 040c A589     		ldrh	r5, [r4, #12]	@ unaligned
 1182              	.LVL149:
 1183 040e FFF7FEFF 		bl	lwip_htons
 1184              	.LVL150:
 1185 0412 2843     		orrs	r0, r0, r5
 1186 0414 A081     		strh	r0, [r4, #12]	@ unaligned
 1187              		.loc 1 692 0
 1188 0416 3246     		mov	r2, r6
 1189 0418 ACE7     		b	.L42
 1190              	.LVL151:
 1191              	.L177:
 1192              		.loc 1 704 0 discriminator 2
 1193 041a FFF7FEFF 		bl	port_halt
 1194              	.LVL152:
 1195              		.loc 1 708 0 discriminator 2
ARM GAS  C:\Users\jenny\AppData\Local\Temp\ccUygzzS.s 			page 22


 1196 041e FF22     		movs	r2, #255
 1197 0420 A8E7     		b	.L42
 1198              	.LVL153:
 1199              	.L175:
 1200              		.loc 1 683 0 discriminator 1
 1201 0422 E96E     		ldr	r1, [r5, #108]
 1202 0424 0029     		cmp	r1, #0
 1203 0426 7FF45FAF 		bne	.L84
 1204              		.loc 1 683 0 is_stmt 0 discriminator 2
 1205 042a FFF7FEFF 		bl	port_halt
 1206              	.LVL154:
 1207 042e 5BE7     		b	.L84
 1208              	.LVL155:
 1209              	.L162:
 1210              	.LBB37:
 1211              	.LBB14:
 1212              		.loc 1 323 0 is_stmt 1
 1213 0430 1748     		ldr	r0, .L179
 1214 0432 B0F89C30 		ldrh	r3, [r0, #156]
 1215 0436 591C     		adds	r1, r3, #1
 1216 0438 A0F89C10 		strh	r1, [r0, #156]	@ movhi
 1217              	.L160:
 1218              		.loc 1 324 0
 1219 043c AA7F     		ldrb	r2, [r5, #30]	@ zero_extendqisi2
 1220              	.LVL156:
 1221 043e 62F07F00 		orn	r0, r2, #127
 1222 0442 A877     		strb	r0, [r5, #30]
 1223              		.loc 1 325 0
 1224 0444 FF22     		movs	r2, #255
 1225 0446 95E7     		b	.L42
 1226              	.L166:
 1227              	.LBE14:
 1228              	.LBE37:
 1229              		.loc 1 364 0 discriminator 1
 1230 0448 0024     		movs	r4, #0
 1231 044a 0C94     		str	r4, [sp, #48]
 1232              		.loc 1 511 0 discriminator 1
 1233 044c FFF7FEFF 		bl	port_halt
 1234              	.LVL157:
 1235              		.loc 1 358 0 discriminator 1
 1236 0450 0C9C     		ldr	r4, [sp, #48]
 1237              		.loc 1 357 0 discriminator 1
 1238 0452 A346     		mov	fp, r4
 1239              		.loc 1 356 0 discriminator 1
 1240 0454 0B94     		str	r4, [sp, #44]
 1241 0456 61E6     		b	.L64
 1242              	.LVL158:
 1243              	.L80:
 1244              		.loc 1 667 0
 1245 0458 BBF1000F 		cmp	fp, #0
 1246 045c 7FF42EAF 		bne	.L82
 1247              		.loc 1 668 0
 1248 0460 069A     		ldr	r2, [sp, #24]
 1249 0462 EA66     		str	r2, [r5, #108]
 1250 0464 2DE7     		b	.L83
 1251              	.LVL159:
 1252              	.L62:
ARM GAS  C:\Users\jenny\AppData\Local\Temp\ccUygzzS.s 			page 23


 1253              		.loc 1 694 0
 1254 0466 AA7F     		ldrb	r2, [r5, #30]	@ zero_extendqisi2
 1255              		.loc 1 695 0
 1256 0468 0948     		ldr	r0, .L179
 1257              		.loc 1 694 0
 1258 046a 62F07F03 		orn	r3, r2, #127
 1259 046e AB77     		strb	r3, [r5, #30]
 1260              		.loc 1 695 0
 1261 0470 B0F89C10 		ldrh	r1, [r0, #156]
 1262 0474 4A1C     		adds	r2, r1, #1
 1263 0476 A0F89C20 		strh	r2, [r0, #156]	@ movhi
 1264 047a 72E7     		b	.L86
 1265              	.LVL160:
 1266              	.L174:
 1267              		.loc 1 650 0 discriminator 1
 1268 047c FFF7FEFF 		bl	port_halt
 1269              	.LVL161:
 1270 0480 10E7     		b	.L81
 1271              	.LVL162:
 1272              	.L161:
 1273              		.loc 1 382 0 discriminator 1
 1274 0482 FFF7FEFF 		bl	port_halt
 1275              	.LVL163:
 1276 0486 F222     		movs	r2, #242
 1277 0488 74E7     		b	.L42
 1278              	.LVL164:
 1279              	.L92:
 1280              	.LBB38:
 1281              		.loc 1 451 0
 1282 048a 0C9C     		ldr	r4, [sp, #48]
 1283              	.LVL165:
 1284              		.loc 1 457 0
 1285 048c 5E46     		mov	r6, fp
 1286 048e 4FE6     		b	.L56
 1287              	.L180:
 1288              		.align	2
 1289              	.L179:
 1290 0490 00000000 		.word	lwip_stats
 1291              	.LBE38:
 1292              		.cfi_endproc
 1293              	.LFE12:
 1294              		.size	tcp_write, .-tcp_write
 1295 0494 AFF30080 		.section	.text.tcp_enqueue_flags,"ax",%progbits
 1295      AFF30080 
 1295      AFF30080 
 1296              		.align	2
 1297              		.p2align 4,,15
 1298              		.global	tcp_enqueue_flags
 1299              		.thumb
 1300              		.thumb_func
 1301              		.type	tcp_enqueue_flags, %function
 1302              	tcp_enqueue_flags:
 1303              	.LFB13:
 1304              		.loc 1 723 0
 1305              		.cfi_startproc
 1306              		@ args = 0, pretend = 0, frame = 0
 1307              		@ frame_needed = 0, uses_anonymous_args = 0
ARM GAS  C:\Users\jenny\AppData\Local\Temp\ccUygzzS.s 			page 24


 1308              	.LVL166:
 1309 0000 2DE9F043 		push	{r4, r5, r6, r7, r8, r9, lr}
 1310              	.LCFI5:
 1311              		.cfi_def_cfa_offset 28
 1312              		.cfi_offset 4, -28
 1313              		.cfi_offset 5, -24
 1314              		.cfi_offset 6, -20
 1315              		.cfi_offset 7, -16
 1316              		.cfi_offset 8, -12
 1317              		.cfi_offset 9, -8
 1318              		.cfi_offset 14, -4
 1319              		.loc 1 731 0
 1320 0004 11F00308 		ands	r8, r1, #3
 1321              		.loc 1 723 0
 1322 0008 83B0     		sub	sp, sp, #12
 1323              	.LCFI6:
 1324              		.cfi_def_cfa_offset 40
 1325              		.loc 1 723 0
 1326 000a 0E46     		mov	r6, r1
 1327 000c 0546     		mov	r5, r0
 1328              		.loc 1 731 0
 1329 000e 5BD0     		beq	.L216
 1330              	.LVL167:
 1331              	.L182:
 1332              		.loc 1 735 0
 1333 0010 B5F86830 		ldrh	r3, [r5, #104]
 1334 0014 072B     		cmp	r3, #7
 1335 0016 76D8     		bhi	.L217
 1336              		.loc 1 743 0
 1337 0018 06F00200 		and	r0, r6, #2
 1338 001c C1B2     		uxtb	r1, r0
 1339 001e 0029     		cmp	r1, #0
 1340 0020 4ED1     		bne	.L218
 1341              		.loc 1 726 0
 1342 0022 8946     		mov	r9, r1
 1343              		.loc 1 751 0
 1344 0024 0F46     		mov	r7, r1
 1345              	.L185:
 1346              	.LVL168:
 1347              		.loc 1 757 0 discriminator 3
 1348 0026 B5F86620 		ldrh	r2, [r5, #102]
 1349 002a 002A     		cmp	r2, #0
 1350 002c 63D0     		beq	.L219
 1351              		.loc 1 764 0
 1352 002e 0020     		movs	r0, #0
 1353 0030 3946     		mov	r1, r7
 1354 0032 0246     		mov	r2, r0
 1355 0034 FFF7FEFF 		bl	pbuf_alloc
 1356              	.LVL169:
 1357 0038 0446     		mov	r4, r0
 1358 003a 0028     		cmp	r0, #0
 1359 003c 6FD0     		beq	.L215
 1360              		.loc 1 769 0
 1361 003e 4389     		ldrh	r3, [r0, #10]
 1362 0040 BB42     		cmp	r3, r7
 1363 0042 44D3     		bcc	.L220
 1364              	.LVL170:
ARM GAS  C:\Users\jenny\AppData\Local\Temp\ccUygzzS.s 			page 25


 1365              	.L188:
 1366              		.loc 1 773 0
 1367 0044 EB6D     		ldr	r3, [r5, #92]
 1368 0046 CDF80090 		str	r9, [sp, #0]
 1369 004a 2846     		mov	r0, r5
 1370 004c 2146     		mov	r1, r4
 1371 004e 3246     		mov	r2, r6
 1372 0050 FFF7FEFF 		bl	tcp_create_segment
 1373              	.LVL171:
 1374 0054 0746     		mov	r7, r0
 1375              	.LVL172:
 1376 0056 0028     		cmp	r0, #0
 1377 0058 61D0     		beq	.L215
 1378              		.loc 1 778 0
 1379 005a C468     		ldr	r4, [r0, #12]
 1380              	.LVL173:
 1381 005c A107     		lsls	r1, r4, #30
 1382 005e 40D1     		bne	.L221
 1383              	.LVL174:
 1384              	.L190:
 1385              		.loc 1 779 0
 1386 0060 3889     		ldrh	r0, [r7, #8]
 1387 0062 0028     		cmp	r0, #0
 1388 0064 36D1     		bne	.L222
 1389              		.loc 1 788 0
 1390 0066 EA6E     		ldr	r2, [r5, #108]
 1391 0068 0AB9     		cbnz	r2, .L210
 1392 006a 38E0     		b	.L223
 1393              	.LVL175:
 1394              	.L198:
 1395              	.LBB39:
 1396              		.loc 1 792 0
 1397 006c 0A46     		mov	r2, r1
 1398              	.LVL176:
 1399              	.L210:
 1400              		.loc 1 792 0 is_stmt 0 discriminator 1
 1401 006e 1168     		ldr	r1, [r2, #0]
 1402 0070 0029     		cmp	r1, #0
 1403 0072 FBD1     		bne	.L198
 1404              		.loc 1 793 0 is_stmt 1
 1405 0074 1760     		str	r7, [r2, #0]
 1406              	.LVL177:
 1407              	.L193:
 1408              	.LBE39:
 1409              		.loc 1 797 0
 1410 0076 0023     		movs	r3, #0
 1411 0078 A5F86A30 		strh	r3, [r5, #106]	@ movhi
 1412              		.loc 1 801 0
 1413 007c B8F1000F 		cmp	r8, #0
 1414 0080 07D0     		beq	.L195
 1415              		.loc 1 802 0
 1416 0082 EC6D     		ldr	r4, [r5, #92]
 1417              		.loc 1 804 0
 1418 0084 B5F86600 		ldrh	r0, [r5, #102]
 1419              		.loc 1 802 0
 1420 0088 611C     		adds	r1, r4, #1
 1421              		.loc 1 804 0
ARM GAS  C:\Users\jenny\AppData\Local\Temp\ccUygzzS.s 			page 26


 1422 008a 421E     		subs	r2, r0, #1
 1423              		.loc 1 802 0
 1424 008c E965     		str	r1, [r5, #92]
 1425              		.loc 1 804 0
 1426 008e A5F86620 		strh	r2, [r5, #102]	@ movhi
 1427              	.L195:
 1428              		.loc 1 806 0
 1429 0092 F207     		lsls	r2, r6, #31
 1430 0094 03D5     		bpl	.L196
 1431              		.loc 1 807 0
 1432 0096 AB7F     		ldrb	r3, [r5, #30]	@ zero_extendqisi2
 1433 0098 43F02004 		orr	r4, r3, #32
 1434 009c AC77     		strb	r4, [r5, #30]
 1435              	.L196:
 1436              		.loc 1 811 0
 1437 009e 7868     		ldr	r0, [r7, #4]
 1438 00a0 B5F86840 		ldrh	r4, [r5, #104]
 1439 00a4 FFF7FEFF 		bl	pbuf_clen
 1440              	.LVL178:
 1441 00a8 0019     		adds	r0, r0, r4
 1442 00aa 81B2     		uxth	r1, r0
 1443 00ac A5F86810 		strh	r1, [r5, #104]	@ movhi
 1444              		.loc 1 813 0
 1445 00b0 11B1     		cbz	r1, .L184
 1446              		.loc 1 814 0
 1447 00b2 296F     		ldr	r1, [r5, #112]
 1448 00b4 C1B1     		cbz	r1, .L224
 1449              		.loc 1 818 0
 1450 00b6 0021     		movs	r1, #0
 1451              	.LVL179:
 1452              	.L184:
 1453              		.loc 1 819 0
 1454 00b8 48B2     		sxtb	r0, r1
 1455 00ba 03B0     		add	sp, sp, #12
 1456 00bc BDE8F083 		pop	{r4, r5, r6, r7, r8, r9, pc}
 1457              	.LVL180:
 1458              	.L218:
 1459              		.loc 1 744 0
 1460 00c0 4FF00109 		mov	r9, #1
 1461              		.loc 1 751 0
 1462 00c4 0427     		movs	r7, #4
 1463 00c6 AEE7     		b	.L185
 1464              	.LVL181:
 1465              	.L216:
 1466              		.loc 1 731 0 discriminator 1
 1467 00c8 FFF7FEFF 		bl	port_halt
 1468              	.LVL182:
 1469 00cc A0E7     		b	.L182
 1470              	.LVL183:
 1471              	.L220:
 1472              		.loc 1 769 0 discriminator 1
 1473 00ce FFF7FEFF 		bl	port_halt
 1474              	.LVL184:
 1475 00d2 B7E7     		b	.L188
 1476              	.LVL185:
 1477              	.L222:
 1478              		.loc 1 779 0 discriminator 1
ARM GAS  C:\Users\jenny\AppData\Local\Temp\ccUygzzS.s 			page 27


 1479 00d4 FFF7FEFF 		bl	port_halt
 1480              	.LVL186:
 1481              		.loc 1 788 0 discriminator 1
 1482 00d8 EA6E     		ldr	r2, [r5, #108]
 1483 00da 002A     		cmp	r2, #0
 1484 00dc C7D1     		bne	.L210
 1485              	.L223:
 1486              		.loc 1 789 0
 1487 00de EF66     		str	r7, [r5, #108]
 1488 00e0 C9E7     		b	.L193
 1489              	.LVL187:
 1490              	.L221:
 1491              		.loc 1 778 0 discriminator 1
 1492 00e2 FFF7FEFF 		bl	port_halt
 1493              	.LVL188:
 1494 00e6 BBE7     		b	.L190
 1495              	.L224:
 1496              		.loc 1 814 0 discriminator 1
 1497 00e8 EC6E     		ldr	r4, [r5, #108]
 1498 00ea 002C     		cmp	r4, #0
 1499 00ec E4D1     		bne	.L184
 1500              		.loc 1 814 0 is_stmt 0 discriminator 2
 1501 00ee FFF7FEFF 		bl	port_halt
 1502              	.LVL189:
 1503              		.loc 1 818 0 is_stmt 1 discriminator 2
 1504 00f2 2146     		mov	r1, r4
 1505 00f4 E0E7     		b	.L184
 1506              	.LVL190:
 1507              	.L219:
 1508              		.loc 1 759 0
 1509 00f6 104B     		ldr	r3, .L225
 1510 00f8 B3F89C00 		ldrh	r0, [r3, #156]
 1511 00fc 411C     		adds	r1, r0, #1
 1512 00fe A3F89C10 		strh	r1, [r3, #156]	@ movhi
 1513              		.loc 1 760 0
 1514 0102 FF21     		movs	r1, #255
 1515 0104 D8E7     		b	.L184
 1516              	.LVL191:
 1517              	.L217:
 1518              		.loc 1 738 0
 1519 0106 0C4B     		ldr	r3, .L225
 1520 0108 B3F89C20 		ldrh	r2, [r3, #156]
 1521 010c 501C     		adds	r0, r2, #1
 1522 010e A3F89C00 		strh	r0, [r3, #156]	@ movhi
 1523              		.loc 1 739 0
 1524 0112 A97F     		ldrb	r1, [r5, #30]	@ zero_extendqisi2
 1525 0114 61F07F03 		orn	r3, r1, #127
 1526 0118 AB77     		strb	r3, [r5, #30]
 1527              		.loc 1 740 0
 1528 011a FF21     		movs	r1, #255
 1529 011c CCE7     		b	.L184
 1530              	.LVL192:
 1531              	.L215:
 1532              		.loc 1 774 0
 1533 011e AA7F     		ldrb	r2, [r5, #30]	@ zero_extendqisi2
 1534              		.loc 1 775 0
 1535 0120 054B     		ldr	r3, .L225
ARM GAS  C:\Users\jenny\AppData\Local\Temp\ccUygzzS.s 			page 28


 1536              		.loc 1 774 0
 1537 0122 62F07F00 		orn	r0, r2, #127
 1538 0126 A877     		strb	r0, [r5, #30]
 1539              		.loc 1 775 0
 1540 0128 B3F89C10 		ldrh	r1, [r3, #156]
 1541 012c 4A1C     		adds	r2, r1, #1
 1542 012e A3F89C20 		strh	r2, [r3, #156]	@ movhi
 1543              		.loc 1 776 0
 1544 0132 FF21     		movs	r1, #255
 1545 0134 C0E7     		b	.L184
 1546              	.L226:
 1547 0136 00BF     		.align	2
 1548              	.L225:
 1549 0138 00000000 		.word	lwip_stats
 1550              		.cfi_endproc
 1551              	.LFE13:
 1552              		.size	tcp_enqueue_flags, .-tcp_enqueue_flags
 1553 013c AFF30080 		.section	.text.tcp_send_fin,"ax",%progbits
 1554              		.align	2
 1555              		.p2align 4,,15
 1556              		.global	tcp_send_fin
 1557              		.thumb
 1558              		.thumb_func
 1559              		.type	tcp_send_fin, %function
 1560              	tcp_send_fin:
 1561              	.LFB8:
 1562              		.loc 1 126 0
 1563              		.cfi_startproc
 1564              		@ args = 0, pretend = 0, frame = 0
 1565              		@ frame_needed = 0, uses_anonymous_args = 0
 1566              	.LVL193:
 1567 0000 F8B5     		push	{r3, r4, r5, r6, r7, lr}
 1568              	.LCFI7:
 1569              		.cfi_def_cfa_offset 24
 1570              		.cfi_offset 3, -24
 1571              		.cfi_offset 4, -20
 1572              		.cfi_offset 5, -16
 1573              		.cfi_offset 6, -12
 1574              		.cfi_offset 7, -8
 1575              		.cfi_offset 14, -4
 1576              		.loc 1 128 0
 1577 0002 C46E     		ldr	r4, [r0, #108]
 1578              		.loc 1 126 0
 1579 0004 0546     		mov	r5, r0
 1580              		.loc 1 128 0
 1581 0006 0CB9     		cbnz	r4, .L235
 1582 0008 0AE0     		b	.L228
 1583              	.LVL194:
 1584              	.L231:
 1585              	.LBB40:
 1586              		.loc 1 131 0
 1587 000a 1C46     		mov	r4, r3
 1588              	.LVL195:
 1589              	.L235:
 1590              		.loc 1 130 0 discriminator 1
 1591 000c 2368     		ldr	r3, [r4, #0]
 1592 000e 002B     		cmp	r3, #0
ARM GAS  C:\Users\jenny\AppData\Local\Temp\ccUygzzS.s 			page 29


 1593 0010 FBD1     		bne	.L231
 1594              		.loc 1 133 0
 1595 0012 E068     		ldr	r0, [r4, #12]
 1596              	.LVL196:
 1597 0014 8089     		ldrh	r0, [r0, #12]	@ unaligned
 1598 0016 FFF7FEFF 		bl	lwip_ntohs
 1599              	.LVL197:
 1600 001a 10F00706 		ands	r6, r0, #7
 1601 001e 05D0     		beq	.L237
 1602              	.LVL198:
 1603              	.L228:
 1604              	.LBE40:
 1605              		.loc 1 141 0
 1606 0020 2846     		mov	r0, r5
 1607 0022 0121     		movs	r1, #1
 1608              		.loc 1 142 0
 1609 0024 BDE8F840 		pop	{r3, r4, r5, r6, r7, lr}
 1610              		.loc 1 141 0
 1611 0028 FFF7FEBF 		b	tcp_enqueue_flags
 1612              	.LVL199:
 1613              	.L237:
 1614              	.LBB41:
 1615              		.loc 1 135 0
 1616 002c E468     		ldr	r4, [r4, #12]
 1617              	.LVL200:
 1618 002e 0120     		movs	r0, #1
 1619 0030 A789     		ldrh	r7, [r4, #12]	@ unaligned
 1620 0032 FFF7FEFF 		bl	lwip_htons
 1621              	.LVL201:
 1622 0036 3843     		orrs	r0, r0, r7
 1623 0038 A081     		strh	r0, [r4, #12]	@ unaligned
 1624              		.loc 1 136 0
 1625 003a A97F     		ldrb	r1, [r5, #30]	@ zero_extendqisi2
 1626 003c 41F02002 		orr	r2, r1, #32
 1627 0040 AA77     		strb	r2, [r5, #30]
 1628              	.LBE41:
 1629              		.loc 1 142 0
 1630 0042 3046     		mov	r0, r6
 1631 0044 F8BD     		pop	{r3, r4, r5, r6, r7, pc}
 1632              		.cfi_endproc
 1633              	.LFE8:
 1634              		.size	tcp_send_fin, .-tcp_send_fin
 1635 0046 00BFAFF3 		.section	.text.tcp_send_empty_ack,"ax",%progbits
 1635      0080AFF3 
 1635      0080
 1636              		.align	2
 1637              		.p2align 4,,15
 1638              		.global	tcp_send_empty_ack
 1639              		.thumb
 1640              		.thumb_func
 1641              		.type	tcp_send_empty_ack, %function
 1642              	tcp_send_empty_ack:
 1643              	.LFB14:
 1644              		.loc 1 843 0
 1645              		.cfi_startproc
 1646              		@ args = 0, pretend = 0, frame = 0
 1647              		@ frame_needed = 0, uses_anonymous_args = 0
ARM GAS  C:\Users\jenny\AppData\Local\Temp\ccUygzzS.s 			page 30


 1648              	.LVL202:
 1649 0000 F0B5     		push	{r4, r5, r6, r7, lr}
 1650              	.LCFI8:
 1651              		.cfi_def_cfa_offset 20
 1652              		.cfi_offset 4, -20
 1653              		.cfi_offset 5, -16
 1654              		.cfi_offset 6, -12
 1655              		.cfi_offset 7, -8
 1656              		.cfi_offset 14, -4
 1657 0002 0446     		mov	r4, r0
 1658 0004 83B0     		sub	sp, sp, #12
 1659              	.LCFI9:
 1660              		.cfi_def_cfa_offset 32
 1661              		.loc 1 854 0
 1662 0006 006D     		ldr	r0, [r0, #80]
 1663              	.LVL203:
 1664 0008 FFF7FEFF 		bl	lwip_htonl
 1665              	.LVL204:
 1666 000c 0021     		movs	r1, #0
 1667 000e 0246     		mov	r2, r0
 1668 0010 2046     		mov	r0, r4
 1669 0012 FFF7FEFF 		bl	tcp_output_alloc_header.constprop.0
 1670              	.LVL205:
 1671              		.loc 1 855 0
 1672 0016 0546     		mov	r5, r0
 1673 0018 0028     		cmp	r0, #0
 1674 001a 20D0     		beq	.L240
 1675              		.loc 1 863 0
 1676 001c A37F     		ldrb	r3, [r4, #30]	@ zero_extendqisi2
 1677              		.loc 1 859 0
 1678 001e 4768     		ldr	r7, [r0, #4]
 1679              	.LVL206:
 1680              		.loc 1 863 0
 1681 0020 23F00301 		bic	r1, r3, #3
 1682 0024 A177     		strb	r1, [r4, #30]
 1683              		.loc 1 875 0
 1684 0026 B0F808E0 		ldrh	lr, [r0, #8]
 1685 002a 261D     		adds	r6, r4, #4
 1686 002c CDF800E0 		str	lr, [sp, #0]
 1687 0030 2146     		mov	r1, r4
 1688 0032 3246     		mov	r2, r6
 1689 0034 0623     		movs	r3, #6
 1690 0036 FFF7FEFF 		bl	inet_chksum_pseudo
 1691              	.LVL207:
 1692 003a 3882     		strh	r0, [r7, #16]	@ unaligned
 1693              		.loc 1 882 0
 1694 003c 607A     		ldrb	r0, [r4, #9]	@ zero_extendqisi2
 1695 003e A37A     		ldrb	r3, [r4, #10]	@ zero_extendqisi2
 1696 0040 0090     		str	r0, [sp, #0]
 1697 0042 0620     		movs	r0, #6
 1698 0044 3246     		mov	r2, r6
 1699 0046 2146     		mov	r1, r4
 1700 0048 0190     		str	r0, [sp, #4]
 1701 004a 2846     		mov	r0, r5
 1702 004c FFF7FEFF 		bl	ip_output
 1703              	.LVL208:
 1704              		.loc 1 885 0
ARM GAS  C:\Users\jenny\AppData\Local\Temp\ccUygzzS.s 			page 31


 1705 0050 2846     		mov	r0, r5
 1706 0052 FFF7FEFF 		bl	pbuf_free
 1707              	.LVL209:
 1708              		.loc 1 887 0
 1709 0056 0022     		movs	r2, #0
 1710              	.LVL210:
 1711              	.L239:
 1712              		.loc 1 888 0
 1713 0058 50B2     		sxtb	r0, r2
 1714 005a 03B0     		add	sp, sp, #12
 1715 005c F0BD     		pop	{r4, r5, r6, r7, pc}
 1716              	.LVL211:
 1717              	.L240:
 1718              		.loc 1 857 0
 1719 005e FE22     		movs	r2, #254
 1720 0060 FAE7     		b	.L239
 1721              		.cfi_endproc
 1722              	.LFE14:
 1723              		.size	tcp_send_empty_ack, .-tcp_send_empty_ack
 1724 0062 00BFAFF3 		.section	.text.tcp_output,"ax",%progbits
 1724      0080AFF3 
 1724      0080AFF3 
 1724      0080
 1725              		.align	2
 1726              		.p2align 4,,15
 1727              		.global	tcp_output
 1728              		.thumb
 1729              		.thumb_func
 1730              		.type	tcp_output, %function
 1731              	tcp_output:
 1732              	.LFB15:
 1733              		.loc 1 899 0
 1734              		.cfi_startproc
 1735              		@ args = 0, pretend = 0, frame = 8
 1736              		@ frame_needed = 0, uses_anonymous_args = 0
 1737              	.LVL212:
 1738 0000 2DE9F04F 		push	{r4, r5, r6, r7, r8, r9, sl, fp, lr}
 1739              	.LCFI10:
 1740              		.cfi_def_cfa_offset 36
 1741              		.cfi_offset 4, -36
 1742              		.cfi_offset 5, -32
 1743              		.cfi_offset 6, -28
 1744              		.cfi_offset 7, -24
 1745              		.cfi_offset 8, -20
 1746              		.cfi_offset 9, -16
 1747              		.cfi_offset 10, -12
 1748              		.cfi_offset 11, -8
 1749              		.cfi_offset 14, -4
 1750              		.loc 1 907 0
 1751 0004 037E     		ldrb	r3, [r0, #24]	@ zero_extendqisi2
 1752 0006 012B     		cmp	r3, #1
 1753              		.loc 1 899 0
 1754 0008 85B0     		sub	sp, sp, #20
 1755              	.LCFI11:
 1756              		.cfi_def_cfa_offset 56
 1757              		.loc 1 899 0
 1758 000a 0446     		mov	r4, r0
ARM GAS  C:\Users\jenny\AppData\Local\Temp\ccUygzzS.s 			page 32


 1759              		.loc 1 907 0
 1760 000c 00F07481 		beq	.L310
 1761              	.LVL213:
 1762              	.L242:
 1763              		.loc 1 914 0
 1764 0010 AC48     		ldr	r0, .L318
 1765 0012 0168     		ldr	r1, [r0, #0]
 1766 0014 A142     		cmp	r1, r4
 1767 0016 00F01681 		beq	.L295
 1768              		.loc 1 928 0
 1769 001a A37F     		ldrb	r3, [r4, #30]	@ zero_extendqisi2
 1770              		.loc 1 918 0
 1771 001c B4F860A0 		ldrh	sl, [r4, #96]
 1772 0020 B4F84C20 		ldrh	r2, [r4, #76]
 1773              		.loc 1 920 0
 1774 0024 E56E     		ldr	r5, [r4, #108]
 1775              		.loc 1 928 0
 1776 0026 03F00200 		and	r0, r3, #2
 1777              		.loc 1 918 0
 1778 002a 9245     		cmp	sl, r2
 1779 002c 28BF     		it	cs
 1780 002e 9246     		movcs	sl, r2
 1781              		.loc 1 928 0
 1782 0030 C1B2     		uxtb	r1, r0
 1783              		.loc 1 918 0
 1784 0032 CDF80CA0 		str	sl, [sp, #12]
 1785              	.LVL214:
 1786              		.loc 1 928 0
 1787 0036 0029     		cmp	r1, #0
 1788 0038 40F04881 		bne	.L311
 1789              	.L244:
 1790              		.loc 1 935 0
 1791 003c 276F     		ldr	r7, [r4, #112]
 1792              	.LVL215:
 1793              		.loc 1 936 0
 1794 003e 0FB9     		cbnz	r7, .L300
 1795 0040 03E0     		b	.L251
 1796              	.L276:
 1797              		.loc 1 937 0
 1798 0042 0F46     		mov	r7, r1
 1799              	.LVL216:
 1800              	.L300:
 1801              		.loc 1 937 0 is_stmt 0 discriminator 1
 1802 0044 3968     		ldr	r1, [r7, #0]
 1803 0046 0029     		cmp	r1, #0
 1804 0048 FBD1     		bne	.L276
 1805              	.L251:
 1806              		.loc 1 962 0 is_stmt 1 discriminator 1
 1807 004a 002D     		cmp	r5, #0
 1808 004c 00F05181 		beq	.L309
 1809              	.LBB46:
 1810              	.LBB47:
 1811              		.loc 1 1163 0 discriminator 2
 1812 0050 DFF87492 		ldr	r9, .L318+4
 1813              	.LBB48:
 1814              		.loc 1 1073 0 discriminator 2
 1815 0054 04F10408 		add	r8, r4, #4
ARM GAS  C:\Users\jenny\AppData\Local\Temp\ccUygzzS.s 			page 33


 1816              	.LBE48:
 1817              		.loc 1 1092 0 discriminator 2
 1818 0058 0026     		movs	r6, #0
 1819 005a B7E0     		b	.L296
 1820              	.LVL217:
 1821              	.L252:
 1822              	.LBE47:
 1823              	.LBE46:
 1824              		.loc 1 973 0
 1825 005c 226F     		ldr	r2, [r4, #112]
 1826 005e 5AB1     		cbz	r2, .L253
 1827              		.loc 1 973 0 is_stmt 0 discriminator 2
 1828 0060 A37F     		ldrb	r3, [r4, #30]	@ zero_extendqisi2
 1829 0062 13F0440F 		tst	r3, #68
 1830 0066 07D1     		bne	.L253
 1831              		.loc 1 973 0 discriminator 3
 1832 0068 E26E     		ldr	r2, [r4, #108]
 1833 006a 002A     		cmp	r2, #0
 1834 006c 00F01581 		beq	.L254
 1835              		.loc 1 973 0 discriminator 4
 1836 0070 1168     		ldr	r1, [r2, #0]
 1837 0072 0029     		cmp	r1, #0
 1838 0074 00F00C81 		beq	.L312
 1839              	.L253:
 1840              		.loc 1 988 0 is_stmt 1
 1841 0078 227E     		ldrb	r2, [r4, #24]	@ zero_extendqisi2
 1842              		.loc 1 986 0
 1843 007a 2B68     		ldr	r3, [r5, #0]
 1844              		.loc 1 988 0
 1845 007c 022A     		cmp	r2, #2
 1846              		.loc 1 986 0
 1847 007e E366     		str	r3, [r4, #108]
 1848              		.loc 1 988 0
 1849 0080 0ED0     		beq	.L256
 1850              		.loc 1 989 0
 1851 0082 D5F80CA0 		ldr	sl, [r5, #12]
 1852 0086 1020     		movs	r0, #16
 1853 0088 BAF80CB0 		ldrh	fp, [sl, #12]	@ unaligned
 1854 008c FFF7FEFF 		bl	lwip_htons
 1855              	.LVL218:
 1856 0090 40EA0B00 		orr	r0, r0, fp
 1857 0094 AAF80C00 		strh	r0, [sl, #12]	@ unaligned
 1858              		.loc 1 990 0
 1859 0098 A17F     		ldrb	r1, [r4, #30]	@ zero_extendqisi2
 1860 009a 21F00303 		bic	r3, r1, #3
 1861 009e A377     		strb	r3, [r4, #30]
 1862              	.L256:
 1863              	.LVL219:
 1864              	.LBB53:
 1865              	.LBB50:
 1866              		.loc 1 1060 0
 1867 00a0 A06A     		ldr	r0, [r4, #40]
 1868 00a2 D5F80CA0 		ldr	sl, [r5, #12]
 1869 00a6 FFF7FEFF 		bl	lwip_htonl
 1870              	.LVL220:
 1871 00aa CAF80800 		str	r0, [sl, #8]	@ unaligned
 1872              		.loc 1 1063 0
ARM GAS  C:\Users\jenny\AppData\Local\Temp\ccUygzzS.s 			page 34


 1873 00ae E08D     		ldrh	r0, [r4, #46]
 1874 00b0 D5F80CB0 		ldr	fp, [r5, #12]
 1875 00b4 FFF7FEFF 		bl	lwip_htons
 1876              	.LVL221:
 1877 00b8 ABF80E00 		strh	r0, [fp, #14]	@ unaligned
 1878              		.loc 1 1065 0
 1879 00bc A06A     		ldr	r0, [r4, #40]
 1880 00be E28D     		ldrh	r2, [r4, #46]
 1881              		.loc 1 1069 0
 1882 00c0 D5F80CA0 		ldr	sl, [r5, #12]
 1883              	.LVL222:
 1884              		.loc 1 1065 0
 1885 00c4 1118     		adds	r1, r2, r0
 1886 00c6 2163     		str	r1, [r4, #48]
 1887              	.LBE50:
 1888              		.loc 1 1070 0
 1889 00c8 AB7A     		ldrb	r3, [r5, #10]	@ zero_extendqisi2
 1890              	.LBB51:
 1891 00ca D807     		lsls	r0, r3, #31
 1892 00cc 00F19780 		bmi	.L313
 1893              	.LVL223:
 1894              	.L257:
 1895              		.loc 1 1091 0
 1896 00d0 B4F93420 		ldrsh	r2, [r4, #52]
 1897              		.loc 1 1097 0
 1898 00d4 2068     		ldr	r0, [r4, #0]
 1899              		.loc 1 1091 0
 1900 00d6 531C     		adds	r3, r2, #1
 1901              		.loc 1 1092 0
 1902 00d8 08BF     		it	eq
 1903 00da A686     		strheq	r6, [r4, #52]	@ movhi
 1904              		.loc 1 1097 0
 1905 00dc 30B9     		cbnz	r0, .L259
 1906              		.loc 1 1098 0
 1907 00de 4046     		mov	r0, r8
 1908 00e0 FFF7FEFF 		bl	ip_route
 1909              	.LVL224:
 1910              		.loc 1 1099 0
 1911 00e4 0028     		cmp	r0, #0
 1912 00e6 35D0     		beq	.L260
 1913              		.loc 1 1102 0
 1914 00e8 4168     		ldr	r1, [r0, #4]
 1915 00ea 2160     		str	r1, [r4, #0]
 1916              	.LVL225:
 1917              	.L259:
 1918              		.loc 1 1105 0
 1919 00ec A36B     		ldr	r3, [r4, #56]
 1920 00ee 002B     		cmp	r3, #0
 1921 00f0 00F09180 		beq	.L314
 1922              	.L261:
 1923              		.loc 1 1115 0
 1924 00f4 6868     		ldr	r0, [r5, #4]
 1925 00f6 D5F80CB0 		ldr	fp, [r5, #12]
 1926 00fa 4368     		ldr	r3, [r0, #4]
 1927              		.loc 1 1118 0
 1928 00fc B0F808E0 		ldrh	lr, [r0, #8]
 1929              		.loc 1 1117 0
ARM GAS  C:\Users\jenny\AppData\Local\Temp\ccUygzzS.s 			page 35


 1930 0100 4289     		ldrh	r2, [r0, #10]
 1931              		.loc 1 1120 0
 1932 0102 C0F804B0 		str	fp, [r0, #4]
 1933              		.loc 1 1115 0
 1934 0106 C3EB0B01 		rsb	r1, r3, fp
 1935 010a 8BB2     		uxth	r3, r1
 1936              	.LVL226:
 1937              		.loc 1 1118 0
 1938 010c C3EB0E0C 		rsb	ip, r3, lr
 1939 0110 1FFA8CFA 		uxth	sl, ip
 1940              		.loc 1 1117 0
 1941 0114 D21A     		subs	r2, r2, r3
 1942 0116 4281     		strh	r2, [r0, #10]	@ movhi
 1943              		.loc 1 1118 0
 1944 0118 A0F808A0 		strh	sl, [r0, #8]	@ movhi
 1945              		.loc 1 1158 0
 1946 011c 2146     		mov	r1, r4
 1947              	.LVL227:
 1948              		.loc 1 1122 0
 1949 011e 8BF81060 		strb	r6, [fp, #16]
 1950 0122 8BF81160 		strb	r6, [fp, #17]
 1951              		.loc 1 1158 0
 1952 0126 4246     		mov	r2, r8
 1953 0128 0623     		movs	r3, #6
 1954              	.LVL228:
 1955 012a CDF800A0 		str	sl, [sp, #0]
 1956 012e FFF7FEFF 		bl	inet_chksum_pseudo
 1957              	.LVL229:
 1958 0132 ABF81000 		strh	r0, [fp, #16]	@ unaligned
 1959              		.loc 1 1163 0
 1960 0136 B9F89010 		ldrh	r1, [r9, #144]
 1961              		.loc 1 1169 0
 1962 013a 6868     		ldr	r0, [r5, #4]
 1963              		.loc 1 1163 0
 1964 013c 4B1C     		adds	r3, r1, #1
 1965 013e A9F89030 		strh	r3, [r9, #144]	@ movhi
 1966              		.loc 1 1169 0
 1967 0142 627A     		ldrb	r2, [r4, #9]	@ zero_extendqisi2
 1968 0144 A37A     		ldrb	r3, [r4, #10]	@ zero_extendqisi2
 1969 0146 0092     		str	r2, [sp, #0]
 1970 0148 0621     		movs	r1, #6
 1971 014a 0191     		str	r1, [sp, #4]
 1972 014c 4246     		mov	r2, r8
 1973 014e 2146     		mov	r1, r4
 1974 0150 FFF7FEFF 		bl	ip_output
 1975              	.LVL230:
 1976              	.L260:
 1977              	.LBE51:
 1978              	.LBE53:
 1979              		.loc 1 994 0
 1980 0154 E868     		ldr	r0, [r5, #12]
 1981 0156 4068     		ldr	r0, [r0, #4]	@ unaligned
 1982 0158 FFF7FEFF 		bl	lwip_ntohl
 1983              	.LVL231:
 1984 015c EB68     		ldr	r3, [r5, #12]
 1985 015e B5F808A0 		ldrh	sl, [r5, #8]
 1986 0162 8346     		mov	fp, r0
ARM GAS  C:\Users\jenny\AppData\Local\Temp\ccUygzzS.s 			page 36


 1987 0164 9889     		ldrh	r0, [r3, #12]	@ unaligned
 1988 0166 FFF7FEFF 		bl	lwip_ntohs
 1989              	.LVL232:
 1990 016a 10F00302 		ands	r2, r0, #3
 1991 016e 18BF     		it	ne
 1992 0170 0122     		movne	r2, #1
 1993              		.loc 1 995 0
 1994 0172 206D     		ldr	r0, [r4, #80]
 1995              		.loc 1 994 0
 1996 0174 0AEB0201 		add	r1, sl, r2
 1997 0178 01EB0B03 		add	r3, r1, fp
 1998              	.LVL233:
 1999              		.loc 1 995 0
 2000 017c C21A     		subs	r2, r0, r3
 2001 017e 002A     		cmp	r2, #0
 2002              		.loc 1 999 0
 2003 0180 E968     		ldr	r1, [r5, #12]
 2004              		.loc 1 996 0
 2005 0182 B8BF     		it	lt
 2006 0184 2365     		strlt	r3, [r4, #80]
 2007              		.loc 1 999 0
 2008 0186 8889     		ldrh	r0, [r1, #12]	@ unaligned
 2009 0188 B5F808B0 		ldrh	fp, [r5, #8]
 2010 018c FFF7FEFF 		bl	lwip_ntohs
 2011              	.LVL234:
 2012 0190 10F00300 		ands	r0, r0, #3
 2013 0194 18BF     		it	ne
 2014 0196 0120     		movne	r0, #1
 2015 0198 0BEB0003 		add	r3, fp, r0
 2016 019c 002B     		cmp	r3, #0
 2017 019e 73D0     		beq	.L263
 2018              		.loc 1 1002 0
 2019 01a0 226F     		ldr	r2, [r4, #112]
 2020              		.loc 1 1000 0
 2021 01a2 2E60     		str	r6, [r5, #0]
 2022              		.loc 1 1002 0
 2023 01a4 002A     		cmp	r2, #0
 2024 01a6 42D0     		beq	.L315
 2025              		.loc 1 1010 0
 2026 01a8 E968     		ldr	r1, [r5, #12]
 2027 01aa 4868     		ldr	r0, [r1, #4]	@ unaligned
 2028 01ac FFF7FEFF 		bl	lwip_ntohl
 2029              	.LVL235:
 2030 01b0 8346     		mov	fp, r0
 2031 01b2 F868     		ldr	r0, [r7, #12]
 2032 01b4 4068     		ldr	r0, [r0, #4]	@ unaligned
 2033 01b6 FFF7FEFF 		bl	lwip_ntohl
 2034              	.LVL236:
 2035 01ba C0EB0B03 		rsb	r3, r0, fp
 2036 01be 002B     		cmp	r3, #0
 2037 01c0 45DB     		blt	.L316
 2038              		.loc 1 1021 0
 2039 01c2 3D60     		str	r5, [r7, #0]
 2040              	.LVL237:
 2041 01c4 2F46     		mov	r7, r5
 2042              	.LVL238:
 2043              	.L265:
ARM GAS  C:\Users\jenny\AppData\Local\Temp\ccUygzzS.s 			page 37


 2044              		.loc 1 1029 0
 2045 01c6 E56E     		ldr	r5, [r4, #108]
 2046              	.LVL239:
 2047              		.loc 1 962 0
 2048 01c8 002D     		cmp	r5, #0
 2049 01ca 35D0     		beq	.L317
 2050              	.LVL240:
 2051              	.L296:
 2052              		.loc 1 963 0 discriminator 2
 2053 01cc EB68     		ldr	r3, [r5, #12]
 2054 01ce 5868     		ldr	r0, [r3, #4]	@ unaligned
 2055 01d0 FFF7FEFF 		bl	lwip_ntohl
 2056              	.LVL241:
 2057 01d4 2A89     		ldrh	r2, [r5, #8]
 2058 01d6 A16C     		ldr	r1, [r4, #72]
 2059 01d8 531A     		subs	r3, r2, r1
 2060              		.loc 1 962 0 discriminator 2
 2061 01da 039A     		ldr	r2, [sp, #12]
 2062              		.loc 1 963 0 discriminator 2
 2063 01dc 1818     		adds	r0, r3, r0
 2064              		.loc 1 962 0 discriminator 2
 2065 01de 8242     		cmp	r2, r0
 2066 01e0 C0F08780 		bcc	.L309
 2067              		.loc 1 964 0
 2068 01e4 E968     		ldr	r1, [r5, #12]
 2069 01e6 8889     		ldrh	r0, [r1, #12]	@ unaligned
 2070 01e8 FFF7FEFF 		bl	lwip_ntohs
 2071              	.LVL242:
 2072 01ec 00F00403 		and	r3, r0, #4
 2073 01f0 98B2     		uxth	r0, r3
 2074 01f2 0028     		cmp	r0, #0
 2075 01f4 3FF432AF 		beq	.L252
 2076              		.loc 1 964 0 is_stmt 0 discriminator 1
 2077 01f8 FFF7FEFF 		bl	port_halt
 2078              	.LVL243:
 2079 01fc 2EE7     		b	.L252
 2080              	.LVL244:
 2081              	.L313:
 2082              	.LBB54:
 2083              	.LBB52:
 2084              	.LBB49:
 2085              		.loc 1 1073 0 is_stmt 1
 2086 01fe 4146     		mov	r1, r8
 2087 0200 4FF40670 		mov	r0, #536
 2088 0204 FFF7FEFF 		bl	tcp_eff_send_mss
 2089              	.LVL245:
 2090              		.loc 1 1077 0
 2091 0208 40F00170 		orr	r0, r0, #33816576
 2092              	.LVL246:
 2093 020c FFF7FEFF 		bl	lwip_htonl
 2094              	.LVL247:
 2095 0210 CAF81400 		str	r0, [sl, #20]
 2096              	.LVL248:
 2097 0214 5CE7     		b	.L257
 2098              	.LVL249:
 2099              	.L314:
 2100              	.LBE49:
ARM GAS  C:\Users\jenny\AppData\Local\Temp\ccUygzzS.s 			page 38


 2101              		.loc 1 1106 0
 2102 0216 40F20002 		movw	r2, #:lower16:tcp_ticks
 2103 021a C0F20002 		movt	r2, #:upper16:tcp_ticks
 2104              		.loc 1 1107 0
 2105 021e E968     		ldr	r1, [r5, #12]
 2106              		.loc 1 1106 0
 2107 0220 1068     		ldr	r0, [r2, #0]
 2108 0222 A063     		str	r0, [r4, #56]
 2109              		.loc 1 1107 0
 2110 0224 4868     		ldr	r0, [r1, #4]	@ unaligned
 2111 0226 FFF7FEFF 		bl	lwip_ntohl
 2112              	.LVL250:
 2113 022a E063     		str	r0, [r4, #60]
 2114 022c 62E7     		b	.L261
 2115              	.L315:
 2116              	.LBE52:
 2117              	.LBE54:
 2118              		.loc 1 1003 0
 2119 022e 2567     		str	r5, [r4, #112]
 2120              	.LVL251:
 2121 0230 2F46     		mov	r7, r5
 2122              		.loc 1 1029 0
 2123 0232 E56E     		ldr	r5, [r4, #108]
 2124              	.LVL252:
 2125              		.loc 1 962 0
 2126 0234 002D     		cmp	r5, #0
 2127 0236 C9D1     		bne	.L296
 2128              	.LVL253:
 2129              	.L317:
 2130 0238 A37F     		ldrb	r3, [r4, #30]	@ zero_extendqisi2
 2131              	.LVL254:
 2132              	.L272:
 2133              		.loc 1 1034 0
 2134 023a 0022     		movs	r2, #0
 2135              		.loc 1 1038 0
 2136 023c 03F07F01 		and	r1, r3, #127
 2137              		.loc 1 1034 0
 2138 0240 A4F86A20 		strh	r2, [r4, #106]	@ movhi
 2139              		.loc 1 1038 0
 2140 0244 A177     		strb	r1, [r4, #30]
 2141              	.LVL255:
 2142              	.L295:
 2143              		.loc 1 1040 0
 2144 0246 0020     		movs	r0, #0
 2145 0248 05B0     		add	sp, sp, #20
 2146 024a BDE8F08F 		pop	{r4, r5, r6, r7, r8, r9, sl, fp, pc}
 2147              	.LVL256:
 2148              	.L316:
 2149              	.LBB55:
 2150              		.loc 1 1013 0
 2151 024e 236F     		ldr	r3, [r4, #112]
 2152              		.loc 1 1012 0
 2153 0250 04F1700B 		add	fp, r4, #112
 2154              	.LVL257:
 2155              		.loc 1 1013 0
 2156 0254 2BB9     		cbnz	r3, .L297
 2157 0256 13E0     		b	.L268
ARM GAS  C:\Users\jenny\AppData\Local\Temp\ccUygzzS.s 			page 39


 2158              	.L270:
 2159              		.loc 1 1015 0
 2160 0258 DBF800B0 		ldr	fp, [fp, #0]
 2161              	.LVL258:
 2162              		.loc 1 1013 0
 2163 025c DBF80030 		ldr	r3, [fp, #0]
 2164 0260 73B1     		cbz	r3, .L268
 2165              	.L297:
 2166              		.loc 1 1014 0 discriminator 2
 2167 0262 DA68     		ldr	r2, [r3, #12]
 2168 0264 5068     		ldr	r0, [r2, #4]	@ unaligned
 2169 0266 FFF7FEFF 		bl	lwip_ntohl
 2170              	.LVL259:
 2171 026a E968     		ldr	r1, [r5, #12]
 2172 026c 8246     		mov	sl, r0
 2173 026e 4868     		ldr	r0, [r1, #4]	@ unaligned
 2174 0270 FFF7FEFF 		bl	lwip_ntohl
 2175              	.LVL260:
 2176 0274 C0EB0A00 		rsb	r0, r0, sl
 2177              		.loc 1 1013 0 discriminator 2
 2178 0278 0028     		cmp	r0, #0
 2179 027a EDDB     		blt	.L270
 2180 027c DBF80030 		ldr	r3, [fp, #0]
 2181              	.L268:
 2182              		.loc 1 1017 0
 2183 0280 2B60     		str	r3, [r5, #0]
 2184              		.loc 1 1018 0
 2185 0282 CBF80050 		str	r5, [fp, #0]
 2186 0286 9EE7     		b	.L265
 2187              	.LVL261:
 2188              	.L263:
 2189              	.LBE55:
 2190              		.loc 1 1027 0
 2191 0288 2846     		mov	r0, r5
 2192 028a FFF7FEFF 		bl	tcp_seg_free
 2193              	.LVL262:
 2194 028e 9AE7     		b	.L265
 2195              	.LVL263:
 2196              	.L312:
 2197              		.loc 1 973 0 discriminator 6
 2198 0290 1089     		ldrh	r0, [r2, #8]
 2199 0292 E18E     		ldrh	r1, [r4, #54]
 2200 0294 8842     		cmp	r0, r1
 2201 0296 BFF4EFAE 		bcs	.L253
 2202              	.L254:
 2203              		.loc 1 973 0 is_stmt 0 discriminator 5
 2204 029a B4F86600 		ldrh	r0, [r4, #102]
 2205 029e 0028     		cmp	r0, #0
 2206 02a0 3FF4EAAE 		beq	.L253
 2207              		.loc 1 973 0 discriminator 7
 2208 02a4 B4F86810 		ldrh	r1, [r4, #104]
 2209 02a8 0729     		cmp	r1, #7
 2210 02aa 3FF6E5AE 		bhi	.L253
 2211              		.loc 1 973 0
 2212 02ae 13F0A00F 		tst	r3, #160
 2213 02b2 7FF4E1AE 		bne	.L253
 2214              	.L249:
ARM GAS  C:\Users\jenny\AppData\Local\Temp\ccUygzzS.s 			page 40


 2215              		.loc 1 1032 0 is_stmt 1
 2216 02b6 002A     		cmp	r2, #0
 2217 02b8 BFD0     		beq	.L272
 2218              		.loc 1 1038 0
 2219 02ba 03F07F01 		and	r1, r3, #127
 2220 02be A177     		strb	r1, [r4, #30]
 2221              		.loc 1 1039 0
 2222 02c0 C1E7     		b	.L295
 2223              	.L319:
 2224 02c2 00BF     		.align	2
 2225              	.L318:
 2226 02c4 00000000 		.word	tcp_input_pcb
 2227 02c8 00000000 		.word	lwip_stats
 2228              	.LVL264:
 2229              	.L311:
 2230              		.loc 1 928 0 discriminator 1
 2231 02cc 5DB1     		cbz	r5, .L246
 2232              		.loc 1 930 0
 2233 02ce EB68     		ldr	r3, [r5, #12]
 2234 02d0 5868     		ldr	r0, [r3, #4]	@ unaligned
 2235 02d2 FFF7FEFF 		bl	lwip_ntohl
 2236              	.LVL265:
 2237 02d6 2A89     		ldrh	r2, [r5, #8]
 2238 02d8 A16C     		ldr	r1, [r4, #72]
 2239 02da 531A     		subs	r3, r2, r1
 2240              		.loc 1 929 0
 2241 02dc 039A     		ldr	r2, [sp, #12]
 2242              		.loc 1 930 0
 2243 02de 1818     		adds	r0, r3, r0
 2244              		.loc 1 929 0
 2245 02e0 8242     		cmp	r2, r0
 2246 02e2 BFF4ABAE 		bcs	.L244
 2247              	.L246:
 2248              		.loc 1 931 0
 2249 02e6 2046     		mov	r0, r4
 2250              		.loc 1 1040 0
 2251 02e8 05B0     		add	sp, sp, #20
 2252 02ea BDE8F04F 		pop	{r4, r5, r6, r7, r8, r9, sl, fp, lr}
 2253              		.loc 1 931 0
 2254 02ee FFF7FEBF 		b	tcp_send_empty_ack
 2255              	.LVL266:
 2256              	.L309:
 2257 02f2 E26E     		ldr	r2, [r4, #108]
 2258 02f4 A37F     		ldrb	r3, [r4, #30]	@ zero_extendqisi2
 2259 02f6 DEE7     		b	.L249
 2260              	.LVL267:
 2261              	.L310:
 2262              		.loc 1 907 0 discriminator 1
 2263 02f8 FFF7FEFF 		bl	port_halt
 2264              	.LVL268:
 2265 02fc 88E6     		b	.L242
 2266              		.cfi_endproc
 2267              	.LFE15:
 2268              		.size	tcp_output, .-tcp_output
 2269 02fe 00BF     		.section	.text.tcp_rst,"ax",%progbits
 2270              		.align	2
 2271              		.p2align 4,,15
ARM GAS  C:\Users\jenny\AppData\Local\Temp\ccUygzzS.s 			page 41


 2272              		.global	tcp_rst
 2273              		.thumb
 2274              		.thumb_func
 2275              		.type	tcp_rst, %function
 2276              	tcp_rst:
 2277              	.LFB17:
 2278              		.loc 1 1198 0
 2279              		.cfi_startproc
 2280              		@ args = 8, pretend = 0, frame = 0
 2281              		@ frame_needed = 0, uses_anonymous_args = 0
 2282              	.LVL269:
 2283 0000 2DE9F047 		push	{r4, r5, r6, r7, r8, r9, sl, lr}
 2284              	.LCFI12:
 2285              		.cfi_def_cfa_offset 32
 2286              		.cfi_offset 4, -32
 2287              		.cfi_offset 5, -28
 2288              		.cfi_offset 6, -24
 2289              		.cfi_offset 7, -20
 2290              		.cfi_offset 8, -16
 2291              		.cfi_offset 9, -12
 2292              		.cfi_offset 10, -8
 2293              		.cfi_offset 14, -4
 2294 0004 82B0     		sub	sp, sp, #8
 2295              	.LCFI13:
 2296              		.cfi_def_cfa_offset 40
 2297              		.loc 1 1198 0
 2298 0006 8146     		mov	r9, r0
 2299 0008 0E46     		mov	r6, r1
 2300 000a 9046     		mov	r8, r2
 2301              		.loc 1 1201 0
 2302 000c 0120     		movs	r0, #1
 2303              	.LVL270:
 2304 000e 1421     		movs	r1, #20
 2305              	.LVL271:
 2306 0010 0022     		movs	r2, #0
 2307              	.LVL272:
 2308              		.loc 1 1198 0
 2309 0012 1F46     		mov	r7, r3
 2310 0014 BDF82840 		ldrh	r4, [sp, #40]
 2311 0018 BDF82CA0 		ldrh	sl, [sp, #44]
 2312              		.loc 1 1201 0
 2313 001c FFF7FEFF 		bl	pbuf_alloc
 2314              	.LVL273:
 2315              		.loc 1 1202 0
 2316 0020 0546     		mov	r5, r0
 2317 0022 0028     		cmp	r0, #0
 2318 0024 43D0     		beq	.L320
 2319              		.loc 1 1206 0
 2320 0026 4389     		ldrh	r3, [r0, #10]
 2321 0028 132B     		cmp	r3, #19
 2322 002a 3DD9     		bls	.L323
 2323              	.LVL274:
 2324              	.L322:
 2325              		.loc 1 1210 0
 2326 002c 2046     		mov	r0, r4
 2327              		.loc 1 1209 0
 2328 002e 6C68     		ldr	r4, [r5, #4]
ARM GAS  C:\Users\jenny\AppData\Local\Temp\ccUygzzS.s 			page 42


 2329              	.LVL275:
 2330              		.loc 1 1210 0
 2331 0030 FFF7FEFF 		bl	lwip_htons
 2332              	.LVL276:
 2333 0034 2080     		strh	r0, [r4, #0]	@ unaligned
 2334              		.loc 1 1211 0
 2335 0036 5046     		mov	r0, sl
 2336 0038 FFF7FEFF 		bl	lwip_htons
 2337              	.LVL277:
 2338 003c 6080     		strh	r0, [r4, #2]	@ unaligned
 2339              		.loc 1 1212 0
 2340 003e 4846     		mov	r0, r9
 2341 0040 FFF7FEFF 		bl	lwip_htonl
 2342              	.LVL278:
 2343 0044 6060     		str	r0, [r4, #4]	@ unaligned
 2344              		.loc 1 1213 0
 2345 0046 3046     		mov	r0, r6
 2346 0048 FFF7FEFF 		bl	lwip_htonl
 2347              	.LVL279:
 2348 004c A060     		str	r0, [r4, #8]	@ unaligned
 2349              		.loc 1 1214 0
 2350 004e 45F21400 		movw	r0, #20500
 2351 0052 FFF7FEFF 		bl	lwip_htons
 2352              	.LVL280:
 2353              		.loc 1 1215 0
 2354 0056 0026     		movs	r6, #0
 2355              	.LVL281:
 2356              		.loc 1 1214 0
 2357 0058 A081     		strh	r0, [r4, #12]	@ unaligned
 2358              		.loc 1 1215 0
 2359 005a 6021     		movs	r1, #96
 2360 005c 0820     		movs	r0, #8
 2361 005e E173     		strb	r1, [r4, #15]
 2362              		.loc 1 1216 0
 2363 0060 2674     		strb	r6, [r4, #16]
 2364 0062 6674     		strb	r6, [r4, #17]
 2365              		.loc 1 1217 0
 2366 0064 A674     		strb	r6, [r4, #18]
 2367 0066 E674     		strb	r6, [r4, #19]
 2368              		.loc 1 1215 0
 2369 0068 A073     		strb	r0, [r4, #14]
 2370              		.loc 1 1220 0
 2371 006a 2889     		ldrh	r0, [r5, #8]
 2372 006c 4146     		mov	r1, r8
 2373 006e 3A46     		mov	r2, r7
 2374 0070 0623     		movs	r3, #6
 2375 0072 0090     		str	r0, [sp, #0]
 2376 0074 2846     		mov	r0, r5
 2377 0076 FFF7FEFF 		bl	inet_chksum_pseudo
 2378              	.LVL282:
 2379              		.loc 1 1223 0
 2380 007a DFF838E0 		ldr	lr, .L324
 2381              		.loc 1 1220 0
 2382 007e 2082     		strh	r0, [r4, #16]	@ unaligned
 2383              		.loc 1 1223 0
 2384 0080 BEF89020 		ldrh	r2, [lr, #144]
 2385              		.loc 1 1226 0
ARM GAS  C:\Users\jenny\AppData\Local\Temp\ccUygzzS.s 			page 43


 2386 0084 0096     		str	r6, [sp, #0]
 2387              		.loc 1 1223 0
 2388 0086 541C     		adds	r4, r2, #1
 2389              	.LVL283:
 2390              		.loc 1 1226 0
 2391 0088 0623     		movs	r3, #6
 2392 008a 0193     		str	r3, [sp, #4]
 2393 008c 2846     		mov	r0, r5
 2394 008e 4146     		mov	r1, r8
 2395 0090 3A46     		mov	r2, r7
 2396 0092 FF23     		movs	r3, #255
 2397              		.loc 1 1223 0
 2398 0094 AEF89040 		strh	r4, [lr, #144]	@ movhi
 2399              		.loc 1 1226 0
 2400 0098 FFF7FEFF 		bl	ip_output
 2401              	.LVL284:
 2402              		.loc 1 1227 0
 2403 009c 2846     		mov	r0, r5
 2404              		.loc 1 1229 0
 2405 009e 02B0     		add	sp, sp, #8
 2406 00a0 BDE8F047 		pop	{r4, r5, r6, r7, r8, r9, sl, lr}
 2407              		.loc 1 1227 0
 2408 00a4 FFF7FEBF 		b	pbuf_free
 2409              	.LVL285:
 2410              	.L323:
 2411              		.loc 1 1206 0 discriminator 1
 2412 00a8 FFF7FEFF 		bl	port_halt
 2413              	.LVL286:
 2414 00ac BEE7     		b	.L322
 2415              	.LVL287:
 2416              	.L320:
 2417              		.loc 1 1229 0
 2418 00ae 02B0     		add	sp, sp, #8
 2419 00b0 BDE8F087 		pop	{r4, r5, r6, r7, r8, r9, sl, pc}
 2420              	.L325:
 2421              		.align	2
 2422              	.L324:
 2423 00b4 00000000 		.word	lwip_stats
 2424              		.cfi_endproc
 2425              	.LFE17:
 2426              		.size	tcp_rst, .-tcp_rst
 2427 00b8 AFF30080 		.section	.text.tcp_rexmit_rto,"ax",%progbits
 2427      AFF30080 
 2428              		.align	2
 2429              		.p2align 4,,15
 2430              		.global	tcp_rexmit_rto
 2431              		.thumb
 2432              		.thumb_func
 2433              		.type	tcp_rexmit_rto, %function
 2434              	tcp_rexmit_rto:
 2435              	.LFB18:
 2436              		.loc 1 1240 0
 2437              		.cfi_startproc
 2438              		@ args = 0, pretend = 0, frame = 0
 2439              		@ frame_needed = 0, uses_anonymous_args = 0
 2440              		@ link register save eliminated.
 2441              	.LVL288:
ARM GAS  C:\Users\jenny\AppData\Local\Temp\ccUygzzS.s 			page 44


 2442              		.loc 1 1243 0
 2443 0000 016F     		ldr	r1, [r0, #112]
 2444              		.loc 1 1240 0
 2445 0002 10B4     		push	{r4}
 2446              	.LCFI14:
 2447              		.cfi_def_cfa_offset 4
 2448              		.cfi_offset 4, -4
 2449              		.loc 1 1243 0
 2450 0004 91B1     		cbz	r1, .L326
 2451              		.loc 1 1243 0 is_stmt 0 discriminator 1
 2452 0006 0A46     		mov	r2, r1
 2453 0008 00E0     		b	.L328
 2454              	.LVL289:
 2455              	.L329:
 2456              		.loc 1 1248 0 is_stmt 1
 2457 000a 1A46     		mov	r2, r3
 2458              	.LVL290:
 2459              	.L328:
 2460              		.loc 1 1248 0 is_stmt 0 discriminator 1
 2461 000c 1368     		ldr	r3, [r2, #0]
 2462 000e 002B     		cmp	r3, #0
 2463 0010 FBD1     		bne	.L329
 2464              		.loc 1 1250 0 is_stmt 1
 2465 0012 C46E     		ldr	r4, [r0, #108]
 2466 0014 1460     		str	r4, [r2, #0]
 2467              		.loc 1 1258 0
 2468 0016 90F84620 		ldrb	r2, [r0, #70]	@ zero_extendqisi2
 2469              	.LVL291:
 2470              		.loc 1 1252 0
 2471 001a C166     		str	r1, [r0, #108]
 2472              		.loc 1 1258 0
 2473 001c 511C     		adds	r1, r2, #1
 2474              		.loc 1 1254 0
 2475 001e 0367     		str	r3, [r0, #112]
 2476              		.loc 1 1258 0
 2477 0020 80F84610 		strb	r1, [r0, #70]
 2478              		.loc 1 1261 0
 2479 0024 8363     		str	r3, [r0, #56]
 2480              		.loc 1 1265 0
 2481 0026 10BC     		pop	{r4}
 2482              		.loc 1 1264 0
 2483 0028 FFF7FEBF 		b	tcp_output
 2484              	.LVL292:
 2485              	.L326:
 2486              		.loc 1 1265 0
 2487 002c 10BC     		pop	{r4}
 2488 002e 7047     		bx	lr
 2489              		.cfi_endproc
 2490              	.LFE18:
 2491              		.size	tcp_rexmit_rto, .-tcp_rexmit_rto
 2492              		.section	.text.tcp_rexmit,"ax",%progbits
 2493              		.align	2
 2494              		.p2align 4,,15
 2495              		.global	tcp_rexmit
 2496              		.thumb
 2497              		.thumb_func
 2498              		.type	tcp_rexmit, %function
ARM GAS  C:\Users\jenny\AppData\Local\Temp\ccUygzzS.s 			page 45


 2499              	tcp_rexmit:
 2500              	.LFB19:
 2501              		.loc 1 1276 0
 2502              		.cfi_startproc
 2503              		@ args = 0, pretend = 0, frame = 0
 2504              		@ frame_needed = 0, uses_anonymous_args = 0
 2505              	.LVL293:
 2506 0000 F8B5     		push	{r3, r4, r5, r6, r7, lr}
 2507              	.LCFI15:
 2508              		.cfi_def_cfa_offset 24
 2509              		.cfi_offset 3, -24
 2510              		.cfi_offset 4, -20
 2511              		.cfi_offset 5, -16
 2512              		.cfi_offset 6, -12
 2513              		.cfi_offset 7, -8
 2514              		.cfi_offset 14, -4
 2515              		.loc 1 1280 0
 2516 0002 066F     		ldr	r6, [r0, #112]
 2517              		.loc 1 1276 0
 2518 0004 0746     		mov	r7, r0
 2519              		.loc 1 1280 0
 2520 0006 0EB3     		cbz	r6, .L330
 2521              	.LVL294:
 2522              		.loc 1 1287 0
 2523 0008 3268     		ldr	r2, [r6, #0]
 2524              		.loc 1 1290 0
 2525 000a C36E     		ldr	r3, [r0, #108]
 2526              		.loc 1 1287 0
 2527 000c 0267     		str	r2, [r0, #112]
 2528              		.loc 1 1289 0
 2529 000e 00F16C04 		add	r4, r0, #108
 2530              	.LVL295:
 2531              		.loc 1 1290 0
 2532 0012 1BB9     		cbnz	r3, .L339
 2533 0014 0FE0     		b	.L333
 2534              	.LVL296:
 2535              	.L335:
 2536              		.loc 1 1292 0
 2537 0016 2468     		ldr	r4, [r4, #0]
 2538              	.LVL297:
 2539              		.loc 1 1290 0
 2540 0018 2368     		ldr	r3, [r4, #0]
 2541 001a 63B1     		cbz	r3, .L333
 2542              	.L339:
 2543              		.loc 1 1291 0 discriminator 2
 2544 001c DB68     		ldr	r3, [r3, #12]
 2545 001e 5868     		ldr	r0, [r3, #4]	@ unaligned
 2546 0020 FFF7FEFF 		bl	lwip_ntohl
 2547              	.LVL298:
 2548 0024 0546     		mov	r5, r0
 2549 0026 F068     		ldr	r0, [r6, #12]
 2550 0028 4068     		ldr	r0, [r0, #4]	@ unaligned
 2551 002a FFF7FEFF 		bl	lwip_ntohl
 2552              	.LVL299:
 2553 002e 291A     		subs	r1, r5, r0
 2554              		.loc 1 1290 0 discriminator 2
 2555 0030 0029     		cmp	r1, #0
ARM GAS  C:\Users\jenny\AppData\Local\Temp\ccUygzzS.s 			page 46


 2556 0032 F0DB     		blt	.L335
 2557 0034 2368     		ldr	r3, [r4, #0]
 2558              	.L333:
 2559              		.loc 1 1294 0
 2560 0036 3360     		str	r3, [r6, #0]
 2561              		.loc 1 1295 0
 2562 0038 2660     		str	r6, [r4, #0]
 2563              		.loc 1 1297 0
 2564 003a 3268     		ldr	r2, [r6, #0]
 2565 003c 3AB1     		cbz	r2, .L342
 2566              	.L336:
 2567              		.loc 1 1303 0
 2568 003e 97F84600 		ldrb	r0, [r7, #70]	@ zero_extendqisi2
 2569              		.loc 1 1306 0
 2570 0042 0023     		movs	r3, #0
 2571              		.loc 1 1303 0
 2572 0044 411C     		adds	r1, r0, #1
 2573 0046 87F84610 		strb	r1, [r7, #70]
 2574              		.loc 1 1306 0
 2575 004a BB63     		str	r3, [r7, #56]
 2576              	.LVL300:
 2577              	.L330:
 2578 004c F8BD     		pop	{r3, r4, r5, r6, r7, pc}
 2579              	.LVL301:
 2580              	.L342:
 2581              		.loc 1 1299 0
 2582 004e A7F86A20 		strh	r2, [r7, #106]	@ movhi
 2583 0052 F4E7     		b	.L336
 2584              		.cfi_endproc
 2585              	.LFE19:
 2586              		.size	tcp_rexmit, .-tcp_rexmit
 2587 0054 AFF30080 		.section	.text.tcp_rexmit_fast,"ax",%progbits
 2587      AFF30080 
 2587      AFF30080 
 2588              		.align	2
 2589              		.p2align 4,,15
 2590              		.global	tcp_rexmit_fast
 2591              		.thumb
 2592              		.thumb_func
 2593              		.type	tcp_rexmit_fast, %function
 2594              	tcp_rexmit_fast:
 2595              	.LFB20:
 2596              		.loc 1 1322 0
 2597              		.cfi_startproc
 2598              		@ args = 0, pretend = 0, frame = 0
 2599              		@ frame_needed = 0, uses_anonymous_args = 0
 2600              	.LVL302:
 2601              		.loc 1 1323 0
 2602 0000 036F     		ldr	r3, [r0, #112]
 2603              		.loc 1 1322 0
 2604 0002 10B5     		push	{r4, lr}
 2605              	.LCFI16:
 2606              		.cfi_def_cfa_offset 8
 2607              		.cfi_offset 4, -8
 2608              		.cfi_offset 14, -4
 2609              		.loc 1 1322 0
 2610 0004 0446     		mov	r4, r0
ARM GAS  C:\Users\jenny\AppData\Local\Temp\ccUygzzS.s 			page 47


 2611              		.loc 1 1323 0
 2612 0006 23B1     		cbz	r3, .L343
 2613              		.loc 1 1323 0 is_stmt 0 discriminator 1
 2614 0008 817F     		ldrb	r1, [r0, #30]	@ zero_extendqisi2
 2615 000a 01F00402 		and	r2, r1, #4
 2616 000e D3B2     		uxtb	r3, r2
 2617 0010 03B1     		cbz	r3, .L351
 2618              	.L343:
 2619 0012 10BD     		pop	{r4, pc}
 2620              	.L351:
 2621              		.loc 1 1330 0 is_stmt 1
 2622 0014 FFF7FEFF 		bl	tcp_rexmit
 2623              	.LVL303:
 2624              		.loc 1 1334 0
 2625 0018 B4F84C00 		ldrh	r0, [r4, #76]
 2626 001c B4F86010 		ldrh	r1, [r4, #96]
 2627 0020 8842     		cmp	r0, r1
 2628 0022 13D8     		bhi	.L352
 2629              		.loc 1 1337 0
 2630 0024 4308     		lsrs	r3, r0, #1
 2631 0026 A4F84E30 		strh	r3, [r4, #78]	@ movhi
 2632              	.L346:
 2633              		.loc 1 1341 0
 2634 002a E18E     		ldrh	r1, [r4, #54]
 2635              		.loc 1 1350 0
 2636 002c A07F     		ldrb	r0, [r4, #30]	@ zero_extendqisi2
 2637              		.loc 1 1341 0
 2638 002e 4A00     		lsls	r2, r1, #1
 2639 0030 9342     		cmp	r3, r2
 2640              		.loc 1 1346 0
 2641 0032 B8BF     		it	lt
 2642 0034 93B2     		uxthlt	r3, r2
 2643              		.loc 1 1349 0
 2644 0036 1144     		add	r1, r2, r1
 2645              		.loc 1 1346 0
 2646 0038 B8BF     		it	lt
 2647 003a A4F84E30 		strhlt	r3, [r4, #78]	@ movhi
 2648              		.loc 1 1350 0
 2649 003e 40F00402 		orr	r2, r0, #4
 2650              		.loc 1 1349 0
 2651 0042 5B18     		adds	r3, r3, r1
 2652 0044 A4F84C30 		strh	r3, [r4, #76]	@ movhi
 2653              		.loc 1 1350 0
 2654 0048 A277     		strb	r2, [r4, #30]
 2655 004a 10BD     		pop	{r4, pc}
 2656              	.L352:
 2657              		.loc 1 1335 0
 2658 004c 4B08     		lsrs	r3, r1, #1
 2659 004e A4F84E30 		strh	r3, [r4, #78]	@ movhi
 2660 0052 EAE7     		b	.L346
 2661              		.cfi_endproc
 2662              	.LFE20:
 2663              		.size	tcp_rexmit_fast, .-tcp_rexmit_fast
 2664 0054 AFF30080 		.section	.text.tcp_keepalive,"ax",%progbits
 2664      AFF30080 
 2664      AFF30080 
 2665              		.align	2
ARM GAS  C:\Users\jenny\AppData\Local\Temp\ccUygzzS.s 			page 48


 2666              		.p2align 4,,15
 2667              		.global	tcp_keepalive
 2668              		.thumb
 2669              		.thumb_func
 2670              		.type	tcp_keepalive, %function
 2671              	tcp_keepalive:
 2672              	.LFB21:
 2673              		.loc 1 1365 0
 2674              		.cfi_startproc
 2675              		@ args = 0, pretend = 0, frame = 0
 2676              		@ frame_needed = 0, uses_anonymous_args = 0
 2677              	.LVL304:
 2678 0000 F0B5     		push	{r4, r5, r6, r7, lr}
 2679              	.LCFI17:
 2680              		.cfi_def_cfa_offset 20
 2681              		.cfi_offset 4, -20
 2682              		.cfi_offset 5, -16
 2683              		.cfi_offset 6, -12
 2684              		.cfi_offset 7, -8
 2685              		.cfi_offset 14, -4
 2686 0002 0446     		mov	r4, r0
 2687              		.loc 1 1376 0
 2688 0004 006D     		ldr	r0, [r0, #80]
 2689              	.LVL305:
 2690              		.loc 1 1365 0
 2691 0006 83B0     		sub	sp, sp, #12
 2692              	.LCFI18:
 2693              		.cfi_def_cfa_offset 32
 2694              		.loc 1 1376 0
 2695 0008 0138     		subs	r0, r0, #1
 2696 000a FFF7FEFF 		bl	lwip_htonl
 2697              	.LVL306:
 2698 000e 0021     		movs	r1, #0
 2699 0010 0246     		mov	r2, r0
 2700 0012 2046     		mov	r0, r4
 2701 0014 FFF7FEFF 		bl	tcp_output_alloc_header.constprop.0
 2702              	.LVL307:
 2703              		.loc 1 1377 0
 2704 0018 0546     		mov	r5, r0
 2705 001a 00B3     		cbz	r0, .L353
 2706              		.loc 1 1385 0
 2707 001c 0389     		ldrh	r3, [r0, #8]
 2708              		.loc 1 1382 0
 2709 001e 4768     		ldr	r7, [r0, #4]
 2710              	.LVL308:
 2711              		.loc 1 1385 0
 2712 0020 0093     		str	r3, [sp, #0]
 2713 0022 261D     		adds	r6, r4, #4
 2714 0024 2146     		mov	r1, r4
 2715 0026 3246     		mov	r2, r6
 2716 0028 0623     		movs	r3, #6
 2717 002a FFF7FEFF 		bl	inet_chksum_pseudo
 2718              	.LVL309:
 2719              		.loc 1 1388 0
 2720 002e 0D49     		ldr	r1, .L355
 2721              		.loc 1 1385 0
 2722 0030 3882     		strh	r0, [r7, #16]	@ unaligned
ARM GAS  C:\Users\jenny\AppData\Local\Temp\ccUygzzS.s 			page 49


 2723              		.loc 1 1388 0
 2724 0032 B1F89020 		ldrh	r2, [r1, #144]
 2725 0036 501C     		adds	r0, r2, #1
 2726 0038 A1F89000 		strh	r0, [r1, #144]	@ movhi
 2727              		.loc 1 1395 0
 2728 003c 0022     		movs	r2, #0
 2729 003e 4FF0060E 		mov	lr, #6
 2730 0042 A37A     		ldrb	r3, [r4, #10]	@ zero_extendqisi2
 2731 0044 2846     		mov	r0, r5
 2732 0046 8DE80440 		stmia	sp, {r2, lr}
 2733 004a 2146     		mov	r1, r4
 2734 004c 3246     		mov	r2, r6
 2735 004e FFF7FEFF 		bl	ip_output
 2736              	.LVL310:
 2737              		.loc 1 1398 0
 2738 0052 2846     		mov	r0, r5
 2739              		.loc 1 1402 0
 2740 0054 03B0     		add	sp, sp, #12
 2741 0056 BDE8F040 		pop	{r4, r5, r6, r7, lr}
 2742              		.loc 1 1398 0
 2743 005a FFF7FEBF 		b	pbuf_free
 2744              	.LVL311:
 2745              	.L353:
 2746              		.loc 1 1402 0
 2747 005e 03B0     		add	sp, sp, #12
 2748 0060 F0BD     		pop	{r4, r5, r6, r7, pc}
 2749              	.L356:
 2750 0062 00BF     		.align	2
 2751              	.L355:
 2752 0064 00000000 		.word	lwip_stats
 2753              		.cfi_endproc
 2754              	.LFE21:
 2755              		.size	tcp_keepalive, .-tcp_keepalive
 2756 0068 AFF30080 		.section	.text.tcp_zero_window_probe,"ax",%progbits
 2756      AFF30080 
 2757              		.align	2
 2758              		.p2align 4,,15
 2759              		.global	tcp_zero_window_probe
 2760              		.thumb
 2761              		.thumb_func
 2762              		.type	tcp_zero_window_probe, %function
 2763              	tcp_zero_window_probe:
 2764              	.LFB22:
 2765              		.loc 1 1415 0
 2766              		.cfi_startproc
 2767              		@ args = 0, pretend = 0, frame = 0
 2768              		@ frame_needed = 0, uses_anonymous_args = 0
 2769              	.LVL312:
 2770 0000 2DE9F041 		push	{r4, r5, r6, r7, r8, lr}
 2771              	.LCFI19:
 2772              		.cfi_def_cfa_offset 24
 2773              		.cfi_offset 4, -24
 2774              		.cfi_offset 5, -20
 2775              		.cfi_offset 6, -16
 2776              		.cfi_offset 7, -12
 2777              		.cfi_offset 8, -8
 2778              		.cfi_offset 14, -4
ARM GAS  C:\Users\jenny\AppData\Local\Temp\ccUygzzS.s 			page 50


 2779              		.loc 1 1433 0
 2780 0004 066F     		ldr	r6, [r0, #112]
 2781              	.LVL313:
 2782              		.loc 1 1415 0
 2783 0006 82B0     		sub	sp, sp, #8
 2784              	.LCFI20:
 2785              		.cfi_def_cfa_offset 32
 2786              		.loc 1 1415 0
 2787 0008 0446     		mov	r4, r0
 2788              		.loc 1 1435 0
 2789 000a 002E     		cmp	r6, #0
 2790 000c 54D0     		beq	.L369
 2791              	.L358:
 2792              		.loc 1 1442 0
 2793 000e F368     		ldr	r3, [r6, #12]
 2794 0010 9889     		ldrh	r0, [r3, #12]	@ unaligned
 2795              	.LVL314:
 2796 0012 FFF7FEFF 		bl	lwip_ntohs
 2797              	.LVL315:
 2798 0016 10F00100 		ands	r0, r0, #1
 2799 001a 37D1     		bne	.L370
 2800 001c 0121     		movs	r1, #1
 2801 001e 8046     		mov	r8, r0
 2802              	.L360:
 2803              	.LVL316:
 2804              		.loc 1 1446 0 discriminator 4
 2805 0020 F268     		ldr	r2, [r6, #12]
 2806 0022 2046     		mov	r0, r4
 2807 0024 5268     		ldr	r2, [r2, #4]	@ unaligned
 2808 0026 FFF7FEFF 		bl	tcp_output_alloc_header.constprop.0
 2809              	.LVL317:
 2810              		.loc 1 1447 0 discriminator 4
 2811 002a 0546     		mov	r5, r0
 2812 002c 0028     		cmp	r0, #0
 2813 002e 46D0     		beq	.L357
 2814              		.loc 1 1451 0
 2815 0030 4768     		ldr	r7, [r0, #4]
 2816              	.LVL318:
 2817              		.loc 1 1453 0
 2818 0032 B8F1000F 		cmp	r8, #0
 2819 0036 34D0     		beq	.L362
 2820              		.loc 1 1455 0
 2821 0038 B989     		ldrh	r1, [r7, #12]	@ unaligned
 2822 003a 4CF2FF06 		movw	r6, #49407
 2823              	.LVL319:
 2824 003e 1120     		movs	r0, #17
 2825              	.LVL320:
 2826 0040 0E40     		ands	r6, r6, r1
 2827 0042 FFF7FEFF 		bl	lwip_htons
 2828              	.LVL321:
 2829 0046 3043     		orrs	r0, r0, r6
 2830 0048 B881     		strh	r0, [r7, #12]	@ unaligned
 2831              	.L363:
 2832              		.loc 1 1466 0
 2833 004a 2889     		ldrh	r0, [r5, #8]
 2834 004c 261D     		adds	r6, r4, #4
 2835 004e 2146     		mov	r1, r4
ARM GAS  C:\Users\jenny\AppData\Local\Temp\ccUygzzS.s 			page 51


 2836 0050 3246     		mov	r2, r6
 2837 0052 0623     		movs	r3, #6
 2838 0054 0090     		str	r0, [sp, #0]
 2839 0056 2846     		mov	r0, r5
 2840 0058 FFF7FEFF 		bl	inet_chksum_pseudo
 2841              	.LVL322:
 2842              		.loc 1 1469 0
 2843 005c 194B     		ldr	r3, .L371
 2844              		.loc 1 1466 0
 2845 005e 3882     		strh	r0, [r7, #16]	@ unaligned
 2846              		.loc 1 1469 0
 2847 0060 B3F89020 		ldrh	r2, [r3, #144]
 2848 0064 511C     		adds	r1, r2, #1
 2849 0066 A3F89010 		strh	r1, [r3, #144]	@ movhi
 2850              		.loc 1 1476 0
 2851 006a 0022     		movs	r2, #0
 2852 006c 4FF0060C 		mov	ip, #6
 2853 0070 A37A     		ldrb	r3, [r4, #10]	@ zero_extendqisi2
 2854 0072 2846     		mov	r0, r5
 2855 0074 8DE80410 		stmia	sp, {r2, ip}
 2856 0078 2146     		mov	r1, r4
 2857 007a 3246     		mov	r2, r6
 2858 007c FFF7FEFF 		bl	ip_output
 2859              	.LVL323:
 2860              		.loc 1 1479 0
 2861 0080 2846     		mov	r0, r5
 2862              		.loc 1 1484 0
 2863 0082 02B0     		add	sp, sp, #8
 2864 0084 BDE8F041 		pop	{r4, r5, r6, r7, r8, lr}
 2865              		.loc 1 1479 0
 2866 0088 FFF7FEBF 		b	pbuf_free
 2867              	.LVL324:
 2868              	.L370:
 2869              		.loc 1 1442 0 discriminator 1
 2870 008c 3189     		ldrh	r1, [r6, #8]
 2871 008e 0029     		cmp	r1, #0
 2872 0090 0CBF     		ite	eq
 2873 0092 0021     		moveq	r1, #0
 2874 0094 0121     		movne	r1, #1
 2875 0096 14BF     		ite	ne
 2876 0098 4FF00008 		movne	r8, #0
 2877 009c 4FF00108 		moveq	r8, #1
 2878 00a0 BEE7     		b	.L360
 2879              	.LVL325:
 2880              	.L362:
 2881              	.LBB56:
 2882              		.loc 1 1462 0
 2883 00a2 7068     		ldr	r0, [r6, #4]
 2884              	.LVL326:
 2885 00a4 3689     		ldrh	r6, [r6, #8]
 2886              	.LVL327:
 2887 00a6 0389     		ldrh	r3, [r0, #8]
 2888 00a8 9E1B     		subs	r6, r3, r6
 2889 00aa 07F11401 		add	r1, r7, #20
 2890              	.LVL328:
 2891 00ae 0122     		movs	r2, #1
 2892 00b0 B3B2     		uxth	r3, r6
ARM GAS  C:\Users\jenny\AppData\Local\Temp\ccUygzzS.s 			page 52


 2893 00b2 FFF7FEFF 		bl	pbuf_copy_partial
 2894              	.LVL329:
 2895 00b6 C8E7     		b	.L363
 2896              	.LVL330:
 2897              	.L369:
 2898              	.LBE56:
 2899              		.loc 1 1436 0
 2900 00b8 C66E     		ldr	r6, [r0, #108]
 2901              	.LVL331:
 2902              		.loc 1 1438 0
 2903 00ba 002E     		cmp	r6, #0
 2904 00bc A7D1     		bne	.L358
 2905              	.LVL332:
 2906              	.L357:
 2907              		.loc 1 1484 0
 2908 00be 02B0     		add	sp, sp, #8
 2909 00c0 BDE8F081 		pop	{r4, r5, r6, r7, r8, pc}
 2910              	.L372:
 2911              		.align	2
 2912              	.L371:
 2913 00c4 00000000 		.word	lwip_stats
 2914              		.cfi_endproc
 2915              	.LFE22:
 2916              		.size	tcp_zero_window_probe, .-tcp_zero_window_probe
 2917 00c8 AFF30080 		.text
 2917      AFF30080 
 2918              	.Letext0:
 2919              		.file 2 "c:\\fbin\\yagarto\\bin\\../lib/gcc/arm-none-eabi/4.7.4/../../../../arm-none-eabi/include/
 2920              		.file 3 "../../os/various/lwip_bindings/arch/cc.h"
 2921              		.file 4 "../../ext/lwip/src/include/lwip/mem.h"
 2922              		.file 5 "../../ext/lwip/src/include/lwip/err.h"
 2923              		.file 6 "../../ext/lwip/src/include/lwip/pbuf.h"
 2924              		.file 7 "../../ext/lwip/src/include/ipv4/lwip/ip_addr.h"
 2925              		.file 8 "../../ext/lwip/src/include/lwip/netif.h"
 2926              		.file 9 "../../ext/lwip/src/include/lwip/tcp.h"
 2927              		.file 10 "../../ext/lwip/src/include/lwip/tcp_impl.h"
 2928              		.file 11 "../../ext/lwip/src/include/lwip/memp.h"
 2929              		.file 12 "../../ext/lwip/src/include/lwip/stats.h"
 2930              		.file 13 "../../ext/lwip/src/include/lwip/def.h"
 2931              		.file 14 "../../ext/lwip/src/include/ipv4/lwip/inet_chksum.h"
 2932              		.file 15 "../../ext/lwip/src/include/ipv4/lwip/ip.h"
 2933              		.file 16 "../../os/ports/GCC/ARMCMx/chcore_v7m.h"