ARM GAS  C:\Users\jenny\AppData\Local\Temp\ccsinKfR.s 			page 1


   1              		.syntax unified
   2              		.cpu cortex-m4
   3              		.eabi_attribute 27, 3
   4              		.fpu fpv4-sp-d16
   5              		.eabi_attribute 20, 1
   6              		.eabi_attribute 21, 1
   7              		.eabi_attribute 23, 3
   8              		.eabi_attribute 24, 1
   9              		.eabi_attribute 25, 1
  10              		.eabi_attribute 26, 1
  11              		.eabi_attribute 30, 2
  12              		.eabi_attribute 34, 1
  13              		.eabi_attribute 18, 4
  14              		.thumb
  15              		.file	"tcp_in.c"
  16              		.text
  17              	.Ltext0:
  18              		.cfi_sections	.debug_frame
  19              		.section	.text.tcp_parseopt,"ax",%progbits
  20              		.align	2
  21              		.p2align 4,,15
  22              		.thumb
  23              		.thumb_func
  24              		.type	tcp_parseopt, %function
  25              	tcp_parseopt:
  26              	.LFB13:
  27              		.file 1 "../../ext/lwip/src/core/tcp_in.c"
  28              		.loc 1 1543 0
  29              		.cfi_startproc
  30              		@ args = 0, pretend = 0, frame = 0
  31              		@ frame_needed = 0, uses_anonymous_args = 0
  32              	.LVL0:
  33 0000 70B5     		push	{r4, r5, r6, lr}
  34              	.LCFI0:
  35              		.cfi_def_cfa_offset 16
  36              		.cfi_offset 4, -16
  37              		.cfi_offset 5, -12
  38              		.cfi_offset 6, -8
  39              		.cfi_offset 14, -4
  40              		.loc 1 1551 0
  41 0002 214C     		ldr	r4, .L24
  42 0004 2568     		ldr	r5, [r4, #0]
  43              	.LVL1:
  44              		.loc 1 1543 0
  45 0006 0646     		mov	r6, r0
  46              		.loc 1 1554 0
  47 0008 A889     		ldrh	r0, [r5, #12]	@ unaligned
  48              	.LVL2:
  49 000a FFF7FEFF 		bl	lwip_ntohs
  50              	.LVL3:
  51 000e C0F30F30 		ubfx	r0, r0, #12, #16
  52 0012 0528     		cmp	r0, #5
  53 0014 00D8     		bhi	.L21
  54              	.LVL4:
  55              	.L1:
  56 0016 70BD     		pop	{r4, r5, r6, pc}
  57              	.LVL5:
ARM GAS  C:\Users\jenny\AppData\Local\Temp\ccsinKfR.s 			page 2


  58              	.L21:
  59              		.loc 1 1555 0
  60 0018 2368     		ldr	r3, [r4, #0]
  61 001a 9889     		ldrh	r0, [r3, #12]	@ unaligned
  62 001c FFF7FEFF 		bl	lwip_ntohs
  63              	.LVL6:
  64 0020 010B     		lsrs	r1, r0, #12
  65 0022 4C1F     		subs	r4, r1, #5
  66 0024 A200     		lsls	r2, r4, #2
  67 0026 94B2     		uxth	r4, r2
  68              	.LVL7:
  69              		.loc 1 1556 0
  70 0028 002C     		cmp	r4, #0
  71 002a F4D0     		beq	.L1
  72 002c 0023     		movs	r3, #0
  73              		.loc 1 1551 0
  74 002e 05F11401 		add	r1, r5, #20
  75              		.loc 1 1578 0
  76 0032 40F21720 		movw	r0, #535
  77              	.LVL8:
  78              		.loc 1 1558 0
  79 0036 CA5C     		ldrb	r2, [r1, r3]	@ zero_extendqisi2
  80              	.LVL9:
  81 0038 012A     		cmp	r2, #1
  82 003a 0DD0     		beq	.L6
  83              	.LVL10:
  84              	.L23:
  85 003c EBD3     		bcc	.L1
  86 003e 022A     		cmp	r2, #2
  87 0040 0DD0     		beq	.L22
  88              		.loc 1 1605 0
  89 0042 CA18     		adds	r2, r1, r3
  90 0044 5278     		ldrb	r2, [r2, #1]	@ zero_extendqisi2
  91 0046 002A     		cmp	r2, #0
  92 0048 E5D0     		beq	.L1
  93              		.loc 1 1613 0
  94 004a D318     		adds	r3, r2, r3
  95 004c 9BB2     		uxth	r3, r3
  96              	.LVL11:
  97              	.L8:
  98              		.loc 1 1556 0 discriminator 1
  99 004e 9C42     		cmp	r4, r3
 100 0050 E1D9     		bls	.L1
 101              	.LVL12:
 102              		.loc 1 1558 0
 103 0052 CA5C     		ldrb	r2, [r1, r3]	@ zero_extendqisi2
 104 0054 012A     		cmp	r2, #1
 105 0056 F1D1     		bne	.L23
 106              	.LVL13:
 107              	.L6:
 108              		.loc 1 1565 0
 109 0058 5A1C     		adds	r2, r3, #1
 110 005a 93B2     		uxth	r3, r2
 111              	.LVL14:
 112              		.loc 1 1567 0
 113 005c F7E7     		b	.L8
 114              	.LVL15:
ARM GAS  C:\Users\jenny\AppData\Local\Temp\ccsinKfR.s 			page 3


 115              	.L22:
 116              		.loc 1 1570 0
 117 005e CA18     		adds	r2, r1, r3
 118 0060 5578     		ldrb	r5, [r2, #1]	@ zero_extendqisi2
 119 0062 042D     		cmp	r5, #4
 120 0064 D7D1     		bne	.L1
 121              		.loc 1 1570 0 is_stmt 0 discriminator 1
 122 0066 DD1C     		adds	r5, r3, #3
 123 0068 A542     		cmp	r5, r4
 124 006a D4DA     		bge	.L1
 125              		.loc 1 1576 0 is_stmt 1
 126 006c 9578     		ldrb	r5, [r2, #2]	@ zero_extendqisi2
 127 006e D278     		ldrb	r2, [r2, #3]	@ zero_extendqisi2
 128 0070 42EA0522 		orr	r2, r2, r5, lsl #8
 129              	.LVL16:
 130              		.loc 1 1578 0
 131 0074 551E     		subs	r5, r2, #1
 132 0076 ADB2     		uxth	r5, r5
 133 0078 8542     		cmp	r5, r0
 134 007a 88BF     		it	hi
 135 007c 4FF40672 		movhi	r2, #536
 136              	.LVL17:
 137              		.loc 1 1580 0
 138 0080 0433     		adds	r3, r3, #4
 139              	.LVL18:
 140              		.loc 1 1578 0
 141 0082 F286     		strh	r2, [r6, #54]	@ movhi
 142              		.loc 1 1580 0
 143 0084 9BB2     		uxth	r3, r3
 144              	.LVL19:
 145              		.loc 1 1581 0
 146 0086 E2E7     		b	.L8
 147              	.L25:
 148              		.align	2
 149              	.L24:
 150 0088 00000000 		.word	.LANCHOR0
 151              		.cfi_endproc
 152              	.LFE13:
 153              		.size	tcp_parseopt, .-tcp_parseopt
 154 008c AFF30080 		.section	.text.tcp_oos_insert_segment,"ax",%progbits
 155              		.align	2
 156              		.p2align 4,,15
 157              		.thumb
 158              		.thumb_func
 159              		.type	tcp_oos_insert_segment, %function
 160              	tcp_oos_insert_segment:
 161              	.LFB11:
 162              		.loc 1 801 0
 163              		.cfi_startproc
 164              		@ args = 0, pretend = 0, frame = 0
 165              		@ frame_needed = 0, uses_anonymous_args = 0
 166              	.LVL20:
 167 0000 2DE9F041 		push	{r4, r5, r6, r7, r8, lr}
 168              	.LCFI1:
 169              		.cfi_def_cfa_offset 24
 170              		.cfi_offset 4, -24
 171              		.cfi_offset 5, -20
ARM GAS  C:\Users\jenny\AppData\Local\Temp\ccsinKfR.s 			page 4


 172              		.cfi_offset 6, -16
 173              		.cfi_offset 7, -12
 174              		.cfi_offset 8, -8
 175              		.cfi_offset 14, -4
 176              		.loc 1 804 0
 177 0004 C368     		ldr	r3, [r0, #12]
 178              		.loc 1 801 0
 179 0006 0746     		mov	r7, r0
 180              		.loc 1 804 0
 181 0008 9889     		ldrh	r0, [r3, #12]	@ unaligned
 182              	.LVL21:
 183              		.loc 1 801 0
 184 000a 0D46     		mov	r5, r1
 185              		.loc 1 804 0
 186 000c FFF7FEFF 		bl	lwip_ntohs
 187              	.LVL22:
 188 0010 C207     		lsls	r2, r0, #31
 189 0012 43D4     		bmi	.L27
 190              		.loc 1 812 0 discriminator 1
 191 0014 002D     		cmp	r5, #0
 192 0016 32D0     		beq	.L45
 193              		.loc 1 813 0
 194 0018 EB68     		ldr	r3, [r5, #12]
 195 001a DFF88880 		ldr	r8, .L47
 196 001e 5A68     		ldr	r2, [r3, #4]	@ unaligned
 197 0020 3E89     		ldrh	r6, [r7, #8]
 198 0022 D8F80010 		ldr	r1, [r8, #0]
 199 0026 2889     		ldrh	r0, [r5, #8]
 200 0028 B61A     		subs	r6, r6, r2
 201 002a 7618     		adds	r6, r6, r1
 202 002c 301A     		subs	r0, r6, r0
 203              		.loc 1 812 0
 204 002e 0028     		cmp	r0, #0
 205 0030 B8BF     		it	lt
 206 0032 2C46     		movlt	r4, r5
 207 0034 11DA     		bge	.L43
 208 0036 26E0     		b	.L31
 209              	.L32:
 210              	.LVL23:
 211              		.loc 1 820 0
 212 0038 2C68     		ldr	r4, [r5, #0]
 213              	.LVL24:
 214              		.loc 1 821 0
 215 003a 2846     		mov	r0, r5
 216 003c FFF7FEFF 		bl	tcp_seg_free
 217              	.LVL25:
 218              		.loc 1 812 0
 219 0040 ECB1     		cbz	r4, .L45
 220              	.L46:
 221              		.loc 1 813 0 discriminator 2
 222 0042 E368     		ldr	r3, [r4, #12]
 223 0044 3E89     		ldrh	r6, [r7, #8]
 224 0046 5A68     		ldr	r2, [r3, #4]	@ unaligned
 225 0048 D8F80010 		ldr	r1, [r8, #0]
 226 004c 2089     		ldrh	r0, [r4, #8]
 227 004e B61A     		subs	r6, r6, r2
 228 0050 7618     		adds	r6, r6, r1
ARM GAS  C:\Users\jenny\AppData\Local\Temp\ccsinKfR.s 			page 5


 229 0052 301A     		subs	r0, r6, r0
 230              		.loc 1 812 0 discriminator 2
 231 0054 0028     		cmp	r0, #0
 232 0056 16DB     		blt	.L31
 233              		.loc 1 812 0 is_stmt 0
 234 0058 2546     		mov	r5, r4
 235              	.LVL26:
 236              	.L43:
 237              		.loc 1 816 0 is_stmt 1
 238 005a 9889     		ldrh	r0, [r3, #12]	@ unaligned
 239 005c FFF7FEFF 		bl	lwip_ntohs
 240              	.LVL27:
 241 0060 C307     		lsls	r3, r0, #31
 242 0062 E9D5     		bpl	.L32
 243              		.loc 1 817 0
 244 0064 FC68     		ldr	r4, [r7, #12]
 245 0066 0120     		movs	r0, #1
 246 0068 A689     		ldrh	r6, [r4, #12]	@ unaligned
 247 006a FFF7FEFF 		bl	lwip_htons
 248              	.LVL28:
 249 006e 3043     		orrs	r0, r0, r6
 250 0070 A081     		strh	r0, [r4, #12]	@ unaligned
 251              	.LVL29:
 252              		.loc 1 820 0
 253 0072 2C68     		ldr	r4, [r5, #0]
 254              	.LVL30:
 255              		.loc 1 821 0
 256 0074 2846     		mov	r0, r5
 257 0076 FFF7FEFF 		bl	tcp_seg_free
 258              	.LVL31:
 259              		.loc 1 812 0
 260 007a 002C     		cmp	r4, #0
 261 007c E1D1     		bne	.L46
 262              	.LVL32:
 263              	.L45:
 264              		.loc 1 807 0
 265 007e 0024     		movs	r4, #0
 266              	.LVL33:
 267              	.L29:
 268              		.loc 1 830 0
 269 0080 3C60     		str	r4, [r7, #0]
 270 0082 BDE8F081 		pop	{r4, r5, r6, r7, r8, pc}
 271              	.LVL34:
 272              	.L31:
 273              		.loc 1 823 0
 274 0086 002E     		cmp	r6, #0
 275 0088 FADD     		ble	.L29
 276              		.loc 1 826 0
 277 008a 531A     		subs	r3, r2, r1
 278 008c 99B2     		uxth	r1, r3
 279 008e 3981     		strh	r1, [r7, #8]	@ movhi
 280              		.loc 1 827 0
 281 0090 7868     		ldr	r0, [r7, #4]
 282 0092 FFF7FEFF 		bl	pbuf_realloc
 283              	.LVL35:
 284              		.loc 1 830 0
 285 0096 3C60     		str	r4, [r7, #0]
ARM GAS  C:\Users\jenny\AppData\Local\Temp\ccsinKfR.s 			page 6


 286 0098 BDE8F081 		pop	{r4, r5, r6, r7, r8, pc}
 287              	.LVL36:
 288              	.L27:
 289              		.loc 1 806 0
 290 009c 2846     		mov	r0, r5
 291 009e FFF7FEFF 		bl	tcp_segs_free
 292              	.LVL37:
 293 00a2 ECE7     		b	.L45
 294              	.L48:
 295              		.align	2
 296              	.L47:
 297 00a4 00000000 		.word	.LANCHOR1
 298              		.cfi_endproc
 299              	.LFE11:
 300              		.size	tcp_oos_insert_segment, .-tcp_oos_insert_segment
 301 00a8 AFF30080 		.section	.text.tcp_receive,"ax",%progbits
 301      AFF30080 
 302              		.align	2
 303              		.p2align 4,,15
 304              		.thumb
 305              		.thumb_func
 306              		.type	tcp_receive, %function
 307              	tcp_receive:
 308              	.LFB12:
 309              		.loc 1 848 0
 310              		.cfi_startproc
 311              		@ args = 0, pretend = 0, frame = 0
 312              		@ frame_needed = 0, uses_anonymous_args = 0
 313              	.LVL38:
 314 0000 2DE9F84F 		push	{r3, r4, r5, r6, r7, r8, r9, sl, fp, lr}
 315              	.LCFI2:
 316              		.cfi_def_cfa_offset 40
 317              		.cfi_offset 3, -40
 318              		.cfi_offset 4, -36
 319              		.cfi_offset 5, -32
 320              		.cfi_offset 6, -28
 321              		.cfi_offset 7, -24
 322              		.cfi_offset 8, -20
 323              		.cfi_offset 9, -16
 324              		.cfi_offset 10, -12
 325              		.cfi_offset 11, -8
 326              		.cfi_offset 14, -4
 327              		.loc 1 864 0
 328 0004 037E     		ldrb	r3, [r0, #24]	@ zero_extendqisi2
 329 0006 032B     		cmp	r3, #3
 330              		.loc 1 848 0
 331 0008 0446     		mov	r4, r0
 332              		.loc 1 864 0
 333 000a 40F2F480 		bls	.L254
 334              	.LVL39:
 335              	.L50:
 336              		.loc 1 866 0
 337 000e A448     		ldr	r0, .L289
 338              		.loc 1 870 0
 339 0010 DFF8A082 		ldr	r8, .L289+20
 340              		.loc 1 866 0
 341 0014 0178     		ldrb	r1, [r0, #0]	@ zero_extendqisi2
ARM GAS  C:\Users\jenny\AppData\Local\Temp\ccsinKfR.s 			page 7


 342 0016 01F01002 		and	r2, r1, #16
 343 001a D3B2     		uxtb	r3, r2
 344 001c 03BB     		cbnz	r3, .L51
 345 001e DFF89892 		ldr	r9, .L289+24
 346              	.LVL40:
 347              	.L52:
 348              		.loc 1 1120 0
 349 0022 B9F80030 		ldrh	r3, [r9, #0]
 350 0026 1BB1     		cbz	r3, .L96
 351              		.loc 1 1120 0 is_stmt 0 discriminator 1
 352 0028 207E     		ldrb	r0, [r4, #24]	@ zero_extendqisi2
 353 002a 0628     		cmp	r0, #6
 354 002c 40F2AE80 		bls	.L255
 355              	.L96:
 356              		.loc 1 1527 0 is_stmt 1
 357 0030 D8F80020 		ldr	r2, [r8, #0]
 358 0034 A36A     		ldr	r3, [r4, #40]
 359 0036 D11A     		subs	r1, r2, r3
 360 0038 0029     		cmp	r1, #0
 361 003a 05DB     		blt	.L158
 362              		.loc 1 1527 0 is_stmt 0 discriminator 1
 363 003c 501C     		adds	r0, r2, #1
 364 003e A28D     		ldrh	r2, [r4, #44]
 365 0040 C31A     		subs	r3, r0, r3
 366 0042 991A     		subs	r1, r3, r2
 367 0044 0029     		cmp	r1, #0
 368 0046 09DD     		ble	.L49
 369              	.L158:
 370              		.loc 1 1528 0 is_stmt 1
 371 0048 A07F     		ldrb	r0, [r4, #30]	@ zero_extendqisi2
 372 004a 40F00202 		orr	r2, r0, #2
 373 004e A277     		strb	r2, [r4, #30]
 374 0050 BDE8F88F 		pop	{r3, r4, r5, r6, r7, r8, r9, sl, fp, pc}
 375              	.L271:
 376              		.loc 1 1454 0 discriminator 1
 377 0054 CB1A     		subs	r3, r1, r3
 378              		.loc 1 1453 0 discriminator 1
 379 0056 002B     		cmp	r3, #0
 380 0058 00F34A82 		bgt	.L256
 381              	.LVL41:
 382              	.L49:
 383 005c BDE8F88F 		pop	{r3, r4, r5, r6, r7, r8, r9, sl, fp, pc}
 384              	.LVL42:
 385              	.L51:
 386              		.loc 1 870 0
 387 0060 676D     		ldr	r7, [r4, #84]
 388 0062 D8F80020 		ldr	r2, [r8, #0]
 389              		.loc 1 867 0
 390 0066 B4F86050 		ldrh	r5, [r4, #96]
 391 006a A06D     		ldr	r0, [r4, #88]
 392              	.LVL43:
 393 006c 8D4E     		ldr	r6, .L289+4
 394              		.loc 1 870 0
 395 006e B91A     		subs	r1, r7, r2
 396 0070 0029     		cmp	r1, #0
 397 0072 C0F2C380 		blt	.L257
 398              		.loc 1 870 0 is_stmt 0 discriminator 1
ARM GAS  C:\Users\jenny\AppData\Local\Temp\ccsinKfR.s 			page 8


 399 0076 9742     		cmp	r7, r2
 400              		.loc 1 871 0 is_stmt 1 discriminator 1
 401 0078 3368     		ldr	r3, [r6, #0]
 402              		.loc 1 870 0 discriminator 1
 403 007a 00F0B981 		beq	.L55
 404              	.L56:
 405              		.loc 1 871 0 discriminator 1
 406 007e 9842     		cmp	r0, r3
 407 0080 00F0BE81 		beq	.L258
 408              	.L57:
 409              		.loc 1 924 0
 410 0084 A26C     		ldr	r2, [r4, #72]
 411 0086 991A     		subs	r1, r3, r2
 412 0088 0029     		cmp	r1, #0
 413 008a 40F39681 		ble	.L259
 414              		.loc 1 957 0
 415 008e D043     		mvns	r0, r2
 416              	.LVL44:
 417 0090 C342     		cmn	r3, r0
 418 0092 04D4     		bmi	.L66
 419              		.loc 1 957 0 is_stmt 0 discriminator 1
 420 0094 276D     		ldr	r7, [r4, #80]
 421 0096 DA1B     		subs	r2, r3, r7
 422 0098 002A     		cmp	r2, #0
 423 009a 40F30F81 		ble	.L260
 424              	.L66:
 425              		.loc 1 1046 0 is_stmt 1
 426 009e 0023     		movs	r3, #0
 427 00a0 DFF81492 		ldr	r9, .L289+24
 428 00a4 E26E     		ldr	r2, [r4, #108]
 429 00a6 A4F86430 		strh	r3, [r4, #100]	@ movhi
 430              	.LVL45:
 431              	.L81:
 432              		.loc 1 1056 0 discriminator 1
 433 00aa 7E4F     		ldr	r7, .L289+4
 434              		.loc 1 1055 0 discriminator 1
 435 00ac 002A     		cmp	r2, #0
 436 00ae 41D0     		beq	.L93
 437              	.L209:
 438              		.loc 1 1056 0 discriminator 2
 439 00b0 D168     		ldr	r1, [r2, #12]
 440 00b2 3568     		ldr	r5, [r6, #0]
 441 00b4 4868     		ldr	r0, [r1, #4]	@ unaligned
 442 00b6 FFF7FEFF 		bl	lwip_ntohl
 443              	.LVL46:
 444 00ba E26E     		ldr	r2, [r4, #108]
 445 00bc D368     		ldr	r3, [r2, #12]
 446 00be B2F808A0 		ldrh	sl, [r2, #8]
 447 00c2 8346     		mov	fp, r0
 448 00c4 9889     		ldrh	r0, [r3, #12]	@ unaligned
 449 00c6 FFF7FEFF 		bl	lwip_ntohs
 450              	.LVL47:
 451 00ca 10F00300 		ands	r0, r0, #3
 452 00ce 18BF     		it	ne
 453 00d0 0120     		movne	r0, #1
 454 00d2 CBEB0505 		rsb	r5, fp, r5
 455 00d6 0AEB0001 		add	r1, sl, r0
ARM GAS  C:\Users\jenny\AppData\Local\Temp\ccsinKfR.s 			page 9


 456 00da 6A1A     		subs	r2, r5, r1
 457              		.loc 1 1055 0 discriminator 2
 458 00dc 002A     		cmp	r2, #0
 459 00de 29DB     		blt	.L93
 460              		.loc 1 1056 0
 461 00e0 3868     		ldr	r0, [r7, #0]
 462 00e2 236D     		ldr	r3, [r4, #80]
 463 00e4 C11A     		subs	r1, r0, r3
 464 00e6 0029     		cmp	r1, #0
 465 00e8 24DC     		bgt	.L93
 466              		.loc 1 1062 0
 467 00ea E56E     		ldr	r5, [r4, #108]
 468              	.LVL48:
 469              		.loc 1 1063 0
 470 00ec 2868     		ldr	r0, [r5, #0]
 471 00ee E066     		str	r0, [r4, #108]
 472              		.loc 1 1065 0
 473 00f0 0028     		cmp	r0, #0
 474 00f2 76D0     		beq	.L261
 475              	.L82:
 476              		.loc 1 1070 0
 477 00f4 6868     		ldr	r0, [r5, #4]
 478 00f6 B4F868A0 		ldrh	sl, [r4, #104]
 479 00fa FFF7FEFF 		bl	pbuf_clen
 480              	.LVL49:
 481 00fe 8245     		cmp	sl, r0
 482 0100 6CD3     		bcc	.L262
 483              	.L83:
 484              		.loc 1 1072 0
 485 0102 B4F86410 		ldrh	r1, [r4, #100]
 486 0106 0029     		cmp	r1, #0
 487 0108 5CD1     		bne	.L263
 488              	.L85:
 489              		.loc 1 1075 0
 490 010a 6868     		ldr	r0, [r5, #4]
 491 010c B4F868A0 		ldrh	sl, [r4, #104]
 492 0110 FFF7FEFF 		bl	pbuf_clen
 493              	.LVL50:
 494 0114 C0EB0A01 		rsb	r1, r0, sl
 495 0118 A4F86810 		strh	r1, [r4, #104]	@ movhi
 496              		.loc 1 1076 0
 497 011c 2846     		mov	r0, r5
 498 011e FFF7FEFF 		bl	tcp_seg_free
 499              	.LVL51:
 500              		.loc 1 1078 0
 501 0122 B4F86820 		ldrh	r2, [r4, #104]
 502 0126 12B1     		cbz	r2, .L245
 503              		.loc 1 1079 0
 504 0128 236F     		ldr	r3, [r4, #112]
 505 012a 002B     		cmp	r3, #0
 506 012c 5CD0     		beq	.L89
 507              	.L245:
 508 012e E26E     		ldr	r2, [r4, #108]
 509              		.loc 1 1055 0 discriminator 2
 510 0130 002A     		cmp	r2, #0
 511 0132 BDD1     		bne	.L209
 512              	.LVL52:
ARM GAS  C:\Users\jenny\AppData\Local\Temp\ccsinKfR.s 			page 10


 513              	.L93:
 514              		.loc 1 1091 0
 515 0134 A36B     		ldr	r3, [r4, #56]
 516 0136 002B     		cmp	r3, #0
 517 0138 3FF473AF 		beq	.L52
 518              		.loc 1 1091 0 is_stmt 0 discriminator 1
 519 013c E26B     		ldr	r2, [r4, #60]
 520 013e 3068     		ldr	r0, [r6, #0]
 521 0140 111A     		subs	r1, r2, r0
 522 0142 0029     		cmp	r1, #0
 523 0144 BFF66DAF 		bge	.L52
 524              	.LVL53:
 525              		.loc 1 1094 0 is_stmt 1
 526 0148 574A     		ldr	r2, .L289+8
 527              	.LVL54:
 528              		.loc 1 1100 0
 529 014a B4F84010 		ldrh	r1, [r4, #64]
 530              		.loc 1 1094 0
 531 014e 1068     		ldr	r0, [r2, #0]
 532              		.loc 1 1100 0
 533 0150 41F3CC02 		sbfx	r2, r1, #3, #13
 534              	.LVL55:
 535              		.loc 1 1094 0
 536 0154 C31A     		subs	r3, r0, r3
 537              	.LVL56:
 538              		.loc 1 1100 0
 539 0156 981A     		subs	r0, r3, r2
 540 0158 82B2     		uxth	r2, r0
 541              		.loc 1 1101 0
 542 015a 5118     		adds	r1, r2, r1
 543              		.loc 1 1100 0
 544 015c 93B2     		uxth	r3, r2
 545              	.LVL57:
 546              		.loc 1 1101 0
 547 015e 89B2     		uxth	r1, r1
 548              		.loc 1 1102 0
 549 0160 1804     		lsls	r0, r3, #16
 550              		.loc 1 1101 0
 551 0162 A4F84010 		strh	r1, [r4, #64]	@ movhi
 552              		.loc 1 1102 0
 553 0166 00F1C081 		bmi	.L264
 554              	.LVL58:
 555              	.L95:
 556              		.loc 1 1105 0
 557 016a B4F84220 		ldrh	r2, [r4, #66]
 558              	.LVL59:
 559 016e 42F38D00 		sbfx	r0, r2, #2, #14
 560 0172 121A     		subs	r2, r2, r0
 561              	.LVL60:
 562              		.loc 1 1106 0
 563 0174 D318     		adds	r3, r2, r3
 564              	.LVL61:
 565 0176 98B2     		uxth	r0, r3
 566              		.loc 1 1107 0
 567 0178 41F3CC01 		sbfx	r1, r1, #3, #13
 568 017c 4218     		adds	r2, r0, r1
 569              		.loc 1 1112 0
ARM GAS  C:\Users\jenny\AppData\Local\Temp\ccsinKfR.s 			page 11


 570 017e 0023     		movs	r3, #0
 571              		.loc 1 1106 0
 572 0180 A4F84200 		strh	r0, [r4, #66]	@ movhi
 573              		.loc 1 1107 0
 574 0184 A4F84420 		strh	r2, [r4, #68]	@ movhi
 575              		.loc 1 1112 0
 576 0188 A363     		str	r3, [r4, #56]
 577 018a 4AE7     		b	.L52
 578              	.L255:
 579              		.loc 1 1151 0
 580 018c D8F80020 		ldr	r2, [r8, #0]
 581 0190 A16A     		ldr	r1, [r4, #40]
 582 0192 D043     		mvns	r0, r2
 583 0194 C842     		cmn	r0, r1
 584 0196 05D4     		bmi	.L97
 585              		.loc 1 1151 0 is_stmt 0 discriminator 1
 586 0198 481C     		adds	r0, r1, #1
 587 019a 801A     		subs	r0, r0, r2
 588 019c C31A     		subs	r3, r0, r3
 589 019e 002B     		cmp	r3, #0
 590 01a0 40F33681 		ble	.L265
 591              	.L97:
 592              		.loc 1 1202 0 is_stmt 1
 593 01a4 501A     		subs	r0, r2, r1
 594 01a6 0028     		cmp	r0, #0
 595 01a8 C0F2F380 		blt	.L266
 596              	.L107:
 597              		.loc 1 1214 0 discriminator 1
 598 01ac A08D     		ldrh	r0, [r4, #44]
 599 01ae C0F10103 		rsb	r3, r0, #1
 600 01b2 9818     		adds	r0, r3, r2
 601 01b4 431A     		subs	r3, r0, r1
 602 01b6 002B     		cmp	r3, #0
 603 01b8 3CDD     		ble	.L267
 604              	.L108:
 605              		.loc 1 1520 0
 606 01ba 2046     		mov	r0, r4
 607              		.loc 1 1531 0
 608 01bc BDE8F84F 		pop	{r3, r4, r5, r6, r7, r8, r9, sl, fp, lr}
 609              		.loc 1 1520 0
 610 01c0 FFF7FEBF 		b	tcp_send_empty_ack
 611              	.LVL62:
 612              	.L263:
 613              		.loc 1 1072 0 discriminator 1
 614 01c4 EA68     		ldr	r2, [r5, #12]
 615 01c6 9089     		ldrh	r0, [r2, #12]	@ unaligned
 616 01c8 FFF7FEFF 		bl	lwip_ntohs
 617              	.LVL63:
 618 01cc C307     		lsls	r3, r0, #31
 619 01ce 9CD5     		bpl	.L85
 620              		.loc 1 1073 0
 621 01d0 B4F86430 		ldrh	r3, [r4, #100]
 622 01d4 581E     		subs	r0, r3, #1
 623 01d6 A4F86400 		strh	r0, [r4, #100]	@ movhi
 624 01da 96E7     		b	.L85
 625              	.L262:
 626              		.loc 1 1070 0 discriminator 1
ARM GAS  C:\Users\jenny\AppData\Local\Temp\ccsinKfR.s 			page 12


 627 01dc FFF7FEFF 		bl	port_halt
 628              	.LVL64:
 629 01e0 8FE7     		b	.L83
 630              	.L261:
 631              		.loc 1 1066 0
 632 01e2 A4F86A00 		strh	r0, [r4, #106]	@ movhi
 633 01e6 85E7     		b	.L82
 634              	.L89:
 635              		.loc 1 1079 0 discriminator 1
 636 01e8 E26E     		ldr	r2, [r4, #108]
 637 01ea 002A     		cmp	r2, #0
 638 01ec 7FF460AF 		bne	.L209
 639              		.loc 1 1079 0 is_stmt 0 discriminator 2
 640 01f0 FFF7FEFF 		bl	port_halt
 641              	.LVL65:
 642 01f4 9BE7     		b	.L245
 643              	.LVL66:
 644              	.L254:
 645              		.loc 1 864 0 is_stmt 1 discriminator 1
 646 01f6 FFF7FEFF 		bl	port_halt
 647              	.LVL67:
 648 01fa 08E7     		b	.L50
 649              	.LVL68:
 650              	.L257:
 651 01fc 2B4B     		ldr	r3, .L289+12
 652 01fe 1F68     		ldr	r7, [r3, #0]
 653 0200 3368     		ldr	r3, [r6, #0]
 654 0202 F989     		ldrh	r1, [r7, #14]	@ unaligned
 655              	.L54:
 656              		.loc 1 876 0
 657 0204 B4F86270 		ldrh	r7, [r4, #98]
 658              		.loc 1 879 0
 659 0208 6265     		str	r2, [r4, #84]
 660              		.loc 1 876 0
 661 020a 8F42     		cmp	r7, r1
 662              		.loc 1 873 0
 663 020c A4F86010 		strh	r1, [r4, #96]	@ movhi
 664              		.loc 1 877 0
 665 0210 38BF     		it	cc
 666 0212 A4F86210 		strhcc	r1, [r4, #98]	@ movhi
 667              		.loc 1 880 0
 668 0216 A365     		str	r3, [r4, #88]
 669              		.loc 1 882 0
 670 0218 94F89520 		ldrb	r2, [r4, #149]	@ zero_extendqisi2
 671              		.loc 1 881 0
 672 021c 0029     		cmp	r1, #0
 673 021e 40F0E080 		bne	.L59
 674              		.loc 1 882 0
 675 0222 002A     		cmp	r2, #0
 676 0224 7FF42EAF 		bne	.L57
 677              		.loc 1 885 0
 678 0228 0127     		movs	r7, #1
 679              		.loc 1 884 0
 680 022a 84F89410 		strb	r1, [r4, #148]
 681              		.loc 1 885 0
 682 022e 84F89570 		strb	r7, [r4, #149]
 683 0232 27E7     		b	.L57
ARM GAS  C:\Users\jenny\AppData\Local\Temp\ccsinKfR.s 			page 13


 684              	.LVL69:
 685              	.L267:
 686              		.loc 1 1216 0
 687 0234 8A42     		cmp	r2, r1
 688 0236 00F0BA81 		beq	.L268
 689              		.loc 1 1369 0
 690 023a 2046     		mov	r0, r4
 691 023c FFF7FEFF 		bl	tcp_send_empty_ack
 692              	.LVL70:
 693              		.loc 1 1372 0
 694 0240 656F     		ldr	r5, [r4, #116]
 695 0242 002D     		cmp	r5, #0
 696 0244 00F08683 		beq	.L269
 697 0248 D8F80010 		ldr	r1, [r8, #0]
 698 024c 0026     		movs	r6, #0
 699              		.loc 1 1431 0
 700 024e 4F1C     		adds	r7, r1, #1
 701 0250 0EE0     		b	.L155
 702              	.L152:
 703 0252 F268     		ldr	r2, [r6, #12]
 704 0254 5268     		ldr	r2, [r2, #4]	@ unaligned
 705 0256 D243     		mvns	r2, r2
 706 0258 CA42     		cmn	r2, r1
 707 025a 03D4     		bmi	.L153
 708              		.loc 1 1431 0 is_stmt 0 discriminator 1
 709 025c BCF1000F 		cmp	ip, #0
 710 0260 40F3D882 		ble	.L270
 711              	.L153:
 712              		.loc 1 1453 0 is_stmt 1
 713 0264 2A68     		ldr	r2, [r5, #0]
 714 0266 2E46     		mov	r6, r5
 715 0268 002A     		cmp	r2, #0
 716 026a 3FF4F3AE 		beq	.L271
 717 026e 1546     		mov	r5, r2
 718              	.L155:
 719              		.loc 1 1389 0
 720 0270 E868     		ldr	r0, [r5, #12]
 721 0272 4368     		ldr	r3, [r0, #4]	@ unaligned
 722 0274 8B42     		cmp	r3, r1
 723              		.loc 1 1431 0
 724 0276 C3EB070C 		rsb	ip, r3, r7
 725              		.loc 1 1389 0
 726 027a 00F0AD82 		beq	.L272
 727              		.loc 1 1415 0
 728 027e 002E     		cmp	r6, #0
 729 0280 E7D1     		bne	.L152
 730              		.loc 1 1416 0
 731 0282 CA1A     		subs	r2, r1, r3
 732 0284 002A     		cmp	r2, #0
 733 0286 EDDA     		bge	.L153
 734              		.loc 1 1421 0
 735 0288 0948     		ldr	r0, .L289+16
 736 028a FFF7FEFF 		bl	tcp_seg_copy
 737              	.LVL71:
 738              		.loc 1 1422 0
 739 028e 0028     		cmp	r0, #0
 740 0290 3FF4E4AE 		beq	.L49
ARM GAS  C:\Users\jenny\AppData\Local\Temp\ccsinKfR.s 			page 14


 741              		.loc 1 1423 0
 742 0294 6067     		str	r0, [r4, #116]
 743              	.L249:
 744              		.loc 1 1424 0
 745 0296 2946     		mov	r1, r5
 746              		.loc 1 1531 0
 747 0298 BDE8F84F 		pop	{r3, r4, r5, r6, r7, r8, r9, sl, fp, lr}
 748              		.loc 1 1424 0
 749 029c FFF7FEBF 		b	tcp_oos_insert_segment
 750              	.LVL72:
 751              	.L290:
 752              		.align	2
 753              	.L289:
 754 02a0 00000000 		.word	.LANCHOR2
 755 02a4 00000000 		.word	.LANCHOR3
 756 02a8 00000000 		.word	tcp_ticks
 757 02ac 00000000 		.word	.LANCHOR0
 758 02b0 00000000 		.word	.LANCHOR5
 759 02b4 00000000 		.word	.LANCHOR1
 760 02b8 00000000 		.word	.LANCHOR4
 761              	.LVL73:
 762              	.L260:
 763              		.loc 1 963 0
 764 02bc A57F     		ldrb	r5, [r4, #30]	@ zero_extendqisi2
 765              	.LVL74:
 766 02be 05F00400 		and	r0, r5, #4
 767 02c2 C7B2     		uxtb	r7, r0
 768 02c4 37B1     		cbz	r7, .L67
 769              		.loc 1 965 0
 770 02c6 B4F84E00 		ldrh	r0, [r4, #78]
 771              		.loc 1 964 0
 772 02ca 25F00402 		bic	r2, r5, #4
 773 02ce A277     		strb	r2, [r4, #30]
 774              		.loc 1 965 0
 775 02d0 A4F84C00 		strh	r0, [r4, #76]	@ movhi
 776              	.L67:
 777              		.loc 1 977 0
 778 02d4 B4F86600 		ldrh	r0, [r4, #102]
 779              		.loc 1 972 0
 780 02d8 B4F94070 		ldrsh	r7, [r4, #64]
 781 02dc B4F84250 		ldrh	r5, [r4, #66]
 782              		.loc 1 985 0
 783 02e0 227E     		ldrb	r2, [r4, #24]	@ zero_extendqisi2
 784              		.loc 1 981 0
 785 02e2 A364     		str	r3, [r4, #72]
 786              		.loc 1 975 0
 787 02e4 89B2     		uxth	r1, r1
 788              		.loc 1 969 0
 789 02e6 0023     		movs	r3, #0
 790              		.loc 1 972 0
 791 02e8 05EBE705 		add	r5, r5, r7, asr #3
 792              		.loc 1 977 0
 793 02ec 0818     		adds	r0, r1, r0
 794              		.loc 1 985 0
 795 02ee 032A     		cmp	r2, #3
 796              		.loc 1 969 0
 797 02f0 84F84630 		strb	r3, [r4, #70]
ARM GAS  C:\Users\jenny\AppData\Local\Temp\ccsinKfR.s 			page 15


 798              		.loc 1 972 0
 799 02f4 A4F84450 		strh	r5, [r4, #68]	@ movhi
 800              		.loc 1 975 0
 801 02f8 A4F86410 		strh	r1, [r4, #100]	@ movhi
 802              		.loc 1 977 0
 803 02fc A4F86600 		strh	r0, [r4, #102]	@ movhi
 804              		.loc 1 980 0
 805 0300 84F84730 		strb	r3, [r4, #71]
 806              		.loc 1 985 0
 807 0304 00F2C180 		bhi	.L273
 808              	.LVL75:
 809              	.L243:
 810 0308 276F     		ldr	r7, [r4, #112]
 811              		.loc 1 1008 0 discriminator 2
 812 030a 002F     		cmp	r7, #0
 813 030c 00F04681 		beq	.L244
 814              	.L210:
 815              		.loc 1 1009 0 discriminator 2
 816 0310 FD68     		ldr	r5, [r7, #12]
 817 0312 6868     		ldr	r0, [r5, #4]	@ unaligned
 818 0314 FFF7FEFF 		bl	lwip_ntohl
 819              	.LVL76:
 820 0318 216F     		ldr	r1, [r4, #112]
 821 031a CA68     		ldr	r2, [r1, #12]
 822 031c 0D89     		ldrh	r5, [r1, #8]
 823 031e 0746     		mov	r7, r0
 824 0320 9089     		ldrh	r0, [r2, #12]	@ unaligned
 825 0322 FFF7FEFF 		bl	lwip_ntohs
 826              	.LVL77:
 827 0326 3368     		ldr	r3, [r6, #0]
 828 0328 10F00300 		ands	r0, r0, #3
 829 032c 18BF     		it	ne
 830 032e 0120     		movne	r0, #1
 831 0330 FF1A     		subs	r7, r7, r3
 832 0332 2918     		adds	r1, r5, r0
 833 0334 7A18     		adds	r2, r7, r1
 834              		.loc 1 1008 0 discriminator 2
 835 0336 002A     		cmp	r2, #0
 836 0338 00F33281 		bgt	.L274
 837              		.loc 1 1016 0
 838 033c 256F     		ldr	r5, [r4, #112]
 839              	.LVL78:
 840              		.loc 1 1020 0
 841 033e B4F86870 		ldrh	r7, [r4, #104]
 842              		.loc 1 1017 0
 843 0342 2968     		ldr	r1, [r5, #0]
 844              		.loc 1 1020 0
 845 0344 6868     		ldr	r0, [r5, #4]
 846              		.loc 1 1017 0
 847 0346 2167     		str	r1, [r4, #112]
 848              		.loc 1 1020 0
 849 0348 FFF7FEFF 		bl	pbuf_clen
 850              	.LVL79:
 851 034c 8742     		cmp	r7, r0
 852 034e 31D3     		bcc	.L275
 853              	.L71:
 854              		.loc 1 1022 0
ARM GAS  C:\Users\jenny\AppData\Local\Temp\ccsinKfR.s 			page 16


 855 0350 B4F86420 		ldrh	r2, [r4, #100]
 856 0354 12BB     		cbnz	r2, .L276
 857              	.L73:
 858              		.loc 1 1026 0
 859 0356 6868     		ldr	r0, [r5, #4]
 860 0358 B4F86870 		ldrh	r7, [r4, #104]
 861 035c FFF7FEFF 		bl	pbuf_clen
 862              	.LVL80:
 863 0360 391A     		subs	r1, r7, r0
 864 0362 A4F86810 		strh	r1, [r4, #104]	@ movhi
 865              		.loc 1 1027 0
 866 0366 2846     		mov	r0, r5
 867 0368 FFF7FEFF 		bl	tcp_seg_free
 868              	.LVL81:
 869              		.loc 1 1030 0
 870 036c B4F86820 		ldrh	r2, [r4, #104]
 871 0370 002A     		cmp	r2, #0
 872 0372 C9D0     		beq	.L243
 873              		.loc 1 1031 0
 874 0374 276F     		ldr	r7, [r4, #112]
 875 0376 002F     		cmp	r7, #0
 876 0378 CAD1     		bne	.L210
 877              		.loc 1 1031 0 is_stmt 0 discriminator 1
 878 037a E26E     		ldr	r2, [r4, #108]
 879 037c 002A     		cmp	r2, #0
 880 037e 00F0B182 		beq	.L277
 881              	.LVL82:
 882              	.L80:
 883              		.loc 1 1039 0 is_stmt 1
 884 0382 4FF6FF70 		movw	r0, #65535
 885 0386 A086     		strh	r0, [r4, #52]	@ movhi
 886              	.L78:
 887              		.loc 1 1043 0
 888 0388 0027     		movs	r7, #0
 889 038a E777     		strb	r7, [r4, #31]
 890 038c DFF80893 		ldr	r9, .L291+12
 891 0390 8BE6     		b	.L81
 892              	.LVL83:
 893              	.L266:
 894              		.loc 1 1207 0
 895 0392 A27F     		ldrb	r2, [r4, #30]	@ zero_extendqisi2
 896 0394 42F00201 		orr	r1, r2, #2
 897 0398 A177     		strb	r1, [r4, #30]
 898 039a 0EE7     		b	.L108
 899              	.LVL84:
 900              	.L276:
 901              		.loc 1 1022 0 discriminator 1
 902 039c EB68     		ldr	r3, [r5, #12]
 903 039e 9889     		ldrh	r0, [r3, #12]	@ unaligned
 904 03a0 FFF7FEFF 		bl	lwip_ntohs
 905              	.LVL85:
 906 03a4 C207     		lsls	r2, r0, #31
 907 03a6 D6D5     		bpl	.L73
 908              		.loc 1 1023 0
 909 03a8 B4F86400 		ldrh	r0, [r4, #100]
 910 03ac 471E     		subs	r7, r0, #1
 911 03ae A4F86470 		strh	r7, [r4, #100]	@ movhi
ARM GAS  C:\Users\jenny\AppData\Local\Temp\ccsinKfR.s 			page 17


 912 03b2 D0E7     		b	.L73
 913              	.L275:
 914              		.loc 1 1020 0 discriminator 1
 915 03b4 FFF7FEFF 		bl	port_halt
 916              	.LVL86:
 917 03b8 CAE7     		b	.L71
 918              	.LVL87:
 919              	.L259:
 920              		.loc 1 927 0
 921 03ba DFF8DC92 		ldr	r9, .L291+12
 922 03be B9F80010 		ldrh	r1, [r9, #0]
 923              		.loc 1 925 0
 924 03c2 0027     		movs	r7, #0
 925 03c4 A4F86470 		strh	r7, [r4, #100]	@ movhi
 926              		.loc 1 927 0
 927 03c8 31B9     		cbnz	r1, .L61
 928              		.loc 1 929 0
 929 03ca B4F86070 		ldrh	r7, [r4, #96]
 930 03ce A16D     		ldr	r1, [r4, #88]
 931              		.loc 1 867 0
 932 03d0 2818     		adds	r0, r5, r0
 933              	.LVL88:
 934              		.loc 1 929 0
 935 03d2 7F18     		adds	r7, r7, r1
 936 03d4 8742     		cmp	r7, r0
 937 03d6 6AD0     		beq	.L278
 938              	.L61:
 939              		.loc 1 955 0
 940 03d8 0023     		movs	r3, #0
 941 03da 84F84730 		strb	r3, [r4, #71]
 942 03de E26E     		ldr	r2, [r4, #108]
 943 03e0 63E6     		b	.L81
 944              	.LVL89:
 945              	.L59:
 946              		.loc 1 887 0
 947 03e2 002A     		cmp	r2, #0
 948 03e4 3FF44EAE 		beq	.L57
 949              		.loc 1 889 0
 950 03e8 0021     		movs	r1, #0
 951 03ea 84F89510 		strb	r1, [r4, #149]
 952 03ee 49E6     		b	.L57
 953              	.L55:
 954              		.loc 1 871 0
 955 03f0 C71A     		subs	r7, r0, r3
 956 03f2 002F     		cmp	r7, #0
 957 03f4 BFF643AE 		bge	.L56
 958 03f8 A44F     		ldr	r7, .L291
 959 03fa 3968     		ldr	r1, [r7, #0]
 960 03fc C989     		ldrh	r1, [r1, #14]	@ unaligned
 961 03fe 01E7     		b	.L54
 962              	.L258:
 963              		.loc 1 872 0
 964 0400 A24B     		ldr	r3, .L291
 965 0402 1968     		ldr	r1, [r3, #0]
 966 0404 C989     		ldrh	r1, [r1, #14]	@ unaligned
 967 0406 8D42     		cmp	r5, r1
 968 0408 0346     		mov	r3, r0
ARM GAS  C:\Users\jenny\AppData\Local\Temp\ccsinKfR.s 			page 18


 969 040a BFF43BAE 		bcs	.L57
 970 040e F9E6     		b	.L54
 971              	.LVL90:
 972              	.L265:
 973              		.loc 1 1173 0
 974 0410 9F4F     		ldr	r7, .L291+4
 975 0412 7D68     		ldr	r5, [r7, #4]
 976              		.loc 1 1172 0
 977 0414 C2EB010A 		rsb	sl, r2, r1
 978 0418 5646     		mov	r6, sl
 979              	.LVL91:
 980              		.loc 1 1174 0
 981 041a 002D     		cmp	r5, #0
 982 041c 00F09782 		beq	.L279
 983              	.L98:
 984              		.loc 1 1175 0
 985 0420 47F6FE73 		movw	r3, #32766
 986 0424 9A45     		cmp	sl, r3
 987 0426 00F3F281 		bgt	.L280
 988              	.L99:
 989              		.loc 1 1176 0
 990 042a 7868     		ldr	r0, [r7, #4]
 991 042c 4289     		ldrh	r2, [r0, #10]
 992 042e 9245     		cmp	sl, r2
 993 0430 40F3E281 		ble	.L100
 994              		.loc 1 1177 0
 995 0434 0289     		ldrh	r2, [r0, #8]
 996 0436 9245     		cmp	sl, r2
 997 0438 00F30E82 		bgt	.L281
 998              	.L101:
 999              		.loc 1 1179 0
 1000 043c 6B89     		ldrh	r3, [r5, #10]
 1001              		.loc 1 1178 0
 1002 043e CAEB0201 		rsb	r1, sl, r2
 1003              		.loc 1 1179 0
 1004 0442 9A45     		cmp	sl, r3
 1005              		.loc 1 1178 0
 1006 0444 88B2     		uxth	r0, r1
 1007              	.LVL92:
 1008              		.loc 1 1179 0
 1009 0446 07DD     		ble	.L102
 1010              		.loc 1 1185 0
 1011 0448 0022     		movs	r2, #0
 1012              	.L208:
 1013 044a 6A81     		strh	r2, [r5, #10]	@ movhi
 1014              		.loc 1 1184 0
 1015 044c 2881     		strh	r0, [r5, #8]	@ movhi
 1016              		.loc 1 1186 0
 1017 044e 2D68     		ldr	r5, [r5, #0]
 1018              	.LVL93:
 1019              		.loc 1 1180 0
 1020 0450 F61A     		subs	r6, r6, r3
 1021              	.LVL94:
 1022              		.loc 1 1179 0
 1023 0452 6B89     		ldrh	r3, [r5, #10]
 1024 0454 B342     		cmp	r3, r6
 1025 0456 F8DB     		blt	.L208
ARM GAS  C:\Users\jenny\AppData\Local\Temp\ccsinKfR.s 			page 19


 1026              	.L102:
 1027              		.loc 1 1188 0
 1028 0458 7142     		negs	r1, r6
 1029              	.LVL95:
 1030 045a 2846     		mov	r0, r5
 1031              	.LVL96:
 1032 045c 09B2     		sxth	r1, r1
 1033 045e FFF7FEFF 		bl	pbuf_header
 1034              	.LVL97:
 1035 0462 0028     		cmp	r0, #0
 1036 0464 40F0D081 		bne	.L104
 1037              	.L105:
 1038              		.loc 1 1198 0
 1039 0468 3989     		ldrh	r1, [r7, #8]
 1040 046a D8F80000 		ldr	r0, [r8, #0]
 1041 046e A26A     		ldr	r2, [r4, #40]
 1042              		.loc 1 1199 0
 1043 0470 FB68     		ldr	r3, [r7, #12]
 1044 0472 C8F80020 		str	r2, [r8, #0]
 1045              		.loc 1 1198 0
 1046 0476 4018     		adds	r0, r0, r1
 1047 0478 811A     		subs	r1, r0, r2
 1048 047a 3981     		strh	r1, [r7, #8]	@ movhi
 1049              		.loc 1 1199 0
 1050 047c 5A60     		str	r2, [r3, #4]	@ unaligned
 1051 047e A16A     		ldr	r1, [r4, #40]
 1052              		.loc 1 1214 0
 1053 0480 531A     		subs	r3, r2, r1
 1054 0482 002B     		cmp	r3, #0
 1055 0484 BFF692AE 		bge	.L107
 1056 0488 97E6     		b	.L108
 1057              	.LVL98:
 1058              	.L273:
 1059              		.loc 1 986 0
 1060 048a B4F84C70 		ldrh	r7, [r4, #76]
 1061 048e B4F84E20 		ldrh	r2, [r4, #78]
 1062              		.loc 1 987 0
 1063 0492 E18E     		ldrh	r1, [r4, #54]
 1064              		.loc 1 986 0
 1065 0494 BA42     		cmp	r2, r7
 1066              	.LBB2:
 1067              		.loc 1 992 0
 1068 0496 9CBF     		itt	ls
 1069 0498 4943     		mulls	r1, r1, r1
 1070 049a 91FBF7F1 		sdivls	r1, r1, r7
 1071 049e 7B18     		adds	r3, r7, r1
 1072 04a0 98B2     		uxth	r0, r3
 1073              	.LVL99:
 1074              		.loc 1 993 0
 1075 04a2 8742     		cmp	r7, r0
 1076 04a4 BFF430AF 		bcs	.L243
 1077              		.loc 1 994 0
 1078 04a8 A4F84C00 		strh	r0, [r4, #76]	@ movhi
 1079 04ac 2CE7     		b	.L243
 1080              	.LVL100:
 1081              	.L278:
 1082              	.LBE2:
ARM GAS  C:\Users\jenny\AppData\Local\Temp\ccsinKfR.s 			page 20


 1083              		.loc 1 931 0
 1084 04ae B4F93410 		ldrsh	r1, [r4, #52]
 1085 04b2 0029     		cmp	r1, #0
 1086 04b4 90DB     		blt	.L61
 1087              		.loc 1 933 0
 1088 04b6 9A42     		cmp	r2, r3
 1089 04b8 8ED1     		bne	.L61
 1090              	.LVL101:
 1091              		.loc 1 935 0
 1092 04ba 94F84700 		ldrb	r0, [r4, #71]	@ zero_extendqisi2
 1093 04be 471C     		adds	r7, r0, #1
 1094 04c0 F9B2     		uxtb	r1, r7
 1095 04c2 8842     		cmp	r0, r1
 1096              		.loc 1 936 0
 1097 04c4 3CBF     		itt	cc
 1098 04c6 0846     		movcc	r0, r1
 1099 04c8 84F84710 		strbcc	r1, [r4, #71]
 1100              		.loc 1 938 0
 1101 04cc 0328     		cmp	r0, #3
 1102 04ce 40F24782 		bls	.L63
 1103              		.loc 1 941 0
 1104 04d2 B4F84C20 		ldrh	r2, [r4, #76]
 1105 04d6 E38E     		ldrh	r3, [r4, #54]
 1106 04d8 D018     		adds	r0, r2, r3
 1107 04da 87B2     		uxth	r7, r0
 1108 04dc BA42     		cmp	r2, r7
 1109 04de 80F04382 		bcs	.L241
 1110              		.loc 1 942 0
 1111 04e2 A4F84C70 		strh	r7, [r4, #76]	@ movhi
 1112 04e6 E26E     		ldr	r2, [r4, #108]
 1113 04e8 DFE5     		b	.L81
 1114              	.LVL102:
 1115              	.L264:
 1116              		.loc 1 1103 0
 1117 04ea 5342     		negs	r3, r2
 1118 04ec 9BB2     		uxth	r3, r3
 1119              	.LVL103:
 1120 04ee 3CE6     		b	.L95
 1121              	.LVL104:
 1122              	.L256:
 1123              		.loc 1 1455 0
 1124 04f0 8089     		ldrh	r0, [r0, #12]	@ unaligned
 1125 04f2 FFF7FEFF 		bl	lwip_ntohs
 1126              	.LVL105:
 1127 04f6 C007     		lsls	r0, r0, #31
 1128 04f8 3FF5B0AD 		bmi	.L49
 1129              		.loc 1 1459 0
 1130 04fc 6448     		ldr	r0, .L291+4
 1131 04fe FFF7FEFF 		bl	tcp_seg_copy
 1132              	.LVL106:
 1133 0502 2860     		str	r0, [r5, #0]
 1134              		.loc 1 1460 0
 1135 0504 0028     		cmp	r0, #0
 1136 0506 3FF4A9AD 		beq	.L49
 1137              		.loc 1 1461 0
 1138 050a E868     		ldr	r0, [r5, #12]
 1139 050c 2989     		ldrh	r1, [r5, #8]
ARM GAS  C:\Users\jenny\AppData\Local\Temp\ccsinKfR.s 			page 21


 1140 050e D8F80030 		ldr	r3, [r8, #0]
 1141 0512 4268     		ldr	r2, [r0, #4]	@ unaligned
 1142 0514 C81A     		subs	r0, r1, r3
 1143 0516 8118     		adds	r1, r0, r2
 1144 0518 0029     		cmp	r1, #0
 1145 051a 07DD     		ble	.L156
 1146              		.loc 1 1463 0
 1147 051c 9B1A     		subs	r3, r3, r2
 1148 051e 99B2     		uxth	r1, r3
 1149 0520 2981     		strh	r1, [r5, #8]	@ movhi
 1150              		.loc 1 1464 0
 1151 0522 6868     		ldr	r0, [r5, #4]
 1152 0524 FFF7FEFF 		bl	pbuf_realloc
 1153              	.LVL107:
 1154 0528 5A4A     		ldr	r2, .L291+8
 1155 052a 1368     		ldr	r3, [r2, #0]
 1156              	.L156:
 1157              		.loc 1 1467 0
 1158 052c B9F80000 		ldrh	r0, [r9, #0]
 1159 0530 A18D     		ldrh	r1, [r4, #44]
 1160 0532 A26A     		ldr	r2, [r4, #40]
 1161 0534 1B18     		adds	r3, r3, r0
 1162 0536 8818     		adds	r0, r1, r2
 1163 0538 8342     		cmp	r3, r0
 1164 053a 7FF68FAD 		bls	.L49
 1165              		.loc 1 1472 0
 1166 053e 2E68     		ldr	r6, [r5, #0]
 1167 0540 F168     		ldr	r1, [r6, #12]
 1168 0542 8889     		ldrh	r0, [r1, #12]	@ unaligned
 1169 0544 FFF7FEFF 		bl	lwip_ntohs
 1170              	.LVL108:
 1171 0548 C107     		lsls	r1, r0, #31
 1172 054a 00F12B82 		bmi	.L282
 1173              	.L157:
 1174              		.loc 1 1478 0
 1175 054e A16A     		ldr	r1, [r4, #40]
 1176 0550 A08D     		ldrh	r0, [r4, #44]
 1177 0552 D8F80020 		ldr	r2, [r8, #0]
 1178 0556 2B68     		ldr	r3, [r5, #0]
 1179 0558 0E18     		adds	r6, r1, r0
 1180 055a B11A     		subs	r1, r6, r2
 1181 055c 89B2     		uxth	r1, r1
 1182              		.loc 1 1479 0
 1183 055e 5868     		ldr	r0, [r3, #4]
 1184              		.loc 1 1478 0
 1185 0560 1981     		strh	r1, [r3, #8]	@ movhi
 1186              		.loc 1 1479 0
 1187 0562 FFF7FEFF 		bl	pbuf_realloc
 1188              	.LVL109:
 1189              		.loc 1 1480 0
 1190 0566 2D68     		ldr	r5, [r5, #0]
 1191 0568 E868     		ldr	r0, [r5, #12]
 1192 056a 2D89     		ldrh	r5, [r5, #8]
 1193 056c 8089     		ldrh	r0, [r0, #12]	@ unaligned
 1194 056e FFF7FEFF 		bl	lwip_ntohs
 1195              	.LVL110:
 1196 0572 10F00302 		ands	r2, r0, #3
ARM GAS  C:\Users\jenny\AppData\Local\Temp\ccsinKfR.s 			page 22


 1197 0576 18BF     		it	ne
 1198 0578 0122     		movne	r2, #1
 1199 057a AB18     		adds	r3, r5, r2
 1200              		.loc 1 1481 0
 1201 057c D8F80010 		ldr	r1, [r8, #0]
 1202 0580 A68D     		ldrh	r6, [r4, #44]
 1203 0582 A06A     		ldr	r0, [r4, #40]
 1204              		.loc 1 1480 0
 1205 0584 9BB2     		uxth	r3, r3
 1206              		.loc 1 1481 0
 1207 0586 5918     		adds	r1, r3, r1
 1208 0588 3218     		adds	r2, r6, r0
 1209 058a 9142     		cmp	r1, r2
 1210              		.loc 1 1480 0
 1211 058c A9F80030 		strh	r3, [r9, #0]	@ movhi
 1212              		.loc 1 1481 0
 1213 0590 3FF464AD 		beq	.L49
 1214              		.loc 1 1531 0 discriminator 1
 1215 0594 BDE8F84F 		pop	{r3, r4, r5, r6, r7, r8, r9, sl, fp, lr}
 1216              		.loc 1 1481 0 discriminator 1
 1217 0598 FFF7FEBF 		b	port_halt
 1218              	.LVL111:
 1219              	.L244:
 1220 059c E26E     		ldr	r2, [r4, #108]
 1221 059e F0E6     		b	.L80
 1222              	.L274:
 1223              		.loc 1 1038 0
 1224 05a0 236F     		ldr	r3, [r4, #112]
 1225 05a2 002B     		cmp	r3, #0
 1226 05a4 FAD0     		beq	.L244
 1227              		.loc 1 1041 0
 1228 05a6 0020     		movs	r0, #0
 1229 05a8 E26E     		ldr	r2, [r4, #108]
 1230 05aa A086     		strh	r0, [r4, #52]	@ movhi
 1231 05ac ECE6     		b	.L78
 1232              	.LVL112:
 1233              	.L268:
 1234              		.loc 1 1220 0
 1235 05ae 384F     		ldr	r7, .L291+4
 1236 05b0 F868     		ldr	r0, [r7, #12]
 1237 05b2 3D89     		ldrh	r5, [r7, #8]
 1238 05b4 8089     		ldrh	r0, [r0, #12]	@ unaligned
 1239 05b6 FFF7FEFF 		bl	lwip_ntohs
 1240              	.LVL113:
 1241 05ba 10F00303 		ands	r3, r0, #3
 1242 05be 18BF     		it	ne
 1243 05c0 0123     		movne	r3, #1
 1244 05c2 E918     		adds	r1, r5, r3
 1245              		.loc 1 1222 0
 1246 05c4 A28D     		ldrh	r2, [r4, #44]
 1247              		.loc 1 1220 0
 1248 05c6 88B2     		uxth	r0, r1
 1249              		.loc 1 1222 0
 1250 05c8 8242     		cmp	r2, r0
 1251              		.loc 1 1220 0
 1252 05ca A9F80000 		strh	r0, [r9, #0]	@ movhi
 1253              		.loc 1 1222 0
ARM GAS  C:\Users\jenny\AppData\Local\Temp\ccsinKfR.s 			page 23


 1254 05ce C0F04981 		bcc	.L283
 1255              	.L111:
 1256              		.loc 1 1246 0
 1257 05d2 616F     		ldr	r1, [r4, #116]
 1258 05d4 0029     		cmp	r1, #0
 1259 05d6 68D0     		beq	.L248
 1260              		.loc 1 1247 0
 1261 05d8 FD68     		ldr	r5, [r7, #12]
 1262 05da A889     		ldrh	r0, [r5, #12]	@ unaligned
 1263 05dc FFF7FEFF 		bl	lwip_ntohs
 1264              	.LVL114:
 1265 05e0 C507     		lsls	r5, r0, #31
 1266 05e2 5FD4     		bmi	.L253
 1267              		.loc 1 1259 0
 1268 05e4 666F     		ldr	r6, [r4, #116]
 1269              	.LVL115:
 1270              		.loc 1 1262 0
 1271 05e6 002E     		cmp	r6, #0
 1272 05e8 00F07481 		beq	.L121
 1273              		.loc 1 1263 0
 1274 05ec F268     		ldr	r2, [r6, #12]
 1275 05ee B9F80030 		ldrh	r3, [r9, #0]
 1276 05f2 D2F804E0 		ldr	lr, [r2, #4]	@ unaligned
 1277 05f6 D8F80010 		ldr	r1, [r8, #0]
 1278 05fa 3589     		ldrh	r5, [r6, #8]
 1279 05fc CEEB0300 		rsb	r0, lr, r3
 1280 0600 4018     		adds	r0, r0, r1
 1281 0602 451B     		subs	r5, r0, r5
 1282              		.loc 1 1262 0
 1283 0604 002D     		cmp	r5, #0
 1284 0606 C0F27081 		blt	.L284
 1285              		.loc 1 1267 0
 1286 060a DFF884A0 		ldr	sl, .L291+4
 1287 060e 16E0     		b	.L239
 1288              	.L124:
 1289              	.LVL116:
 1290              		.loc 1 1272 0
 1291 0610 3568     		ldr	r5, [r6, #0]
 1292              	.LVL117:
 1293              		.loc 1 1273 0
 1294 0612 3046     		mov	r0, r6
 1295 0614 FFF7FEFF 		bl	tcp_seg_free
 1296              	.LVL118:
 1297              		.loc 1 1262 0
 1298 0618 002D     		cmp	r5, #0
 1299 061a 00F05B81 		beq	.L121
 1300              		.loc 1 1263 0 discriminator 2
 1301 061e EA68     		ldr	r2, [r5, #12]
 1302 0620 B9F80030 		ldrh	r3, [r9, #0]
 1303 0624 D2F804E0 		ldr	lr, [r2, #4]	@ unaligned
 1304 0628 D8F80010 		ldr	r1, [r8, #0]
 1305 062c 2E89     		ldrh	r6, [r5, #8]
 1306              	.LVL119:
 1307 062e CEEB0300 		rsb	r0, lr, r3
 1308 0632 4018     		adds	r0, r0, r1
 1309 0634 861B     		subs	r6, r0, r6
 1310              		.loc 1 1262 0 discriminator 2
ARM GAS  C:\Users\jenny\AppData\Local\Temp\ccsinKfR.s 			page 24


 1311 0636 002E     		cmp	r6, #0
 1312 0638 C0F25881 		blt	.L122
 1313              		.loc 1 1262 0 is_stmt 0
 1314 063c 2E46     		mov	r6, r5
 1315              	.LVL120:
 1316              	.L239:
 1317              		.loc 1 1266 0 is_stmt 1
 1318 063e 9089     		ldrh	r0, [r2, #12]	@ unaligned
 1319 0640 FFF7FEFF 		bl	lwip_ntohs
 1320              	.LVL121:
 1321 0644 C007     		lsls	r0, r0, #31
 1322 0646 E3D5     		bpl	.L124
 1323              		.loc 1 1267 0 discriminator 1
 1324 0648 FA68     		ldr	r2, [r7, #12]
 1325 064a 9089     		ldrh	r0, [r2, #12]	@ unaligned
 1326 064c FFF7FEFF 		bl	lwip_ntohs
 1327              	.LVL122:
 1328              		.loc 1 1266 0 discriminator 1
 1329 0650 00F00203 		and	r3, r0, #2
 1330 0654 99B2     		uxth	r1, r3
 1331 0656 0029     		cmp	r1, #0
 1332 0658 DAD1     		bne	.L124
 1333              		.loc 1 1268 0
 1334 065a DAF80C50 		ldr	r5, [sl, #12]
 1335 065e 0120     		movs	r0, #1
 1336 0660 B5F80CB0 		ldrh	fp, [r5, #12]	@ unaligned
 1337 0664 FFF7FEFF 		bl	lwip_htons
 1338              	.LVL123:
 1339 0668 40EA0B00 		orr	r0, r0, fp
 1340 066c A881     		strh	r0, [r5, #12]	@ unaligned
 1341              		.loc 1 1269 0
 1342 066e DAF80C20 		ldr	r2, [sl, #12]
 1343 0672 BAF80850 		ldrh	r5, [sl, #8]
 1344 0676 9089     		ldrh	r0, [r2, #12]	@ unaligned
 1345 0678 FFF7FEFF 		bl	lwip_ntohs
 1346              	.LVL124:
 1347 067c 10F00303 		ands	r3, r0, #3
 1348 0680 18BF     		it	ne
 1349 0682 0123     		movne	r3, #1
 1350 0684 E918     		adds	r1, r5, r3
 1351 0686 A9F80010 		strh	r1, [r9, #0]	@ movhi
 1352 068a C1E7     		b	.L124
 1353              	.L292:
 1354              		.align	2
 1355              	.L291:
 1356 068c 00000000 		.word	.LANCHOR0
 1357 0690 00000000 		.word	.LANCHOR5
 1358 0694 00000000 		.word	.LANCHOR1
 1359 0698 00000000 		.word	.LANCHOR4
 1360              	.LVL125:
 1361              	.L207:
 1362              	.LBB3:
 1363              		.loc 1 1255 0
 1364 069c 0568     		ldr	r5, [r0, #0]
 1365 069e 6567     		str	r5, [r4, #116]
 1366              		.loc 1 1256 0
 1367 06a0 FFF7FEFF 		bl	tcp_seg_free
ARM GAS  C:\Users\jenny\AppData\Local\Temp\ccsinKfR.s 			page 25


 1368              	.LVL126:
 1369              	.L253:
 1370              	.LBE3:
 1371              		.loc 1 1253 0
 1372 06a4 606F     		ldr	r0, [r4, #116]
 1373 06a6 0028     		cmp	r0, #0
 1374 06a8 F8D1     		bne	.L207
 1375              	.L248:
 1376 06aa B9F80030 		ldrh	r3, [r9, #0]
 1377 06ae D8F80050 		ldr	r5, [r8, #0]
 1378 06b2 5919     		adds	r1, r3, r5
 1379              	.L117:
 1380              		.loc 1 1298 0
 1381 06b4 A08D     		ldrh	r0, [r4, #44]
 1382              		.loc 1 1295 0
 1383 06b6 A162     		str	r1, [r4, #40]
 1384              		.loc 1 1298 0
 1385 06b8 9842     		cmp	r0, r3
 1386 06ba C0F00581 		bcc	.L285
 1387              	.L130:
 1388              		.loc 1 1299 0
 1389 06be C11A     		subs	r1, r0, r3
 1390 06c0 A185     		strh	r1, [r4, #44]	@ movhi
 1391              		.loc 1 1301 0
 1392 06c2 2046     		mov	r0, r4
 1393 06c4 FFF7FEFF 		bl	tcp_update_rcv_ann_wnd
 1394              	.LVL127:
 1395              		.loc 1 1312 0
 1396 06c8 7B68     		ldr	r3, [r7, #4]
 1397 06ca 1A89     		ldrh	r2, [r3, #8]
 1398 06cc 22B1     		cbz	r2, .L131
 1399              		.loc 1 1313 0
 1400 06ce A84D     		ldr	r5, .L293
 1401              		.loc 1 1317 0
 1402 06d0 A849     		ldr	r1, .L293+4
 1403              		.loc 1 1313 0
 1404 06d2 2B60     		str	r3, [r5, #0]
 1405              		.loc 1 1317 0
 1406 06d4 0020     		movs	r0, #0
 1407 06d6 4860     		str	r0, [r1, #4]
 1408              	.L131:
 1409              		.loc 1 1319 0
 1410 06d8 FB68     		ldr	r3, [r7, #12]
 1411 06da 9889     		ldrh	r0, [r3, #12]	@ unaligned
 1412 06dc FFF7FEFF 		bl	lwip_ntohs
 1413              	.LVL128:
 1414 06e0 C107     		lsls	r1, r0, #31
 1415 06e2 04D5     		bpl	.L132
 1416              		.loc 1 1321 0
 1417 06e4 A44D     		ldr	r5, .L293+8
 1418 06e6 2A78     		ldrb	r2, [r5, #0]	@ zero_extendqisi2
 1419 06e8 42F02000 		orr	r0, r2, #32
 1420 06ec 2870     		strb	r0, [r5, #0]
 1421              	.L132:
 1422              		.loc 1 1327 0 discriminator 1
 1423 06ee 656F     		ldr	r5, [r4, #116]
 1424 06f0 002D     		cmp	r5, #0
ARM GAS  C:\Users\jenny\AppData\Local\Temp\ccsinKfR.s 			page 26


 1425 06f2 67D0     		beq	.L136
 1426              		.loc 1 1328 0
 1427 06f4 EA68     		ldr	r2, [r5, #12]
 1428              		.loc 1 1327 0
 1429 06f6 A16A     		ldr	r1, [r4, #40]
 1430              		.loc 1 1328 0
 1431 06f8 5668     		ldr	r6, [r2, #4]	@ unaligned
 1432              		.loc 1 1327 0
 1433 06fa 8E42     		cmp	r6, r1
 1434 06fc 62D1     		bne	.L136
 1435              		.loc 1 1343 0
 1436 06fe DFF87092 		ldr	r9, .L293
 1437              		.loc 1 1352 0
 1438 0702 9D4F     		ldr	r7, .L293+8
 1439              		.loc 1 1348 0
 1440 0704 4FF0000A 		mov	sl, #0
 1441 0708 35E0     		b	.L206
 1442              	.LVL129:
 1443              	.L137:
 1444              		.loc 1 1336 0
 1445 070a EA68     		ldr	r2, [r5, #12]
 1446 070c B4F82CB0 		ldrh	fp, [r4, #44]
 1447 0710 9089     		ldrh	r0, [r2, #12]	@ unaligned
 1448 0712 2E89     		ldrh	r6, [r5, #8]
 1449 0714 FFF7FEFF 		bl	lwip_ntohs
 1450              	.LVL130:
 1451 0718 10F00300 		ands	r0, r0, #3
 1452 071c 18BF     		it	ne
 1453 071e 0120     		movne	r0, #1
 1454 0720 C6EB0B01 		rsb	r1, r6, fp
 1455 0724 0B1A     		subs	r3, r1, r0
 1456 0726 A385     		strh	r3, [r4, #44]	@ movhi
 1457              		.loc 1 1338 0
 1458 0728 2046     		mov	r0, r4
 1459 072a FFF7FEFF 		bl	tcp_update_rcv_ann_wnd
 1460              	.LVL131:
 1461              		.loc 1 1340 0
 1462 072e 6968     		ldr	r1, [r5, #4]
 1463 0730 0A89     		ldrh	r2, [r1, #8]
 1464 0732 3AB1     		cbz	r2, .L138
 1465              		.loc 1 1343 0
 1466 0734 D9F80000 		ldr	r0, [r9, #0]
 1467 0738 0028     		cmp	r0, #0
 1468 073a 3DD0     		beq	.L139
 1469              		.loc 1 1344 0
 1470 073c FFF7FEFF 		bl	pbuf_cat
 1471              	.LVL132:
 1472              	.L140:
 1473              		.loc 1 1348 0
 1474 0740 C5F804A0 		str	sl, [r5, #4]
 1475              	.L138:
 1476              		.loc 1 1350 0
 1477 0744 E868     		ldr	r0, [r5, #12]
 1478 0746 8089     		ldrh	r0, [r0, #12]	@ unaligned
 1479 0748 FFF7FEFF 		bl	lwip_ntohs
 1480              	.LVL133:
 1481 074c C307     		lsls	r3, r0, #31
ARM GAS  C:\Users\jenny\AppData\Local\Temp\ccsinKfR.s 			page 27


 1482 074e 06D5     		bpl	.L142
 1483              		.loc 1 1352 0
 1484 0750 3978     		ldrb	r1, [r7, #0]	@ zero_extendqisi2
 1485              		.loc 1 1353 0
 1486 0752 237E     		ldrb	r3, [r4, #24]	@ zero_extendqisi2
 1487              		.loc 1 1352 0
 1488 0754 41F02002 		orr	r2, r1, #32
 1489              		.loc 1 1353 0
 1490 0758 042B     		cmp	r3, #4
 1491              		.loc 1 1352 0
 1492 075a 3A70     		strb	r2, [r7, #0]
 1493              		.loc 1 1353 0
 1494 075c 2FD0     		beq	.L286
 1495              	.L142:
 1496              		.loc 1 1358 0
 1497 075e 2968     		ldr	r1, [r5, #0]
 1498              		.loc 1 1359 0
 1499 0760 2846     		mov	r0, r5
 1500              		.loc 1 1358 0
 1501 0762 6167     		str	r1, [r4, #116]
 1502              		.loc 1 1359 0
 1503 0764 FFF7FEFF 		bl	tcp_seg_free
 1504              	.LVL134:
 1505              		.loc 1 1327 0
 1506 0768 656F     		ldr	r5, [r4, #116]
 1507              	.LVL135:
 1508 076a 5DB3     		cbz	r5, .L136
 1509              		.loc 1 1328 0 discriminator 2
 1510 076c EA68     		ldr	r2, [r5, #12]
 1511              		.loc 1 1327 0 discriminator 2
 1512 076e A36A     		ldr	r3, [r4, #40]
 1513              		.loc 1 1328 0 discriminator 2
 1514 0770 5668     		ldr	r6, [r2, #4]	@ unaligned
 1515              		.loc 1 1327 0 discriminator 2
 1516 0772 9E42     		cmp	r6, r3
 1517 0774 26D1     		bne	.L136
 1518              	.L206:
 1519              	.LVL136:
 1520              		.loc 1 1331 0
 1521 0776 C8F80060 		str	r6, [r8, #0]
 1522              		.loc 1 1333 0
 1523 077a 9089     		ldrh	r0, [r2, #12]	@ unaligned
 1524 077c B5F808B0 		ldrh	fp, [r5, #8]
 1525 0780 FFF7FEFF 		bl	lwip_ntohs
 1526              	.LVL137:
 1527 0784 10F00303 		ands	r3, r0, #3
 1528 0788 18BF     		it	ne
 1529 078a 0123     		movne	r3, #1
 1530 078c 0BEB0302 		add	r2, fp, r3
 1531 0790 B618     		adds	r6, r6, r2
 1532              		.loc 1 1334 0
 1533 0792 E868     		ldr	r0, [r5, #12]
 1534              		.loc 1 1333 0
 1535 0794 A662     		str	r6, [r4, #40]
 1536              		.loc 1 1334 0
 1537 0796 8089     		ldrh	r0, [r0, #12]	@ unaligned
 1538 0798 B5F808B0 		ldrh	fp, [r5, #8]
ARM GAS  C:\Users\jenny\AppData\Local\Temp\ccsinKfR.s 			page 28


 1539 079c A68D     		ldrh	r6, [r4, #44]
 1540 079e FFF7FEFF 		bl	lwip_ntohs
 1541              	.LVL138:
 1542 07a2 10F00301 		ands	r1, r0, #3
 1543 07a6 18BF     		it	ne
 1544 07a8 0121     		movne	r1, #1
 1545 07aa 0BEB0103 		add	r3, fp, r1
 1546 07ae 9E42     		cmp	r6, r3
 1547 07b0 ABDA     		bge	.L137
 1548              		.loc 1 1334 0 is_stmt 0 discriminator 1
 1549 07b2 FFF7FEFF 		bl	port_halt
 1550              	.LVL139:
 1551 07b6 A8E7     		b	.L137
 1552              	.L139:
 1553              		.loc 1 1346 0 is_stmt 1
 1554 07b8 C9F80010 		str	r1, [r9, #0]
 1555 07bc C0E7     		b	.L140
 1556              	.L286:
 1557              		.loc 1 1354 0
 1558 07be 0720     		movs	r0, #7
 1559 07c0 2076     		strb	r0, [r4, #24]
 1560 07c2 CCE7     		b	.L142
 1561              	.LVL140:
 1562              	.L136:
 1563              		.loc 1 1365 0
 1564 07c4 A07F     		ldrb	r0, [r4, #30]	@ zero_extendqisi2
 1565 07c6 C207     		lsls	r2, r0, #31
 1566 07c8 41D5     		bpl	.L287
 1567              		.loc 1 1365 0 is_stmt 0 discriminator 1
 1568 07ca 20F00102 		bic	r2, r0, #1
 1569 07ce 42F00203 		orr	r3, r2, #2
 1570 07d2 A377     		strb	r3, [r4, #30]
 1571 07d4 BDE8F88F 		pop	{r3, r4, r5, r6, r7, r8, r9, sl, fp, pc}
 1572              	.L272:
 1573              		.loc 1 1394 0 is_stmt 1
 1574 07d8 6648     		ldr	r0, .L293+4
 1575 07da 2989     		ldrh	r1, [r5, #8]
 1576 07dc 0289     		ldrh	r2, [r0, #8]
 1577 07de 8A42     		cmp	r2, r1
 1578 07e0 7FF63CAC 		bls	.L49
 1579              		.loc 1 1398 0
 1580 07e4 FFF7FEFF 		bl	tcp_seg_copy
 1581              	.LVL141:
 1582              		.loc 1 1399 0
 1583 07e8 0028     		cmp	r0, #0
 1584 07ea 3FF437AC 		beq	.L49
 1585              		.loc 1 1400 0
 1586 07ee 002E     		cmp	r6, #0
 1587 07f0 00F0D680 		beq	.L150
 1588              		.loc 1 1401 0
 1589 07f4 3060     		str	r0, [r6, #0]
 1590 07f6 4EE5     		b	.L249
 1591              	.LVL142:
 1592              	.L100:
 1593              		.loc 1 1193 0
 1594 07f8 CAF10001 		rsb	r1, sl, #0
 1595 07fc 09B2     		sxth	r1, r1
ARM GAS  C:\Users\jenny\AppData\Local\Temp\ccsinKfR.s 			page 29


 1596 07fe FFF7FEFF 		bl	pbuf_header
 1597              	.LVL143:
 1598 0802 0028     		cmp	r0, #0
 1599 0804 3FF430AE 		beq	.L105
 1600              	.L104:
 1601              		.loc 1 1190 0 discriminator 1
 1602 0808 FFF7FEFF 		bl	port_halt
 1603              	.LVL144:
 1604 080c 2CE6     		b	.L105
 1605              	.L280:
 1606              		.loc 1 1175 0 discriminator 1
 1607 080e FFF7FEFF 		bl	port_halt
 1608              	.LVL145:
 1609 0812 0AE6     		b	.L99
 1610              	.LVL146:
 1611              	.L270:
 1612              		.loc 1 1437 0
 1613 0814 5748     		ldr	r0, .L293+4
 1614 0816 FFF7FEFF 		bl	tcp_seg_copy
 1615              	.LVL147:
 1616              		.loc 1 1438 0
 1617 081a 0446     		mov	r4, r0
 1618              	.LVL148:
 1619 081c 0028     		cmp	r0, #0
 1620 081e 3FF41DAC 		beq	.L49
 1621              		.loc 1 1439 0
 1622 0822 F068     		ldr	r0, [r6, #12]
 1623              	.LVL149:
 1624 0824 3189     		ldrh	r1, [r6, #8]
 1625 0826 D8F80020 		ldr	r2, [r8, #0]
 1626 082a 4368     		ldr	r3, [r0, #4]	@ unaligned
 1627 082c 881A     		subs	r0, r1, r2
 1628 082e C118     		adds	r1, r0, r3
 1629 0830 0029     		cmp	r1, #0
 1630 0832 05DD     		ble	.L154
 1631              		.loc 1 1441 0
 1632 0834 D21A     		subs	r2, r2, r3
 1633 0836 91B2     		uxth	r1, r2
 1634 0838 3181     		strh	r1, [r6, #8]	@ movhi
 1635              		.loc 1 1442 0
 1636 083a 7068     		ldr	r0, [r6, #4]
 1637 083c FFF7FEFF 		bl	pbuf_realloc
 1638              	.LVL150:
 1639              	.L154:
 1640              		.loc 1 1445 0
 1641 0840 2046     		mov	r0, r4
 1642 0842 2946     		mov	r1, r5
 1643              		.loc 1 1444 0
 1644 0844 3460     		str	r4, [r6, #0]
 1645              		.loc 1 1531 0
 1646 0846 BDE8F84F 		pop	{r3, r4, r5, r6, r7, r8, r9, sl, fp, lr}
 1647              		.loc 1 1445 0
 1648 084a FFF7FEBF 		b	tcp_oos_insert_segment
 1649              	.LVL151:
 1650              	.L287:
 1651              		.loc 1 1365 0 discriminator 2
 1652 084e 40F00101 		orr	r1, r0, #1
ARM GAS  C:\Users\jenny\AppData\Local\Temp\ccsinKfR.s 			page 30


 1653 0852 A177     		strb	r1, [r4, #30]
 1654 0854 BDE8F88F 		pop	{r3, r4, r5, r6, r7, r8, r9, sl, fp, pc}
 1655              	.LVL152:
 1656              	.L281:
 1657              		.loc 1 1177 0 discriminator 1
 1658 0858 FFF7FEFF 		bl	port_halt
 1659              	.LVL153:
 1660 085c 4548     		ldr	r0, .L293+4
 1661 085e 4368     		ldr	r3, [r0, #4]
 1662 0860 1A89     		ldrh	r2, [r3, #8]
 1663 0862 EBE5     		b	.L101
 1664              	.LVL154:
 1665              	.L283:
 1666              		.loc 1 1227 0
 1667 0864 FE68     		ldr	r6, [r7, #12]
 1668 0866 B089     		ldrh	r0, [r6, #12]	@ unaligned
 1669 0868 FFF7FEFF 		bl	lwip_ntohs
 1670              	.LVL155:
 1671 086c C607     		lsls	r6, r0, #31
 1672 086e 00F18980 		bmi	.L288
 1673              	.L112:
 1674              		.loc 1 1233 0
 1675 0872 A18D     		ldrh	r1, [r4, #44]
 1676              		.loc 1 1234 0
 1677 0874 FA68     		ldr	r2, [r7, #12]
 1678              		.loc 1 1233 0
 1679 0876 3981     		strh	r1, [r7, #8]	@ movhi
 1680              		.loc 1 1234 0
 1681 0878 9089     		ldrh	r0, [r2, #12]	@ unaligned
 1682              		.loc 1 1233 0
 1683 087a 3E4D     		ldr	r5, .L293+4
 1684              		.loc 1 1234 0
 1685 087c FFF7FEFF 		bl	lwip_ntohs
 1686              	.LVL156:
 1687 0880 00F00200 		and	r0, r0, #2
 1688 0884 86B2     		uxth	r6, r0
 1689              		.loc 1 1235 0
 1690 0886 2989     		ldrh	r1, [r5, #8]
 1691              		.loc 1 1234 0
 1692 0888 16B1     		cbz	r6, .L114
 1693              		.loc 1 1235 0
 1694 088a 4B1E     		subs	r3, r1, #1
 1695 088c 99B2     		uxth	r1, r3
 1696 088e 2981     		strh	r1, [r5, #8]	@ movhi
 1697              	.L114:
 1698              		.loc 1 1237 0
 1699 0890 7868     		ldr	r0, [r7, #4]
 1700 0892 FFF7FEFF 		bl	pbuf_realloc
 1701              	.LVL157:
 1702              		.loc 1 1238 0
 1703 0896 F968     		ldr	r1, [r7, #12]
 1704 0898 3D89     		ldrh	r5, [r7, #8]
 1705 089a 8889     		ldrh	r0, [r1, #12]	@ unaligned
 1706 089c FFF7FEFF 		bl	lwip_ntohs
 1707              	.LVL158:
 1708 08a0 10F00302 		ands	r2, r0, #3
 1709 08a4 18BF     		it	ne
ARM GAS  C:\Users\jenny\AppData\Local\Temp\ccsinKfR.s 			page 31


 1710 08a6 0122     		movne	r2, #1
 1711 08a8 A818     		adds	r0, r5, r2
 1712              		.loc 1 1239 0
 1713 08aa D8F80010 		ldr	r1, [r8, #0]
 1714 08ae A68D     		ldrh	r6, [r4, #44]
 1715 08b0 A56A     		ldr	r5, [r4, #40]
 1716              		.loc 1 1238 0
 1717 08b2 83B2     		uxth	r3, r0
 1718              		.loc 1 1239 0
 1719 08b4 5818     		adds	r0, r3, r1
 1720 08b6 7219     		adds	r2, r6, r5
 1721 08b8 9042     		cmp	r0, r2
 1722              		.loc 1 1238 0
 1723 08ba A9F80030 		strh	r3, [r9, #0]	@ movhi
 1724              		.loc 1 1239 0
 1725 08be 3FF488AE 		beq	.L111
 1726              		.loc 1 1239 0 is_stmt 0 discriminator 1
 1727 08c2 FFF7FEFF 		bl	port_halt
 1728              	.LVL159:
 1729 08c6 84E6     		b	.L111
 1730              	.L285:
 1731              		.loc 1 1298 0 is_stmt 1 discriminator 1
 1732 08c8 FFF7FEFF 		bl	port_halt
 1733              	.LVL160:
 1734 08cc A08D     		ldrh	r0, [r4, #44]
 1735 08ce B9F80030 		ldrh	r3, [r9, #0]
 1736 08d2 F4E6     		b	.L130
 1737              	.L121:
 1738 08d4 B9F80030 		ldrh	r3, [r9, #0]
 1739 08d8 D8F80000 		ldr	r0, [r8, #0]
 1740              		.loc 1 1262 0
 1741 08dc 0025     		movs	r5, #0
 1742 08de 1918     		adds	r1, r3, r0
 1743              	.L129:
 1744              		.loc 1 1290 0
 1745 08e0 6567     		str	r5, [r4, #116]
 1746 08e2 E7E6     		b	.L117
 1747              	.LVL161:
 1748              	.L277:
 1749              		.loc 1 1031 0 discriminator 2
 1750 08e4 FFF7FEFF 		bl	port_halt
 1751              	.LVL162:
 1752 08e8 0EE5     		b	.L243
 1753              	.LVL163:
 1754              	.L284:
 1755              		.loc 1 1262 0
 1756 08ea 3546     		mov	r5, r6
 1757              	.LVL164:
 1758              	.L122:
 1759              		.loc 1 1277 0
 1760 08ec 0028     		cmp	r0, #0
 1761 08ee 2CDD     		ble	.L246
 1762              		.loc 1 1281 0
 1763 08f0 C1EB0E01 		rsb	r1, r1, lr
 1764              		.loc 1 1282 0
 1765 08f4 FB68     		ldr	r3, [r7, #12]
 1766              		.loc 1 1281 0
ARM GAS  C:\Users\jenny\AppData\Local\Temp\ccsinKfR.s 			page 32


 1767 08f6 3981     		strh	r1, [r7, #8]	@ movhi
 1768              		.loc 1 1282 0
 1769 08f8 9889     		ldrh	r0, [r3, #12]	@ unaligned
 1770              		.loc 1 1281 0
 1771 08fa 1E4E     		ldr	r6, .L293+4
 1772              		.loc 1 1282 0
 1773 08fc FFF7FEFF 		bl	lwip_ntohs
 1774              	.LVL165:
 1775 0900 00F00202 		and	r2, r0, #2
 1776 0904 90B2     		uxth	r0, r2
 1777              		.loc 1 1283 0
 1778 0906 3189     		ldrh	r1, [r6, #8]
 1779              		.loc 1 1282 0
 1780 0908 10B1     		cbz	r0, .L128
 1781              		.loc 1 1283 0
 1782 090a 0139     		subs	r1, r1, #1
 1783 090c 89B2     		uxth	r1, r1
 1784 090e 3181     		strh	r1, [r6, #8]	@ movhi
 1785              	.L128:
 1786              		.loc 1 1285 0
 1787 0910 7868     		ldr	r0, [r7, #4]
 1788 0912 FFF7FEFF 		bl	pbuf_realloc
 1789              	.LVL166:
 1790              		.loc 1 1286 0
 1791 0916 FB68     		ldr	r3, [r7, #12]
 1792 0918 3E89     		ldrh	r6, [r7, #8]
 1793 091a 9889     		ldrh	r0, [r3, #12]	@ unaligned
 1794 091c FFF7FEFF 		bl	lwip_ntohs
 1795              	.LVL167:
 1796 0920 10F00302 		ands	r2, r0, #3
 1797 0924 18BF     		it	ne
 1798 0926 0122     		movne	r2, #1
 1799 0928 B018     		adds	r0, r6, r2
 1800 092a 83B2     		uxth	r3, r0
 1801              		.loc 1 1287 0
 1802 092c EA68     		ldr	r2, [r5, #12]
 1803              		.loc 1 1286 0
 1804 092e A9F80030 		strh	r3, [r9, #0]	@ movhi
 1805              		.loc 1 1287 0
 1806 0932 D8F80010 		ldr	r1, [r8, #0]
 1807 0936 5068     		ldr	r0, [r2, #4]	@ unaligned
 1808 0938 5918     		adds	r1, r3, r1
 1809 093a 8142     		cmp	r1, r0
 1810 093c D0D0     		beq	.L129
 1811              		.loc 1 1287 0 is_stmt 0 discriminator 1
 1812 093e FFF7FEFF 		bl	port_halt
 1813              	.LVL168:
 1814 0942 0E4B     		ldr	r3, .L293+12
 1815 0944 0E4A     		ldr	r2, .L293+16
 1816 0946 1B88     		ldrh	r3, [r3, #0]
 1817 0948 1168     		ldr	r1, [r2, #0]
 1818              	.L246:
 1819 094a 5918     		adds	r1, r3, r1
 1820 094c C8E7     		b	.L129
 1821              	.LVL169:
 1822              	.L279:
 1823              		.loc 1 1174 0 is_stmt 1 discriminator 1
ARM GAS  C:\Users\jenny\AppData\Local\Temp\ccsinKfR.s 			page 33


 1824 094e FFF7FEFF 		bl	port_halt
 1825              	.LVL170:
 1826 0952 65E5     		b	.L98
 1827              	.LVL171:
 1828              	.L269:
 1829              		.loc 1 1373 0
 1830 0954 0748     		ldr	r0, .L293+4
 1831 0956 FFF7FEFF 		bl	tcp_seg_copy
 1832              	.LVL172:
 1833 095a 6067     		str	r0, [r4, #116]
 1834 095c BDE8F88F 		pop	{r3, r4, r5, r6, r7, r8, r9, sl, fp, pc}
 1835              	.LVL173:
 1836              	.L63:
 1837              		.loc 1 944 0
 1838 0960 02D1     		bne	.L241
 1839              		.loc 1 946 0
 1840 0962 2046     		mov	r0, r4
 1841 0964 FFF7FEFF 		bl	tcp_rexmit_fast
 1842              	.LVL174:
 1843              	.L241:
 1844 0968 E26E     		ldr	r2, [r4, #108]
 1845 096a FFF79EBB 		b	.L81
 1846              	.L294:
 1847 096e 00BF     		.align	2
 1848              	.L293:
 1849 0970 00000000 		.word	.LANCHOR6
 1850 0974 00000000 		.word	.LANCHOR5
 1851 0978 00000000 		.word	.LANCHOR7
 1852 097c 00000000 		.word	.LANCHOR4
 1853 0980 00000000 		.word	.LANCHOR1
 1854              	.LVL175:
 1855              	.L288:
 1856              		.loc 1 1230 0
 1857 0984 FD68     		ldr	r5, [r7, #12]
 1858 0986 AE89     		ldrh	r6, [r5, #12]	@ unaligned
 1859 0988 3046     		mov	r0, r6
 1860 098a FFF7FEFF 		bl	lwip_ntohs
 1861              	.LVL176:
 1862 098e 00F03E00 		and	r0, r0, #62
 1863 0992 FFF7FEFF 		bl	lwip_htons
 1864              	.LVL177:
 1865 0996 26F47C53 		bic	r3, r6, #16128
 1866 099a 1843     		orrs	r0, r0, r3
 1867 099c A881     		strh	r0, [r5, #12]	@ unaligned
 1868 099e 68E7     		b	.L112
 1869              	.LVL178:
 1870              	.L150:
 1871              		.loc 1 1403 0
 1872 09a0 6067     		str	r0, [r4, #116]
 1873 09a2 78E4     		b	.L249
 1874              	.LVL179:
 1875              	.L282:
 1876              		.loc 1 1475 0
 1877 09a4 2F68     		ldr	r7, [r5, #0]
 1878 09a6 FE68     		ldr	r6, [r7, #12]
 1879 09a8 B789     		ldrh	r7, [r6, #12]	@ unaligned
 1880 09aa 3846     		mov	r0, r7
ARM GAS  C:\Users\jenny\AppData\Local\Temp\ccsinKfR.s 			page 34


 1881 09ac FFF7FEFF 		bl	lwip_ntohs
 1882              	.LVL180:
 1883 09b0 00F03E00 		and	r0, r0, #62
 1884 09b4 FFF7FEFF 		bl	lwip_htons
 1885              	.LVL181:
 1886 09b8 27F47C57 		bic	r7, r7, #16128
 1887 09bc 3843     		orrs	r0, r0, r7
 1888 09be B081     		strh	r0, [r6, #12]	@ unaligned
 1889 09c0 C5E5     		b	.L157
 1890              		.cfi_endproc
 1891              	.LFE12:
 1892              		.size	tcp_receive, .-tcp_receive
 1893 09c2 00BFAFF3 		.section	.text.tcp_input,"ax",%progbits
 1893      0080AFF3 
 1893      0080AFF3 
 1893      0080
 1894              		.align	2
 1895              		.p2align 4,,15
 1896              		.global	tcp_input
 1897              		.thumb
 1898              		.thumb_func
 1899              		.type	tcp_input, %function
 1900              	tcp_input:
 1901              	.LFB7:
 1902              		.loc 1 93 0
 1903              		.cfi_startproc
 1904              		@ args = 0, pretend = 0, frame = 0
 1905              		@ frame_needed = 0, uses_anonymous_args = 0
 1906              	.LVL182:
 1907 0000 2DE9F04F 		push	{r4, r5, r6, r7, r8, r9, sl, fp, lr}
 1908              	.LCFI3:
 1909              		.cfi_def_cfa_offset 36
 1910              		.cfi_offset 4, -36
 1911              		.cfi_offset 5, -32
 1912              		.cfi_offset 6, -28
 1913              		.cfi_offset 7, -24
 1914              		.cfi_offset 8, -20
 1915              		.cfi_offset 9, -16
 1916              		.cfi_offset 10, -12
 1917              		.cfi_offset 11, -8
 1918              		.cfi_offset 14, -4
 1919              		.loc 1 105 0
 1920 0004 994C     		ldr	r4, .L540
 1921              		.loc 1 108 0
 1922 0006 4368     		ldr	r3, [r0, #4]
 1923              		.loc 1 105 0
 1924 0008 B4F89220 		ldrh	r2, [r4, #146]
 1925              		.loc 1 109 0
 1926 000c 984E     		ldr	r6, .L540+4
 1927              		.loc 1 105 0
 1928 000e 571C     		adds	r7, r2, #1
 1929 0010 A4F89270 		strh	r7, [r4, #146]	@ movhi
 1930              		.loc 1 109 0
 1931 0014 1A78     		ldrb	r2, [r3, #0]	@ zero_extendqisi2
 1932              		.loc 1 108 0
 1933 0016 974F     		ldr	r7, .L540+8
 1934              		.loc 1 109 0
ARM GAS  C:\Users\jenny\AppData\Local\Temp\ccsinKfR.s 			page 35


 1935 0018 02F00F02 		and	r2, r2, #15
 1936              		.loc 1 116 0
 1937 001c 4FEA820E 		lsl	lr, r2, #2
 1938              		.loc 1 108 0
 1939 0020 3B60     		str	r3, [r7, #0]
 1940              		.loc 1 93 0
 1941 0022 83B0     		sub	sp, sp, #12
 1942              	.LCFI4:
 1943              		.cfi_def_cfa_offset 48
 1944              		.loc 1 93 0
 1945 0024 0F46     		mov	r7, r1
 1946              		.loc 1 109 0
 1947 0026 03EB8203 		add	r3, r3, r2, lsl #2
 1948              		.loc 1 116 0
 1949 002a CEF10001 		rsb	r1, lr, #0
 1950              	.LVL183:
 1951              		.loc 1 93 0
 1952 002e 0546     		mov	r5, r0
 1953              		.loc 1 109 0
 1954 0030 3360     		str	r3, [r6, #0]
 1955              		.loc 1 116 0
 1956 0032 FFF7FEFF 		bl	pbuf_header
 1957              	.LVL184:
 1958 0036 10B9     		cbnz	r0, .L517
 1959              		.loc 1 116 0 is_stmt 0 discriminator 1
 1960 0038 2889     		ldrh	r0, [r5, #8]
 1961 003a 1328     		cmp	r0, #19
 1962 003c 0FD8     		bhi	.L297
 1963              	.L517:
 1964              		.loc 1 151 0 is_stmt 1
 1965 003e B4F89A30 		ldrh	r3, [r4, #154]
 1966 0042 581C     		adds	r0, r3, #1
 1967 0044 A4F89A00 		strh	r0, [r4, #154]	@ movhi
 1968              	.L298:
 1969              		.loc 1 422 0
 1970 0048 B4F89610 		ldrh	r1, [r4, #150]
 1971              		.loc 1 424 0
 1972 004c 2846     		mov	r0, r5
 1973              		.loc 1 422 0
 1974 004e 4A1C     		adds	r2, r1, #1
 1975 0050 A4F89620 		strh	r2, [r4, #150]	@ movhi
 1976              		.loc 1 425 0
 1977 0054 03B0     		add	sp, sp, #12
 1978 0056 BDE8F04F 		pop	{r4, r5, r6, r7, r8, r9, sl, fp, lr}
 1979              		.loc 1 424 0
 1980 005a FFF7FEBF 		b	pbuf_free
 1981              	.LVL185:
 1982              	.L297:
 1983              		.loc 1 124 0
 1984 005e DFF82882 		ldr	r8, .L540+28
 1985 0062 3946     		mov	r1, r7
 1986 0064 D8F80000 		ldr	r0, [r8, #0]
 1987 0068 FFF7FEFF 		bl	ip4_addr_isbroadcast
 1988              	.LVL186:
 1989 006c A0B9     		cbnz	r0, .L299
 1990              		.loc 1 125 0 discriminator 1
 1991 006e D8F80010 		ldr	r1, [r8, #0]
ARM GAS  C:\Users\jenny\AppData\Local\Temp\ccsinKfR.s 			page 36


 1992 0072 01F0F002 		and	r2, r1, #240
 1993              		.loc 1 124 0 discriminator 1
 1994 0076 E02A     		cmp	r2, #224
 1995 0078 0ED0     		beq	.L299
 1996              		.loc 1 132 0
 1997 007a 2B89     		ldrh	r3, [r5, #8]
 1998 007c 7E49     		ldr	r1, .L540+12
 1999 007e 0093     		str	r3, [sp, #0]
 2000 0080 2846     		mov	r0, r5
 2001 0082 4246     		mov	r2, r8
 2002 0084 0623     		movs	r3, #6
 2003 0086 FFF7FEFF 		bl	inet_chksum_pseudo
 2004              	.LVL187:
 2005 008a 58B1     		cbz	r0, .L301
 2006              		.loc 1 140 0
 2007 008c B4F89830 		ldrh	r3, [r4, #152]
 2008 0090 581C     		adds	r0, r3, #1
 2009 0092 A4F89800 		strh	r0, [r4, #152]	@ movhi
 2010              		.loc 1 141 0
 2011 0096 D7E7     		b	.L298
 2012              	.L299:
 2013              		.loc 1 126 0
 2014 0098 B4F8A010 		ldrh	r1, [r4, #160]
 2015 009c 4A1C     		adds	r2, r1, #1
 2016 009e A4F8A020 		strh	r2, [r4, #160]	@ movhi
 2017              		.loc 1 127 0
 2018 00a2 D1E7     		b	.L298
 2019              	.L301:
 2020              		.loc 1 147 0
 2021 00a4 3068     		ldr	r0, [r6, #0]
 2022 00a6 8089     		ldrh	r0, [r0, #12]	@ unaligned
 2023 00a8 FFF7FEFF 		bl	lwip_ntohs
 2024              	.LVL188:
 2025              		.loc 1 148 0
 2026 00ac C0F30731 		ubfx	r1, r0, #12, #8
 2027 00b0 C1EB8132 		rsb	r2, r1, r1, lsl #14
 2028 00b4 9300     		lsls	r3, r2, #2
 2029 00b6 2846     		mov	r0, r5
 2030              	.LVL189:
 2031 00b8 19B2     		sxth	r1, r3
 2032 00ba FFF7FEFF 		bl	pbuf_header
 2033              	.LVL190:
 2034 00be 8146     		mov	r9, r0
 2035 00c0 0028     		cmp	r0, #0
 2036 00c2 BCD1     		bne	.L517
 2037              		.loc 1 156 0
 2038 00c4 3768     		ldr	r7, [r6, #0]
 2039              	.LVL191:
 2040              		.loc 1 159 0
 2041 00c6 DFF8C4A1 		ldr	sl, .L540+32
 2042              		.loc 1 156 0
 2043 00ca 3888     		ldrh	r0, [r7, #0]	@ unaligned
 2044 00cc FFF7FEFF 		bl	lwip_ntohs
 2045              	.LVL192:
 2046 00d0 3880     		strh	r0, [r7, #0]	@ unaligned
 2047              		.loc 1 157 0
 2048 00d2 3768     		ldr	r7, [r6, #0]
ARM GAS  C:\Users\jenny\AppData\Local\Temp\ccsinKfR.s 			page 37


 2049 00d4 7888     		ldrh	r0, [r7, #2]	@ unaligned
 2050 00d6 FFF7FEFF 		bl	lwip_ntohs
 2051              	.LVL193:
 2052 00da 7880     		strh	r0, [r7, #2]	@ unaligned
 2053              		.loc 1 158 0
 2054 00dc 3768     		ldr	r7, [r6, #0]
 2055 00de 7868     		ldr	r0, [r7, #4]	@ unaligned
 2056 00e0 FFF7FEFF 		bl	lwip_ntohl
 2057              	.LVL194:
 2058 00e4 40F20001 		movw	r1, #:lower16:.LANCHOR1
 2059 00e8 C0F20001 		movt	r1, #:upper16:.LANCHOR1
 2060 00ec 7860     		str	r0, [r7, #4]	@ unaligned
 2061              		.loc 1 159 0
 2062 00ee 3768     		ldr	r7, [r6, #0]
 2063              		.loc 1 158 0
 2064 00f0 0860     		str	r0, [r1, #0]
 2065              		.loc 1 159 0
 2066 00f2 B868     		ldr	r0, [r7, #8]	@ unaligned
 2067 00f4 FFF7FEFF 		bl	lwip_ntohl
 2068              	.LVL195:
 2069 00f8 B860     		str	r0, [r7, #8]	@ unaligned
 2070              		.loc 1 160 0
 2071 00fa 3768     		ldr	r7, [r6, #0]
 2072              		.loc 1 159 0
 2073 00fc CAF80000 		str	r0, [sl, #0]
 2074              		.loc 1 160 0
 2075 0100 F889     		ldrh	r0, [r7, #14]	@ unaligned
 2076 0102 FFF7FEFF 		bl	lwip_ntohs
 2077              	.LVL196:
 2078 0106 F881     		strh	r0, [r7, #14]	@ unaligned
 2079              		.loc 1 162 0
 2080 0108 3068     		ldr	r0, [r6, #0]
 2081 010a 8089     		ldrh	r0, [r0, #12]	@ unaligned
 2082 010c FFF7FEFF 		bl	lwip_ntohs
 2083              	.LVL197:
 2084              		.loc 1 170 0
 2085 0110 40F20001 		movw	r1, #:lower16:tcp_active_pcbs
 2086              		.loc 1 163 0
 2087 0114 10F00303 		ands	r3, r0, #3
 2088 0118 2A89     		ldrh	r2, [r5, #8]
 2089              		.loc 1 170 0
 2090 011a C0F20001 		movt	r1, #:upper16:tcp_active_pcbs
 2091              		.loc 1 163 0
 2092 011e 18BF     		it	ne
 2093 0120 0123     		movne	r3, #1
 2094              		.loc 1 170 0
 2095 0122 0F68     		ldr	r7, [r1, #0]
 2096              		.loc 1 163 0
 2097 0124 9B18     		adds	r3, r3, r2
 2098 0126 40F20001 		movw	r1, #:lower16:.LANCHOR4
 2099              		.loc 1 162 0
 2100 012a 40F20002 		movw	r2, #:lower16:.LANCHOR2
 2101 012e C0F20002 		movt	r2, #:upper16:.LANCHOR2
 2102              		.loc 1 163 0
 2103 0132 C0F20001 		movt	r1, #:upper16:.LANCHOR4
 2104              		.loc 1 162 0
 2105 0136 00F03F00 		and	r0, r0, #63
ARM GAS  C:\Users\jenny\AppData\Local\Temp\ccsinKfR.s 			page 38


 2106 013a 1070     		strb	r0, [r2, #0]
 2107              		.loc 1 163 0
 2108 013c 0B80     		strh	r3, [r1, #0]	@ movhi
 2109              	.LVL198:
 2110              		.loc 1 170 0
 2111 013e 002F     		cmp	r7, #0
 2112 0140 00F08B80 		beq	.L303
 2113              		.loc 1 176 0
 2114 0144 DFF830B1 		ldr	fp, .L540+12
 2115 0148 0EE0     		b	.L311
 2116              	.LVL199:
 2117              	.L304:
 2118              		.loc 1 172 0
 2119 014a 0A28     		cmp	r0, #10
 2120 014c 00F08180 		beq	.L522
 2121              	.L305:
 2122              		.loc 1 173 0
 2123 0150 0128     		cmp	r0, #1
 2124 0152 7BD0     		beq	.L523
 2125              	.L306:
 2126              		.loc 1 174 0
 2127 0154 3368     		ldr	r3, [r6, #0]
 2128 0156 B98B     		ldrh	r1, [r7, #28]
 2129 0158 1A88     		ldrh	r2, [r3, #0]	@ unaligned
 2130 015a 9142     		cmp	r1, r2
 2131 015c 0BD0     		beq	.L524
 2132              	.L307:
 2133              	.LVL200:
 2134              		.loc 1 170 0
 2135 015e F968     		ldr	r1, [r7, #12]
 2136              	.LVL201:
 2137 0160 B946     		mov	r9, r7
 2138 0162 0029     		cmp	r1, #0
 2139 0164 79D0     		beq	.L303
 2140 0166 0F46     		mov	r7, r1
 2141              	.LVL202:
 2142              	.L311:
 2143              		.loc 1 171 0
 2144 0168 387E     		ldrb	r0, [r7, #24]	@ zero_extendqisi2
 2145 016a 0028     		cmp	r0, #0
 2146 016c EDD1     		bne	.L304
 2147              		.loc 1 171 0 is_stmt 0 discriminator 1
 2148 016e FFF7FEFF 		bl	port_halt
 2149              	.LVL203:
 2150 0172 387E     		ldrb	r0, [r7, #24]	@ zero_extendqisi2
 2151 0174 E9E7     		b	.L304
 2152              	.L524:
 2153              		.loc 1 174 0 is_stmt 1 discriminator 1
 2154 0176 788B     		ldrh	r0, [r7, #26]
 2155 0178 5B88     		ldrh	r3, [r3, #2]	@ unaligned
 2156 017a 9842     		cmp	r0, r3
 2157 017c EFD1     		bne	.L307
 2158              		.loc 1 175 0
 2159 017e 7968     		ldr	r1, [r7, #4]
 2160 0180 DBF80020 		ldr	r2, [fp, #0]
 2161 0184 9142     		cmp	r1, r2
 2162 0186 EAD1     		bne	.L307
ARM GAS  C:\Users\jenny\AppData\Local\Temp\ccsinKfR.s 			page 39


 2163              		.loc 1 176 0
 2164 0188 3868     		ldr	r0, [r7, #0]
 2165 018a D8F80030 		ldr	r3, [r8, #0]
 2166 018e 9842     		cmp	r0, r3
 2167 0190 E5D1     		bne	.L307
 2168              		.loc 1 182 0
 2169 0192 FB68     		ldr	r3, [r7, #12]
 2170 0194 BB42     		cmp	r3, r7
 2171 0196 00F09883 		beq	.L525
 2172              	.L308:
 2173              		.loc 1 183 0
 2174 019a B9F1000F 		cmp	r9, #0
 2175 019e 09D0     		beq	.L309
 2176              		.loc 1 185 0
 2177 01a0 40F20000 		movw	r0, #:lower16:tcp_active_pcbs
 2178 01a4 C0F20000 		movt	r0, #:upper16:tcp_active_pcbs
 2179              		.loc 1 184 0
 2180 01a8 C9F80C30 		str	r3, [r9, #12]
 2181              		.loc 1 185 0
 2182 01ac 0268     		ldr	r2, [r0, #0]
 2183              		.loc 1 186 0
 2184 01ae 0760     		str	r7, [r0, #0]
 2185              		.loc 1 185 0
 2186 01b0 FA60     		str	r2, [r7, #12]
 2187 01b2 1346     		mov	r3, r2
 2188              	.L309:
 2189              		.loc 1 188 0
 2190 01b4 BB42     		cmp	r3, r7
 2191 01b6 00F06984 		beq	.L526
 2192              	.L310:
 2193              		.loc 1 288 0
 2194 01ba 40F20001 		movw	r1, #:lower16:.LANCHOR2
 2195 01be C0F20001 		movt	r1, #:upper16:.LANCHOR2
 2196              		.loc 1 280 0
 2197 01c2 DFF8BCB0 		ldr	fp, .L540+20
 2198              		.loc 1 288 0
 2199 01c6 0878     		ldrb	r0, [r1, #0]	@ zero_extendqisi2
 2200              		.loc 1 281 0
 2201 01c8 2B89     		ldrh	r3, [r5, #8]
 2202              		.loc 1 283 0
 2203 01ca 3268     		ldr	r2, [r6, #0]
 2204              		.loc 1 285 0
 2205 01cc DFF8C090 		ldr	r9, .L540+36
 2206              		.loc 1 286 0
 2207 01d0 DFF8C080 		ldr	r8, .L540+40
 2208              		.loc 1 281 0
 2209 01d4 ABF80830 		strh	r3, [fp, #8]	@ movhi
 2210              		.loc 1 288 0
 2211 01d8 00F00801 		and	r1, r0, #8
 2212              		.loc 1 280 0
 2213 01dc 0023     		movs	r3, #0
 2214              		.loc 1 288 0
 2215 01de C8B2     		uxtb	r0, r1
 2216              		.loc 1 282 0
 2217 01e0 8BE82800 		stmia	fp, {r3, r5}
 2218              		.loc 1 283 0
 2219 01e4 CBF80C20 		str	r2, [fp, #12]
ARM GAS  C:\Users\jenny\AppData\Local\Temp\ccsinKfR.s 			page 40


 2220              		.loc 1 285 0
 2221 01e8 C9F80030 		str	r3, [r9, #0]
 2222              		.loc 1 286 0
 2223 01ec 88F80030 		strb	r3, [r8, #0]
 2224              		.loc 1 288 0
 2225 01f0 18B1     		cbz	r0, .L399
 2226              		.loc 1 289 0
 2227 01f2 6B7B     		ldrb	r3, [r5, #13]	@ zero_extendqisi2
 2228 01f4 43F00102 		orr	r2, r3, #1
 2229 01f8 6A73     		strb	r2, [r5, #13]
 2230              	.L399:
 2231              		.loc 1 293 0
 2232 01fa BD6F     		ldr	r5, [r7, #120]
 2233              	.LVL204:
 2234 01fc 002D     		cmp	r5, #0
 2235 01fe 00F09680 		beq	.L327
 2236              		.loc 1 294 0
 2237 0202 3846     		mov	r0, r7
 2238 0204 FFF7FEFF 		bl	tcp_process_refused_data
 2239              	.LVL205:
 2240 0208 0A30     		adds	r0, r0, #10
 2241 020a 0BD0     		beq	.L328
 2242              		.loc 1 294 0 is_stmt 0 discriminator 1
 2243 020c B96F     		ldr	r1, [r7, #120]
 2244 020e 0029     		cmp	r1, #0
 2245 0210 00F08D80 		beq	.L327
 2246              		.loc 1 295 0 is_stmt 1
 2247 0214 40F20000 		movw	r0, #:lower16:.LANCHOR4
 2248 0218 C0F20000 		movt	r0, #:upper16:.LANCHOR4
 2249 021c 0388     		ldrh	r3, [r0, #0]
 2250 021e 002B     		cmp	r3, #0
 2251 0220 00F08580 		beq	.L327
 2252              	.L328:
 2253              		.loc 1 298 0
 2254 0224 B4F89600 		ldrh	r0, [r4, #150]
 2255 0228 144D     		ldr	r5, .L540+16
 2256 022a 411C     		adds	r1, r0, #1
 2257 022c A4F89610 		strh	r1, [r4, #150]	@ movhi
 2258              	.L329:
 2259              		.loc 1 398 0
 2260 0230 DBF80400 		ldr	r0, [fp, #4]
 2261              		.loc 1 394 0
 2262 0234 0024     		movs	r4, #0
 2263 0236 2C60     		str	r4, [r5, #0]
 2264              		.loc 1 395 0
 2265 0238 C9F80040 		str	r4, [r9, #0]
 2266              		.loc 1 398 0
 2267 023c 18B1     		cbz	r0, .L295
 2268              		.loc 1 400 0
 2269 023e FFF7FEFF 		bl	pbuf_free
 2270              	.LVL206:
 2271              		.loc 1 401 0
 2272 0242 0F4A     		ldr	r2, .L540+20
 2273 0244 5460     		str	r4, [r2, #4]
 2274              	.L295:
 2275              		.loc 1 425 0
 2276 0246 03B0     		add	sp, sp, #12
ARM GAS  C:\Users\jenny\AppData\Local\Temp\ccsinKfR.s 			page 41


 2277 0248 BDE8F08F 		pop	{r4, r5, r6, r7, r8, r9, sl, fp, pc}
 2278              	.LVL207:
 2279              	.L523:
 2280              		.loc 1 173 0 discriminator 1
 2281 024c FFF7FEFF 		bl	port_halt
 2282              	.LVL208:
 2283 0250 80E7     		b	.L306
 2284              	.L522:
 2285              		.loc 1 172 0 discriminator 1
 2286 0252 FFF7FEFF 		bl	port_halt
 2287              	.LVL209:
 2288 0256 387E     		ldrb	r0, [r7, #24]	@ zero_extendqisi2
 2289 0258 7AE7     		b	.L305
 2290              	.LVL210:
 2291              	.L303:
 2292              		.loc 1 197 0
 2293 025a 0A4F     		ldr	r7, .L540+24
 2294 025c 3F68     		ldr	r7, [r7, #0]
 2295              	.LVL211:
 2296 025e 002F     		cmp	r7, #0
 2297 0260 00F0BC80 		beq	.L397
 2298              		.loc 1 201 0
 2299 0264 DFF81090 		ldr	r9, .L540+12
 2300 0268 1AE0     		b	.L479
 2301              	.L541:
 2302 026a 00BF     		.align	2
 2303              	.L540:
 2304 026c 00000000 		.word	lwip_stats
 2305 0270 00000000 		.word	.LANCHOR0
 2306 0274 00000000 		.word	.LANCHOR8
 2307 0278 00000000 		.word	current_iphdr_src
 2308 027c 00000000 		.word	.LANCHOR9
 2309 0280 00000000 		.word	.LANCHOR5
 2310 0284 00000000 		.word	tcp_tw_pcbs
 2311 0288 00000000 		.word	current_iphdr_dest
 2312 028c 00000000 		.word	.LANCHOR3
 2313 0290 00000000 		.word	.LANCHOR6
 2314 0294 00000000 		.word	.LANCHOR7
 2315              	.L313:
 2316              		.loc 1 197 0
 2317 0298 FF68     		ldr	r7, [r7, #12]
 2318              	.LVL212:
 2319 029a 002F     		cmp	r7, #0
 2320 029c 00F09E80 		beq	.L397
 2321              	.L479:
 2322              		.loc 1 198 0
 2323 02a0 3A7E     		ldrb	r2, [r7, #24]	@ zero_extendqisi2
 2324 02a2 0A2A     		cmp	r2, #10
 2325 02a4 01D0     		beq	.L312
 2326              		.loc 1 198 0 is_stmt 0 discriminator 1
 2327 02a6 FFF7FEFF 		bl	port_halt
 2328              	.LVL213:
 2329              	.L312:
 2330              		.loc 1 199 0 is_stmt 1
 2331 02aa 3068     		ldr	r0, [r6, #0]
 2332 02ac B98B     		ldrh	r1, [r7, #28]
 2333 02ae 0388     		ldrh	r3, [r0, #0]	@ unaligned
ARM GAS  C:\Users\jenny\AppData\Local\Temp\ccsinKfR.s 			page 42


 2334 02b0 8B42     		cmp	r3, r1
 2335 02b2 F1D1     		bne	.L313
 2336              		.loc 1 200 0 discriminator 1
 2337 02b4 7A8B     		ldrh	r2, [r7, #26]
 2338              		.loc 1 199 0 discriminator 1
 2339 02b6 4088     		ldrh	r0, [r0, #2]	@ unaligned
 2340 02b8 9042     		cmp	r0, r2
 2341 02ba EDD1     		bne	.L313
 2342              		.loc 1 200 0
 2343 02bc 7968     		ldr	r1, [r7, #4]
 2344 02be D9F80020 		ldr	r2, [r9, #0]
 2345 02c2 9142     		cmp	r1, r2
 2346 02c4 E8D1     		bne	.L313
 2347              		.loc 1 201 0
 2348 02c6 3968     		ldr	r1, [r7, #0]
 2349 02c8 D8F80020 		ldr	r2, [r8, #0]
 2350 02cc 9142     		cmp	r1, r2
 2351 02ce E3D1     		bne	.L313
 2352              	.LVL214:
 2353              	.LBB11:
 2354              	.LBB12:
 2355              		.loc 1 536 0
 2356 02d0 40F20004 		movw	r4, #:lower16:.LANCHOR2
 2357 02d4 C0F20004 		movt	r4, #:upper16:.LANCHOR2
 2358 02d8 2278     		ldrb	r2, [r4, #0]	@ zero_extendqisi2
 2359 02da 02F00401 		and	r1, r2, #4
 2360 02de C9B2     		uxtb	r1, r1
 2361 02e0 F9B9     		cbnz	r1, .L315
 2362              		.loc 1 540 0
 2363 02e2 02F00204 		and	r4, r2, #2
 2364 02e6 E1B2     		uxtb	r1, r4
 2365 02e8 0029     		cmp	r1, #0
 2366 02ea 00F09683 		beq	.L316
 2367              		.loc 1 543 0
 2368 02ee 40F20006 		movw	r6, #:lower16:.LANCHOR1
 2369 02f2 C0F20006 		movt	r6, #:upper16:.LANCHOR1
 2370 02f6 BA6A     		ldr	r2, [r7, #40]
 2371 02f8 3168     		ldr	r1, [r6, #0]
 2372 02fa 8A1A     		subs	r2, r1, r2
 2373 02fc 04D4     		bmi	.L317
 2374 02fe BC8D     		ldrh	r4, [r7, #44]
 2375 0300 121B     		subs	r2, r2, r4
 2376 0302 002A     		cmp	r2, #0
 2377 0304 40F39083 		ble	.L527
 2378              	.L317:
 2379              		.loc 1 555 0
 2380 0308 40F20004 		movw	r4, #:lower16:.LANCHOR4
 2381 030c C0F20004 		movt	r4, #:upper16:.LANCHOR4
 2382 0310 2088     		ldrh	r0, [r4, #0]
 2383 0312 30B1     		cbz	r0, .L315
 2384              		.loc 1 557 0
 2385 0314 BB7F     		ldrb	r3, [r7, #30]	@ zero_extendqisi2
 2386 0316 43F00201 		orr	r1, r3, #2
 2387 031a B977     		strb	r1, [r7, #30]
 2388              		.loc 1 558 0
 2389 031c 3846     		mov	r0, r7
 2390 031e FFF7FEFF 		bl	tcp_output
ARM GAS  C:\Users\jenny\AppData\Local\Temp\ccsinKfR.s 			page 43


 2391              	.LVL215:
 2392              	.L315:
 2393              	.LBE12:
 2394              	.LBE11:
 2395              		.loc 1 208 0
 2396 0322 2846     		mov	r0, r5
 2397              		.loc 1 425 0
 2398 0324 03B0     		add	sp, sp, #12
 2399 0326 BDE8F04F 		pop	{r4, r5, r6, r7, r8, r9, sl, fp, lr}
 2400              		.loc 1 208 0
 2401 032a FFF7FEBF 		b	pbuf_free
 2402              	.LVL216:
 2403              	.L327:
 2404              	.LBB14:
 2405              	.LBB15:
 2406              		.loc 1 584 0
 2407 032e 40F20004 		movw	r4, #:lower16:.LANCHOR2
 2408 0332 C0F20004 		movt	r4, #:upper16:.LANCHOR2
 2409              	.LBE15:
 2410              	.LBE14:
 2411              		.loc 1 303 0
 2412 0336 B04D     		ldr	r5, .L542
 2413              	.LBB38:
 2414              	.LBB19:
 2415              		.loc 1 584 0
 2416 0338 2178     		ldrb	r1, [r4, #0]	@ zero_extendqisi2
 2417              	.LBE19:
 2418              	.LBE38:
 2419              		.loc 1 303 0
 2420 033a 2F60     		str	r7, [r5, #0]
 2421              	.LVL217:
 2422              	.LBB39:
 2423              	.LBB20:
 2424              		.loc 1 584 0
 2425 033c 01F00402 		and	r2, r1, #4
 2426 0340 D0B2     		uxtb	r0, r2
 2427 0342 30B3     		cbz	r0, .L330
 2428              	.LVL218:
 2429              		.loc 1 586 0
 2430 0344 3C7E     		ldrb	r4, [r7, #24]	@ zero_extendqisi2
 2431 0346 022C     		cmp	r4, #2
 2432 0348 00F07D82 		beq	.L528
 2433              		.loc 1 591 0
 2434 034c 40F20006 		movw	r6, #:lower16:.LANCHOR1
 2435 0350 C0F20006 		movt	r6, #:upper16:.LANCHOR1
 2436 0354 BB6A     		ldr	r3, [r7, #40]
 2437 0356 3168     		ldr	r1, [r6, #0]
 2438 0358 CA1A     		subs	r2, r1, r3
 2439 035a 04D4     		bmi	.L335
 2440 035c B88D     		ldrh	r0, [r7, #44]
 2441 035e 111A     		subs	r1, r2, r0
 2442 0360 0029     		cmp	r1, #0
 2443 0362 40F39783 		ble	.L529
 2444              	.LVL219:
 2445              	.L335:
 2446              	.LBE20:
 2447              	.LBE39:
ARM GAS  C:\Users\jenny\AppData\Local\Temp\ccsinKfR.s 			page 44


 2448              		.loc 1 308 0
 2449 0366 98F80030 		ldrb	r3, [r8, #0]	@ zero_extendqisi2
 2450 036a 03F00802 		and	r2, r3, #8
 2451 036e D0B2     		uxtb	r0, r2
 2452 0370 F8B1     		cbz	r0, .L530
 2453              		.loc 1 313 0
 2454 0372 D7F88C30 		ldr	r3, [r7, #140]
 2455 0376 1BB1     		cbz	r3, .L379
 2456              		.loc 1 313 0 is_stmt 0 discriminator 1
 2457 0378 3869     		ldr	r0, [r7, #16]
 2458 037a 6FF00A01 		mvn	r1, #10
 2459 037e 9847     		blx	r3
 2460              	.LVL220:
 2461              	.L379:
 2462              		.loc 1 325 0 is_stmt 1
 2463 0380 3946     		mov	r1, r7
 2464 0382 9E48     		ldr	r0, .L542+4
 2465 0384 FFF7FEFF 		bl	tcp_pcb_remove
 2466              	.LVL221:
 2467              		.loc 1 326 0
 2468 0388 0220     		movs	r0, #2
 2469 038a 3946     		mov	r1, r7
 2470 038c FFF7FEFF 		bl	memp_free
 2471              	.LVL222:
 2472 0390 4EE7     		b	.L329
 2473              	.LVL223:
 2474              	.L330:
 2475              	.LBB40:
 2476              	.LBB21:
 2477              		.loc 1 612 0
 2478 0392 01F00203 		and	r3, r1, #2
 2479 0396 DCB2     		uxtb	r4, r3
 2480 0398 002C     		cmp	r4, #0
 2481 039a 00F0CA80 		beq	.L336
 2482 039e 397E     		ldrb	r1, [r7, #24]	@ zero_extendqisi2
 2483 03a0 8A1E     		subs	r2, r1, #2
 2484 03a2 012A     		cmp	r2, #1
 2485 03a4 40F2C580 		bls	.L336
 2486              	.LVL224:
 2487              	.L353:
 2488              		.loc 1 674 0
 2489 03a8 BA7F     		ldrb	r2, [r7, #30]	@ zero_extendqisi2
 2490 03aa 42F00200 		orr	r0, r2, #2
 2491 03ae B877     		strb	r0, [r7, #30]
 2492 03b0 D9E7     		b	.L335
 2493              	.LVL225:
 2494              	.L530:
 2495              	.LBE21:
 2496              	.LBE40:
 2497              		.loc 1 316 0
 2498 03b2 03F01001 		and	r1, r3, #16
 2499 03b6 CCB2     		uxtb	r4, r1
 2500 03b8 002C     		cmp	r4, #0
 2501 03ba 00F00882 		beq	.L378
 2502              		.loc 1 319 0
 2503 03be B87F     		ldrb	r0, [r7, #30]	@ zero_extendqisi2
 2504 03c0 00F01004 		and	r4, r0, #16
ARM GAS  C:\Users\jenny\AppData\Local\Temp\ccsinKfR.s 			page 45


 2505 03c4 E1B2     		uxtb	r1, r4
 2506 03c6 0029     		cmp	r1, #0
 2507 03c8 DAD1     		bne	.L379
 2508              		.loc 1 323 0
 2509 03ca D7F88C20 		ldr	r2, [r7, #140]
 2510 03ce 002A     		cmp	r2, #0
 2511 03d0 D6D0     		beq	.L379
 2512              		.loc 1 323 0 is_stmt 0 discriminator 1
 2513 03d2 3869     		ldr	r0, [r7, #16]
 2514 03d4 6FF00B01 		mvn	r1, #11
 2515 03d8 9047     		blx	r2
 2516              	.LVL226:
 2517 03da D1E7     		b	.L379
 2518              	.LVL227:
 2519              	.L397:
 2520              		.loc 1 216 0 is_stmt 1
 2521 03dc DFF830C2 		ldr	ip, .L542+24
 2522 03e0 DCF80070 		ldr	r7, [ip, #0]
 2523              	.LVL228:
 2524 03e4 002F     		cmp	r7, #0
 2525 03e6 00F0C481 		beq	.L320
 2526 03ea D6F800B0 		ldr	fp, [r6, #0]
 2527              		.loc 1 228 0
 2528 03ee D8F80000 		ldr	r0, [r8, #0]
 2529 03f2 BBF80220 		ldrh	r2, [fp, #2]	@ unaligned
 2530 03f6 B946     		mov	r9, r7
 2531              		.loc 1 215 0
 2532 03f8 0021     		movs	r1, #0
 2533 03fa 06E0     		b	.L323
 2534              	.LVL229:
 2535              	.L321:
 2536              		.loc 1 216 0
 2537 03fc D9F80C30 		ldr	r3, [r9, #12]
 2538              	.LVL230:
 2539 0400 4946     		mov	r1, r9
 2540 0402 002B     		cmp	r3, #0
 2541 0404 00F0B581 		beq	.L320
 2542              	.LVL231:
 2543 0408 9946     		mov	r9, r3
 2544              	.LVL232:
 2545              	.L323:
 2546              		.loc 1 217 0
 2547 040a B9F81A30 		ldrh	r3, [r9, #26]
 2548 040e 9342     		cmp	r3, r2
 2549 0410 F4D1     		bne	.L321
 2550              		.loc 1 228 0
 2551 0412 D9F80030 		ldr	r3, [r9, #0]
 2552 0416 8342     		cmp	r3, r0
 2553 0418 01D0     		beq	.L322
 2554              		.loc 1 229 0 discriminator 1
 2555 041a 002B     		cmp	r3, #0
 2556 041c EED1     		bne	.L321
 2557              	.L322:
 2558              		.loc 1 249 0
 2559 041e 31B1     		cbz	r1, .L401
 2560              		.loc 1 250 0
 2561 0420 D9F80C30 		ldr	r3, [r9, #12]
ARM GAS  C:\Users\jenny\AppData\Local\Temp\ccsinKfR.s 			page 46


 2562              		.loc 1 254 0
 2563 0424 CCF80090 		str	r9, [ip, #0]
 2564              		.loc 1 250 0
 2565 0428 CB60     		str	r3, [r1, #12]
 2566              		.loc 1 252 0
 2567 042a C9F80C70 		str	r7, [r9, #12]
 2568              	.L401:
 2569              	.LVL233:
 2570              	.LBB41:
 2571              	.LBB42:
 2572              		.loc 1 445 0
 2573 042e 40F20001 		movw	r1, #:lower16:.LANCHOR2
 2574 0432 C0F20001 		movt	r1, #:upper16:.LANCHOR2
 2575 0436 0878     		ldrb	r0, [r1, #0]	@ zero_extendqisi2
 2576 0438 00F00403 		and	r3, r0, #4
 2577 043c D9B2     		uxtb	r1, r3
 2578 043e 0029     		cmp	r1, #0
 2579 0440 7FF46FAF 		bne	.L315
 2580              		.loc 1 452 0
 2581 0444 00F01007 		and	r7, r0, #16
 2582 0448 FFB2     		uxtb	r7, r7
 2583 044a 002F     		cmp	r7, #0
 2584 044c 40F01782 		bne	.L531
 2585              		.loc 1 458 0
 2586 0450 00F00202 		and	r2, r0, #2
 2587 0454 D0B2     		uxtb	r0, r2
 2588 0456 0028     		cmp	r0, #0
 2589 0458 3FF463AF 		beq	.L315
 2590              		.loc 1 466 0
 2591 045c 99F81900 		ldrb	r0, [r9, #25]	@ zero_extendqisi2
 2592 0460 FFF7FEFF 		bl	tcp_alloc
 2593              	.LVL234:
 2594              		.loc 1 470 0
 2595 0464 8246     		mov	sl, r0
 2596 0466 0028     		cmp	r0, #0
 2597 0468 00F00382 		beq	.L532
 2598              		.loc 1 481 0
 2599 046c 644B     		ldr	r3, .L542+8
 2600              		.loc 1 480 0
 2601 046e B9F81A40 		ldrh	r4, [r9, #26]
 2602              		.loc 1 481 0
 2603 0472 1A68     		ldr	r2, [r3, #0]
 2604              		.loc 1 482 0
 2605 0474 3068     		ldr	r0, [r6, #0]
 2606              	.LVL235:
 2607              		.loc 1 479 0
 2608 0476 D8F80010 		ldr	r1, [r8, #0]
 2609              		.loc 1 480 0
 2610 047a AAF81A40 		strh	r4, [sl, #26]	@ movhi
 2611              		.loc 1 484 0
 2612 047e 40F20006 		movw	r6, #:lower16:.LANCHOR1
 2613 0482 C0F20006 		movt	r6, #:upper16:.LANCHOR1
 2614              		.loc 1 479 0
 2615 0486 CAF80010 		str	r1, [sl, #0]
 2616              		.loc 1 481 0
 2617 048a CAF80420 		str	r2, [sl, #4]
 2618              		.loc 1 482 0
ARM GAS  C:\Users\jenny\AppData\Local\Temp\ccsinKfR.s 			page 47


 2619 048e 90F801C0 		ldrb	ip, [r0, #1]	@ zero_extendqisi2
 2620 0492 90F800E0 		ldrb	lr, [r0, #0]	@ zero_extendqisi2
 2621              		.loc 1 484 0
 2622 0496 3468     		ldr	r4, [r6, #0]
 2623              		.loc 1 490 0
 2624 0498 D9F81010 		ldr	r1, [r9, #16]
 2625              		.loc 1 492 0
 2626 049c D9F81420 		ldr	r2, [r9, #20]
 2627              		.loc 1 482 0
 2628 04a0 4EEA0C2E 		orr	lr, lr, ip, lsl #8
 2629              		.loc 1 484 0
 2630 04a4 661C     		adds	r6, r4, #1
 2631              		.loc 1 483 0
 2632 04a6 4FF0030C 		mov	ip, #3
 2633              		.loc 1 482 0
 2634 04aa AAF81CE0 		strh	lr, [sl, #28]	@ movhi
 2635              		.loc 1 483 0
 2636 04ae 8AF818C0 		strb	ip, [sl, #24]
 2637              		.loc 1 484 0
 2638 04b2 CAF82860 		str	r6, [sl, #40]
 2639              		.loc 1 485 0
 2640 04b6 CAF83060 		str	r6, [sl, #48]
 2641              		.loc 1 498 0
 2642 04ba 40F20003 		movw	r3, #:lower16:tcp_active_pcbs
 2643              		.loc 1 486 0
 2644 04be C089     		ldrh	r0, [r0, #14]	@ unaligned
 2645              		.loc 1 492 0
 2646 04c0 CAF81420 		str	r2, [sl, #20]
 2647              		.loc 1 498 0
 2648 04c4 C0F20003 		movt	r3, #:upper16:tcp_active_pcbs
 2649              		.loc 1 489 0
 2650 04c8 013C     		subs	r4, r4, #1
 2651              		.loc 1 498 0
 2652 04ca 1B68     		ldr	r3, [r3, #0]
 2653              		.loc 1 486 0
 2654 04cc AAF86000 		strh	r0, [sl, #96]	@ movhi
 2655              		.loc 1 487 0
 2656 04d0 AAF86200 		strh	r0, [sl, #98]	@ movhi
 2657              		.loc 1 488 0
 2658 04d4 AAF84E00 		strh	r0, [sl, #78]	@ movhi
 2659              		.loc 1 490 0
 2660 04d8 CAF81010 		str	r1, [sl, #16]
 2661              		.loc 1 489 0
 2662 04dc CAF85440 		str	r4, [sl, #84]
 2663              		.loc 1 495 0
 2664 04e0 99F80810 		ldrb	r1, [r9, #8]	@ zero_extendqisi2
 2665              		.loc 1 498 0
 2666 04e4 CAF80C30 		str	r3, [sl, #12]
 2667 04e8 40F20003 		movw	r3, #:lower16:tcp_active_pcbs
 2668              		.loc 1 495 0
 2669 04ec 21F07302 		bic	r2, r1, #115
 2670              		.loc 1 498 0
 2671 04f0 C0F20003 		movt	r3, #:upper16:tcp_active_pcbs
 2672              		.loc 1 495 0
 2673 04f4 8AF80820 		strb	r2, [sl, #8]
 2674              		.loc 1 498 0
 2675 04f8 C3F800A0 		str	sl, [r3, #0]
ARM GAS  C:\Users\jenny\AppData\Local\Temp\ccsinKfR.s 			page 48


 2676 04fc FFF7FEFF 		bl	tcp_timer_needed
 2677              	.LVL236:
 2678 0500 404A     		ldr	r2, .L542+12
 2679 0502 0121     		movs	r1, #1
 2680              		.loc 1 501 0
 2681 0504 5046     		mov	r0, sl
 2682              		.loc 1 498 0
 2683 0506 1170     		strb	r1, [r2, #0]
 2684              		.loc 1 501 0
 2685 0508 FFF7FEFF 		bl	tcp_parseopt
 2686              	.LVL237:
 2687              		.loc 1 503 0
 2688 050c 0AF10401 		add	r1, sl, #4
 2689 0510 BAF83600 		ldrh	r0, [sl, #54]
 2690 0514 FFF7FEFF 		bl	tcp_eff_send_mss
 2691              	.LVL238:
 2692              		.loc 1 509 0
 2693 0518 1221     		movs	r1, #18
 2694              		.loc 1 503 0
 2695 051a AAF83600 		strh	r0, [sl, #54]	@ movhi
 2696              		.loc 1 509 0
 2697 051e 5046     		mov	r0, sl
 2698 0520 FFF7FEFF 		bl	tcp_enqueue_flags
 2699              	.LVL239:
 2700              		.loc 1 510 0
 2701 0524 0028     		cmp	r0, #0
 2702 0526 40F09F81 		bne	.L533
 2703              		.loc 1 514 0
 2704 052a 5046     		mov	r0, sl
 2705              	.LVL240:
 2706 052c FFF7FEFF 		bl	tcp_output
 2707              	.LVL241:
 2708 0530 F7E6     		b	.L315
 2709              	.LVL242:
 2710              	.L336:
 2711              	.LBE42:
 2712              	.LBE41:
 2713              	.LBB44:
 2714              		.loc 1 618 0
 2715 0532 B87F     		ldrb	r0, [r7, #30]	@ zero_extendqisi2
 2716              	.LBB22:
 2717 0534 00F01003 		and	r3, r0, #16
 2718 0538 DCB2     		uxtb	r4, r3
 2719 053a 14B9     		cbnz	r4, .L337
 2720              		.loc 1 620 0
 2721 053c 3249     		ldr	r1, .L542+16
 2722 053e 0A68     		ldr	r2, [r1, #0]
 2723 0540 7A62     		str	r2, [r7, #36]
 2724              	.L337:
 2725              		.loc 1 622 0
 2726 0542 0020     		movs	r0, #0
 2727 0544 87F89600 		strb	r0, [r7, #150]
 2728              		.loc 1 624 0
 2729 0548 3846     		mov	r0, r7
 2730 054a FFF7FEFF 		bl	tcp_parseopt
 2731              	.LVL243:
 2732              		.loc 1 627 0
ARM GAS  C:\Users\jenny\AppData\Local\Temp\ccsinKfR.s 			page 49


 2733 054e 3B7E     		ldrb	r3, [r7, #24]	@ zero_extendqisi2
 2734 0550 9C1E     		subs	r4, r3, #2
 2735 0552 072C     		cmp	r4, #7
 2736 0554 3FF607AF 		bhi	.L335
 2737 0558 DFE814F0 		tbh	[pc, r4, lsl #1]
 2738              	.L345:
 2739 055c A200     		.2byte	(.L338-.L345)/2
 2740 055e E000     		.2byte	(.L339-.L345)/2
 2741 0560 CE00     		.2byte	(.L340-.L345)/2
 2742 0562 8100     		.2byte	(.L341-.L345)/2
 2743 0564 5C00     		.2byte	(.L342-.L345)/2
 2744 0566 CE00     		.2byte	(.L340-.L345)/2
 2745 0568 2300     		.2byte	(.L343-.L345)/2
 2746 056a 0800     		.2byte	(.L344-.L345)/2
 2747              	.L344:
 2748              	.LBE22:
 2749              		.loc 1 781 0
 2750 056c 40F20006 		movw	r6, #:lower16:.LANCHOR2
 2751 0570 C0F20006 		movt	r6, #:upper16:.LANCHOR2
 2752              	.LBB23:
 2753              		.loc 1 780 0
 2754 0574 3846     		mov	r0, r7
 2755 0576 FFF7FEFF 		bl	tcp_receive
 2756              	.LVL244:
 2757              	.LBE23:
 2758              		.loc 1 781 0
 2759 057a 3178     		ldrb	r1, [r6, #0]	@ zero_extendqisi2
 2760              	.LBB24:
 2761 057c 01F01002 		and	r2, r1, #16
 2762 0580 D0B2     		uxtb	r0, r2
 2763 0582 0028     		cmp	r0, #0
 2764 0584 3FF4EFAE 		beq	.L335
 2765 0588 3B6D     		ldr	r3, [r7, #80]
 2766 058a DAF80040 		ldr	r4, [sl, #0]
 2767 058e A342     		cmp	r3, r4
 2768 0590 7FF4E9AE 		bne	.L335
 2769              		.loc 1 784 0
 2770 0594 98F80010 		ldrb	r1, [r8, #0]	@ zero_extendqisi2
 2771 0598 41F01002 		orr	r2, r1, #16
 2772 059c 88F80020 		strb	r2, [r8, #0]
 2773 05a0 E1E6     		b	.L335
 2774              	.L343:
 2775              		.loc 1 770 0
 2776 05a2 3846     		mov	r0, r7
 2777 05a4 FFF7FEFF 		bl	tcp_receive
 2778              	.LVL245:
 2779              	.LBE24:
 2780              		.loc 1 771 0
 2781 05a8 40F20000 		movw	r0, #:lower16:.LANCHOR2
 2782 05ac C0F20000 		movt	r0, #:upper16:.LANCHOR2
 2783 05b0 0378     		ldrb	r3, [r0, #0]	@ zero_extendqisi2
 2784              	.LBB25:
 2785 05b2 03F01004 		and	r4, r3, #16
 2786 05b6 E1B2     		uxtb	r1, r4
 2787 05b8 0029     		cmp	r1, #0
 2788 05ba 3FF4D4AE 		beq	.L335
 2789 05be 386D     		ldr	r0, [r7, #80]
ARM GAS  C:\Users\jenny\AppData\Local\Temp\ccsinKfR.s 			page 50


 2790 05c0 DAF80020 		ldr	r2, [sl, #0]
 2791 05c4 9042     		cmp	r0, r2
 2792 05c6 7FF4CEAE 		bne	.L335
 2793              		.loc 1 773 0
 2794 05ca 3846     		mov	r0, r7
 2795 05cc FFF7FEFF 		bl	tcp_pcb_purge
 2796              	.LVL246:
 2797              		.loc 1 774 0
 2798 05d0 40F20003 		movw	r3, #:lower16:tcp_active_pcbs
 2799 05d4 C0F20003 		movt	r3, #:upper16:tcp_active_pcbs
 2800 05d8 1868     		ldr	r0, [r3, #0]
 2801 05da B842     		cmp	r0, r7
 2802 05dc 00F04782 		beq	.L521
 2803 05e0 0A4C     		ldr	r4, .L542+20
 2804 05e2 2060     		str	r0, [r4, #0]
 2805              	.L375:
 2806 05e4 0028     		cmp	r0, #0
 2807 05e6 00F08982 		beq	.L519
 2808 05ea C168     		ldr	r1, [r0, #12]
 2809 05ec B942     		cmp	r1, r7
 2810 05ee 00F08182 		beq	.L520
 2811 05f2 0846     		mov	r0, r1
 2812 05f4 F6E7     		b	.L375
 2813              	.L543:
 2814 05f6 00BF     		.align	2
 2815              	.L542:
 2816 05f8 00000000 		.word	.LANCHOR9
 2817 05fc 00000000 		.word	tcp_active_pcbs
 2818 0600 00000000 		.word	current_iphdr_src
 2819 0604 00000000 		.word	tcp_active_pcbs_changed
 2820 0608 00000000 		.word	tcp_ticks
 2821 060c 00000000 		.word	tcp_tmp_pcb
 2822 0610 00000000 		.word	tcp_listen_pcbs
 2823              	.L342:
 2824              		.loc 1 759 0
 2825 0614 3846     		mov	r0, r7
 2826 0616 FFF7FEFF 		bl	tcp_receive
 2827              	.LVL247:
 2828              	.LBE25:
 2829              		.loc 1 760 0
 2830 061a 98F80020 		ldrb	r2, [r8, #0]	@ zero_extendqisi2
 2831              	.LBB26:
 2832 061e 02F02003 		and	r3, r2, #32
 2833 0622 DCB2     		uxtb	r4, r3
 2834 0624 002C     		cmp	r4, #0
 2835 0626 3FF49EAE 		beq	.L335
 2836              		.loc 1 762 0
 2837 062a B97F     		ldrb	r1, [r7, #30]	@ zero_extendqisi2
 2838 062c 41F00200 		orr	r0, r1, #2
 2839 0630 B877     		strb	r0, [r7, #30]
 2840              		.loc 1 763 0
 2841 0632 3846     		mov	r0, r7
 2842 0634 FFF7FEFF 		bl	tcp_pcb_purge
 2843              	.LVL248:
 2844              		.loc 1 764 0
 2845 0638 40F20002 		movw	r2, #:lower16:tcp_active_pcbs
 2846 063c C0F20002 		movt	r2, #:upper16:tcp_active_pcbs
ARM GAS  C:\Users\jenny\AppData\Local\Temp\ccsinKfR.s 			page 51


 2847 0640 1068     		ldr	r0, [r2, #0]
 2848 0642 B842     		cmp	r0, r7
 2849 0644 00F01382 		beq	.L521
 2850 0648 AB4C     		ldr	r4, .L544
 2851 064a 2060     		str	r0, [r4, #0]
 2852              	.L371:
 2853 064c 0028     		cmp	r0, #0
 2854 064e 00F05582 		beq	.L519
 2855 0652 C368     		ldr	r3, [r0, #12]
 2856 0654 BB42     		cmp	r3, r7
 2857 0656 00F04D82 		beq	.L520
 2858 065a 1846     		mov	r0, r3
 2859 065c F6E7     		b	.L371
 2860              	.L341:
 2861              		.loc 1 740 0
 2862 065e 3846     		mov	r0, r7
 2863 0660 FFF7FEFF 		bl	tcp_receive
 2864              	.LVL249:
 2865              	.LBE26:
 2866              		.loc 1 741 0
 2867 0664 98F80040 		ldrb	r4, [r8, #0]	@ zero_extendqisi2
 2868              	.LBB27:
 2869 0668 04F02001 		and	r1, r4, #32
 2870 066c C8B2     		uxtb	r0, r1
 2871 066e 0028     		cmp	r0, #0
 2872 0670 00F01682 		beq	.L363
 2873              	.LBE27:
 2874              		.loc 1 742 0
 2875 0674 40F20003 		movw	r3, #:lower16:.LANCHOR2
 2876 0678 C0F20003 		movt	r3, #:upper16:.LANCHOR2
 2877 067c 1C78     		ldrb	r4, [r3, #0]	@ zero_extendqisi2
 2878              	.LBB28:
 2879 067e 04F01001 		and	r1, r4, #16
 2880 0682 C8B2     		uxtb	r0, r1
 2881 0684 28B1     		cbz	r0, .L364
 2882 0686 3B6D     		ldr	r3, [r7, #80]
 2883 0688 DAF80020 		ldr	r2, [sl, #0]
 2884 068c 9342     		cmp	r3, r2
 2885 068e 00F01B82 		beq	.L534
 2886              	.L364:
 2887              		.loc 1 751 0
 2888 0692 BC7F     		ldrb	r4, [r7, #30]	@ zero_extendqisi2
 2889              		.loc 1 752 0
 2890 0694 0820     		movs	r0, #8
 2891              		.loc 1 751 0
 2892 0696 44F00201 		orr	r1, r4, #2
 2893 069a B977     		strb	r1, [r7, #30]
 2894              		.loc 1 752 0
 2895 069c 3876     		strb	r0, [r7, #24]
 2896 069e 62E6     		b	.L335
 2897              	.L338:
 2898              	.LBE28:
 2899              		.loc 1 632 0
 2900 06a0 40F20002 		movw	r2, #:lower16:.LANCHOR2
 2901 06a4 C0F20002 		movt	r2, #:upper16:.LANCHOR2
 2902 06a8 1178     		ldrb	r1, [r2, #0]	@ zero_extendqisi2
 2903              	.LBB29:
ARM GAS  C:\Users\jenny\AppData\Local\Temp\ccsinKfR.s 			page 52


 2904 06aa 01F01203 		and	r3, r1, #18
 2905 06ae 122B     		cmp	r3, #18
 2906 06b0 00F02A81 		beq	.L535
 2907              	.L346:
 2908              	.LBE29:
 2909              		.loc 1 677 0
 2910 06b4 40F20001 		movw	r1, #:lower16:.LANCHOR2
 2911 06b8 C0F20001 		movt	r1, #:upper16:.LANCHOR2
 2912 06bc 0B78     		ldrb	r3, [r1, #0]	@ zero_extendqisi2
 2913              	.LBB30:
 2914 06be 03F01004 		and	r4, r3, #16
 2915 06c2 E2B2     		uxtb	r2, r4
 2916 06c4 002A     		cmp	r2, #0
 2917 06c6 3FF44EAE 		beq	.L335
 2918              		.loc 1 680 0
 2919 06ca 3368     		ldr	r3, [r6, #0]
 2920              		.loc 1 679 0
 2921 06cc 40F20004 		movw	r4, #:lower16:.LANCHOR1
 2922 06d0 40F20006 		movw	r6, #:lower16:.LANCHOR4
 2923 06d4 5888     		ldrh	r0, [r3, #2]	@ unaligned
 2924 06d6 C0F20006 		movt	r6, #:upper16:.LANCHOR4
 2925 06da C0F20004 		movt	r4, #:upper16:.LANCHOR1
 2926 06de 3188     		ldrh	r1, [r6, #0]
 2927 06e0 2268     		ldr	r2, [r4, #0]
 2928 06e2 0090     		str	r0, [sp, #0]
 2929 06e4 1B88     		ldrh	r3, [r3, #0]	@ unaligned
 2930 06e6 DAF80000 		ldr	r0, [sl, #0]
 2931 06ea 0193     		str	r3, [sp, #4]
 2932 06ec 8918     		adds	r1, r1, r2
 2933 06ee 834B     		ldr	r3, .L544+4
 2934 06f0 834A     		ldr	r2, .L544+8
 2935 06f2 FFF7FEFF 		bl	tcp_rst
 2936              	.LVL250:
 2937 06f6 36E6     		b	.L335
 2938              	.L340:
 2939              		.loc 1 733 0
 2940 06f8 3846     		mov	r0, r7
 2941 06fa FFF7FEFF 		bl	tcp_receive
 2942              	.LVL251:
 2943              	.LBE30:
 2944              		.loc 1 734 0
 2945 06fe 98F80040 		ldrb	r4, [r8, #0]	@ zero_extendqisi2
 2946              	.LBB31:
 2947 0702 04F02001 		and	r1, r4, #32
 2948 0706 CBB2     		uxtb	r3, r1
 2949 0708 002B     		cmp	r3, #0
 2950 070a 3FF42CAE 		beq	.L335
 2951              	.LVL252:
 2952              	.L518:
 2953              		.loc 1 735 0
 2954 070e BB7F     		ldrb	r3, [r7, #30]	@ zero_extendqisi2
 2955              		.loc 1 736 0
 2956 0710 0724     		movs	r4, #7
 2957              		.loc 1 735 0
 2958 0712 43F00200 		orr	r0, r3, #2
 2959 0716 B877     		strb	r0, [r7, #30]
 2960              		.loc 1 736 0
ARM GAS  C:\Users\jenny\AppData\Local\Temp\ccsinKfR.s 			page 53


 2961 0718 3C76     		strb	r4, [r7, #24]
 2962 071a 24E6     		b	.L335
 2963              	.LVL253:
 2964              	.L339:
 2965              		.loc 1 684 0
 2966 071c 40F20000 		movw	r0, #:lower16:.LANCHOR2
 2967 0720 C0F20000 		movt	r0, #:upper16:.LANCHOR2
 2968 0724 0478     		ldrb	r4, [r0, #0]	@ zero_extendqisi2
 2969 0726 04F01002 		and	r2, r4, #16
 2970 072a D1B2     		uxtb	r1, r2
 2971 072c 0029     		cmp	r1, #0
 2972 072e 00F08A81 		beq	.L354
 2973              		.loc 1 686 0
 2974 0732 BC6C     		ldr	r4, [r7, #72]
 2975 0734 DAF80000 		ldr	r0, [sl, #0]
 2976 0738 E243     		mvns	r2, r4
 2977 073a C242     		cmn	r2, r0
 2978 073c 04D4     		bmi	.L355
 2979 073e 396D     		ldr	r1, [r7, #80]
 2980 0740 431A     		subs	r3, r0, r1
 2981 0742 002B     		cmp	r3, #0
 2982 0744 40F33781 		ble	.L536
 2983              	.L355:
 2984              		.loc 1 723 0
 2985 0748 3368     		ldr	r3, [r6, #0]
 2986              		.loc 1 722 0
 2987 074a 40F20006 		movw	r6, #:lower16:.LANCHOR4
 2988 074e C0F20006 		movt	r6, #:upper16:.LANCHOR4
 2989 0752 5A88     		ldrh	r2, [r3, #2]	@ unaligned
 2990 0754 3488     		ldrh	r4, [r6, #0]
 2991 0756 40F20006 		movw	r6, #:lower16:.LANCHOR1
 2992 075a C0F20006 		movt	r6, #:upper16:.LANCHOR1
 2993 075e 3168     		ldr	r1, [r6, #0]
 2994 0760 0092     		str	r2, [sp, #0]
 2995 0762 1B88     		ldrh	r3, [r3, #0]	@ unaligned
 2996 0764 664A     		ldr	r2, .L544+8
 2997 0766 0193     		str	r3, [sp, #4]
 2998 0768 6118     		adds	r1, r4, r1
 2999 076a 644B     		ldr	r3, .L544+4
 3000 076c FFF7FEFF 		bl	tcp_rst
 3001              	.LVL254:
 3002 0770 F9E5     		b	.L335
 3003              	.LVL255:
 3004              	.L320:
 3005              	.LBE31:
 3006              	.LBE44:
 3007              		.loc 1 408 0
 3008 0772 3068     		ldr	r0, [r6, #0]
 3009 0774 8089     		ldrh	r0, [r0, #12]	@ unaligned
 3010 0776 FFF7FEFF 		bl	lwip_ntohs
 3011              	.LVL256:
 3012 077a 00F00402 		and	r2, r0, #4
 3013 077e 93B2     		uxth	r3, r2
 3014 0780 002B     		cmp	r3, #0
 3015 0782 7FF4CEAD 		bne	.L315
 3016              		.loc 1 409 0
 3017 0786 B4F8A0C0 		ldrh	ip, [r4, #160]
ARM GAS  C:\Users\jenny\AppData\Local\Temp\ccsinKfR.s 			page 54


 3018              		.loc 1 410 0
 3019 078a B4F896E0 		ldrh	lr, [r4, #150]
 3020              		.loc 1 413 0
 3021 078e 5D4E     		ldr	r6, .L544+12
 3022              		.loc 1 411 0
 3023 0790 DAF80000 		ldr	r0, [sl, #0]
 3024              		.loc 1 413 0
 3025 0794 3668     		ldr	r6, [r6, #0]
 3026              		.loc 1 411 0
 3027 0796 5A4A     		ldr	r2, .L544+8
 3028 0798 584B     		ldr	r3, .L544+4
 3029              		.loc 1 409 0
 3030 079a 0CF1010C 		add	ip, ip, #1
 3031              		.loc 1 410 0
 3032 079e 0EF1010E 		add	lr, lr, #1
 3033              		.loc 1 409 0
 3034 07a2 A4F8A0C0 		strh	ip, [r4, #160]	@ movhi
 3035              		.loc 1 410 0
 3036 07a6 A4F896E0 		strh	lr, [r4, #150]	@ movhi
 3037              		.loc 1 411 0
 3038 07aa 40F20007 		movw	r7, #:lower16:.LANCHOR4
 3039 07ae 40F20001 		movw	r1, #:lower16:.LANCHOR1
 3040 07b2 7488     		ldrh	r4, [r6, #2]	@ unaligned
 3041 07b4 C0F20007 		movt	r7, #:upper16:.LANCHOR4
 3042 07b8 C0F20001 		movt	r1, #:upper16:.LANCHOR1
 3043 07bc 3F88     		ldrh	r7, [r7, #0]
 3044 07be 0968     		ldr	r1, [r1, #0]
 3045 07c0 0094     		str	r4, [sp, #0]
 3046 07c2 3488     		ldrh	r4, [r6, #0]	@ unaligned
 3047 07c4 7918     		adds	r1, r7, r1
 3048 07c6 0194     		str	r4, [sp, #4]
 3049 07c8 FFF7FEFF 		bl	tcp_rst
 3050              	.LVL257:
 3051 07cc A9E5     		b	.L315
 3052              	.LVL258:
 3053              	.L378:
 3054              		.loc 1 332 0
 3055 07ce B7F86420 		ldrh	r2, [r7, #100]
 3056 07d2 3AB1     		cbz	r2, .L383
 3057              		.loc 1 333 0
 3058 07d4 FB6F     		ldr	r3, [r7, #124]
 3059 07d6 2BB1     		cbz	r3, .L383
 3060              		.loc 1 333 0 is_stmt 0 discriminator 1
 3061 07d8 3869     		ldr	r0, [r7, #16]
 3062 07da 3946     		mov	r1, r7
 3063 07dc 9847     		blx	r3
 3064              	.LVL259:
 3065              		.loc 1 334 0 is_stmt 1 discriminator 1
 3066 07de 0A30     		adds	r0, r0, #10
 3067              	.LVL260:
 3068 07e0 3FF426AD 		beq	.L329
 3069              	.L383:
 3070              		.loc 1 339 0
 3071 07e4 D9F80020 		ldr	r2, [r9, #0]
 3072 07e8 D2B1     		cbz	r2, .L384
 3073              		.loc 1 340 0
 3074 07ea B86F     		ldr	r0, [r7, #120]
ARM GAS  C:\Users\jenny\AppData\Local\Temp\ccsinKfR.s 			page 55


 3075 07ec 08B1     		cbz	r0, .L385
 3076              		.loc 1 340 0 is_stmt 0 discriminator 1
 3077 07ee FFF7FEFF 		bl	port_halt
 3078              	.LVL261:
 3079              	.L385:
 3080              		.loc 1 341 0 is_stmt 1
 3081 07f2 B97F     		ldrb	r1, [r7, #30]	@ zero_extendqisi2
 3082 07f4 01F01004 		and	r4, r1, #16
 3083 07f8 E3B2     		uxtb	r3, r4
 3084 07fa 002B     		cmp	r3, #0
 3085 07fc 5DD1     		bne	.L537
 3086              		.loc 1 350 0
 3087 07fe D7F88040 		ldr	r4, [r7, #128]
 3088 0802 002C     		cmp	r4, #0
 3089 0804 51D0     		beq	.L387
 3090              		.loc 1 350 0 is_stmt 0 discriminator 1
 3091 0806 3869     		ldr	r0, [r7, #16]
 3092 0808 D9F80020 		ldr	r2, [r9, #0]
 3093 080c 3946     		mov	r1, r7
 3094 080e A047     		blx	r4
 3095              	.LVL262:
 3096              	.L388:
 3097              		.loc 1 351 0 is_stmt 1
 3098 0810 43B2     		sxtb	r3, r0
 3099 0812 0A33     		adds	r3, r3, #10
 3100 0814 3FF40CAD 		beq	.L329
 3101              		.loc 1 356 0
 3102 0818 10B1     		cbz	r0, .L384
 3103              		.loc 1 357 0
 3104 081a D9F80020 		ldr	r2, [r9, #0]
 3105 081e BA67     		str	r2, [r7, #120]
 3106              	.LVL263:
 3107              	.L384:
 3108              		.loc 1 364 0
 3109 0820 98F80000 		ldrb	r0, [r8, #0]	@ zero_extendqisi2
 3110 0824 00F02001 		and	r1, r0, #32
 3111 0828 CCB2     		uxtb	r4, r1
 3112 082a 34B1     		cbz	r4, .L391
 3113              		.loc 1 365 0
 3114 082c BB6F     		ldr	r3, [r7, #120]
 3115 082e 002B     		cmp	r3, #0
 3116 0830 4FD0     		beq	.L392
 3117              		.loc 1 367 0
 3118 0832 597B     		ldrb	r1, [r3, #13]	@ zero_extendqisi2
 3119 0834 41F02002 		orr	r2, r1, #32
 3120 0838 5A73     		strb	r2, [r3, #13]
 3121              	.L391:
 3122              		.loc 1 381 0
 3123 083a 0023     		movs	r3, #0
 3124              		.loc 1 383 0
 3125 083c 3846     		mov	r0, r7
 3126              		.loc 1 381 0
 3127 083e 2B60     		str	r3, [r5, #0]
 3128              		.loc 1 383 0
 3129 0840 FFF7FEFF 		bl	tcp_output
 3130              	.LVL264:
 3131 0844 F4E4     		b	.L329
ARM GAS  C:\Users\jenny\AppData\Local\Temp\ccsinKfR.s 			page 56


 3132              	.LVL265:
 3133              	.L528:
 3134              	.LBB45:
 3135              	.LBB32:
 3136              		.loc 1 587 0
 3137 0846 3C6D     		ldr	r4, [r7, #80]
 3138 0848 DAF80030 		ldr	r3, [sl, #0]
 3139 084c 9C42     		cmp	r4, r3
 3140 084e 7FF48AAD 		bne	.L335
 3141              	.LVL266:
 3142              	.L332:
 3143              		.loc 1 600 0
 3144 0852 98F80020 		ldrb	r2, [r8, #0]	@ zero_extendqisi2
 3145              		.loc 1 601 0
 3146 0856 B87F     		ldrb	r0, [r7, #30]	@ zero_extendqisi2
 3147              		.loc 1 600 0
 3148 0858 42F00801 		orr	r1, r2, #8
 3149              		.loc 1 601 0
 3150 085c 20F00104 		bic	r4, r0, #1
 3151              		.loc 1 600 0
 3152 0860 88F80010 		strb	r1, [r8, #0]
 3153              		.loc 1 601 0
 3154 0864 BC77     		strb	r4, [r7, #30]
 3155 0866 7EE5     		b	.L335
 3156              	.LVL267:
 3157              	.L533:
 3158              	.LBE32:
 3159              	.LBE45:
 3160              	.LBB46:
 3161              	.LBB43:
 3162              		.loc 1 511 0
 3163 0868 5046     		mov	r0, sl
 3164              	.LVL268:
 3165 086a 3946     		mov	r1, r7
 3166 086c FFF7FEFF 		bl	tcp_abandon
 3167              	.LVL269:
 3168 0870 57E5     		b	.L315
 3169              	.LVL270:
 3170              	.L532:
 3171              		.loc 1 472 0
 3172 0872 B4F89C00 		ldrh	r0, [r4, #156]
 3173              	.LVL271:
 3174 0876 431C     		adds	r3, r0, #1
 3175 0878 A4F89C30 		strh	r3, [r4, #156]	@ movhi
 3176 087c 51E5     		b	.L315
 3177              	.LVL272:
 3178              	.L531:
 3179              		.loc 1 456 0
 3180 087e 40F20004 		movw	r4, #:lower16:.LANCHOR4
 3181 0882 C0F20004 		movt	r4, #:upper16:.LANCHOR4
 3182 0886 0092     		str	r2, [sp, #0]
 3183 0888 2188     		ldrh	r1, [r4, #0]
 3184 088a BBF80020 		ldrh	r2, [fp, #0]	@ unaligned
 3185 088e DAF80000 		ldr	r0, [sl, #0]
 3186 0892 40F20004 		movw	r4, #:lower16:.LANCHOR1
 3187 0896 C0F20004 		movt	r4, #:upper16:.LANCHOR1
 3188 089a 2368     		ldr	r3, [r4, #0]
ARM GAS  C:\Users\jenny\AppData\Local\Temp\ccsinKfR.s 			page 57


 3189 089c 0192     		str	r2, [sp, #4]
 3190 089e C918     		adds	r1, r1, r3
 3191 08a0 174A     		ldr	r2, .L544+8
 3192 08a2 164B     		ldr	r3, .L544+4
 3193 08a4 FFF7FEFF 		bl	tcp_rst
 3194              	.LVL273:
 3195 08a8 3BE5     		b	.L315
 3196              	.LVL274:
 3197              	.L387:
 3198              	.LBE43:
 3199              	.LBE46:
 3200              		.loc 1 350 0 discriminator 2
 3201 08aa 2046     		mov	r0, r4
 3202 08ac 3946     		mov	r1, r7
 3203 08ae D9F80020 		ldr	r2, [r9, #0]
 3204 08b2 2346     		mov	r3, r4
 3205 08b4 FFF7FEFF 		bl	tcp_recv_null
 3206              	.LVL275:
 3207 08b8 AAE7     		b	.L388
 3208              	.LVL276:
 3209              	.L537:
 3210              		.loc 1 344 0
 3211 08ba D9F80000 		ldr	r0, [r9, #0]
 3212 08be FFF7FEFF 		bl	pbuf_free
 3213              	.LVL277:
 3214              	.L516:
 3215              		.loc 1 345 0
 3216 08c2 3846     		mov	r0, r7
 3217 08c4 FFF7FEFF 		bl	tcp_abort
 3218              	.LVL278:
 3219              		.loc 1 346 0
 3220 08c8 B2E4     		b	.L329
 3221              	.LVL279:
 3222              	.L525:
 3223              		.loc 1 182 0 discriminator 1
 3224 08ca FFF7FEFF 		bl	port_halt
 3225              	.LVL280:
 3226 08ce FB68     		ldr	r3, [r7, #12]
 3227 08d0 63E4     		b	.L308
 3228              	.LVL281:
 3229              	.L392:
 3230              		.loc 1 371 0
 3231 08d2 BA8D     		ldrh	r2, [r7, #44]
 3232 08d4 B2F5066F 		cmp	r2, #2144
 3233 08d8 01D0     		beq	.L393
 3234              		.loc 1 372 0
 3235 08da 501C     		adds	r0, r2, #1
 3236 08dc B885     		strh	r0, [r7, #44]	@ movhi
 3237              	.L393:
 3238              		.loc 1 374 0
 3239 08de D7F88040 		ldr	r4, [r7, #128]
 3240 08e2 002C     		cmp	r4, #0
 3241 08e4 A9D0     		beq	.L391
 3242              		.loc 1 374 0 is_stmt 0 discriminator 1
 3243 08e6 0022     		movs	r2, #0
 3244 08e8 3869     		ldr	r0, [r7, #16]
 3245 08ea 3946     		mov	r1, r7
ARM GAS  C:\Users\jenny\AppData\Local\Temp\ccsinKfR.s 			page 58


 3246 08ec 1346     		mov	r3, r2
 3247 08ee A047     		blx	r4
 3248              	.LVL282:
 3249              		.loc 1 375 0 is_stmt 1 discriminator 1
 3250 08f0 0A30     		adds	r0, r0, #10
 3251              	.LVL283:
 3252 08f2 A2D1     		bne	.L391
 3253 08f4 9CE4     		b	.L329
 3254              	.L545:
 3255 08f6 00BF     		.align	2
 3256              	.L544:
 3257 08f8 00000000 		.word	tcp_tmp_pcb
 3258 08fc 00000000 		.word	current_iphdr_src
 3259 0900 00000000 		.word	current_iphdr_dest
 3260 0904 00000000 		.word	.LANCHOR0
 3261              	.LVL284:
 3262              	.L535:
 3263              	.LBB47:
 3264              	.LBB33:
 3265              		.loc 1 633 0
 3266 0908 386F     		ldr	r0, [r7, #112]
 3267 090a C468     		ldr	r4, [r0, #12]
 3268 090c 6068     		ldr	r0, [r4, #4]	@ unaligned
 3269 090e FFF7FEFF 		bl	lwip_ntohl
 3270              	.LVL285:
 3271 0912 DAF80020 		ldr	r2, [sl, #0]
 3272 0916 0130     		adds	r0, r0, #1
 3273 0918 9042     		cmp	r0, r2
 3274 091a 7FF4CBAE 		bne	.L346
 3275              		.loc 1 635 0
 3276 091e 40F20001 		movw	r1, #:lower16:.LANCHOR1
 3277 0922 C0F20001 		movt	r1, #:upper16:.LANCHOR1
 3278              		.loc 1 634 0
 3279 0926 B7F86640 		ldrh	r4, [r7, #102]
 3280              		.loc 1 635 0
 3281 092a 0A68     		ldr	r2, [r1, #0]
 3282              		.loc 1 637 0
 3283 092c B864     		str	r0, [r7, #72]
 3284              		.loc 1 635 0
 3285 092e 531C     		adds	r3, r2, #1
 3286              		.loc 1 634 0
 3287 0930 601C     		adds	r0, r4, #1
 3288              		.loc 1 638 0
 3289 0932 3168     		ldr	r1, [r6, #0]
 3290              		.loc 1 634 0
 3291 0934 A7F86600 		strh	r0, [r7, #102]	@ movhi
 3292              		.loc 1 635 0
 3293 0938 BB62     		str	r3, [r7, #40]
 3294              		.loc 1 636 0
 3295 093a 3B63     		str	r3, [r7, #48]
 3296              		.loc 1 638 0
 3297 093c CC89     		ldrh	r4, [r1, #14]	@ unaligned
 3298              		.loc 1 644 0
 3299 093e F88E     		ldrh	r0, [r7, #54]
 3300              		.loc 1 638 0
 3301 0940 A7F86040 		strh	r4, [r7, #96]	@ movhi
 3302              		.loc 1 640 0
ARM GAS  C:\Users\jenny\AppData\Local\Temp\ccsinKfR.s 			page 59


 3303 0944 013A     		subs	r2, r2, #1
 3304              		.loc 1 641 0
 3305 0946 0421     		movs	r1, #4
 3306              		.loc 1 639 0
 3307 0948 A7F86240 		strh	r4, [r7, #98]	@ movhi
 3308              		.loc 1 640 0
 3309 094c 7A65     		str	r2, [r7, #84]
 3310              		.loc 1 641 0
 3311 094e 3976     		strb	r1, [r7, #24]
 3312              		.loc 1 644 0
 3313 0950 7918     		adds	r1, r7, r1
 3314 0952 FFF7FEFF 		bl	tcp_eff_send_mss
 3315              	.LVL286:
 3316              		.loc 1 651 0
 3317 0956 B7F84C30 		ldrh	r3, [r7, #76]
 3318              		.loc 1 644 0
 3319 095a F886     		strh	r0, [r7, #54]	@ movhi
 3320              		.loc 1 649 0
 3321 095c 0A24     		movs	r4, #10
 3322 095e 04FB00F2 		mul	r2, r4, r0
 3323              		.loc 1 651 0
 3324 0962 012B     		cmp	r3, #1
 3325              		.loc 1 649 0
 3326 0964 A7F84E20 		strh	r2, [r7, #78]	@ movhi
 3327              		.loc 1 651 0
 3328 0968 01D1     		bne	.L347
 3329 096a 4000     		lsls	r0, r0, #1
 3330 096c 80B2     		uxth	r0, r0
 3331              	.L347:
 3332              		.loc 1 652 0
 3333 096e B7F86810 		ldrh	r1, [r7, #104]
 3334              		.loc 1 651 0
 3335 0972 A7F84C00 		strh	r0, [r7, #76]	@ movhi
 3336              		.loc 1 652 0
 3337 0976 09B9     		cbnz	r1, .L348
 3338 0978 FFF7FEFF 		bl	port_halt
 3339              	.LVL287:
 3340              	.L348:
 3341              		.loc 1 655 0
 3342 097c 386F     		ldr	r0, [r7, #112]
 3343              	.LVL288:
 3344              		.loc 1 653 0
 3345 097e B7F86840 		ldrh	r4, [r7, #104]
 3346              		.loc 1 656 0
 3347 0982 0368     		ldr	r3, [r0, #0]
 3348              		.loc 1 653 0
 3349 0984 621E     		subs	r2, r4, #1
 3350 0986 A7F86820 		strh	r2, [r7, #104]	@ movhi
 3351              		.loc 1 656 0
 3352 098a 3B67     		str	r3, [r7, #112]
 3353              		.loc 1 657 0
 3354 098c FFF7FEFF 		bl	tcp_seg_free
 3355              	.LVL289:
 3356              		.loc 1 661 0
 3357 0990 386F     		ldr	r0, [r7, #112]
 3358 0992 E8B1     		cbz	r0, .L538
 3359              		.loc 1 664 0
ARM GAS  C:\Users\jenny\AppData\Local\Temp\ccsinKfR.s 			page 60


 3360 0994 0021     		movs	r1, #0
 3361 0996 B986     		strh	r1, [r7, #52]	@ movhi
 3362              		.loc 1 665 0
 3363 0998 87F84610 		strb	r1, [r7, #70]
 3364              	.L350:
 3365              		.loc 1 670 0
 3366 099c D7F88440 		ldr	r4, [r7, #132]
 3367 09a0 002C     		cmp	r4, #0
 3368 09a2 3FF401AD 		beq	.L353
 3369 09a6 0022     		movs	r2, #0
 3370 09a8 3869     		ldr	r0, [r7, #16]
 3371 09aa 3946     		mov	r1, r7
 3372 09ac A047     		blx	r4
 3373              	.LVL290:
 3374              		.loc 1 671 0
 3375 09ae 0A30     		adds	r0, r0, #10
 3376              	.LVL291:
 3377 09b0 7FF4FAAC 		bne	.L353
 3378 09b4 3CE4     		b	.L329
 3379              	.LVL292:
 3380              	.L536:
 3381              	.LBB16:
 3382              		.loc 1 691 0
 3383 09b6 7C69     		ldr	r4, [r7, #20]
 3384              		.loc 1 688 0
 3385 09b8 0420     		movs	r0, #4
 3386 09ba 3876     		strb	r0, [r7, #24]
 3387              		.loc 1 691 0
 3388 09bc 3CB3     		cbz	r4, .L539
 3389              	.L356:
 3390              		.loc 1 694 0
 3391 09be 3869     		ldr	r0, [r7, #16]
 3392 09c0 3946     		mov	r1, r7
 3393 09c2 0022     		movs	r2, #0
 3394 09c4 A047     		blx	r4
 3395              	.LVL293:
 3396              		.loc 1 695 0
 3397 09c6 38B1     		cbz	r0, .L358
 3398              		.loc 1 699 0
 3399 09c8 0A30     		adds	r0, r0, #10
 3400              	.LVL294:
 3401 09ca 7FF47AAF 		bne	.L516
 3402 09ce 2FE4     		b	.L329
 3403              	.LVL295:
 3404              	.L538:
 3405              	.LBE16:
 3406              		.loc 1 662 0
 3407 09d0 4FF6FF73 		movw	r3, #65535
 3408 09d4 BB86     		strh	r3, [r7, #52]	@ movhi
 3409 09d6 E1E7     		b	.L350
 3410              	.LVL296:
 3411              	.L358:
 3412              	.LBB17:
 3413              		.loc 1 707 0
 3414 09d8 3846     		mov	r0, r7
 3415              	.LVL297:
 3416              		.loc 1 704 0
ARM GAS  C:\Users\jenny\AppData\Local\Temp\ccsinKfR.s 			page 61


 3417 09da B7F84C40 		ldrh	r4, [r7, #76]
 3418              	.LVL298:
 3419              		.loc 1 707 0
 3420 09de FFF7FEFF 		bl	tcp_receive
 3421              	.LVL299:
 3422              		.loc 1 710 0
 3423 09e2 B7F86420 		ldrh	r2, [r7, #100]
 3424 09e6 12B1     		cbz	r2, .L360
 3425              		.loc 1 711 0
 3426 09e8 511E     		subs	r1, r2, #1
 3427 09ea A7F86410 		strh	r1, [r7, #100]	@ movhi
 3428              	.L360:
 3429              		.loc 1 714 0
 3430 09ee 012C     		cmp	r4, #1
 3431 09f0 F88E     		ldrh	r0, [r7, #54]
 3432 09f2 01D1     		bne	.L362
 3433 09f4 4300     		lsls	r3, r0, #1
 3434 09f6 98B2     		uxth	r0, r3
 3435              	.L362:
 3436              	.LBE17:
 3437              	.LBE33:
 3438              		.loc 1 716 0
 3439 09f8 98F80040 		ldrb	r4, [r8, #0]	@ zero_extendqisi2
 3440              	.LVL300:
 3441              	.LBB34:
 3442              	.LBB18:
 3443              		.loc 1 714 0
 3444 09fc A7F84C00 		strh	r0, [r7, #76]	@ movhi
 3445              		.loc 1 716 0
 3446 0a00 04F02002 		and	r2, r4, #32
 3447 0a04 D1B2     		uxtb	r1, r2
 3448 0a06 0029     		cmp	r1, #0
 3449 0a08 3FF4ADAC 		beq	.L335
 3450 0a0c 7FE6     		b	.L518
 3451              	.LVL301:
 3452              	.L539:
 3453              		.loc 1 691 0
 3454 0a0e FFF7FEFF 		bl	port_halt
 3455              	.LVL302:
 3456              		.loc 1 694 0
 3457 0a12 7C69     		ldr	r4, [r7, #20]
 3458 0a14 002C     		cmp	r4, #0
 3459 0a16 D2D1     		bne	.L356
 3460 0a18 53E7     		b	.L516
 3461              	.LVL303:
 3462              	.L316:
 3463              	.LBE18:
 3464              	.LBE34:
 3465              	.LBE47:
 3466              	.LBB48:
 3467              	.LBB13:
 3468              		.loc 1 549 0
 3469 0a1a D107     		lsls	r1, r2, #31
 3470 0a1c 7FF574AC 		bpl	.L317
 3471              		.loc 1 552 0
 3472 0a20 3748     		ldr	r0, .L546
 3473 0a22 0368     		ldr	r3, [r0, #0]
ARM GAS  C:\Users\jenny\AppData\Local\Temp\ccsinKfR.s 			page 62


 3474 0a24 7B62     		str	r3, [r7, #36]
 3475 0a26 6FE4     		b	.L317
 3476              	.L527:
 3477              		.loc 1 545 0
 3478 0a28 40F20004 		movw	r4, #:lower16:.LANCHOR4
 3479 0a2c C0F20004 		movt	r4, #:upper16:.LANCHOR4
 3480 0a30 344A     		ldr	r2, .L546+4
 3481 0a32 2488     		ldrh	r4, [r4, #0]
 3482 0a34 8DE80900 		stmia	sp, {r0, r3}
 3483 0a38 6118     		adds	r1, r4, r1
 3484 0a3a DAF80000 		ldr	r0, [sl, #0]
 3485 0a3e 324B     		ldr	r3, .L546+8
 3486 0a40 FFF7FEFF 		bl	tcp_rst
 3487              	.LVL304:
 3488 0a44 6DE4     		b	.L315
 3489              	.LVL305:
 3490              	.L354:
 3491              	.LBE13:
 3492              	.LBE48:
 3493              	.LBB49:
 3494              	.LBB35:
 3495              		.loc 1 725 0
 3496 0a46 04F00203 		and	r3, r4, #2
 3497 0a4a D8B2     		uxtb	r0, r3
 3498 0a4c 0028     		cmp	r0, #0
 3499 0a4e 3FF48AAC 		beq	.L335
 3500 0a52 40F20002 		movw	r2, #:lower16:.LANCHOR1
 3501 0a56 C0F20002 		movt	r2, #:upper16:.LANCHOR1
 3502 0a5a BC6A     		ldr	r4, [r7, #40]
 3503 0a5c 1168     		ldr	r1, [r2, #0]
 3504 0a5e 631E     		subs	r3, r4, #1
 3505 0a60 8B42     		cmp	r3, r1
 3506 0a62 7FF480AC 		bne	.L335
 3507              		.loc 1 727 0
 3508 0a66 3846     		mov	r0, r7
 3509 0a68 FFF7FEFF 		bl	tcp_rexmit
 3510              	.LVL306:
 3511 0a6c 7BE4     		b	.L335
 3512              	.L521:
 3513              		.loc 1 774 0
 3514 0a6e F868     		ldr	r0, [r7, #12]
 3515 0a70 264A     		ldr	r2, .L546+12
 3516 0a72 1060     		str	r0, [r2, #0]
 3517              	.L374:
 3518              		.loc 1 776 0
 3519 0a74 264C     		ldr	r4, .L546+16
 3520              		.loc 1 774 0
 3521 0a76 274A     		ldr	r2, .L546+20
 3522              		.loc 1 776 0
 3523 0a78 2168     		ldr	r1, [r4, #0]
 3524 0a7a 2760     		str	r7, [r4, #0]
 3525              		.loc 1 775 0
 3526 0a7c 0A23     		movs	r3, #10
 3527              		.loc 1 774 0
 3528 0a7e 0120     		movs	r0, #1
 3529              		.loc 1 775 0
 3530 0a80 3B76     		strb	r3, [r7, #24]
ARM GAS  C:\Users\jenny\AppData\Local\Temp\ccsinKfR.s 			page 63


 3531              		.loc 1 776 0
 3532 0a82 F960     		str	r1, [r7, #12]
 3533              		.loc 1 774 0
 3534 0a84 1070     		strb	r0, [r2, #0]
 3535              		.loc 1 776 0
 3536 0a86 FFF7FEFF 		bl	tcp_timer_needed
 3537              	.LVL307:
 3538 0a8a 6CE4     		b	.L335
 3539              	.LVL308:
 3540              	.L526:
 3541              	.LBE35:
 3542              	.LBE49:
 3543              		.loc 1 188 0 discriminator 1
 3544 0a8c FFF7FEFF 		bl	port_halt
 3545              	.LVL309:
 3546 0a90 FFF793BB 		b	.L310
 3547              	.LVL310:
 3548              	.L529:
 3549              	.LBB50:
 3550              	.LBB36:
 3551              		.loc 1 599 0
 3552 0a94 002C     		cmp	r4, #0
 3553 0a96 7FF4DCAE 		bne	.L332
 3554 0a9a FFF7FEFF 		bl	port_halt
 3555              	.LVL311:
 3556 0a9e D8E6     		b	.L332
 3557              	.LVL312:
 3558              	.L363:
 3559              	.LBE36:
 3560              		.loc 1 754 0
 3561 0aa0 40F20006 		movw	r6, #:lower16:.LANCHOR2
 3562 0aa4 C0F20006 		movt	r6, #:upper16:.LANCHOR2
 3563 0aa8 3278     		ldrb	r2, [r6, #0]	@ zero_extendqisi2
 3564              	.LBB37:
 3565 0aaa 02F01003 		and	r3, r2, #16
 3566 0aae DCB2     		uxtb	r4, r3
 3567 0ab0 002C     		cmp	r4, #0
 3568 0ab2 3FF458AC 		beq	.L335
 3569 0ab6 396D     		ldr	r1, [r7, #80]
 3570 0ab8 DAF80000 		ldr	r0, [sl, #0]
 3571 0abc 8142     		cmp	r1, r0
 3572 0abe 7FF452AC 		bne	.L335
 3573              		.loc 1 755 0
 3574 0ac2 0622     		movs	r2, #6
 3575 0ac4 3A76     		strb	r2, [r7, #24]
 3576 0ac6 4EE4     		b	.L335
 3577              	.L534:
 3578              		.loc 1 745 0
 3579 0ac8 BB7F     		ldrb	r3, [r7, #30]	@ zero_extendqisi2
 3580              		.loc 1 747 0
 3581 0aca 40F20004 		movw	r4, #:lower16:tcp_active_pcbs
 3582              		.loc 1 745 0
 3583 0ace 43F00202 		orr	r2, r3, #2
 3584              		.loc 1 747 0
 3585 0ad2 C0F20004 		movt	r4, #:upper16:tcp_active_pcbs
 3586              		.loc 1 746 0
 3587 0ad6 3846     		mov	r0, r7
ARM GAS  C:\Users\jenny\AppData\Local\Temp\ccsinKfR.s 			page 64


 3588              		.loc 1 745 0
 3589 0ad8 BA77     		strb	r2, [r7, #30]
 3590              		.loc 1 746 0
 3591 0ada FFF7FEFF 		bl	tcp_pcb_purge
 3592              	.LVL313:
 3593              		.loc 1 747 0
 3594 0ade 2068     		ldr	r0, [r4, #0]
 3595 0ae0 B842     		cmp	r0, r7
 3596 0ae2 C4D0     		beq	.L521
 3597 0ae4 0C4C     		ldr	r4, .L546+24
 3598 0ae6 2060     		str	r0, [r4, #0]
 3599              	.L367:
 3600 0ae8 40B1     		cbz	r0, .L519
 3601 0aea C168     		ldr	r1, [r0, #12]
 3602 0aec B942     		cmp	r1, r7
 3603 0aee 01D0     		beq	.L520
 3604 0af0 0846     		mov	r0, r1
 3605 0af2 F9E7     		b	.L367
 3606              	.L520:
 3607              		.loc 1 774 0
 3608 0af4 FB68     		ldr	r3, [r7, #12]
 3609 0af6 2060     		str	r0, [r4, #0]
 3610 0af8 C360     		str	r3, [r0, #12]
 3611 0afa BBE7     		b	.L374
 3612              	.L519:
 3613 0afc 2060     		str	r0, [r4, #0]
 3614 0afe B9E7     		b	.L374
 3615              	.L547:
 3616              		.align	2
 3617              	.L546:
 3618 0b00 00000000 		.word	tcp_ticks
 3619 0b04 00000000 		.word	current_iphdr_dest
 3620 0b08 00000000 		.word	current_iphdr_src
 3621 0b0c 00000000 		.word	tcp_active_pcbs
 3622 0b10 00000000 		.word	tcp_tw_pcbs
 3623 0b14 00000000 		.word	tcp_active_pcbs_changed
 3624 0b18 00000000 		.word	tcp_tmp_pcb
 3625              	.LBE37:
 3626              	.LBE50:
 3627              		.cfi_endproc
 3628              	.LFE7:
 3629              		.size	tcp_input, .-tcp_input
 3630              		.global	tcp_input_pcb
 3631 0b1c AFF30080 		.section	.bss.tcphdr,"aw",%nobits
 3632              		.align	2
 3633              		.set	.LANCHOR0,. + 0
 3634              		.type	tcphdr, %object
 3635              		.size	tcphdr, 4
 3636              	tcphdr:
 3637 0000 00000000 		.space	4
 3638              		.section	.bss.seqno,"aw",%nobits
 3639              		.align	2
 3640              		.set	.LANCHOR1,. + 0
 3641              		.type	seqno, %object
 3642              		.size	seqno, 4
 3643              	seqno:
 3644 0000 00000000 		.space	4
ARM GAS  C:\Users\jenny\AppData\Local\Temp\ccsinKfR.s 			page 65


 3645              		.section	.bss.tcplen,"aw",%nobits
 3646              		.align	1
 3647              		.set	.LANCHOR4,. + 0
 3648              		.type	tcplen, %object
 3649              		.size	tcplen, 2
 3650              	tcplen:
 3651 0000 0000     		.space	2
 3652              		.section	.bss.ackno,"aw",%nobits
 3653              		.align	2
 3654              		.set	.LANCHOR3,. + 0
 3655              		.type	ackno, %object
 3656              		.size	ackno, 4
 3657              	ackno:
 3658 0000 00000000 		.space	4
 3659              		.section	.bss.flags,"aw",%nobits
 3660              		.set	.LANCHOR2,. + 0
 3661              		.type	flags, %object
 3662              		.size	flags, 1
 3663              	flags:
 3664 0000 00       		.space	1
 3665              		.section	.bss.recv_flags,"aw",%nobits
 3666              		.set	.LANCHOR7,. + 0
 3667              		.type	recv_flags, %object
 3668              		.size	recv_flags, 1
 3669              	recv_flags:
 3670 0000 00       		.space	1
 3671              		.section	.bss.recv_data,"aw",%nobits
 3672              		.align	2
 3673              		.set	.LANCHOR6,. + 0
 3674              		.type	recv_data, %object
 3675              		.size	recv_data, 4
 3676              	recv_data:
 3677 0000 00000000 		.space	4
 3678              		.section	.bss.iphdr,"aw",%nobits
 3679              		.align	2
 3680              		.set	.LANCHOR8,. + 0
 3681              		.type	iphdr, %object
 3682              		.size	iphdr, 4
 3683              	iphdr:
 3684 0000 00000000 		.space	4
 3685              		.section	.bss.inseg,"aw",%nobits
 3686              		.align	2
 3687              		.set	.LANCHOR5,. + 0
 3688              		.type	inseg, %object
 3689              		.size	inseg, 16
 3690              	inseg:
 3691 0000 00000000 		.space	16
 3691      00000000 
 3691      00000000 
 3691      00000000 
 3692              		.section	.bss.tcp_input_pcb,"aw",%nobits
 3693              		.align	2
 3694              		.set	.LANCHOR9,. + 0
 3695              		.type	tcp_input_pcb, %object
 3696              		.size	tcp_input_pcb, 4
 3697              	tcp_input_pcb:
 3698 0000 00000000 		.space	4
ARM GAS  C:\Users\jenny\AppData\Local\Temp\ccsinKfR.s 			page 66


 3699              		.text
 3700              	.Letext0:
 3701              		.file 2 "c:\\fbin\\yagarto\\bin\\../lib/gcc/arm-none-eabi/4.7.4/../../../../arm-none-eabi/include/
 3702              		.file 3 "../../os/various/lwip_bindings/arch/cc.h"
 3703              		.file 4 "../../ext/lwip/src/include/lwip/mem.h"
 3704              		.file 5 "../../ext/lwip/src/include/lwip/err.h"
 3705              		.file 6 "../../ext/lwip/src/include/lwip/pbuf.h"
 3706              		.file 7 "../../ext/lwip/src/include/ipv4/lwip/ip_addr.h"
 3707              		.file 8 "../../ext/lwip/src/include/lwip/netif.h"
 3708              		.file 9 "../../ext/lwip/src/include/ipv4/lwip/ip.h"
 3709              		.file 10 "../../ext/lwip/src/include/lwip/tcp.h"
 3710              		.file 11 "../../ext/lwip/src/include/lwip/tcp_impl.h"
 3711              		.file 12 "../../ext/lwip/src/include/lwip/memp.h"
 3712              		.file 13 "../../ext/lwip/src/include/lwip/stats.h"
 3713              		.file 14 "../../ext/lwip/src/include/lwip/def.h"
 3714              		.file 15 "../../os/ports/GCC/ARMCMx/chcore_v7m.h"
 3715              		.file 16 "../../ext/lwip/src/include/ipv4/lwip/inet_chksum.h"
 3716              		.section	.debug_info,"",%progbits
 3717              	.Ldebug_info0:
 3718 0000 C31C0000 		.4byte	0x1cc3
 3719 0004 0200     		.2byte	0x2
 3720 0006 00000000 		.4byte	.Ldebug_abbrev0
 3721 000a 04       		.byte	0x4
 3722 000b 01       		.uleb128 0x1
 3723 000c 22060000 		.4byte	.LASF242
 3724 0010 01       		.byte	0x1
 3725 0011 31070000 		.4byte	.LASF243
 3726 0015 75030000 		.4byte	.LASF244
 3727 0019 60010000 		.4byte	.Ldebug_ranges0+0x160
 3728 001d 00000000 		.4byte	0
 3729 0021 00000000 		.4byte	0
 3730 0025 00000000 		.4byte	.Ldebug_line0
 3731 0029 02       		.uleb128 0x2
 3732 002a 04       		.byte	0x4
 3733 002b 05       		.byte	0x5
 3734 002c 696E7400 		.ascii	"int\000"
 3735 0030 03       		.uleb128 0x3
 3736 0031 04       		.byte	0x4
 3737 0032 07       		.byte	0x7
 3738 0033 9D000000 		.4byte	.LASF0
 3739 0037 04       		.uleb128 0x4
 3740 0038 E3010000 		.4byte	.LASF2
 3741 003c 02       		.byte	0x2
 3742 003d 29       		.byte	0x29
 3743 003e 42000000 		.4byte	0x42
 3744 0042 03       		.uleb128 0x3
 3745 0043 01       		.byte	0x1
 3746 0044 06       		.byte	0x6
 3747 0045 AB090000 		.4byte	.LASF1
 3748 0049 04       		.uleb128 0x4
 3749 004a A4040000 		.4byte	.LASF3
 3750 004e 02       		.byte	0x2
 3751 004f 2A       		.byte	0x2a
 3752 0050 54000000 		.4byte	0x54
 3753 0054 03       		.uleb128 0x3
 3754 0055 01       		.byte	0x1
 3755 0056 08       		.byte	0x8
ARM GAS  C:\Users\jenny\AppData\Local\Temp\ccsinKfR.s 			page 67


 3756 0057 E9080000 		.4byte	.LASF4
 3757 005b 04       		.uleb128 0x4
 3758 005c 42020000 		.4byte	.LASF5
 3759 0060 02       		.byte	0x2
 3760 0061 35       		.byte	0x35
 3761 0062 66000000 		.4byte	0x66
 3762 0066 03       		.uleb128 0x3
 3763 0067 02       		.byte	0x2
 3764 0068 05       		.byte	0x5
 3765 0069 DC060000 		.4byte	.LASF6
 3766 006d 04       		.uleb128 0x4
 3767 006e 88060000 		.4byte	.LASF7
 3768 0072 02       		.byte	0x2
 3769 0073 36       		.byte	0x36
 3770 0074 78000000 		.4byte	0x78
 3771 0078 03       		.uleb128 0x3
 3772 0079 02       		.byte	0x2
 3773 007a 07       		.byte	0x7
 3774 007b BF090000 		.4byte	.LASF8
 3775 007f 04       		.uleb128 0x4
 3776 0080 A9080000 		.4byte	.LASF9
 3777 0084 02       		.byte	0x2
 3778 0085 4F       		.byte	0x4f
 3779 0086 8A000000 		.4byte	0x8a
 3780 008a 03       		.uleb128 0x3
 3781 008b 04       		.byte	0x4
 3782 008c 05       		.byte	0x5
 3783 008d EB060000 		.4byte	.LASF10
 3784 0091 04       		.uleb128 0x4
 3785 0092 DA010000 		.4byte	.LASF11
 3786 0096 02       		.byte	0x2
 3787 0097 50       		.byte	0x50
 3788 0098 9C000000 		.4byte	0x9c
 3789 009c 03       		.uleb128 0x3
 3790 009d 04       		.byte	0x4
 3791 009e 07       		.byte	0x7
 3792 009f 76080000 		.4byte	.LASF12
 3793 00a3 03       		.uleb128 0x3
 3794 00a4 08       		.byte	0x8
 3795 00a5 05       		.byte	0x5
 3796 00a6 34050000 		.4byte	.LASF13
 3797 00aa 03       		.uleb128 0x3
 3798 00ab 08       		.byte	0x8
 3799 00ac 07       		.byte	0x7
 3800 00ad 60020000 		.4byte	.LASF14
 3801 00b1 03       		.uleb128 0x3
 3802 00b2 01       		.byte	0x1
 3803 00b3 02       		.byte	0x2
 3804 00b4 31030000 		.4byte	.LASF15
 3805 00b8 05       		.uleb128 0x5
 3806 00b9 04       		.byte	0x4
 3807 00ba 03       		.uleb128 0x3
 3808 00bb 04       		.byte	0x4
 3809 00bc 07       		.byte	0x7
 3810 00bd 6D080000 		.4byte	.LASF16
 3811 00c1 03       		.uleb128 0x3
 3812 00c2 01       		.byte	0x1
ARM GAS  C:\Users\jenny\AppData\Local\Temp\ccsinKfR.s 			page 68


 3813 00c3 08       		.byte	0x8
 3814 00c4 3D040000 		.4byte	.LASF17
 3815 00c8 04       		.uleb128 0x4
 3816 00c9 87050000 		.4byte	.LASF18
 3817 00cd 03       		.byte	0x3
 3818 00ce 38       		.byte	0x38
 3819 00cf 49000000 		.4byte	0x49
 3820 00d3 04       		.uleb128 0x4
 3821 00d4 6A030000 		.4byte	.LASF19
 3822 00d8 03       		.byte	0x3
 3823 00d9 39       		.byte	0x39
 3824 00da 37000000 		.4byte	0x37
 3825 00de 04       		.uleb128 0x4
 3826 00df E1000000 		.4byte	.LASF20
 3827 00e3 03       		.byte	0x3
 3828 00e4 3A       		.byte	0x3a
 3829 00e5 6D000000 		.4byte	0x6d
 3830 00e9 04       		.uleb128 0x4
 3831 00ea A3080000 		.4byte	.LASF21
 3832 00ee 03       		.byte	0x3
 3833 00ef 3B       		.byte	0x3b
 3834 00f0 5B000000 		.4byte	0x5b
 3835 00f4 04       		.uleb128 0x4
 3836 00f5 D6060000 		.4byte	.LASF22
 3837 00f9 03       		.byte	0x3
 3838 00fa 3C       		.byte	0x3c
 3839 00fb 91000000 		.4byte	0x91
 3840 00ff 04       		.uleb128 0x4
 3841 0100 6F030000 		.4byte	.LASF23
 3842 0104 03       		.byte	0x3
 3843 0105 3D       		.byte	0x3d
 3844 0106 7F000000 		.4byte	0x7f
 3845 010a 04       		.uleb128 0x4
 3846 010b 5B040000 		.4byte	.LASF24
 3847 010f 04       		.byte	0x4
 3848 0110 4C       		.byte	0x4c
 3849 0111 DE000000 		.4byte	0xde
 3850 0115 04       		.uleb128 0x4
 3851 0116 C0000000 		.4byte	.LASF25
 3852 011a 05       		.byte	0x5
 3853 011b 2F       		.byte	0x2f
 3854 011c D3000000 		.4byte	0xd3
 3855 0120 06       		.uleb128 0x6
 3856 0121 21090000 		.4byte	.LASF31
 3857 0125 10       		.byte	0x10
 3858 0126 06       		.byte	0x6
 3859 0127 4F       		.byte	0x4f
 3860 0128 8F010000 		.4byte	0x18f
 3861 012c 07       		.uleb128 0x7
 3862 012d BB000000 		.4byte	.LASF26
 3863 0131 06       		.byte	0x6
 3864 0132 51       		.byte	0x51
 3865 0133 8F010000 		.4byte	0x18f
 3866 0137 02       		.byte	0x2
 3867 0138 23       		.byte	0x23
 3868 0139 00       		.uleb128 0
 3869 013a 07       		.uleb128 0x7
ARM GAS  C:\Users\jenny\AppData\Local\Temp\ccsinKfR.s 			page 69


 3870 013b FB020000 		.4byte	.LASF27
 3871 013f 06       		.byte	0x6
 3872 0140 54       		.byte	0x54
 3873 0141 B8000000 		.4byte	0xb8
 3874 0145 02       		.byte	0x2
 3875 0146 23       		.byte	0x23
 3876 0147 04       		.uleb128 0x4
 3877 0148 07       		.uleb128 0x7
 3878 0149 F3020000 		.4byte	.LASF28
 3879 014d 06       		.byte	0x6
 3880 014e 5D       		.byte	0x5d
 3881 014f DE000000 		.4byte	0xde
 3882 0153 02       		.byte	0x2
 3883 0154 23       		.byte	0x23
 3884 0155 08       		.uleb128 0x8
 3885 0156 08       		.uleb128 0x8
 3886 0157 6C656E00 		.ascii	"len\000"
 3887 015b 06       		.byte	0x6
 3888 015c 60       		.byte	0x60
 3889 015d DE000000 		.4byte	0xde
 3890 0161 02       		.byte	0x2
 3891 0162 23       		.byte	0x23
 3892 0163 0A       		.uleb128 0xa
 3893 0164 07       		.uleb128 0x7
 3894 0165 DA080000 		.4byte	.LASF29
 3895 0169 06       		.byte	0x6
 3896 016a 63       		.byte	0x63
 3897 016b C8000000 		.4byte	0xc8
 3898 016f 02       		.byte	0x2
 3899 0170 23       		.byte	0x23
 3900 0171 0C       		.uleb128 0xc
 3901 0172 07       		.uleb128 0x7
 3902 0173 8D000000 		.4byte	.LASF30
 3903 0177 06       		.byte	0x6
 3904 0178 66       		.byte	0x66
 3905 0179 C8000000 		.4byte	0xc8
 3906 017d 02       		.byte	0x2
 3907 017e 23       		.byte	0x23
 3908 017f 0D       		.uleb128 0xd
 3909 0180 08       		.uleb128 0x8
 3910 0181 72656600 		.ascii	"ref\000"
 3911 0185 06       		.byte	0x6
 3912 0186 6D       		.byte	0x6d
 3913 0187 DE000000 		.4byte	0xde
 3914 018b 02       		.byte	0x2
 3915 018c 23       		.byte	0x23
 3916 018d 0E       		.uleb128 0xe
 3917 018e 00       		.byte	0
 3918 018f 09       		.uleb128 0x9
 3919 0190 04       		.byte	0x4
 3920 0191 20010000 		.4byte	0x120
 3921 0195 06       		.uleb128 0x6
 3922 0196 890A0000 		.4byte	.LASF32
 3923 019a 04       		.byte	0x4
 3924 019b 07       		.byte	0x7
 3925 019c 2C       		.byte	0x2c
 3926 019d B0010000 		.4byte	0x1b0
ARM GAS  C:\Users\jenny\AppData\Local\Temp\ccsinKfR.s 			page 70


 3927 01a1 07       		.uleb128 0x7
 3928 01a2 60090000 		.4byte	.LASF33
 3929 01a6 07       		.byte	0x7
 3930 01a7 2D       		.byte	0x2d
 3931 01a8 F4000000 		.4byte	0xf4
 3932 01ac 02       		.byte	0x2
 3933 01ad 23       		.byte	0x23
 3934 01ae 00       		.uleb128 0
 3935 01af 00       		.byte	0
 3936 01b0 06       		.uleb128 0x6
 3937 01b1 7E040000 		.4byte	.LASF34
 3938 01b5 04       		.byte	0x4
 3939 01b6 07       		.byte	0x7
 3940 01b7 36       		.byte	0x36
 3941 01b8 CB010000 		.4byte	0x1cb
 3942 01bc 07       		.uleb128 0x7
 3943 01bd 60090000 		.4byte	.LASF33
 3944 01c1 07       		.byte	0x7
 3945 01c2 37       		.byte	0x37
 3946 01c3 F4000000 		.4byte	0xf4
 3947 01c7 02       		.byte	0x2
 3948 01c8 23       		.byte	0x23
 3949 01c9 00       		.uleb128 0
 3950 01ca 00       		.byte	0
 3951 01cb 04       		.uleb128 0x4
 3952 01cc 2D0A0000 		.4byte	.LASF35
 3953 01d0 07       		.byte	0x7
 3954 01d1 40       		.byte	0x40
 3955 01d2 95010000 		.4byte	0x195
 3956 01d6 04       		.uleb128 0x4
 3957 01d7 26090000 		.4byte	.LASF36
 3958 01db 07       		.byte	0x7
 3959 01dc 41       		.byte	0x41
 3960 01dd B0010000 		.4byte	0x1b0
 3961 01e1 09       		.uleb128 0x9
 3962 01e2 04       		.byte	0x4
 3963 01e3 E7010000 		.4byte	0x1e7
 3964 01e7 06       		.uleb128 0x6
 3965 01e8 70090000 		.4byte	.LASF37
 3966 01ec 30       		.byte	0x30
 3967 01ed 08       		.byte	0x8
 3968 01ee 88       		.byte	0x88
 3969 01ef B7020000 		.4byte	0x2b7
 3970 01f3 07       		.uleb128 0x7
 3971 01f4 BB000000 		.4byte	.LASF26
 3972 01f8 08       		.byte	0x8
 3973 01f9 8A       		.byte	0x8a
 3974 01fa E1010000 		.4byte	0x1e1
 3975 01fe 02       		.byte	0x2
 3976 01ff 23       		.byte	0x23
 3977 0200 00       		.uleb128 0
 3978 0201 07       		.uleb128 0x7
 3979 0202 890A0000 		.4byte	.LASF32
 3980 0206 08       		.byte	0x8
 3981 0207 8D       		.byte	0x8d
 3982 0208 CB010000 		.4byte	0x1cb
 3983 020c 02       		.byte	0x2
ARM GAS  C:\Users\jenny\AppData\Local\Temp\ccsinKfR.s 			page 71


 3984 020d 23       		.byte	0x23
 3985 020e 04       		.uleb128 0x4
 3986 020f 07       		.uleb128 0x7
 3987 0210 2C050000 		.4byte	.LASF38
 3988 0214 08       		.byte	0x8
 3989 0215 8E       		.byte	0x8e
 3990 0216 CB010000 		.4byte	0x1cb
 3991 021a 02       		.byte	0x2
 3992 021b 23       		.byte	0x23
 3993 021c 08       		.uleb128 0x8
 3994 021d 08       		.uleb128 0x8
 3995 021e 677700   		.ascii	"gw\000"
 3996 0221 08       		.byte	0x8
 3997 0222 8F       		.byte	0x8f
 3998 0223 CB010000 		.4byte	0x1cb
 3999 0227 02       		.byte	0x2
 4000 0228 23       		.byte	0x23
 4001 0229 0C       		.uleb128 0xc
 4002 022a 07       		.uleb128 0x7
 4003 022b 39000000 		.4byte	.LASF39
 4004 022f 08       		.byte	0x8
 4005 0230 93       		.byte	0x93
 4006 0231 B7020000 		.4byte	0x2b7
 4007 0235 02       		.byte	0x2
 4008 0236 23       		.byte	0x23
 4009 0237 10       		.uleb128 0x10
 4010 0238 07       		.uleb128 0x7
 4011 0239 18030000 		.4byte	.LASF40
 4012 023d 08       		.byte	0x8
 4013 023e 97       		.byte	0x97
 4014 023f DD020000 		.4byte	0x2dd
 4015 0243 02       		.byte	0x2
 4016 0244 23       		.byte	0x23
 4017 0245 14       		.uleb128 0x14
 4018 0246 07       		.uleb128 0x7
 4019 0247 C6000000 		.4byte	.LASF41
 4020 024b 08       		.byte	0x8
 4021 024c 9B       		.byte	0x9b
 4022 024d 0E030000 		.4byte	0x30e
 4023 0251 02       		.byte	0x2
 4024 0252 23       		.byte	0x23
 4025 0253 18       		.uleb128 0x18
 4026 0254 07       		.uleb128 0x7
 4027 0255 6A090000 		.4byte	.LASF42
 4028 0259 08       		.byte	0x8
 4029 025a AC       		.byte	0xac
 4030 025b B8000000 		.4byte	0xb8
 4031 025f 02       		.byte	0x2
 4032 0260 23       		.byte	0x23
 4033 0261 1C       		.uleb128 0x1c
 4034 0262 08       		.uleb128 0x8
 4035 0263 6D747500 		.ascii	"mtu\000"
 4036 0267 08       		.byte	0x8
 4037 0268 BA       		.byte	0xba
 4038 0269 DE000000 		.4byte	0xde
 4039 026d 02       		.byte	0x2
 4040 026e 23       		.byte	0x23
ARM GAS  C:\Users\jenny\AppData\Local\Temp\ccsinKfR.s 			page 72


 4041 026f 20       		.uleb128 0x20
 4042 0270 07       		.uleb128 0x7
 4043 0271 97020000 		.4byte	.LASF43
 4044 0275 08       		.byte	0x8
 4045 0276 BC       		.byte	0xbc
 4046 0277 C8000000 		.4byte	0xc8
 4047 027b 02       		.byte	0x2
 4048 027c 23       		.byte	0x23
 4049 027d 22       		.uleb128 0x22
 4050 027e 07       		.uleb128 0x7
 4051 027f 4A020000 		.4byte	.LASF44
 4052 0283 08       		.byte	0x8
 4053 0284 BE       		.byte	0xbe
 4054 0285 34030000 		.4byte	0x334
 4055 0289 02       		.byte	0x2
 4056 028a 23       		.byte	0x23
 4057 028b 23       		.uleb128 0x23
 4058 028c 07       		.uleb128 0x7
 4059 028d 8D000000 		.4byte	.LASF30
 4060 0291 08       		.byte	0x8
 4061 0292 C0       		.byte	0xc0
 4062 0293 C8000000 		.4byte	0xc8
 4063 0297 02       		.byte	0x2
 4064 0298 23       		.byte	0x23
 4065 0299 29       		.uleb128 0x29
 4066 029a 07       		.uleb128 0x7
 4067 029b FB070000 		.4byte	.LASF45
 4068 029f 08       		.byte	0x8
 4069 02a0 C2       		.byte	0xc2
 4070 02a1 44030000 		.4byte	0x344
 4071 02a5 02       		.byte	0x2
 4072 02a6 23       		.byte	0x23
 4073 02a7 2A       		.uleb128 0x2a
 4074 02a8 08       		.uleb128 0x8
 4075 02a9 6E756D00 		.ascii	"num\000"
 4076 02ad 08       		.byte	0x8
 4077 02ae C4       		.byte	0xc4
 4078 02af C8000000 		.4byte	0xc8
 4079 02b3 02       		.byte	0x2
 4080 02b4 23       		.byte	0x23
 4081 02b5 2C       		.uleb128 0x2c
 4082 02b6 00       		.byte	0
 4083 02b7 04       		.uleb128 0x4
 4084 02b8 BF010000 		.4byte	.LASF46
 4085 02bc 08       		.byte	0x8
 4086 02bd 6D       		.byte	0x6d
 4087 02be C2020000 		.4byte	0x2c2
 4088 02c2 09       		.uleb128 0x9
 4089 02c3 04       		.byte	0x4
 4090 02c4 C8020000 		.4byte	0x2c8
 4091 02c8 0A       		.uleb128 0xa
 4092 02c9 01       		.byte	0x1
 4093 02ca 15010000 		.4byte	0x115
 4094 02ce DD020000 		.4byte	0x2dd
 4095 02d2 0B       		.uleb128 0xb
 4096 02d3 8F010000 		.4byte	0x18f
 4097 02d7 0B       		.uleb128 0xb
ARM GAS  C:\Users\jenny\AppData\Local\Temp\ccsinKfR.s 			page 73


 4098 02d8 E1010000 		.4byte	0x1e1
 4099 02dc 00       		.byte	0
 4100 02dd 04       		.uleb128 0x4
 4101 02de 30010000 		.4byte	.LASF47
 4102 02e2 08       		.byte	0x8
 4103 02e3 76       		.byte	0x76
 4104 02e4 E8020000 		.4byte	0x2e8
 4105 02e8 09       		.uleb128 0x9
 4106 02e9 04       		.byte	0x4
 4107 02ea EE020000 		.4byte	0x2ee
 4108 02ee 0A       		.uleb128 0xa
 4109 02ef 01       		.byte	0x1
 4110 02f0 15010000 		.4byte	0x115
 4111 02f4 08030000 		.4byte	0x308
 4112 02f8 0B       		.uleb128 0xb
 4113 02f9 E1010000 		.4byte	0x1e1
 4114 02fd 0B       		.uleb128 0xb
 4115 02fe 8F010000 		.4byte	0x18f
 4116 0302 0B       		.uleb128 0xb
 4117 0303 08030000 		.4byte	0x308
 4118 0307 00       		.byte	0
 4119 0308 09       		.uleb128 0x9
 4120 0309 04       		.byte	0x4
 4121 030a CB010000 		.4byte	0x1cb
 4122 030e 04       		.uleb128 0x4
 4123 030f 00080000 		.4byte	.LASF48
 4124 0313 08       		.byte	0x8
 4125 0314 7E       		.byte	0x7e
 4126 0315 19030000 		.4byte	0x319
 4127 0319 09       		.uleb128 0x9
 4128 031a 04       		.byte	0x4
 4129 031b 1F030000 		.4byte	0x31f
 4130 031f 0A       		.uleb128 0xa
 4131 0320 01       		.byte	0x1
 4132 0321 15010000 		.4byte	0x115
 4133 0325 34030000 		.4byte	0x334
 4134 0329 0B       		.uleb128 0xb
 4135 032a E1010000 		.4byte	0x1e1
 4136 032e 0B       		.uleb128 0xb
 4137 032f 8F010000 		.4byte	0x18f
 4138 0333 00       		.byte	0
 4139 0334 0C       		.uleb128 0xc
 4140 0335 C8000000 		.4byte	0xc8
 4141 0339 44030000 		.4byte	0x344
 4142 033d 0D       		.uleb128 0xd
 4143 033e BA000000 		.4byte	0xba
 4144 0342 05       		.byte	0x5
 4145 0343 00       		.byte	0
 4146 0344 0C       		.uleb128 0xc
 4147 0345 C1000000 		.4byte	0xc1
 4148 0349 54030000 		.4byte	0x354
 4149 034d 0D       		.uleb128 0xd
 4150 034e BA000000 		.4byte	0xba
 4151 0352 01       		.byte	0x1
 4152 0353 00       		.byte	0
 4153 0354 06       		.uleb128 0x6
 4154 0355 E8070000 		.4byte	.LASF49
ARM GAS  C:\Users\jenny\AppData\Local\Temp\ccsinKfR.s 			page 74


 4155 0359 14       		.byte	0x14
 4156 035a 09       		.byte	0x9
 4157 035b 74       		.byte	0x74
 4158 035c ED030000 		.4byte	0x3ed
 4159 0360 07       		.uleb128 0x7
 4160 0361 8C050000 		.4byte	.LASF50
 4161 0365 09       		.byte	0x9
 4162 0366 76       		.byte	0x76
 4163 0367 C8000000 		.4byte	0xc8
 4164 036b 02       		.byte	0x2
 4165 036c 23       		.byte	0x23
 4166 036d 00       		.uleb128 0
 4167 036e 07       		.uleb128 0x7
 4168 036f 68080000 		.4byte	.LASF51
 4169 0373 09       		.byte	0x9
 4170 0374 78       		.byte	0x78
 4171 0375 C8000000 		.4byte	0xc8
 4172 0379 02       		.byte	0x2
 4173 037a 23       		.byte	0x23
 4174 037b 01       		.uleb128 0x1
 4175 037c 07       		.uleb128 0x7
 4176 037d 280A0000 		.4byte	.LASF52
 4177 0381 09       		.byte	0x9
 4178 0382 7A       		.byte	0x7a
 4179 0383 DE000000 		.4byte	0xde
 4180 0387 02       		.byte	0x2
 4181 0388 23       		.byte	0x23
 4182 0389 02       		.uleb128 0x2
 4183 038a 08       		.uleb128 0x8
 4184 038b 5F696400 		.ascii	"_id\000"
 4185 038f 09       		.byte	0x9
 4186 0390 7C       		.byte	0x7c
 4187 0391 DE000000 		.4byte	0xde
 4188 0395 02       		.byte	0x2
 4189 0396 23       		.byte	0x23
 4190 0397 04       		.uleb128 0x4
 4191 0398 07       		.uleb128 0x7
 4192 0399 A2020000 		.4byte	.LASF53
 4193 039d 09       		.byte	0x9
 4194 039e 7E       		.byte	0x7e
 4195 039f DE000000 		.4byte	0xde
 4196 03a3 02       		.byte	0x2
 4197 03a4 23       		.byte	0x23
 4198 03a5 06       		.uleb128 0x6
 4199 03a6 07       		.uleb128 0x7
 4200 03a7 E7000000 		.4byte	.LASF54
 4201 03ab 09       		.byte	0x9
 4202 03ac 84       		.byte	0x84
 4203 03ad C8000000 		.4byte	0xc8
 4204 03b1 02       		.byte	0x2
 4205 03b2 23       		.byte	0x23
 4206 03b3 08       		.uleb128 0x8
 4207 03b4 07       		.uleb128 0x7
 4208 03b5 C9040000 		.4byte	.LASF55
 4209 03b9 09       		.byte	0x9
 4210 03ba 86       		.byte	0x86
 4211 03bb C8000000 		.4byte	0xc8
ARM GAS  C:\Users\jenny\AppData\Local\Temp\ccsinKfR.s 			page 75


 4212 03bf 02       		.byte	0x2
 4213 03c0 23       		.byte	0x23
 4214 03c1 09       		.uleb128 0x9
 4215 03c2 07       		.uleb128 0x7
 4216 03c3 89020000 		.4byte	.LASF56
 4217 03c7 09       		.byte	0x9
 4218 03c8 88       		.byte	0x88
 4219 03c9 DE000000 		.4byte	0xde
 4220 03cd 02       		.byte	0x2
 4221 03ce 23       		.byte	0x23
 4222 03cf 0A       		.uleb128 0xa
 4223 03d0 08       		.uleb128 0x8
 4224 03d1 73726300 		.ascii	"src\000"
 4225 03d5 09       		.byte	0x9
 4226 03d6 8A       		.byte	0x8a
 4227 03d7 D6010000 		.4byte	0x1d6
 4228 03db 02       		.byte	0x2
 4229 03dc 23       		.byte	0x23
 4230 03dd 0C       		.uleb128 0xc
 4231 03de 07       		.uleb128 0x7
 4232 03df 7B0A0000 		.4byte	.LASF57
 4233 03e3 09       		.byte	0x9
 4234 03e4 8B       		.byte	0x8b
 4235 03e5 D6010000 		.4byte	0x1d6
 4236 03e9 02       		.byte	0x2
 4237 03ea 23       		.byte	0x23
 4238 03eb 10       		.uleb128 0x10
 4239 03ec 00       		.byte	0
 4240 03ed 04       		.uleb128 0x4
 4241 03ee 7F000000 		.4byte	.LASF58
 4242 03f2 0A       		.byte	0xa
 4243 03f3 3C       		.byte	0x3c
 4244 03f4 F8030000 		.4byte	0x3f8
 4245 03f8 09       		.uleb128 0x9
 4246 03f9 04       		.byte	0x4
 4247 03fa FE030000 		.4byte	0x3fe
 4248 03fe 0A       		.uleb128 0xa
 4249 03ff 01       		.byte	0x1
 4250 0400 15010000 		.4byte	0x115
 4251 0404 18040000 		.4byte	0x418
 4252 0408 0B       		.uleb128 0xb
 4253 0409 B8000000 		.4byte	0xb8
 4254 040d 0B       		.uleb128 0xb
 4255 040e 18040000 		.4byte	0x418
 4256 0412 0B       		.uleb128 0xb
 4257 0413 15010000 		.4byte	0x115
 4258 0417 00       		.byte	0
 4259 0418 09       		.uleb128 0x9
 4260 0419 04       		.byte	0x4
 4261 041a 1E040000 		.4byte	0x41e
 4262 041e 06       		.uleb128 0x6
 4263 041f B7090000 		.4byte	.LASF59
 4264 0423 98       		.byte	0x98
 4265 0424 0A       		.byte	0xa
 4266 0425 A8       		.byte	0xa8
 4267 0426 48070000 		.4byte	0x748
 4268 042a 07       		.uleb128 0x7
ARM GAS  C:\Users\jenny\AppData\Local\Temp\ccsinKfR.s 			page 76


 4269 042b A4070000 		.4byte	.LASF60
 4270 042f 0A       		.byte	0xa
 4271 0430 AA       		.byte	0xaa
 4272 0431 CB010000 		.4byte	0x1cb
 4273 0435 02       		.byte	0x2
 4274 0436 23       		.byte	0x23
 4275 0437 00       		.uleb128 0
 4276 0438 07       		.uleb128 0x7
 4277 0439 F6090000 		.4byte	.LASF61
 4278 043d 0A       		.byte	0xa
 4279 043e AA       		.byte	0xaa
 4280 043f CB010000 		.4byte	0x1cb
 4281 0443 02       		.byte	0x2
 4282 0444 23       		.byte	0x23
 4283 0445 04       		.uleb128 0x4
 4284 0446 07       		.uleb128 0x7
 4285 0447 2E000000 		.4byte	.LASF62
 4286 044b 0A       		.byte	0xa
 4287 044c AA       		.byte	0xaa
 4288 044d C8000000 		.4byte	0xc8
 4289 0451 02       		.byte	0x2
 4290 0452 23       		.byte	0x23
 4291 0453 08       		.uleb128 0x8
 4292 0454 08       		.uleb128 0x8
 4293 0455 746F7300 		.ascii	"tos\000"
 4294 0459 0A       		.byte	0xa
 4295 045a AA       		.byte	0xaa
 4296 045b C8000000 		.4byte	0xc8
 4297 045f 02       		.byte	0x2
 4298 0460 23       		.byte	0x23
 4299 0461 09       		.uleb128 0x9
 4300 0462 08       		.uleb128 0x8
 4301 0463 74746C00 		.ascii	"ttl\000"
 4302 0467 0A       		.byte	0xa
 4303 0468 AA       		.byte	0xaa
 4304 0469 C8000000 		.4byte	0xc8
 4305 046d 02       		.byte	0x2
 4306 046e 23       		.byte	0x23
 4307 046f 0A       		.uleb128 0xa
 4308 0470 07       		.uleb128 0x7
 4309 0471 BB000000 		.4byte	.LASF26
 4310 0475 0A       		.byte	0xa
 4311 0476 AC       		.byte	0xac
 4312 0477 18040000 		.4byte	0x418
 4313 047b 02       		.byte	0x2
 4314 047c 23       		.byte	0x23
 4315 047d 0C       		.uleb128 0xc
 4316 047e 07       		.uleb128 0x7
 4317 047f 42090000 		.4byte	.LASF63
 4318 0483 0A       		.byte	0xa
 4319 0484 AC       		.byte	0xac
 4320 0485 B8000000 		.4byte	0xb8
 4321 0489 02       		.byte	0x2
 4322 048a 23       		.byte	0x23
 4323 048b 10       		.uleb128 0x10
 4324 048c 07       		.uleb128 0x7
 4325 048d 27040000 		.4byte	.LASF64
ARM GAS  C:\Users\jenny\AppData\Local\Temp\ccsinKfR.s 			page 77


 4326 0491 0A       		.byte	0xa
 4327 0492 AC       		.byte	0xac
 4328 0493 ED030000 		.4byte	0x3ed
 4329 0497 02       		.byte	0x2
 4330 0498 23       		.byte	0x23
 4331 0499 14       		.uleb128 0x14
 4332 049a 07       		.uleb128 0x7
 4333 049b 6A090000 		.4byte	.LASF42
 4334 049f 0A       		.byte	0xa
 4335 04a0 AC       		.byte	0xac
 4336 04a1 F6070000 		.4byte	0x7f6
 4337 04a5 02       		.byte	0x2
 4338 04a6 23       		.byte	0x23
 4339 04a7 18       		.uleb128 0x18
 4340 04a8 07       		.uleb128 0x7
 4341 04a9 22040000 		.4byte	.LASF65
 4342 04ad 0A       		.byte	0xa
 4343 04ae AC       		.byte	0xac
 4344 04af C8000000 		.4byte	0xc8
 4345 04b3 02       		.byte	0x2
 4346 04b4 23       		.byte	0x23
 4347 04b5 19       		.uleb128 0x19
 4348 04b6 07       		.uleb128 0x7
 4349 04b7 21020000 		.4byte	.LASF66
 4350 04bb 0A       		.byte	0xa
 4351 04bc AC       		.byte	0xac
 4352 04bd DE000000 		.4byte	0xde
 4353 04c1 02       		.byte	0x2
 4354 04c2 23       		.byte	0x23
 4355 04c3 1A       		.uleb128 0x1a
 4356 04c4 07       		.uleb128 0x7
 4357 04c5 C9050000 		.4byte	.LASF67
 4358 04c9 0A       		.byte	0xa
 4359 04ca AF       		.byte	0xaf
 4360 04cb DE000000 		.4byte	0xde
 4361 04cf 02       		.byte	0x2
 4362 04d0 23       		.byte	0x23
 4363 04d1 1C       		.uleb128 0x1c
 4364 04d2 07       		.uleb128 0x7
 4365 04d3 8D000000 		.4byte	.LASF30
 4366 04d7 0A       		.byte	0xa
 4367 04d8 B1       		.byte	0xb1
 4368 04d9 C8000000 		.4byte	0xc8
 4369 04dd 02       		.byte	0x2
 4370 04de 23       		.byte	0x23
 4371 04df 1E       		.uleb128 0x1e
 4372 04e0 07       		.uleb128 0x7
 4373 04e1 77000000 		.4byte	.LASF68
 4374 04e5 0A       		.byte	0xa
 4375 04e6 BF       		.byte	0xbf
 4376 04e7 C8000000 		.4byte	0xc8
 4377 04eb 02       		.byte	0x2
 4378 04ec 23       		.byte	0x23
 4379 04ed 1F       		.uleb128 0x1f
 4380 04ee 07       		.uleb128 0x7
 4381 04ef 34080000 		.4byte	.LASF69
 4382 04f3 0A       		.byte	0xa
ARM GAS  C:\Users\jenny\AppData\Local\Temp\ccsinKfR.s 			page 78


 4383 04f4 BF       		.byte	0xbf
 4384 04f5 C8000000 		.4byte	0xc8
 4385 04f9 02       		.byte	0x2
 4386 04fa 23       		.byte	0x23
 4387 04fb 20       		.uleb128 0x20
 4388 04fc 07       		.uleb128 0x7
 4389 04fd 8C070000 		.4byte	.LASF70
 4390 0501 0A       		.byte	0xa
 4391 0502 C0       		.byte	0xc0
 4392 0503 C8000000 		.4byte	0xc8
 4393 0507 02       		.byte	0x2
 4394 0508 23       		.byte	0x23
 4395 0509 21       		.uleb128 0x21
 4396 050a 08       		.uleb128 0x8
 4397 050b 746D7200 		.ascii	"tmr\000"
 4398 050f 0A       		.byte	0xa
 4399 0510 C1       		.byte	0xc1
 4400 0511 F4000000 		.4byte	0xf4
 4401 0515 02       		.byte	0x2
 4402 0516 23       		.byte	0x23
 4403 0517 24       		.uleb128 0x24
 4404 0518 07       		.uleb128 0x7
 4405 0519 B0020000 		.4byte	.LASF71
 4406 051d 0A       		.byte	0xa
 4407 051e C4       		.byte	0xc4
 4408 051f F4000000 		.4byte	0xf4
 4409 0523 02       		.byte	0x2
 4410 0524 23       		.byte	0x23
 4411 0525 28       		.uleb128 0x28
 4412 0526 07       		.uleb128 0x7
 4413 0527 22070000 		.4byte	.LASF72
 4414 052b 0A       		.byte	0xa
 4415 052c C5       		.byte	0xc5
 4416 052d DE000000 		.4byte	0xde
 4417 0531 02       		.byte	0x2
 4418 0532 23       		.byte	0x23
 4419 0533 2C       		.uleb128 0x2c
 4420 0534 07       		.uleb128 0x7
 4421 0535 E5050000 		.4byte	.LASF73
 4422 0539 0A       		.byte	0xa
 4423 053a C6       		.byte	0xc6
 4424 053b DE000000 		.4byte	0xde
 4425 053f 02       		.byte	0x2
 4426 0540 23       		.byte	0x23
 4427 0541 2E       		.uleb128 0x2e
 4428 0542 07       		.uleb128 0x7
 4429 0543 01010000 		.4byte	.LASF74
 4430 0547 0A       		.byte	0xa
 4431 0548 C7       		.byte	0xc7
 4432 0549 F4000000 		.4byte	0xf4
 4433 054d 02       		.byte	0x2
 4434 054e 23       		.byte	0x23
 4435 054f 30       		.uleb128 0x30
 4436 0550 07       		.uleb128 0x7
 4437 0551 91020000 		.4byte	.LASF75
 4438 0555 0A       		.byte	0xa
 4439 0556 CA       		.byte	0xca
ARM GAS  C:\Users\jenny\AppData\Local\Temp\ccsinKfR.s 			page 79


 4440 0557 E9000000 		.4byte	0xe9
 4441 055b 02       		.byte	0x2
 4442 055c 23       		.byte	0x23
 4443 055d 34       		.uleb128 0x34
 4444 055e 08       		.uleb128 0x8
 4445 055f 6D737300 		.ascii	"mss\000"
 4446 0563 0A       		.byte	0xa
 4447 0564 CC       		.byte	0xcc
 4448 0565 DE000000 		.4byte	0xde
 4449 0569 02       		.byte	0x2
 4450 056a 23       		.byte	0x23
 4451 056b 36       		.uleb128 0x36
 4452 056c 07       		.uleb128 0x7
 4453 056d 2A070000 		.4byte	.LASF76
 4454 0571 0A       		.byte	0xa
 4455 0572 CF       		.byte	0xcf
 4456 0573 F4000000 		.4byte	0xf4
 4457 0577 02       		.byte	0x2
 4458 0578 23       		.byte	0x23
 4459 0579 38       		.uleb128 0x38
 4460 057a 07       		.uleb128 0x7
 4461 057b F9030000 		.4byte	.LASF77
 4462 057f 0A       		.byte	0xa
 4463 0580 D0       		.byte	0xd0
 4464 0581 F4000000 		.4byte	0xf4
 4465 0585 02       		.byte	0x2
 4466 0586 23       		.byte	0x23
 4467 0587 3C       		.uleb128 0x3c
 4468 0588 08       		.uleb128 0x8
 4469 0589 736100   		.ascii	"sa\000"
 4470 058c 0A       		.byte	0xa
 4471 058d D1       		.byte	0xd1
 4472 058e E9000000 		.4byte	0xe9
 4473 0592 02       		.byte	0x2
 4474 0593 23       		.byte	0x23
 4475 0594 40       		.uleb128 0x40
 4476 0595 08       		.uleb128 0x8
 4477 0596 737600   		.ascii	"sv\000"
 4478 0599 0A       		.byte	0xa
 4479 059a D1       		.byte	0xd1
 4480 059b E9000000 		.4byte	0xe9
 4481 059f 02       		.byte	0x2
 4482 05a0 23       		.byte	0x23
 4483 05a1 42       		.uleb128 0x42
 4484 05a2 08       		.uleb128 0x8
 4485 05a3 72746F00 		.ascii	"rto\000"
 4486 05a7 0A       		.byte	0xa
 4487 05a8 D3       		.byte	0xd3
 4488 05a9 E9000000 		.4byte	0xe9
 4489 05ad 02       		.byte	0x2
 4490 05ae 23       		.byte	0x23
 4491 05af 44       		.uleb128 0x44
 4492 05b0 07       		.uleb128 0x7
 4493 05b1 760A0000 		.4byte	.LASF78
 4494 05b5 0A       		.byte	0xa
 4495 05b6 D4       		.byte	0xd4
 4496 05b7 C8000000 		.4byte	0xc8
ARM GAS  C:\Users\jenny\AppData\Local\Temp\ccsinKfR.s 			page 80


 4497 05bb 02       		.byte	0x2
 4498 05bc 23       		.byte	0x23
 4499 05bd 46       		.uleb128 0x46
 4500 05be 07       		.uleb128 0x7
 4501 05bf 0F040000 		.4byte	.LASF79
 4502 05c3 0A       		.byte	0xa
 4503 05c4 D7       		.byte	0xd7
 4504 05c5 C8000000 		.4byte	0xc8
 4505 05c9 02       		.byte	0x2
 4506 05ca 23       		.byte	0x23
 4507 05cb 47       		.uleb128 0x47
 4508 05cc 07       		.uleb128 0x7
 4509 05cd 59030000 		.4byte	.LASF80
 4510 05d1 0A       		.byte	0xa
 4511 05d2 D8       		.byte	0xd8
 4512 05d3 F4000000 		.4byte	0xf4
 4513 05d7 02       		.byte	0x2
 4514 05d8 23       		.byte	0x23
 4515 05d9 48       		.uleb128 0x48
 4516 05da 07       		.uleb128 0x7
 4517 05db EA010000 		.4byte	.LASF81
 4518 05df 0A       		.byte	0xa
 4519 05e0 DB       		.byte	0xdb
 4520 05e1 DE000000 		.4byte	0xde
 4521 05e5 02       		.byte	0x2
 4522 05e6 23       		.byte	0x23
 4523 05e7 4C       		.uleb128 0x4c
 4524 05e8 07       		.uleb128 0x7
 4525 05e9 23080000 		.4byte	.LASF82
 4526 05ed 0A       		.byte	0xa
 4527 05ee DC       		.byte	0xdc
 4528 05ef DE000000 		.4byte	0xde
 4529 05f3 02       		.byte	0x2
 4530 05f4 23       		.byte	0x23
 4531 05f5 4E       		.uleb128 0x4e
 4532 05f6 07       		.uleb128 0x7
 4533 05f7 D4070000 		.4byte	.LASF83
 4534 05fb 0A       		.byte	0xa
 4535 05fc DF       		.byte	0xdf
 4536 05fd F4000000 		.4byte	0xf4
 4537 0601 02       		.byte	0x2
 4538 0602 23       		.byte	0x23
 4539 0603 50       		.uleb128 0x50
 4540 0604 07       		.uleb128 0x7
 4541 0605 AC040000 		.4byte	.LASF84
 4542 0609 0A       		.byte	0xa
 4543 060a E0       		.byte	0xe0
 4544 060b F4000000 		.4byte	0xf4
 4545 060f 02       		.byte	0x2
 4546 0610 23       		.byte	0x23
 4547 0611 54       		.uleb128 0x54
 4548 0612 07       		.uleb128 0x7
 4549 0613 B4040000 		.4byte	.LASF85
 4550 0617 0A       		.byte	0xa
 4551 0618 E0       		.byte	0xe0
 4552 0619 F4000000 		.4byte	0xf4
 4553 061d 02       		.byte	0x2
ARM GAS  C:\Users\jenny\AppData\Local\Temp\ccsinKfR.s 			page 81


 4554 061e 23       		.byte	0x23
 4555 061f 58       		.uleb128 0x58
 4556 0620 07       		.uleb128 0x7
 4557 0621 0A050000 		.4byte	.LASF86
 4558 0625 0A       		.byte	0xa
 4559 0626 E2       		.byte	0xe2
 4560 0627 F4000000 		.4byte	0xf4
 4561 062b 02       		.byte	0x2
 4562 062c 23       		.byte	0x23
 4563 062d 5C       		.uleb128 0x5c
 4564 062e 07       		.uleb128 0x7
 4565 062f 96060000 		.4byte	.LASF87
 4566 0633 0A       		.byte	0xa
 4567 0634 E3       		.byte	0xe3
 4568 0635 DE000000 		.4byte	0xde
 4569 0639 02       		.byte	0x2
 4570 063a 23       		.byte	0x23
 4571 063b 60       		.uleb128 0x60
 4572 063c 07       		.uleb128 0x7
 4573 063d EF070000 		.4byte	.LASF88
 4574 0641 0A       		.byte	0xa
 4575 0642 E4       		.byte	0xe4
 4576 0643 DE000000 		.4byte	0xde
 4577 0647 02       		.byte	0x2
 4578 0648 23       		.byte	0x23
 4579 0649 62       		.uleb128 0x62
 4580 064a 07       		.uleb128 0x7
 4581 064b AA020000 		.4byte	.LASF89
 4582 064f 0A       		.byte	0xa
 4583 0650 E6       		.byte	0xe6
 4584 0651 DE000000 		.4byte	0xde
 4585 0655 02       		.byte	0x2
 4586 0656 23       		.byte	0x23
 4587 0657 64       		.uleb128 0x64
 4588 0658 07       		.uleb128 0x7
 4589 0659 2C080000 		.4byte	.LASF90
 4590 065d 0A       		.byte	0xa
 4591 065e E8       		.byte	0xe8
 4592 065f DE000000 		.4byte	0xde
 4593 0663 02       		.byte	0x2
 4594 0664 23       		.byte	0x23
 4595 0665 66       		.uleb128 0x66
 4596 0666 07       		.uleb128 0x7
 4597 0667 76090000 		.4byte	.LASF91
 4598 066b 0A       		.byte	0xa
 4599 066c EA       		.byte	0xea
 4600 066d DE000000 		.4byte	0xde
 4601 0671 02       		.byte	0x2
 4602 0672 23       		.byte	0x23
 4603 0673 68       		.uleb128 0x68
 4604 0674 07       		.uleb128 0x7
 4605 0675 B2070000 		.4byte	.LASF92
 4606 0679 0A       		.byte	0xa
 4607 067a EE       		.byte	0xee
 4608 067b DE000000 		.4byte	0xde
 4609 067f 02       		.byte	0x2
 4610 0680 23       		.byte	0x23
ARM GAS  C:\Users\jenny\AppData\Local\Temp\ccsinKfR.s 			page 82


 4611 0681 6A       		.uleb128 0x6a
 4612 0682 07       		.uleb128 0x7
 4613 0683 1B070000 		.4byte	.LASF93
 4614 0687 0A       		.byte	0xa
 4615 0688 F2       		.byte	0xf2
 4616 0689 9C080000 		.4byte	0x89c
 4617 068d 02       		.byte	0x2
 4618 068e 23       		.byte	0x23
 4619 068f 6C       		.uleb128 0x6c
 4620 0690 07       		.uleb128 0x7
 4621 0691 D2020000 		.4byte	.LASF94
 4622 0695 0A       		.byte	0xa
 4623 0696 F3       		.byte	0xf3
 4624 0697 9C080000 		.4byte	0x89c
 4625 069b 02       		.byte	0x2
 4626 069c 23       		.byte	0x23
 4627 069d 70       		.uleb128 0x70
 4628 069e 07       		.uleb128 0x7
 4629 069f BE060000 		.4byte	.LASF95
 4630 06a3 0A       		.byte	0xa
 4631 06a4 F5       		.byte	0xf5
 4632 06a5 9C080000 		.4byte	0x89c
 4633 06a9 02       		.byte	0x2
 4634 06aa 23       		.byte	0x23
 4635 06ab 74       		.uleb128 0x74
 4636 06ac 07       		.uleb128 0x7
 4637 06ad BD080000 		.4byte	.LASF96
 4638 06b1 0A       		.byte	0xa
 4639 06b2 F8       		.byte	0xf8
 4640 06b3 8F010000 		.4byte	0x18f
 4641 06b7 02       		.byte	0x2
 4642 06b8 23       		.byte	0x23
 4643 06b9 78       		.uleb128 0x78
 4644 06ba 07       		.uleb128 0x7
 4645 06bb 9F040000 		.4byte	.LASF97
 4646 06bf 0A       		.byte	0xa
 4647 06c0 FC       		.byte	0xfc
 4648 06c1 78070000 		.4byte	0x778
 4649 06c5 02       		.byte	0x2
 4650 06c6 23       		.byte	0x23
 4651 06c7 7C       		.uleb128 0x7c
 4652 06c8 07       		.uleb128 0x7
 4653 06c9 9F090000 		.4byte	.LASF98
 4654 06cd 0A       		.byte	0xa
 4655 06ce FE       		.byte	0xfe
 4656 06cf 48070000 		.4byte	0x748
 4657 06d3 03       		.byte	0x3
 4658 06d4 23       		.byte	0x23
 4659 06d5 8001     		.uleb128 0x80
 4660 06d7 0E       		.uleb128 0xe
 4661 06d8 1F030000 		.4byte	.LASF99
 4662 06dc 0A       		.byte	0xa
 4663 06dd 0001     		.2byte	0x100
 4664 06df EB070000 		.4byte	0x7eb
 4665 06e3 03       		.byte	0x3
 4666 06e4 23       		.byte	0x23
 4667 06e5 8401     		.uleb128 0x84
ARM GAS  C:\Users\jenny\AppData\Local\Temp\ccsinKfR.s 			page 83


 4668 06e7 0E       		.uleb128 0xe
 4669 06e8 38040000 		.4byte	.LASF100
 4670 06ec 0A       		.byte	0xa
 4671 06ed 0201     		.2byte	0x102
 4672 06ef A3070000 		.4byte	0x7a3
 4673 06f3 03       		.byte	0x3
 4674 06f4 23       		.byte	0x23
 4675 06f5 8801     		.uleb128 0x88
 4676 06f7 0E       		.uleb128 0xe
 4677 06f8 91060000 		.4byte	.LASF101
 4678 06fc 0A       		.byte	0xa
 4679 06fd 0401     		.2byte	0x104
 4680 06ff C9070000 		.4byte	0x7c9
 4681 0703 03       		.byte	0x3
 4682 0704 23       		.byte	0x23
 4683 0705 8C01     		.uleb128 0x8c
 4684 0707 0E       		.uleb128 0xe
 4685 0708 32090000 		.4byte	.LASF102
 4686 070c 0A       		.byte	0xa
 4687 070d 0D01     		.2byte	0x10d
 4688 070f F4000000 		.4byte	0xf4
 4689 0713 03       		.byte	0x3
 4690 0714 23       		.byte	0x23
 4691 0715 9001     		.uleb128 0x90
 4692 0717 0E       		.uleb128 0xe
 4693 0718 D7090000 		.4byte	.LASF103
 4694 071c 0A       		.byte	0xa
 4695 071d 1401     		.2byte	0x114
 4696 071f C8000000 		.4byte	0xc8
 4697 0723 03       		.byte	0x3
 4698 0724 23       		.byte	0x23
 4699 0725 9401     		.uleb128 0x94
 4700 0727 0E       		.uleb128 0xe
 4701 0728 65050000 		.4byte	.LASF104
 4702 072c 0A       		.byte	0xa
 4703 072d 1601     		.2byte	0x116
 4704 072f C8000000 		.4byte	0xc8
 4705 0733 03       		.byte	0x3
 4706 0734 23       		.byte	0x23
 4707 0735 9501     		.uleb128 0x95
 4708 0737 0E       		.uleb128 0xe
 4709 0738 4B010000 		.4byte	.LASF105
 4710 073c 0A       		.byte	0xa
 4711 073d 1901     		.2byte	0x119
 4712 073f C8000000 		.4byte	0xc8
 4713 0743 03       		.byte	0x3
 4714 0744 23       		.byte	0x23
 4715 0745 9601     		.uleb128 0x96
 4716 0747 00       		.byte	0
 4717 0748 04       		.uleb128 0x4
 4718 0749 0C060000 		.4byte	.LASF106
 4719 074d 0A       		.byte	0xa
 4720 074e 48       		.byte	0x48
 4721 074f 53070000 		.4byte	0x753
 4722 0753 09       		.uleb128 0x9
 4723 0754 04       		.byte	0x4
 4724 0755 59070000 		.4byte	0x759
ARM GAS  C:\Users\jenny\AppData\Local\Temp\ccsinKfR.s 			page 84


 4725 0759 0A       		.uleb128 0xa
 4726 075a 01       		.byte	0x1
 4727 075b 15010000 		.4byte	0x115
 4728 075f 78070000 		.4byte	0x778
 4729 0763 0B       		.uleb128 0xb
 4730 0764 B8000000 		.4byte	0xb8
 4731 0768 0B       		.uleb128 0xb
 4732 0769 18040000 		.4byte	0x418
 4733 076d 0B       		.uleb128 0xb
 4734 076e 8F010000 		.4byte	0x18f
 4735 0772 0B       		.uleb128 0xb
 4736 0773 15010000 		.4byte	0x115
 4737 0777 00       		.byte	0
 4738 0778 04       		.uleb128 0x4
 4739 0779 8A010000 		.4byte	.LASF107
 4740 077d 0A       		.byte	0xa
 4741 077e 56       		.byte	0x56
 4742 077f 83070000 		.4byte	0x783
 4743 0783 09       		.uleb128 0x9
 4744 0784 04       		.byte	0x4
 4745 0785 89070000 		.4byte	0x789
 4746 0789 0A       		.uleb128 0xa
 4747 078a 01       		.byte	0x1
 4748 078b 15010000 		.4byte	0x115
 4749 078f A3070000 		.4byte	0x7a3
 4750 0793 0B       		.uleb128 0xb
 4751 0794 B8000000 		.4byte	0xb8
 4752 0798 0B       		.uleb128 0xb
 4753 0799 18040000 		.4byte	0x418
 4754 079d 0B       		.uleb128 0xb
 4755 079e DE000000 		.4byte	0xde
 4756 07a2 00       		.byte	0
 4757 07a3 04       		.uleb128 0x4
 4758 07a4 6B060000 		.4byte	.LASF108
 4759 07a8 0A       		.byte	0xa
 4760 07a9 62       		.byte	0x62
 4761 07aa AE070000 		.4byte	0x7ae
 4762 07ae 09       		.uleb128 0x9
 4763 07af 04       		.byte	0x4
 4764 07b0 B4070000 		.4byte	0x7b4
 4765 07b4 0A       		.uleb128 0xa
 4766 07b5 01       		.byte	0x1
 4767 07b6 15010000 		.4byte	0x115
 4768 07ba C9070000 		.4byte	0x7c9
 4769 07be 0B       		.uleb128 0xb
 4770 07bf B8000000 		.4byte	0xb8
 4771 07c3 0B       		.uleb128 0xb
 4772 07c4 18040000 		.4byte	0x418
 4773 07c8 00       		.byte	0
 4774 07c9 04       		.uleb128 0x4
 4775 07ca D0040000 		.4byte	.LASF109
 4776 07ce 0A       		.byte	0xa
 4777 07cf 6E       		.byte	0x6e
 4778 07d0 D4070000 		.4byte	0x7d4
 4779 07d4 09       		.uleb128 0x9
 4780 07d5 04       		.byte	0x4
 4781 07d6 DA070000 		.4byte	0x7da
ARM GAS  C:\Users\jenny\AppData\Local\Temp\ccsinKfR.s 			page 85


 4782 07da 0F       		.uleb128 0xf
 4783 07db 01       		.byte	0x1
 4784 07dc EB070000 		.4byte	0x7eb
 4785 07e0 0B       		.uleb128 0xb
 4786 07e1 B8000000 		.4byte	0xb8
 4787 07e5 0B       		.uleb128 0xb
 4788 07e6 15010000 		.4byte	0x115
 4789 07ea 00       		.byte	0
 4790 07eb 04       		.uleb128 0x4
 4791 07ec AA000000 		.4byte	.LASF110
 4792 07f0 0A       		.byte	0xa
 4793 07f1 7C       		.byte	0x7c
 4794 07f2 F8030000 		.4byte	0x3f8
 4795 07f6 10       		.uleb128 0x10
 4796 07f7 450A0000 		.4byte	.LASF245
 4797 07fb 01       		.byte	0x1
 4798 07fc 0A       		.byte	0xa
 4799 07fd 7E       		.byte	0x7e
 4800 07fe 45080000 		.4byte	0x845
 4801 0802 11       		.uleb128 0x11
 4802 0803 CF060000 		.4byte	.LASF111
 4803 0807 00       		.sleb128 0
 4804 0808 11       		.uleb128 0x11
 4805 0809 59090000 		.4byte	.LASF112
 4806 080d 01       		.sleb128 1
 4807 080e 11       		.uleb128 0x11
 4808 080f C2070000 		.4byte	.LASF113
 4809 0813 02       		.sleb128 2
 4810 0814 11       		.uleb128 0x11
 4811 0815 800A0000 		.4byte	.LASF114
 4812 0819 03       		.sleb128 3
 4813 081a 11       		.uleb128 0x11
 4814 081b DC070000 		.4byte	.LASF115
 4815 081f 04       		.sleb128 4
 4816 0820 11       		.uleb128 0x11
 4817 0821 F7080000 		.4byte	.LASF116
 4818 0825 05       		.sleb128 5
 4819 0826 11       		.uleb128 0x11
 4820 0827 02090000 		.4byte	.LASF117
 4821 082b 06       		.sleb128 6
 4822 082c 11       		.uleb128 0x11
 4823 082d 8D040000 		.4byte	.LASF118
 4824 0831 07       		.sleb128 7
 4825 0832 11       		.uleb128 0x11
 4826 0833 51030000 		.4byte	.LASF119
 4827 0837 08       		.sleb128 8
 4828 0838 11       		.uleb128 0x11
 4829 0839 EA020000 		.4byte	.LASF120
 4830 083d 09       		.sleb128 9
 4831 083e 11       		.uleb128 0x11
 4832 083f 93000000 		.4byte	.LASF121
 4833 0843 0A       		.sleb128 10
 4834 0844 00       		.byte	0
 4835 0845 12       		.uleb128 0x12
 4836 0846 58020000 		.4byte	.LASF122
 4837 084a 10       		.byte	0x10
 4838 084b 0B       		.byte	0xb
ARM GAS  C:\Users\jenny\AppData\Local\Temp\ccsinKfR.s 			page 86


 4839 084c 1501     		.2byte	0x115
 4840 084e 9C080000 		.4byte	0x89c
 4841 0852 0E       		.uleb128 0xe
 4842 0853 BB000000 		.4byte	.LASF26
 4843 0857 0B       		.byte	0xb
 4844 0858 1601     		.2byte	0x116
 4845 085a 9C080000 		.4byte	0x89c
 4846 085e 02       		.byte	0x2
 4847 085f 23       		.byte	0x23
 4848 0860 00       		.uleb128 0
 4849 0861 13       		.uleb128 0x13
 4850 0862 7000     		.ascii	"p\000"
 4851 0864 0B       		.byte	0xb
 4852 0865 1701     		.2byte	0x117
 4853 0867 8F010000 		.4byte	0x18f
 4854 086b 02       		.byte	0x2
 4855 086c 23       		.byte	0x23
 4856 086d 04       		.uleb128 0x4
 4857 086e 13       		.uleb128 0x13
 4858 086f 6C656E00 		.ascii	"len\000"
 4859 0873 0B       		.byte	0xb
 4860 0874 1801     		.2byte	0x118
 4861 0876 DE000000 		.4byte	0xde
 4862 087a 02       		.byte	0x2
 4863 087b 23       		.byte	0x23
 4864 087c 08       		.uleb128 0x8
 4865 087d 0E       		.uleb128 0xe
 4866 087e 8D000000 		.4byte	.LASF30
 4867 0882 0B       		.byte	0xb
 4868 0883 2201     		.2byte	0x122
 4869 0885 C8000000 		.4byte	0xc8
 4870 0889 02       		.byte	0x2
 4871 088a 23       		.byte	0x23
 4872 088b 0A       		.uleb128 0xa
 4873 088c 0E       		.uleb128 0xe
 4874 088d 9C080000 		.4byte	.LASF123
 4875 0891 0B       		.byte	0xb
 4876 0892 2701     		.2byte	0x127
 4877 0894 D8090000 		.4byte	0x9d8
 4878 0898 02       		.byte	0x2
 4879 0899 23       		.byte	0x23
 4880 089a 0C       		.uleb128 0xc
 4881 089b 00       		.byte	0
 4882 089c 09       		.uleb128 0x9
 4883 089d 04       		.byte	0x4
 4884 089e 45080000 		.4byte	0x845
 4885 08a2 12       		.uleb128 0x12
 4886 08a3 42050000 		.4byte	.LASF124
 4887 08a7 1C       		.byte	0x1c
 4888 08a8 0A       		.byte	0xa
 4889 08a9 1C01     		.2byte	0x11c
 4890 08ab 55090000 		.4byte	0x955
 4891 08af 0E       		.uleb128 0xe
 4892 08b0 A4070000 		.4byte	.LASF60
 4893 08b4 0A       		.byte	0xa
 4894 08b5 1E01     		.2byte	0x11e
 4895 08b7 CB010000 		.4byte	0x1cb
ARM GAS  C:\Users\jenny\AppData\Local\Temp\ccsinKfR.s 			page 87


 4896 08bb 02       		.byte	0x2
 4897 08bc 23       		.byte	0x23
 4898 08bd 00       		.uleb128 0
 4899 08be 0E       		.uleb128 0xe
 4900 08bf F6090000 		.4byte	.LASF61
 4901 08c3 0A       		.byte	0xa
 4902 08c4 1E01     		.2byte	0x11e
 4903 08c6 CB010000 		.4byte	0x1cb
 4904 08ca 02       		.byte	0x2
 4905 08cb 23       		.byte	0x23
 4906 08cc 04       		.uleb128 0x4
 4907 08cd 0E       		.uleb128 0xe
 4908 08ce 2E000000 		.4byte	.LASF62
 4909 08d2 0A       		.byte	0xa
 4910 08d3 1E01     		.2byte	0x11e
 4911 08d5 C8000000 		.4byte	0xc8
 4912 08d9 02       		.byte	0x2
 4913 08da 23       		.byte	0x23
 4914 08db 08       		.uleb128 0x8
 4915 08dc 13       		.uleb128 0x13
 4916 08dd 746F7300 		.ascii	"tos\000"
 4917 08e1 0A       		.byte	0xa
 4918 08e2 1E01     		.2byte	0x11e
 4919 08e4 C8000000 		.4byte	0xc8
 4920 08e8 02       		.byte	0x2
 4921 08e9 23       		.byte	0x23
 4922 08ea 09       		.uleb128 0x9
 4923 08eb 13       		.uleb128 0x13
 4924 08ec 74746C00 		.ascii	"ttl\000"
 4925 08f0 0A       		.byte	0xa
 4926 08f1 1E01     		.2byte	0x11e
 4927 08f3 C8000000 		.4byte	0xc8
 4928 08f7 02       		.byte	0x2
 4929 08f8 23       		.byte	0x23
 4930 08f9 0A       		.uleb128 0xa
 4931 08fa 0E       		.uleb128 0xe
 4932 08fb BB000000 		.4byte	.LASF26
 4933 08ff 0A       		.byte	0xa
 4934 0900 2001     		.2byte	0x120
 4935 0902 55090000 		.4byte	0x955
 4936 0906 02       		.byte	0x2
 4937 0907 23       		.byte	0x23
 4938 0908 0C       		.uleb128 0xc
 4939 0909 0E       		.uleb128 0xe
 4940 090a 42090000 		.4byte	.LASF63
 4941 090e 0A       		.byte	0xa
 4942 090f 2001     		.2byte	0x120
 4943 0911 B8000000 		.4byte	0xb8
 4944 0915 02       		.byte	0x2
 4945 0916 23       		.byte	0x23
 4946 0917 10       		.uleb128 0x10
 4947 0918 0E       		.uleb128 0xe
 4948 0919 27040000 		.4byte	.LASF64
 4949 091d 0A       		.byte	0xa
 4950 091e 2001     		.2byte	0x120
 4951 0920 ED030000 		.4byte	0x3ed
 4952 0924 02       		.byte	0x2
ARM GAS  C:\Users\jenny\AppData\Local\Temp\ccsinKfR.s 			page 88


 4953 0925 23       		.byte	0x23
 4954 0926 14       		.uleb128 0x14
 4955 0927 0E       		.uleb128 0xe
 4956 0928 6A090000 		.4byte	.LASF42
 4957 092c 0A       		.byte	0xa
 4958 092d 2001     		.2byte	0x120
 4959 092f F6070000 		.4byte	0x7f6
 4960 0933 02       		.byte	0x2
 4961 0934 23       		.byte	0x23
 4962 0935 18       		.uleb128 0x18
 4963 0936 0E       		.uleb128 0xe
 4964 0937 22040000 		.4byte	.LASF65
 4965 093b 0A       		.byte	0xa
 4966 093c 2001     		.2byte	0x120
 4967 093e C8000000 		.4byte	0xc8
 4968 0942 02       		.byte	0x2
 4969 0943 23       		.byte	0x23
 4970 0944 19       		.uleb128 0x19
 4971 0945 0E       		.uleb128 0xe
 4972 0946 21020000 		.4byte	.LASF66
 4973 094a 0A       		.byte	0xa
 4974 094b 2001     		.2byte	0x120
 4975 094d DE000000 		.4byte	0xde
 4976 0951 02       		.byte	0x2
 4977 0952 23       		.byte	0x23
 4978 0953 1A       		.uleb128 0x1a
 4979 0954 00       		.byte	0
 4980 0955 09       		.uleb128 0x9
 4981 0956 04       		.byte	0x4
 4982 0957 A2080000 		.4byte	0x8a2
 4983 095b 06       		.uleb128 0x6
 4984 095c D2080000 		.4byte	.LASF125
 4985 0960 14       		.byte	0x14
 4986 0961 0B       		.byte	0xb
 4987 0962 9F       		.byte	0x9f
 4988 0963 D8090000 		.4byte	0x9d8
 4989 0967 08       		.uleb128 0x8
 4990 0968 73726300 		.ascii	"src\000"
 4991 096c 0B       		.byte	0xb
 4992 096d A0       		.byte	0xa0
 4993 096e DE000000 		.4byte	0xde
 4994 0972 02       		.byte	0x2
 4995 0973 23       		.byte	0x23
 4996 0974 00       		.uleb128 0
 4997 0975 07       		.uleb128 0x7
 4998 0976 7B0A0000 		.4byte	.LASF57
 4999 097a 0B       		.byte	0xb
 5000 097b A1       		.byte	0xa1
 5001 097c DE000000 		.4byte	0xde
 5002 0980 02       		.byte	0x2
 5003 0981 23       		.byte	0x23
 5004 0982 02       		.uleb128 0x2
 5005 0983 07       		.uleb128 0x7
 5006 0984 B9010000 		.4byte	.LASF126
 5007 0988 0B       		.byte	0xb
 5008 0989 A2       		.byte	0xa2
 5009 098a F4000000 		.4byte	0xf4
ARM GAS  C:\Users\jenny\AppData\Local\Temp\ccsinKfR.s 			page 89


 5010 098e 02       		.byte	0x2
 5011 098f 23       		.byte	0x23
 5012 0990 04       		.uleb128 0x4
 5013 0991 07       		.uleb128 0x7
 5014 0992 51050000 		.4byte	.LASF127
 5015 0996 0B       		.byte	0xb
 5016 0997 A3       		.byte	0xa3
 5017 0998 F4000000 		.4byte	0xf4
 5018 099c 02       		.byte	0x2
 5019 099d 23       		.byte	0x23
 5020 099e 08       		.uleb128 0x8
 5021 099f 07       		.uleb128 0x7
 5022 09a0 4E080000 		.4byte	.LASF128
 5023 09a4 0B       		.byte	0xb
 5024 09a5 A4       		.byte	0xa4
 5025 09a6 DE000000 		.4byte	0xde
 5026 09aa 02       		.byte	0x2
 5027 09ab 23       		.byte	0x23
 5028 09ac 0C       		.uleb128 0xc
 5029 09ad 08       		.uleb128 0x8
 5030 09ae 776E6400 		.ascii	"wnd\000"
 5031 09b2 0B       		.byte	0xb
 5032 09b3 A5       		.byte	0xa5
 5033 09b4 DE000000 		.4byte	0xde
 5034 09b8 02       		.byte	0x2
 5035 09b9 23       		.byte	0x23
 5036 09ba 0E       		.uleb128 0xe
 5037 09bb 07       		.uleb128 0x7
 5038 09bc 83090000 		.4byte	.LASF129
 5039 09c0 0B       		.byte	0xb
 5040 09c1 A6       		.byte	0xa6
 5041 09c2 DE000000 		.4byte	0xde
 5042 09c6 02       		.byte	0x2
 5043 09c7 23       		.byte	0x23
 5044 09c8 10       		.uleb128 0x10
 5045 09c9 07       		.uleb128 0x7
 5046 09ca 59000000 		.4byte	.LASF130
 5047 09ce 0B       		.byte	0xb
 5048 09cf A7       		.byte	0xa7
 5049 09d0 DE000000 		.4byte	0xde
 5050 09d4 02       		.byte	0x2
 5051 09d5 23       		.byte	0x23
 5052 09d6 12       		.uleb128 0x12
 5053 09d7 00       		.byte	0
 5054 09d8 09       		.uleb128 0x9
 5055 09d9 04       		.byte	0x4
 5056 09da 5B090000 		.4byte	0x95b
 5057 09de 14       		.uleb128 0x14
 5058 09df EE040000 		.4byte	.LASF246
 5059 09e3 04       		.byte	0x4
 5060 09e4 0B       		.byte	0xb
 5061 09e5 3701     		.2byte	0x137
 5062 09e7 040A0000 		.4byte	0xa04
 5063 09eb 15       		.uleb128 0x15
 5064 09ec 00000000 		.4byte	.LASF131
 5065 09f0 0B       		.byte	0xb
 5066 09f1 3801     		.2byte	0x138
ARM GAS  C:\Users\jenny\AppData\Local\Temp\ccsinKfR.s 			page 90


 5067 09f3 55090000 		.4byte	0x955
 5068 09f7 15       		.uleb128 0x15
 5069 09f8 910A0000 		.4byte	.LASF132
 5070 09fc 0B       		.byte	0xb
 5071 09fd 3901     		.2byte	0x139
 5072 09ff 18040000 		.4byte	0x418
 5073 0a03 00       		.byte	0
 5074 0a04 16       		.uleb128 0x16
 5075 0a05 01       		.byte	0x1
 5076 0a06 0C       		.byte	0xc
 5077 0a07 2B       		.byte	0x2b
 5078 0a08 670A0000 		.4byte	0xa67
 5079 0a0c 11       		.uleb128 0x11
 5080 0a0d 41080000 		.4byte	.LASF133
 5081 0a11 00       		.sleb128 0
 5082 0a12 11       		.uleb128 0x11
 5083 0a13 97070000 		.4byte	.LASF134
 5084 0a17 01       		.sleb128 1
 5085 0a18 11       		.uleb128 0x11
 5086 0a19 75050000 		.4byte	.LASF135
 5087 0a1d 02       		.sleb128 2
 5088 0a1e 11       		.uleb128 0x11
 5089 0a1f 0C000000 		.4byte	.LASF136
 5090 0a23 03       		.sleb128 3
 5091 0a24 11       		.uleb128 0x11
 5092 0a25 14090000 		.4byte	.LASF137
 5093 0a29 04       		.sleb128 4
 5094 0a2a 11       		.uleb128 0x11
 5095 0a2b FD050000 		.4byte	.LASF138
 5096 0a2f 05       		.sleb128 5
 5097 0a30 11       		.uleb128 0x11
 5098 0a31 14080000 		.4byte	.LASF139
 5099 0a35 06       		.sleb128 6
 5100 0a36 11       		.uleb128 0x11
 5101 0a37 20050000 		.4byte	.LASF140
 5102 0a3b 07       		.sleb128 7
 5103 0a3c 11       		.uleb128 0x11
 5104 0a3d C8030000 		.4byte	.LASF141
 5105 0a41 08       		.sleb128 8
 5106 0a42 11       		.uleb128 0x11
 5107 0a43 07020000 		.4byte	.LASF142
 5108 0a47 09       		.sleb128 9
 5109 0a48 11       		.uleb128 0x11
 5110 0a49 B8020000 		.4byte	.LASF143
 5111 0a4d 0A       		.sleb128 10
 5112 0a4e 11       		.uleb128 0x11
 5113 0a4f 7B070000 		.4byte	.LASF144
 5114 0a53 0B       		.sleb128 11
 5115 0a54 11       		.uleb128 0x11
 5116 0a55 2E040000 		.4byte	.LASF145
 5117 0a59 0C       		.sleb128 12
 5118 0a5a 11       		.uleb128 0x11
 5119 0a5b 59010000 		.4byte	.LASF146
 5120 0a5f 0D       		.sleb128 13
 5121 0a60 11       		.uleb128 0x11
 5122 0a61 61030000 		.4byte	.LASF147
 5123 0a65 0E       		.sleb128 14
ARM GAS  C:\Users\jenny\AppData\Local\Temp\ccsinKfR.s 			page 91


 5124 0a66 00       		.byte	0
 5125 0a67 04       		.uleb128 0x4
 5126 0a68 580A0000 		.4byte	.LASF148
 5127 0a6c 0C       		.byte	0xc
 5128 0a6d 2F       		.byte	0x2f
 5129 0a6e 040A0000 		.4byte	0xa04
 5130 0a72 06       		.uleb128 0x6
 5131 0a73 66040000 		.4byte	.LASF149
 5132 0a77 18       		.byte	0x18
 5133 0a78 0D       		.byte	0xd
 5134 0a79 3A       		.byte	0x3a
 5135 0a7a 260B0000 		.4byte	0xb26
 5136 0a7e 07       		.uleb128 0x7
 5137 0a7f D2090000 		.4byte	.LASF150
 5138 0a83 0D       		.byte	0xd
 5139 0a84 3B       		.byte	0x3b
 5140 0a85 DE000000 		.4byte	0xde
 5141 0a89 02       		.byte	0x2
 5142 0a8a 23       		.byte	0x23
 5143 0a8b 00       		.uleb128 0
 5144 0a8c 07       		.uleb128 0x7
 5145 0a8d 9F090000 		.4byte	.LASF98
 5146 0a91 0D       		.byte	0xd
 5147 0a92 3C       		.byte	0x3c
 5148 0a93 DE000000 		.4byte	0xde
 5149 0a97 02       		.byte	0x2
 5150 0a98 23       		.byte	0x23
 5151 0a99 02       		.uleb128 0x2
 5152 0a9a 08       		.uleb128 0x8
 5153 0a9b 667700   		.ascii	"fw\000"
 5154 0a9e 0D       		.byte	0xd
 5155 0a9f 3D       		.byte	0x3d
 5156 0aa0 DE000000 		.4byte	0xde
 5157 0aa4 02       		.byte	0x2
 5158 0aa5 23       		.byte	0x23
 5159 0aa6 04       		.uleb128 0x4
 5160 0aa7 07       		.uleb128 0x7
 5161 0aa8 65090000 		.4byte	.LASF151
 5162 0aac 0D       		.byte	0xd
 5163 0aad 3E       		.byte	0x3e
 5164 0aae DE000000 		.4byte	0xde
 5165 0ab2 02       		.byte	0x2
 5166 0ab3 23       		.byte	0x23
 5167 0ab4 06       		.uleb128 0x6
 5168 0ab5 07       		.uleb128 0x7
 5169 0ab6 F1050000 		.4byte	.LASF152
 5170 0aba 0D       		.byte	0xd
 5171 0abb 3F       		.byte	0x3f
 5172 0abc DE000000 		.4byte	0xde
 5173 0ac0 02       		.byte	0x2
 5174 0ac1 23       		.byte	0x23
 5175 0ac2 08       		.uleb128 0x8
 5176 0ac3 07       		.uleb128 0x7
 5177 0ac4 61080000 		.4byte	.LASF153
 5178 0ac8 0D       		.byte	0xd
 5179 0ac9 40       		.byte	0x40
 5180 0aca DE000000 		.4byte	0xde
ARM GAS  C:\Users\jenny\AppData\Local\Temp\ccsinKfR.s 			page 92


 5181 0ace 02       		.byte	0x2
 5182 0acf 23       		.byte	0x23
 5183 0ad0 0A       		.uleb128 0xa
 5184 0ad1 07       		.uleb128 0x7
 5185 0ad2 0D090000 		.4byte	.LASF154
 5186 0ad6 0D       		.byte	0xd
 5187 0ad7 41       		.byte	0x41
 5188 0ad8 DE000000 		.4byte	0xde
 5189 0adc 02       		.byte	0x2
 5190 0add 23       		.byte	0x23
 5191 0ade 0C       		.uleb128 0xc
 5192 0adf 07       		.uleb128 0x7
 5193 0ae0 07070000 		.4byte	.LASF155
 5194 0ae4 0D       		.byte	0xd
 5195 0ae5 42       		.byte	0x42
 5196 0ae6 DE000000 		.4byte	0xde
 5197 0aea 02       		.byte	0x2
 5198 0aeb 23       		.byte	0x23
 5199 0aec 0E       		.uleb128 0xe
 5200 0aed 07       		.uleb128 0x7
 5201 0aee CA080000 		.4byte	.LASF156
 5202 0af2 0D       		.byte	0xd
 5203 0af3 43       		.byte	0x43
 5204 0af4 DE000000 		.4byte	0xde
 5205 0af8 02       		.byte	0x2
 5206 0af9 23       		.byte	0x23
 5207 0afa 10       		.uleb128 0x10
 5208 0afb 07       		.uleb128 0x7
 5209 0afc 1A020000 		.4byte	.LASF157
 5210 0b00 0D       		.byte	0xd
 5211 0b01 44       		.byte	0x44
 5212 0b02 DE000000 		.4byte	0xde
 5213 0b06 02       		.byte	0x2
 5214 0b07 23       		.byte	0x23
 5215 0b08 12       		.uleb128 0x12
 5216 0b09 08       		.uleb128 0x8
 5217 0b0a 65727200 		.ascii	"err\000"
 5218 0b0e 0D       		.byte	0xd
 5219 0b0f 45       		.byte	0x45
 5220 0b10 DE000000 		.4byte	0xde
 5221 0b14 02       		.byte	0x2
 5222 0b15 23       		.byte	0x23
 5223 0b16 14       		.uleb128 0x14
 5224 0b17 07       		.uleb128 0x7
 5225 0b18 CB070000 		.4byte	.LASF158
 5226 0b1c 0D       		.byte	0xd
 5227 0b1d 46       		.byte	0x46
 5228 0b1e DE000000 		.4byte	0xde
 5229 0b22 02       		.byte	0x2
 5230 0b23 23       		.byte	0x23
 5231 0b24 16       		.uleb128 0x16
 5232 0b25 00       		.byte	0
 5233 0b26 06       		.uleb128 0x6
 5234 0b27 14010000 		.4byte	.LASF159
 5235 0b2b 0A       		.byte	0xa
 5236 0b2c 0D       		.byte	0xd
 5237 0b2d 5A       		.byte	0x5a
ARM GAS  C:\Users\jenny\AppData\Local\Temp\ccsinKfR.s 			page 93


 5238 0b2e 790B0000 		.4byte	0xb79
 5239 0b32 07       		.uleb128 0x7
 5240 0b33 0D070000 		.4byte	.LASF160
 5241 0b37 0D       		.byte	0xd
 5242 0b38 5E       		.byte	0x5e
 5243 0b39 0A010000 		.4byte	0x10a
 5244 0b3d 02       		.byte	0x2
 5245 0b3e 23       		.byte	0x23
 5246 0b3f 00       		.uleb128 0
 5247 0b40 07       		.uleb128 0x7
 5248 0b41 CD020000 		.4byte	.LASF161
 5249 0b45 0D       		.byte	0xd
 5250 0b46 5F       		.byte	0x5f
 5251 0b47 0A010000 		.4byte	0x10a
 5252 0b4b 02       		.byte	0x2
 5253 0b4c 23       		.byte	0x23
 5254 0b4d 02       		.uleb128 0x2
 5255 0b4e 08       		.uleb128 0x8
 5256 0b4f 6D617800 		.ascii	"max\000"
 5257 0b53 0D       		.byte	0xd
 5258 0b54 60       		.byte	0x60
 5259 0b55 0A010000 		.4byte	0x10a
 5260 0b59 02       		.byte	0x2
 5261 0b5a 23       		.byte	0x23
 5262 0b5b 04       		.uleb128 0x4
 5263 0b5c 08       		.uleb128 0x8
 5264 0b5d 65727200 		.ascii	"err\000"
 5265 0b61 0D       		.byte	0xd
 5266 0b62 61       		.byte	0x61
 5267 0b63 DE000000 		.4byte	0xde
 5268 0b67 02       		.byte	0x2
 5269 0b68 23       		.byte	0x23
 5270 0b69 06       		.uleb128 0x6
 5271 0b6a 07       		.uleb128 0x7
 5272 0b6b 3A020000 		.4byte	.LASF162
 5273 0b6f 0D       		.byte	0xd
 5274 0b70 62       		.byte	0x62
 5275 0b71 DE000000 		.4byte	0xde
 5276 0b75 02       		.byte	0x2
 5277 0b76 23       		.byte	0x23
 5278 0b77 08       		.uleb128 0x8
 5279 0b78 00       		.byte	0
 5280 0b79 06       		.uleb128 0x6
 5281 0b7a AB010000 		.4byte	.LASF163
 5282 0b7e 06       		.byte	0x6
 5283 0b7f 0D       		.byte	0xd
 5284 0b80 65       		.byte	0x65
 5285 0b81 B00B0000 		.4byte	0xbb0
 5286 0b85 07       		.uleb128 0x7
 5287 0b86 CD020000 		.4byte	.LASF161
 5288 0b8a 0D       		.byte	0xd
 5289 0b8b 66       		.byte	0x66
 5290 0b8c DE000000 		.4byte	0xde
 5291 0b90 02       		.byte	0x2
 5292 0b91 23       		.byte	0x23
 5293 0b92 00       		.uleb128 0
 5294 0b93 08       		.uleb128 0x8
ARM GAS  C:\Users\jenny\AppData\Local\Temp\ccsinKfR.s 			page 94


 5295 0b94 6D617800 		.ascii	"max\000"
 5296 0b98 0D       		.byte	0xd
 5297 0b99 67       		.byte	0x67
 5298 0b9a DE000000 		.4byte	0xde
 5299 0b9e 02       		.byte	0x2
 5300 0b9f 23       		.byte	0x23
 5301 0ba0 02       		.uleb128 0x2
 5302 0ba1 08       		.uleb128 0x8
 5303 0ba2 65727200 		.ascii	"err\000"
 5304 0ba6 0D       		.byte	0xd
 5305 0ba7 68       		.byte	0x68
 5306 0ba8 DE000000 		.4byte	0xde
 5307 0bac 02       		.byte	0x2
 5308 0bad 23       		.byte	0x23
 5309 0bae 04       		.uleb128 0x4
 5310 0baf 00       		.byte	0
 5311 0bb0 06       		.uleb128 0x6
 5312 0bb1 DF080000 		.4byte	.LASF164
 5313 0bb5 12       		.byte	0x12
 5314 0bb6 0D       		.byte	0xd
 5315 0bb7 6B       		.byte	0x6b
 5316 0bb8 E70B0000 		.4byte	0xbe7
 5317 0bbc 08       		.uleb128 0x8
 5318 0bbd 73656D00 		.ascii	"sem\000"
 5319 0bc1 0D       		.byte	0xd
 5320 0bc2 6C       		.byte	0x6c
 5321 0bc3 790B0000 		.4byte	0xb79
 5322 0bc7 02       		.byte	0x2
 5323 0bc8 23       		.byte	0x23
 5324 0bc9 00       		.uleb128 0
 5325 0bca 07       		.uleb128 0x7
 5326 0bcb 2C020000 		.4byte	.LASF165
 5327 0bcf 0D       		.byte	0xd
 5328 0bd0 6D       		.byte	0x6d
 5329 0bd1 790B0000 		.4byte	0xb79
 5330 0bd5 02       		.byte	0x2
 5331 0bd6 23       		.byte	0x23
 5332 0bd7 06       		.uleb128 0x6
 5333 0bd8 07       		.uleb128 0x7
 5334 0bd9 AD070000 		.4byte	.LASF166
 5335 0bdd 0D       		.byte	0xd
 5336 0bde 6E       		.byte	0x6e
 5337 0bdf 790B0000 		.4byte	0xb79
 5338 0be3 02       		.byte	0x2
 5339 0be4 23       		.byte	0x23
 5340 0be5 0C       		.uleb128 0xc
 5341 0be6 00       		.byte	0
 5342 0be7 17       		.uleb128 0x17
 5343 0be8 DA020000 		.4byte	.LASF167
 5344 0bec 5001     		.2byte	0x150
 5345 0bee 0D       		.byte	0xd
 5346 0bef 71       		.byte	0x71
 5347 0bf0 840C0000 		.4byte	0xc84
 5348 0bf4 07       		.uleb128 0x7
 5349 0bf5 F4030000 		.4byte	.LASF168
 5350 0bf9 0D       		.byte	0xd
 5351 0bfa 73       		.byte	0x73
ARM GAS  C:\Users\jenny\AppData\Local\Temp\ccsinKfR.s 			page 95


 5352 0bfb 720A0000 		.4byte	0xa72
 5353 0bff 02       		.byte	0x2
 5354 0c00 23       		.byte	0x23
 5355 0c01 00       		.uleb128 0
 5356 0c02 07       		.uleb128 0x7
 5357 0c03 51020000 		.4byte	.LASF169
 5358 0c07 0D       		.byte	0xd
 5359 0c08 76       		.byte	0x76
 5360 0c09 720A0000 		.4byte	0xa72
 5361 0c0d 02       		.byte	0x2
 5362 0c0e 23       		.byte	0x23
 5363 0c0f 18       		.uleb128 0x18
 5364 0c10 07       		.uleb128 0x7
 5365 0c11 32020000 		.4byte	.LASF170
 5366 0c15 0D       		.byte	0xd
 5367 0c16 79       		.byte	0x79
 5368 0c17 720A0000 		.4byte	0xa72
 5369 0c1b 02       		.byte	0x2
 5370 0c1c 23       		.byte	0x23
 5371 0c1d 30       		.uleb128 0x30
 5372 0c1e 08       		.uleb128 0x8
 5373 0c1f 697000   		.ascii	"ip\000"
 5374 0c22 0D       		.byte	0xd
 5375 0c23 7C       		.byte	0x7c
 5376 0c24 720A0000 		.4byte	0xa72
 5377 0c28 02       		.byte	0x2
 5378 0c29 23       		.byte	0x23
 5379 0c2a 48       		.uleb128 0x48
 5380 0c2b 07       		.uleb128 0x7
 5381 0c2c E6060000 		.4byte	.LASF171
 5382 0c30 0D       		.byte	0xd
 5383 0c31 7F       		.byte	0x7f
 5384 0c32 720A0000 		.4byte	0xa72
 5385 0c36 02       		.byte	0x2
 5386 0c37 23       		.byte	0x23
 5387 0c38 60       		.uleb128 0x60
 5388 0c39 08       		.uleb128 0x8
 5389 0c3a 75647000 		.ascii	"udp\000"
 5390 0c3e 0D       		.byte	0xd
 5391 0c3f 85       		.byte	0x85
 5392 0c40 720A0000 		.4byte	0xa72
 5393 0c44 02       		.byte	0x2
 5394 0c45 23       		.byte	0x23
 5395 0c46 78       		.uleb128 0x78
 5396 0c47 08       		.uleb128 0x8
 5397 0c48 74637000 		.ascii	"tcp\000"
 5398 0c4c 0D       		.byte	0xd
 5399 0c4d 88       		.byte	0x88
 5400 0c4e 720A0000 		.4byte	0xa72
 5401 0c52 03       		.byte	0x3
 5402 0c53 23       		.byte	0x23
 5403 0c54 9001     		.uleb128 0x90
 5404 0c56 08       		.uleb128 0x8
 5405 0c57 6D656D00 		.ascii	"mem\000"
 5406 0c5b 0D       		.byte	0xd
 5407 0c5c 8B       		.byte	0x8b
 5408 0c5d 260B0000 		.4byte	0xb26
ARM GAS  C:\Users\jenny\AppData\Local\Temp\ccsinKfR.s 			page 96


 5409 0c61 03       		.byte	0x3
 5410 0c62 23       		.byte	0x23
 5411 0c63 A801     		.uleb128 0xa8
 5412 0c65 07       		.uleb128 0x7
 5413 0c66 82050000 		.4byte	.LASF172
 5414 0c6a 0D       		.byte	0xd
 5415 0c6b 8E       		.byte	0x8e
 5416 0c6c 840C0000 		.4byte	0xc84
 5417 0c70 03       		.byte	0x3
 5418 0c71 23       		.byte	0x23
 5419 0c72 B201     		.uleb128 0xb2
 5420 0c74 08       		.uleb128 0x8
 5421 0c75 73797300 		.ascii	"sys\000"
 5422 0c79 0D       		.byte	0xd
 5423 0c7a 91       		.byte	0x91
 5424 0c7b B00B0000 		.4byte	0xbb0
 5425 0c7f 03       		.byte	0x3
 5426 0c80 23       		.byte	0x23
 5427 0c81 BE02     		.uleb128 0x13e
 5428 0c83 00       		.byte	0
 5429 0c84 0C       		.uleb128 0xc
 5430 0c85 260B0000 		.4byte	0xb26
 5431 0c89 940C0000 		.4byte	0xc94
 5432 0c8d 0D       		.uleb128 0xd
 5433 0c8e BA000000 		.4byte	0xba
 5434 0c92 0D       		.byte	0xd
 5435 0c93 00       		.byte	0
 5436 0c94 18       		.uleb128 0x18
 5437 0c95 690A0000 		.4byte	.LASF175
 5438 0c99 01       		.byte	0x1
 5439 0c9a 0606     		.2byte	0x606
 5440 0c9c 01       		.byte	0x1
 5441 0c9d 00000000 		.4byte	.LFB13
 5442 0ca1 8C000000 		.4byte	.LFE13
 5443 0ca5 00000000 		.4byte	.LLST0
 5444 0ca9 01       		.byte	0x1
 5445 0caa 1F0D0000 		.4byte	0xd1f
 5446 0cae 19       		.uleb128 0x19
 5447 0caf 70636200 		.ascii	"pcb\000"
 5448 0cb3 01       		.byte	0x1
 5449 0cb4 0606     		.2byte	0x606
 5450 0cb6 18040000 		.4byte	0x418
 5451 0cba 20000000 		.4byte	.LLST1
 5452 0cbe 1A       		.uleb128 0x1a
 5453 0cbf 6300     		.ascii	"c\000"
 5454 0cc1 01       		.byte	0x1
 5455 0cc2 0806     		.2byte	0x608
 5456 0cc4 DE000000 		.4byte	0xde
 5457 0cc8 3E000000 		.4byte	.LLST2
 5458 0ccc 1B       		.uleb128 0x1b
 5459 0ccd 3C090000 		.4byte	.LASF173
 5460 0cd1 01       		.byte	0x1
 5461 0cd2 0806     		.2byte	0x608
 5462 0cd4 DE000000 		.4byte	0xde
 5463 0cd8 73000000 		.4byte	.LLST3
 5464 0cdc 1A       		.uleb128 0x1a
 5465 0cdd 6D737300 		.ascii	"mss\000"
ARM GAS  C:\Users\jenny\AppData\Local\Temp\ccsinKfR.s 			page 97


 5466 0ce1 01       		.byte	0x1
 5467 0ce2 0906     		.2byte	0x609
 5468 0ce4 DE000000 		.4byte	0xde
 5469 0ce8 91000000 		.4byte	.LLST4
 5470 0cec 1B       		.uleb128 0x1b
 5471 0ced 65070000 		.4byte	.LASF174
 5472 0cf1 01       		.byte	0x1
 5473 0cf2 0A06     		.2byte	0x60a
 5474 0cf4 1F0D0000 		.4byte	0xd1f
 5475 0cf8 F0000000 		.4byte	.LLST5
 5476 0cfc 1A       		.uleb128 0x1a
 5477 0cfd 6F707400 		.ascii	"opt\000"
 5478 0d01 01       		.byte	0x1
 5479 0d02 0A06     		.2byte	0x60a
 5480 0d04 C8000000 		.4byte	0xc8
 5481 0d08 1D010000 		.4byte	.LLST6
 5482 0d0c 1C       		.uleb128 0x1c
 5483 0d0d 0E000000 		.4byte	.LVL3
 5484 0d11 A7190000 		.4byte	0x19a7
 5485 0d15 1C       		.uleb128 0x1c
 5486 0d16 20000000 		.4byte	.LVL6
 5487 0d1a A7190000 		.4byte	0x19a7
 5488 0d1e 00       		.byte	0
 5489 0d1f 09       		.uleb128 0x9
 5490 0d20 04       		.byte	0x4
 5491 0d21 C8000000 		.4byte	0xc8
 5492 0d25 18       		.uleb128 0x18
 5493 0d26 73010000 		.4byte	.LASF176
 5494 0d2a 01       		.byte	0x1
 5495 0d2b 2003     		.2byte	0x320
 5496 0d2d 01       		.byte	0x1
 5497 0d2e 00000000 		.4byte	.LFB11
 5498 0d32 A8000000 		.4byte	.LFE11
 5499 0d36 43010000 		.4byte	.LLST7
 5500 0d3a 01       		.byte	0x1
 5501 0d3b D60D0000 		.4byte	0xdd6
 5502 0d3f 1D       		.uleb128 0x1d
 5503 0d40 20000000 		.4byte	.LASF177
 5504 0d44 01       		.byte	0x1
 5505 0d45 2003     		.2byte	0x320
 5506 0d47 9C080000 		.4byte	0x89c
 5507 0d4b 63010000 		.4byte	.LLST8
 5508 0d4f 1D       		.uleb128 0x1d
 5509 0d50 BB000000 		.4byte	.LASF26
 5510 0d54 01       		.byte	0x1
 5511 0d55 2003     		.2byte	0x320
 5512 0d57 9C080000 		.4byte	0x89c
 5513 0d5b 81010000 		.4byte	.LLST9
 5514 0d5f 1B       		.uleb128 0x1b
 5515 0d60 3F000000 		.4byte	.LASF178
 5516 0d64 01       		.byte	0x1
 5517 0d65 2203     		.2byte	0x322
 5518 0d67 9C080000 		.4byte	0x89c
 5519 0d6b ED010000 		.4byte	.LLST10
 5520 0d6f 1C       		.uleb128 0x1c
 5521 0d70 10000000 		.4byte	.LVL22
 5522 0d74 A7190000 		.4byte	0x19a7
ARM GAS  C:\Users\jenny\AppData\Local\Temp\ccsinKfR.s 			page 98


 5523 0d78 1E       		.uleb128 0x1e
 5524 0d79 40000000 		.4byte	.LVL25
 5525 0d7d BF190000 		.4byte	0x19bf
 5526 0d81 8C0D0000 		.4byte	0xd8c
 5527 0d85 1F       		.uleb128 0x1f
 5528 0d86 01       		.byte	0x1
 5529 0d87 50       		.byte	0x50
 5530 0d88 02       		.byte	0x2
 5531 0d89 75       		.byte	0x75
 5532 0d8a 00       		.sleb128 0
 5533 0d8b 00       		.byte	0
 5534 0d8c 1C       		.uleb128 0x1c
 5535 0d8d 60000000 		.4byte	.LVL27
 5536 0d91 A7190000 		.4byte	0x19a7
 5537 0d95 1E       		.uleb128 0x1e
 5538 0d96 6E000000 		.4byte	.LVL28
 5539 0d9a D4190000 		.4byte	0x19d4
 5540 0d9e A80D0000 		.4byte	0xda8
 5541 0da2 1F       		.uleb128 0x1f
 5542 0da3 01       		.byte	0x1
 5543 0da4 50       		.byte	0x50
 5544 0da5 01       		.byte	0x1
 5545 0da6 31       		.byte	0x31
 5546 0da7 00       		.byte	0
 5547 0da8 1E       		.uleb128 0x1e
 5548 0da9 7A000000 		.4byte	.LVL31
 5549 0dad BF190000 		.4byte	0x19bf
 5550 0db1 BC0D0000 		.4byte	0xdbc
 5551 0db5 1F       		.uleb128 0x1f
 5552 0db6 01       		.byte	0x1
 5553 0db7 50       		.byte	0x50
 5554 0db8 02       		.byte	0x2
 5555 0db9 75       		.byte	0x75
 5556 0dba 00       		.sleb128 0
 5557 0dbb 00       		.byte	0
 5558 0dbc 1C       		.uleb128 0x1c
 5559 0dbd 96000000 		.4byte	.LVL35
 5560 0dc1 EC190000 		.4byte	0x19ec
 5561 0dc5 20       		.uleb128 0x20
 5562 0dc6 A2000000 		.4byte	.LVL37
 5563 0dca 051A0000 		.4byte	0x1a05
 5564 0dce 1F       		.uleb128 0x1f
 5565 0dcf 01       		.byte	0x1
 5566 0dd0 50       		.byte	0x50
 5567 0dd1 02       		.byte	0x2
 5568 0dd2 75       		.byte	0x75
 5569 0dd3 00       		.sleb128 0
 5570 0dd4 00       		.byte	0
 5571 0dd5 00       		.byte	0
 5572 0dd6 18       		.uleb128 0x18
 5573 0dd7 B1080000 		.4byte	.LASF179
 5574 0ddb 01       		.byte	0x1
 5575 0ddc 4F03     		.2byte	0x34f
 5576 0dde 01       		.byte	0x1
 5577 0ddf 00000000 		.4byte	.LFB12
 5578 0de3 C2090000 		.4byte	.LFE12
 5579 0de7 0B020000 		.4byte	.LLST11
ARM GAS  C:\Users\jenny\AppData\Local\Temp\ccsinKfR.s 			page 99


 5580 0deb 01       		.byte	0x1
 5581 0dec 58120000 		.4byte	0x1258
 5582 0df0 19       		.uleb128 0x19
 5583 0df1 70636200 		.ascii	"pcb\000"
 5584 0df5 01       		.byte	0x1
 5585 0df6 4F03     		.2byte	0x34f
 5586 0df8 18040000 		.4byte	0x418
 5587 0dfc 2B020000 		.4byte	.LLST12
 5588 0e00 1B       		.uleb128 0x1b
 5589 0e01 BB000000 		.4byte	.LASF26
 5590 0e05 01       		.byte	0x1
 5591 0e06 5103     		.2byte	0x351
 5592 0e08 9C080000 		.4byte	0x89c
 5593 0e0c 91020000 		.4byte	.LLST13
 5594 0e10 1B       		.uleb128 0x1b
 5595 0e11 DC000000 		.4byte	.LASF180
 5596 0e15 01       		.byte	0x1
 5597 0e16 5303     		.2byte	0x353
 5598 0e18 9C080000 		.4byte	0x89c
 5599 0e1c 07030000 		.4byte	.LLST14
 5600 0e20 1B       		.uleb128 0x1b
 5601 0e21 20000000 		.4byte	.LASF177
 5602 0e25 01       		.byte	0x1
 5603 0e26 5303     		.2byte	0x353
 5604 0e28 9C080000 		.4byte	0x89c
 5605 0e2c 1A030000 		.4byte	.LLST15
 5606 0e30 1A       		.uleb128 0x1a
 5607 0e31 7000     		.ascii	"p\000"
 5608 0e33 01       		.byte	0x1
 5609 0e34 5503     		.2byte	0x355
 5610 0e36 8F010000 		.4byte	0x18f
 5611 0e3a 6F030000 		.4byte	.LLST16
 5612 0e3e 1A       		.uleb128 0x1a
 5613 0e3f 6F666600 		.ascii	"off\000"
 5614 0e43 01       		.byte	0x1
 5615 0e44 5603     		.2byte	0x356
 5616 0e46 FF000000 		.4byte	0xff
 5617 0e4a AE030000 		.4byte	.LLST17
 5618 0e4e 1A       		.uleb128 0x1a
 5619 0e4f 6D00     		.ascii	"m\000"
 5620 0e51 01       		.byte	0x1
 5621 0e52 5703     		.2byte	0x357
 5622 0e54 E9000000 		.4byte	0xe9
 5623 0e58 E2030000 		.4byte	.LLST18
 5624 0e5c 1B       		.uleb128 0x1b
 5625 0e5d A9050000 		.4byte	.LASF181
 5626 0e61 01       		.byte	0x1
 5627 0e62 5803     		.2byte	0x358
 5628 0e64 F4000000 		.4byte	0xf4
 5629 0e68 4F040000 		.4byte	.LLST19
 5630 0e6c 1B       		.uleb128 0x1b
 5631 0e6d CE010000 		.4byte	.LASF182
 5632 0e71 01       		.byte	0x1
 5633 0e72 5903     		.2byte	0x359
 5634 0e74 DE000000 		.4byte	0xde
 5635 0e78 47050000 		.4byte	.LLST20
 5636 0e7c 1B       		.uleb128 0x1b
ARM GAS  C:\Users\jenny\AppData\Local\Temp\ccsinKfR.s 			page 100


 5637 0e7d 47000000 		.4byte	.LASF183
 5638 0e81 01       		.byte	0x1
 5639 0e82 5A03     		.2byte	0x35a
 5640 0e84 29000000 		.4byte	0x29
 5641 0e88 65050000 		.4byte	.LLST21
 5642 0e8c 21       		.uleb128 0x21
 5643 0e8d 96040000 		.4byte	.LBB2
 5644 0e91 AE040000 		.4byte	.LBE2
 5645 0e95 AA0E0000 		.4byte	0xeaa
 5646 0e99 1B       		.uleb128 0x1b
 5647 0e9a E1020000 		.4byte	.LASF184
 5648 0e9e 01       		.byte	0x1
 5649 0e9f E003     		.2byte	0x3e0
 5650 0ea1 DE000000 		.4byte	0xde
 5651 0ea5 E5050000 		.4byte	.LLST22
 5652 0ea9 00       		.byte	0
 5653 0eaa 21       		.uleb128 0x21
 5654 0eab 9C060000 		.4byte	.LBB3
 5655 0eaf A4060000 		.4byte	.LBE3
 5656 0eb3 D10E0000 		.4byte	0xed1
 5657 0eb7 1B       		.uleb128 0x1b
 5658 0eb8 F7000000 		.4byte	.LASF185
 5659 0ebc 01       		.byte	0x1
 5660 0ebd E604     		.2byte	0x4e6
 5661 0ebf 9C080000 		.4byte	0x89c
 5662 0ec3 F8050000 		.4byte	.LLST23
 5663 0ec7 1C       		.uleb128 0x1c
 5664 0ec8 A4060000 		.4byte	.LVL126
 5665 0ecc BF190000 		.4byte	0x19bf
 5666 0ed0 00       		.byte	0
 5667 0ed1 1C       		.uleb128 0x1c
 5668 0ed2 BA000000 		.4byte	.LVL46
 5669 0ed6 1A1A0000 		.4byte	0x1a1a
 5670 0eda 1C       		.uleb128 0x1c
 5671 0edb CA000000 		.4byte	.LVL47
 5672 0edf A7190000 		.4byte	0x19a7
 5673 0ee3 1C       		.uleb128 0x1c
 5674 0ee4 FE000000 		.4byte	.LVL49
 5675 0ee8 321A0000 		.4byte	0x1a32
 5676 0eec 1C       		.uleb128 0x1c
 5677 0eed 14010000 		.4byte	.LVL50
 5678 0ef1 321A0000 		.4byte	0x1a32
 5679 0ef5 1E       		.uleb128 0x1e
 5680 0ef6 22010000 		.4byte	.LVL51
 5681 0efa BF190000 		.4byte	0x19bf
 5682 0efe 090F0000 		.4byte	0xf09
 5683 0f02 1F       		.uleb128 0x1f
 5684 0f03 01       		.byte	0x1
 5685 0f04 50       		.byte	0x50
 5686 0f05 02       		.byte	0x2
 5687 0f06 75       		.byte	0x75
 5688 0f07 00       		.sleb128 0
 5689 0f08 00       		.byte	0
 5690 0f09 22       		.uleb128 0x22
 5691 0f0a C4010000 		.4byte	.LVL62
 5692 0f0e 01       		.byte	0x1
 5693 0f0f 4A1A0000 		.4byte	0x1a4a
ARM GAS  C:\Users\jenny\AppData\Local\Temp\ccsinKfR.s 			page 101


 5694 0f13 1E0F0000 		.4byte	0xf1e
 5695 0f17 1F       		.uleb128 0x1f
 5696 0f18 01       		.byte	0x1
 5697 0f19 50       		.byte	0x50
 5698 0f1a 02       		.byte	0x2
 5699 0f1b 74       		.byte	0x74
 5700 0f1c 00       		.sleb128 0
 5701 0f1d 00       		.byte	0
 5702 0f1e 1C       		.uleb128 0x1c
 5703 0f1f CC010000 		.4byte	.LVL63
 5704 0f23 A7190000 		.4byte	0x19a7
 5705 0f27 1C       		.uleb128 0x1c
 5706 0f28 E0010000 		.4byte	.LVL64
 5707 0f2c 621A0000 		.4byte	0x1a62
 5708 0f30 1C       		.uleb128 0x1c
 5709 0f31 F4010000 		.4byte	.LVL65
 5710 0f35 621A0000 		.4byte	0x1a62
 5711 0f39 1C       		.uleb128 0x1c
 5712 0f3a FA010000 		.4byte	.LVL67
 5713 0f3e 621A0000 		.4byte	0x1a62
 5714 0f42 1E       		.uleb128 0x1e
 5715 0f43 40020000 		.4byte	.LVL70
 5716 0f47 4A1A0000 		.4byte	0x1a4a
 5717 0f4b 560F0000 		.4byte	0xf56
 5718 0f4f 1F       		.uleb128 0x1f
 5719 0f50 01       		.byte	0x1
 5720 0f51 50       		.byte	0x50
 5721 0f52 02       		.byte	0x2
 5722 0f53 74       		.byte	0x74
 5723 0f54 00       		.sleb128 0
 5724 0f55 00       		.byte	0
 5725 0f56 1E       		.uleb128 0x1e
 5726 0f57 8E020000 		.4byte	.LVL71
 5727 0f5b 6D1A0000 		.4byte	0x1a6d
 5728 0f5f 6D0F0000 		.4byte	0xf6d
 5729 0f63 1F       		.uleb128 0x1f
 5730 0f64 01       		.byte	0x1
 5731 0f65 50       		.byte	0x50
 5732 0f66 05       		.byte	0x5
 5733 0f67 03       		.byte	0x3
 5734 0f68 00000000 		.4byte	.LANCHOR5
 5735 0f6c 00       		.byte	0
 5736 0f6d 22       		.uleb128 0x22
 5737 0f6e A0020000 		.4byte	.LVL72
 5738 0f72 01       		.byte	0x1
 5739 0f73 250D0000 		.4byte	0xd25
 5740 0f77 820F0000 		.4byte	0xf82
 5741 0f7b 1F       		.uleb128 0x1f
 5742 0f7c 01       		.byte	0x1
 5743 0f7d 51       		.byte	0x51
 5744 0f7e 02       		.byte	0x2
 5745 0f7f 75       		.byte	0x75
 5746 0f80 00       		.sleb128 0
 5747 0f81 00       		.byte	0
 5748 0f82 1C       		.uleb128 0x1c
 5749 0f83 18030000 		.4byte	.LVL76
 5750 0f87 1A1A0000 		.4byte	0x1a1a
ARM GAS  C:\Users\jenny\AppData\Local\Temp\ccsinKfR.s 			page 102


 5751 0f8b 1C       		.uleb128 0x1c
 5752 0f8c 26030000 		.4byte	.LVL77
 5753 0f90 A7190000 		.4byte	0x19a7
 5754 0f94 1C       		.uleb128 0x1c
 5755 0f95 4C030000 		.4byte	.LVL79
 5756 0f99 321A0000 		.4byte	0x1a32
 5757 0f9d 1C       		.uleb128 0x1c
 5758 0f9e 60030000 		.4byte	.LVL80
 5759 0fa2 321A0000 		.4byte	0x1a32
 5760 0fa6 1E       		.uleb128 0x1e
 5761 0fa7 6C030000 		.4byte	.LVL81
 5762 0fab BF190000 		.4byte	0x19bf
 5763 0faf BA0F0000 		.4byte	0xfba
 5764 0fb3 1F       		.uleb128 0x1f
 5765 0fb4 01       		.byte	0x1
 5766 0fb5 50       		.byte	0x50
 5767 0fb6 02       		.byte	0x2
 5768 0fb7 75       		.byte	0x75
 5769 0fb8 00       		.sleb128 0
 5770 0fb9 00       		.byte	0
 5771 0fba 1C       		.uleb128 0x1c
 5772 0fbb A4030000 		.4byte	.LVL85
 5773 0fbf A7190000 		.4byte	0x19a7
 5774 0fc3 1C       		.uleb128 0x1c
 5775 0fc4 B8030000 		.4byte	.LVL86
 5776 0fc8 621A0000 		.4byte	0x1a62
 5777 0fcc 1E       		.uleb128 0x1e
 5778 0fcd 62040000 		.4byte	.LVL97
 5779 0fd1 861A0000 		.4byte	0x1a86
 5780 0fd5 E70F0000 		.4byte	0xfe7
 5781 0fd9 1F       		.uleb128 0x1f
 5782 0fda 01       		.byte	0x1
 5783 0fdb 51       		.byte	0x51
 5784 0fdc 03       		.byte	0x3
 5785 0fdd 76       		.byte	0x76
 5786 0fde 00       		.sleb128 0
 5787 0fdf 1F       		.byte	0x1f
 5788 0fe0 1F       		.uleb128 0x1f
 5789 0fe1 01       		.byte	0x1
 5790 0fe2 50       		.byte	0x50
 5791 0fe3 02       		.byte	0x2
 5792 0fe4 75       		.byte	0x75
 5793 0fe5 00       		.sleb128 0
 5794 0fe6 00       		.byte	0
 5795 0fe7 1C       		.uleb128 0x1c
 5796 0fe8 F6040000 		.4byte	.LVL105
 5797 0fec A7190000 		.4byte	0x19a7
 5798 0ff0 1E       		.uleb128 0x1e
 5799 0ff1 02050000 		.4byte	.LVL106
 5800 0ff5 6D1A0000 		.4byte	0x1a6d
 5801 0ff9 07100000 		.4byte	0x1007
 5802 0ffd 1F       		.uleb128 0x1f
 5803 0ffe 01       		.byte	0x1
 5804 0fff 50       		.byte	0x50
 5805 1000 05       		.byte	0x5
 5806 1001 03       		.byte	0x3
 5807 1002 00000000 		.4byte	.LANCHOR5
ARM GAS  C:\Users\jenny\AppData\Local\Temp\ccsinKfR.s 			page 103


 5808 1006 00       		.byte	0
 5809 1007 1C       		.uleb128 0x1c
 5810 1008 28050000 		.4byte	.LVL107
 5811 100c EC190000 		.4byte	0x19ec
 5812 1010 1C       		.uleb128 0x1c
 5813 1011 48050000 		.4byte	.LVL108
 5814 1015 A7190000 		.4byte	0x19a7
 5815 1019 1C       		.uleb128 0x1c
 5816 101a 66050000 		.4byte	.LVL109
 5817 101e EC190000 		.4byte	0x19ec
 5818 1022 1C       		.uleb128 0x1c
 5819 1023 72050000 		.4byte	.LVL110
 5820 1027 A7190000 		.4byte	0x19a7
 5821 102b 23       		.uleb128 0x23
 5822 102c 9C050000 		.4byte	.LVL111
 5823 1030 01       		.byte	0x1
 5824 1031 621A0000 		.4byte	0x1a62
 5825 1035 1C       		.uleb128 0x1c
 5826 1036 BA050000 		.4byte	.LVL113
 5827 103a A7190000 		.4byte	0x19a7
 5828 103e 1C       		.uleb128 0x1c
 5829 103f E0050000 		.4byte	.LVL114
 5830 1043 A7190000 		.4byte	0x19a7
 5831 1047 1E       		.uleb128 0x1e
 5832 1048 18060000 		.4byte	.LVL118
 5833 104c BF190000 		.4byte	0x19bf
 5834 1050 5B100000 		.4byte	0x105b
 5835 1054 1F       		.uleb128 0x1f
 5836 1055 01       		.byte	0x1
 5837 1056 50       		.byte	0x50
 5838 1057 02       		.byte	0x2
 5839 1058 76       		.byte	0x76
 5840 1059 00       		.sleb128 0
 5841 105a 00       		.byte	0
 5842 105b 1C       		.uleb128 0x1c
 5843 105c 44060000 		.4byte	.LVL121
 5844 1060 A7190000 		.4byte	0x19a7
 5845 1064 1C       		.uleb128 0x1c
 5846 1065 50060000 		.4byte	.LVL122
 5847 1069 A7190000 		.4byte	0x19a7
 5848 106d 1E       		.uleb128 0x1e
 5849 106e 68060000 		.4byte	.LVL123
 5850 1072 D4190000 		.4byte	0x19d4
 5851 1076 80100000 		.4byte	0x1080
 5852 107a 1F       		.uleb128 0x1f
 5853 107b 01       		.byte	0x1
 5854 107c 50       		.byte	0x50
 5855 107d 01       		.byte	0x1
 5856 107e 31       		.byte	0x31
 5857 107f 00       		.byte	0
 5858 1080 1C       		.uleb128 0x1c
 5859 1081 7C060000 		.4byte	.LVL124
 5860 1085 A7190000 		.4byte	0x19a7
 5861 1089 1E       		.uleb128 0x1e
 5862 108a C8060000 		.4byte	.LVL127
 5863 108e A31A0000 		.4byte	0x1aa3
 5864 1092 9D100000 		.4byte	0x109d
ARM GAS  C:\Users\jenny\AppData\Local\Temp\ccsinKfR.s 			page 104


 5865 1096 1F       		.uleb128 0x1f
 5866 1097 01       		.byte	0x1
 5867 1098 50       		.byte	0x50
 5868 1099 02       		.byte	0x2
 5869 109a 74       		.byte	0x74
 5870 109b 00       		.sleb128 0
 5871 109c 00       		.byte	0
 5872 109d 1C       		.uleb128 0x1c
 5873 109e E0060000 		.4byte	.LVL128
 5874 10a2 A7190000 		.4byte	0x19a7
 5875 10a6 1C       		.uleb128 0x1c
 5876 10a7 18070000 		.4byte	.LVL130
 5877 10ab A7190000 		.4byte	0x19a7
 5878 10af 1E       		.uleb128 0x1e
 5879 10b0 2E070000 		.4byte	.LVL131
 5880 10b4 A31A0000 		.4byte	0x1aa3
 5881 10b8 C3100000 		.4byte	0x10c3
 5882 10bc 1F       		.uleb128 0x1f
 5883 10bd 01       		.byte	0x1
 5884 10be 50       		.byte	0x50
 5885 10bf 02       		.byte	0x2
 5886 10c0 74       		.byte	0x74
 5887 10c1 00       		.sleb128 0
 5888 10c2 00       		.byte	0
 5889 10c3 1C       		.uleb128 0x1c
 5890 10c4 40070000 		.4byte	.LVL132
 5891 10c8 BB1A0000 		.4byte	0x1abb
 5892 10cc 1C       		.uleb128 0x1c
 5893 10cd 4C070000 		.4byte	.LVL133
 5894 10d1 A7190000 		.4byte	0x19a7
 5895 10d5 1E       		.uleb128 0x1e
 5896 10d6 68070000 		.4byte	.LVL134
 5897 10da BF190000 		.4byte	0x19bf
 5898 10de E9100000 		.4byte	0x10e9
 5899 10e2 1F       		.uleb128 0x1f
 5900 10e3 01       		.byte	0x1
 5901 10e4 50       		.byte	0x50
 5902 10e5 02       		.byte	0x2
 5903 10e6 75       		.byte	0x75
 5904 10e7 00       		.sleb128 0
 5905 10e8 00       		.byte	0
 5906 10e9 1C       		.uleb128 0x1c
 5907 10ea 84070000 		.4byte	.LVL137
 5908 10ee A7190000 		.4byte	0x19a7
 5909 10f2 1C       		.uleb128 0x1c
 5910 10f3 A2070000 		.4byte	.LVL138
 5911 10f7 A7190000 		.4byte	0x19a7
 5912 10fb 1C       		.uleb128 0x1c
 5913 10fc B6070000 		.4byte	.LVL139
 5914 1100 621A0000 		.4byte	0x1a62
 5915 1104 1E       		.uleb128 0x1e
 5916 1105 E8070000 		.4byte	.LVL141
 5917 1109 6D1A0000 		.4byte	0x1a6d
 5918 110d 1B110000 		.4byte	0x111b
 5919 1111 1F       		.uleb128 0x1f
 5920 1112 01       		.byte	0x1
 5921 1113 50       		.byte	0x50
ARM GAS  C:\Users\jenny\AppData\Local\Temp\ccsinKfR.s 			page 105


 5922 1114 05       		.byte	0x5
 5923 1115 03       		.byte	0x3
 5924 1116 00000000 		.4byte	.LANCHOR5
 5925 111a 00       		.byte	0
 5926 111b 1E       		.uleb128 0x1e
 5927 111c 02080000 		.4byte	.LVL143
 5928 1120 861A0000 		.4byte	0x1a86
 5929 1124 30110000 		.4byte	0x1130
 5930 1128 1F       		.uleb128 0x1f
 5931 1129 01       		.byte	0x1
 5932 112a 51       		.byte	0x51
 5933 112b 03       		.byte	0x3
 5934 112c 76       		.byte	0x76
 5935 112d 00       		.sleb128 0
 5936 112e 1F       		.byte	0x1f
 5937 112f 00       		.byte	0
 5938 1130 1C       		.uleb128 0x1c
 5939 1131 0C080000 		.4byte	.LVL144
 5940 1135 621A0000 		.4byte	0x1a62
 5941 1139 1C       		.uleb128 0x1c
 5942 113a 12080000 		.4byte	.LVL145
 5943 113e 621A0000 		.4byte	0x1a62
 5944 1142 1E       		.uleb128 0x1e
 5945 1143 1A080000 		.4byte	.LVL147
 5946 1147 6D1A0000 		.4byte	0x1a6d
 5947 114b 59110000 		.4byte	0x1159
 5948 114f 1F       		.uleb128 0x1f
 5949 1150 01       		.byte	0x1
 5950 1151 50       		.byte	0x50
 5951 1152 05       		.byte	0x5
 5952 1153 03       		.byte	0x3
 5953 1154 00000000 		.4byte	.LANCHOR5
 5954 1158 00       		.byte	0
 5955 1159 1C       		.uleb128 0x1c
 5956 115a 40080000 		.4byte	.LVL150
 5957 115e EC190000 		.4byte	0x19ec
 5958 1162 22       		.uleb128 0x22
 5959 1163 4E080000 		.4byte	.LVL151
 5960 1167 01       		.byte	0x1
 5961 1168 250D0000 		.4byte	0xd25
 5962 116c 7D110000 		.4byte	0x117d
 5963 1170 1F       		.uleb128 0x1f
 5964 1171 01       		.byte	0x1
 5965 1172 51       		.byte	0x51
 5966 1173 02       		.byte	0x2
 5967 1174 75       		.byte	0x75
 5968 1175 00       		.sleb128 0
 5969 1176 1F       		.uleb128 0x1f
 5970 1177 01       		.byte	0x1
 5971 1178 50       		.byte	0x50
 5972 1179 02       		.byte	0x2
 5973 117a 74       		.byte	0x74
 5974 117b 00       		.sleb128 0
 5975 117c 00       		.byte	0
 5976 117d 1C       		.uleb128 0x1c
 5977 117e 5C080000 		.4byte	.LVL153
 5978 1182 621A0000 		.4byte	0x1a62
ARM GAS  C:\Users\jenny\AppData\Local\Temp\ccsinKfR.s 			page 106


 5979 1186 1C       		.uleb128 0x1c
 5980 1187 6C080000 		.4byte	.LVL155
 5981 118b A7190000 		.4byte	0x19a7
 5982 118f 1C       		.uleb128 0x1c
 5983 1190 80080000 		.4byte	.LVL156
 5984 1194 A7190000 		.4byte	0x19a7
 5985 1198 1C       		.uleb128 0x1c
 5986 1199 96080000 		.4byte	.LVL157
 5987 119d EC190000 		.4byte	0x19ec
 5988 11a1 1C       		.uleb128 0x1c
 5989 11a2 A0080000 		.4byte	.LVL158
 5990 11a6 A7190000 		.4byte	0x19a7
 5991 11aa 1C       		.uleb128 0x1c
 5992 11ab C6080000 		.4byte	.LVL159
 5993 11af 621A0000 		.4byte	0x1a62
 5994 11b3 1C       		.uleb128 0x1c
 5995 11b4 CC080000 		.4byte	.LVL160
 5996 11b8 621A0000 		.4byte	0x1a62
 5997 11bc 1C       		.uleb128 0x1c
 5998 11bd E8080000 		.4byte	.LVL162
 5999 11c1 621A0000 		.4byte	0x1a62
 6000 11c5 1C       		.uleb128 0x1c
 6001 11c6 00090000 		.4byte	.LVL165
 6002 11ca A7190000 		.4byte	0x19a7
 6003 11ce 1C       		.uleb128 0x1c
 6004 11cf 16090000 		.4byte	.LVL166
 6005 11d3 EC190000 		.4byte	0x19ec
 6006 11d7 1C       		.uleb128 0x1c
 6007 11d8 20090000 		.4byte	.LVL167
 6008 11dc A7190000 		.4byte	0x19a7
 6009 11e0 1C       		.uleb128 0x1c
 6010 11e1 42090000 		.4byte	.LVL168
 6011 11e5 621A0000 		.4byte	0x1a62
 6012 11e9 1C       		.uleb128 0x1c
 6013 11ea 52090000 		.4byte	.LVL170
 6014 11ee 621A0000 		.4byte	0x1a62
 6015 11f2 1E       		.uleb128 0x1e
 6016 11f3 5A090000 		.4byte	.LVL172
 6017 11f7 6D1A0000 		.4byte	0x1a6d
 6018 11fb 09120000 		.4byte	0x1209
 6019 11ff 1F       		.uleb128 0x1f
 6020 1200 01       		.byte	0x1
 6021 1201 50       		.byte	0x50
 6022 1202 05       		.byte	0x5
 6023 1203 03       		.byte	0x3
 6024 1204 00000000 		.4byte	.LANCHOR5
 6025 1208 00       		.byte	0
 6026 1209 1E       		.uleb128 0x1e
 6027 120a 68090000 		.4byte	.LVL174
 6028 120e D41A0000 		.4byte	0x1ad4
 6029 1212 1D120000 		.4byte	0x121d
 6030 1216 1F       		.uleb128 0x1f
 6031 1217 01       		.byte	0x1
 6032 1218 50       		.byte	0x50
 6033 1219 02       		.byte	0x2
 6034 121a 74       		.byte	0x74
 6035 121b 00       		.sleb128 0
ARM GAS  C:\Users\jenny\AppData\Local\Temp\ccsinKfR.s 			page 107


 6036 121c 00       		.byte	0
 6037 121d 1E       		.uleb128 0x1e
 6038 121e 8E090000 		.4byte	.LVL176
 6039 1222 A7190000 		.4byte	0x19a7
 6040 1226 31120000 		.4byte	0x1231
 6041 122a 1F       		.uleb128 0x1f
 6042 122b 01       		.byte	0x1
 6043 122c 50       		.byte	0x50
 6044 122d 02       		.byte	0x2
 6045 122e 76       		.byte	0x76
 6046 122f 00       		.sleb128 0
 6047 1230 00       		.byte	0
 6048 1231 1C       		.uleb128 0x1c
 6049 1232 96090000 		.4byte	.LVL177
 6050 1236 D4190000 		.4byte	0x19d4
 6051 123a 1E       		.uleb128 0x1e
 6052 123b B0090000 		.4byte	.LVL180
 6053 123f A7190000 		.4byte	0x19a7
 6054 1243 4E120000 		.4byte	0x124e
 6055 1247 1F       		.uleb128 0x1f
 6056 1248 01       		.byte	0x1
 6057 1249 50       		.byte	0x50
 6058 124a 02       		.byte	0x2
 6059 124b 77       		.byte	0x77
 6060 124c 00       		.sleb128 0
 6061 124d 00       		.byte	0
 6062 124e 1C       		.uleb128 0x1c
 6063 124f B8090000 		.4byte	.LVL181
 6064 1253 D4190000 		.4byte	0x19d4
 6065 1257 00       		.byte	0
 6066 1258 24       		.uleb128 0x24
 6067 1259 DB040000 		.4byte	.LASF186
 6068 125d 01       		.byte	0x1
 6069 125e 1102     		.2byte	0x211
 6070 1260 01       		.byte	0x1
 6071 1261 15010000 		.4byte	0x115
 6072 1265 01       		.byte	0x1
 6073 1266 77120000 		.4byte	0x1277
 6074 126a 25       		.uleb128 0x25
 6075 126b 70636200 		.ascii	"pcb\000"
 6076 126f 01       		.byte	0x1
 6077 1270 1102     		.2byte	0x211
 6078 1272 18040000 		.4byte	0x418
 6079 1276 00       		.byte	0
 6080 1277 24       		.uleb128 0x24
 6081 1278 6A070000 		.4byte	.LASF187
 6082 127c 01       		.byte	0x1
 6083 127d B801     		.2byte	0x1b8
 6084 127f 01       		.byte	0x1
 6085 1280 15010000 		.4byte	0x115
 6086 1284 01       		.byte	0x1
 6087 1285 AD120000 		.4byte	0x12ad
 6088 1289 25       		.uleb128 0x25
 6089 128a 70636200 		.ascii	"pcb\000"
 6090 128e 01       		.byte	0x1
 6091 128f B801     		.2byte	0x1b8
 6092 1291 55090000 		.4byte	0x955
ARM GAS  C:\Users\jenny\AppData\Local\Temp\ccsinKfR.s 			page 108


 6093 1295 26       		.uleb128 0x26
 6094 1296 54000000 		.4byte	.LASF188
 6095 129a 01       		.byte	0x1
 6096 129b BA01     		.2byte	0x1ba
 6097 129d 18040000 		.4byte	0x418
 6098 12a1 27       		.uleb128 0x27
 6099 12a2 726300   		.ascii	"rc\000"
 6100 12a5 01       		.byte	0x1
 6101 12a6 BB01     		.2byte	0x1bb
 6102 12a8 15010000 		.4byte	0x115
 6103 12ac 00       		.byte	0
 6104 12ad 24       		.uleb128 0x24
 6105 12ae 72040000 		.4byte	.LASF189
 6106 12b2 01       		.byte	0x1
 6107 12b3 3F02     		.2byte	0x23f
 6108 12b5 01       		.byte	0x1
 6109 12b6 15010000 		.4byte	0x115
 6110 12ba 01       		.byte	0x1
 6111 12bb FE120000 		.4byte	0x12fe
 6112 12bf 25       		.uleb128 0x25
 6113 12c0 70636200 		.ascii	"pcb\000"
 6114 12c4 01       		.byte	0x1
 6115 12c5 3F02     		.2byte	0x23f
 6116 12c7 18040000 		.4byte	0x418
 6117 12cb 26       		.uleb128 0x26
 6118 12cc F8050000 		.4byte	.LASF190
 6119 12d0 01       		.byte	0x1
 6120 12d1 4102     		.2byte	0x241
 6121 12d3 9C080000 		.4byte	0x89c
 6122 12d7 26       		.uleb128 0x26
 6123 12d8 0D030000 		.4byte	.LASF191
 6124 12dc 01       		.byte	0x1
 6125 12dd 4202     		.2byte	0x242
 6126 12df C8000000 		.4byte	0xc8
 6127 12e3 27       		.uleb128 0x27
 6128 12e4 65727200 		.ascii	"err\000"
 6129 12e8 01       		.byte	0x1
 6130 12e9 4302     		.2byte	0x243
 6131 12eb 15010000 		.4byte	0x115
 6132 12ef 28       		.uleb128 0x28
 6133 12f0 26       		.uleb128 0x26
 6134 12f1 25000000 		.4byte	.LASF192
 6135 12f5 01       		.byte	0x1
 6136 12f6 AF02     		.2byte	0x2af
 6137 12f8 DE000000 		.4byte	0xde
 6138 12fc 00       		.byte	0
 6139 12fd 00       		.byte	0
 6140 12fe 29       		.uleb128 0x29
 6141 12ff 01       		.byte	0x1
 6142 1300 03030000 		.4byte	.LASF247
 6143 1304 01       		.byte	0x1
 6144 1305 5C       		.byte	0x5c
 6145 1306 01       		.byte	0x1
 6146 1307 00000000 		.4byte	.LFB7
 6147 130b 1C0B0000 		.4byte	.LFE7
 6148 130f 0B060000 		.4byte	.LLST24
 6149 1313 01       		.byte	0x1
ARM GAS  C:\Users\jenny\AppData\Local\Temp\ccsinKfR.s 			page 109


 6150 1314 7B180000 		.4byte	0x187b
 6151 1318 2A       		.uleb128 0x2a
 6152 1319 7000     		.ascii	"p\000"
 6153 131b 01       		.byte	0x1
 6154 131c 5C       		.byte	0x5c
 6155 131d 8F010000 		.4byte	0x18f
 6156 1321 37060000 		.4byte	.LLST25
 6157 1325 2A       		.uleb128 0x2a
 6158 1326 696E7000 		.ascii	"inp\000"
 6159 132a 01       		.byte	0x1
 6160 132b 5C       		.byte	0x5c
 6161 132c E1010000 		.4byte	0x1e1
 6162 1330 21070000 		.4byte	.LLST26
 6163 1334 2B       		.uleb128 0x2b
 6164 1335 70636200 		.ascii	"pcb\000"
 6165 1339 01       		.byte	0x1
 6166 133a 5E       		.byte	0x5e
 6167 133b 18040000 		.4byte	0x418
 6168 133f 4D070000 		.4byte	.LLST27
 6169 1343 2C       		.uleb128 0x2c
 6170 1344 DC000000 		.4byte	.LASF180
 6171 1348 01       		.byte	0x1
 6172 1349 5E       		.byte	0x5e
 6173 134a 18040000 		.4byte	0x418
 6174 134e B9070000 		.4byte	.LLST28
 6175 1352 2C       		.uleb128 0x2c
 6176 1353 8A090000 		.4byte	.LASF193
 6177 1357 01       		.byte	0x1
 6178 1358 5F       		.byte	0x5f
 6179 1359 55090000 		.4byte	0x955
 6180 135d 10080000 		.4byte	.LLST29
 6181 1361 2C       		.uleb128 0x2c
 6182 1362 A4090000 		.4byte	.LASF194
 6183 1366 01       		.byte	0x1
 6184 1367 64       		.byte	0x64
 6185 1368 C8000000 		.4byte	0xc8
 6186 136c 4F080000 		.4byte	.LLST30
 6187 1370 2B       		.uleb128 0x2b
 6188 1371 65727200 		.ascii	"err\000"
 6189 1375 01       		.byte	0x1
 6190 1376 65       		.byte	0x65
 6191 1377 15010000 		.4byte	0x115
 6192 137b 66080000 		.4byte	.LLST31
 6193 137f 2D       		.uleb128 0x2d
 6194 1380 29030000 		.4byte	.LASF195
 6195 1384 01       		.byte	0x1
 6196 1385 A501     		.2byte	0x1a5
 6197 1387 48000000 		.4byte	.L298
 6198 138b 2D       		.uleb128 0x2d
 6199 138c 13070000 		.4byte	.LASF196
 6200 1390 01       		.byte	0x1
 6201 1391 8901     		.2byte	0x189
 6202 1393 30020000 		.4byte	.L329
 6203 1397 2E       		.uleb128 0x2e
 6204 1398 58120000 		.4byte	0x1258
 6205 139c D0020000 		.4byte	.LBB11
 6206 13a0 00000000 		.4byte	.Ldebug_ranges0+0
ARM GAS  C:\Users\jenny\AppData\Local\Temp\ccsinKfR.s 			page 110


 6207 13a4 01       		.byte	0x1
 6208 13a5 CF       		.byte	0xcf
 6209 13a6 DE130000 		.4byte	0x13de
 6210 13aa 2F       		.uleb128 0x2f
 6211 13ab 6A120000 		.4byte	0x126a
 6212 13af A6080000 		.4byte	.LLST32
 6213 13b3 1E       		.uleb128 0x1e
 6214 13b4 22030000 		.4byte	.LVL215
 6215 13b8 E81A0000 		.4byte	0x1ae8
 6216 13bc C7130000 		.4byte	0x13c7
 6217 13c0 1F       		.uleb128 0x1f
 6218 13c1 01       		.byte	0x1
 6219 13c2 50       		.byte	0x50
 6220 13c3 02       		.byte	0x2
 6221 13c4 77       		.byte	0x77
 6222 13c5 00       		.sleb128 0
 6223 13c6 00       		.byte	0
 6224 13c7 20       		.uleb128 0x20
 6225 13c8 440A0000 		.4byte	.LVL304
 6226 13cc 011B0000 		.4byte	0x1b01
 6227 13d0 1F       		.uleb128 0x1f
 6228 13d1 01       		.byte	0x1
 6229 13d2 53       		.byte	0x53
 6230 13d3 02       		.byte	0x2
 6231 13d4 79       		.byte	0x79
 6232 13d5 00       		.sleb128 0
 6233 13d6 1F       		.uleb128 0x1f
 6234 13d7 01       		.byte	0x1
 6235 13d8 52       		.byte	0x52
 6236 13d9 02       		.byte	0x2
 6237 13da 78       		.byte	0x78
 6238 13db 00       		.sleb128 0
 6239 13dc 00       		.byte	0
 6240 13dd 00       		.byte	0
 6241 13de 30       		.uleb128 0x30
 6242 13df AD120000 		.4byte	0x12ad
 6243 13e3 2E030000 		.4byte	.LBB14
 6244 13e7 18000000 		.4byte	.Ldebug_ranges0+0x18
 6245 13eb 01       		.byte	0x1
 6246 13ec 3001     		.2byte	0x130
 6247 13ee 91150000 		.4byte	0x1591
 6248 13f2 2F       		.uleb128 0x2f
 6249 13f3 BF120000 		.4byte	0x12bf
 6250 13f7 C4080000 		.4byte	.LLST33
 6251 13fb 31       		.uleb128 0x31
 6252 13fc 68000000 		.4byte	.Ldebug_ranges0+0x68
 6253 1400 32       		.uleb128 0x32
 6254 1401 CB120000 		.4byte	0x12cb
 6255 1405 28090000 		.4byte	.LLST34
 6256 1409 32       		.uleb128 0x32
 6257 140a D7120000 		.4byte	0x12d7
 6258 140e 3B090000 		.4byte	.LLST35
 6259 1412 32       		.uleb128 0x32
 6260 1413 E3120000 		.4byte	0x12e3
 6261 1417 A3090000 		.4byte	.LLST36
 6262 141b 33       		.uleb128 0x33
 6263 141c 10010000 		.4byte	.Ldebug_ranges0+0x110
ARM GAS  C:\Users\jenny\AppData\Local\Temp\ccsinKfR.s 			page 111


 6264 1420 60140000 		.4byte	0x1460
 6265 1424 32       		.uleb128 0x32
 6266 1425 F0120000 		.4byte	0x12f0
 6267 1429 500A0000 		.4byte	.LLST37
 6268 142d 34       		.uleb128 0x34
 6269 142e C6090000 		.4byte	.LVL293
 6270 1432 42140000 		.4byte	0x1442
 6271 1436 1F       		.uleb128 0x1f
 6272 1437 01       		.byte	0x1
 6273 1438 52       		.byte	0x52
 6274 1439 01       		.byte	0x1
 6275 143a 30       		.byte	0x30
 6276 143b 1F       		.uleb128 0x1f
 6277 143c 01       		.byte	0x1
 6278 143d 51       		.byte	0x51
 6279 143e 02       		.byte	0x2
 6280 143f 77       		.byte	0x77
 6281 1440 00       		.sleb128 0
 6282 1441 00       		.byte	0
 6283 1442 1E       		.uleb128 0x1e
 6284 1443 E2090000 		.4byte	.LVL299
 6285 1447 D60D0000 		.4byte	0xdd6
 6286 144b 56140000 		.4byte	0x1456
 6287 144f 1F       		.uleb128 0x1f
 6288 1450 01       		.byte	0x1
 6289 1451 50       		.byte	0x50
 6290 1452 02       		.byte	0x2
 6291 1453 77       		.byte	0x77
 6292 1454 00       		.sleb128 0
 6293 1455 00       		.byte	0
 6294 1456 1C       		.uleb128 0x1c
 6295 1457 120A0000 		.4byte	.LVL302
 6296 145b 621A0000 		.4byte	0x1a62
 6297 145f 00       		.byte	0
 6298 1460 1E       		.uleb128 0x1e
 6299 1461 4E050000 		.4byte	.LVL243
 6300 1465 940C0000 		.4byte	0xc94
 6301 1469 74140000 		.4byte	0x1474
 6302 146d 1F       		.uleb128 0x1f
 6303 146e 01       		.byte	0x1
 6304 146f 50       		.byte	0x50
 6305 1470 02       		.byte	0x2
 6306 1471 77       		.byte	0x77
 6307 1472 00       		.sleb128 0
 6308 1473 00       		.byte	0
 6309 1474 1E       		.uleb128 0x1e
 6310 1475 7A050000 		.4byte	.LVL244
 6311 1479 D60D0000 		.4byte	0xdd6
 6312 147d 88140000 		.4byte	0x1488
 6313 1481 1F       		.uleb128 0x1f
 6314 1482 01       		.byte	0x1
 6315 1483 50       		.byte	0x50
 6316 1484 02       		.byte	0x2
 6317 1485 77       		.byte	0x77
 6318 1486 00       		.sleb128 0
 6319 1487 00       		.byte	0
 6320 1488 1E       		.uleb128 0x1e
ARM GAS  C:\Users\jenny\AppData\Local\Temp\ccsinKfR.s 			page 112


 6321 1489 A8050000 		.4byte	.LVL245
 6322 148d D60D0000 		.4byte	0xdd6
 6323 1491 9C140000 		.4byte	0x149c
 6324 1495 1F       		.uleb128 0x1f
 6325 1496 01       		.byte	0x1
 6326 1497 50       		.byte	0x50
 6327 1498 02       		.byte	0x2
 6328 1499 77       		.byte	0x77
 6329 149a 00       		.sleb128 0
 6330 149b 00       		.byte	0
 6331 149c 1E       		.uleb128 0x1e
 6332 149d D0050000 		.4byte	.LVL246
 6333 14a1 2F1B0000 		.4byte	0x1b2f
 6334 14a5 B0140000 		.4byte	0x14b0
 6335 14a9 1F       		.uleb128 0x1f
 6336 14aa 01       		.byte	0x1
 6337 14ab 50       		.byte	0x50
 6338 14ac 02       		.byte	0x2
 6339 14ad 77       		.byte	0x77
 6340 14ae 00       		.sleb128 0
 6341 14af 00       		.byte	0
 6342 14b0 1E       		.uleb128 0x1e
 6343 14b1 1A060000 		.4byte	.LVL247
 6344 14b5 D60D0000 		.4byte	0xdd6
 6345 14b9 C4140000 		.4byte	0x14c4
 6346 14bd 1F       		.uleb128 0x1f
 6347 14be 01       		.byte	0x1
 6348 14bf 50       		.byte	0x50
 6349 14c0 02       		.byte	0x2
 6350 14c1 77       		.byte	0x77
 6351 14c2 00       		.sleb128 0
 6352 14c3 00       		.byte	0
 6353 14c4 1E       		.uleb128 0x1e
 6354 14c5 38060000 		.4byte	.LVL248
 6355 14c9 2F1B0000 		.4byte	0x1b2f
 6356 14cd D8140000 		.4byte	0x14d8
 6357 14d1 1F       		.uleb128 0x1f
 6358 14d2 01       		.byte	0x1
 6359 14d3 50       		.byte	0x50
 6360 14d4 02       		.byte	0x2
 6361 14d5 77       		.byte	0x77
 6362 14d6 00       		.sleb128 0
 6363 14d7 00       		.byte	0
 6364 14d8 1E       		.uleb128 0x1e
 6365 14d9 64060000 		.4byte	.LVL249
 6366 14dd D60D0000 		.4byte	0xdd6
 6367 14e1 EC140000 		.4byte	0x14ec
 6368 14e5 1F       		.uleb128 0x1f
 6369 14e6 01       		.byte	0x1
 6370 14e7 50       		.byte	0x50
 6371 14e8 02       		.byte	0x2
 6372 14e9 77       		.byte	0x77
 6373 14ea 00       		.sleb128 0
 6374 14eb 00       		.byte	0
 6375 14ec 1C       		.uleb128 0x1c
 6376 14ed F6060000 		.4byte	.LVL250
 6377 14f1 011B0000 		.4byte	0x1b01
ARM GAS  C:\Users\jenny\AppData\Local\Temp\ccsinKfR.s 			page 113


 6378 14f5 1E       		.uleb128 0x1e
 6379 14f6 FE060000 		.4byte	.LVL251
 6380 14fa D60D0000 		.4byte	0xdd6
 6381 14fe 09150000 		.4byte	0x1509
 6382 1502 1F       		.uleb128 0x1f
 6383 1503 01       		.byte	0x1
 6384 1504 50       		.byte	0x50
 6385 1505 02       		.byte	0x2
 6386 1506 77       		.byte	0x77
 6387 1507 00       		.sleb128 0
 6388 1508 00       		.byte	0
 6389 1509 1C       		.uleb128 0x1c
 6390 150a 70070000 		.4byte	.LVL254
 6391 150e 011B0000 		.4byte	0x1b01
 6392 1512 1C       		.uleb128 0x1c
 6393 1513 12090000 		.4byte	.LVL285
 6394 1517 1A1A0000 		.4byte	0x1a1a
 6395 151b 1E       		.uleb128 0x1e
 6396 151c 56090000 		.4byte	.LVL286
 6397 1520 441B0000 		.4byte	0x1b44
 6398 1524 2F150000 		.4byte	0x152f
 6399 1528 1F       		.uleb128 0x1f
 6400 1529 01       		.byte	0x1
 6401 152a 51       		.byte	0x51
 6402 152b 02       		.byte	0x2
 6403 152c 77       		.byte	0x77
 6404 152d 04       		.sleb128 4
 6405 152e 00       		.byte	0
 6406 152f 1C       		.uleb128 0x1c
 6407 1530 7C090000 		.4byte	.LVL287
 6408 1534 621A0000 		.4byte	0x1a62
 6409 1538 1C       		.uleb128 0x1c
 6410 1539 90090000 		.4byte	.LVL289
 6411 153d BF190000 		.4byte	0x19bf
 6412 1541 35       		.uleb128 0x35
 6413 1542 AE090000 		.4byte	.LVL290
 6414 1546 02       		.byte	0x2
 6415 1547 74       		.byte	0x74
 6416 1548 00       		.sleb128 0
 6417 1549 59150000 		.4byte	0x1559
 6418 154d 1F       		.uleb128 0x1f
 6419 154e 01       		.byte	0x1
 6420 154f 52       		.byte	0x52
 6421 1550 01       		.byte	0x1
 6422 1551 30       		.byte	0x30
 6423 1552 1F       		.uleb128 0x1f
 6424 1553 01       		.byte	0x1
 6425 1554 51       		.byte	0x51
 6426 1555 02       		.byte	0x2
 6427 1556 77       		.byte	0x77
 6428 1557 00       		.sleb128 0
 6429 1558 00       		.byte	0
 6430 1559 1E       		.uleb128 0x1e
 6431 155a 6C0A0000 		.4byte	.LVL306
 6432 155e 621B0000 		.4byte	0x1b62
 6433 1562 6D150000 		.4byte	0x156d
 6434 1566 1F       		.uleb128 0x1f
ARM GAS  C:\Users\jenny\AppData\Local\Temp\ccsinKfR.s 			page 114


 6435 1567 01       		.byte	0x1
 6436 1568 50       		.byte	0x50
 6437 1569 02       		.byte	0x2
 6438 156a 77       		.byte	0x77
 6439 156b 00       		.sleb128 0
 6440 156c 00       		.byte	0
 6441 156d 1C       		.uleb128 0x1c
 6442 156e 8A0A0000 		.4byte	.LVL307
 6443 1572 761B0000 		.4byte	0x1b76
 6444 1576 1C       		.uleb128 0x1c
 6445 1577 9E0A0000 		.4byte	.LVL311
 6446 157b 621A0000 		.4byte	0x1a62
 6447 157f 20       		.uleb128 0x20
 6448 1580 DE0A0000 		.4byte	.LVL313
 6449 1584 2F1B0000 		.4byte	0x1b2f
 6450 1588 1F       		.uleb128 0x1f
 6451 1589 01       		.byte	0x1
 6452 158a 50       		.byte	0x50
 6453 158b 02       		.byte	0x2
 6454 158c 77       		.byte	0x77
 6455 158d 00       		.sleb128 0
 6456 158e 00       		.byte	0
 6457 158f 00       		.byte	0
 6458 1590 00       		.byte	0
 6459 1591 30       		.uleb128 0x30
 6460 1592 77120000 		.4byte	0x1277
 6461 1596 2E040000 		.4byte	.LBB41
 6462 159a 30010000 		.4byte	.Ldebug_ranges0+0x130
 6463 159e 01       		.byte	0x1
 6464 159f 0201     		.2byte	0x102
 6465 15a1 58160000 		.4byte	0x1658
 6466 15a5 2F       		.uleb128 0x2f
 6467 15a6 89120000 		.4byte	0x1289
 6468 15aa 700A0000 		.4byte	.LLST38
 6469 15ae 31       		.uleb128 0x31
 6470 15af 48010000 		.4byte	.Ldebug_ranges0+0x148
 6471 15b3 32       		.uleb128 0x32
 6472 15b4 95120000 		.4byte	0x1295
 6473 15b8 8E0A0000 		.4byte	.LLST39
 6474 15bc 32       		.uleb128 0x32
 6475 15bd A1120000 		.4byte	0x12a1
 6476 15c1 CD0A0000 		.4byte	.LLST40
 6477 15c5 1C       		.uleb128 0x1c
 6478 15c6 64040000 		.4byte	.LVL234
 6479 15ca 811B0000 		.4byte	0x1b81
 6480 15ce 1C       		.uleb128 0x1c
 6481 15cf 00050000 		.4byte	.LVL236
 6482 15d3 761B0000 		.4byte	0x1b76
 6483 15d7 1E       		.uleb128 0x1e
 6484 15d8 0C050000 		.4byte	.LVL237
 6485 15dc 940C0000 		.4byte	0xc94
 6486 15e0 EB150000 		.4byte	0x15eb
 6487 15e4 1F       		.uleb128 0x1f
 6488 15e5 01       		.byte	0x1
 6489 15e6 50       		.byte	0x50
 6490 15e7 02       		.byte	0x2
 6491 15e8 7A       		.byte	0x7a
ARM GAS  C:\Users\jenny\AppData\Local\Temp\ccsinKfR.s 			page 115


 6492 15e9 00       		.sleb128 0
 6493 15ea 00       		.byte	0
 6494 15eb 1E       		.uleb128 0x1e
 6495 15ec 18050000 		.4byte	.LVL238
 6496 15f0 441B0000 		.4byte	0x1b44
 6497 15f4 FF150000 		.4byte	0x15ff
 6498 15f8 1F       		.uleb128 0x1f
 6499 15f9 01       		.byte	0x1
 6500 15fa 51       		.byte	0x51
 6501 15fb 02       		.byte	0x2
 6502 15fc 7A       		.byte	0x7a
 6503 15fd 04       		.sleb128 4
 6504 15fe 00       		.byte	0
 6505 15ff 1E       		.uleb128 0x1e
 6506 1600 24050000 		.4byte	.LVL239
 6507 1604 991B0000 		.4byte	0x1b99
 6508 1608 18160000 		.4byte	0x1618
 6509 160c 1F       		.uleb128 0x1f
 6510 160d 01       		.byte	0x1
 6511 160e 51       		.byte	0x51
 6512 160f 01       		.byte	0x1
 6513 1610 42       		.byte	0x42
 6514 1611 1F       		.uleb128 0x1f
 6515 1612 01       		.byte	0x1
 6516 1613 50       		.byte	0x50
 6517 1614 02       		.byte	0x2
 6518 1615 7A       		.byte	0x7a
 6519 1616 00       		.sleb128 0
 6520 1617 00       		.byte	0
 6521 1618 1E       		.uleb128 0x1e
 6522 1619 30050000 		.4byte	.LVL241
 6523 161d E81A0000 		.4byte	0x1ae8
 6524 1621 2C160000 		.4byte	0x162c
 6525 1625 1F       		.uleb128 0x1f
 6526 1626 01       		.byte	0x1
 6527 1627 50       		.byte	0x50
 6528 1628 02       		.byte	0x2
 6529 1629 7A       		.byte	0x7a
 6530 162a 00       		.sleb128 0
 6531 162b 00       		.byte	0
 6532 162c 1E       		.uleb128 0x1e
 6533 162d 70080000 		.4byte	.LVL269
 6534 1631 B71B0000 		.4byte	0x1bb7
 6535 1635 46160000 		.4byte	0x1646
 6536 1639 1F       		.uleb128 0x1f
 6537 163a 01       		.byte	0x1
 6538 163b 51       		.byte	0x51
 6539 163c 02       		.byte	0x2
 6540 163d 77       		.byte	0x77
 6541 163e 00       		.sleb128 0
 6542 163f 1F       		.uleb128 0x1f
 6543 1640 01       		.byte	0x1
 6544 1641 50       		.byte	0x50
 6545 1642 02       		.byte	0x2
 6546 1643 7A       		.byte	0x7a
 6547 1644 00       		.sleb128 0
 6548 1645 00       		.byte	0
ARM GAS  C:\Users\jenny\AppData\Local\Temp\ccsinKfR.s 			page 116


 6549 1646 20       		.uleb128 0x20
 6550 1647 A8080000 		.4byte	.LVL273
 6551 164b 011B0000 		.4byte	0x1b01
 6552 164f 1F       		.uleb128 0x1f
 6553 1650 01       		.byte	0x1
 6554 1651 52       		.byte	0x52
 6555 1652 02       		.byte	0x2
 6556 1653 78       		.byte	0x78
 6557 1654 00       		.sleb128 0
 6558 1655 00       		.byte	0
 6559 1656 00       		.byte	0
 6560 1657 00       		.byte	0
 6561 1658 1E       		.uleb128 0x1e
 6562 1659 36000000 		.4byte	.LVL184
 6563 165d 861A0000 		.4byte	0x1a86
 6564 1661 6C160000 		.4byte	0x166c
 6565 1665 1F       		.uleb128 0x1f
 6566 1666 01       		.byte	0x1
 6567 1667 50       		.byte	0x50
 6568 1668 02       		.byte	0x2
 6569 1669 75       		.byte	0x75
 6570 166a 00       		.sleb128 0
 6571 166b 00       		.byte	0
 6572 166c 22       		.uleb128 0x22
 6573 166d 5E000000 		.4byte	.LVL185
 6574 1671 01       		.byte	0x1
 6575 1672 D01B0000 		.4byte	0x1bd0
 6576 1676 81160000 		.4byte	0x1681
 6577 167a 1F       		.uleb128 0x1f
 6578 167b 01       		.byte	0x1
 6579 167c 50       		.byte	0x50
 6580 167d 02       		.byte	0x2
 6581 167e 75       		.byte	0x75
 6582 167f 00       		.sleb128 0
 6583 1680 00       		.byte	0
 6584 1681 1E       		.uleb128 0x1e
 6585 1682 6C000000 		.4byte	.LVL186
 6586 1686 E81B0000 		.4byte	0x1be8
 6587 168a 95160000 		.4byte	0x1695
 6588 168e 1F       		.uleb128 0x1f
 6589 168f 01       		.byte	0x1
 6590 1690 51       		.byte	0x51
 6591 1691 02       		.byte	0x2
 6592 1692 77       		.byte	0x77
 6593 1693 00       		.sleb128 0
 6594 1694 00       		.byte	0
 6595 1695 1E       		.uleb128 0x1e
 6596 1696 8A000000 		.4byte	.LVL187
 6597 169a 101C0000 		.4byte	0x1c10
 6598 169e B4160000 		.4byte	0x16b4
 6599 16a2 1F       		.uleb128 0x1f
 6600 16a3 01       		.byte	0x1
 6601 16a4 53       		.byte	0x53
 6602 16a5 01       		.byte	0x1
 6603 16a6 36       		.byte	0x36
 6604 16a7 1F       		.uleb128 0x1f
 6605 16a8 01       		.byte	0x1
ARM GAS  C:\Users\jenny\AppData\Local\Temp\ccsinKfR.s 			page 117


 6606 16a9 52       		.byte	0x52
 6607 16aa 02       		.byte	0x2
 6608 16ab 78       		.byte	0x78
 6609 16ac 00       		.sleb128 0
 6610 16ad 1F       		.uleb128 0x1f
 6611 16ae 01       		.byte	0x1
 6612 16af 50       		.byte	0x50
 6613 16b0 02       		.byte	0x2
 6614 16b1 75       		.byte	0x75
 6615 16b2 00       		.sleb128 0
 6616 16b3 00       		.byte	0
 6617 16b4 1C       		.uleb128 0x1c
 6618 16b5 AC000000 		.4byte	.LVL188
 6619 16b9 A7190000 		.4byte	0x19a7
 6620 16bd 1E       		.uleb128 0x1e
 6621 16be BE000000 		.4byte	.LVL190
 6622 16c2 861A0000 		.4byte	0x1a86
 6623 16c6 D1160000 		.4byte	0x16d1
 6624 16ca 1F       		.uleb128 0x1f
 6625 16cb 01       		.byte	0x1
 6626 16cc 50       		.byte	0x50
 6627 16cd 02       		.byte	0x2
 6628 16ce 75       		.byte	0x75
 6629 16cf 00       		.sleb128 0
 6630 16d0 00       		.byte	0
 6631 16d1 1C       		.uleb128 0x1c
 6632 16d2 D0000000 		.4byte	.LVL192
 6633 16d6 A7190000 		.4byte	0x19a7
 6634 16da 1C       		.uleb128 0x1c
 6635 16db DA000000 		.4byte	.LVL193
 6636 16df A7190000 		.4byte	0x19a7
 6637 16e3 1C       		.uleb128 0x1c
 6638 16e4 E4000000 		.4byte	.LVL194
 6639 16e8 1A1A0000 		.4byte	0x1a1a
 6640 16ec 1C       		.uleb128 0x1c
 6641 16ed F8000000 		.4byte	.LVL195
 6642 16f1 1A1A0000 		.4byte	0x1a1a
 6643 16f5 1C       		.uleb128 0x1c
 6644 16f6 06010000 		.4byte	.LVL196
 6645 16fa A7190000 		.4byte	0x19a7
 6646 16fe 1C       		.uleb128 0x1c
 6647 16ff 10010000 		.4byte	.LVL197
 6648 1703 A7190000 		.4byte	0x19a7
 6649 1707 1C       		.uleb128 0x1c
 6650 1708 72010000 		.4byte	.LVL203
 6651 170c 621A0000 		.4byte	0x1a62
 6652 1710 1E       		.uleb128 0x1e
 6653 1711 08020000 		.4byte	.LVL205
 6654 1715 3C1C0000 		.4byte	0x1c3c
 6655 1719 24170000 		.4byte	0x1724
 6656 171d 1F       		.uleb128 0x1f
 6657 171e 01       		.byte	0x1
 6658 171f 50       		.byte	0x50
 6659 1720 02       		.byte	0x2
 6660 1721 77       		.byte	0x77
 6661 1722 00       		.sleb128 0
 6662 1723 00       		.byte	0
ARM GAS  C:\Users\jenny\AppData\Local\Temp\ccsinKfR.s 			page 118


 6663 1724 1C       		.uleb128 0x1c
 6664 1725 42020000 		.4byte	.LVL206
 6665 1729 D01B0000 		.4byte	0x1bd0
 6666 172d 1C       		.uleb128 0x1c
 6667 172e 50020000 		.4byte	.LVL208
 6668 1732 621A0000 		.4byte	0x1a62
 6669 1736 1C       		.uleb128 0x1c
 6670 1737 56020000 		.4byte	.LVL209
 6671 173b 621A0000 		.4byte	0x1a62
 6672 173f 1C       		.uleb128 0x1c
 6673 1740 AA020000 		.4byte	.LVL213
 6674 1744 621A0000 		.4byte	0x1a62
 6675 1748 22       		.uleb128 0x22
 6676 1749 2E030000 		.4byte	.LVL216
 6677 174d 01       		.byte	0x1
 6678 174e D01B0000 		.4byte	0x1bd0
 6679 1752 5D170000 		.4byte	0x175d
 6680 1756 1F       		.uleb128 0x1f
 6681 1757 01       		.byte	0x1
 6682 1758 50       		.byte	0x50
 6683 1759 02       		.byte	0x2
 6684 175a 75       		.byte	0x75
 6685 175b 00       		.sleb128 0
 6686 175c 00       		.byte	0
 6687 175d 34       		.uleb128 0x34
 6688 175e 80030000 		.4byte	.LVL220
 6689 1762 6D170000 		.4byte	0x176d
 6690 1766 1F       		.uleb128 0x1f
 6691 1767 01       		.byte	0x1
 6692 1768 51       		.byte	0x51
 6693 1769 02       		.byte	0x2
 6694 176a 09       		.byte	0x9
 6695 176b F5       		.byte	0xf5
 6696 176c 00       		.byte	0
 6697 176d 1E       		.uleb128 0x1e
 6698 176e 88030000 		.4byte	.LVL221
 6699 1772 541C0000 		.4byte	0x1c54
 6700 1776 81170000 		.4byte	0x1781
 6701 177a 1F       		.uleb128 0x1f
 6702 177b 01       		.byte	0x1
 6703 177c 51       		.byte	0x51
 6704 177d 02       		.byte	0x2
 6705 177e 77       		.byte	0x77
 6706 177f 00       		.sleb128 0
 6707 1780 00       		.byte	0
 6708 1781 1E       		.uleb128 0x1e
 6709 1782 90030000 		.4byte	.LVL222
 6710 1786 741C0000 		.4byte	0x1c74
 6711 178a 9A170000 		.4byte	0x179a
 6712 178e 1F       		.uleb128 0x1f
 6713 178f 01       		.byte	0x1
 6714 1790 51       		.byte	0x51
 6715 1791 02       		.byte	0x2
 6716 1792 77       		.byte	0x77
 6717 1793 00       		.sleb128 0
 6718 1794 1F       		.uleb128 0x1f
 6719 1795 01       		.byte	0x1
ARM GAS  C:\Users\jenny\AppData\Local\Temp\ccsinKfR.s 			page 119


 6720 1796 50       		.byte	0x50
 6721 1797 01       		.byte	0x1
 6722 1798 32       		.byte	0x32
 6723 1799 00       		.byte	0
 6724 179a 34       		.uleb128 0x34
 6725 179b DA030000 		.4byte	.LVL226
 6726 179f AA170000 		.4byte	0x17aa
 6727 17a3 1F       		.uleb128 0x1f
 6728 17a4 01       		.byte	0x1
 6729 17a5 51       		.byte	0x51
 6730 17a6 02       		.byte	0x2
 6731 17a7 09       		.byte	0x9
 6732 17a8 F4       		.byte	0xf4
 6733 17a9 00       		.byte	0
 6734 17aa 1C       		.uleb128 0x1c
 6735 17ab 7A070000 		.4byte	.LVL256
 6736 17af A7190000 		.4byte	0x19a7
 6737 17b3 1E       		.uleb128 0x1e
 6738 17b4 CC070000 		.4byte	.LVL257
 6739 17b8 011B0000 		.4byte	0x1b01
 6740 17bc CE170000 		.4byte	0x17ce
 6741 17c0 1F       		.uleb128 0x1f
 6742 17c1 01       		.byte	0x1
 6743 17c2 52       		.byte	0x52
 6744 17c3 02       		.byte	0x2
 6745 17c4 78       		.byte	0x78
 6746 17c5 00       		.sleb128 0
 6747 17c6 1F       		.uleb128 0x1f
 6748 17c7 02       		.byte	0x2
 6749 17c8 7D       		.byte	0x7d
 6750 17c9 04       		.sleb128 4
 6751 17ca 02       		.byte	0x2
 6752 17cb 74       		.byte	0x74
 6753 17cc 00       		.sleb128 0
 6754 17cd 00       		.byte	0
 6755 17ce 34       		.uleb128 0x34
 6756 17cf DE070000 		.4byte	.LVL259
 6757 17d3 DE170000 		.4byte	0x17de
 6758 17d7 1F       		.uleb128 0x1f
 6759 17d8 01       		.byte	0x1
 6760 17d9 51       		.byte	0x51
 6761 17da 02       		.byte	0x2
 6762 17db 77       		.byte	0x77
 6763 17dc 00       		.sleb128 0
 6764 17dd 00       		.byte	0
 6765 17de 1C       		.uleb128 0x1c
 6766 17df F2070000 		.4byte	.LVL261
 6767 17e3 621A0000 		.4byte	0x1a62
 6768 17e7 35       		.uleb128 0x35
 6769 17e8 10080000 		.4byte	.LVL262
 6770 17ec 02       		.byte	0x2
 6771 17ed 74       		.byte	0x74
 6772 17ee 00       		.sleb128 0
 6773 17ef FA170000 		.4byte	0x17fa
 6774 17f3 1F       		.uleb128 0x1f
 6775 17f4 01       		.byte	0x1
 6776 17f5 51       		.byte	0x51
ARM GAS  C:\Users\jenny\AppData\Local\Temp\ccsinKfR.s 			page 120


 6777 17f6 02       		.byte	0x2
 6778 17f7 77       		.byte	0x77
 6779 17f8 00       		.sleb128 0
 6780 17f9 00       		.byte	0
 6781 17fa 1E       		.uleb128 0x1e
 6782 17fb 44080000 		.4byte	.LVL264
 6783 17ff E81A0000 		.4byte	0x1ae8
 6784 1803 0E180000 		.4byte	0x180e
 6785 1807 1F       		.uleb128 0x1f
 6786 1808 01       		.byte	0x1
 6787 1809 50       		.byte	0x50
 6788 180a 02       		.byte	0x2
 6789 180b 77       		.byte	0x77
 6790 180c 00       		.sleb128 0
 6791 180d 00       		.byte	0
 6792 180e 1E       		.uleb128 0x1e
 6793 180f B8080000 		.4byte	.LVL275
 6794 1813 8D1C0000 		.4byte	0x1c8d
 6795 1817 2E180000 		.4byte	0x182e
 6796 181b 1F       		.uleb128 0x1f
 6797 181c 01       		.byte	0x1
 6798 181d 53       		.byte	0x53
 6799 181e 02       		.byte	0x2
 6800 181f 74       		.byte	0x74
 6801 1820 00       		.sleb128 0
 6802 1821 1F       		.uleb128 0x1f
 6803 1822 01       		.byte	0x1
 6804 1823 51       		.byte	0x51
 6805 1824 02       		.byte	0x2
 6806 1825 77       		.byte	0x77
 6807 1826 00       		.sleb128 0
 6808 1827 1F       		.uleb128 0x1f
 6809 1828 01       		.byte	0x1
 6810 1829 50       		.byte	0x50
 6811 182a 02       		.byte	0x2
 6812 182b 74       		.byte	0x74
 6813 182c 00       		.sleb128 0
 6814 182d 00       		.byte	0
 6815 182e 1C       		.uleb128 0x1c
 6816 182f C2080000 		.4byte	.LVL277
 6817 1833 D01B0000 		.4byte	0x1bd0
 6818 1837 1E       		.uleb128 0x1e
 6819 1838 C8080000 		.4byte	.LVL278
 6820 183c B51C0000 		.4byte	0x1cb5
 6821 1840 4B180000 		.4byte	0x184b
 6822 1844 1F       		.uleb128 0x1f
 6823 1845 01       		.byte	0x1
 6824 1846 50       		.byte	0x50
 6825 1847 02       		.byte	0x2
 6826 1848 77       		.byte	0x77
 6827 1849 00       		.sleb128 0
 6828 184a 00       		.byte	0
 6829 184b 1C       		.uleb128 0x1c
 6830 184c CE080000 		.4byte	.LVL280
 6831 1850 621A0000 		.4byte	0x1a62
 6832 1854 35       		.uleb128 0x35
 6833 1855 F0080000 		.4byte	.LVL282
ARM GAS  C:\Users\jenny\AppData\Local\Temp\ccsinKfR.s 			page 121


 6834 1859 02       		.byte	0x2
 6835 185a 74       		.byte	0x74
 6836 185b 00       		.sleb128 0
 6837 185c 71180000 		.4byte	0x1871
 6838 1860 1F       		.uleb128 0x1f
 6839 1861 01       		.byte	0x1
 6840 1862 53       		.byte	0x53
 6841 1863 01       		.byte	0x1
 6842 1864 30       		.byte	0x30
 6843 1865 1F       		.uleb128 0x1f
 6844 1866 01       		.byte	0x1
 6845 1867 52       		.byte	0x52
 6846 1868 01       		.byte	0x1
 6847 1869 30       		.byte	0x30
 6848 186a 1F       		.uleb128 0x1f
 6849 186b 01       		.byte	0x1
 6850 186c 51       		.byte	0x51
 6851 186d 02       		.byte	0x2
 6852 186e 77       		.byte	0x77
 6853 186f 00       		.sleb128 0
 6854 1870 00       		.byte	0
 6855 1871 1C       		.uleb128 0x1c
 6856 1872 900A0000 		.4byte	.LVL309
 6857 1876 621A0000 		.4byte	0x1a62
 6858 187a 00       		.byte	0
 6859 187b 36       		.uleb128 0x36
 6860 187c 96010000 		.4byte	.LASF197
 6861 1880 01       		.byte	0x1
 6862 1881 3E       		.byte	0x3e
 6863 1882 45080000 		.4byte	0x845
 6864 1886 05       		.byte	0x5
 6865 1887 03       		.byte	0x3
 6866 1888 00000000 		.4byte	inseg
 6867 188c 36       		.uleb128 0x36
 6868 188d 9C080000 		.4byte	.LASF123
 6869 1891 01       		.byte	0x1
 6870 1892 3F       		.byte	0x3f
 6871 1893 D8090000 		.4byte	0x9d8
 6872 1897 05       		.byte	0x5
 6873 1898 03       		.byte	0x3
 6874 1899 00000000 		.4byte	tcphdr
 6875 189d 36       		.uleb128 0x36
 6876 189e 8F090000 		.4byte	.LASF198
 6877 18a2 01       		.byte	0x1
 6878 18a3 40       		.byte	0x40
 6879 18a4 AE180000 		.4byte	0x18ae
 6880 18a8 05       		.byte	0x5
 6881 18a9 03       		.byte	0x3
 6882 18aa 00000000 		.4byte	iphdr
 6883 18ae 09       		.uleb128 0x9
 6884 18af 04       		.byte	0x4
 6885 18b0 54030000 		.4byte	0x354
 6886 18b4 36       		.uleb128 0x36
 6887 18b5 B9010000 		.4byte	.LASF126
 6888 18b9 01       		.byte	0x1
 6889 18ba 41       		.byte	0x41
 6890 18bb F4000000 		.4byte	0xf4
ARM GAS  C:\Users\jenny\AppData\Local\Temp\ccsinKfR.s 			page 122


 6891 18bf 05       		.byte	0x5
 6892 18c0 03       		.byte	0x3
 6893 18c1 00000000 		.4byte	seqno
 6894 18c5 36       		.uleb128 0x36
 6895 18c6 51050000 		.4byte	.LASF127
 6896 18ca 01       		.byte	0x1
 6897 18cb 41       		.byte	0x41
 6898 18cc F4000000 		.4byte	0xf4
 6899 18d0 05       		.byte	0x5
 6900 18d1 03       		.byte	0x3
 6901 18d2 00000000 		.4byte	ackno
 6902 18d6 36       		.uleb128 0x36
 6903 18d7 8D000000 		.4byte	.LASF30
 6904 18db 01       		.byte	0x1
 6905 18dc 42       		.byte	0x42
 6906 18dd C8000000 		.4byte	0xc8
 6907 18e1 05       		.byte	0x5
 6908 18e2 03       		.byte	0x3
 6909 18e3 00000000 		.4byte	flags
 6910 18e7 36       		.uleb128 0x36
 6911 18e8 98040000 		.4byte	.LASF199
 6912 18ec 01       		.byte	0x1
 6913 18ed 43       		.byte	0x43
 6914 18ee DE000000 		.4byte	0xde
 6915 18f2 05       		.byte	0x5
 6916 18f3 03       		.byte	0x3
 6917 18f4 00000000 		.4byte	tcplen
 6918 18f8 36       		.uleb128 0x36
 6919 18f9 B3060000 		.4byte	.LASF200
 6920 18fd 01       		.byte	0x1
 6921 18fe 45       		.byte	0x45
 6922 18ff C8000000 		.4byte	0xc8
 6923 1903 05       		.byte	0x5
 6924 1904 03       		.byte	0x3
 6925 1905 00000000 		.4byte	recv_flags
 6926 1909 36       		.uleb128 0x36
 6927 190a 92080000 		.4byte	.LASF201
 6928 190e 01       		.byte	0x1
 6929 190f 46       		.byte	0x46
 6930 1910 8F010000 		.4byte	0x18f
 6931 1914 05       		.byte	0x5
 6932 1915 03       		.byte	0x3
 6933 1916 00000000 		.4byte	recv_data
 6934 191a 37       		.uleb128 0x37
 6935 191b 77020000 		.4byte	.LASF202
 6936 191f 09       		.byte	0x9
 6937 1920 AA       		.byte	0xaa
 6938 1921 CB010000 		.4byte	0x1cb
 6939 1925 01       		.byte	0x1
 6940 1926 01       		.byte	0x1
 6941 1927 37       		.uleb128 0x37
 6942 1928 E3090000 		.4byte	.LASF203
 6943 192c 09       		.byte	0x9
 6944 192d AC       		.byte	0xac
 6945 192e CB010000 		.4byte	0x1cb
 6946 1932 01       		.byte	0x1
 6947 1933 01       		.byte	0x1
ARM GAS  C:\Users\jenny\AppData\Local\Temp\ccsinKfR.s 			page 123


 6948 1934 38       		.uleb128 0x38
 6949 1935 57050000 		.4byte	.LASF204
 6950 1939 01       		.byte	0x1
 6951 193a 48       		.byte	0x48
 6952 193b 18040000 		.4byte	0x418
 6953 193f 01       		.byte	0x1
 6954 1940 05       		.byte	0x5
 6955 1941 03       		.byte	0x3
 6956 1942 00000000 		.4byte	tcp_input_pcb
 6957 1946 39       		.uleb128 0x39
 6958 1947 88080000 		.4byte	.LASF205
 6959 194b 0B       		.byte	0xb
 6960 194c 3301     		.2byte	0x133
 6961 194e F4000000 		.4byte	0xf4
 6962 1952 01       		.byte	0x1
 6963 1953 01       		.byte	0x1
 6964 1954 39       		.uleb128 0x39
 6965 1955 EF010000 		.4byte	.LASF206
 6966 1959 0B       		.byte	0xb
 6967 195a 3401     		.2byte	0x134
 6968 195c C8000000 		.4byte	0xc8
 6969 1960 01       		.byte	0x1
 6970 1961 01       		.byte	0x1
 6971 1962 39       		.uleb128 0x39
 6972 1963 D5050000 		.4byte	.LASF207
 6973 1967 0B       		.byte	0xb
 6974 1968 3C01     		.2byte	0x13c
 6975 196a DE090000 		.4byte	0x9de
 6976 196e 01       		.byte	0x1
 6977 196f 01       		.byte	0x1
 6978 1970 39       		.uleb128 0x39
 6979 1971 FF030000 		.4byte	.LASF208
 6980 1975 0B       		.byte	0xb
 6981 1976 3D01     		.2byte	0x13d
 6982 1978 18040000 		.4byte	0x418
 6983 197c 01       		.byte	0x1
 6984 197d 01       		.byte	0x1
 6985 197e 39       		.uleb128 0x39
 6986 197f 000A0000 		.4byte	.LASF209
 6987 1983 0B       		.byte	0xb
 6988 1984 4001     		.2byte	0x140
 6989 1986 18040000 		.4byte	0x418
 6990 198a 01       		.byte	0x1
 6991 198b 01       		.byte	0x1
 6992 198c 39       		.uleb128 0x39
 6993 198d 37030000 		.4byte	.LASF210
 6994 1991 0B       		.byte	0xb
 6995 1992 4201     		.2byte	0x142
 6996 1994 18040000 		.4byte	0x418
 6997 1998 01       		.byte	0x1
 6998 1999 01       		.byte	0x1
 6999 199a 37       		.uleb128 0x37
 7000 199b 68010000 		.4byte	.LASF211
 7001 199f 0D       		.byte	0xd
 7002 19a0 95       		.byte	0x95
 7003 19a1 E70B0000 		.4byte	0xbe7
 7004 19a5 01       		.byte	0x1
ARM GAS  C:\Users\jenny\AppData\Local\Temp\ccsinKfR.s 			page 124


 7005 19a6 01       		.byte	0x1
 7006 19a7 3A       		.uleb128 0x3a
 7007 19a8 01       		.byte	0x1
 7008 19a9 C4060000 		.4byte	.LASF212
 7009 19ad 0E       		.byte	0xe
 7010 19ae 64       		.byte	0x64
 7011 19af 01       		.byte	0x1
 7012 19b0 DE000000 		.4byte	0xde
 7013 19b4 01       		.byte	0x1
 7014 19b5 BF190000 		.4byte	0x19bf
 7015 19b9 0B       		.uleb128 0xb
 7016 19ba DE000000 		.4byte	0xde
 7017 19be 00       		.byte	0
 7018 19bf 3B       		.uleb128 0x3b
 7019 19c0 01       		.byte	0x1
 7020 19c1 9E060000 		.4byte	.LASF214
 7021 19c5 0B       		.byte	0xb
 7022 19c6 A401     		.2byte	0x1a4
 7023 19c8 01       		.byte	0x1
 7024 19c9 01       		.byte	0x1
 7025 19ca D4190000 		.4byte	0x19d4
 7026 19ce 0B       		.uleb128 0xb
 7027 19cf 9C080000 		.4byte	0x89c
 7028 19d3 00       		.byte	0
 7029 19d4 3A       		.uleb128 0x3a
 7030 19d5 01       		.byte	0x1
 7031 19d6 40010000 		.4byte	.LASF213
 7032 19da 0E       		.byte	0xe
 7033 19db 63       		.byte	0x63
 7034 19dc 01       		.byte	0x1
 7035 19dd DE000000 		.4byte	0xde
 7036 19e1 01       		.byte	0x1
 7037 19e2 EC190000 		.4byte	0x19ec
 7038 19e6 0B       		.uleb128 0xb
 7039 19e7 DE000000 		.4byte	0xde
 7040 19eb 00       		.byte	0
 7041 19ec 3C       		.uleb128 0x3c
 7042 19ed 01       		.byte	0x1
 7043 19ee 4E040000 		.4byte	.LASF215
 7044 19f2 06       		.byte	0x6
 7045 19f3 98       		.byte	0x98
 7046 19f4 01       		.byte	0x1
 7047 19f5 01       		.byte	0x1
 7048 19f6 051A0000 		.4byte	0x1a05
 7049 19fa 0B       		.uleb128 0xb
 7050 19fb 8F010000 		.4byte	0x18f
 7051 19ff 0B       		.uleb128 0xb
 7052 1a00 DE000000 		.4byte	0xde
 7053 1a04 00       		.byte	0
 7054 1a05 3B       		.uleb128 0x3b
 7055 1a06 01       		.byte	0x1
 7056 1a07 370A0000 		.4byte	.LASF216
 7057 1a0b 0B       		.byte	0xb
 7058 1a0c A301     		.2byte	0x1a3
 7059 1a0e 01       		.byte	0x1
 7060 1a0f 01       		.byte	0x1
 7061 1a10 1A1A0000 		.4byte	0x1a1a
ARM GAS  C:\Users\jenny\AppData\Local\Temp\ccsinKfR.s 			page 125


 7062 1a14 0B       		.uleb128 0xb
 7063 1a15 9C080000 		.4byte	0x89c
 7064 1a19 00       		.byte	0
 7065 1a1a 3A       		.uleb128 0x3a
 7066 1a1b 01       		.byte	0x1
 7067 1a1c EC000000 		.4byte	.LASF217
 7068 1a20 0E       		.byte	0xe
 7069 1a21 66       		.byte	0x66
 7070 1a22 01       		.byte	0x1
 7071 1a23 F4000000 		.4byte	0xf4
 7072 1a27 01       		.byte	0x1
 7073 1a28 321A0000 		.4byte	0x1a32
 7074 1a2c 0B       		.uleb128 0xb
 7075 1a2d F4000000 		.4byte	0xf4
 7076 1a31 00       		.byte	0
 7077 1a32 3A       		.uleb128 0x3a
 7078 1a33 01       		.byte	0x1
 7079 1a34 D5030000 		.4byte	.LASF218
 7080 1a38 06       		.byte	0x6
 7081 1a39 9C       		.byte	0x9c
 7082 1a3a 01       		.byte	0x1
 7083 1a3b C8000000 		.4byte	0xc8
 7084 1a3f 01       		.byte	0x1
 7085 1a40 4A1A0000 		.4byte	0x1a4a
 7086 1a44 0B       		.uleb128 0xb
 7087 1a45 8F010000 		.4byte	0x18f
 7088 1a49 00       		.byte	0
 7089 1a4a 3A       		.uleb128 0x3a
 7090 1a4b 01       		.byte	0x1
 7091 1a4c 52070000 		.4byte	.LASF219
 7092 1a50 0B       		.byte	0xb
 7093 1a51 44       		.byte	0x44
 7094 1a52 01       		.byte	0x1
 7095 1a53 15010000 		.4byte	0x115
 7096 1a57 01       		.byte	0x1
 7097 1a58 621A0000 		.4byte	0x1a62
 7098 1a5c 0B       		.uleb128 0xb
 7099 1a5d 18040000 		.4byte	0x418
 7100 1a61 00       		.byte	0
 7101 1a62 3D       		.uleb128 0x3d
 7102 1a63 01       		.byte	0x1
 7103 1a64 4F090000 		.4byte	.LASF230
 7104 1a68 0F       		.byte	0xf
 7105 1a69 0102     		.2byte	0x201
 7106 1a6b 01       		.byte	0x1
 7107 1a6c 01       		.byte	0x1
 7108 1a6d 3E       		.uleb128 0x3e
 7109 1a6e 01       		.byte	0x1
 7110 1a6f BC040000 		.4byte	.LASF220
 7111 1a73 0B       		.byte	0xb
 7112 1a74 A501     		.2byte	0x1a5
 7113 1a76 01       		.byte	0x1
 7114 1a77 9C080000 		.4byte	0x89c
 7115 1a7b 01       		.byte	0x1
 7116 1a7c 861A0000 		.4byte	0x1a86
 7117 1a80 0B       		.uleb128 0xb
 7118 1a81 9C080000 		.4byte	0x89c
ARM GAS  C:\Users\jenny\AppData\Local\Temp\ccsinKfR.s 			page 126


 7119 1a85 00       		.byte	0
 7120 1a86 3A       		.uleb128 0x3a
 7121 1a87 01       		.byte	0x1
 7122 1a88 42040000 		.4byte	.LASF221
 7123 1a8c 06       		.byte	0x6
 7124 1a8d 99       		.byte	0x99
 7125 1a8e 01       		.byte	0x1
 7126 1a8f C8000000 		.4byte	0xc8
 7127 1a93 01       		.byte	0x1
 7128 1a94 A31A0000 		.4byte	0x1aa3
 7129 1a98 0B       		.uleb128 0xb
 7130 1a99 8F010000 		.4byte	0x18f
 7131 1a9d 0B       		.uleb128 0xb
 7132 1a9e E9000000 		.4byte	0xe9
 7133 1aa2 00       		.byte	0
 7134 1aa3 3A       		.uleb128 0x3a
 7135 1aa4 01       		.byte	0x1
 7136 1aa5 92050000 		.4byte	.LASF222
 7137 1aa9 0B       		.byte	0xb
 7138 1aaa 48       		.byte	0x48
 7139 1aab 01       		.byte	0x1
 7140 1aac F4000000 		.4byte	0xf4
 7141 1ab0 01       		.byte	0x1
 7142 1ab1 BB1A0000 		.4byte	0x1abb
 7143 1ab5 0B       		.uleb128 0xb
 7144 1ab6 18040000 		.4byte	0x418
 7145 1aba 00       		.byte	0
 7146 1abb 3C       		.uleb128 0x3c
 7147 1abc 01       		.byte	0x1
 7148 1abd 4F0A0000 		.4byte	.LASF223
 7149 1ac1 06       		.byte	0x6
 7150 1ac2 9D       		.byte	0x9d
 7151 1ac3 01       		.byte	0x1
 7152 1ac4 01       		.byte	0x1
 7153 1ac5 D41A0000 		.4byte	0x1ad4
 7154 1ac9 0B       		.uleb128 0xb
 7155 1aca 8F010000 		.4byte	0x18f
 7156 1ace 0B       		.uleb128 0xb
 7157 1acf 8F010000 		.4byte	0x18f
 7158 1ad3 00       		.byte	0
 7159 1ad4 3C       		.uleb128 0x3c
 7160 1ad5 01       		.byte	0x1
 7161 1ad6 180A0000 		.4byte	.LASF224
 7162 1ada 0B       		.byte	0xb
 7163 1adb 47       		.byte	0x47
 7164 1adc 01       		.byte	0x1
 7165 1add 01       		.byte	0x1
 7166 1ade E81A0000 		.4byte	0x1ae8
 7167 1ae2 0B       		.uleb128 0xb
 7168 1ae3 18040000 		.4byte	0x418
 7169 1ae7 00       		.byte	0
 7170 1ae8 3E       		.uleb128 0x3e
 7171 1ae9 01       		.byte	0x1
 7172 1aea 17040000 		.4byte	.LASF225
 7173 1aee 0A       		.byte	0xa
 7174 1aef 6F01     		.2byte	0x16f
 7175 1af1 01       		.byte	0x1
ARM GAS  C:\Users\jenny\AppData\Local\Temp\ccsinKfR.s 			page 127


 7176 1af2 15010000 		.4byte	0x115
 7177 1af6 01       		.byte	0x1
 7178 1af7 011B0000 		.4byte	0x1b01
 7179 1afb 0B       		.uleb128 0xb
 7180 1afc 18040000 		.4byte	0x418
 7181 1b00 00       		.byte	0
 7182 1b01 3B       		.uleb128 0x3b
 7183 1b02 01       		.byte	0x1
 7184 1b03 AB060000 		.4byte	.LASF226
 7185 1b07 0B       		.byte	0xb
 7186 1b08 BC01     		.2byte	0x1bc
 7187 1b0a 01       		.byte	0x1
 7188 1b0b 01       		.byte	0x1
 7189 1b0c 2F1B0000 		.4byte	0x1b2f
 7190 1b10 0B       		.uleb128 0xb
 7191 1b11 F4000000 		.4byte	0xf4
 7192 1b15 0B       		.uleb128 0xb
 7193 1b16 F4000000 		.4byte	0xf4
 7194 1b1a 0B       		.uleb128 0xb
 7195 1b1b 08030000 		.4byte	0x308
 7196 1b1f 0B       		.uleb128 0xb
 7197 1b20 08030000 		.4byte	0x308
 7198 1b24 0B       		.uleb128 0xb
 7199 1b25 DE000000 		.4byte	0xde
 7200 1b29 0B       		.uleb128 0xb
 7201 1b2a DE000000 		.4byte	0xde
 7202 1b2e 00       		.byte	0
 7203 1b2f 3B       		.uleb128 0x3b
 7204 1b30 01       		.byte	0x1
 7205 1b31 43030000 		.4byte	.LASF227
 7206 1b35 0B       		.byte	0xb
 7207 1b36 A001     		.2byte	0x1a0
 7208 1b38 01       		.byte	0x1
 7209 1b39 01       		.byte	0x1
 7210 1b3a 441B0000 		.4byte	0x1b44
 7211 1b3e 0B       		.uleb128 0xb
 7212 1b3f 18040000 		.4byte	0x418
 7213 1b43 00       		.byte	0
 7214 1b44 3E       		.uleb128 0x3e
 7215 1b45 01       		.byte	0x1
 7216 1b46 77060000 		.4byte	.LASF228
 7217 1b4a 0B       		.byte	0xb
 7218 1b4b C601     		.2byte	0x1c6
 7219 1b4d 01       		.byte	0x1
 7220 1b4e DE000000 		.4byte	0xde
 7221 1b52 01       		.byte	0x1
 7222 1b53 621B0000 		.4byte	0x1b62
 7223 1b57 0B       		.uleb128 0xb
 7224 1b58 DE000000 		.4byte	0xde
 7225 1b5c 0B       		.uleb128 0xb
 7226 1b5d 08030000 		.4byte	0x308
 7227 1b61 00       		.byte	0
 7228 1b62 3C       		.uleb128 0x3c
 7229 1b63 01       		.byte	0x1
 7230 1b64 D1000000 		.4byte	.LASF229
 7231 1b68 0B       		.byte	0xb
 7232 1b69 45       		.byte	0x45
ARM GAS  C:\Users\jenny\AppData\Local\Temp\ccsinKfR.s 			page 128


 7233 1b6a 01       		.byte	0x1
 7234 1b6b 01       		.byte	0x1
 7235 1b6c 761B0000 		.4byte	0x1b76
 7236 1b70 0B       		.uleb128 0xb
 7237 1b71 18040000 		.4byte	0x418
 7238 1b75 00       		.byte	0
 7239 1b76 3D       		.uleb128 0x3d
 7240 1b77 01       		.byte	0x1
 7241 1b78 B8050000 		.4byte	.LASF231
 7242 1b7c 0B       		.byte	0xb
 7243 1b7d DD01     		.2byte	0x1dd
 7244 1b7f 01       		.byte	0x1
 7245 1b80 01       		.byte	0x1
 7246 1b81 3A       		.uleb128 0x3a
 7247 1b82 01       		.byte	0x1
 7248 1b83 5F0A0000 		.4byte	.LASF232
 7249 1b87 0B       		.byte	0xb
 7250 1b88 42       		.byte	0x42
 7251 1b89 01       		.byte	0x1
 7252 1b8a 18040000 		.4byte	0x418
 7253 1b8e 01       		.byte	0x1
 7254 1b8f 991B0000 		.4byte	0x1b99
 7255 1b93 0B       		.uleb128 0xb
 7256 1b94 C8000000 		.4byte	0xc8
 7257 1b98 00       		.byte	0
 7258 1b99 3E       		.uleb128 0x3e
 7259 1b9a 01       		.byte	0x1
 7260 1b9b 1E010000 		.4byte	.LASF233
 7261 1b9f 0B       		.byte	0xb
 7262 1ba0 B801     		.2byte	0x1b8
 7263 1ba2 01       		.byte	0x1
 7264 1ba3 15010000 		.4byte	0x115
 7265 1ba7 01       		.byte	0x1
 7266 1ba8 B71B0000 		.4byte	0x1bb7
 7267 1bac 0B       		.uleb128 0xb
 7268 1bad 18040000 		.4byte	0x418
 7269 1bb1 0B       		.uleb128 0xb
 7270 1bb2 C8000000 		.4byte	0xc8
 7271 1bb6 00       		.byte	0
 7272 1bb7 3C       		.uleb128 0x3c
 7273 1bb8 01       		.byte	0x1
 7274 1bb9 0C0A0000 		.4byte	.LASF234
 7275 1bbd 0B       		.byte	0xb
 7276 1bbe 43       		.byte	0x43
 7277 1bbf 01       		.byte	0x1
 7278 1bc0 01       		.byte	0x1
 7279 1bc1 D01B0000 		.4byte	0x1bd0
 7280 1bc5 0B       		.uleb128 0xb
 7281 1bc6 18040000 		.4byte	0x418
 7282 1bca 0B       		.uleb128 0xb
 7283 1bcb 29000000 		.4byte	0x29
 7284 1bcf 00       		.byte	0
 7285 1bd0 3A       		.uleb128 0x3a
 7286 1bd1 01       		.byte	0x1
 7287 1bd2 00050000 		.4byte	.LASF235
 7288 1bd6 06       		.byte	0x6
 7289 1bd7 9B       		.byte	0x9b
ARM GAS  C:\Users\jenny\AppData\Local\Temp\ccsinKfR.s 			page 129


 7290 1bd8 01       		.byte	0x1
 7291 1bd9 C8000000 		.4byte	0xc8
 7292 1bdd 01       		.byte	0x1
 7293 1bde E81B0000 		.4byte	0x1be8
 7294 1be2 0B       		.uleb128 0xb
 7295 1be3 8F010000 		.4byte	0x18f
 7296 1be7 00       		.byte	0
 7297 1be8 3A       		.uleb128 0x3a
 7298 1be9 01       		.byte	0x1
 7299 1bea DF030000 		.4byte	.LASF236
 7300 1bee 07       		.byte	0x7
 7301 1bef CB       		.byte	0xcb
 7302 1bf0 01       		.byte	0x1
 7303 1bf1 C8000000 		.4byte	0xc8
 7304 1bf5 01       		.byte	0x1
 7305 1bf6 051C0000 		.4byte	0x1c05
 7306 1bfa 0B       		.uleb128 0xb
 7307 1bfb F4000000 		.4byte	0xf4
 7308 1bff 0B       		.uleb128 0xb
 7309 1c00 051C0000 		.4byte	0x1c05
 7310 1c04 00       		.byte	0
 7311 1c05 09       		.uleb128 0x9
 7312 1c06 04       		.byte	0x4
 7313 1c07 0B1C0000 		.4byte	0x1c0b
 7314 1c0b 3F       		.uleb128 0x3f
 7315 1c0c E7010000 		.4byte	0x1e7
 7316 1c10 3A       		.uleb128 0x3a
 7317 1c11 01       		.byte	0x1
 7318 1c12 F4060000 		.4byte	.LASF237
 7319 1c16 10       		.byte	0x10
 7320 1c17 4B       		.byte	0x4b
 7321 1c18 01       		.byte	0x1
 7322 1c19 DE000000 		.4byte	0xde
 7323 1c1d 01       		.byte	0x1
 7324 1c1e 3C1C0000 		.4byte	0x1c3c
 7325 1c22 0B       		.uleb128 0xb
 7326 1c23 8F010000 		.4byte	0x18f
 7327 1c27 0B       		.uleb128 0xb
 7328 1c28 08030000 		.4byte	0x308
 7329 1c2c 0B       		.uleb128 0xb
 7330 1c2d 08030000 		.4byte	0x308
 7331 1c31 0B       		.uleb128 0xb
 7332 1c32 C8000000 		.4byte	0xc8
 7333 1c36 0B       		.uleb128 0xb
 7334 1c37 DE000000 		.4byte	0xde
 7335 1c3b 00       		.byte	0
 7336 1c3c 3A       		.uleb128 0x3a
 7337 1c3d 01       		.byte	0x1
 7338 1c3e 5E000000 		.4byte	.LASF238
 7339 1c42 0B       		.byte	0xb
 7340 1c43 49       		.byte	0x49
 7341 1c44 01       		.byte	0x1
 7342 1c45 15010000 		.4byte	0x115
 7343 1c49 01       		.byte	0x1
 7344 1c4a 541C0000 		.4byte	0x1c54
 7345 1c4e 0B       		.uleb128 0xb
 7346 1c4f 18040000 		.4byte	0x418
ARM GAS  C:\Users\jenny\AppData\Local\Temp\ccsinKfR.s 			page 130


 7347 1c53 00       		.byte	0
 7348 1c54 3B       		.uleb128 0x3b
 7349 1c55 01       		.byte	0x1
 7350 1c56 9C010000 		.4byte	.LASF239
 7351 1c5a 0B       		.byte	0xb
 7352 1c5b A101     		.2byte	0x1a1
 7353 1c5d 01       		.byte	0x1
 7354 1c5e 01       		.byte	0x1
 7355 1c5f 6E1C0000 		.4byte	0x1c6e
 7356 1c63 0B       		.uleb128 0xb
 7357 1c64 6E1C0000 		.4byte	0x1c6e
 7358 1c68 0B       		.uleb128 0xb
 7359 1c69 18040000 		.4byte	0x418
 7360 1c6d 00       		.byte	0
 7361 1c6e 09       		.uleb128 0x9
 7362 1c6f 04       		.byte	0x4
 7363 1c70 18040000 		.4byte	0x418
 7364 1c74 3C       		.uleb128 0x3c
 7365 1c75 01       		.byte	0x1
 7366 1c76 95090000 		.4byte	.LASF240
 7367 1c7a 0C       		.byte	0xc
 7368 1c7b 6C       		.byte	0x6c
 7369 1c7c 01       		.byte	0x1
 7370 1c7d 01       		.byte	0x1
 7371 1c7e 8D1C0000 		.4byte	0x1c8d
 7372 1c82 0B       		.uleb128 0xb
 7373 1c83 670A0000 		.4byte	0xa67
 7374 1c87 0B       		.uleb128 0xb
 7375 1c88 B8000000 		.4byte	0xb8
 7376 1c8c 00       		.byte	0
 7377 1c8d 3E       		.uleb128 0x3e
 7378 1c8e 01       		.byte	0x1
 7379 1c8f 12050000 		.4byte	.LASF241
 7380 1c93 0B       		.byte	0xb
 7381 1c94 CA01     		.2byte	0x1ca
 7382 1c96 01       		.byte	0x1
 7383 1c97 15010000 		.4byte	0x115
 7384 1c9b 01       		.byte	0x1
 7385 1c9c B51C0000 		.4byte	0x1cb5
 7386 1ca0 0B       		.uleb128 0xb
 7387 1ca1 B8000000 		.4byte	0xb8
 7388 1ca5 0B       		.uleb128 0xb
 7389 1ca6 18040000 		.4byte	0x418
 7390 1caa 0B       		.uleb128 0xb
 7391 1cab 8F010000 		.4byte	0x18f
 7392 1caf 0B       		.uleb128 0xb
 7393 1cb0 15010000 		.4byte	0x115
 7394 1cb4 00       		.byte	0
 7395 1cb5 40       		.uleb128 0x40
 7396 1cb6 01       		.byte	0x1
 7397 1cb7 18060000 		.4byte	.LASF248
 7398 1cbb 0A       		.byte	0xa
 7399 1cbc 5E01     		.2byte	0x15e
 7400 1cbe 01       		.byte	0x1
 7401 1cbf 01       		.byte	0x1
 7402 1cc0 0B       		.uleb128 0xb
 7403 1cc1 18040000 		.4byte	0x418
ARM GAS  C:\Users\jenny\AppData\Local\Temp\ccsinKfR.s 			page 131


 7404 1cc5 00       		.byte	0
 7405 1cc6 00       		.byte	0
 7406              		.section	.debug_abbrev,"",%progbits
 7407              	.Ldebug_abbrev0:
 7408 0000 01       		.uleb128 0x1
 7409 0001 11       		.uleb128 0x11
 7410 0002 01       		.byte	0x1
 7411 0003 25       		.uleb128 0x25
 7412 0004 0E       		.uleb128 0xe
 7413 0005 13       		.uleb128 0x13
 7414 0006 0B       		.uleb128 0xb
 7415 0007 03       		.uleb128 0x3
 7416 0008 0E       		.uleb128 0xe
 7417 0009 1B       		.uleb128 0x1b
 7418 000a 0E       		.uleb128 0xe
 7419 000b 55       		.uleb128 0x55
 7420 000c 06       		.uleb128 0x6
 7421 000d 11       		.uleb128 0x11
 7422 000e 01       		.uleb128 0x1
 7423 000f 52       		.uleb128 0x52
 7424 0010 01       		.uleb128 0x1
 7425 0011 10       		.uleb128 0x10
 7426 0012 06       		.uleb128 0x6
 7427 0013 00       		.byte	0
 7428 0014 00       		.byte	0
 7429 0015 02       		.uleb128 0x2
 7430 0016 24       		.uleb128 0x24
 7431 0017 00       		.byte	0
 7432 0018 0B       		.uleb128 0xb
 7433 0019 0B       		.uleb128 0xb
 7434 001a 3E       		.uleb128 0x3e
 7435 001b 0B       		.uleb128 0xb
 7436 001c 03       		.uleb128 0x3
 7437 001d 08       		.uleb128 0x8
 7438 001e 00       		.byte	0
 7439 001f 00       		.byte	0
 7440 0020 03       		.uleb128 0x3
 7441 0021 24       		.uleb128 0x24
 7442 0022 00       		.byte	0
 7443 0023 0B       		.uleb128 0xb
 7444 0024 0B       		.uleb128 0xb
 7445 0025 3E       		.uleb128 0x3e
 7446 0026 0B       		.uleb128 0xb
 7447 0027 03       		.uleb128 0x3
 7448 0028 0E       		.uleb128 0xe
 7449 0029 00       		.byte	0
 7450 002a 00       		.byte	0
 7451 002b 04       		.uleb128 0x4
 7452 002c 16       		.uleb128 0x16
 7453 002d 00       		.byte	0
 7454 002e 03       		.uleb128 0x3
 7455 002f 0E       		.uleb128 0xe
 7456 0030 3A       		.uleb128 0x3a
 7457 0031 0B       		.uleb128 0xb
 7458 0032 3B       		.uleb128 0x3b
 7459 0033 0B       		.uleb128 0xb
 7460 0034 49       		.uleb128 0x49
ARM GAS  C:\Users\jenny\AppData\Local\Temp\ccsinKfR.s 			page 132


 7461 0035 13       		.uleb128 0x13
 7462 0036 00       		.byte	0
 7463 0037 00       		.byte	0
 7464 0038 05       		.uleb128 0x5
 7465 0039 0F       		.uleb128 0xf
 7466 003a 00       		.byte	0
 7467 003b 0B       		.uleb128 0xb
 7468 003c 0B       		.uleb128 0xb
 7469 003d 00       		.byte	0
 7470 003e 00       		.byte	0
 7471 003f 06       		.uleb128 0x6
 7472 0040 13       		.uleb128 0x13
 7473 0041 01       		.byte	0x1
 7474 0042 03       		.uleb128 0x3
 7475 0043 0E       		.uleb128 0xe
 7476 0044 0B       		.uleb128 0xb
 7477 0045 0B       		.uleb128 0xb
 7478 0046 3A       		.uleb128 0x3a
 7479 0047 0B       		.uleb128 0xb
 7480 0048 3B       		.uleb128 0x3b
 7481 0049 0B       		.uleb128 0xb
 7482 004a 01       		.uleb128 0x1
 7483 004b 13       		.uleb128 0x13
 7484 004c 00       		.byte	0
 7485 004d 00       		.byte	0
 7486 004e 07       		.uleb128 0x7
 7487 004f 0D       		.uleb128 0xd
 7488 0050 00       		.byte	0
 7489 0051 03       		.uleb128 0x3
 7490 0052 0E       		.uleb128 0xe
 7491 0053 3A       		.uleb128 0x3a
 7492 0054 0B       		.uleb128 0xb
 7493 0055 3B       		.uleb128 0x3b
 7494 0056 0B       		.uleb128 0xb
 7495 0057 49       		.uleb128 0x49
 7496 0058 13       		.uleb128 0x13
 7497 0059 38       		.uleb128 0x38
 7498 005a 0A       		.uleb128 0xa
 7499 005b 00       		.byte	0
 7500 005c 00       		.byte	0
 7501 005d 08       		.uleb128 0x8
 7502 005e 0D       		.uleb128 0xd
 7503 005f 00       		.byte	0
 7504 0060 03       		.uleb128 0x3
 7505 0061 08       		.uleb128 0x8
 7506 0062 3A       		.uleb128 0x3a
 7507 0063 0B       		.uleb128 0xb
 7508 0064 3B       		.uleb128 0x3b
 7509 0065 0B       		.uleb128 0xb
 7510 0066 49       		.uleb128 0x49
 7511 0067 13       		.uleb128 0x13
 7512 0068 38       		.uleb128 0x38
 7513 0069 0A       		.uleb128 0xa
 7514 006a 00       		.byte	0
 7515 006b 00       		.byte	0
 7516 006c 09       		.uleb128 0x9
 7517 006d 0F       		.uleb128 0xf
ARM GAS  C:\Users\jenny\AppData\Local\Temp\ccsinKfR.s 			page 133


 7518 006e 00       		.byte	0
 7519 006f 0B       		.uleb128 0xb
 7520 0070 0B       		.uleb128 0xb
 7521 0071 49       		.uleb128 0x49
 7522 0072 13       		.uleb128 0x13
 7523 0073 00       		.byte	0
 7524 0074 00       		.byte	0
 7525 0075 0A       		.uleb128 0xa
 7526 0076 15       		.uleb128 0x15
 7527 0077 01       		.byte	0x1
 7528 0078 27       		.uleb128 0x27
 7529 0079 0C       		.uleb128 0xc
 7530 007a 49       		.uleb128 0x49
 7531 007b 13       		.uleb128 0x13
 7532 007c 01       		.uleb128 0x1
 7533 007d 13       		.uleb128 0x13
 7534 007e 00       		.byte	0
 7535 007f 00       		.byte	0
 7536 0080 0B       		.uleb128 0xb
 7537 0081 05       		.uleb128 0x5
 7538 0082 00       		.byte	0
 7539 0083 49       		.uleb128 0x49
 7540 0084 13       		.uleb128 0x13
 7541 0085 00       		.byte	0
 7542 0086 00       		.byte	0
 7543 0087 0C       		.uleb128 0xc
 7544 0088 01       		.uleb128 0x1
 7545 0089 01       		.byte	0x1
 7546 008a 49       		.uleb128 0x49
 7547 008b 13       		.uleb128 0x13
 7548 008c 01       		.uleb128 0x1
 7549 008d 13       		.uleb128 0x13
 7550 008e 00       		.byte	0
 7551 008f 00       		.byte	0
 7552 0090 0D       		.uleb128 0xd
 7553 0091 21       		.uleb128 0x21
 7554 0092 00       		.byte	0
 7555 0093 49       		.uleb128 0x49
 7556 0094 13       		.uleb128 0x13
 7557 0095 2F       		.uleb128 0x2f
 7558 0096 0B       		.uleb128 0xb
 7559 0097 00       		.byte	0
 7560 0098 00       		.byte	0
 7561 0099 0E       		.uleb128 0xe
 7562 009a 0D       		.uleb128 0xd
 7563 009b 00       		.byte	0
 7564 009c 03       		.uleb128 0x3
 7565 009d 0E       		.uleb128 0xe
 7566 009e 3A       		.uleb128 0x3a
 7567 009f 0B       		.uleb128 0xb
 7568 00a0 3B       		.uleb128 0x3b
 7569 00a1 05       		.uleb128 0x5
 7570 00a2 49       		.uleb128 0x49
 7571 00a3 13       		.uleb128 0x13
 7572 00a4 38       		.uleb128 0x38
 7573 00a5 0A       		.uleb128 0xa
 7574 00a6 00       		.byte	0
ARM GAS  C:\Users\jenny\AppData\Local\Temp\ccsinKfR.s 			page 134


 7575 00a7 00       		.byte	0
 7576 00a8 0F       		.uleb128 0xf
 7577 00a9 15       		.uleb128 0x15
 7578 00aa 01       		.byte	0x1
 7579 00ab 27       		.uleb128 0x27
 7580 00ac 0C       		.uleb128 0xc
 7581 00ad 01       		.uleb128 0x1
 7582 00ae 13       		.uleb128 0x13
 7583 00af 00       		.byte	0
 7584 00b0 00       		.byte	0
 7585 00b1 10       		.uleb128 0x10
 7586 00b2 04       		.uleb128 0x4
 7587 00b3 01       		.byte	0x1
 7588 00b4 03       		.uleb128 0x3
 7589 00b5 0E       		.uleb128 0xe
 7590 00b6 0B       		.uleb128 0xb
 7591 00b7 0B       		.uleb128 0xb
 7592 00b8 3A       		.uleb128 0x3a
 7593 00b9 0B       		.uleb128 0xb
 7594 00ba 3B       		.uleb128 0x3b
 7595 00bb 0B       		.uleb128 0xb
 7596 00bc 01       		.uleb128 0x1
 7597 00bd 13       		.uleb128 0x13
 7598 00be 00       		.byte	0
 7599 00bf 00       		.byte	0
 7600 00c0 11       		.uleb128 0x11
 7601 00c1 28       		.uleb128 0x28
 7602 00c2 00       		.byte	0
 7603 00c3 03       		.uleb128 0x3
 7604 00c4 0E       		.uleb128 0xe
 7605 00c5 1C       		.uleb128 0x1c
 7606 00c6 0D       		.uleb128 0xd
 7607 00c7 00       		.byte	0
 7608 00c8 00       		.byte	0
 7609 00c9 12       		.uleb128 0x12
 7610 00ca 13       		.uleb128 0x13
 7611 00cb 01       		.byte	0x1
 7612 00cc 03       		.uleb128 0x3
 7613 00cd 0E       		.uleb128 0xe
 7614 00ce 0B       		.uleb128 0xb
 7615 00cf 0B       		.uleb128 0xb
 7616 00d0 3A       		.uleb128 0x3a
 7617 00d1 0B       		.uleb128 0xb
 7618 00d2 3B       		.uleb128 0x3b
 7619 00d3 05       		.uleb128 0x5
 7620 00d4 01       		.uleb128 0x1
 7621 00d5 13       		.uleb128 0x13
 7622 00d6 00       		.byte	0
 7623 00d7 00       		.byte	0
 7624 00d8 13       		.uleb128 0x13
 7625 00d9 0D       		.uleb128 0xd
 7626 00da 00       		.byte	0
 7627 00db 03       		.uleb128 0x3
 7628 00dc 08       		.uleb128 0x8
 7629 00dd 3A       		.uleb128 0x3a
 7630 00de 0B       		.uleb128 0xb
 7631 00df 3B       		.uleb128 0x3b
ARM GAS  C:\Users\jenny\AppData\Local\Temp\ccsinKfR.s 			page 135


 7632 00e0 05       		.uleb128 0x5
 7633 00e1 49       		.uleb128 0x49
 7634 00e2 13       		.uleb128 0x13
 7635 00e3 38       		.uleb128 0x38
 7636 00e4 0A       		.uleb128 0xa
 7637 00e5 00       		.byte	0
 7638 00e6 00       		.byte	0
 7639 00e7 14       		.uleb128 0x14
 7640 00e8 17       		.uleb128 0x17
 7641 00e9 01       		.byte	0x1
 7642 00ea 03       		.uleb128 0x3
 7643 00eb 0E       		.uleb128 0xe
 7644 00ec 0B       		.uleb128 0xb
 7645 00ed 0B       		.uleb128 0xb
 7646 00ee 3A       		.uleb128 0x3a
 7647 00ef 0B       		.uleb128 0xb
 7648 00f0 3B       		.uleb128 0x3b
 7649 00f1 05       		.uleb128 0x5
 7650 00f2 01       		.uleb128 0x1
 7651 00f3 13       		.uleb128 0x13
 7652 00f4 00       		.byte	0
 7653 00f5 00       		.byte	0
 7654 00f6 15       		.uleb128 0x15
 7655 00f7 0D       		.uleb128 0xd
 7656 00f8 00       		.byte	0
 7657 00f9 03       		.uleb128 0x3
 7658 00fa 0E       		.uleb128 0xe
 7659 00fb 3A       		.uleb128 0x3a
 7660 00fc 0B       		.uleb128 0xb
 7661 00fd 3B       		.uleb128 0x3b
 7662 00fe 05       		.uleb128 0x5
 7663 00ff 49       		.uleb128 0x49
 7664 0100 13       		.uleb128 0x13
 7665 0101 00       		.byte	0
 7666 0102 00       		.byte	0
 7667 0103 16       		.uleb128 0x16
 7668 0104 04       		.uleb128 0x4
 7669 0105 01       		.byte	0x1
 7670 0106 0B       		.uleb128 0xb
 7671 0107 0B       		.uleb128 0xb
 7672 0108 3A       		.uleb128 0x3a
 7673 0109 0B       		.uleb128 0xb
 7674 010a 3B       		.uleb128 0x3b
 7675 010b 0B       		.uleb128 0xb
 7676 010c 01       		.uleb128 0x1
 7677 010d 13       		.uleb128 0x13
 7678 010e 00       		.byte	0
 7679 010f 00       		.byte	0
 7680 0110 17       		.uleb128 0x17
 7681 0111 13       		.uleb128 0x13
 7682 0112 01       		.byte	0x1
 7683 0113 03       		.uleb128 0x3
 7684 0114 0E       		.uleb128 0xe
 7685 0115 0B       		.uleb128 0xb
 7686 0116 05       		.uleb128 0x5
 7687 0117 3A       		.uleb128 0x3a
 7688 0118 0B       		.uleb128 0xb
ARM GAS  C:\Users\jenny\AppData\Local\Temp\ccsinKfR.s 			page 136


 7689 0119 3B       		.uleb128 0x3b
 7690 011a 0B       		.uleb128 0xb
 7691 011b 01       		.uleb128 0x1
 7692 011c 13       		.uleb128 0x13
 7693 011d 00       		.byte	0
 7694 011e 00       		.byte	0
 7695 011f 18       		.uleb128 0x18
 7696 0120 2E       		.uleb128 0x2e
 7697 0121 01       		.byte	0x1
 7698 0122 03       		.uleb128 0x3
 7699 0123 0E       		.uleb128 0xe
 7700 0124 3A       		.uleb128 0x3a
 7701 0125 0B       		.uleb128 0xb
 7702 0126 3B       		.uleb128 0x3b
 7703 0127 05       		.uleb128 0x5
 7704 0128 27       		.uleb128 0x27
 7705 0129 0C       		.uleb128 0xc
 7706 012a 11       		.uleb128 0x11
 7707 012b 01       		.uleb128 0x1
 7708 012c 12       		.uleb128 0x12
 7709 012d 01       		.uleb128 0x1
 7710 012e 40       		.uleb128 0x40
 7711 012f 06       		.uleb128 0x6
 7712 0130 9742     		.uleb128 0x2117
 7713 0132 0C       		.uleb128 0xc
 7714 0133 01       		.uleb128 0x1
 7715 0134 13       		.uleb128 0x13
 7716 0135 00       		.byte	0
 7717 0136 00       		.byte	0
 7718 0137 19       		.uleb128 0x19
 7719 0138 05       		.uleb128 0x5
 7720 0139 00       		.byte	0
 7721 013a 03       		.uleb128 0x3
 7722 013b 08       		.uleb128 0x8
 7723 013c 3A       		.uleb128 0x3a
 7724 013d 0B       		.uleb128 0xb
 7725 013e 3B       		.uleb128 0x3b
 7726 013f 05       		.uleb128 0x5
 7727 0140 49       		.uleb128 0x49
 7728 0141 13       		.uleb128 0x13
 7729 0142 02       		.uleb128 0x2
 7730 0143 06       		.uleb128 0x6
 7731 0144 00       		.byte	0
 7732 0145 00       		.byte	0
 7733 0146 1A       		.uleb128 0x1a
 7734 0147 34       		.uleb128 0x34
 7735 0148 00       		.byte	0
 7736 0149 03       		.uleb128 0x3
 7737 014a 08       		.uleb128 0x8
 7738 014b 3A       		.uleb128 0x3a
 7739 014c 0B       		.uleb128 0xb
 7740 014d 3B       		.uleb128 0x3b
 7741 014e 05       		.uleb128 0x5
 7742 014f 49       		.uleb128 0x49
 7743 0150 13       		.uleb128 0x13
 7744 0151 02       		.uleb128 0x2
 7745 0152 06       		.uleb128 0x6
ARM GAS  C:\Users\jenny\AppData\Local\Temp\ccsinKfR.s 			page 137


 7746 0153 00       		.byte	0
 7747 0154 00       		.byte	0
 7748 0155 1B       		.uleb128 0x1b
 7749 0156 34       		.uleb128 0x34
 7750 0157 00       		.byte	0
 7751 0158 03       		.uleb128 0x3
 7752 0159 0E       		.uleb128 0xe
 7753 015a 3A       		.uleb128 0x3a
 7754 015b 0B       		.uleb128 0xb
 7755 015c 3B       		.uleb128 0x3b
 7756 015d 05       		.uleb128 0x5
 7757 015e 49       		.uleb128 0x49
 7758 015f 13       		.uleb128 0x13
 7759 0160 02       		.uleb128 0x2
 7760 0161 06       		.uleb128 0x6
 7761 0162 00       		.byte	0
 7762 0163 00       		.byte	0
 7763 0164 1C       		.uleb128 0x1c
 7764 0165 898201   		.uleb128 0x4109
 7765 0168 00       		.byte	0
 7766 0169 11       		.uleb128 0x11
 7767 016a 01       		.uleb128 0x1
 7768 016b 31       		.uleb128 0x31
 7769 016c 13       		.uleb128 0x13
 7770 016d 00       		.byte	0
 7771 016e 00       		.byte	0
 7772 016f 1D       		.uleb128 0x1d
 7773 0170 05       		.uleb128 0x5
 7774 0171 00       		.byte	0
 7775 0172 03       		.uleb128 0x3
 7776 0173 0E       		.uleb128 0xe
 7777 0174 3A       		.uleb128 0x3a
 7778 0175 0B       		.uleb128 0xb
 7779 0176 3B       		.uleb128 0x3b
 7780 0177 05       		.uleb128 0x5
 7781 0178 49       		.uleb128 0x49
 7782 0179 13       		.uleb128 0x13
 7783 017a 02       		.uleb128 0x2
 7784 017b 06       		.uleb128 0x6
 7785 017c 00       		.byte	0
 7786 017d 00       		.byte	0
 7787 017e 1E       		.uleb128 0x1e
 7788 017f 898201   		.uleb128 0x4109
 7789 0182 01       		.byte	0x1
 7790 0183 11       		.uleb128 0x11
 7791 0184 01       		.uleb128 0x1
 7792 0185 31       		.uleb128 0x31
 7793 0186 13       		.uleb128 0x13
 7794 0187 01       		.uleb128 0x1
 7795 0188 13       		.uleb128 0x13
 7796 0189 00       		.byte	0
 7797 018a 00       		.byte	0
 7798 018b 1F       		.uleb128 0x1f
 7799 018c 8A8201   		.uleb128 0x410a
 7800 018f 00       		.byte	0
 7801 0190 02       		.uleb128 0x2
 7802 0191 0A       		.uleb128 0xa
ARM GAS  C:\Users\jenny\AppData\Local\Temp\ccsinKfR.s 			page 138


 7803 0192 9142     		.uleb128 0x2111
 7804 0194 0A       		.uleb128 0xa
 7805 0195 00       		.byte	0
 7806 0196 00       		.byte	0
 7807 0197 20       		.uleb128 0x20
 7808 0198 898201   		.uleb128 0x4109
 7809 019b 01       		.byte	0x1
 7810 019c 11       		.uleb128 0x11
 7811 019d 01       		.uleb128 0x1
 7812 019e 31       		.uleb128 0x31
 7813 019f 13       		.uleb128 0x13
 7814 01a0 00       		.byte	0
 7815 01a1 00       		.byte	0
 7816 01a2 21       		.uleb128 0x21
 7817 01a3 0B       		.uleb128 0xb
 7818 01a4 01       		.byte	0x1
 7819 01a5 11       		.uleb128 0x11
 7820 01a6 01       		.uleb128 0x1
 7821 01a7 12       		.uleb128 0x12
 7822 01a8 01       		.uleb128 0x1
 7823 01a9 01       		.uleb128 0x1
 7824 01aa 13       		.uleb128 0x13
 7825 01ab 00       		.byte	0
 7826 01ac 00       		.byte	0
 7827 01ad 22       		.uleb128 0x22
 7828 01ae 898201   		.uleb128 0x4109
 7829 01b1 01       		.byte	0x1
 7830 01b2 11       		.uleb128 0x11
 7831 01b3 01       		.uleb128 0x1
 7832 01b4 9542     		.uleb128 0x2115
 7833 01b6 0C       		.uleb128 0xc
 7834 01b7 31       		.uleb128 0x31
 7835 01b8 13       		.uleb128 0x13
 7836 01b9 01       		.uleb128 0x1
 7837 01ba 13       		.uleb128 0x13
 7838 01bb 00       		.byte	0
 7839 01bc 00       		.byte	0
 7840 01bd 23       		.uleb128 0x23
 7841 01be 898201   		.uleb128 0x4109
 7842 01c1 00       		.byte	0
 7843 01c2 11       		.uleb128 0x11
 7844 01c3 01       		.uleb128 0x1
 7845 01c4 9542     		.uleb128 0x2115
 7846 01c6 0C       		.uleb128 0xc
 7847 01c7 31       		.uleb128 0x31
 7848 01c8 13       		.uleb128 0x13
 7849 01c9 00       		.byte	0
 7850 01ca 00       		.byte	0
 7851 01cb 24       		.uleb128 0x24
 7852 01cc 2E       		.uleb128 0x2e
 7853 01cd 01       		.byte	0x1
 7854 01ce 03       		.uleb128 0x3
 7855 01cf 0E       		.uleb128 0xe
 7856 01d0 3A       		.uleb128 0x3a
 7857 01d1 0B       		.uleb128 0xb
 7858 01d2 3B       		.uleb128 0x3b
 7859 01d3 05       		.uleb128 0x5
ARM GAS  C:\Users\jenny\AppData\Local\Temp\ccsinKfR.s 			page 139


 7860 01d4 27       		.uleb128 0x27
 7861 01d5 0C       		.uleb128 0xc
 7862 01d6 49       		.uleb128 0x49
 7863 01d7 13       		.uleb128 0x13
 7864 01d8 20       		.uleb128 0x20
 7865 01d9 0B       		.uleb128 0xb
 7866 01da 01       		.uleb128 0x1
 7867 01db 13       		.uleb128 0x13
 7868 01dc 00       		.byte	0
 7869 01dd 00       		.byte	0
 7870 01de 25       		.uleb128 0x25
 7871 01df 05       		.uleb128 0x5
 7872 01e0 00       		.byte	0
 7873 01e1 03       		.uleb128 0x3
 7874 01e2 08       		.uleb128 0x8
 7875 01e3 3A       		.uleb128 0x3a
 7876 01e4 0B       		.uleb128 0xb
 7877 01e5 3B       		.uleb128 0x3b
 7878 01e6 05       		.uleb128 0x5
 7879 01e7 49       		.uleb128 0x49
 7880 01e8 13       		.uleb128 0x13
 7881 01e9 00       		.byte	0
 7882 01ea 00       		.byte	0
 7883 01eb 26       		.uleb128 0x26
 7884 01ec 34       		.uleb128 0x34
 7885 01ed 00       		.byte	0
 7886 01ee 03       		.uleb128 0x3
 7887 01ef 0E       		.uleb128 0xe
 7888 01f0 3A       		.uleb128 0x3a
 7889 01f1 0B       		.uleb128 0xb
 7890 01f2 3B       		.uleb128 0x3b
 7891 01f3 05       		.uleb128 0x5
 7892 01f4 49       		.uleb128 0x49
 7893 01f5 13       		.uleb128 0x13
 7894 01f6 00       		.byte	0
 7895 01f7 00       		.byte	0
 7896 01f8 27       		.uleb128 0x27
 7897 01f9 34       		.uleb128 0x34
 7898 01fa 00       		.byte	0
 7899 01fb 03       		.uleb128 0x3
 7900 01fc 08       		.uleb128 0x8
 7901 01fd 3A       		.uleb128 0x3a
 7902 01fe 0B       		.uleb128 0xb
 7903 01ff 3B       		.uleb128 0x3b
 7904 0200 05       		.uleb128 0x5
 7905 0201 49       		.uleb128 0x49
 7906 0202 13       		.uleb128 0x13
 7907 0203 00       		.byte	0
 7908 0204 00       		.byte	0
 7909 0205 28       		.uleb128 0x28
 7910 0206 0B       		.uleb128 0xb
 7911 0207 01       		.byte	0x1
 7912 0208 00       		.byte	0
 7913 0209 00       		.byte	0
 7914 020a 29       		.uleb128 0x29
 7915 020b 2E       		.uleb128 0x2e
 7916 020c 01       		.byte	0x1
ARM GAS  C:\Users\jenny\AppData\Local\Temp\ccsinKfR.s 			page 140


 7917 020d 3F       		.uleb128 0x3f
 7918 020e 0C       		.uleb128 0xc
 7919 020f 03       		.uleb128 0x3
 7920 0210 0E       		.uleb128 0xe
 7921 0211 3A       		.uleb128 0x3a
 7922 0212 0B       		.uleb128 0xb
 7923 0213 3B       		.uleb128 0x3b
 7924 0214 0B       		.uleb128 0xb
 7925 0215 27       		.uleb128 0x27
 7926 0216 0C       		.uleb128 0xc
 7927 0217 11       		.uleb128 0x11
 7928 0218 01       		.uleb128 0x1
 7929 0219 12       		.uleb128 0x12
 7930 021a 01       		.uleb128 0x1
 7931 021b 40       		.uleb128 0x40
 7932 021c 06       		.uleb128 0x6
 7933 021d 9742     		.uleb128 0x2117
 7934 021f 0C       		.uleb128 0xc
 7935 0220 01       		.uleb128 0x1
 7936 0221 13       		.uleb128 0x13
 7937 0222 00       		.byte	0
 7938 0223 00       		.byte	0
 7939 0224 2A       		.uleb128 0x2a
 7940 0225 05       		.uleb128 0x5
 7941 0226 00       		.byte	0
 7942 0227 03       		.uleb128 0x3
 7943 0228 08       		.uleb128 0x8
 7944 0229 3A       		.uleb128 0x3a
 7945 022a 0B       		.uleb128 0xb
 7946 022b 3B       		.uleb128 0x3b
 7947 022c 0B       		.uleb128 0xb
 7948 022d 49       		.uleb128 0x49
 7949 022e 13       		.uleb128 0x13
 7950 022f 02       		.uleb128 0x2
 7951 0230 06       		.uleb128 0x6
 7952 0231 00       		.byte	0
 7953 0232 00       		.byte	0
 7954 0233 2B       		.uleb128 0x2b
 7955 0234 34       		.uleb128 0x34
 7956 0235 00       		.byte	0
 7957 0236 03       		.uleb128 0x3
 7958 0237 08       		.uleb128 0x8
 7959 0238 3A       		.uleb128 0x3a
 7960 0239 0B       		.uleb128 0xb
 7961 023a 3B       		.uleb128 0x3b
 7962 023b 0B       		.uleb128 0xb
 7963 023c 49       		.uleb128 0x49
 7964 023d 13       		.uleb128 0x13
 7965 023e 02       		.uleb128 0x2
 7966 023f 06       		.uleb128 0x6
 7967 0240 00       		.byte	0
 7968 0241 00       		.byte	0
 7969 0242 2C       		.uleb128 0x2c
 7970 0243 34       		.uleb128 0x34
 7971 0244 00       		.byte	0
 7972 0245 03       		.uleb128 0x3
 7973 0246 0E       		.uleb128 0xe
ARM GAS  C:\Users\jenny\AppData\Local\Temp\ccsinKfR.s 			page 141


 7974 0247 3A       		.uleb128 0x3a
 7975 0248 0B       		.uleb128 0xb
 7976 0249 3B       		.uleb128 0x3b
 7977 024a 0B       		.uleb128 0xb
 7978 024b 49       		.uleb128 0x49
 7979 024c 13       		.uleb128 0x13
 7980 024d 02       		.uleb128 0x2
 7981 024e 06       		.uleb128 0x6
 7982 024f 00       		.byte	0
 7983 0250 00       		.byte	0
 7984 0251 2D       		.uleb128 0x2d
 7985 0252 0A       		.uleb128 0xa
 7986 0253 00       		.byte	0
 7987 0254 03       		.uleb128 0x3
 7988 0255 0E       		.uleb128 0xe
 7989 0256 3A       		.uleb128 0x3a
 7990 0257 0B       		.uleb128 0xb
 7991 0258 3B       		.uleb128 0x3b
 7992 0259 05       		.uleb128 0x5
 7993 025a 11       		.uleb128 0x11
 7994 025b 01       		.uleb128 0x1
 7995 025c 00       		.byte	0
 7996 025d 00       		.byte	0
 7997 025e 2E       		.uleb128 0x2e
 7998 025f 1D       		.uleb128 0x1d
 7999 0260 01       		.byte	0x1
 8000 0261 31       		.uleb128 0x31
 8001 0262 13       		.uleb128 0x13
 8002 0263 52       		.uleb128 0x52
 8003 0264 01       		.uleb128 0x1
 8004 0265 55       		.uleb128 0x55
 8005 0266 06       		.uleb128 0x6
 8006 0267 58       		.uleb128 0x58
 8007 0268 0B       		.uleb128 0xb
 8008 0269 59       		.uleb128 0x59
 8009 026a 0B       		.uleb128 0xb
 8010 026b 01       		.uleb128 0x1
 8011 026c 13       		.uleb128 0x13
 8012 026d 00       		.byte	0
 8013 026e 00       		.byte	0
 8014 026f 2F       		.uleb128 0x2f
 8015 0270 05       		.uleb128 0x5
 8016 0271 00       		.byte	0
 8017 0272 31       		.uleb128 0x31
 8018 0273 13       		.uleb128 0x13
 8019 0274 02       		.uleb128 0x2
 8020 0275 06       		.uleb128 0x6
 8021 0276 00       		.byte	0
 8022 0277 00       		.byte	0
 8023 0278 30       		.uleb128 0x30
 8024 0279 1D       		.uleb128 0x1d
 8025 027a 01       		.byte	0x1
 8026 027b 31       		.uleb128 0x31
 8027 027c 13       		.uleb128 0x13
 8028 027d 52       		.uleb128 0x52
 8029 027e 01       		.uleb128 0x1
 8030 027f 55       		.uleb128 0x55
ARM GAS  C:\Users\jenny\AppData\Local\Temp\ccsinKfR.s 			page 142


 8031 0280 06       		.uleb128 0x6
 8032 0281 58       		.uleb128 0x58
 8033 0282 0B       		.uleb128 0xb
 8034 0283 59       		.uleb128 0x59
 8035 0284 05       		.uleb128 0x5
 8036 0285 01       		.uleb128 0x1
 8037 0286 13       		.uleb128 0x13
 8038 0287 00       		.byte	0
 8039 0288 00       		.byte	0
 8040 0289 31       		.uleb128 0x31
 8041 028a 0B       		.uleb128 0xb
 8042 028b 01       		.byte	0x1
 8043 028c 55       		.uleb128 0x55
 8044 028d 06       		.uleb128 0x6
 8045 028e 00       		.byte	0
 8046 028f 00       		.byte	0
 8047 0290 32       		.uleb128 0x32
 8048 0291 34       		.uleb128 0x34
 8049 0292 00       		.byte	0
 8050 0293 31       		.uleb128 0x31
 8051 0294 13       		.uleb128 0x13
 8052 0295 02       		.uleb128 0x2
 8053 0296 06       		.uleb128 0x6
 8054 0297 00       		.byte	0
 8055 0298 00       		.byte	0
 8056 0299 33       		.uleb128 0x33
 8057 029a 0B       		.uleb128 0xb
 8058 029b 01       		.byte	0x1
 8059 029c 55       		.uleb128 0x55
 8060 029d 06       		.uleb128 0x6
 8061 029e 01       		.uleb128 0x1
 8062 029f 13       		.uleb128 0x13
 8063 02a0 00       		.byte	0
 8064 02a1 00       		.byte	0
 8065 02a2 34       		.uleb128 0x34
 8066 02a3 898201   		.uleb128 0x4109
 8067 02a6 01       		.byte	0x1
 8068 02a7 11       		.uleb128 0x11
 8069 02a8 01       		.uleb128 0x1
 8070 02a9 01       		.uleb128 0x1
 8071 02aa 13       		.uleb128 0x13
 8072 02ab 00       		.byte	0
 8073 02ac 00       		.byte	0
 8074 02ad 35       		.uleb128 0x35
 8075 02ae 898201   		.uleb128 0x4109
 8076 02b1 01       		.byte	0x1
 8077 02b2 11       		.uleb128 0x11
 8078 02b3 01       		.uleb128 0x1
 8079 02b4 9342     		.uleb128 0x2113
 8080 02b6 0A       		.uleb128 0xa
 8081 02b7 01       		.uleb128 0x1
 8082 02b8 13       		.uleb128 0x13
 8083 02b9 00       		.byte	0
 8084 02ba 00       		.byte	0
 8085 02bb 36       		.uleb128 0x36
 8086 02bc 34       		.uleb128 0x34
 8087 02bd 00       		.byte	0
ARM GAS  C:\Users\jenny\AppData\Local\Temp\ccsinKfR.s 			page 143


 8088 02be 03       		.uleb128 0x3
 8089 02bf 0E       		.uleb128 0xe
 8090 02c0 3A       		.uleb128 0x3a
 8091 02c1 0B       		.uleb128 0xb
 8092 02c2 3B       		.uleb128 0x3b
 8093 02c3 0B       		.uleb128 0xb
 8094 02c4 49       		.uleb128 0x49
 8095 02c5 13       		.uleb128 0x13
 8096 02c6 02       		.uleb128 0x2
 8097 02c7 0A       		.uleb128 0xa
 8098 02c8 00       		.byte	0
 8099 02c9 00       		.byte	0
 8100 02ca 37       		.uleb128 0x37
 8101 02cb 34       		.uleb128 0x34
 8102 02cc 00       		.byte	0
 8103 02cd 03       		.uleb128 0x3
 8104 02ce 0E       		.uleb128 0xe
 8105 02cf 3A       		.uleb128 0x3a
 8106 02d0 0B       		.uleb128 0xb
 8107 02d1 3B       		.uleb128 0x3b
 8108 02d2 0B       		.uleb128 0xb
 8109 02d3 49       		.uleb128 0x49
 8110 02d4 13       		.uleb128 0x13
 8111 02d5 3F       		.uleb128 0x3f
 8112 02d6 0C       		.uleb128 0xc
 8113 02d7 3C       		.uleb128 0x3c
 8114 02d8 0C       		.uleb128 0xc
 8115 02d9 00       		.byte	0
 8116 02da 00       		.byte	0
 8117 02db 38       		.uleb128 0x38
 8118 02dc 34       		.uleb128 0x34
 8119 02dd 00       		.byte	0
 8120 02de 03       		.uleb128 0x3
 8121 02df 0E       		.uleb128 0xe
 8122 02e0 3A       		.uleb128 0x3a
 8123 02e1 0B       		.uleb128 0xb
 8124 02e2 3B       		.uleb128 0x3b
 8125 02e3 0B       		.uleb128 0xb
 8126 02e4 49       		.uleb128 0x49
 8127 02e5 13       		.uleb128 0x13
 8128 02e6 3F       		.uleb128 0x3f
 8129 02e7 0C       		.uleb128 0xc
 8130 02e8 02       		.uleb128 0x2
 8131 02e9 0A       		.uleb128 0xa
 8132 02ea 00       		.byte	0
 8133 02eb 00       		.byte	0
 8134 02ec 39       		.uleb128 0x39
 8135 02ed 34       		.uleb128 0x34
 8136 02ee 00       		.byte	0
 8137 02ef 03       		.uleb128 0x3
 8138 02f0 0E       		.uleb128 0xe
 8139 02f1 3A       		.uleb128 0x3a
 8140 02f2 0B       		.uleb128 0xb
 8141 02f3 3B       		.uleb128 0x3b
 8142 02f4 05       		.uleb128 0x5
 8143 02f5 49       		.uleb128 0x49
 8144 02f6 13       		.uleb128 0x13
ARM GAS  C:\Users\jenny\AppData\Local\Temp\ccsinKfR.s 			page 144


 8145 02f7 3F       		.uleb128 0x3f
 8146 02f8 0C       		.uleb128 0xc
 8147 02f9 3C       		.uleb128 0x3c
 8148 02fa 0C       		.uleb128 0xc
 8149 02fb 00       		.byte	0
 8150 02fc 00       		.byte	0
 8151 02fd 3A       		.uleb128 0x3a
 8152 02fe 2E       		.uleb128 0x2e
 8153 02ff 01       		.byte	0x1
 8154 0300 3F       		.uleb128 0x3f
 8155 0301 0C       		.uleb128 0xc
 8156 0302 03       		.uleb128 0x3
 8157 0303 0E       		.uleb128 0xe
 8158 0304 3A       		.uleb128 0x3a
 8159 0305 0B       		.uleb128 0xb
 8160 0306 3B       		.uleb128 0x3b
 8161 0307 0B       		.uleb128 0xb
 8162 0308 27       		.uleb128 0x27
 8163 0309 0C       		.uleb128 0xc
 8164 030a 49       		.uleb128 0x49
 8165 030b 13       		.uleb128 0x13
 8166 030c 3C       		.uleb128 0x3c
 8167 030d 0C       		.uleb128 0xc
 8168 030e 01       		.uleb128 0x1
 8169 030f 13       		.uleb128 0x13
 8170 0310 00       		.byte	0
 8171 0311 00       		.byte	0
 8172 0312 3B       		.uleb128 0x3b
 8173 0313 2E       		.uleb128 0x2e
 8174 0314 01       		.byte	0x1
 8175 0315 3F       		.uleb128 0x3f
 8176 0316 0C       		.uleb128 0xc
 8177 0317 03       		.uleb128 0x3
 8178 0318 0E       		.uleb128 0xe
 8179 0319 3A       		.uleb128 0x3a
 8180 031a 0B       		.uleb128 0xb
 8181 031b 3B       		.uleb128 0x3b
 8182 031c 05       		.uleb128 0x5
 8183 031d 27       		.uleb128 0x27
 8184 031e 0C       		.uleb128 0xc
 8185 031f 3C       		.uleb128 0x3c
 8186 0320 0C       		.uleb128 0xc
 8187 0321 01       		.uleb128 0x1
 8188 0322 13       		.uleb128 0x13
 8189 0323 00       		.byte	0
 8190 0324 00       		.byte	0
 8191 0325 3C       		.uleb128 0x3c
 8192 0326 2E       		.uleb128 0x2e
 8193 0327 01       		.byte	0x1
 8194 0328 3F       		.uleb128 0x3f
 8195 0329 0C       		.uleb128 0xc
 8196 032a 03       		.uleb128 0x3
 8197 032b 0E       		.uleb128 0xe
 8198 032c 3A       		.uleb128 0x3a
 8199 032d 0B       		.uleb128 0xb
 8200 032e 3B       		.uleb128 0x3b
 8201 032f 0B       		.uleb128 0xb
ARM GAS  C:\Users\jenny\AppData\Local\Temp\ccsinKfR.s 			page 145


 8202 0330 27       		.uleb128 0x27
 8203 0331 0C       		.uleb128 0xc
 8204 0332 3C       		.uleb128 0x3c
 8205 0333 0C       		.uleb128 0xc
 8206 0334 01       		.uleb128 0x1
 8207 0335 13       		.uleb128 0x13
 8208 0336 00       		.byte	0
 8209 0337 00       		.byte	0
 8210 0338 3D       		.uleb128 0x3d
 8211 0339 2E       		.uleb128 0x2e
 8212 033a 00       		.byte	0
 8213 033b 3F       		.uleb128 0x3f
 8214 033c 0C       		.uleb128 0xc
 8215 033d 03       		.uleb128 0x3
 8216 033e 0E       		.uleb128 0xe
 8217 033f 3A       		.uleb128 0x3a
 8218 0340 0B       		.uleb128 0xb
 8219 0341 3B       		.uleb128 0x3b
 8220 0342 05       		.uleb128 0x5
 8221 0343 27       		.uleb128 0x27
 8222 0344 0C       		.uleb128 0xc
 8223 0345 3C       		.uleb128 0x3c
 8224 0346 0C       		.uleb128 0xc
 8225 0347 00       		.byte	0
 8226 0348 00       		.byte	0
 8227 0349 3E       		.uleb128 0x3e
 8228 034a 2E       		.uleb128 0x2e
 8229 034b 01       		.byte	0x1
 8230 034c 3F       		.uleb128 0x3f
 8231 034d 0C       		.uleb128 0xc
 8232 034e 03       		.uleb128 0x3
 8233 034f 0E       		.uleb128 0xe
 8234 0350 3A       		.uleb128 0x3a
 8235 0351 0B       		.uleb128 0xb
 8236 0352 3B       		.uleb128 0x3b
 8237 0353 05       		.uleb128 0x5
 8238 0354 27       		.uleb128 0x27
 8239 0355 0C       		.uleb128 0xc
 8240 0356 49       		.uleb128 0x49
 8241 0357 13       		.uleb128 0x13
 8242 0358 3C       		.uleb128 0x3c
 8243 0359 0C       		.uleb128 0xc
 8244 035a 01       		.uleb128 0x1
 8245 035b 13       		.uleb128 0x13
 8246 035c 00       		.byte	0
 8247 035d 00       		.byte	0
 8248 035e 3F       		.uleb128 0x3f
 8249 035f 26       		.uleb128 0x26
 8250 0360 00       		.byte	0
 8251 0361 49       		.uleb128 0x49
 8252 0362 13       		.uleb128 0x13
 8253 0363 00       		.byte	0
 8254 0364 00       		.byte	0
 8255 0365 40       		.uleb128 0x40
 8256 0366 2E       		.uleb128 0x2e
 8257 0367 01       		.byte	0x1
 8258 0368 3F       		.uleb128 0x3f
ARM GAS  C:\Users\jenny\AppData\Local\Temp\ccsinKfR.s 			page 146


 8259 0369 0C       		.uleb128 0xc
 8260 036a 03       		.uleb128 0x3
 8261 036b 0E       		.uleb128 0xe
 8262 036c 3A       		.uleb128 0x3a
 8263 036d 0B       		.uleb128 0xb
 8264 036e 3B       		.uleb128 0x3b
 8265 036f 05       		.uleb128 0x5
 8266 0370 27       		.uleb128 0x27
 8267 0371 0C       		.uleb128 0xc
 8268 0372 3C       		.uleb128 0x3c
 8269 0373 0C       		.uleb128 0xc
 8270 0374 00       		.byte	0
 8271 0375 00       		.byte	0
 8272 0376 00       		.byte	0
 8273              		.section	.debug_loc,"",%progbits
 8274              	.Ldebug_loc0:
 8275              	.LLST0:
 8276 0000 00000000 		.4byte	.LFB13
 8277 0004 02000000 		.4byte	.LCFI0
 8278 0008 0200     		.2byte	0x2
 8279 000a 7D       		.byte	0x7d
 8280 000b 00       		.sleb128 0
 8281 000c 02000000 		.4byte	.LCFI0
 8282 0010 8C000000 		.4byte	.LFE13
 8283 0014 0200     		.2byte	0x2
 8284 0016 7D       		.byte	0x7d
 8285 0017 10       		.sleb128 16
 8286 0018 00000000 		.4byte	0
 8287 001c 00000000 		.4byte	0
 8288              	.LLST1:
 8289 0020 00000000 		.4byte	.LVL0
 8290 0024 0A000000 		.4byte	.LVL2
 8291 0028 0100     		.2byte	0x1
 8292 002a 50       		.byte	0x50
 8293 002b 0A000000 		.4byte	.LVL2
 8294 002f 8C000000 		.4byte	.LFE13
 8295 0033 0100     		.2byte	0x1
 8296 0035 56       		.byte	0x56
 8297 0036 00000000 		.4byte	0
 8298 003a 00000000 		.4byte	0
 8299              	.LLST2:
 8300 003e 28000000 		.4byte	.LVL7
 8301 0042 3C000000 		.4byte	.LVL10
 8302 0046 0200     		.2byte	0x2
 8303 0048 30       		.byte	0x30
 8304 0049 9F       		.byte	0x9f
 8305 004a 4E000000 		.4byte	.LVL11
 8306 004e 58000000 		.4byte	.LVL13
 8307 0052 0100     		.2byte	0x1
 8308 0054 53       		.byte	0x53
 8309 0055 5C000000 		.4byte	.LVL14
 8310 0059 5E000000 		.4byte	.LVL15
 8311 005d 0100     		.2byte	0x1
 8312 005f 52       		.byte	0x52
 8313 0060 86000000 		.4byte	.LVL19
 8314 0064 8C000000 		.4byte	.LFE13
 8315 0068 0100     		.2byte	0x1
ARM GAS  C:\Users\jenny\AppData\Local\Temp\ccsinKfR.s 			page 147


 8316 006a 53       		.byte	0x53
 8317 006b 00000000 		.4byte	0
 8318 006f 00000000 		.4byte	0
 8319              	.LLST3:
 8320 0073 28000000 		.4byte	.LVL7
 8321 0077 38000000 		.4byte	.LVL9
 8322 007b 0100     		.2byte	0x1
 8323 007d 52       		.byte	0x52
 8324 007e 38000000 		.4byte	.LVL9
 8325 0082 8C000000 		.4byte	.LFE13
 8326 0086 0100     		.2byte	0x1
 8327 0088 54       		.byte	0x54
 8328 0089 00000000 		.4byte	0
 8329 008d 00000000 		.4byte	0
 8330              	.LLST4:
 8331 0091 74000000 		.4byte	.LVL16
 8332 0095 80000000 		.4byte	.LVL17
 8333 0099 0100     		.2byte	0x1
 8334 009b 52       		.byte	0x52
 8335 009c 80000000 		.4byte	.LVL17
 8336 00a0 82000000 		.4byte	.LVL18
 8337 00a4 1C00     		.2byte	0x1c
 8338 00a6 71       		.byte	0x71
 8339 00a7 00       		.sleb128 0
 8340 00a8 73       		.byte	0x73
 8341 00a9 00       		.sleb128 0
 8342 00aa 22       		.byte	0x22
 8343 00ab 23       		.byte	0x23
 8344 00ac 02       		.uleb128 0x2
 8345 00ad 94       		.byte	0x94
 8346 00ae 01       		.byte	0x1
 8347 00af 08       		.byte	0x8
 8348 00b0 FF       		.byte	0xff
 8349 00b1 1A       		.byte	0x1a
 8350 00b2 38       		.byte	0x38
 8351 00b3 24       		.byte	0x24
 8352 00b4 71       		.byte	0x71
 8353 00b5 00       		.sleb128 0
 8354 00b6 73       		.byte	0x73
 8355 00b7 00       		.sleb128 0
 8356 00b8 22       		.byte	0x22
 8357 00b9 23       		.byte	0x23
 8358 00ba 03       		.uleb128 0x3
 8359 00bb 94       		.byte	0x94
 8360 00bc 01       		.byte	0x1
 8361 00bd 08       		.byte	0x8
 8362 00be FF       		.byte	0xff
 8363 00bf 1A       		.byte	0x1a
 8364 00c0 21       		.byte	0x21
 8365 00c1 9F       		.byte	0x9f
 8366 00c2 82000000 		.4byte	.LVL18
 8367 00c6 86000000 		.4byte	.LVL19
 8368 00ca 1C00     		.2byte	0x1c
 8369 00cc 71       		.byte	0x71
 8370 00cd 00       		.sleb128 0
 8371 00ce 73       		.byte	0x73
 8372 00cf 00       		.sleb128 0
ARM GAS  C:\Users\jenny\AppData\Local\Temp\ccsinKfR.s 			page 148


 8373 00d0 22       		.byte	0x22
 8374 00d1 32       		.byte	0x32
 8375 00d2 1C       		.byte	0x1c
 8376 00d3 94       		.byte	0x94
 8377 00d4 01       		.byte	0x1
 8378 00d5 08       		.byte	0x8
 8379 00d6 FF       		.byte	0xff
 8380 00d7 1A       		.byte	0x1a
 8381 00d8 38       		.byte	0x38
 8382 00d9 24       		.byte	0x24
 8383 00da 71       		.byte	0x71
 8384 00db 00       		.sleb128 0
 8385 00dc 73       		.byte	0x73
 8386 00dd 00       		.sleb128 0
 8387 00de 22       		.byte	0x22
 8388 00df 31       		.byte	0x31
 8389 00e0 1C       		.byte	0x1c
 8390 00e1 94       		.byte	0x94
 8391 00e2 01       		.byte	0x1
 8392 00e3 08       		.byte	0x8
 8393 00e4 FF       		.byte	0xff
 8394 00e5 1A       		.byte	0x1a
 8395 00e6 21       		.byte	0x21
 8396 00e7 9F       		.byte	0x9f
 8397 00e8 00000000 		.4byte	0
 8398 00ec 00000000 		.4byte	0
 8399              	.LLST5:
 8400 00f0 06000000 		.4byte	.LVL1
 8401 00f4 16000000 		.4byte	.LVL4
 8402 00f8 0300     		.2byte	0x3
 8403 00fa 75       		.byte	0x75
 8404 00fb 14       		.sleb128 20
 8405 00fc 9F       		.byte	0x9f
 8406 00fd 18000000 		.4byte	.LVL5
 8407 0101 3C000000 		.4byte	.LVL10
 8408 0105 0300     		.2byte	0x3
 8409 0107 75       		.byte	0x75
 8410 0108 14       		.sleb128 20
 8411 0109 9F       		.byte	0x9f
 8412 010a 3C000000 		.4byte	.LVL10
 8413 010e 8C000000 		.4byte	.LFE13
 8414 0112 0100     		.2byte	0x1
 8415 0114 51       		.byte	0x51
 8416 0115 00000000 		.4byte	0
 8417 0119 00000000 		.4byte	0
 8418              	.LLST6:
 8419 011d 36000000 		.4byte	.LVL8
 8420 0121 3C000000 		.4byte	.LVL10
 8421 0125 0500     		.2byte	0x5
 8422 0127 71       		.byte	0x71
 8423 0128 00       		.sleb128 0
 8424 0129 73       		.byte	0x73
 8425 012a 00       		.sleb128 0
 8426 012b 22       		.byte	0x22
 8427 012c 52000000 		.4byte	.LVL12
 8428 0130 58000000 		.4byte	.LVL13
 8429 0134 0500     		.2byte	0x5
ARM GAS  C:\Users\jenny\AppData\Local\Temp\ccsinKfR.s 			page 149


 8430 0136 71       		.byte	0x71
 8431 0137 00       		.sleb128 0
 8432 0138 73       		.byte	0x73
 8433 0139 00       		.sleb128 0
 8434 013a 22       		.byte	0x22
 8435 013b 00000000 		.4byte	0
 8436 013f 00000000 		.4byte	0
 8437              	.LLST7:
 8438 0143 00000000 		.4byte	.LFB11
 8439 0147 04000000 		.4byte	.LCFI1
 8440 014b 0200     		.2byte	0x2
 8441 014d 7D       		.byte	0x7d
 8442 014e 00       		.sleb128 0
 8443 014f 04000000 		.4byte	.LCFI1
 8444 0153 A8000000 		.4byte	.LFE11
 8445 0157 0200     		.2byte	0x2
 8446 0159 7D       		.byte	0x7d
 8447 015a 18       		.sleb128 24
 8448 015b 00000000 		.4byte	0
 8449 015f 00000000 		.4byte	0
 8450              	.LLST8:
 8451 0163 00000000 		.4byte	.LVL20
 8452 0167 0A000000 		.4byte	.LVL21
 8453 016b 0100     		.2byte	0x1
 8454 016d 50       		.byte	0x50
 8455 016e 0A000000 		.4byte	.LVL21
 8456 0172 A8000000 		.4byte	.LFE11
 8457 0176 0100     		.2byte	0x1
 8458 0178 57       		.byte	0x57
 8459 0179 00000000 		.4byte	0
 8460 017d 00000000 		.4byte	0
 8461              	.LLST9:
 8462 0181 00000000 		.4byte	.LVL20
 8463 0185 0F000000 		.4byte	.LVL22-1
 8464 0189 0100     		.2byte	0x1
 8465 018b 51       		.byte	0x51
 8466 018c 0F000000 		.4byte	.LVL22-1
 8467 0190 3A000000 		.4byte	.LVL24
 8468 0194 0100     		.2byte	0x1
 8469 0196 55       		.byte	0x55
 8470 0197 3A000000 		.4byte	.LVL24
 8471 019b 5A000000 		.4byte	.LVL26
 8472 019f 0100     		.2byte	0x1
 8473 01a1 54       		.byte	0x54
 8474 01a2 5A000000 		.4byte	.LVL26
 8475 01a6 74000000 		.4byte	.LVL30
 8476 01aa 0100     		.2byte	0x1
 8477 01ac 55       		.byte	0x55
 8478 01ad 74000000 		.4byte	.LVL30
 8479 01b1 7E000000 		.4byte	.LVL32
 8480 01b5 0100     		.2byte	0x1
 8481 01b7 54       		.byte	0x54
 8482 01b8 7E000000 		.4byte	.LVL32
 8483 01bc 80000000 		.4byte	.LVL33
 8484 01c0 0200     		.2byte	0x2
 8485 01c2 30       		.byte	0x30
 8486 01c3 9F       		.byte	0x9f
ARM GAS  C:\Users\jenny\AppData\Local\Temp\ccsinKfR.s 			page 150


 8487 01c4 80000000 		.4byte	.LVL33
 8488 01c8 86000000 		.4byte	.LVL34
 8489 01cc 0100     		.2byte	0x1
 8490 01ce 54       		.byte	0x54
 8491 01cf 96000000 		.4byte	.LVL35
 8492 01d3 9C000000 		.4byte	.LVL36
 8493 01d7 0100     		.2byte	0x1
 8494 01d9 54       		.byte	0x54
 8495 01da 9C000000 		.4byte	.LVL36
 8496 01de A8000000 		.4byte	.LFE11
 8497 01e2 0100     		.2byte	0x1
 8498 01e4 55       		.byte	0x55
 8499 01e5 00000000 		.4byte	0
 8500 01e9 00000000 		.4byte	0
 8501              	.LLST10:
 8502 01ed 38000000 		.4byte	.LVL23
 8503 01f1 5A000000 		.4byte	.LVL26
 8504 01f5 0100     		.2byte	0x1
 8505 01f7 55       		.byte	0x55
 8506 01f8 72000000 		.4byte	.LVL29
 8507 01fc 7E000000 		.4byte	.LVL32
 8508 0200 0100     		.2byte	0x1
 8509 0202 55       		.byte	0x55
 8510 0203 00000000 		.4byte	0
 8511 0207 00000000 		.4byte	0
 8512              	.LLST11:
 8513 020b 00000000 		.4byte	.LFB12
 8514 020f 04000000 		.4byte	.LCFI2
 8515 0213 0200     		.2byte	0x2
 8516 0215 7D       		.byte	0x7d
 8517 0216 00       		.sleb128 0
 8518 0217 04000000 		.4byte	.LCFI2
 8519 021b C2090000 		.4byte	.LFE12
 8520 021f 0200     		.2byte	0x2
 8521 0221 7D       		.byte	0x7d
 8522 0222 28       		.sleb128 40
 8523 0223 00000000 		.4byte	0
 8524 0227 00000000 		.4byte	0
 8525              	.LLST12:
 8526 022b 00000000 		.4byte	.LVL38
 8527 022f 0E000000 		.4byte	.LVL39
 8528 0233 0100     		.2byte	0x1
 8529 0235 50       		.byte	0x50
 8530 0236 0E000000 		.4byte	.LVL39
 8531 023a 5C000000 		.4byte	.LVL41
 8532 023e 0100     		.2byte	0x1
 8533 0240 54       		.byte	0x54
 8534 0241 5C000000 		.4byte	.LVL41
 8535 0245 60000000 		.4byte	.LVL42
 8536 0249 0400     		.2byte	0x4
 8537 024b F3       		.byte	0xf3
 8538 024c 01       		.uleb128 0x1
 8539 024d 50       		.byte	0x50
 8540 024e 9F       		.byte	0x9f
 8541 024f 60000000 		.4byte	.LVL42
 8542 0253 F6010000 		.4byte	.LVL66
 8543 0257 0100     		.2byte	0x1
ARM GAS  C:\Users\jenny\AppData\Local\Temp\ccsinKfR.s 			page 151


 8544 0259 54       		.byte	0x54
 8545 025a F6010000 		.4byte	.LVL66
 8546 025e F9010000 		.4byte	.LVL67-1
 8547 0262 0100     		.2byte	0x1
 8548 0264 50       		.byte	0x50
 8549 0265 F9010000 		.4byte	.LVL67-1
 8550 0269 1C080000 		.4byte	.LVL148
 8551 026d 0100     		.2byte	0x1
 8552 026f 54       		.byte	0x54
 8553 0270 1C080000 		.4byte	.LVL148
 8554 0274 4E080000 		.4byte	.LVL151
 8555 0278 0400     		.2byte	0x4
 8556 027a F3       		.byte	0xf3
 8557 027b 01       		.uleb128 0x1
 8558 027c 50       		.byte	0x50
 8559 027d 9F       		.byte	0x9f
 8560 027e 4E080000 		.4byte	.LVL151
 8561 0282 C2090000 		.4byte	.LFE12
 8562 0286 0100     		.2byte	0x1
 8563 0288 54       		.byte	0x54
 8564 0289 00000000 		.4byte	0
 8565 028d 00000000 		.4byte	0
 8566              	.LLST13:
 8567 0291 EC000000 		.4byte	.LVL48
 8568 0295 34010000 		.4byte	.LVL52
 8569 0299 0100     		.2byte	0x1
 8570 029b 55       		.byte	0x55
 8571 029c C4010000 		.4byte	.LVL62
 8572 02a0 F6010000 		.4byte	.LVL66
 8573 02a4 0100     		.2byte	0x1
 8574 02a6 55       		.byte	0x55
 8575 02a7 3E030000 		.4byte	.LVL78
 8576 02ab 82030000 		.4byte	.LVL82
 8577 02af 0100     		.2byte	0x1
 8578 02b1 55       		.byte	0x55
 8579 02b2 9C030000 		.4byte	.LVL84
 8580 02b6 BA030000 		.4byte	.LVL87
 8581 02ba 0100     		.2byte	0x1
 8582 02bc 55       		.byte	0x55
 8583 02bd E6050000 		.4byte	.LVL115
 8584 02c1 12060000 		.4byte	.LVL117
 8585 02c5 0100     		.2byte	0x1
 8586 02c7 56       		.byte	0x56
 8587 02c8 12060000 		.4byte	.LVL117
 8588 02cc 3E060000 		.4byte	.LVL120
 8589 02d0 0100     		.2byte	0x1
 8590 02d2 55       		.byte	0x55
 8591 02d3 3E060000 		.4byte	.LVL120
 8592 02d7 9C060000 		.4byte	.LVL125
 8593 02db 0100     		.2byte	0x1
 8594 02dd 56       		.byte	0x56
 8595 02de E4080000 		.4byte	.LVL161
 8596 02e2 EA080000 		.4byte	.LVL163
 8597 02e6 0100     		.2byte	0x1
 8598 02e8 55       		.byte	0x55
 8599 02e9 EA080000 		.4byte	.LVL163
 8600 02ed EC080000 		.4byte	.LVL164
ARM GAS  C:\Users\jenny\AppData\Local\Temp\ccsinKfR.s 			page 152


 8601 02f1 0100     		.2byte	0x1
 8602 02f3 56       		.byte	0x56
 8603 02f4 EC080000 		.4byte	.LVL164
 8604 02f8 4E090000 		.4byte	.LVL169
 8605 02fc 0100     		.2byte	0x1
 8606 02fe 55       		.byte	0x55
 8607 02ff 00000000 		.4byte	0
 8608 0303 00000000 		.4byte	0
 8609              	.LLST14:
 8610 0307 10060000 		.4byte	.LVL116
 8611 030b 2E060000 		.4byte	.LVL119
 8612 030f 0100     		.2byte	0x1
 8613 0311 56       		.byte	0x56
 8614 0312 00000000 		.4byte	0
 8615 0316 00000000 		.4byte	0
 8616              	.LLST15:
 8617 031a 8E020000 		.4byte	.LVL71
 8618 031e 9F020000 		.4byte	.LVL72-1
 8619 0322 0100     		.2byte	0x1
 8620 0324 50       		.byte	0x50
 8621 0325 0A070000 		.4byte	.LVL129
 8622 0329 6A070000 		.4byte	.LVL135
 8623 032d 0100     		.2byte	0x1
 8624 032f 55       		.byte	0x55
 8625 0330 76070000 		.4byte	.LVL136
 8626 0334 C4070000 		.4byte	.LVL140
 8627 0338 0100     		.2byte	0x1
 8628 033a 55       		.byte	0x55
 8629 033b E8070000 		.4byte	.LVL141
 8630 033f F8070000 		.4byte	.LVL142
 8631 0343 0100     		.2byte	0x1
 8632 0345 50       		.byte	0x50
 8633 0346 1A080000 		.4byte	.LVL147
 8634 034a 24080000 		.4byte	.LVL149
 8635 034e 0100     		.2byte	0x1
 8636 0350 50       		.byte	0x50
 8637 0351 24080000 		.4byte	.LVL149
 8638 0355 4E080000 		.4byte	.LVL151
 8639 0359 0100     		.2byte	0x1
 8640 035b 54       		.byte	0x54
 8641 035c A0090000 		.4byte	.LVL178
 8642 0360 A4090000 		.4byte	.LVL179
 8643 0364 0100     		.2byte	0x1
 8644 0366 50       		.byte	0x50
 8645 0367 00000000 		.4byte	0
 8646 036b 00000000 		.4byte	0
 8647              	.LLST16:
 8648 036f 1A040000 		.4byte	.LVL91
 8649 0373 50040000 		.4byte	.LVL93
 8650 0377 0100     		.2byte	0x1
 8651 0379 55       		.byte	0x55
 8652 037a 52040000 		.4byte	.LVL94
 8653 037e 8A040000 		.4byte	.LVL98
 8654 0382 0100     		.2byte	0x1
 8655 0384 55       		.byte	0x55
 8656 0385 F8070000 		.4byte	.LVL142
 8657 0389 14080000 		.4byte	.LVL146
ARM GAS  C:\Users\jenny\AppData\Local\Temp\ccsinKfR.s 			page 153


 8658 038d 0100     		.2byte	0x1
 8659 038f 55       		.byte	0x55
 8660 0390 58080000 		.4byte	.LVL152
 8661 0394 64080000 		.4byte	.LVL154
 8662 0398 0100     		.2byte	0x1
 8663 039a 55       		.byte	0x55
 8664 039b 4E090000 		.4byte	.LVL169
 8665 039f 54090000 		.4byte	.LVL171
 8666 03a3 0100     		.2byte	0x1
 8667 03a5 55       		.byte	0x55
 8668 03a6 00000000 		.4byte	0
 8669 03aa 00000000 		.4byte	0
 8670              	.LLST17:
 8671 03ae 1A040000 		.4byte	.LVL91
 8672 03b2 8A040000 		.4byte	.LVL98
 8673 03b6 0100     		.2byte	0x1
 8674 03b8 56       		.byte	0x56
 8675 03b9 F8070000 		.4byte	.LVL142
 8676 03bd 14080000 		.4byte	.LVL146
 8677 03c1 0100     		.2byte	0x1
 8678 03c3 56       		.byte	0x56
 8679 03c4 58080000 		.4byte	.LVL152
 8680 03c8 64080000 		.4byte	.LVL154
 8681 03cc 0100     		.2byte	0x1
 8682 03ce 56       		.byte	0x56
 8683 03cf 4E090000 		.4byte	.LVL169
 8684 03d3 54090000 		.4byte	.LVL171
 8685 03d7 0100     		.2byte	0x1
 8686 03d9 56       		.byte	0x56
 8687 03da 00000000 		.4byte	0
 8688 03de 00000000 		.4byte	0
 8689              	.LLST18:
 8690 03e2 4A010000 		.4byte	.LVL54
 8691 03e6 54010000 		.4byte	.LVL55
 8692 03ea 0800     		.2byte	0x8
 8693 03ec 72       		.byte	0x72
 8694 03ed 00       		.sleb128 0
 8695 03ee 94       		.byte	0x94
 8696 03ef 02       		.byte	0x2
 8697 03f0 73       		.byte	0x73
 8698 03f1 00       		.sleb128 0
 8699 03f2 1C       		.byte	0x1c
 8700 03f3 9F       		.byte	0x9f
 8701 03f4 5E010000 		.4byte	.LVL57
 8702 03f8 6A010000 		.4byte	.LVL58
 8703 03fc 0100     		.2byte	0x1
 8704 03fe 52       		.byte	0x52
 8705 03ff 6A010000 		.4byte	.LVL58
 8706 0403 6E010000 		.4byte	.LVL59
 8707 0407 0100     		.2byte	0x1
 8708 0409 53       		.byte	0x53
 8709 040a 6E010000 		.4byte	.LVL59
 8710 040e 74010000 		.4byte	.LVL60
 8711 0412 0800     		.2byte	0x8
 8712 0414 73       		.byte	0x73
 8713 0415 00       		.sleb128 0
 8714 0416 72       		.byte	0x72
ARM GAS  C:\Users\jenny\AppData\Local\Temp\ccsinKfR.s 			page 154


 8715 0417 00       		.sleb128 0
 8716 0418 32       		.byte	0x32
 8717 0419 26       		.byte	0x26
 8718 041a 1C       		.byte	0x1c
 8719 041b 9F       		.byte	0x9f
 8720 041c 74010000 		.4byte	.LVL60
 8721 0420 76010000 		.4byte	.LVL61
 8722 0424 0B00     		.2byte	0xb
 8723 0426 73       		.byte	0x73
 8724 0427 00       		.sleb128 0
 8725 0428 74       		.byte	0x74
 8726 0429 C200     		.sleb128 66
 8727 042b 94       		.byte	0x94
 8728 042c 02       		.byte	0x2
 8729 042d 32       		.byte	0x32
 8730 042e 26       		.byte	0x26
 8731 042f 1C       		.byte	0x1c
 8732 0430 9F       		.byte	0x9f
 8733 0431 EA040000 		.4byte	.LVL102
 8734 0435 EE040000 		.4byte	.LVL103
 8735 0439 0100     		.2byte	0x1
 8736 043b 52       		.byte	0x52
 8737 043c EE040000 		.4byte	.LVL103
 8738 0440 F0040000 		.4byte	.LVL104
 8739 0444 0100     		.2byte	0x1
 8740 0446 53       		.byte	0x53
 8741 0447 00000000 		.4byte	0
 8742 044b 00000000 		.4byte	0
 8743              	.LLST19:
 8744 044f 6C000000 		.4byte	.LVL43
 8745 0453 90000000 		.4byte	.LVL44
 8746 0457 0A00     		.2byte	0xa
 8747 0459 75       		.byte	0x75
 8748 045a 00       		.sleb128 0
 8749 045b 0A       		.byte	0xa
 8750 045c FFFF     		.2byte	0xffff
 8751 045e 1A       		.byte	0x1a
 8752 045f 70       		.byte	0x70
 8753 0460 00       		.sleb128 0
 8754 0461 22       		.byte	0x22
 8755 0462 9F       		.byte	0x9f
 8756 0463 90000000 		.4byte	.LVL44
 8757 0467 AA000000 		.4byte	.LVL45
 8758 046b 0C00     		.2byte	0xc
 8759 046d 75       		.byte	0x75
 8760 046e 00       		.sleb128 0
 8761 046f 0A       		.byte	0xa
 8762 0470 FFFF     		.2byte	0xffff
 8763 0472 1A       		.byte	0x1a
 8764 0473 74       		.byte	0x74
 8765 0474 D800     		.sleb128 88
 8766 0476 06       		.byte	0x6
 8767 0477 22       		.byte	0x22
 8768 0478 9F       		.byte	0x9f
 8769 0479 FC010000 		.4byte	.LVL68
 8770 047d 34020000 		.4byte	.LVL69
 8771 0481 0A00     		.2byte	0xa
ARM GAS  C:\Users\jenny\AppData\Local\Temp\ccsinKfR.s 			page 155


 8772 0483 75       		.byte	0x75
 8773 0484 00       		.sleb128 0
 8774 0485 0A       		.byte	0xa
 8775 0486 FFFF     		.2byte	0xffff
 8776 0488 1A       		.byte	0x1a
 8777 0489 70       		.byte	0x70
 8778 048a 00       		.sleb128 0
 8779 048b 22       		.byte	0x22
 8780 048c 9F       		.byte	0x9f
 8781 048d BC020000 		.4byte	.LVL73
 8782 0491 BE020000 		.4byte	.LVL74
 8783 0495 0C00     		.2byte	0xc
 8784 0497 75       		.byte	0x75
 8785 0498 00       		.sleb128 0
 8786 0499 0A       		.byte	0xa
 8787 049a FFFF     		.2byte	0xffff
 8788 049c 1A       		.byte	0x1a
 8789 049d 74       		.byte	0x74
 8790 049e D800     		.sleb128 88
 8791 04a0 06       		.byte	0x6
 8792 04a1 22       		.byte	0x22
 8793 04a2 9F       		.byte	0x9f
 8794 04a3 BE020000 		.4byte	.LVL74
 8795 04a7 08030000 		.4byte	.LVL75
 8796 04ab 0F00     		.2byte	0xf
 8797 04ad 74       		.byte	0x74
 8798 04ae E000     		.sleb128 96
 8799 04b0 94       		.byte	0x94
 8800 04b1 02       		.byte	0x2
 8801 04b2 0A       		.byte	0xa
 8802 04b3 FFFF     		.2byte	0xffff
 8803 04b5 1A       		.byte	0x1a
 8804 04b6 74       		.byte	0x74
 8805 04b7 D800     		.sleb128 88
 8806 04b9 06       		.byte	0x6
 8807 04ba 22       		.byte	0x22
 8808 04bb 9F       		.byte	0x9f
 8809 04bc BA030000 		.4byte	.LVL87
 8810 04c0 D2030000 		.4byte	.LVL88
 8811 04c4 0A00     		.2byte	0xa
 8812 04c6 75       		.byte	0x75
 8813 04c7 00       		.sleb128 0
 8814 04c8 0A       		.byte	0xa
 8815 04c9 FFFF     		.2byte	0xffff
 8816 04cb 1A       		.byte	0x1a
 8817 04cc 70       		.byte	0x70
 8818 04cd 00       		.sleb128 0
 8819 04ce 22       		.byte	0x22
 8820 04cf 9F       		.byte	0x9f
 8821 04d0 D2030000 		.4byte	.LVL88
 8822 04d4 E2030000 		.4byte	.LVL89
 8823 04d8 0C00     		.2byte	0xc
 8824 04da 75       		.byte	0x75
 8825 04db 00       		.sleb128 0
 8826 04dc 0A       		.byte	0xa
 8827 04dd FFFF     		.2byte	0xffff
 8828 04df 1A       		.byte	0x1a
ARM GAS  C:\Users\jenny\AppData\Local\Temp\ccsinKfR.s 			page 156


 8829 04e0 74       		.byte	0x74
 8830 04e1 D800     		.sleb128 88
 8831 04e3 06       		.byte	0x6
 8832 04e4 22       		.byte	0x22
 8833 04e5 9F       		.byte	0x9f
 8834 04e6 E2030000 		.4byte	.LVL89
 8835 04ea 10040000 		.4byte	.LVL90
 8836 04ee 0A00     		.2byte	0xa
 8837 04f0 75       		.byte	0x75
 8838 04f1 00       		.sleb128 0
 8839 04f2 0A       		.byte	0xa
 8840 04f3 FFFF     		.2byte	0xffff
 8841 04f5 1A       		.byte	0x1a
 8842 04f6 70       		.byte	0x70
 8843 04f7 00       		.sleb128 0
 8844 04f8 22       		.byte	0x22
 8845 04f9 9F       		.byte	0x9f
 8846 04fa 8A040000 		.4byte	.LVL98
 8847 04fe AE040000 		.4byte	.LVL100
 8848 0502 0F00     		.2byte	0xf
 8849 0504 74       		.byte	0x74
 8850 0505 E000     		.sleb128 96
 8851 0507 94       		.byte	0x94
 8852 0508 02       		.byte	0x2
 8853 0509 0A       		.byte	0xa
 8854 050a FFFF     		.2byte	0xffff
 8855 050c 1A       		.byte	0x1a
 8856 050d 74       		.byte	0x74
 8857 050e D800     		.sleb128 88
 8858 0510 06       		.byte	0x6
 8859 0511 22       		.byte	0x22
 8860 0512 9F       		.byte	0x9f
 8861 0513 AE040000 		.4byte	.LVL100
 8862 0517 EA040000 		.4byte	.LVL102
 8863 051b 0C00     		.2byte	0xc
 8864 051d 75       		.byte	0x75
 8865 051e 00       		.sleb128 0
 8866 051f 0A       		.byte	0xa
 8867 0520 FFFF     		.2byte	0xffff
 8868 0522 1A       		.byte	0x1a
 8869 0523 74       		.byte	0x74
 8870 0524 D800     		.sleb128 88
 8871 0526 06       		.byte	0x6
 8872 0527 22       		.byte	0x22
 8873 0528 9F       		.byte	0x9f
 8874 0529 60090000 		.4byte	.LVL173
 8875 052d 67090000 		.4byte	.LVL174-1
 8876 0531 0C00     		.2byte	0xc
 8877 0533 75       		.byte	0x75
 8878 0534 00       		.sleb128 0
 8879 0535 0A       		.byte	0xa
 8880 0536 FFFF     		.2byte	0xffff
 8881 0538 1A       		.byte	0x1a
 8882 0539 74       		.byte	0x74
 8883 053a D800     		.sleb128 88
 8884 053c 06       		.byte	0x6
 8885 053d 22       		.byte	0x22
ARM GAS  C:\Users\jenny\AppData\Local\Temp\ccsinKfR.s 			page 157


 8886 053e 9F       		.byte	0x9f
 8887 053f 00000000 		.4byte	0
 8888 0543 00000000 		.4byte	0
 8889              	.LLST20:
 8890 0547 46040000 		.4byte	.LVL92
 8891 054b 5A040000 		.4byte	.LVL95
 8892 054f 0100     		.2byte	0x1
 8893 0551 51       		.byte	0x51
 8894 0552 5A040000 		.4byte	.LVL95
 8895 0556 5C040000 		.4byte	.LVL96
 8896 055a 0100     		.2byte	0x1
 8897 055c 50       		.byte	0x50
 8898 055d 00000000 		.4byte	0
 8899 0561 00000000 		.4byte	0
 8900              	.LLST21:
 8901 0565 00000000 		.4byte	.LVL38
 8902 0569 22000000 		.4byte	.LVL40
 8903 056d 0200     		.2byte	0x2
 8904 056f 30       		.byte	0x30
 8905 0570 9F       		.byte	0x9f
 8906 0571 60000000 		.4byte	.LVL42
 8907 0575 AA000000 		.4byte	.LVL45
 8908 0579 0200     		.2byte	0x2
 8909 057b 30       		.byte	0x30
 8910 057c 9F       		.byte	0x9f
 8911 057d F6010000 		.4byte	.LVL66
 8912 0581 34020000 		.4byte	.LVL69
 8913 0585 0200     		.2byte	0x2
 8914 0587 30       		.byte	0x30
 8915 0588 9F       		.byte	0x9f
 8916 0589 BC020000 		.4byte	.LVL73
 8917 058d 92030000 		.4byte	.LVL83
 8918 0591 0200     		.2byte	0x2
 8919 0593 30       		.byte	0x30
 8920 0594 9F       		.byte	0x9f
 8921 0595 9C030000 		.4byte	.LVL84
 8922 0599 10040000 		.4byte	.LVL90
 8923 059d 0200     		.2byte	0x2
 8924 059f 30       		.byte	0x30
 8925 05a0 9F       		.byte	0x9f
 8926 05a1 8A040000 		.4byte	.LVL98
 8927 05a5 BA040000 		.4byte	.LVL101
 8928 05a9 0200     		.2byte	0x2
 8929 05ab 30       		.byte	0x30
 8930 05ac 9F       		.byte	0x9f
 8931 05ad BA040000 		.4byte	.LVL101
 8932 05b1 EA040000 		.4byte	.LVL102
 8933 05b5 0200     		.2byte	0x2
 8934 05b7 31       		.byte	0x31
 8935 05b8 9F       		.byte	0x9f
 8936 05b9 9C050000 		.4byte	.LVL111
 8937 05bd AE050000 		.4byte	.LVL112
 8938 05c1 0200     		.2byte	0x2
 8939 05c3 30       		.byte	0x30
 8940 05c4 9F       		.byte	0x9f
 8941 05c5 E4080000 		.4byte	.LVL161
 8942 05c9 EA080000 		.4byte	.LVL163
ARM GAS  C:\Users\jenny\AppData\Local\Temp\ccsinKfR.s 			page 158


 8943 05cd 0200     		.2byte	0x2
 8944 05cf 30       		.byte	0x30
 8945 05d0 9F       		.byte	0x9f
 8946 05d1 60090000 		.4byte	.LVL173
 8947 05d5 84090000 		.4byte	.LVL175
 8948 05d9 0200     		.2byte	0x2
 8949 05db 31       		.byte	0x31
 8950 05dc 9F       		.byte	0x9f
 8951 05dd 00000000 		.4byte	0
 8952 05e1 00000000 		.4byte	0
 8953              	.LLST22:
 8954 05e5 A2040000 		.4byte	.LVL99
 8955 05e9 AE040000 		.4byte	.LVL100
 8956 05ed 0100     		.2byte	0x1
 8957 05ef 53       		.byte	0x53
 8958 05f0 00000000 		.4byte	0
 8959 05f4 00000000 		.4byte	0
 8960              	.LLST23:
 8961 05f8 9C060000 		.4byte	.LVL125
 8962 05fc A3060000 		.4byte	.LVL126-1
 8963 0600 0100     		.2byte	0x1
 8964 0602 50       		.byte	0x50
 8965 0603 00000000 		.4byte	0
 8966 0607 00000000 		.4byte	0
 8967              	.LLST24:
 8968 060b 00000000 		.4byte	.LFB7
 8969 060f 04000000 		.4byte	.LCFI3
 8970 0613 0200     		.2byte	0x2
 8971 0615 7D       		.byte	0x7d
 8972 0616 00       		.sleb128 0
 8973 0617 04000000 		.4byte	.LCFI3
 8974 061b 24000000 		.4byte	.LCFI4
 8975 061f 0200     		.2byte	0x2
 8976 0621 7D       		.byte	0x7d
 8977 0622 24       		.sleb128 36
 8978 0623 24000000 		.4byte	.LCFI4
 8979 0627 1C0B0000 		.4byte	.LFE7
 8980 062b 0200     		.2byte	0x2
 8981 062d 7D       		.byte	0x7d
 8982 062e 30       		.sleb128 48
 8983 062f 00000000 		.4byte	0
 8984 0633 00000000 		.4byte	0
 8985              	.LLST25:
 8986 0637 00000000 		.4byte	.LVL182
 8987 063b 35000000 		.4byte	.LVL184-1
 8988 063f 0100     		.2byte	0x1
 8989 0641 50       		.byte	0x50
 8990 0642 35000000 		.4byte	.LVL184-1
 8991 0646 FC010000 		.4byte	.LVL204
 8992 064a 0100     		.2byte	0x1
 8993 064c 55       		.byte	0x55
 8994 064d FC010000 		.4byte	.LVL204
 8995 0651 07020000 		.4byte	.LVL205-1
 8996 0655 0500     		.2byte	0x5
 8997 0657 03       		.byte	0x3
 8998 0658 04000000 		.4byte	inseg+4
 8999 065c 07020000 		.4byte	.LVL205-1
ARM GAS  C:\Users\jenny\AppData\Local\Temp\ccsinKfR.s 			page 159


 9000 0660 4C020000 		.4byte	.LVL207
 9001 0664 0400     		.2byte	0x4
 9002 0666 F3       		.byte	0xf3
 9003 0667 01       		.uleb128 0x1
 9004 0668 50       		.byte	0x50
 9005 0669 9F       		.byte	0x9f
 9006 066a 4C020000 		.4byte	.LVL207
 9007 066e 2E030000 		.4byte	.LVL216
 9008 0672 0100     		.2byte	0x1
 9009 0674 55       		.byte	0x55
 9010 0675 2E030000 		.4byte	.LVL216
 9011 0679 DC030000 		.4byte	.LVL227
 9012 067d 0400     		.2byte	0x4
 9013 067f F3       		.byte	0xf3
 9014 0680 01       		.uleb128 0x1
 9015 0681 50       		.byte	0x50
 9016 0682 9F       		.byte	0x9f
 9017 0683 DC030000 		.4byte	.LVL227
 9018 0687 32050000 		.4byte	.LVL242
 9019 068b 0100     		.2byte	0x1
 9020 068d 55       		.byte	0x55
 9021 068e 32050000 		.4byte	.LVL242
 9022 0692 72070000 		.4byte	.LVL255
 9023 0696 0400     		.2byte	0x4
 9024 0698 F3       		.byte	0xf3
 9025 0699 01       		.uleb128 0x1
 9026 069a 50       		.byte	0x50
 9027 069b 9F       		.byte	0x9f
 9028 069c 72070000 		.4byte	.LVL255
 9029 06a0 CE070000 		.4byte	.LVL258
 9030 06a4 0100     		.2byte	0x1
 9031 06a6 55       		.byte	0x55
 9032 06a7 CE070000 		.4byte	.LVL258
 9033 06ab 68080000 		.4byte	.LVL267
 9034 06af 0400     		.2byte	0x4
 9035 06b1 F3       		.byte	0xf3
 9036 06b2 01       		.uleb128 0x1
 9037 06b3 50       		.byte	0x50
 9038 06b4 9F       		.byte	0x9f
 9039 06b5 68080000 		.4byte	.LVL267
 9040 06b9 AA080000 		.4byte	.LVL274
 9041 06bd 0100     		.2byte	0x1
 9042 06bf 55       		.byte	0x55
 9043 06c0 AA080000 		.4byte	.LVL274
 9044 06c4 CA080000 		.4byte	.LVL279
 9045 06c8 0400     		.2byte	0x4
 9046 06ca F3       		.byte	0xf3
 9047 06cb 01       		.uleb128 0x1
 9048 06cc 50       		.byte	0x50
 9049 06cd 9F       		.byte	0x9f
 9050 06ce CA080000 		.4byte	.LVL279
 9051 06d2 D2080000 		.4byte	.LVL281
 9052 06d6 0100     		.2byte	0x1
 9053 06d8 55       		.byte	0x55
 9054 06d9 D2080000 		.4byte	.LVL281
 9055 06dd 1A0A0000 		.4byte	.LVL303
 9056 06e1 0400     		.2byte	0x4
ARM GAS  C:\Users\jenny\AppData\Local\Temp\ccsinKfR.s 			page 160


 9057 06e3 F3       		.byte	0xf3
 9058 06e4 01       		.uleb128 0x1
 9059 06e5 50       		.byte	0x50
 9060 06e6 9F       		.byte	0x9f
 9061 06e7 1A0A0000 		.4byte	.LVL303
 9062 06eb 460A0000 		.4byte	.LVL305
 9063 06ef 0100     		.2byte	0x1
 9064 06f1 55       		.byte	0x55
 9065 06f2 460A0000 		.4byte	.LVL305
 9066 06f6 8C0A0000 		.4byte	.LVL308
 9067 06fa 0400     		.2byte	0x4
 9068 06fc F3       		.byte	0xf3
 9069 06fd 01       		.uleb128 0x1
 9070 06fe 50       		.byte	0x50
 9071 06ff 9F       		.byte	0x9f
 9072 0700 8C0A0000 		.4byte	.LVL308
 9073 0704 940A0000 		.4byte	.LVL310
 9074 0708 0100     		.2byte	0x1
 9075 070a 55       		.byte	0x55
 9076 070b 940A0000 		.4byte	.LVL310
 9077 070f 1C0B0000 		.4byte	.LFE7
 9078 0713 0400     		.2byte	0x4
 9079 0715 F3       		.byte	0xf3
 9080 0716 01       		.uleb128 0x1
 9081 0717 50       		.byte	0x50
 9082 0718 9F       		.byte	0x9f
 9083 0719 00000000 		.4byte	0
 9084 071d 00000000 		.4byte	0
 9085              	.LLST26:
 9086 0721 00000000 		.4byte	.LVL182
 9087 0725 2E000000 		.4byte	.LVL183
 9088 0729 0100     		.2byte	0x1
 9089 072b 51       		.byte	0x51
 9090 072c 2E000000 		.4byte	.LVL183
 9091 0730 C6000000 		.4byte	.LVL191
 9092 0734 0100     		.2byte	0x1
 9093 0736 57       		.byte	0x57
 9094 0737 C6000000 		.4byte	.LVL191
 9095 073b 1C0B0000 		.4byte	.LFE7
 9096 073f 0400     		.2byte	0x4
 9097 0741 F3       		.byte	0xf3
 9098 0742 01       		.uleb128 0x1
 9099 0743 51       		.byte	0x51
 9100 0744 9F       		.byte	0x9f
 9101 0745 00000000 		.4byte	0
 9102 0749 00000000 		.4byte	0
 9103              	.LLST27:
 9104 074d 3E010000 		.4byte	.LVL198
 9105 0751 60010000 		.4byte	.LVL201
 9106 0755 0100     		.2byte	0x1
 9107 0757 57       		.byte	0x57
 9108 0758 60010000 		.4byte	.LVL201
 9109 075c 68010000 		.4byte	.LVL202
 9110 0760 0100     		.2byte	0x1
 9111 0762 51       		.byte	0x51
 9112 0763 68010000 		.4byte	.LVL202
 9113 0767 5A020000 		.4byte	.LVL210
ARM GAS  C:\Users\jenny\AppData\Local\Temp\ccsinKfR.s 			page 161


 9114 076b 0100     		.2byte	0x1
 9115 076d 57       		.byte	0x57
 9116 076e 5E020000 		.4byte	.LVL211
 9117 0772 22030000 		.4byte	.LVL215
 9118 0776 0100     		.2byte	0x1
 9119 0778 57       		.byte	0x57
 9120 0779 2E030000 		.4byte	.LVL216
 9121 077d E4030000 		.4byte	.LVL228
 9122 0781 0100     		.2byte	0x1
 9123 0783 57       		.byte	0x57
 9124 0784 32050000 		.4byte	.LVL242
 9125 0788 72070000 		.4byte	.LVL255
 9126 078c 0100     		.2byte	0x1
 9127 078e 57       		.byte	0x57
 9128 078f 72070000 		.4byte	.LVL255
 9129 0793 CE070000 		.4byte	.LVL258
 9130 0797 0200     		.2byte	0x2
 9131 0799 30       		.byte	0x30
 9132 079a 9F       		.byte	0x9f
 9133 079b CE070000 		.4byte	.LVL258
 9134 079f 68080000 		.4byte	.LVL267
 9135 07a3 0100     		.2byte	0x1
 9136 07a5 57       		.byte	0x57
 9137 07a6 AA080000 		.4byte	.LVL274
 9138 07aa 1C0B0000 		.4byte	.LFE7
 9139 07ae 0100     		.2byte	0x1
 9140 07b0 57       		.byte	0x57
 9141 07b1 00000000 		.4byte	0
 9142 07b5 00000000 		.4byte	0
 9143              	.LLST28:
 9144 07b9 3E010000 		.4byte	.LVL198
 9145 07bd 4A010000 		.4byte	.LVL199
 9146 07c1 0200     		.2byte	0x2
 9147 07c3 30       		.byte	0x30
 9148 07c4 9F       		.byte	0x9f
 9149 07c5 5E010000 		.4byte	.LVL200
 9150 07c9 68010000 		.4byte	.LVL202
 9151 07cd 0100     		.2byte	0x1
 9152 07cf 57       		.byte	0x57
 9153 07d0 DC030000 		.4byte	.LVL227
 9154 07d4 FC030000 		.4byte	.LVL229
 9155 07d8 0200     		.2byte	0x2
 9156 07da 30       		.byte	0x30
 9157 07db 9F       		.byte	0x9f
 9158 07dc FC030000 		.4byte	.LVL229
 9159 07e0 08040000 		.4byte	.LVL231
 9160 07e4 0100     		.2byte	0x1
 9161 07e6 59       		.byte	0x59
 9162 07e7 08040000 		.4byte	.LVL231
 9163 07eb 0A040000 		.4byte	.LVL232
 9164 07ef 0100     		.2byte	0x1
 9165 07f1 51       		.byte	0x51
 9166 07f2 0A040000 		.4byte	.LVL232
 9167 07f6 32050000 		.4byte	.LVL242
 9168 07fa 0100     		.2byte	0x1
 9169 07fc 59       		.byte	0x59
 9170 07fd 68080000 		.4byte	.LVL267
ARM GAS  C:\Users\jenny\AppData\Local\Temp\ccsinKfR.s 			page 162


 9171 0801 AA080000 		.4byte	.LVL274
 9172 0805 0100     		.2byte	0x1
 9173 0807 59       		.byte	0x59
 9174 0808 00000000 		.4byte	0
 9175 080c 00000000 		.4byte	0
 9176              	.LLST29:
 9177 0810 E4030000 		.4byte	.LVL228
 9178 0814 FC030000 		.4byte	.LVL229
 9179 0818 0100     		.2byte	0x1
 9180 081a 57       		.byte	0x57
 9181 081b FC030000 		.4byte	.LVL229
 9182 081f 00040000 		.4byte	.LVL230
 9183 0823 0100     		.2byte	0x1
 9184 0825 59       		.byte	0x59
 9185 0826 00040000 		.4byte	.LVL230
 9186 082a 0A040000 		.4byte	.LVL232
 9187 082e 0100     		.2byte	0x1
 9188 0830 53       		.byte	0x53
 9189 0831 0A040000 		.4byte	.LVL232
 9190 0835 32050000 		.4byte	.LVL242
 9191 0839 0100     		.2byte	0x1
 9192 083b 59       		.byte	0x59
 9193 083c 68080000 		.4byte	.LVL267
 9194 0840 AA080000 		.4byte	.LVL274
 9195 0844 0100     		.2byte	0x1
 9196 0846 59       		.byte	0x59
 9197 0847 00000000 		.4byte	0
 9198 084b 00000000 		.4byte	0
 9199              	.LLST30:
 9200 084f AC000000 		.4byte	.LVL188
 9201 0853 B8000000 		.4byte	.LVL189
 9202 0857 0500     		.2byte	0x5
 9203 0859 70       		.byte	0x70
 9204 085a 00       		.sleb128 0
 9205 085b 3C       		.byte	0x3c
 9206 085c 25       		.byte	0x25
 9207 085d 9F       		.byte	0x9f
 9208 085e 00000000 		.4byte	0
 9209 0862 00000000 		.4byte	0
 9210              	.LLST31:
 9211 0866 CE070000 		.4byte	.LVL258
 9212 086a DE070000 		.4byte	.LVL259
 9213 086e 0200     		.2byte	0x2
 9214 0870 30       		.byte	0x30
 9215 0871 9F       		.byte	0x9f
 9216 0872 DE070000 		.4byte	.LVL259
 9217 0876 E0070000 		.4byte	.LVL260
 9218 087a 0100     		.2byte	0x1
 9219 087c 50       		.byte	0x50
 9220 087d 10080000 		.4byte	.LVL262
 9221 0881 20080000 		.4byte	.LVL263
 9222 0885 0100     		.2byte	0x1
 9223 0887 50       		.byte	0x50
 9224 0888 B8080000 		.4byte	.LVL275
 9225 088c BA080000 		.4byte	.LVL276
 9226 0890 0100     		.2byte	0x1
 9227 0892 50       		.byte	0x50
ARM GAS  C:\Users\jenny\AppData\Local\Temp\ccsinKfR.s 			page 163


 9228 0893 F0080000 		.4byte	.LVL282
 9229 0897 F2080000 		.4byte	.LVL283
 9230 089b 0100     		.2byte	0x1
 9231 089d 50       		.byte	0x50
 9232 089e 00000000 		.4byte	0
 9233 08a2 00000000 		.4byte	0
 9234              	.LLST32:
 9235 08a6 D0020000 		.4byte	.LVL214
 9236 08aa 22030000 		.4byte	.LVL215
 9237 08ae 0100     		.2byte	0x1
 9238 08b0 57       		.byte	0x57
 9239 08b1 1A0A0000 		.4byte	.LVL303
 9240 08b5 460A0000 		.4byte	.LVL305
 9241 08b9 0100     		.2byte	0x1
 9242 08bb 57       		.byte	0x57
 9243 08bc 00000000 		.4byte	0
 9244 08c0 00000000 		.4byte	0
 9245              	.LLST33:
 9246 08c4 3C030000 		.4byte	.LVL217
 9247 08c8 44030000 		.4byte	.LVL218
 9248 08cc 0500     		.2byte	0x5
 9249 08ce 03       		.byte	0x3
 9250 08cf 00000000 		.4byte	tcp_input_pcb
 9251 08d3 44030000 		.4byte	.LVL218
 9252 08d7 DC030000 		.4byte	.LVL227
 9253 08db 0100     		.2byte	0x1
 9254 08dd 57       		.byte	0x57
 9255 08de 32050000 		.4byte	.LVL242
 9256 08e2 72070000 		.4byte	.LVL255
 9257 08e6 0100     		.2byte	0x1
 9258 08e8 57       		.byte	0x57
 9259 08e9 CE070000 		.4byte	.LVL258
 9260 08ed 68080000 		.4byte	.LVL267
 9261 08f1 0100     		.2byte	0x1
 9262 08f3 57       		.byte	0x57
 9263 08f4 AA080000 		.4byte	.LVL274
 9264 08f8 CA080000 		.4byte	.LVL279
 9265 08fc 0100     		.2byte	0x1
 9266 08fe 57       		.byte	0x57
 9267 08ff D2080000 		.4byte	.LVL281
 9268 0903 1A0A0000 		.4byte	.LVL303
 9269 0907 0100     		.2byte	0x1
 9270 0909 57       		.byte	0x57
 9271 090a 460A0000 		.4byte	.LVL305
 9272 090e 8C0A0000 		.4byte	.LVL308
 9273 0912 0100     		.2byte	0x1
 9274 0914 57       		.byte	0x57
 9275 0915 940A0000 		.4byte	.LVL310
 9276 0919 1C0B0000 		.4byte	.LFE7
 9277 091d 0100     		.2byte	0x1
 9278 091f 57       		.byte	0x57
 9279 0920 00000000 		.4byte	0
 9280 0924 00000000 		.4byte	0
 9281              	.LLST34:
 9282 0928 7E090000 		.4byte	.LVL288
 9283 092c 8F090000 		.4byte	.LVL289-1
 9284 0930 0100     		.2byte	0x1
ARM GAS  C:\Users\jenny\AppData\Local\Temp\ccsinKfR.s 			page 164


 9285 0932 50       		.byte	0x50
 9286 0933 00000000 		.4byte	0
 9287 0937 00000000 		.4byte	0
 9288              	.LLST35:
 9289 093b 3C030000 		.4byte	.LVL217
 9290 093f 66030000 		.4byte	.LVL219
 9291 0943 0200     		.2byte	0x2
 9292 0945 30       		.byte	0x30
 9293 0946 9F       		.byte	0x9f
 9294 0947 92030000 		.4byte	.LVL223
 9295 094b B2030000 		.4byte	.LVL225
 9296 094f 0200     		.2byte	0x2
 9297 0951 30       		.byte	0x30
 9298 0952 9F       		.byte	0x9f
 9299 0953 32050000 		.4byte	.LVL242
 9300 0957 72070000 		.4byte	.LVL255
 9301 095b 0200     		.2byte	0x2
 9302 095d 30       		.byte	0x30
 9303 095e 9F       		.byte	0x9f
 9304 095f 46080000 		.4byte	.LVL265
 9305 0963 52080000 		.4byte	.LVL266
 9306 0967 0200     		.2byte	0x2
 9307 0969 30       		.byte	0x30
 9308 096a 9F       		.byte	0x9f
 9309 096b 08090000 		.4byte	.LVL284
 9310 096f 1A0A0000 		.4byte	.LVL303
 9311 0973 0200     		.2byte	0x2
 9312 0975 30       		.byte	0x30
 9313 0976 9F       		.byte	0x9f
 9314 0977 460A0000 		.4byte	.LVL305
 9315 097b 8C0A0000 		.4byte	.LVL308
 9316 097f 0200     		.2byte	0x2
 9317 0981 30       		.byte	0x30
 9318 0982 9F       		.byte	0x9f
 9319 0983 940A0000 		.4byte	.LVL310
 9320 0987 A00A0000 		.4byte	.LVL312
 9321 098b 0200     		.2byte	0x2
 9322 098d 31       		.byte	0x31
 9323 098e 9F       		.byte	0x9f
 9324 098f A00A0000 		.4byte	.LVL312
 9325 0993 1C0B0000 		.4byte	.LFE7
 9326 0997 0200     		.2byte	0x2
 9327 0999 30       		.byte	0x30
 9328 099a 9F       		.byte	0x9f
 9329 099b 00000000 		.4byte	0
 9330 099f 00000000 		.4byte	0
 9331              	.LLST36:
 9332 09a3 3C030000 		.4byte	.LVL217
 9333 09a7 66030000 		.4byte	.LVL219
 9334 09ab 0200     		.2byte	0x2
 9335 09ad 30       		.byte	0x30
 9336 09ae 9F       		.byte	0x9f
 9337 09af 92030000 		.4byte	.LVL223
 9338 09b3 A8030000 		.4byte	.LVL224
 9339 09b7 0200     		.2byte	0x2
 9340 09b9 30       		.byte	0x30
 9341 09ba 9F       		.byte	0x9f
ARM GAS  C:\Users\jenny\AppData\Local\Temp\ccsinKfR.s 			page 165


 9342 09bb 32050000 		.4byte	.LVL242
 9343 09bf 0E070000 		.4byte	.LVL252
 9344 09c3 0200     		.2byte	0x2
 9345 09c5 30       		.byte	0x30
 9346 09c6 9F       		.byte	0x9f
 9347 09c7 1C070000 		.4byte	.LVL253
 9348 09cb 72070000 		.4byte	.LVL255
 9349 09cf 0200     		.2byte	0x2
 9350 09d1 30       		.byte	0x30
 9351 09d2 9F       		.byte	0x9f
 9352 09d3 46080000 		.4byte	.LVL265
 9353 09d7 68080000 		.4byte	.LVL267
 9354 09db 0200     		.2byte	0x2
 9355 09dd 30       		.byte	0x30
 9356 09de 9F       		.byte	0x9f
 9357 09df 08090000 		.4byte	.LVL284
 9358 09e3 AE090000 		.4byte	.LVL290
 9359 09e7 0200     		.2byte	0x2
 9360 09e9 30       		.byte	0x30
 9361 09ea 9F       		.byte	0x9f
 9362 09eb AE090000 		.4byte	.LVL290
 9363 09ef B0090000 		.4byte	.LVL291
 9364 09f3 0100     		.2byte	0x1
 9365 09f5 50       		.byte	0x50
 9366 09f6 B6090000 		.4byte	.LVL292
 9367 09fa C6090000 		.4byte	.LVL293
 9368 09fe 0200     		.2byte	0x2
 9369 0a00 30       		.byte	0x30
 9370 0a01 9F       		.byte	0x9f
 9371 0a02 C6090000 		.4byte	.LVL293
 9372 0a06 CA090000 		.4byte	.LVL294
 9373 0a0a 0100     		.2byte	0x1
 9374 0a0c 50       		.byte	0x50
 9375 0a0d D0090000 		.4byte	.LVL295
 9376 0a11 D8090000 		.4byte	.LVL296
 9377 0a15 0200     		.2byte	0x2
 9378 0a17 30       		.byte	0x30
 9379 0a18 9F       		.byte	0x9f
 9380 0a19 D8090000 		.4byte	.LVL296
 9381 0a1d DA090000 		.4byte	.LVL297
 9382 0a21 0100     		.2byte	0x1
 9383 0a23 50       		.byte	0x50
 9384 0a24 0E0A0000 		.4byte	.LVL301
 9385 0a28 1A0A0000 		.4byte	.LVL303
 9386 0a2c 0200     		.2byte	0x2
 9387 0a2e 30       		.byte	0x30
 9388 0a2f 9F       		.byte	0x9f
 9389 0a30 460A0000 		.4byte	.LVL305
 9390 0a34 8C0A0000 		.4byte	.LVL308
 9391 0a38 0200     		.2byte	0x2
 9392 0a3a 30       		.byte	0x30
 9393 0a3b 9F       		.byte	0x9f
 9394 0a3c 940A0000 		.4byte	.LVL310
 9395 0a40 1C0B0000 		.4byte	.LFE7
 9396 0a44 0200     		.2byte	0x2
 9397 0a46 30       		.byte	0x30
 9398 0a47 9F       		.byte	0x9f
ARM GAS  C:\Users\jenny\AppData\Local\Temp\ccsinKfR.s 			page 166


 9399 0a48 00000000 		.4byte	0
 9400 0a4c 00000000 		.4byte	0
 9401              	.LLST37:
 9402 0a50 DE090000 		.4byte	.LVL298
 9403 0a54 E1090000 		.4byte	.LVL299-1
 9404 0a58 0300     		.2byte	0x3
 9405 0a5a 70       		.byte	0x70
 9406 0a5b CC00     		.sleb128 76
 9407 0a5d E1090000 		.4byte	.LVL299-1
 9408 0a61 FC090000 		.4byte	.LVL300
 9409 0a65 0100     		.2byte	0x1
 9410 0a67 54       		.byte	0x54
 9411 0a68 00000000 		.4byte	0
 9412 0a6c 00000000 		.4byte	0
 9413              	.LLST38:
 9414 0a70 2E040000 		.4byte	.LVL233
 9415 0a74 32050000 		.4byte	.LVL242
 9416 0a78 0100     		.2byte	0x1
 9417 0a7a 59       		.byte	0x59
 9418 0a7b 68080000 		.4byte	.LVL267
 9419 0a7f AA080000 		.4byte	.LVL274
 9420 0a83 0100     		.2byte	0x1
 9421 0a85 59       		.byte	0x59
 9422 0a86 00000000 		.4byte	0
 9423 0a8a 00000000 		.4byte	0
 9424              	.LLST39:
 9425 0a8e 64040000 		.4byte	.LVL234
 9426 0a92 76040000 		.4byte	.LVL235
 9427 0a96 0100     		.2byte	0x1
 9428 0a98 50       		.byte	0x50
 9429 0a99 76040000 		.4byte	.LVL235
 9430 0a9d 32050000 		.4byte	.LVL242
 9431 0aa1 0100     		.2byte	0x1
 9432 0aa3 5A       		.byte	0x5a
 9433 0aa4 68080000 		.4byte	.LVL267
 9434 0aa8 72080000 		.4byte	.LVL270
 9435 0aac 0100     		.2byte	0x1
 9436 0aae 5A       		.byte	0x5a
 9437 0aaf 72080000 		.4byte	.LVL270
 9438 0ab3 76080000 		.4byte	.LVL271
 9439 0ab7 0100     		.2byte	0x1
 9440 0ab9 50       		.byte	0x50
 9441 0aba 76080000 		.4byte	.LVL271
 9442 0abe 7E080000 		.4byte	.LVL272
 9443 0ac2 0100     		.2byte	0x1
 9444 0ac4 5A       		.byte	0x5a
 9445 0ac5 00000000 		.4byte	0
 9446 0ac9 00000000 		.4byte	0
 9447              	.LLST40:
 9448 0acd 24050000 		.4byte	.LVL239
 9449 0ad1 2C050000 		.4byte	.LVL240
 9450 0ad5 0100     		.2byte	0x1
 9451 0ad7 50       		.byte	0x50
 9452 0ad8 68080000 		.4byte	.LVL267
 9453 0adc 6A080000 		.4byte	.LVL268
 9454 0ae0 0100     		.2byte	0x1
 9455 0ae2 50       		.byte	0x50
ARM GAS  C:\Users\jenny\AppData\Local\Temp\ccsinKfR.s 			page 167


 9456 0ae3 00000000 		.4byte	0
 9457 0ae7 00000000 		.4byte	0
 9458              		.section	.debug_aranges,"",%progbits
 9459 0000 34000000 		.4byte	0x34
 9460 0004 0200     		.2byte	0x2
 9461 0006 00000000 		.4byte	.Ldebug_info0
 9462 000a 04       		.byte	0x4
 9463 000b 00       		.byte	0
 9464 000c 0000     		.2byte	0
 9465 000e 0000     		.2byte	0
 9466 0010 00000000 		.4byte	.LFB13
 9467 0014 8C000000 		.4byte	.LFE13-.LFB13
 9468 0018 00000000 		.4byte	.LFB11
 9469 001c A8000000 		.4byte	.LFE11-.LFB11
 9470 0020 00000000 		.4byte	.LFB12
 9471 0024 C2090000 		.4byte	.LFE12-.LFB12
 9472 0028 00000000 		.4byte	.LFB7
 9473 002c 1C0B0000 		.4byte	.LFE7-.LFB7
 9474 0030 00000000 		.4byte	0
 9475 0034 00000000 		.4byte	0
 9476              		.section	.debug_ranges,"",%progbits
 9477              	.Ldebug_ranges0:
 9478 0000 D0020000 		.4byte	.LBB11
 9479 0004 22030000 		.4byte	.LBE11
 9480 0008 1A0A0000 		.4byte	.LBB48
 9481 000c 460A0000 		.4byte	.LBE48
 9482 0010 00000000 		.4byte	0
 9483 0014 00000000 		.4byte	0
 9484 0018 2E030000 		.4byte	.LBB14
 9485 001c 36030000 		.4byte	.LBE14
 9486 0020 38030000 		.4byte	.LBB38
 9487 0024 3A030000 		.4byte	.LBE38
 9488 0028 3C030000 		.4byte	.LBB39
 9489 002c 66030000 		.4byte	.LBE39
 9490 0030 92030000 		.4byte	.LBB40
 9491 0034 B2030000 		.4byte	.LBE40
 9492 0038 32050000 		.4byte	.LBB44
 9493 003c 72070000 		.4byte	.LBE44
 9494 0040 46080000 		.4byte	.LBB45
 9495 0044 68080000 		.4byte	.LBE45
 9496 0048 08090000 		.4byte	.LBB47
 9497 004c 1A0A0000 		.4byte	.LBE47
 9498 0050 460A0000 		.4byte	.LBB49
 9499 0054 8C0A0000 		.4byte	.LBE49
 9500 0058 940A0000 		.4byte	.LBB50
 9501 005c 1C0B0000 		.4byte	.LBE50
 9502 0060 00000000 		.4byte	0
 9503 0064 00000000 		.4byte	0
 9504 0068 2E030000 		.4byte	.LBB15
 9505 006c 36030000 		.4byte	.LBE15
 9506 0070 38030000 		.4byte	.LBB19
 9507 0074 3A030000 		.4byte	.LBE19
 9508 0078 3C030000 		.4byte	.LBB20
 9509 007c 66030000 		.4byte	.LBE20
 9510 0080 92030000 		.4byte	.LBB21
 9511 0084 B2030000 		.4byte	.LBE21
 9512 0088 34050000 		.4byte	.LBB22
ARM GAS  C:\Users\jenny\AppData\Local\Temp\ccsinKfR.s 			page 168


 9513 008c 6C050000 		.4byte	.LBE22
 9514 0090 74050000 		.4byte	.LBB23
 9515 0094 7A050000 		.4byte	.LBE23
 9516 0098 7C050000 		.4byte	.LBB24
 9517 009c A8050000 		.4byte	.LBE24
 9518 00a0 B2050000 		.4byte	.LBB25
 9519 00a4 1A060000 		.4byte	.LBE25
 9520 00a8 1E060000 		.4byte	.LBB26
 9521 00ac 64060000 		.4byte	.LBE26
 9522 00b0 68060000 		.4byte	.LBB27
 9523 00b4 74060000 		.4byte	.LBE27
 9524 00b8 7E060000 		.4byte	.LBB28
 9525 00bc A0060000 		.4byte	.LBE28
 9526 00c0 AA060000 		.4byte	.LBB29
 9527 00c4 B4060000 		.4byte	.LBE29
 9528 00c8 BE060000 		.4byte	.LBB30
 9529 00cc FE060000 		.4byte	.LBE30
 9530 00d0 02070000 		.4byte	.LBB31
 9531 00d4 72070000 		.4byte	.LBE31
 9532 00d8 46080000 		.4byte	.LBB32
 9533 00dc 68080000 		.4byte	.LBE32
 9534 00e0 08090000 		.4byte	.LBB33
 9535 00e4 F8090000 		.4byte	.LBE33
 9536 00e8 FC090000 		.4byte	.LBB34
 9537 00ec 1A0A0000 		.4byte	.LBE34
 9538 00f0 460A0000 		.4byte	.LBB35
 9539 00f4 8C0A0000 		.4byte	.LBE35
 9540 00f8 940A0000 		.4byte	.LBB36
 9541 00fc A00A0000 		.4byte	.LBE36
 9542 0100 AA0A0000 		.4byte	.LBB37
 9543 0104 1C0B0000 		.4byte	.LBE37
 9544 0108 00000000 		.4byte	0
 9545 010c 00000000 		.4byte	0
 9546 0110 B6090000 		.4byte	.LBB16
 9547 0114 D0090000 		.4byte	.LBE16
 9548 0118 D8090000 		.4byte	.LBB17
 9549 011c F8090000 		.4byte	.LBE17
 9550 0120 FC090000 		.4byte	.LBB18
 9551 0124 1A0A0000 		.4byte	.LBE18
 9552 0128 00000000 		.4byte	0
 9553 012c 00000000 		.4byte	0
 9554 0130 2E040000 		.4byte	.LBB41
 9555 0134 32050000 		.4byte	.LBE41
 9556 0138 68080000 		.4byte	.LBB46
 9557 013c AA080000 		.4byte	.LBE46
 9558 0140 00000000 		.4byte	0
 9559 0144 00000000 		.4byte	0
 9560 0148 2E040000 		.4byte	.LBB42
 9561 014c 32050000 		.4byte	.LBE42
 9562 0150 68080000 		.4byte	.LBB43
 9563 0154 AA080000 		.4byte	.LBE43
 9564 0158 00000000 		.4byte	0
 9565 015c 00000000 		.4byte	0
 9566 0160 00000000 		.4byte	.LFB13
 9567 0164 8C000000 		.4byte	.LFE13
 9568 0168 00000000 		.4byte	.LFB11
 9569 016c A8000000 		.4byte	.LFE11
ARM GAS  C:\Users\jenny\AppData\Local\Temp\ccsinKfR.s 			page 169


 9570 0170 00000000 		.4byte	.LFB12
 9571 0174 C2090000 		.4byte	.LFE12
 9572 0178 00000000 		.4byte	.LFB7
 9573 017c 1C0B0000 		.4byte	.LFE7
 9574 0180 00000000 		.4byte	0
 9575 0184 00000000 		.4byte	0
 9576              		.section	.debug_line,"",%progbits
 9577              	.Ldebug_line0:
 9578 0000 64080000 		.section	.debug_str,"MS",%progbits,1
 9578      0200B501 
 9578      00000201 
 9578      FB0E0D00 
 9578      01010101 
 9579              	.LASF131:
 9580 0000 6C697374 		.ascii	"listen_pcbs\000"
 9580      656E5F70 
 9580      63627300 
 9581              	.LASF136:
 9582 000c 4D454D50 		.ascii	"MEMP_TCP_PCB_LISTEN\000"
 9582      5F544350 
 9582      5F504342 
 9582      5F4C4953 
 9582      54454E00 
 9583              	.LASF177:
 9584 0020 63736567 		.ascii	"cseg\000"
 9584      00
 9585              	.LASF192:
 9586 0025 6F6C645F 		.ascii	"old_cwnd\000"
 9586      63776E64 
 9586      00
 9587              	.LASF62:
 9588 002e 736F5F6F 		.ascii	"so_options\000"
 9588      7074696F 
 9588      6E7300
 9589              	.LASF39:
 9590 0039 696E7075 		.ascii	"input\000"
 9590      7400
 9591              	.LASF178:
 9592 003f 6F6C645F 		.ascii	"old_seg\000"
 9592      73656700 
 9593              	.LASF183:
 9594 0047 666F756E 		.ascii	"found_dupack\000"
 9594      645F6475 
 9594      7061636B 
 9594      00
 9595              	.LASF188:
 9596 0054 6E706362 		.ascii	"npcb\000"
 9596      00
 9597              	.LASF130:
 9598 0059 75726770 		.ascii	"urgp\000"
 9598      00
 9599              	.LASF238:
 9600 005e 7463705F 		.ascii	"tcp_process_refused_data\000"
 9600      70726F63 
 9600      6573735F 
 9600      72656675 
 9600      7365645F 
ARM GAS  C:\Users\jenny\AppData\Local\Temp\ccsinKfR.s 			page 170


 9601              	.LASF68:
 9602 0077 706F6C6C 		.ascii	"polltmr\000"
 9602      746D7200 
 9603              	.LASF58:
 9604 007f 7463705F 		.ascii	"tcp_accept_fn\000"
 9604      61636365 
 9604      70745F66 
 9604      6E00
 9605              	.LASF30:
 9606 008d 666C6167 		.ascii	"flags\000"
 9606      7300
 9607              	.LASF121:
 9608 0093 54494D45 		.ascii	"TIME_WAIT\000"
 9608      5F574149 
 9608      5400
 9609              	.LASF0:
 9610 009d 756E7369 		.ascii	"unsigned int\000"
 9610      676E6564 
 9610      20696E74 
 9610      00
 9611              	.LASF110:
 9612 00aa 7463705F 		.ascii	"tcp_connected_fn\000"
 9612      636F6E6E 
 9612      65637465 
 9612      645F666E 
 9612      00
 9613              	.LASF26:
 9614 00bb 6E657874 		.ascii	"next\000"
 9614      00
 9615              	.LASF25:
 9616 00c0 6572725F 		.ascii	"err_t\000"
 9616      7400
 9617              	.LASF41:
 9618 00c6 6C696E6B 		.ascii	"linkoutput\000"
 9618      6F757470 
 9618      757400
 9619              	.LASF229:
 9620 00d1 7463705F 		.ascii	"tcp_rexmit\000"
 9620      7265786D 
 9620      697400
 9621              	.LASF180:
 9622 00dc 70726576 		.ascii	"prev\000"
 9622      00
 9623              	.LASF20:
 9624 00e1 7531365F 		.ascii	"u16_t\000"
 9624      7400
 9625              	.LASF54:
 9626 00e7 5F74746C 		.ascii	"_ttl\000"
 9626      00
 9627              	.LASF217:
 9628 00ec 6C776970 		.ascii	"lwip_ntohl\000"
 9628      5F6E746F 
 9628      686C00
 9629              	.LASF185:
 9630 00f7 6F6C645F 		.ascii	"old_ooseq\000"
 9630      6F6F7365 
 9630      7100
ARM GAS  C:\Users\jenny\AppData\Local\Temp\ccsinKfR.s 			page 171


 9631              	.LASF74:
 9632 0101 7263765F 		.ascii	"rcv_ann_right_edge\000"
 9632      616E6E5F 
 9632      72696768 
 9632      745F6564 
 9632      676500
 9633              	.LASF159:
 9634 0114 73746174 		.ascii	"stats_mem\000"
 9634      735F6D65 
 9634      6D00
 9635              	.LASF233:
 9636 011e 7463705F 		.ascii	"tcp_enqueue_flags\000"
 9636      656E7175 
 9636      6575655F 
 9636      666C6167 
 9636      7300
 9637              	.LASF47:
 9638 0130 6E657469 		.ascii	"netif_output_fn\000"
 9638      665F6F75 
 9638      74707574 
 9638      5F666E00 
 9639              	.LASF213:
 9640 0140 6C776970 		.ascii	"lwip_htons\000"
 9640      5F68746F 
 9640      6E7300
 9641              	.LASF105:
 9642 014b 6B656570 		.ascii	"keep_cnt_sent\000"
 9642      5F636E74 
 9642      5F73656E 
 9642      7400
 9643              	.LASF146:
 9644 0159 4D454D50 		.ascii	"MEMP_PBUF_POOL\000"
 9644      5F504255 
 9644      465F504F 
 9644      4F4C00
 9645              	.LASF211:
 9646 0168 6C776970 		.ascii	"lwip_stats\000"
 9646      5F737461 
 9646      747300
 9647              	.LASF176:
 9648 0173 7463705F 		.ascii	"tcp_oos_insert_segment\000"
 9648      6F6F735F 
 9648      696E7365 
 9648      72745F73 
 9648      65676D65 
 9649              	.LASF107:
 9650 018a 7463705F 		.ascii	"tcp_sent_fn\000"
 9650      73656E74 
 9650      5F666E00 
 9651              	.LASF197:
 9652 0196 696E7365 		.ascii	"inseg\000"
 9652      6700
 9653              	.LASF239:
 9654 019c 7463705F 		.ascii	"tcp_pcb_remove\000"
 9654      7063625F 
 9654      72656D6F 
 9654      766500
ARM GAS  C:\Users\jenny\AppData\Local\Temp\ccsinKfR.s 			page 172


 9655              	.LASF163:
 9656 01ab 73746174 		.ascii	"stats_syselem\000"
 9656      735F7379 
 9656      73656C65 
 9656      6D00
 9657              	.LASF126:
 9658 01b9 7365716E 		.ascii	"seqno\000"
 9658      6F00
 9659              	.LASF46:
 9660 01bf 6E657469 		.ascii	"netif_input_fn\000"
 9660      665F696E 
 9660      7075745F 
 9660      666E00
 9661              	.LASF182:
 9662 01ce 6E65775F 		.ascii	"new_tot_len\000"
 9662      746F745F 
 9662      6C656E00 
 9663              	.LASF11:
 9664 01da 75696E74 		.ascii	"uint32_t\000"
 9664      33325F74 
 9664      00
 9665              	.LASF2:
 9666 01e3 696E7438 		.ascii	"int8_t\000"
 9666      5F7400
 9667              	.LASF81:
 9668 01ea 63776E64 		.ascii	"cwnd\000"
 9668      00
 9669              	.LASF206:
 9670 01ef 7463705F 		.ascii	"tcp_active_pcbs_changed\000"
 9670      61637469 
 9670      76655F70 
 9670      6362735F 
 9670      6368616E 
 9671              	.LASF142:
 9672 0207 4D454D50 		.ascii	"MEMP_TCPIP_MSG_API\000"
 9672      5F544350 
 9672      49505F4D 
 9672      53475F41 
 9672      504900
 9673              	.LASF157:
 9674 021a 6F707465 		.ascii	"opterr\000"
 9674      727200
 9675              	.LASF66:
 9676 0221 6C6F6361 		.ascii	"local_port\000"
 9676      6C5F706F 
 9676      727400
 9677              	.LASF165:
 9678 022c 6D757465 		.ascii	"mutex\000"
 9678      7800
 9679              	.LASF170:
 9680 0232 69705F66 		.ascii	"ip_frag\000"
 9680      72616700 
 9681              	.LASF162:
 9682 023a 696C6C65 		.ascii	"illegal\000"
 9682      67616C00 
 9683              	.LASF5:
 9684 0242 696E7431 		.ascii	"int16_t\000"
ARM GAS  C:\Users\jenny\AppData\Local\Temp\ccsinKfR.s 			page 173


 9684      365F7400 
 9685              	.LASF44:
 9686 024a 68776164 		.ascii	"hwaddr\000"
 9686      647200
 9687              	.LASF169:
 9688 0251 65746861 		.ascii	"etharp\000"
 9688      727000
 9689              	.LASF122:
 9690 0258 7463705F 		.ascii	"tcp_seg\000"
 9690      73656700 
 9691              	.LASF14:
 9692 0260 6C6F6E67 		.ascii	"long long unsigned int\000"
 9692      206C6F6E 
 9692      6720756E 
 9692      7369676E 
 9692      65642069 
 9693              	.LASF202:
 9694 0277 63757272 		.ascii	"current_iphdr_src\000"
 9694      656E745F 
 9694      69706864 
 9694      725F7372 
 9694      6300
 9695              	.LASF56:
 9696 0289 5F63686B 		.ascii	"_chksum\000"
 9696      73756D00 
 9697              	.LASF75:
 9698 0291 7274696D 		.ascii	"rtime\000"
 9698      6500
 9699              	.LASF43:
 9700 0297 68776164 		.ascii	"hwaddr_len\000"
 9700      64725F6C 
 9700      656E00
 9701              	.LASF53:
 9702 02a2 5F6F6666 		.ascii	"_offset\000"
 9702      73657400 
 9703              	.LASF89:
 9704 02aa 61636B65 		.ascii	"acked\000"
 9704      6400
 9705              	.LASF71:
 9706 02b0 7263765F 		.ascii	"rcv_nxt\000"
 9706      6E787400 
 9707              	.LASF143:
 9708 02b8 4D454D50 		.ascii	"MEMP_TCPIP_MSG_INPKT\000"
 9708      5F544350 
 9708      49505F4D 
 9708      53475F49 
 9708      4E504B54 
 9709              	.LASF161:
 9710 02cd 75736564 		.ascii	"used\000"
 9710      00
 9711              	.LASF94:
 9712 02d2 756E6163 		.ascii	"unacked\000"
 9712      6B656400 
 9713              	.LASF167:
 9714 02da 73746174 		.ascii	"stats_\000"
 9714      735F00
 9715              	.LASF184:
ARM GAS  C:\Users\jenny\AppData\Local\Temp\ccsinKfR.s 			page 174


 9716 02e1 6E65775F 		.ascii	"new_cwnd\000"
 9716      63776E64 
 9716      00
 9717              	.LASF120:
 9718 02ea 4C415354 		.ascii	"LAST_ACK\000"
 9718      5F41434B 
 9718      00
 9719              	.LASF28:
 9720 02f3 746F745F 		.ascii	"tot_len\000"
 9720      6C656E00 
 9721              	.LASF27:
 9722 02fb 7061796C 		.ascii	"payload\000"
 9722      6F616400 
 9723              	.LASF247:
 9724 0303 7463705F 		.ascii	"tcp_input\000"
 9724      696E7075 
 9724      7400
 9725              	.LASF191:
 9726 030d 61636365 		.ascii	"acceptable\000"
 9726      70746162 
 9726      6C6500
 9727              	.LASF40:
 9728 0318 6F757470 		.ascii	"output\000"
 9728      757400
 9729              	.LASF99:
 9730 031f 636F6E6E 		.ascii	"connected\000"
 9730      65637465 
 9730      6400
 9731              	.LASF195:
 9732 0329 64726F70 		.ascii	"dropped\000"
 9732      70656400 
 9733              	.LASF15:
 9734 0331 5F426F6F 		.ascii	"_Bool\000"
 9734      6C00
 9735              	.LASF210:
 9736 0337 7463705F 		.ascii	"tcp_tmp_pcb\000"
 9736      746D705F 
 9736      70636200 
 9737              	.LASF227:
 9738 0343 7463705F 		.ascii	"tcp_pcb_purge\000"
 9738      7063625F 
 9738      70757267 
 9738      6500
 9739              	.LASF119:
 9740 0351 434C4F53 		.ascii	"CLOSING\000"
 9740      494E4700 
 9741              	.LASF80:
 9742 0359 6C617374 		.ascii	"lastack\000"
 9742      61636B00 
 9743              	.LASF147:
 9744 0361 4D454D50 		.ascii	"MEMP_MAX\000"
 9744      5F4D4158 
 9744      00
 9745              	.LASF19:
 9746 036a 73385F74 		.ascii	"s8_t\000"
 9746      00
 9747              	.LASF23:
ARM GAS  C:\Users\jenny\AppData\Local\Temp\ccsinKfR.s 			page 175


 9748 036f 7333325F 		.ascii	"s32_t\000"
 9748      7400
 9749              	.LASF244:
 9750 0375 443A5C6A 		.ascii	"D:\\jenny\\dev\\probe\\chibios\\chibios.workspace\\"
 9750      656E6E79 
 9750      5C646576 
 9750      5C70726F 
 9750      62655C63 
 9751 03a2 64656D6F 		.ascii	"demos\\ARMCM4-STM32F407-LWIP-FATFS-USB\000"
 9751      735C4152 
 9751      4D434D34 
 9751      2D53544D 
 9751      33324634 
 9752              	.LASF141:
 9753 03c8 4D454D50 		.ascii	"MEMP_NETCONN\000"
 9753      5F4E4554 
 9753      434F4E4E 
 9753      00
 9754              	.LASF218:
 9755 03d5 70627566 		.ascii	"pbuf_clen\000"
 9755      5F636C65 
 9755      6E00
 9756              	.LASF236:
 9757 03df 6970345F 		.ascii	"ip4_addr_isbroadcast\000"
 9757      61646472 
 9757      5F697362 
 9757      726F6164 
 9757      63617374 
 9758              	.LASF168:
 9759 03f4 6C696E6B 		.ascii	"link\000"
 9759      00
 9760              	.LASF77:
 9761 03f9 72747365 		.ascii	"rtseq\000"
 9761      7100
 9762              	.LASF208:
 9763 03ff 7463705F 		.ascii	"tcp_active_pcbs\000"
 9763      61637469 
 9763      76655F70 
 9763      63627300 
 9764              	.LASF79:
 9765 040f 64757061 		.ascii	"dupacks\000"
 9765      636B7300 
 9766              	.LASF225:
 9767 0417 7463705F 		.ascii	"tcp_output\000"
 9767      6F757470 
 9767      757400
 9768              	.LASF65:
 9769 0422 7072696F 		.ascii	"prio\000"
 9769      00
 9770              	.LASF64:
 9771 0427 61636365 		.ascii	"accept\000"
 9771      707400
 9772              	.LASF145:
 9773 042e 4D454D50 		.ascii	"MEMP_PBUF\000"
 9773      5F504255 
 9773      4600
 9774              	.LASF100:
ARM GAS  C:\Users\jenny\AppData\Local\Temp\ccsinKfR.s 			page 176


 9775 0438 706F6C6C 		.ascii	"poll\000"
 9775      00
 9776              	.LASF17:
 9777 043d 63686172 		.ascii	"char\000"
 9777      00
 9778              	.LASF221:
 9779 0442 70627566 		.ascii	"pbuf_header\000"
 9779      5F686561 
 9779      64657200 
 9780              	.LASF215:
 9781 044e 70627566 		.ascii	"pbuf_realloc\000"
 9781      5F726561 
 9781      6C6C6F63 
 9781      00
 9782              	.LASF24:
 9783 045b 6D656D5F 		.ascii	"mem_size_t\000"
 9783      73697A65 
 9783      5F7400
 9784              	.LASF149:
 9785 0466 73746174 		.ascii	"stats_proto\000"
 9785      735F7072 
 9785      6F746F00 
 9786              	.LASF189:
 9787 0472 7463705F 		.ascii	"tcp_process\000"
 9787      70726F63 
 9787      65737300 
 9788              	.LASF34:
 9789 047e 69705F61 		.ascii	"ip_addr_packed\000"
 9789      6464725F 
 9789      7061636B 
 9789      656400
 9790              	.LASF118:
 9791 048d 434C4F53 		.ascii	"CLOSE_WAIT\000"
 9791      455F5741 
 9791      495400
 9792              	.LASF199:
 9793 0498 7463706C 		.ascii	"tcplen\000"
 9793      656E00
 9794              	.LASF97:
 9795 049f 73656E74 		.ascii	"sent\000"
 9795      00
 9796              	.LASF3:
 9797 04a4 75696E74 		.ascii	"uint8_t\000"
 9797      385F7400 
 9798              	.LASF84:
 9799 04ac 736E645F 		.ascii	"snd_wl1\000"
 9799      776C3100 
 9800              	.LASF85:
 9801 04b4 736E645F 		.ascii	"snd_wl2\000"
 9801      776C3200 
 9802              	.LASF220:
 9803 04bc 7463705F 		.ascii	"tcp_seg_copy\000"
 9803      7365675F 
 9803      636F7079 
 9803      00
 9804              	.LASF55:
 9805 04c9 5F70726F 		.ascii	"_proto\000"
ARM GAS  C:\Users\jenny\AppData\Local\Temp\ccsinKfR.s 			page 177


 9805      746F00
 9806              	.LASF109:
 9807 04d0 7463705F 		.ascii	"tcp_err_fn\000"
 9807      6572725F 
 9807      666E00
 9808              	.LASF186:
 9809 04db 7463705F 		.ascii	"tcp_timewait_input\000"
 9809      74696D65 
 9809      77616974 
 9809      5F696E70 
 9809      757400
 9810              	.LASF246:
 9811 04ee 7463705F 		.ascii	"tcp_listen_pcbs_t\000"
 9811      6C697374 
 9811      656E5F70 
 9811      6362735F 
 9811      7400
 9812              	.LASF235:
 9813 0500 70627566 		.ascii	"pbuf_free\000"
 9813      5F667265 
 9813      6500
 9814              	.LASF86:
 9815 050a 736E645F 		.ascii	"snd_lbb\000"
 9815      6C626200 
 9816              	.LASF241:
 9817 0512 7463705F 		.ascii	"tcp_recv_null\000"
 9817      72656376 
 9817      5F6E756C 
 9817      6C00
 9818              	.LASF140:
 9819 0520 4D454D50 		.ascii	"MEMP_NETBUF\000"
 9819      5F4E4554 
 9819      42554600 
 9820              	.LASF38:
 9821 052c 6E65746D 		.ascii	"netmask\000"
 9821      61736B00 
 9822              	.LASF13:
 9823 0534 6C6F6E67 		.ascii	"long long int\000"
 9823      206C6F6E 
 9823      6720696E 
 9823      7400
 9824              	.LASF124:
 9825 0542 7463705F 		.ascii	"tcp_pcb_listen\000"
 9825      7063625F 
 9825      6C697374 
 9825      656E00
 9826              	.LASF127:
 9827 0551 61636B6E 		.ascii	"ackno\000"
 9827      6F00
 9828              	.LASF204:
 9829 0557 7463705F 		.ascii	"tcp_input_pcb\000"
 9829      696E7075 
 9829      745F7063 
 9829      6200
 9830              	.LASF104:
 9831 0565 70657273 		.ascii	"persist_backoff\000"
 9831      6973745F 
ARM GAS  C:\Users\jenny\AppData\Local\Temp\ccsinKfR.s 			page 178


 9831      6261636B 
 9831      6F666600 
 9832              	.LASF135:
 9833 0575 4D454D50 		.ascii	"MEMP_TCP_PCB\000"
 9833      5F544350 
 9833      5F504342 
 9833      00
 9834              	.LASF172:
 9835 0582 6D656D70 		.ascii	"memp\000"
 9835      00
 9836              	.LASF18:
 9837 0587 75385F74 		.ascii	"u8_t\000"
 9837      00
 9838              	.LASF50:
 9839 058c 5F765F68 		.ascii	"_v_hl\000"
 9839      6C00
 9840              	.LASF222:
 9841 0592 7463705F 		.ascii	"tcp_update_rcv_ann_wnd\000"
 9841      75706461 
 9841      74655F72 
 9841      63765F61 
 9841      6E6E5F77 
 9842              	.LASF181:
 9843 05a9 72696768 		.ascii	"right_wnd_edge\000"
 9843      745F776E 
 9843      645F6564 
 9843      676500
 9844              	.LASF231:
 9845 05b8 7463705F 		.ascii	"tcp_timer_needed\000"
 9845      74696D65 
 9845      725F6E65 
 9845      65646564 
 9845      00
 9846              	.LASF67:
 9847 05c9 72656D6F 		.ascii	"remote_port\000"
 9847      74655F70 
 9847      6F727400 
 9848              	.LASF207:
 9849 05d5 7463705F 		.ascii	"tcp_listen_pcbs\000"
 9849      6C697374 
 9849      656E5F70 
 9849      63627300 
 9850              	.LASF73:
 9851 05e5 7263765F 		.ascii	"rcv_ann_wnd\000"
 9851      616E6E5F 
 9851      776E6400 
 9852              	.LASF152:
 9853 05f1 63686B65 		.ascii	"chkerr\000"
 9853      727200
 9854              	.LASF190:
 9855 05f8 72736567 		.ascii	"rseg\000"
 9855      00
 9856              	.LASF138:
 9857 05fd 4D454D50 		.ascii	"MEMP_REASSDATA\000"
 9857      5F524541 
 9857      53534441 
 9857      544100
ARM GAS  C:\Users\jenny\AppData\Local\Temp\ccsinKfR.s 			page 179


 9858              	.LASF106:
 9859 060c 7463705F 		.ascii	"tcp_recv_fn\000"
 9859      72656376 
 9859      5F666E00 
 9860              	.LASF248:
 9861 0618 7463705F 		.ascii	"tcp_abort\000"
 9861      61626F72 
 9861      7400
 9862              	.LASF242:
 9863 0622 474E5520 		.ascii	"GNU C 4.7.4 20130913 (release) [ARM/embedded-4_7-br"
 9863      4320342E 
 9863      372E3420 
 9863      32303133 
 9863      30393133 
 9864 0655 616E6368 		.ascii	"anch revision 202601]\000"
 9864      20726576 
 9864      6973696F 
 9864      6E203230 
 9864      32363031 
 9865              	.LASF108:
 9866 066b 7463705F 		.ascii	"tcp_poll_fn\000"
 9866      706F6C6C 
 9866      5F666E00 
 9867              	.LASF228:
 9868 0677 7463705F 		.ascii	"tcp_eff_send_mss\000"
 9868      6566665F 
 9868      73656E64 
 9868      5F6D7373 
 9868      00
 9869              	.LASF7:
 9870 0688 75696E74 		.ascii	"uint16_t\000"
 9870      31365F74 
 9870      00
 9871              	.LASF101:
 9872 0691 65727266 		.ascii	"errf\000"
 9872      00
 9873              	.LASF87:
 9874 0696 736E645F 		.ascii	"snd_wnd\000"
 9874      776E6400 
 9875              	.LASF214:
 9876 069e 7463705F 		.ascii	"tcp_seg_free\000"
 9876      7365675F 
 9876      66726565 
 9876      00
 9877              	.LASF226:
 9878 06ab 7463705F 		.ascii	"tcp_rst\000"
 9878      72737400 
 9879              	.LASF200:
 9880 06b3 72656376 		.ascii	"recv_flags\000"
 9880      5F666C61 
 9880      677300
 9881              	.LASF95:
 9882 06be 6F6F7365 		.ascii	"ooseq\000"
 9882      7100
 9883              	.LASF212:
 9884 06c4 6C776970 		.ascii	"lwip_ntohs\000"
 9884      5F6E746F 
ARM GAS  C:\Users\jenny\AppData\Local\Temp\ccsinKfR.s 			page 180


 9884      687300
 9885              	.LASF111:
 9886 06cf 434C4F53 		.ascii	"CLOSED\000"
 9886      454400
 9887              	.LASF22:
 9888 06d6 7533325F 		.ascii	"u32_t\000"
 9888      7400
 9889              	.LASF6:
 9890 06dc 73686F72 		.ascii	"short int\000"
 9890      7420696E 
 9890      7400
 9891              	.LASF171:
 9892 06e6 69636D70 		.ascii	"icmp\000"
 9892      00
 9893              	.LASF10:
 9894 06eb 6C6F6E67 		.ascii	"long int\000"
 9894      20696E74 
 9894      00
 9895              	.LASF237:
 9896 06f4 696E6574 		.ascii	"inet_chksum_pseudo\000"
 9896      5F63686B 
 9896      73756D5F 
 9896      70736575 
 9896      646F00
 9897              	.LASF155:
 9898 0707 72746572 		.ascii	"rterr\000"
 9898      7200
 9899              	.LASF160:
 9900 070d 61766169 		.ascii	"avail\000"
 9900      6C00
 9901              	.LASF196:
 9902 0713 61626F72 		.ascii	"aborted\000"
 9902      74656400 
 9903              	.LASF93:
 9904 071b 756E7365 		.ascii	"unsent\000"
 9904      6E7400
 9905              	.LASF72:
 9906 0722 7263765F 		.ascii	"rcv_wnd\000"
 9906      776E6400 
 9907              	.LASF76:
 9908 072a 72747465 		.ascii	"rttest\000"
 9908      737400
 9909              	.LASF243:
 9910 0731 2E2E2F2E 		.ascii	"../../ext/lwip/src/core/tcp_in.c\000"
 9910      2E2F6578 
 9910      742F6C77 
 9910      69702F73 
 9910      72632F63 
 9911              	.LASF219:
 9912 0752 7463705F 		.ascii	"tcp_send_empty_ack\000"
 9912      73656E64 
 9912      5F656D70 
 9912      74795F61 
 9912      636B00
 9913              	.LASF174:
 9914 0765 6F707473 		.ascii	"opts\000"
 9914      00
ARM GAS  C:\Users\jenny\AppData\Local\Temp\ccsinKfR.s 			page 181


 9915              	.LASF187:
 9916 076a 7463705F 		.ascii	"tcp_listen_input\000"
 9916      6C697374 
 9916      656E5F69 
 9916      6E707574 
 9916      00
 9917              	.LASF144:
 9918 077b 4D454D50 		.ascii	"MEMP_SYS_TIMEOUT\000"
 9918      5F535953 
 9918      5F54494D 
 9918      454F5554 
 9918      00
 9919              	.LASF70:
 9920 078c 6C617374 		.ascii	"last_timer\000"
 9920      5F74696D 
 9920      657200
 9921              	.LASF134:
 9922 0797 4D454D50 		.ascii	"MEMP_UDP_PCB\000"
 9922      5F554450 
 9922      5F504342 
 9922      00
 9923              	.LASF60:
 9924 07a4 6C6F6361 		.ascii	"local_ip\000"
 9924      6C5F6970 
 9924      00
 9925              	.LASF166:
 9926 07ad 6D626F78 		.ascii	"mbox\000"
 9926      00
 9927              	.LASF92:
 9928 07b2 756E7365 		.ascii	"unsent_oversize\000"
 9928      6E745F6F 
 9928      76657273 
 9928      697A6500 
 9929              	.LASF113:
 9930 07c2 53594E5F 		.ascii	"SYN_SENT\000"
 9930      53454E54 
 9930      00
 9931              	.LASF158:
 9932 07cb 63616368 		.ascii	"cachehit\000"
 9932      65686974 
 9932      00
 9933              	.LASF83:
 9934 07d4 736E645F 		.ascii	"snd_nxt\000"
 9934      6E787400 
 9935              	.LASF115:
 9936 07dc 45535441 		.ascii	"ESTABLISHED\000"
 9936      424C4953 
 9936      48454400 
 9937              	.LASF49:
 9938 07e8 69705F68 		.ascii	"ip_hdr\000"
 9938      647200
 9939              	.LASF88:
 9940 07ef 736E645F 		.ascii	"snd_wnd_max\000"
 9940      776E645F 
 9940      6D617800 
 9941              	.LASF45:
 9942 07fb 6E616D65 		.ascii	"name\000"
ARM GAS  C:\Users\jenny\AppData\Local\Temp\ccsinKfR.s 			page 182


 9942      00
 9943              	.LASF48:
 9944 0800 6E657469 		.ascii	"netif_linkoutput_fn\000"
 9944      665F6C69 
 9944      6E6B6F75 
 9944      74707574 
 9944      5F666E00 
 9945              	.LASF139:
 9946 0814 4D454D50 		.ascii	"MEMP_FRAG_PBUF\000"
 9946      5F465241 
 9946      475F5042 
 9946      554600
 9947              	.LASF82:
 9948 0823 73737468 		.ascii	"ssthresh\000"
 9948      72657368 
 9948      00
 9949              	.LASF90:
 9950 082c 736E645F 		.ascii	"snd_buf\000"
 9950      62756600 
 9951              	.LASF69:
 9952 0834 706F6C6C 		.ascii	"pollinterval\000"
 9952      696E7465 
 9952      7276616C 
 9952      00
 9953              	.LASF133:
 9954 0841 4D454D50 		.ascii	"MEMP_RAW_PCB\000"
 9954      5F524157 
 9954      5F504342 
 9954      00
 9955              	.LASF128:
 9956 084e 5F686472 		.ascii	"_hdrlen_rsvd_flags\000"
 9956      6C656E5F 
 9956      72737664 
 9956      5F666C61 
 9956      677300
 9957              	.LASF153:
 9958 0861 6C656E65 		.ascii	"lenerr\000"
 9958      727200
 9959              	.LASF51:
 9960 0868 5F746F73 		.ascii	"_tos\000"
 9960      00
 9961              	.LASF16:
 9962 086d 73697A65 		.ascii	"sizetype\000"
 9962      74797065 
 9962      00
 9963              	.LASF12:
 9964 0876 6C6F6E67 		.ascii	"long unsigned int\000"
 9964      20756E73 
 9964      69676E65 
 9964      6420696E 
 9964      7400
 9965              	.LASF205:
 9966 0888 7463705F 		.ascii	"tcp_ticks\000"
 9966      7469636B 
 9966      7300
 9967              	.LASF201:
 9968 0892 72656376 		.ascii	"recv_data\000"
ARM GAS  C:\Users\jenny\AppData\Local\Temp\ccsinKfR.s 			page 183


 9968      5F646174 
 9968      6100
 9969              	.LASF123:
 9970 089c 74637068 		.ascii	"tcphdr\000"
 9970      647200
 9971              	.LASF21:
 9972 08a3 7331365F 		.ascii	"s16_t\000"
 9972      7400
 9973              	.LASF9:
 9974 08a9 696E7433 		.ascii	"int32_t\000"
 9974      325F7400 
 9975              	.LASF179:
 9976 08b1 7463705F 		.ascii	"tcp_receive\000"
 9976      72656365 
 9976      69766500 
 9977              	.LASF96:
 9978 08bd 72656675 		.ascii	"refused_data\000"
 9978      7365645F 
 9978      64617461 
 9978      00
 9979              	.LASF156:
 9980 08ca 70726F74 		.ascii	"proterr\000"
 9980      65727200 
 9981              	.LASF125:
 9982 08d2 7463705F 		.ascii	"tcp_hdr\000"
 9982      68647200 
 9983              	.LASF29:
 9984 08da 74797065 		.ascii	"type\000"
 9984      00
 9985              	.LASF164:
 9986 08df 73746174 		.ascii	"stats_sys\000"
 9986      735F7379 
 9986      7300
 9987              	.LASF4:
 9988 08e9 756E7369 		.ascii	"unsigned char\000"
 9988      676E6564 
 9988      20636861 
 9988      7200
 9989              	.LASF116:
 9990 08f7 46494E5F 		.ascii	"FIN_WAIT_1\000"
 9990      57414954 
 9990      5F3100
 9991              	.LASF117:
 9992 0902 46494E5F 		.ascii	"FIN_WAIT_2\000"
 9992      57414954 
 9992      5F3200
 9993              	.LASF154:
 9994 090d 6D656D65 		.ascii	"memerr\000"
 9994      727200
 9995              	.LASF137:
 9996 0914 4D454D50 		.ascii	"MEMP_TCP_SEG\000"
 9996      5F544350 
 9996      5F534547 
 9996      00
 9997              	.LASF31:
 9998 0921 70627566 		.ascii	"pbuf\000"
 9998      00
ARM GAS  C:\Users\jenny\AppData\Local\Temp\ccsinKfR.s 			page 184


 9999              	.LASF36:
 10000 0926 69705F61 		.ascii	"ip_addr_p_t\000"
 10000      6464725F 
 10000      705F7400 
 10001              	.LASF102:
 10002 0932 6B656570 		.ascii	"keep_idle\000"
 10002      5F69646C 
 10002      6500
 10003              	.LASF173:
 10004 093c 6D61785F 		.ascii	"max_c\000"
 10004      6300
 10005              	.LASF63:
 10006 0942 63616C6C 		.ascii	"callback_arg\000"
 10006      6261636B 
 10006      5F617267 
 10006      00
 10007              	.LASF230:
 10008 094f 706F7274 		.ascii	"port_halt\000"
 10008      5F68616C 
 10008      7400
 10009              	.LASF112:
 10010 0959 4C495354 		.ascii	"LISTEN\000"
 10010      454E00
 10011              	.LASF33:
 10012 0960 61646472 		.ascii	"addr\000"
 10012      00
 10013              	.LASF151:
 10014 0965 64726F70 		.ascii	"drop\000"
 10014      00
 10015              	.LASF42:
 10016 096a 73746174 		.ascii	"state\000"
 10016      6500
 10017              	.LASF37:
 10018 0970 6E657469 		.ascii	"netif\000"
 10018      6600
 10019              	.LASF91:
 10020 0976 736E645F 		.ascii	"snd_queuelen\000"
 10020      71756575 
 10020      656C656E 
 10020      00
 10021              	.LASF129:
 10022 0983 63686B73 		.ascii	"chksum\000"
 10022      756D00
 10023              	.LASF193:
 10024 098a 6C706362 		.ascii	"lpcb\000"
 10024      00
 10025              	.LASF198:
 10026 098f 69706864 		.ascii	"iphdr\000"
 10026      7200
 10027              	.LASF240:
 10028 0995 6D656D70 		.ascii	"memp_free\000"
 10028      5F667265 
 10028      6500
 10029              	.LASF98:
 10030 099f 72656376 		.ascii	"recv\000"
 10030      00
 10031              	.LASF194:
ARM GAS  C:\Users\jenny\AppData\Local\Temp\ccsinKfR.s 			page 185


 10032 09a4 6864726C 		.ascii	"hdrlen\000"
 10032      656E00
 10033              	.LASF1:
 10034 09ab 7369676E 		.ascii	"signed char\000"
 10034      65642063 
 10034      68617200 
 10035              	.LASF59:
 10036 09b7 7463705F 		.ascii	"tcp_pcb\000"
 10036      70636200 
 10037              	.LASF8:
 10038 09bf 73686F72 		.ascii	"short unsigned int\000"
 10038      7420756E 
 10038      7369676E 
 10038      65642069 
 10038      6E7400
 10039              	.LASF150:
 10040 09d2 786D6974 		.ascii	"xmit\000"
 10040      00
 10041              	.LASF103:
 10042 09d7 70657273 		.ascii	"persist_cnt\000"
 10042      6973745F 
 10042      636E7400 
 10043              	.LASF203:
 10044 09e3 63757272 		.ascii	"current_iphdr_dest\000"
 10044      656E745F 
 10044      69706864 
 10044      725F6465 
 10044      737400
 10045              	.LASF61:
 10046 09f6 72656D6F 		.ascii	"remote_ip\000"
 10046      74655F69 
 10046      7000
 10047              	.LASF209:
 10048 0a00 7463705F 		.ascii	"tcp_tw_pcbs\000"
 10048      74775F70 
 10048      63627300 
 10049              	.LASF234:
 10050 0a0c 7463705F 		.ascii	"tcp_abandon\000"
 10050      6162616E 
 10050      646F6E00 
 10051              	.LASF224:
 10052 0a18 7463705F 		.ascii	"tcp_rexmit_fast\000"
 10052      7265786D 
 10052      69745F66 
 10052      61737400 
 10053              	.LASF52:
 10054 0a28 5F6C656E 		.ascii	"_len\000"
 10054      00
 10055              	.LASF35:
 10056 0a2d 69705F61 		.ascii	"ip_addr_t\000"
 10056      6464725F 
 10056      7400
 10057              	.LASF216:
 10058 0a37 7463705F 		.ascii	"tcp_segs_free\000"
 10058      73656773 
 10058      5F667265 
 10058      6500
ARM GAS  C:\Users\jenny\AppData\Local\Temp\ccsinKfR.s 			page 186


 10059              	.LASF245:
 10060 0a45 7463705F 		.ascii	"tcp_state\000"
 10060      73746174 
 10060      6500
 10061              	.LASF223:
 10062 0a4f 70627566 		.ascii	"pbuf_cat\000"
 10062      5F636174 
 10062      00
 10063              	.LASF148:
 10064 0a58 6D656D70 		.ascii	"memp_t\000"
 10064      5F7400
 10065              	.LASF232:
 10066 0a5f 7463705F 		.ascii	"tcp_alloc\000"
 10066      616C6C6F 
 10066      6300
 10067              	.LASF175:
 10068 0a69 7463705F 		.ascii	"tcp_parseopt\000"
 10068      70617273 
 10068      656F7074 
 10068      00
 10069              	.LASF78:
 10070 0a76 6E727478 		.ascii	"nrtx\000"
 10070      00
 10071              	.LASF57:
 10072 0a7b 64657374 		.ascii	"dest\000"
 10072      00
 10073              	.LASF114:
 10074 0a80 53594E5F 		.ascii	"SYN_RCVD\000"
 10074      52435644 
 10074      00
 10075              	.LASF32:
 10076 0a89 69705F61 		.ascii	"ip_addr\000"
 10076      64647200 
 10077              	.LASF132:
 10078 0a91 70636273 		.ascii	"pcbs\000"
 10078      00
 10079              		.ident	"GCC: (GNU Tools for ARM Embedded Processors) 4.7.4 20130913 (release) [ARM/embedded-4_7-br
ARM GAS  C:\Users\jenny\AppData\Local\Temp\ccsinKfR.s 			page 187


DEFINED SYMBOLS
                            *ABS*:00000000 tcp_in.c
C:\Users\jenny\AppData\Local\Temp\ccsinKfR.s:20     .text.tcp_parseopt:00000000 $t
C:\Users\jenny\AppData\Local\Temp\ccsinKfR.s:25     .text.tcp_parseopt:00000000 tcp_parseopt
C:\Users\jenny\AppData\Local\Temp\ccsinKfR.s:150    .text.tcp_parseopt:00000088 $d
C:\Users\jenny\AppData\Local\Temp\ccsinKfR.s:155    .text.tcp_oos_insert_segment:00000000 $t
C:\Users\jenny\AppData\Local\Temp\ccsinKfR.s:160    .text.tcp_oos_insert_segment:00000000 tcp_oos_insert_segment
C:\Users\jenny\AppData\Local\Temp\ccsinKfR.s:297    .text.tcp_oos_insert_segment:000000a4 $d
C:\Users\jenny\AppData\Local\Temp\ccsinKfR.s:302    .text.tcp_receive:00000000 $t
C:\Users\jenny\AppData\Local\Temp\ccsinKfR.s:307    .text.tcp_receive:00000000 tcp_receive
C:\Users\jenny\AppData\Local\Temp\ccsinKfR.s:754    .text.tcp_receive:000002a0 $d
C:\Users\jenny\AppData\Local\Temp\ccsinKfR.s:764    .text.tcp_receive:000002bc $t
C:\Users\jenny\AppData\Local\Temp\ccsinKfR.s:1356   .text.tcp_receive:0000068c $d
C:\Users\jenny\AppData\Local\Temp\ccsinKfR.s:1364   .text.tcp_receive:0000069c $t
C:\Users\jenny\AppData\Local\Temp\ccsinKfR.s:1849   .text.tcp_receive:00000970 $d
C:\Users\jenny\AppData\Local\Temp\ccsinKfR.s:1857   .text.tcp_receive:00000984 $t
C:\Users\jenny\AppData\Local\Temp\ccsinKfR.s:1894   .text.tcp_input:00000000 $t
C:\Users\jenny\AppData\Local\Temp\ccsinKfR.s:1900   .text.tcp_input:00000000 tcp_input
C:\Users\jenny\AppData\Local\Temp\ccsinKfR.s:3640   .bss.seqno:00000000 .LANCHOR1
C:\Users\jenny\AppData\Local\Temp\ccsinKfR.s:3647   .bss.tcplen:00000000 .LANCHOR4
C:\Users\jenny\AppData\Local\Temp\ccsinKfR.s:3660   .bss.flags:00000000 .LANCHOR2
C:\Users\jenny\AppData\Local\Temp\ccsinKfR.s:2304   .text.tcp_input:0000026c $d
C:\Users\jenny\AppData\Local\Temp\ccsinKfR.s:2317   .text.tcp_input:00000298 $t
C:\Users\jenny\AppData\Local\Temp\ccsinKfR.s:2739   .text.tcp_input:0000055c $d
C:\Users\jenny\AppData\Local\Temp\ccsinKfR.s:2750   .text.tcp_input:0000056c $t
C:\Users\jenny\AppData\Local\Temp\ccsinKfR.s:2816   .text.tcp_input:000005f8 $d
C:\Users\jenny\AppData\Local\Temp\ccsinKfR.s:2825   .text.tcp_input:00000614 $t
C:\Users\jenny\AppData\Local\Temp\ccsinKfR.s:3257   .text.tcp_input:000008f8 $d
C:\Users\jenny\AppData\Local\Temp\ccsinKfR.s:3266   .text.tcp_input:00000908 $t
C:\Users\jenny\AppData\Local\Temp\ccsinKfR.s:3618   .text.tcp_input:00000b00 $d
C:\Users\jenny\AppData\Local\Temp\ccsinKfR.s:3697   .bss.tcp_input_pcb:00000000 tcp_input_pcb
C:\Users\jenny\AppData\Local\Temp\ccsinKfR.s:3632   .bss.tcphdr:00000000 $d
C:\Users\jenny\AppData\Local\Temp\ccsinKfR.s:3636   .bss.tcphdr:00000000 tcphdr
C:\Users\jenny\AppData\Local\Temp\ccsinKfR.s:3639   .bss.seqno:00000000 $d
C:\Users\jenny\AppData\Local\Temp\ccsinKfR.s:3643   .bss.seqno:00000000 seqno
C:\Users\jenny\AppData\Local\Temp\ccsinKfR.s:3646   .bss.tcplen:00000000 $d
C:\Users\jenny\AppData\Local\Temp\ccsinKfR.s:3650   .bss.tcplen:00000000 tcplen
C:\Users\jenny\AppData\Local\Temp\ccsinKfR.s:3653   .bss.ackno:00000000 $d
C:\Users\jenny\AppData\Local\Temp\ccsinKfR.s:3657   .bss.ackno:00000000 ackno
C:\Users\jenny\AppData\Local\Temp\ccsinKfR.s:3663   .bss.flags:00000000 flags
C:\Users\jenny\AppData\Local\Temp\ccsinKfR.s:3664   .bss.flags:00000000 $d
C:\Users\jenny\AppData\Local\Temp\ccsinKfR.s:3669   .bss.recv_flags:00000000 recv_flags
C:\Users\jenny\AppData\Local\Temp\ccsinKfR.s:3670   .bss.recv_flags:00000000 $d
C:\Users\jenny\AppData\Local\Temp\ccsinKfR.s:3672   .bss.recv_data:00000000 $d
C:\Users\jenny\AppData\Local\Temp\ccsinKfR.s:3676   .bss.recv_data:00000000 recv_data
C:\Users\jenny\AppData\Local\Temp\ccsinKfR.s:3679   .bss.iphdr:00000000 $d
C:\Users\jenny\AppData\Local\Temp\ccsinKfR.s:3683   .bss.iphdr:00000000 iphdr
C:\Users\jenny\AppData\Local\Temp\ccsinKfR.s:3686   .bss.inseg:00000000 $d
C:\Users\jenny\AppData\Local\Temp\ccsinKfR.s:3690   .bss.inseg:00000000 inseg
C:\Users\jenny\AppData\Local\Temp\ccsinKfR.s:3693   .bss.tcp_input_pcb:00000000 $d
                     .debug_frame:00000010 $d
C:\Users\jenny\AppData\Local\Temp\ccsinKfR.s:154    .text.tcp_parseopt:0000008c $t
C:\Users\jenny\AppData\Local\Temp\ccsinKfR.s:301    .text.tcp_oos_insert_segment:000000a8 $t
C:\Users\jenny\AppData\Local\Temp\ccsinKfR.s:3631   .text.tcp_input:00000b1c $t

UNDEFINED SYMBOLS
lwip_ntohs
ARM GAS  C:\Users\jenny\AppData\Local\Temp\ccsinKfR.s 			page 188


tcp_seg_free
lwip_htons
pbuf_realloc
tcp_segs_free
lwip_ntohl
pbuf_clen
tcp_send_empty_ack
port_halt
tcp_seg_copy
tcp_ticks
pbuf_header
tcp_update_rcv_ann_wnd
pbuf_cat
tcp_rexmit_fast
pbuf_free
ip4_addr_isbroadcast
inet_chksum_pseudo
tcp_active_pcbs
tcp_process_refused_data
lwip_stats
current_iphdr_src
tcp_tw_pcbs
current_iphdr_dest
tcp_output
tcp_pcb_remove
memp_free
tcp_alloc
tcp_timer_needed
tcp_eff_send_mss
tcp_enqueue_flags
tcp_pcb_purge
tcp_active_pcbs_changed
tcp_tmp_pcb
tcp_listen_pcbs
tcp_rst
tcp_abandon
tcp_recv_null
tcp_abort
tcp_rexmit
