ARM GAS  C:\Users\jenny\AppData\Local\Temp\ccsinKfR.s 			page 1


   1              		.syntax unified
   2              		.cpu cortex-m4
   3              		.eabi_attribute 27, 3
   4              		.fpu fpv4-sp-d16
   5              		.eabi_attribute 20, 1
   6              		.eabi_attribute 21, 1
   7              		.eabi_attribute 23, 3
   8              		.eabi_attribute 24, 1
   9              		.eabi_attribute 25, 1
  10              		.eabi_attribute 26, 1
  11              		.eabi_attribute 30, 2
  12              		.eabi_attribute 34, 1
  13              		.eabi_attribute 18, 4
  14              		.thumb
  15              		.file	"tcp_in.c"
  16              		.text
  17              	.Ltext0:
  18              		.cfi_sections	.debug_frame
  19              		.section	.text.tcp_parseopt,"ax",%progbits
  20              		.align	2
  21              		.p2align 4,,15
  22              		.thumb
  23              		.thumb_func
  24              		.type	tcp_parseopt, %function
  25              	tcp_parseopt:
  26              	.LFB13:
  27              		.file 1 "../../ext/lwip/src/core/tcp_in.c"
  28              		.loc 1 1543 0
  29              		.cfi_startproc
  30              		@ args = 0, pretend = 0, frame = 0
  31              		@ frame_needed = 0, uses_anonymous_args = 0
  32              	.LVL0:
  33 0000 70B5     		push	{r4, r5, r6, lr}
  34              	.LCFI0:
  35              		.cfi_def_cfa_offset 16
  36              		.cfi_offset 4, -16
  37              		.cfi_offset 5, -12
  38              		.cfi_offset 6, -8
  39              		.cfi_offset 14, -4
  40              		.loc 1 1551 0
  41 0002 214C     		ldr	r4, .L24
  42 0004 2568     		ldr	r5, [r4, #0]
  43              	.LVL1:
  44              		.loc 1 1543 0
  45 0006 0646     		mov	r6, r0
  46              		.loc 1 1554 0
  47 0008 A889     		ldrh	r0, [r5, #12]	@ unaligned
  48              	.LVL2:
  49 000a FFF7FEFF 		bl	lwip_ntohs
  50              	.LVL3:
  51 000e C0F30F30 		ubfx	r0, r0, #12, #16
  52 0012 0528     		cmp	r0, #5
  53 0014 00D8     		bhi	.L21
  54              	.LVL4:
  55              	.L1:
  56 0016 70BD     		pop	{r4, r5, r6, pc}
  57              	.LVL5:
ARM GAS  C:\Users\jenny\AppData\Local\Temp\ccsinKfR.s 			page 2


  58              	.L21:
  59              		.loc 1 1555 0
  60 0018 2368     		ldr	r3, [r4, #0]
  61 001a 9889     		ldrh	r0, [r3, #12]	@ unaligned
  62 001c FFF7FEFF 		bl	lwip_ntohs
  63              	.LVL6:
  64 0020 010B     		lsrs	r1, r0, #12
  65 0022 4C1F     		subs	r4, r1, #5
  66 0024 A200     		lsls	r2, r4, #2
  67 0026 94B2     		uxth	r4, r2
  68              	.LVL7:
  69              		.loc 1 1556 0
  70 0028 002C     		cmp	r4, #0
  71 002a F4D0     		beq	.L1
  72 002c 0023     		movs	r3, #0
  73              		.loc 1 1551 0
  74 002e 05F11401 		add	r1, r5, #20
  75              		.loc 1 1578 0
  76 0032 40F21720 		movw	r0, #535
  77              	.LVL8:
  78              		.loc 1 1558 0
  79 0036 CA5C     		ldrb	r2, [r1, r3]	@ zero_extendqisi2
  80              	.LVL9:
  81 0038 012A     		cmp	r2, #1
  82 003a 0DD0     		beq	.L6
  83              	.LVL10:
  84              	.L23:
  85 003c EBD3     		bcc	.L1
  86 003e 022A     		cmp	r2, #2
  87 0040 0DD0     		beq	.L22
  88              		.loc 1 1605 0
  89 0042 CA18     		adds	r2, r1, r3
  90 0044 5278     		ldrb	r2, [r2, #1]	@ zero_extendqisi2
  91 0046 002A     		cmp	r2, #0
  92 0048 E5D0     		beq	.L1
  93              		.loc 1 1613 0
  94 004a D318     		adds	r3, r2, r3
  95 004c 9BB2     		uxth	r3, r3
  96              	.LVL11:
  97              	.L8:
  98              		.loc 1 1556 0 discriminator 1
  99 004e 9C42     		cmp	r4, r3
 100 0050 E1D9     		bls	.L1
 101              	.LVL12:
 102              		.loc 1 1558 0
 103 0052 CA5C     		ldrb	r2, [r1, r3]	@ zero_extendqisi2
 104 0054 012A     		cmp	r2, #1
 105 0056 F1D1     		bne	.L23
 106              	.LVL13:
 107              	.L6:
 108              		.loc 1 1565 0
 109 0058 5A1C     		adds	r2, r3, #1
 110 005a 93B2     		uxth	r3, r2
 111              	.LVL14:
 112              		.loc 1 1567 0
 113 005c F7E7     		b	.L8
 114              	.LVL15:
ARM GAS  C:\Users\jenny\AppData\Local\Temp\ccsinKfR.s 			page 3


 115              	.L22:
 116              		.loc 1 1570 0
 117 005e CA18     		adds	r2, r1, r3
 118 0060 5578     		ldrb	r5, [r2, #1]	@ zero_extendqisi2
 119 0062 042D     		cmp	r5, #4
 120 0064 D7D1     		bne	.L1
 121              		.loc 1 1570 0 is_stmt 0 discriminator 1
 122 0066 DD1C     		adds	r5, r3, #3
 123 0068 A542     		cmp	r5, r4
 124 006a D4DA     		bge	.L1
 125              		.loc 1 1576 0 is_stmt 1
 126 006c 9578     		ldrb	r5, [r2, #2]	@ zero_extendqisi2
 127 006e D278     		ldrb	r2, [r2, #3]	@ zero_extendqisi2
 128 0070 42EA0522 		orr	r2, r2, r5, lsl #8
 129              	.LVL16:
 130              		.loc 1 1578 0
 131 0074 551E     		subs	r5, r2, #1
 132 0076 ADB2     		uxth	r5, r5
 133 0078 8542     		cmp	r5, r0
 134 007a 88BF     		it	hi
 135 007c 4FF40672 		movhi	r2, #536
 136              	.LVL17:
 137              		.loc 1 1580 0
 138 0080 0433     		adds	r3, r3, #4
 139              	.LVL18:
 140              		.loc 1 1578 0
 141 0082 F286     		strh	r2, [r6, #54]	@ movhi
 142              		.loc 1 1580 0
 143 0084 9BB2     		uxth	r3, r3
 144              	.LVL19:
 145              		.loc 1 1581 0
 146 0086 E2E7     		b	.L8
 147              	.L25:
 148              		.align	2
 149              	.L24:
 150 0088 00000000 		.word	.LANCHOR0
 151              		.cfi_endproc
 152              	.LFE13:
 153              		.size	tcp_parseopt, .-tcp_parseopt
 154 008c AFF30080 		.section	.text.tcp_oos_insert_segment,"ax",%progbits
 155              		.align	2
 156              		.p2align 4,,15
 157              		.thumb
 158              		.thumb_func
 159              		.type	tcp_oos_insert_segment, %function
 160              	tcp_oos_insert_segment:
 161              	.LFB11:
 162              		.loc 1 801 0
 163              		.cfi_startproc
 164              		@ args = 0, pretend = 0, frame = 0
 165              		@ frame_needed = 0, uses_anonymous_args = 0
 166              	.LVL20:
 167 0000 2DE9F041 		push	{r4, r5, r6, r7, r8, lr}
 168              	.LCFI1:
 169              		.cfi_def_cfa_offset 24
 170              		.cfi_offset 4, -24
 171              		.cfi_offset 5, -20
ARM GAS  C:\Users\jenny\AppData\Local\Temp\ccsinKfR.s 			page 4


 172              		.cfi_offset 6, -16
 173              		.cfi_offset 7, -12
 174              		.cfi_offset 8, -8
 175              		.cfi_offset 14, -4
 176              		.loc 1 804 0
 177 0004 C368     		ldr	r3, [r0, #12]
 178              		.loc 1 801 0
 179 0006 0746     		mov	r7, r0
 180              		.loc 1 804 0
 181 0008 9889     		ldrh	r0, [r3, #12]	@ unaligned
 182              	.LVL21:
 183              		.loc 1 801 0
 184 000a 0D46     		mov	r5, r1
 185              		.loc 1 804 0
 186 000c FFF7FEFF 		bl	lwip_ntohs
 187              	.LVL22:
 188 0010 C207     		lsls	r2, r0, #31
 189 0012 43D4     		bmi	.L27
 190              		.loc 1 812 0 discriminator 1
 191 0014 002D     		cmp	r5, #0
 192 0016 32D0     		beq	.L45
 193              		.loc 1 813 0
 194 0018 EB68     		ldr	r3, [r5, #12]
 195 001a DFF88880 		ldr	r8, .L47
 196 001e 5A68     		ldr	r2, [r3, #4]	@ unaligned
 197 0020 3E89     		ldrh	r6, [r7, #8]
 198 0022 D8F80010 		ldr	r1, [r8, #0]
 199 0026 2889     		ldrh	r0, [r5, #8]
 200 0028 B61A     		subs	r6, r6, r2
 201 002a 7618     		adds	r6, r6, r1
 202 002c 301A     		subs	r0, r6, r0
 203              		.loc 1 812 0
 204 002e 0028     		cmp	r0, #0
 205 0030 B8BF     		it	lt
 206 0032 2C46     		movlt	r4, r5
 207 0034 11DA     		bge	.L43
 208 0036 26E0     		b	.L31
 209              	.L32:
 210              	.LVL23:
 211              		.loc 1 820 0
 212 0038 2C68     		ldr	r4, [r5, #0]
 213              	.LVL24:
 214              		.loc 1 821 0
 215 003a 2846     		mov	r0, r5
 216 003c FFF7FEFF 		bl	tcp_seg_free
 217              	.LVL25:
 218              		.loc 1 812 0
 219 0040 ECB1     		cbz	r4, .L45
 220              	.L46:
 221              		.loc 1 813 0 discriminator 2
 222 0042 E368     		ldr	r3, [r4, #12]
 223 0044 3E89     		ldrh	r6, [r7, #8]
 224 0046 5A68     		ldr	r2, [r3, #4]	@ unaligned
 225 0048 D8F80010 		ldr	r1, [r8, #0]
 226 004c 2089     		ldrh	r0, [r4, #8]
 227 004e B61A     		subs	r6, r6, r2
 228 0050 7618     		adds	r6, r6, r1
ARM GAS  C:\Users\jenny\AppData\Local\Temp\ccsinKfR.s 			page 5


 229 0052 301A     		subs	r0, r6, r0
 230              		.loc 1 812 0 discriminator 2
 231 0054 0028     		cmp	r0, #0
 232 0056 16DB     		blt	.L31
 233              		.loc 1 812 0 is_stmt 0
 234 0058 2546     		mov	r5, r4
 235              	.LVL26:
 236              	.L43:
 237              		.loc 1 816 0 is_stmt 1
 238 005a 9889     		ldrh	r0, [r3, #12]	@ unaligned
 239 005c FFF7FEFF 		bl	lwip_ntohs
 240              	.LVL27:
 241 0060 C307     		lsls	r3, r0, #31
 242 0062 E9D5     		bpl	.L32
 243              		.loc 1 817 0
 244 0064 FC68     		ldr	r4, [r7, #12]
 245 0066 0120     		movs	r0, #1
 246 0068 A689     		ldrh	r6, [r4, #12]	@ unaligned
 247 006a FFF7FEFF 		bl	lwip_htons
 248              	.LVL28:
 249 006e 3043     		orrs	r0, r0, r6
 250 0070 A081     		strh	r0, [r4, #12]	@ unaligned
 251              	.LVL29:
 252              		.loc 1 820 0
 253 0072 2C68     		ldr	r4, [r5, #0]
 254              	.LVL30:
 255              		.loc 1 821 0
 256 0074 2846     		mov	r0, r5
 257 0076 FFF7FEFF 		bl	tcp_seg_free
 258              	.LVL31:
 259              		.loc 1 812 0
 260 007a 002C     		cmp	r4, #0
 261 007c E1D1     		bne	.L46
 262              	.LVL32:
 263              	.L45:
 264              		.loc 1 807 0
 265 007e 0024     		movs	r4, #0
 266              	.LVL33:
 267              	.L29:
 268              		.loc 1 830 0
 269 0080 3C60     		str	r4, [r7, #0]
 270 0082 BDE8F081 		pop	{r4, r5, r6, r7, r8, pc}
 271              	.LVL34:
 272              	.L31:
 273              		.loc 1 823 0
 274 0086 002E     		cmp	r6, #0
 275 0088 FADD     		ble	.L29
 276              		.loc 1 826 0
 277 008a 531A     		subs	r3, r2, r1
 278 008c 99B2     		uxth	r1, r3
 279 008e 3981     		strh	r1, [r7, #8]	@ movhi
 280              		.loc 1 827 0
 281 0090 7868     		ldr	r0, [r7, #4]
 282 0092 FFF7FEFF 		bl	pbuf_realloc
 283              	.LVL35:
 284              		.loc 1 830 0
 285 0096 3C60     		str	r4, [r7, #0]
ARM GAS  C:\Users\jenny\AppData\Local\Temp\ccsinKfR.s 			page 6


 286 0098 BDE8F081 		pop	{r4, r5, r6, r7, r8, pc}
 287              	.LVL36:
 288              	.L27:
 289              		.loc 1 806 0
 290 009c 2846     		mov	r0, r5
 291 009e FFF7FEFF 		bl	tcp_segs_free
 292              	.LVL37:
 293 00a2 ECE7     		b	.L45
 294              	.L48:
 295              		.align	2
 296              	.L47:
 297 00a4 00000000 		.word	.LANCHOR1
 298              		.cfi_endproc
 299              	.LFE11:
 300              		.size	tcp_oos_insert_segment, .-tcp_oos_insert_segment
 301 00a8 AFF30080 		.section	.text.tcp_receive,"ax",%progbits
 301      AFF30080 
 302              		.align	2
 303              		.p2align 4,,15
 304              		.thumb
 305              		.thumb_func
 306              		.type	tcp_receive, %function
 307              	tcp_receive:
 308              	.LFB12:
 309              		.loc 1 848 0
 310              		.cfi_startproc
 311              		@ args = 0, pretend = 0, frame = 0
 312              		@ frame_needed = 0, uses_anonymous_args = 0
 313              	.LVL38:
 314 0000 2DE9F84F 		push	{r3, r4, r5, r6, r7, r8, r9, sl, fp, lr}
 315              	.LCFI2:
 316              		.cfi_def_cfa_offset 40
 317              		.cfi_offset 3, -40
 318              		.cfi_offset 4, -36
 319              		.cfi_offset 5, -32
 320              		.cfi_offset 6, -28
 321              		.cfi_offset 7, -24
 322              		.cfi_offset 8, -20
 323              		.cfi_offset 9, -16
 324              		.cfi_offset 10, -12
 325              		.cfi_offset 11, -8
 326              		.cfi_offset 14, -4
 327              		.loc 1 864 0
 328 0004 037E     		ldrb	r3, [r0, #24]	@ zero_extendqisi2
 329 0006 032B     		cmp	r3, #3
 330              		.loc 1 848 0
 331 0008 0446     		mov	r4, r0
 332              		.loc 1 864 0
 333 000a 40F2F480 		bls	.L254
 334              	.LVL39:
 335              	.L50:
 336              		.loc 1 866 0
 337 000e A448     		ldr	r0, .L289
 338              		.loc 1 870 0
 339 0010 DFF8A082 		ldr	r8, .L289+20
 340              		.loc 1 866 0
 341 0014 0178     		ldrb	r1, [r0, #0]	@ zero_extendqisi2
ARM GAS  C:\Users\jenny\AppData\Local\Temp\ccsinKfR.s 			page 7


 342 0016 01F01002 		and	r2, r1, #16
 343 001a D3B2     		uxtb	r3, r2
 344 001c 03BB     		cbnz	r3, .L51
 345 001e DFF89892 		ldr	r9, .L289+24
 346              	.LVL40:
 347              	.L52:
 348              		.loc 1 1120 0
 349 0022 B9F80030 		ldrh	r3, [r9, #0]
 350 0026 1BB1     		cbz	r3, .L96
 351              		.loc 1 1120 0 is_stmt 0 discriminator 1
 352 0028 207E     		ldrb	r0, [r4, #24]	@ zero_extendqisi2
 353 002a 0628     		cmp	r0, #6
 354 002c 40F2AE80 		bls	.L255
 355              	.L96:
 356              		.loc 1 1527 0 is_stmt 1
 357 0030 D8F80020 		ldr	r2, [r8, #0]
 358 0034 A36A     		ldr	r3, [r4, #40]
 359 0036 D11A     		subs	r1, r2, r3
 360 0038 0029     		cmp	r1, #0
 361 003a 05DB     		blt	.L158
 362              		.loc 1 1527 0 is_stmt 0 discriminator 1
 363 003c 501C     		adds	r0, r2, #1
 364 003e A28D     		ldrh	r2, [r4, #44]
 365 0040 C31A     		subs	r3, r0, r3
 366 0042 991A     		subs	r1, r3, r2
 367 0044 0029     		cmp	r1, #0
 368 0046 09DD     		ble	.L49
 369              	.L158:
 370              		.loc 1 1528 0 is_stmt 1
 371 0048 A07F     		ldrb	r0, [r4, #30]	@ zero_extendqisi2
 372 004a 40F00202 		orr	r2, r0, #2
 373 004e A277     		strb	r2, [r4, #30]
 374 0050 BDE8F88F 		pop	{r3, r4, r5, r6, r7, r8, r9, sl, fp, pc}
 375              	.L271:
 376              		.loc 1 1454 0 discriminator 1
 377 0054 CB1A     		subs	r3, r1, r3
 378              		.loc 1 1453 0 discriminator 1
 379 0056 002B     		cmp	r3, #0
 380 0058 00F34A82 		bgt	.L256
 381              	.LVL41:
 382              	.L49:
 383 005c BDE8F88F 		pop	{r3, r4, r5, r6, r7, r8, r9, sl, fp, pc}
 384              	.LVL42:
 385              	.L51:
 386              		.loc 1 870 0
 387 0060 676D     		ldr	r7, [r4, #84]
 388 0062 D8F80020 		ldr	r2, [r8, #0]
 389              		.loc 1 867 0
 390 0066 B4F86050 		ldrh	r5, [r4, #96]
 391 006a A06D     		ldr	r0, [r4, #88]
 392              	.LVL43:
 393 006c 8D4E     		ldr	r6, .L289+4
 394              		.loc 1 870 0
 395 006e B91A     		subs	r1, r7, r2
 396 0070 0029     		cmp	r1, #0
 397 0072 C0F2C380 		blt	.L257
 398              		.loc 1 870 0 is_stmt 0 discriminator 1
ARM GAS  C:\Users\jenny\AppData\Local\Temp\ccsinKfR.s 			page 8


 399 0076 9742     		cmp	r7, r2
 400              		.loc 1 871 0 is_stmt 1 discriminator 1
 401 0078 3368     		ldr	r3, [r6, #0]
 402              		.loc 1 870 0 discriminator 1
 403 007a 00F0B981 		beq	.L55
 404              	.L56:
 405              		.loc 1 871 0 discriminator 1
 406 007e 9842     		cmp	r0, r3
 407 0080 00F0BE81 		beq	.L258
 408              	.L57:
 409              		.loc 1 924 0
 410 0084 A26C     		ldr	r2, [r4, #72]
 411 0086 991A     		subs	r1, r3, r2
 412 0088 0029     		cmp	r1, #0
 413 008a 40F39681 		ble	.L259
 414              		.loc 1 957 0
 415 008e D043     		mvns	r0, r2
 416              	.LVL44:
 417 0090 C342     		cmn	r3, r0
 418 0092 04D4     		bmi	.L66
 419              		.loc 1 957 0 is_stmt 0 discriminator 1
 420 0094 276D     		ldr	r7, [r4, #80]
 421 0096 DA1B     		subs	r2, r3, r7
 422 0098 002A     		cmp	r2, #0
 423 009a 40F30F81 		ble	.L260
 424              	.L66:
 425              		.loc 1 1046 0 is_stmt 1
 426 009e 0023     		movs	r3, #0
 427 00a0 DFF81492 		ldr	r9, .L289+24
 428 00a4 E26E     		ldr	r2, [r4, #108]
 429 00a6 A4F86430 		strh	r3, [r4, #100]	@ movhi
 430              	.LVL45:
 431              	.L81:
 432              		.loc 1 1056 0 discriminator 1
 433 00aa 7E4F     		ldr	r7, .L289+4
 434              		.loc 1 1055 0 discriminator 1
 435 00ac 002A     		cmp	r2, #0
 436 00ae 41D0     		beq	.L93
 437              	.L209:
 438              		.loc 1 1056 0 discriminator 2
 439 00b0 D168     		ldr	r1, [r2, #12]
 440 00b2 3568     		ldr	r5, [r6, #0]
 441 00b4 4868     		ldr	r0, [r1, #4]	@ unaligned
 442 00b6 FFF7FEFF 		bl	lwip_ntohl
 443              	.LVL46:
 444 00ba E26E     		ldr	r2, [r4, #108]
 445 00bc D368     		ldr	r3, [r2, #12]
 446 00be B2F808A0 		ldrh	sl, [r2, #8]
 447 00c2 8346     		mov	fp, r0
 448 00c4 9889     		ldrh	r0, [r3, #12]	@ unaligned
 449 00c6 FFF7FEFF 		bl	lwip_ntohs
 450              	.LVL47:
 451 00ca 10F00300 		ands	r0, r0, #3
 452 00ce 18BF     		it	ne
 453 00d0 0120     		movne	r0, #1
 454 00d2 CBEB0505 		rsb	r5, fp, r5
 455 00d6 0AEB0001 		add	r1, sl, r0
ARM GAS  C:\Users\jenny\AppData\Local\Temp\ccsinKfR.s 			page 9


 456 00da 6A1A     		subs	r2, r5, r1
 457              		.loc 1 1055 0 discriminator 2
 458 00dc 002A     		cmp	r2, #0
 459 00de 29DB     		blt	.L93
 460              		.loc 1 1056 0
 461 00e0 3868     		ldr	r0, [r7, #0]
 462 00e2 236D     		ldr	r3, [r4, #80]
 463 00e4 C11A     		subs	r1, r0, r3
 464 00e6 0029     		cmp	r1, #0
 465 00e8 24DC     		bgt	.L93
 466              		.loc 1 1062 0
 467 00ea E56E     		ldr	r5, [r4, #108]
 468              	.LVL48:
 469              		.loc 1 1063 0
 470 00ec 2868     		ldr	r0, [r5, #0]
 471 00ee E066     		str	r0, [r4, #108]
 472              		.loc 1 1065 0
 473 00f0 0028     		cmp	r0, #0
 474 00f2 76D0     		beq	.L261
 475              	.L82:
 476              		.loc 1 1070 0
 477 00f4 6868     		ldr	r0, [r5, #4]
 478 00f6 B4F868A0 		ldrh	sl, [r4, #104]
 479 00fa FFF7FEFF 		bl	pbuf_clen
 480              	.LVL49:
 481 00fe 8245     		cmp	sl, r0
 482 0100 6CD3     		bcc	.L262
 483              	.L83:
 484              		.loc 1 1072 0
 485 0102 B4F86410 		ldrh	r1, [r4, #100]
 486 0106 0029     		cmp	r1, #0
 487 0108 5CD1     		bne	.L263
 488              	.L85:
 489              		.loc 1 1075 0
 490 010a 6868     		ldr	r0, [r5, #4]
 491 010c B4F868A0 		ldrh	sl, [r4, #104]
 492 0110 FFF7FEFF 		bl	pbuf_clen
 493              	.LVL50:
 494 0114 C0EB0A01 		rsb	r1, r0, sl
 495 0118 A4F86810 		strh	r1, [r4, #104]	@ movhi
 496              		.loc 1 1076 0
 497 011c 2846     		mov	r0, r5
 498 011e FFF7FEFF 		bl	tcp_seg_free
 499              	.LVL51:
 500              		.loc 1 1078 0
 501 0122 B4F86820 		ldrh	r2, [r4, #104]
 502 0126 12B1     		cbz	r2, .L245
 503              		.loc 1 1079 0
 504 0128 236F     		ldr	r3, [r4, #112]
 505 012a 002B     		cmp	r3, #0
 506 012c 5CD0     		beq	.L89
 507              	.L245:
 508 012e E26E     		ldr	r2, [r4, #108]
 509              		.loc 1 1055 0 discriminator 2
 510 0130 002A     		cmp	r2, #0
 511 0132 BDD1     		bne	.L209
 512              	.LVL52:
ARM GAS  C:\Users\jenny\AppData\Local\Temp\ccsinKfR.s 			page 10


 513              	.L93:
 514              		.loc 1 1091 0
 515 0134 A36B     		ldr	r3, [r4, #56]
 516 0136 002B     		cmp	r3, #0
 517 0138 3FF473AF 		beq	.L52
 518              		.loc 1 1091 0 is_stmt 0 discriminator 1
 519 013c E26B     		ldr	r2, [r4, #60]
 520 013e 3068     		ldr	r0, [r6, #0]
 521 0140 111A     		subs	r1, r2, r0
 522 0142 0029     		cmp	r1, #0
 523 0144 BFF66DAF 		bge	.L52
 524              	.LVL53:
 525              		.loc 1 1094 0 is_stmt 1
 526 0148 574A     		ldr	r2, .L289+8
 527              	.LVL54:
 528              		.loc 1 1100 0
 529 014a B4F84010 		ldrh	r1, [r4, #64]
 530              		.loc 1 1094 0
 531 014e 1068     		ldr	r0, [r2, #0]
 532              		.loc 1 1100 0
 533 0150 41F3CC02 		sbfx	r2, r1, #3, #13
 534              	.LVL55:
 535              		.loc 1 1094 0
 536 0154 C31A     		subs	r3, r0, r3
 537              	.LVL56:
 538              		.loc 1 1100 0
 539 0156 981A     		subs	r0, r3, r2
 540 0158 82B2     		uxth	r2, r0
 541              		.loc 1 1101 0
 542 015a 5118     		adds	r1, r2, r1
 543              		.loc 1 1100 0
 544 015c 93B2     		uxth	r3, r2
 545              	.LVL57:
 546              		.loc 1 1101 0
 547 015e 89B2     		uxth	r1, r1
 548              		.loc 1 1102 0
 549 0160 1804     		lsls	r0, r3, #16
 550              		.loc 1 1101 0
 551 0162 A4F84010 		strh	r1, [r4, #64]	@ movhi
 552              		.loc 1 1102 0
 553 0166 00F1C081 		bmi	.L264
 554              	.LVL58:
 555              	.L95:
 556              		.loc 1 1105 0
 557 016a B4F84220 		ldrh	r2, [r4, #66]
 558              	.LVL59:
 559 016e 42F38D00 		sbfx	r0, r2, #2, #14
 560 0172 121A     		subs	r2, r2, r0
 561              	.LVL60:
 562              		.loc 1 1106 0
 563 0174 D318     		adds	r3, r2, r3
 564              	.LVL61:
 565 0176 98B2     		uxth	r0, r3
 566              		.loc 1 1107 0
 567 0178 41F3CC01 		sbfx	r1, r1, #3, #13
 568 017c 4218     		adds	r2, r0, r1
 569              		.loc 1 1112 0
ARM GAS  C:\Users\jenny\AppData\Local\Temp\ccsinKfR.s 			page 11


 570 017e 0023     		movs	r3, #0
 571              		.loc 1 1106 0
 572 0180 A4F84200 		strh	r0, [r4, #66]	@ movhi
 573              		.loc 1 1107 0
 574 0184 A4F84420 		strh	r2, [r4, #68]	@ movhi
 575              		.loc 1 1112 0
 576 0188 A363     		str	r3, [r4, #56]
 577 018a 4AE7     		b	.L52
 578              	.L255:
 579              		.loc 1 1151 0
 580 018c D8F80020 		ldr	r2, [r8, #0]
 581 0190 A16A     		ldr	r1, [r4, #40]
 582 0192 D043     		mvns	r0, r2
 583 0194 C842     		cmn	r0, r1
 584 0196 05D4     		bmi	.L97
 585              		.loc 1 1151 0 is_stmt 0 discriminator 1
 586 0198 481C     		adds	r0, r1, #1
 587 019a 801A     		subs	r0, r0, r2
 588 019c C31A     		subs	r3, r0, r3
 589 019e 002B     		cmp	r3, #0
 590 01a0 40F33681 		ble	.L265
 591              	.L97:
 592              		.loc 1 1202 0 is_stmt 1
 593 01a4 501A     		subs	r0, r2, r1
 594 01a6 0028     		cmp	r0, #0
 595 01a8 C0F2F380 		blt	.L266
 596              	.L107:
 597              		.loc 1 1214 0 discriminator 1
 598 01ac A08D     		ldrh	r0, [r4, #44]
 599 01ae C0F10103 		rsb	r3, r0, #1
 600 01b2 9818     		adds	r0, r3, r2
 601 01b4 431A     		subs	r3, r0, r1
 602 01b6 002B     		cmp	r3, #0
 603 01b8 3CDD     		ble	.L267
 604              	.L108:
 605              		.loc 1 1520 0
 606 01ba 2046     		mov	r0, r4
 607              		.loc 1 1531 0
 608 01bc BDE8F84F 		pop	{r3, r4, r5, r6, r7, r8, r9, sl, fp, lr}
 609              		.loc 1 1520 0
 610 01c0 FFF7FEBF 		b	tcp_send_empty_ack
 611              	.LVL62:
 612              	.L263:
 613              		.loc 1 1072 0 discriminator 1
 614 01c4 EA68     		ldr	r2, [r5, #12]
 615 01c6 9089     		ldrh	r0, [r2, #12]	@ unaligned
 616 01c8 FFF7FEFF 		bl	lwip_ntohs
 617              	.LVL63:
 618 01cc C307     		lsls	r3, r0, #31
 619 01ce 9CD5     		bpl	.L85
 620              		.loc 1 1073 0
 621 01d0 B4F86430 		ldrh	r3, [r4, #100]
 622 01d4 581E     		subs	r0, r3, #1
 623 01d6 A4F86400 		strh	r0, [r4, #100]	@ movhi
 624 01da 96E7     		b	.L85
 625              	.L262:
 626              		.loc 1 1070 0 discriminator 1
ARM GAS  C:\Users\jenny\AppData\Local\Temp\ccsinKfR.s 			page 12


 627 01dc FFF7FEFF 		bl	port_halt
 628              	.LVL64:
 629 01e0 8FE7     		b	.L83
 630              	.L261:
 631              		.loc 1 1066 0
 632 01e2 A4F86A00 		strh	r0, [r4, #106]	@ movhi
 633 01e6 85E7     		b	.L82
 634              	.L89:
 635              		.loc 1 1079 0 discriminator 1
 636 01e8 E26E     		ldr	r2, [r4, #108]
 637 01ea 002A     		cmp	r2, #0
 638 01ec 7FF460AF 		bne	.L209
 639              		.loc 1 1079 0 is_stmt 0 discriminator 2
 640 01f0 FFF7FEFF 		bl	port_halt
 641              	.LVL65:
 642 01f4 9BE7     		b	.L245
 643              	.LVL66:
 644              	.L254:
 645              		.loc 1 864 0 is_stmt 1 discriminator 1
 646 01f6 FFF7FEFF 		bl	port_halt
 647              	.LVL67:
 648 01fa 08E7     		b	.L50
 649              	.LVL68:
 650              	.L257:
 651 01fc 2B4B     		ldr	r3, .L289+12
 652 01fe 1F68     		ldr	r7, [r3, #0]
 653 0200 3368     		ldr	r3, [r6, #0]
 654 0202 F989     		ldrh	r1, [r7, #14]	@ unaligned
 655              	.L54:
 656              		.loc 1 876 0
 657 0204 B4F86270 		ldrh	r7, [r4, #98]
 658              		.loc 1 879 0
 659 0208 6265     		str	r2, [r4, #84]
 660              		.loc 1 876 0
 661 020a 8F42     		cmp	r7, r1
 662              		.loc 1 873 0
 663 020c A4F86010 		strh	r1, [r4, #96]	@ movhi
 664              		.loc 1 877 0
 665 0210 38BF     		it	cc
 666 0212 A4F86210 		strhcc	r1, [r4, #98]	@ movhi
 667              		.loc 1 880 0
 668 0216 A365     		str	r3, [r4, #88]
 669              		.loc 1 882 0
 670 0218 94F89520 		ldrb	r2, [r4, #149]	@ zero_extendqisi2
 671              		.loc 1 881 0
 672 021c 0029     		cmp	r1, #0
 673 021e 40F0E080 		bne	.L59
 674              		.loc 1 882 0
 675 0222 002A     		cmp	r2, #0
 676 0224 7FF42EAF 		bne	.L57
 677              		.loc 1 885 0
 678 0228 0127     		movs	r7, #1
 679              		.loc 1 884 0
 680 022a 84F89410 		strb	r1, [r4, #148]
 681              		.loc 1 885 0
 682 022e 84F89570 		strb	r7, [r4, #149]
 683 0232 27E7     		b	.L57
ARM GAS  C:\Users\jenny\AppData\Local\Temp\ccsinKfR.s 			page 13


 684              	.LVL69:
 685              	.L267:
 686              		.loc 1 1216 0
 687 0234 8A42     		cmp	r2, r1
 688 0236 00F0BA81 		beq	.L268
 689              		.loc 1 1369 0
 690 023a 2046     		mov	r0, r4
 691 023c FFF7FEFF 		bl	tcp_send_empty_ack
 692              	.LVL70:
 693              		.loc 1 1372 0
 694 0240 656F     		ldr	r5, [r4, #116]
 695 0242 002D     		cmp	r5, #0
 696 0244 00F08683 		beq	.L269
 697 0248 D8F80010 		ldr	r1, [r8, #0]
 698 024c 0026     		movs	r6, #0
 699              		.loc 1 1431 0
 700 024e 4F1C     		adds	r7, r1, #1
 701 0250 0EE0     		b	.L155
 702              	.L152:
 703 0252 F268     		ldr	r2, [r6, #12]
 704 0254 5268     		ldr	r2, [r2, #4]	@ unaligned
 705 0256 D243     		mvns	r2, r2
 706 0258 CA42     		cmn	r2, r1
 707 025a 03D4     		bmi	.L153
 708              		.loc 1 1431 0 is_stmt 0 discriminator 1
 709 025c BCF1000F 		cmp	ip, #0
 710 0260 40F3D882 		ble	.L270
 711              	.L153:
 712              		.loc 1 1453 0 is_stmt 1
 713 0264 2A68     		ldr	r2, [r5, #0]
 714 0266 2E46     		mov	r6, r5
 715 0268 002A     		cmp	r2, #0
 716 026a 3FF4F3AE 		beq	.L271
 717 026e 1546     		mov	r5, r2
 718              	.L155:
 719              		.loc 1 1389 0
 720 0270 E868     		ldr	r0, [r5, #12]
 721 0272 4368     		ldr	r3, [r0, #4]	@ unaligned
 722 0274 8B42     		cmp	r3, r1
 723              		.loc 1 1431 0
 724 0276 C3EB070C 		rsb	ip, r3, r7
 725              		.loc 1 1389 0
 726 027a 00F0AD82 		beq	.L272
 727              		.loc 1 1415 0
 728 027e 002E     		cmp	r6, #0
 729 0280 E7D1     		bne	.L152
 730              		.loc 1 1416 0
 731 0282 CA1A     		subs	r2, r1, r3
 732 0284 002A     		cmp	r2, #0
 733 0286 EDDA     		bge	.L153
 734              		.loc 1 1421 0
 735 0288 0948     		ldr	r0, .L289+16
 736 028a FFF7FEFF 		bl	tcp_seg_copy
 737              	.LVL71:
 738              		.loc 1 1422 0
 739 028e 0028     		cmp	r0, #0
 740 0290 3FF4E4AE 		beq	.L49
ARM GAS  C:\Users\jenny\AppData\Local\Temp\ccsinKfR.s 			page 14


 741              		.loc 1 1423 0
 742 0294 6067     		str	r0, [r4, #116]
 743              	.L249:
 744              		.loc 1 1424 0
 745 0296 2946     		mov	r1, r5
 746              		.loc 1 1531 0
 747 0298 BDE8F84F 		pop	{r3, r4, r5, r6, r7, r8, r9, sl, fp, lr}
 748              		.loc 1 1424 0
 749 029c FFF7FEBF 		b	tcp_oos_insert_segment
 750              	.LVL72:
 751              	.L290:
 752              		.align	2
 753              	.L289:
 754 02a0 00000000 		.word	.LANCHOR2
 755 02a4 00000000 		.word	.LANCHOR3
 756 02a8 00000000 		.word	tcp_ticks
 757 02ac 00000000 		.word	.LANCHOR0
 758 02b0 00000000 		.word	.LANCHOR5
 759 02b4 00000000 		.word	.LANCHOR1
 760 02b8 00000000 		.word	.LANCHOR4
 761              	.LVL73:
 762              	.L260:
 763              		.loc 1 963 0
 764 02bc A57F     		ldrb	r5, [r4, #30]	@ zero_extendqisi2
 765              	.LVL74:
 766 02be 05F00400 		and	r0, r5, #4
 767 02c2 C7B2     		uxtb	r7, r0
 768 02c4 37B1     		cbz	r7, .L67
 769              		.loc 1 965 0
 770 02c6 B4F84E00 		ldrh	r0, [r4, #78]
 771              		.loc 1 964 0
 772 02ca 25F00402 		bic	r2, r5, #4
 773 02ce A277     		strb	r2, [r4, #30]
 774              		.loc 1 965 0
 775 02d0 A4F84C00 		strh	r0, [r4, #76]	@ movhi
 776              	.L67:
 777              		.loc 1 977 0
 778 02d4 B4F86600 		ldrh	r0, [r4, #102]
 779              		.loc 1 972 0
 780 02d8 B4F94070 		ldrsh	r7, [r4, #64]
 781 02dc B4F84250 		ldrh	r5, [r4, #66]
 782              		.loc 1 985 0
 783 02e0 227E     		ldrb	r2, [r4, #24]	@ zero_extendqisi2
 784              		.loc 1 981 0
 785 02e2 A364     		str	r3, [r4, #72]
 786              		.loc 1 975 0
 787 02e4 89B2     		uxth	r1, r1
 788              		.loc 1 969 0
 789 02e6 0023     		movs	r3, #0
 790              		.loc 1 972 0
 791 02e8 05EBE705 		add	r5, r5, r7, asr #3
 792              		.loc 1 977 0
 793 02ec 0818     		adds	r0, r1, r0
 794              		.loc 1 985 0
 795 02ee 032A     		cmp	r2, #3
 796              		.loc 1 969 0
 797 02f0 84F84630 		strb	r3, [r4, #70]
ARM GAS  C:\Users\jenny\AppData\Local\Temp\ccsinKfR.s 			page 15


 798              		.loc 1 972 0
 799 02f4 A4F84450 		strh	r5, [r4, #68]	@ movhi
 800              		.loc 1 975 0
 801 02f8 A4F86410 		strh	r1, [r4, #100]	@ movhi
 802              		.loc 1 977 0
 803 02fc A4F86600 		strh	r0, [r4, #102]	@ movhi
 804              		.loc 1 980 0
 805 0300 84F84730 		strb	r3, [r4, #71]
 806              		.loc 1 985 0
 807 0304 00F2C180 		bhi	.L273
 808              	.LVL75:
 809              	.L243:
 810 0308 276F     		ldr	r7, [r4, #112]
 811              		.loc 1 1008 0 discriminator 2
 812 030a 002F     		cmp	r7, #0
 813 030c 00F04681 		beq	.L244
 814              	.L210:
 815              		.loc 1 1009 0 discriminator 2
 816 0310 FD68     		ldr	r5, [r7, #12]
 817 0312 6868     		ldr	r0, [r5, #4]	@ unaligned
 818 0314 FFF7FEFF 		bl	lwip_ntohl
 819              	.LVL76:
 820 0318 216F     		ldr	r1, [r4, #112]
 821 031a CA68     		ldr	r2, [r1, #12]
 822 031c 0D89     		ldrh	r5, [r1, #8]
 823 031e 0746     		mov	r7, r0
 824 0320 9089     		ldrh	r0, [r2, #12]	@ unaligned
 825 0322 FFF7FEFF 		bl	lwip_ntohs
 826              	.LVL77:
 827 0326 3368     		ldr	r3, [r6, #0]
 828 0328 10F00300 		ands	r0, r0, #3
 829 032c 18BF     		it	ne
 830 032e 0120     		movne	r0, #1
 831 0330 FF1A     		subs	r7, r7, r3
 832 0332 2918     		adds	r1, r5, r0
 833 0334 7A18     		adds	r2, r7, r1
 834              		.loc 1 1008 0 discriminator 2
 835 0336 002A     		cmp	r2, #0
 836 0338 00F33281 		bgt	.L274
 837              		.loc 1 1016 0
 838 033c 256F     		ldr	r5, [r4, #112]
 839              	.LVL78:
 840              		.loc 1 1020 0
 841 033e B4F86870 		ldrh	r7, [r4, #104]
 842              		.loc 1 1017 0
 843 0342 2968     		ldr	r1, [r5, #0]
 844              		.loc 1 1020 0
 845 0344 6868     		ldr	r0, [r5, #4]
 846              		.loc 1 1017 0
 847 0346 2167     		str	r1, [r4, #112]
 848              		.loc 1 1020 0
 849 0348 FFF7FEFF 		bl	pbuf_clen
 850              	.LVL79:
 851 034c 8742     		cmp	r7, r0
 852 034e 31D3     		bcc	.L275
 853              	.L71:
 854              		.loc 1 1022 0
ARM GAS  C:\Users\jenny\AppData\Local\Temp\ccsinKfR.s 			page 16


 855 0350 B4F86420 		ldrh	r2, [r4, #100]
 856 0354 12BB     		cbnz	r2, .L276
 857              	.L73:
 858              		.loc 1 1026 0
 859 0356 6868     		ldr	r0, [r5, #4]
 860 0358 B4F86870 		ldrh	r7, [r4, #104]
 861 035c FFF7FEFF 		bl	pbuf_clen
 862              	.LVL80:
 863 0360 391A     		subs	r1, r7, r0
 864 0362 A4F86810 		strh	r1, [r4, #104]	@ movhi
 865              		.loc 1 1027 0
 866 0366 2846     		mov	r0, r5
 867 0368 FFF7FEFF 		bl	tcp_seg_free
 868              	.LVL81:
 869              		.loc 1 1030 0
 870 036c B4F86820 		ldrh	r2, [r4, #104]
 871 0370 002A     		cmp	r2, #0
 872 0372 C9D0     		beq	.L243
 873              		.loc 1 1031 0
 874 0374 276F     		ldr	r7, [r4, #112]
 875 0376 002F     		cmp	r7, #0
 876 0378 CAD1     		bne	.L210
 877              		.loc 1 1031 0 is_stmt 0 discriminator 1
 878 037a E26E     		ldr	r2, [r4, #108]
 879 037c 002A     		cmp	r2, #0
 880 037e 00F0B182 		beq	.L277
 881              	.LVL82:
 882              	.L80:
 883              		.loc 1 1039 0 is_stmt 1
 884 0382 4FF6FF70 		movw	r0, #65535
 885 0386 A086     		strh	r0, [r4, #52]	@ movhi
 886              	.L78:
 887              		.loc 1 1043 0
 888 0388 0027     		movs	r7, #0
 889 038a E777     		strb	r7, [r4, #31]
 890 038c DFF80893 		ldr	r9, .L291+12
 891 0390 8BE6     		b	.L81
 892              	.LVL83:
 893              	.L266:
 894              		.loc 1 1207 0
 895 0392 A27F     		ldrb	r2, [r4, #30]	@ zero_extendqisi2
 896 0394 42F00201 		orr	r1, r2, #2
 897 0398 A177     		strb	r1, [r4, #30]
 898 039a 0EE7     		b	.L108
 899              	.LVL84:
 900              	.L276:
 901              		.loc 1 1022 0 discriminator 1
 902 039c EB68     		ldr	r3, [r5, #12]
 903 039e 9889     		ldrh	r0, [r3, #12]	@ unaligned
 904 03a0 FFF7FEFF 		bl	lwip_ntohs
 905              	.LVL85:
 906 03a4 C207     		lsls	r2, r0, #31
 907 03a6 D6D5     		bpl	.L73
 908              		.loc 1 1023 0
 909 03a8 B4F86400 		ldrh	r0, [r4, #100]
 910 03ac 471E     		subs	r7, r0, #1
 911 03ae A4F86470 		strh	r7, [r4, #100]	@ movhi
ARM GAS  C:\Users\jenny\AppData\Local\Temp\ccsinKfR.s 			page 17


 912 03b2 D0E7     		b	.L73
 913              	.L275:
 914              		.loc 1 1020 0 discriminator 1
 915 03b4 FFF7FEFF 		bl	port_halt
 916              	.LVL86:
 917 03b8 CAE7     		b	.L71
 918              	.LVL87:
 919              	.L259:
 920              		.loc 1 927 0
 921 03ba DFF8DC92 		ldr	r9, .L291+12
 922 03be B9F80010 		ldrh	r1, [r9, #0]
 923              		.loc 1 925 0
 924 03c2 0027     		movs	r7, #0
 925 03c4 A4F86470 		strh	r7, [r4, #100]	@ movhi
 926              		.loc 1 927 0
 927 03c8 31B9     		cbnz	r1, .L61
 928              		.loc 1 929 0
 929 03ca B4F86070 		ldrh	r7, [r4, #96]
 930 03ce A16D     		ldr	r1, [r4, #88]
 931              		.loc 1 867 0
 932 03d0 2818     		adds	r0, r5, r0
 933              	.LVL88:
 934              		.loc 1 929 0
 935 03d2 7F18     		adds	r7, r7, r1
 936 03d4 8742     		cmp	r7, r0
 937 03d6 6AD0     		beq	.L278
 938              	.L61:
 939              		.loc 1 955 0
 940 03d8 0023     		movs	r3, #0
 941 03da 84F84730 		strb	r3, [r4, #71]
 942 03de E26E     		ldr	r2, [r4, #108]
 943 03e0 63E6     		b	.L81
 944              	.LVL89:
 945              	.L59:
 946              		.loc 1 887 0
 947 03e2 002A     		cmp	r2, #0
 948 03e4 3FF44EAE 		beq	.L57
 949              		.loc 1 889 0
 950 03e8 0021     		movs	r1, #0
 951 03ea 84F89510 		strb	r1, [r4, #149]
 952 03ee 49E6     		b	.L57
 953              	.L55:
 954              		.loc 1 871 0
 955 03f0 C71A     		subs	r7, r0, r3
 956 03f2 002F     		cmp	r7, #0
 957 03f4 BFF643AE 		bge	.L56
 958 03f8 A44F     		ldr	r7, .L291
 959 03fa 3968     		ldr	r1, [r7, #0]
 960 03fc C989     		ldrh	r1, [r1, #14]	@ unaligned
 961 03fe 01E7     		b	.L54
 962              	.L258:
 963              		.loc 1 872 0
 964 0400 A24B     		ldr	r3, .L291
 965 0402 1968     		ldr	r1, [r3, #0]
 966 0404 C989     		ldrh	r1, [r1, #14]	@ unaligned
 967 0406 8D42     		cmp	r5, r1
 968 0408 0346     		mov	r3, r0
ARM GAS  C:\Users\jenny\AppData\Local\Temp\ccsinKfR.s 			page 18


 969 040a BFF43BAE 		bcs	.L57
 970 040e F9E6     		b	.L54
 971              	.LVL90:
 972              	.L265:
 973              		.loc 1 1173 0
 974 0410 9F4F     		ldr	r7, .L291+4
 975 0412 7D68     		ldr	r5, [r7, #4]
 976              		.loc 1 1172 0
 977 0414 C2EB010A 		rsb	sl, r2, r1
 978 0418 5646     		mov	r6, sl
 979              	.LVL91:
 980              		.loc 1 1174 0
 981 041a 002D     		cmp	r5, #0
 982 041c 00F09782 		beq	.L279
 983              	.L98:
 984              		.loc 1 1175 0
 985 0420 47F6FE73 		movw	r3, #32766
 986 0424 9A45     		cmp	sl, r3
 987 0426 00F3F281 		bgt	.L280
 988              	.L99:
 989              		.loc 1 1176 0
 990 042a 7868     		ldr	r0, [r7, #4]
 991 042c 4289     		ldrh	r2, [r0, #10]
 992 042e 9245     		cmp	sl, r2
 993 0430 40F3E281 		ble	.L100
 994              		.loc 1 1177 0
 995 0434 0289     		ldrh	r2, [r0, #8]
 996 0436 9245     		cmp	sl, r2
 997 0438 00F30E82 		bgt	.L281
 998              	.L101:
 999              		.loc 1 1179 0
 1000 043c 6B89     		ldrh	r3, [r5, #10]
 1001              		.loc 1 1178 0
 1002 043e CAEB0201 		rsb	r1, sl, r2
 1003              		.loc 1 1179 0
 1004 0442 9A45     		cmp	sl, r3
 1005              		.loc 1 1178 0
 1006 0444 88B2     		uxth	r0, r1
 1007              	.LVL92:
 1008              		.loc 1 1179 0
 1009 0446 07DD     		ble	.L102
 1010              		.loc 1 1185 0
 1011 0448 0022     		movs	r2, #0
 1012              	.L208:
 1013 044a 6A81     		strh	r2, [r5, #10]	@ movhi
 1014              		.loc 1 1184 0
 1015 044c 2881     		strh	r0, [r5, #8]	@ movhi
 1016              		.loc 1 1186 0
 1017 044e 2D68     		ldr	r5, [r5, #0]
 1018              	.LVL93:
 1019              		.loc 1 1180 0
 1020 0450 F61A     		subs	r6, r6, r3
 1021              	.LVL94:
 1022              		.loc 1 1179 0
 1023 0452 6B89     		ldrh	r3, [r5, #10]
 1024 0454 B342     		cmp	r3, r6
 1025 0456 F8DB     		blt	.L208
ARM GAS  C:\Users\jenny\AppData\Local\Temp\ccsinKfR.s 			page 19


 1026              	.L102:
 1027              		.loc 1 1188 0
 1028 0458 7142     		negs	r1, r6
 1029              	.LVL95:
 1030 045a 2846     		mov	r0, r5
 1031              	.LVL96:
 1032 045c 09B2     		sxth	r1, r1
 1033 045e FFF7FEFF 		bl	pbuf_header
 1034              	.LVL97:
 1035 0462 0028     		cmp	r0, #0
 1036 0464 40F0D081 		bne	.L104
 1037              	.L105:
 1038              		.loc 1 1198 0
 1039 0468 3989     		ldrh	r1, [r7, #8]
 1040 046a D8F80000 		ldr	r0, [r8, #0]
 1041 046e A26A     		ldr	r2, [r4, #40]
 1042              		.loc 1 1199 0
 1043 0470 FB68     		ldr	r3, [r7, #12]
 1044 0472 C8F80020 		str	r2, [r8, #0]
 1045              		.loc 1 1198 0
 1046 0476 4018     		adds	r0, r0, r1
 1047 0478 811A     		subs	r1, r0, r2
 1048 047a 3981     		strh	r1, [r7, #8]	@ movhi
 1049              		.loc 1 1199 0
 1050 047c 5A60     		str	r2, [r3, #4]	@ unaligned
 1051 047e A16A     		ldr	r1, [r4, #40]
 1052              		.loc 1 1214 0
 1053 0480 531A     		subs	r3, r2, r1
 1054 0482 002B     		cmp	r3, #0
 1055 0484 BFF692AE 		bge	.L107
 1056 0488 97E6     		b	.L108
 1057              	.LVL98:
 1058              	.L273:
 1059              		.loc 1 986 0
 1060 048a B4F84C70 		ldrh	r7, [r4, #76]
 1061 048e B4F84E20 		ldrh	r2, [r4, #78]
 1062              		.loc 1 987 0
 1063 0492 E18E     		ldrh	r1, [r4, #54]
 1064              		.loc 1 986 0
 1065 0494 BA42     		cmp	r2, r7
 1066              	.LBB2:
 1067              		.loc 1 992 0
 1068 0496 9CBF     		itt	ls
 1069 0498 4943     		mulls	r1, r1, r1
 1070 049a 91FBF7F1 		sdivls	r1, r1, r7
 1071 049e 7B18     		adds	r3, r7, r1
 1072 04a0 98B2     		uxth	r0, r3
 1073              	.LVL99:
 1074              		.loc 1 993 0
 1075 04a2 8742     		cmp	r7, r0
 1076 04a4 BFF430AF 		bcs	.L243
 1077              		.loc 1 994 0
 1078 04a8 A4F84C00 		strh	r0, [r4, #76]	@ movhi
 1079 04ac 2CE7     		b	.L243
 1080              	.LVL100:
 1081              	.L278:
 1082              	.LBE2:
ARM GAS  C:\Users\jenny\AppData\Local\Temp\ccsinKfR.s 			page 20


 1083              		.loc 1 931 0
 1084 04ae B4F93410 		ldrsh	r1, [r4, #52]
 1085 04b2 0029     		cmp	r1, #0
 1086 04b4 90DB     		blt	.L61
 1087              		.loc 1 933 0
 1088 04b6 9A42     		cmp	r2, r3
 1089 04b8 8ED1     		bne	.L61
 1090              	.LVL101:
 1091              		.loc 1 935 0
 1092 04ba 94F84700 		ldrb	r0, [r4, #71]	@ zero_extendqisi2
 1093 04be 471C     		adds	r7, r0, #1
 1094 04c0 F9B2     		uxtb	r1, r7
 1095 04c2 8842     		cmp	r0, r1
 1096              		.loc 1 936 0
 1097 04c4 3CBF     		itt	cc
 1098 04c6 0846     		movcc	r0, r1
 1099 04c8 84F84710 		strbcc	r1, [r4, #71]
 1100              		.loc 1 938 0
 1101 04cc 0328     		cmp	r0, #3
 1102 04ce 40F24782 		bls	.L63
 1103              		.loc 1 941 0
 1104 04d2 B4F84C20 		ldrh	r2, [r4, #76]
 1105 04d6 E38E     		ldrh	r3, [r4, #54]
 1106 04d8 D018     		adds	r0, r2, r3
 1107 04da 87B2     		uxth	r7, r0
 1108 04dc BA42     		cmp	r2, r7
 1109 04de 80F04382 		bcs	.L241
 1110              		.loc 1 942 0
 1111 04e2 A4F84C70 		strh	r7, [r4, #76]	@ movhi
 1112 04e6 E26E     		ldr	r2, [r4, #108]
 1113 04e8 DFE5     		b	.L81
 1114              	.LVL102:
 1115              	.L264:
 1116              		.loc 1 1103 0
 1117 04ea 5342     		negs	r3, r2
 1118 04ec 9BB2     		uxth	r3, r3
 1119              	.LVL103:
 1120 04ee 3CE6     		b	.L95
 1121              	.LVL104:
 1122              	.L256:
 1123              		.loc 1 1455 0
 1124 04f0 8089     		ldrh	r0, [r0, #12]	@ unaligned
 1125 04f2 FFF7FEFF 		bl	lwip_ntohs
 1126              	.LVL105:
 1127 04f6 C007     		lsls	r0, r0, #31
 1128 04f8 3FF5B0AD 		bmi	.L49
 1129              		.loc 1 1459 0
 1130 04fc 6448     		ldr	r0, .L291+4
 1131 04fe FFF7FEFF 		bl	tcp_seg_copy
 1132              	.LVL106:
 1133 0502 2860     		str	r0, [r5, #0]
 1134              		.loc 1 1460 0
 1135 0504 0028     		cmp	r0, #0
 1136 0506 3FF4A9AD 		beq	.L49
 1137              		.loc 1 1461 0
 1138 050a E868     		ldr	r0, [r5, #12]
 1139 050c 2989     		ldrh	r1, [r5, #8]
ARM GAS  C:\Users\jenny\AppData\Local\Temp\ccsinKfR.s 			page 21


 1140 050e D8F80030 		ldr	r3, [r8, #0]
 1141 0512 4268     		ldr	r2, [r0, #4]	@ unaligned
 1142 0514 C81A     		subs	r0, r1, r3
 1143 0516 8118     		adds	r1, r0, r2
 1144 0518 0029     		cmp	r1, #0
 1145 051a 07DD     		ble	.L156
 1146              		.loc 1 1463 0
 1147 051c 9B1A     		subs	r3, r3, r2
 1148 051e 99B2     		uxth	r1, r3
 1149 0520 2981     		strh	r1, [r5, #8]	@ movhi
 1150              		.loc 1 1464 0
 1151 0522 6868     		ldr	r0, [r5, #4]
 1152 0524 FFF7FEFF 		bl	pbuf_realloc
 1153              	.LVL107:
 1154 0528 5A4A     		ldr	r2, .L291+8
 1155 052a 1368     		ldr	r3, [r2, #0]
 1156              	.L156:
 1157              		.loc 1 1467 0
 1158 052c B9F80000 		ldrh	r0, [r9, #0]
 1159 0530 A18D     		ldrh	r1, [r4, #44]
 1160 0532 A26A     		ldr	r2, [r4, #40]
 1161 0534 1B18     		adds	r3, r3, r0
 1162 0536 8818     		adds	r0, r1, r2
 1163 0538 8342     		cmp	r3, r0
 1164 053a 7FF68FAD 		bls	.L49
 1165              		.loc 1 1472 0
 1166 053e 2E68     		ldr	r6, [r5, #0]
 1167 0540 F168     		ldr	r1, [r6, #12]
 1168 0542 8889     		ldrh	r0, [r1, #12]	@ unaligned
 1169 0544 FFF7FEFF 		bl	lwip_ntohs
 1170              	.LVL108:
 1171 0548 C107     		lsls	r1, r0, #31
 1172 054a 00F12B82 		bmi	.L282
 1173              	.L157:
 1174              		.loc 1 1478 0
 1175 054e A16A     		ldr	r1, [r4, #40]
 1176 0550 A08D     		ldrh	r0, [r4, #44]
 1177 0552 D8F80020 		ldr	r2, [r8, #0]
 1178 0556 2B68     		ldr	r3, [r5, #0]
 1179 0558 0E18     		adds	r6, r1, r0
 1180 055a B11A     		subs	r1, r6, r2
 1181 055c 89B2     		uxth	r1, r1
 1182              		.loc 1 1479 0
 1183 055e 5868     		ldr	r0, [r3, #4]
 1184              		.loc 1 1478 0
 1185 0560 1981     		strh	r1, [r3, #8]	@ movhi
 1186              		.loc 1 1479 0
 1187 0562 FFF7FEFF 		bl	pbuf_realloc
 1188              	.LVL109:
 1189              		.loc 1 1480 0
 1190 0566 2D68     		ldr	r5, [r5, #0]
 1191 0568 E868     		ldr	r0, [r5, #12]
 1192 056a 2D89     		ldrh	r5, [r5, #8]
 1193 056c 8089     		ldrh	r0, [r0, #12]	@ unaligned
 1194 056e FFF7FEFF 		bl	lwip_ntohs
 1195              	.LVL110:
 1196 0572 10F00302 		ands	r2, r0, #3
ARM GAS  C:\Users\jenny\AppData\Local\Temp\ccsinKfR.s 			page 22


 1197 0576 18BF     		it	ne
 1198 0578 0122     		movne	r2, #1
 1199 057a AB18     		adds	r3, r5, r2
 1200              		.loc 1 1481 0
 1201 057c D8F80010 		ldr	r1, [r8, #0]
 1202 0580 A68D     		ldrh	r6, [r4, #44]
 1203 0582 A06A     		ldr	r0, [r4, #40]
 1204              		.loc 1 1480 0
 1205 0584 9BB2     		uxth	r3, r3
 1206              		.loc 1 1481 0
 1207 0586 5918     		adds	r1, r3, r1
 1208 0588 3218     		adds	r2, r6, r0
 1209 058a 9142     		cmp	r1, r2
 1210              		.loc 1 1480 0
 1211 058c A9F80030 		strh	r3, [r9, #0]	@ movhi
 1212              		.loc 1 1481 0
 1213 0590 3FF464AD 		beq	.L49
 1214              		.loc 1 1531 0 discriminator 1
 1215 0594 BDE8F84F 		pop	{r3, r4, r5, r6, r7, r8, r9, sl, fp, lr}
 1216              		.loc 1 1481 0 discriminator 1
 1217 0598 FFF7FEBF 		b	port_halt
 1218              	.LVL111:
 1219              	.L244:
 1220 059c E26E     		ldr	r2, [r4, #108]
 1221 059e F0E6     		b	.L80
 1222              	.L274:
 1223              		.loc 1 1038 0
 1224 05a0 236F     		ldr	r3, [r4, #112]
 1225 05a2 002B     		cmp	r3, #0
 1226 05a4 FAD0     		beq	.L244
 1227              		.loc 1 1041 0
 1228 05a6 0020     		movs	r0, #0
 1229 05a8 E26E     		ldr	r2, [r4, #108]
 1230 05aa A086     		strh	r0, [r4, #52]	@ movhi
 1231 05ac ECE6     		b	.L78
 1232              	.LVL112:
 1233              	.L268:
 1234              		.loc 1 1220 0
 1235 05ae 384F     		ldr	r7, .L291+4
 1236 05b0 F868     		ldr	r0, [r7, #12]
 1237 05b2 3D89     		ldrh	r5, [r7, #8]
 1238 05b4 8089     		ldrh	r0, [r0, #12]	@ unaligned
 1239 05b6 FFF7FEFF 		bl	lwip_ntohs
 1240              	.LVL113:
 1241 05ba 10F00303 		ands	r3, r0, #3
 1242 05be 18BF     		it	ne
 1243 05c0 0123     		movne	r3, #1
 1244 05c2 E918     		adds	r1, r5, r3
 1245              		.loc 1 1222 0
 1246 05c4 A28D     		ldrh	r2, [r4, #44]
 1247              		.loc 1 1220 0
 1248 05c6 88B2     		uxth	r0, r1
 1249              		.loc 1 1222 0
 1250 05c8 8242     		cmp	r2, r0
 1251              		.loc 1 1220 0
 1252 05ca A9F80000 		strh	r0, [r9, #0]	@ movhi
 1253              		.loc 1 1222 0
ARM GAS  C:\Users\jenny\AppData\Local\Temp\ccsinKfR.s 			page 23


 1254 05ce C0F04981 		bcc	.L283
 1255              	.L111:
 1256              		.loc 1 1246 0
 1257 05d2 616F     		ldr	r1, [r4, #116]
 1258 05d4 0029     		cmp	r1, #0
 1259 05d6 68D0     		beq	.L248
 1260              		.loc 1 1247 0
 1261 05d8 FD68     		ldr	r5, [r7, #12]
 1262 05da A889     		ldrh	r0, [r5, #12]	@ unaligned
 1263 05dc FFF7FEFF 		bl	lwip_ntohs
 1264              	.LVL114:
 1265 05e0 C507     		lsls	r5, r0, #31
 1266 05e2 5FD4     		bmi	.L253
 1267              		.loc 1 1259 0
 1268 05e4 666F     		ldr	r6, [r4, #116]
 1269              	.LVL115:
 1270              		.loc 1 1262 0
 1271 05e6 002E     		cmp	r6, #0
 1272 05e8 00F07481 		beq	.L121
 1273              		.loc 1 1263 0
 1274 05ec F268     		ldr	r2, [r6, #12]
 1275 05ee B9F80030 		ldrh	r3, [r9, #0]
 1276 05f2 D2F804E0 		ldr	lr, [r2, #4]	@ unaligned
 1277 05f6 D8F80010 		ldr	r1, [r8, #0]
 1278 05fa 3589     		ldrh	r5, [r6, #8]
 1279 05fc CEEB0300 		rsb	r0, lr, r3
 1280 0600 4018     		adds	r0, r0, r1
 1281 0602 451B     		subs	r5, r0, r5
 1282              		.loc 1 1262 0
 1283 0604 002D     		cmp	r5, #0
 1284 0606 C0F27081 		blt	.L284
 1285              		.loc 1 1267 0
 1286 060a DFF884A0 		ldr	sl, .L291+4
 1287 060e 16E0     		b	.L239
 1288              	.L124:
 1289              	.LVL116:
 1290              		.loc 1 1272 0
 1291 0610 3568     		ldr	r5, [r6, #0]
 1292              	.LVL117:
 1293              		.loc 1 1273 0
 1294 0612 3046     		mov	r0, r6
 1295 0614 FFF7FEFF 		bl	tcp_seg_free
 1296              	.LVL118:
 1297              		.loc 1 1262 0
 1298 0618 002D     		cmp	r5, #0
 1299 061a 00F05B81 		beq	.L121
 1300              		.loc 1 1263 0 discriminator 2
 1301 061e EA68     		ldr	r2, [r5, #12]
 1302 0620 B9F80030 		ldrh	r3, [r9, #0]
 1303 0624 D2F804E0 		ldr	lr, [r2, #4]	@ unaligned
 1304 0628 D8F80010 		ldr	r1, [r8, #0]
 1305 062c 2E89     		ldrh	r6, [r5, #8]
 1306              	.LVL119:
 1307 062e CEEB0300 		rsb	r0, lr, r3
 1308 0632 4018     		adds	r0, r0, r1
 1309 0634 861B     		subs	r6, r0, r6
 1310              		.loc 1 1262 0 discriminator 2
ARM GAS  C:\Users\jenny\AppData\Local\Temp\ccsinKfR.s 			page 24


 1311 0636 002E     		cmp	r6, #0
 1312 0638 C0F25881 		blt	.L122
 1313              		.loc 1 1262 0 is_stmt 0
 1314 063c 2E46     		mov	r6, r5
 1315              	.LVL120:
 1316              	.L239:
 1317              		.loc 1 1266 0 is_stmt 1
 1318 063e 9089     		ldrh	r0, [r2, #12]	@ unaligned
 1319 0640 FFF7FEFF 		bl	lwip_ntohs
 1320              	.LVL121:
 1321 0644 C007     		lsls	r0, r0, #31
 1322 0646 E3D5     		bpl	.L124
 1323              		.loc 1 1267 0 discriminator 1
 1324 0648 FA68     		ldr	r2, [r7, #12]
 1325 064a 9089     		ldrh	r0, [r2, #12]	@ unaligned
 1326 064c FFF7FEFF 		bl	lwip_ntohs
 1327              	.LVL122:
 1328              		.loc 1 1266 0 discriminator 1
 1329 0650 00F00203 		and	r3, r0, #2
 1330 0654 99B2     		uxth	r1, r3
 1331 0656 0029     		cmp	r1, #0
 1332 0658 DAD1     		bne	.L124
 1333              		.loc 1 1268 0
 1334 065a DAF80C50 		ldr	r5, [sl, #12]
 1335 065e 0120     		movs	r0, #1
 1336 0660 B5F80CB0 		ldrh	fp, [r5, #12]	@ unaligned
 1337 0664 FFF7FEFF 		bl	lwip_htons
 1338              	.LVL123:
 1339 0668 40EA0B00 		orr	r0, r0, fp
 1340 066c A881     		strh	r0, [r5, #12]	@ unaligned
 1341              		.loc 1 1269 0
 1342 066e DAF80C20 		ldr	r2, [sl, #12]
 1343 0672 BAF80850 		ldrh	r5, [sl, #8]
 1344 0676 9089     		ldrh	r0, [r2, #12]	@ unaligned
 1345 0678 FFF7FEFF 		bl	lwip_ntohs
 1346              	.LVL124:
 1347 067c 10F00303 		ands	r3, r0, #3
 1348 0680 18BF     		it	ne
 1349 0682 0123     		movne	r3, #1
 1350 0684 E918     		adds	r1, r5, r3
 1351 0686 A9F80010 		strh	r1, [r9, #0]	@ movhi
 1352 068a C1E7     		b	.L124
 1353              	.L292:
 1354              		.align	2
 1355              	.L291:
 1356 068c 00000000 		.word	.LANCHOR0
 1357 0690 00000000 		.word	.LANCHOR5
 1358 0694 00000000 		.word	.LANCHOR1
 1359 0698 00000000 		.word	.LANCHOR4
 1360              	.LVL125:
 1361              	.L207:
 1362              	.LBB3:
 1363              		.loc 1 1255 0
 1364 069c 0568     		ldr	r5, [r0, #0]
 1365 069e 6567     		str	r5, [r4, #116]
 1366              		.loc 1 1256 0
 1367 06a0 FFF7FEFF 		bl	tcp_seg_free
ARM GAS  C:\Users\jenny\AppData\Local\Temp\ccsinKfR.s 			page 25


 1368              	.LVL126:
 1369              	.L253:
 1370              	.LBE3:
 1371              		.loc 1 1253 0
 1372 06a4 606F     		ldr	r0, [r4, #116]
 1373 06a6 0028     		cmp	r0, #0
 1374 06a8 F8D1     		bne	.L207
 1375              	.L248:
 1376 06aa B9F80030 		ldrh	r3, [r9, #0]
 1377 06ae D8F80050 		ldr	r5, [r8, #0]
 1378 06b2 5919     		adds	r1, r3, r5
 1379              	.L117:
 1380              		.loc 1 1298 0
 1381 06b4 A08D     		ldrh	r0, [r4, #44]
 1382              		.loc 1 1295 0
 1383 06b6 A162     		str	r1, [r4, #40]
 1384              		.loc 1 1298 0
 1385 06b8 9842     		cmp	r0, r3
 1386 06ba C0F00581 		bcc	.L285
 1387              	.L130:
 1388              		.loc 1 1299 0
 1389 06be C11A     		subs	r1, r0, r3
 1390 06c0 A185     		strh	r1, [r4, #44]	@ movhi
 1391              		.loc 1 1301 0
 1392 06c2 2046     		mov	r0, r4
 1393 06c4 FFF7FEFF 		bl	tcp_update_rcv_ann_wnd
 1394              	.LVL127:
 1395              		.loc 1 1312 0
 1396 06c8 7B68     		ldr	r3, [r7, #4]
 1397 06ca 1A89     		ldrh	r2, [r3, #8]
 1398 06cc 22B1     		cbz	r2, .L131
 1399              		.loc 1 1313 0
 1400 06ce A84D     		ldr	r5, .L293
 1401              		.loc 1 1317 0
 1402 06d0 A849     		ldr	r1, .L293+4
 1403              		.loc 1 1313 0
 1404 06d2 2B60     		str	r3, [r5, #0]
 1405              		.loc 1 1317 0
 1406 06d4 0020     		movs	r0, #0
 1407 06d6 4860     		str	r0, [r1, #4]
 1408              	.L131:
 1409              		.loc 1 1319 0
 1410 06d8 FB68     		ldr	r3, [r7, #12]
 1411 06da 9889     		ldrh	r0, [r3, #12]	@ unaligned
 1412 06dc FFF7FEFF 		bl	lwip_ntohs
 1413              	.LVL128:
 1414 06e0 C107     		lsls	r1, r0, #31
 1415 06e2 04D5     		bpl	.L132
 1416              		.loc 1 1321 0
 1417 06e4 A44D     		ldr	r5, .L293+8
 1418 06e6 2A78     		ldrb	r2, [r5, #0]	@ zero_extendqisi2
 1419 06e8 42F02000 		orr	r0, r2, #32
 1420 06ec 2870     		strb	r0, [r5, #0]
 1421              	.L132:
 1422              		.loc 1 1327 0 discriminator 1
 1423 06ee 656F     		ldr	r5, [r4, #116]
 1424 06f0 002D     		cmp	r5, #0
ARM GAS  C:\Users\jenny\AppData\Local\Temp\ccsinKfR.s 			page 26


 1425 06f2 67D0     		beq	.L136
 1426              		.loc 1 1328 0
 1427 06f4 EA68     		ldr	r2, [r5, #12]
 1428              		.loc 1 1327 0
 1429 06f6 A16A     		ldr	r1, [r4, #40]
 1430              		.loc 1 1328 0
 1431 06f8 5668     		ldr	r6, [r2, #4]	@ unaligned
 1432              		.loc 1 1327 0
 1433 06fa 8E42     		cmp	r6, r1
 1434 06fc 62D1     		bne	.L136
 1435              		.loc 1 1343 0
 1436 06fe DFF87092 		ldr	r9, .L293
 1437              		.loc 1 1352 0
 1438 0702 9D4F     		ldr	r7, .L293+8
 1439              		.loc 1 1348 0
 1440 0704 4FF0000A 		mov	sl, #0
 1441 0708 35E0     		b	.L206
 1442              	.LVL129:
 1443              	.L137:
 1444              		.loc 1 1336 0
 1445 070a EA68     		ldr	r2, [r5, #12]
 1446 070c B4F82CB0 		ldrh	fp, [r4, #44]
 1447 0710 9089     		ldrh	r0, [r2, #12]	@ unaligned
 1448 0712 2E89     		ldrh	r6, [r5, #8]
 1449 0714 FFF7FEFF 		bl	lwip_ntohs
 1450              	.LVL130:
 1451 0718 10F00300 		ands	r0, r0, #3
 1452 071c 18BF     		it	ne
 1453 071e 0120     		movne	r0, #1
 1454 0720 C6EB0B01 		rsb	r1, r6, fp
 1455 0724 0B1A     		subs	r3, r1, r0
 1456 0726 A385     		strh	r3, [r4, #44]	@ movhi
 1457              		.loc 1 1338 0
 1458 0728 2046     		mov	r0, r4
 1459 072a FFF7FEFF 		bl	tcp_update_rcv_ann_wnd
 1460              	.LVL131:
 1461              		.loc 1 1340 0
 1462 072e 6968     		ldr	r1, [r5, #4]
 1463 0730 0A89     		ldrh	r2, [r1, #8]
 1464 0732 3AB1     		cbz	r2, .L138
 1465              		.loc 1 1343 0
 1466 0734 D9F80000 		ldr	r0, [r9, #0]
 1467 0738 0028     		cmp	r0, #0
 1468 073a 3DD0     		beq	.L139
 1469              		.loc 1 1344 0
 1470 073c FFF7FEFF 		bl	pbuf_cat
 1471              	.LVL132:
 1472              	.L140:
 1473              		.loc 1 1348 0
 1474 0740 C5F804A0 		str	sl, [r5, #4]
 1475              	.L138:
 1476              		.loc 1 1350 0
 1477 0744 E868     		ldr	r0, [r5, #12]
 1478 0746 8089     		ldrh	r0, [r0, #12]	@ unaligned
 1479 0748 FFF7FEFF 		bl	lwip_ntohs
 1480              	.LVL133:
 1481 074c C307     		lsls	r3, r0, #31
ARM GAS  C:\Users\jenny\AppData\Local\Temp\ccsinKfR.s 			page 27


 1482 074e 06D5     		bpl	.L142
 1483              		.loc 1 1352 0
 1484 0750 3978     		ldrb	r1, [r7, #0]	@ zero_extendqisi2
 1485              		.loc 1 1353 0
 1486 0752 237E     		ldrb	r3, [r4, #24]	@ zero_extendqisi2
 1487              		.loc 1 1352 0
 1488 0754 41F02002 		orr	r2, r1, #32
 1489              		.loc 1 1353 0
 1490 0758 042B     		cmp	r3, #4
 1491              		.loc 1 1352 0
 1492 075a 3A70     		strb	r2, [r7, #0]
 1493              		.loc 1 1353 0
 1494 075c 2FD0     		beq	.L286
 1495              	.L142:
 1496              		.loc 1 1358 0
 1497 075e 2968     		ldr	r1, [r5, #0]
 1498              		.loc 1 1359 0
 1499 0760 2846     		mov	r0, r5
 1500              		.loc 1 1358 0
 1501 0762 6167     		str	r1, [r4, #116]
 1502              		.loc 1 1359 0
 1503 0764 FFF7FEFF 		bl	tcp_seg_free
 1504              	.LVL134:
 1505              		.loc 1 1327 0
 1506 0768 656F     		ldr	r5, [r4, #116]
 1507              	.LVL135:
 1508 076a 5DB3     		cbz	r5, .L136
 1509              		.loc 1 1328 0 discriminator 2
 1510 076c EA68     		ldr	r2, [r5, #12]
 1511              		.loc 1 1327 0 discriminator 2
 1512 076e A36A     		ldr	r3, [r4, #40]
 1513              		.loc 1 1328 0 discriminator 2
 1514 0770 5668     		ldr	r6, [r2, #4]	@ unaligned
 1515              		.loc 1 1327 0 discriminator 2
 1516 0772 9E42     		cmp	r6, r3
 1517 0774 26D1     		bne	.L136
 1518              	.L206:
 1519              	.LVL136:
 1520              		.loc 1 1331 0
 1521 0776 C8F80060 		str	r6, [r8, #0]
 1522              		.loc 1 1333 0
 1523 077a 9089     		ldrh	r0, [r2, #12]	@ unaligned
 1524 077c B5F808B0 		ldrh	fp, [r5, #8]
 1525 0780 FFF7FEFF 		bl	lwip_ntohs
 1526              	.LVL137:
 1527 0784 10F00303 		ands	r3, r0, #3
 1528 0788 18BF     		it	ne
 1529 078a 0123     		movne	r3, #1
 1530 078c 0BEB0302 		add	r2, fp, r3
 1531 0790 B618     		adds	r6, r6, r2
 1532              		.loc 1 1334 0
 1533 0792 E868     		ldr	r0, [r5, #12]
 1534              		.loc 1 1333 0
 1535 0794 A662     		str	r6, [r4, #40]
 1536              		.loc 1 1334 0
 1537 0796 8089     		ldrh	r0, [r0, #12]	@ unaligned
 1538 0798 B5F808B0 		ldrh	fp, [r5, #8]
ARM GAS  C:\Users\jenny\AppData\Local\Temp\ccsinKfR.s 			page 28


 1539 079c A68D     		ldrh	r6, [r4, #44]
 1540 079e FFF7FEFF 		bl	lwip_ntohs
 1541              	.LVL138:
 1542 07a2 10F00301 		ands	r1, r0, #3
 1543 07a6 18BF     		it	ne
 1544 07a8 0121     		movne	r1, #1
 1545 07aa 0BEB0103 		add	r3, fp, r1
 1546 07ae 9E42     		cmp	r6, r3
 1547 07b0 ABDA     		bge	.L137
 1548              		.loc 1 1334 0 is_stmt 0 discriminator 1
 1549 07b2 FFF7FEFF 		bl	port_halt
 1550              	.LVL139:
 1551 07b6 A8E7     		b	.L137
 1552              	.L139:
 1553              		.loc 1 1346 0 is_stmt 1
 1554 07b8 C9F80010 		str	r1, [r9, #0]
 1555 07bc C0E7     		b	.L140
 1556              	.L286:
 1557              		.loc 1 1354 0
 1558 07be 0720     		movs	r0, #7
 1559 07c0 2076     		strb	r0, [r4, #24]
 1560 07c2 CCE7     		b	.L142
 1561              	.LVL140:
 1562              	.L136:
 1563              		.loc 1 1365 0
 1564 07c4 A07F     		ldrb	r0, [r4, #30]	@ zero_extendqisi2
 1565 07c6 C207     		lsls	r2, r0, #31
 1566 07c8 41D5     		bpl	.L287
 1567              		.loc 1 1365 0 is_stmt 0 discriminator 1
 1568 07ca 20F00102 		bic	r2, r0, #1
 1569 07ce 42F00203 		orr	r3, r2, #2
 1570 07d2 A377     		strb	r3, [r4, #30]
 1571 07d4 BDE8F88F 		pop	{r3, r4, r5, r6, r7, r8, r9, sl, fp, pc}
 1572              	.L272:
 1573              		.loc 1 1394 0 is_stmt 1
 1574 07d8 6648     		ldr	r0, .L293+4
 1575 07da 2989     		ldrh	r1, [r5, #8]
 1576 07dc 0289     		ldrh	r2, [r0, #8]
 1577 07de 8A42     		cmp	r2, r1
 1578 07e0 7FF63CAC 		bls	.L49
 1579              		.loc 1 1398 0
 1580 07e4 FFF7FEFF 		bl	tcp_seg_copy
 1581              	.LVL141:
 1582              		.loc 1 1399 0
 1583 07e8 0028     		cmp	r0, #0
 1584 07ea 3FF437AC 		beq	.L49
 1585              		.loc 1 1400 0
 1586 07ee 002E     		cmp	r6, #0
 1587 07f0 00F0D680 		beq	.L150
 1588              		.loc 1 1401 0
 1589 07f4 3060     		str	r0, [r6, #0]
 1590 07f6 4EE5     		b	.L249
 1591              	.LVL142:
 1592              	.L100:
 1593              		.loc 1 1193 0
 1594 07f8 CAF10001 		rsb	r1, sl, #0
 1595 07fc 09B2     		sxth	r1, r1
ARM GAS  C:\Users\jenny\AppData\Local\Temp\ccsinKfR.s 			page 29


 1596 07fe FFF7FEFF 		bl	pbuf_header
 1597              	.LVL143:
 1598 0802 0028     		cmp	r0, #0
 1599 0804 3FF430AE 		beq	.L105
 1600              	.L104:
 1601              		.loc 1 1190 0 discriminator 1
 1602 0808 FFF7FEFF 		bl	port_halt
 1603              	.LVL144:
 1604 080c 2CE6     		b	.L105
 1605              	.L280:
 1606              		.loc 1 1175 0 discriminator 1
 1607 080e FFF7FEFF 		bl	port_halt
 1608              	.LVL145:
 1609 0812 0AE6     		b	.L99
 1610              	.LVL146:
 1611              	.L270:
 1612              		.loc 1 1437 0
 1613 0814 5748     		ldr	r0, .L293+4
 1614 0816 FFF7FEFF 		bl	tcp_seg_copy
 1615              	.LVL147:
 1616              		.loc 1 1438 0
 1617 081a 0446     		mov	r4, r0
 1618              	.LVL148:
 1619 081c 0028     		cmp	r0, #0
 1620 081e 3FF41DAC 		beq	.L49
 1621              		.loc 1 1439 0
 1622 0822 F068     		ldr	r0, [r6, #12]
 1623              	.LVL149:
 1624 0824 3189     		ldrh	r1, [r6, #8]
 1625 0826 D8F80020 		ldr	r2, [r8, #0]
 1626 082a 4368     		ldr	r3, [r0, #4]	@ unaligned
 1627 082c 881A     		subs	r0, r1, r2
 1628 082e C118     		adds	r1, r0, r3
 1629 0830 0029     		cmp	r1, #0
 1630 0832 05DD     		ble	.L154
 1631              		.loc 1 1441 0
 1632 0834 D21A     		subs	r2, r2, r3
 1633 0836 91B2     		uxth	r1, r2
 1634 0838 3181     		strh	r1, [r6, #8]	@ movhi
 1635              		.loc 1 1442 0
 1636 083a 7068     		ldr	r0, [r6, #4]
 1637 083c FFF7FEFF 		bl	pbuf_realloc
 1638              	.LVL150:
 1639              	.L154:
 1640              		.loc 1 1445 0
 1641 0840 2046     		mov	r0, r4
 1642 0842 2946     		mov	r1, r5
 1643              		.loc 1 1444 0
 1644 0844 3460     		str	r4, [r6, #0]
 1645              		.loc 1 1531 0
 1646 0846 BDE8F84F 		pop	{r3, r4, r5, r6, r7, r8, r9, sl, fp, lr}
 1647              		.loc 1 1445 0
 1648 084a FFF7FEBF 		b	tcp_oos_insert_segment
 1649              	.LVL151:
 1650              	.L287:
 1651              		.loc 1 1365 0 discriminator 2
 1652 084e 40F00101 		orr	r1, r0, #1
ARM GAS  C:\Users\jenny\AppData\Local\Temp\ccsinKfR.s 			page 30


 1653 0852 A177     		strb	r1, [r4, #30]
 1654 0854 BDE8F88F 		pop	{r3, r4, r5, r6, r7, r8, r9, sl, fp, pc}
 1655              	.LVL152:
 1656              	.L281:
 1657              		.loc 1 1177 0 discriminator 1
 1658 0858 FFF7FEFF 		bl	port_halt
 1659              	.LVL153:
 1660 085c 4548     		ldr	r0, .L293+4
 1661 085e 4368     		ldr	r3, [r0, #4]
 1662 0860 1A89     		ldrh	r2, [r3, #8]
 1663 0862 EBE5     		b	.L101
 1664              	.LVL154:
 1665              	.L283:
 1666              		.loc 1 1227 0
 1667 0864 FE68     		ldr	r6, [r7, #12]
 1668 0866 B089     		ldrh	r0, [r6, #12]	@ unaligned
 1669 0868 FFF7FEFF 		bl	lwip_ntohs
 1670              	.LVL155:
 1671 086c C607     		lsls	r6, r0, #31
 1672 086e 00F18980 		bmi	.L288
 1673              	.L112:
 1674              		.loc 1 1233 0
 1675 0872 A18D     		ldrh	r1, [r4, #44]
 1676              		.loc 1 1234 0
 1677 0874 FA68     		ldr	r2, [r7, #12]
 1678              		.loc 1 1233 0
 1679 0876 3981     		strh	r1, [r7, #8]	@ movhi
 1680              		.loc 1 1234 0
 1681 0878 9089     		ldrh	r0, [r2, #12]	@ unaligned
 1682              		.loc 1 1233 0
 1683 087a 3E4D     		ldr	r5, .L293+4
 1684              		.loc 1 1234 0
 1685 087c FFF7FEFF 		bl	lwip_ntohs
 1686              	.LVL156:
 1687 0880 00F00200 		and	r0, r0, #2
 1688 0884 86B2     		uxth	r6, r0
 1689              		.loc 1 1235 0
 1690 0886 2989     		ldrh	r1, [r5, #8]
 1691              		.loc 1 1234 0
 1692 0888 16B1     		cbz	r6, .L114
 1693              		.loc 1 1235 0
 1694 088a 4B1E     		subs	r3, r1, #1
 1695 088c 99B2     		uxth	r1, r3
 1696 088e 2981     		strh	r1, [r5, #8]	@ movhi
 1697              	.L114:
 1698              		.loc 1 1237 0
 1699 0890 7868     		ldr	r0, [r7, #4]
 1700 0892 FFF7FEFF 		bl	pbuf_realloc
 1701              	.LVL157:
 1702              		.loc 1 1238 0
 1703 0896 F968     		ldr	r1, [r7, #12]
 1704 0898 3D89     		ldrh	r5, [r7, #8]
 1705 089a 8889     		ldrh	r0, [r1, #12]	@ unaligned
 1706 089c FFF7FEFF 		bl	lwip_ntohs
 1707              	.LVL158:
 1708 08a0 10F00302 		ands	r2, r0, #3
 1709 08a4 18BF     		it	ne
ARM GAS  C:\Users\jenny\AppData\Local\Temp\ccsinKfR.s 			page 31


 1710 08a6 0122     		movne	r2, #1
 1711 08a8 A818     		adds	r0, r5, r2
 1712              		.loc 1 1239 0
 1713 08aa D8F80010 		ldr	r1, [r8, #0]
 1714 08ae A68D     		ldrh	r6, [r4, #44]
 1715 08b0 A56A     		ldr	r5, [r4, #40]
 1716              		.loc 1 1238 0
 1717 08b2 83B2     		uxth	r3, r0
 1718              		.loc 1 1239 0
 1719 08b4 5818     		adds	r0, r3, r1
 1720 08b6 7219     		adds	r2, r6, r5
 1721 08b8 9042     		cmp	r0, r2
 1722              		.loc 1 1238 0
 1723 08ba A9F80030 		strh	r3, [r9, #0]	@ movhi
 1724              		.loc 1 1239 0
 1725 08be 3FF488AE 		beq	.L111
 1726              		.loc 1 1239 0 is_stmt 0 discriminator 1
 1727 08c2 FFF7FEFF 		bl	port_halt
 1728              	.LVL159:
 1729 08c6 84E6     		b	.L111
 1730              	.L285:
 1731              		.loc 1 1298 0 is_stmt 1 discriminator 1
 1732 08c8 FFF7FEFF 		bl	port_halt
 1733              	.LVL160:
 1734 08cc A08D     		ldrh	r0, [r4, #44]
 1735 08ce B9F80030 		ldrh	r3, [r9, #0]
 1736 08d2 F4E6     		b	.L130
 1737              	.L121:
 1738 08d4 B9F80030 		ldrh	r3, [r9, #0]
 1739 08d8 D8F80000 		ldr	r0, [r8, #0]
 1740              		.loc 1 1262 0
 1741 08dc 0025     		movs	r5, #0
 1742 08de 1918     		adds	r1, r3, r0
 1743              	.L129:
 1744              		.loc 1 1290 0
 1745 08e0 6567     		str	r5, [r4, #116]
 1746 08e2 E7E6     		b	.L117
 1747              	.LVL161:
 1748              	.L277:
 1749              		.loc 1 1031 0 discriminator 2
 1750 08e4 FFF7FEFF 		bl	port_halt
 1751              	.LVL162:
 1752 08e8 0EE5     		b	.L243
 1753              	.LVL163:
 1754              	.L284:
 1755              		.loc 1 1262 0
 1756 08ea 3546     		mov	r5, r6
 1757              	.LVL164:
 1758              	.L122:
 1759              		.loc 1 1277 0
 1760 08ec 0028     		cmp	r0, #0
 1761 08ee 2CDD     		ble	.L246
 1762              		.loc 1 1281 0
 1763 08f0 C1EB0E01 		rsb	r1, r1, lr
 1764              		.loc 1 1282 0
 1765 08f4 FB68     		ldr	r3, [r7, #12]
 1766              		.loc 1 1281 0
ARM GAS  C:\Users\jenny\AppData\Local\Temp\ccsinKfR.s 			page 32


 1767 08f6 3981     		strh	r1, [r7, #8]	@ movhi
 1768              		.loc 1 1282 0
 1769 08f8 9889     		ldrh	r0, [r3, #12]	@ unaligned
 1770              		.loc 1 1281 0
 1771 08fa 1E4E     		ldr	r6, .L293+4
 1772              		.loc 1 1282 0
 1773 08fc FFF7FEFF 		bl	lwip_ntohs
 1774              	.LVL165:
 1775 0900 00F00202 		and	r2, r0, #2
 1776 0904 90B2     		uxth	r0, r2
 1777              		.loc 1 1283 0
 1778 0906 3189     		ldrh	r1, [r6, #8]
 1779              		.loc 1 1282 0
 1780 0908 10B1     		cbz	r0, .L128
 1781              		.loc 1 1283 0
 1782 090a 0139     		subs	r1, r1, #1
 1783 090c 89B2     		uxth	r1, r1
 1784 090e 3181     		strh	r1, [r6, #8]	@ movhi
 1785              	.L128:
 1786              		.loc 1 1285 0
 1787 0910 7868     		ldr	r0, [r7, #4]
 1788 0912 FFF7FEFF 		bl	pbuf_realloc
 1789              	.LVL166:
 1790              		.loc 1 1286 0
 1791 0916 FB68     		ldr	r3, [r7, #12]
 1792 0918 3E89     		ldrh	r6, [r7, #8]
 1793 091a 9889     		ldrh	r0, [r3, #12]	@ unaligned
 1794 091c FFF7FEFF 		bl	lwip_ntohs
 1795              	.LVL167:
 1796 0920 10F00302 		ands	r2, r0, #3
 1797 0924 18BF     		it	ne
 1798 0926 0122     		movne	r2, #1
 1799 0928 B018     		adds	r0, r6, r2
 1800 092a 83B2     		uxth	r3, r0
 1801              		.loc 1 1287 0
 1802 092c EA68     		ldr	r2, [r5, #12]
 1803              		.loc 1 1286 0
 1804 092e A9F80030 		strh	r3, [r9, #0]	@ movhi
 1805              		.loc 1 1287 0
 1806 0932 D8F80010 		ldr	r1, [r8, #0]
 1807 0936 5068     		ldr	r0, [r2, #4]	@ unaligned
 1808 0938 5918     		adds	r1, r3, r1
 1809 093a 8142     		cmp	r1, r0
 1810 093c D0D0     		beq	.L129
 1811              		.loc 1 1287 0 is_stmt 0 discriminator 1
 1812 093e FFF7FEFF 		bl	port_halt
 1813              	.LVL168:
 1814 0942 0E4B     		ldr	r3, .L293+12
 1815 0944 0E4A     		ldr	r2, .L293+16
 1816 0946 1B88     		ldrh	r3, [r3, #0]
 1817 0948 1168     		ldr	r1, [r2, #0]
 1818              	.L246:
 1819 094a 5918     		adds	r1, r3, r1
 1820 094c C8E7     		b	.L129
 1821              	.LVL169:
 1822              	.L279:
 1823              		.loc 1 1174 0 is_stmt 1 discriminator 1
ARM GAS  C:\Users\jenny\AppData\Local\Temp\ccsinKfR.s 			page 33


 1824 094e FFF7FEFF 		bl	port_halt
 1825              	.LVL170:
 1826 0952 65E5     		b	.L98
 1827              	.LVL171:
 1828              	.L269:
 1829              		.loc 1 1373 0
 1830 0954 0748     		ldr	r0, .L293+4
 1831 0956 FFF7FEFF 		bl	tcp_seg_copy
 1832              	.LVL172:
 1833 095a 6067     		str	r0, [r4, #116]
 1834 095c BDE8F88F 		pop	{r3, r4, r5, r6, r7, r8, r9, sl, fp, pc}
 1835              	.LVL173:
 1836              	.L63:
 1837              		.loc 1 944 0
 1838 0960 02D1     		bne	.L241
 1839              		.loc 1 946 0
 1840 0962 2046     		mov	r0, r4
 1841 0964 FFF7FEFF 		bl	tcp_rexmit_fast
 1842              	.LVL174:
 1843              	.L241:
 1844 0968 E26E     		ldr	r2, [r4, #108]
 1845 096a FFF79EBB 		b	.L81
 1846              	.L294:
 1847 096e 00BF     		.align	2
 1848              	.L293:
 1849 0970 00000000 		.word	.LANCHOR6
 1850 0974 00000000 		.word	.LANCHOR5
 1851 0978 00000000 		.word	.LANCHOR7
 1852 097c 00000000 		.word	.LANCHOR4
 1853 0980 00000000 		.word	.LANCHOR1
 1854              	.LVL175:
 1855              	.L288:
 1856              		.loc 1 1230 0
 1857 0984 FD68     		ldr	r5, [r7, #12]
 1858 0986 AE89     		ldrh	r6, [r5, #12]	@ unaligned
 1859 0988 3046     		mov	r0, r6
 1860 098a FFF7FEFF 		bl	lwip_ntohs
 1861              	.LVL176:
 1862 098e 00F03E00 		and	r0, r0, #62
 1863 0992 FFF7FEFF 		bl	lwip_htons
 1864              	.LVL177:
 1865 0996 26F47C53 		bic	r3, r6, #16128
 1866 099a 1843     		orrs	r0, r0, r3
 1867 099c A881     		strh	r0, [r5, #12]	@ unaligned
 1868 099e 68E7     		b	.L112
 1869              	.LVL178:
 1870              	.L150:
 1871              		.loc 1 1403 0
 1872 09a0 6067     		str	r0, [r4, #116]
 1873 09a2 78E4     		b	.L249
 1874              	.LVL179:
 1875              	.L282:
 1876              		.loc 1 1475 0
 1877 09a4 2F68     		ldr	r7, [r5, #0]
 1878 09a6 FE68     		ldr	r6, [r7, #12]
 1879 09a8 B789     		ldrh	r7, [r6, #12]	@ unaligned
 1880 09aa 3846     		mov	r0, r7
ARM GAS  C:\Users\jenny\AppData\Local\Temp\ccsinKfR.s 			page 34


 1881 09ac FFF7FEFF 		bl	lwip_ntohs
 1882              	.LVL180:
 1883 09b0 00F03E00 		and	r0, r0, #62
 1884 09b4 FFF7FEFF 		bl	lwip_htons
 1885              	.LVL181:
 1886 09b8 27F47C57 		bic	r7, r7, #16128
 1887 09bc 3843     		orrs	r0, r0, r7
 1888 09be B081     		strh	r0, [r6, #12]	@ unaligned
 1889 09c0 C5E5     		b	.L157
 1890              		.cfi_endproc
 1891              	.LFE12:
 1892              		.size	tcp_receive, .-tcp_receive
 1893 09c2 00BFAFF3 		.section	.text.tcp_input,"ax",%progbits
 1893      0080AFF3 
 1893      0080AFF3 
 1893      0080
 1894              		.align	2
 1895              		.p2align 4,,15
 1896              		.global	tcp_input
 1897              		.thumb
 1898              		.thumb_func
 1899              		.type	tcp_input, %function
 1900              	tcp_input:
 1901              	.LFB7:
 1902              		.loc 1 93 0
 1903              		.cfi_startproc
 1904              		@ args = 0, pretend = 0, frame = 0
 1905              		@ frame_needed = 0, uses_anonymous_args = 0
 1906              	.LVL182:
 1907 0000 2DE9F04F 		push	{r4, r5, r6, r7, r8, r9, sl, fp, lr}
 1908              	.LCFI3:
 1909              		.cfi_def_cfa_offset 36
 1910              		.cfi_offset 4, -36
 1911              		.cfi_offset 5, -32
 1912              		.cfi_offset 6, -28
 1913              		.cfi_offset 7, -24
 1914              		.cfi_offset 8, -20
 1915              		.cfi_offset 9, -16
 1916              		.cfi_offset 10, -12
 1917              		.cfi_offset 11, -8
 1918              		.cfi_offset 14, -4
 1919              		.loc 1 105 0
 1920 0004 994C     		ldr	r4, .L540
 1921              		.loc 1 108 0
 1922 0006 4368     		ldr	r3, [r0, #4]
 1923              		.loc 1 105 0
 1924 0008 B4F89220 		ldrh	r2, [r4, #146]
 1925              		.loc 1 109 0
 1926 000c 984E     		ldr	r6, .L540+4
 1927              		.loc 1 105 0
 1928 000e 571C     		adds	r7, r2, #1
 1929 0010 A4F89270 		strh	r7, [r4, #146]	@ movhi
 1930              		.loc 1 109 0
 1931 0014 1A78     		ldrb	r2, [r3, #0]	@ zero_extendqisi2
 1932              		.loc 1 108 0
 1933 0016 974F     		ldr	r7, .L540+8
 1934              		.loc 1 109 0
ARM GAS  C:\Users\jenny\AppData\Local\Temp\ccsinKfR.s 			page 35


 1935 0018 02F00F02 		and	r2, r2, #15
 1936              		.loc 1 116 0
 1937 001c 4FEA820E 		lsl	lr, r2, #2
 1938              		.loc 1 108 0
 1939 0020 3B60     		str	r3, [r7, #0]
 1940              		.loc 1 93 0
 1941 0022 83B0     		sub	sp, sp, #12
 1942              	.LCFI4:
 1943              		.cfi_def_cfa_offset 48
 1944              		.loc 1 93 0
 1945 0024 0F46     		mov	r7, r1
 1946              		.loc 1 109 0
 1947 0026 03EB8203 		add	r3, r3, r2, lsl #2
 1948              		.loc 1 116 0
 1949 002a CEF10001 		rsb	r1, lr, #0
 1950              	.LVL183:
 1951              		.loc 1 93 0
 1952 002e 0546     		mov	r5, r0
 1953              		.loc 1 109 0
 1954 0030 3360     		str	r3, [r6, #0]
 1955              		.loc 1 116 0
 1956 0032 FFF7FEFF 		bl	pbuf_header
 1957              	.LVL184:
 1958 0036 10B9     		cbnz	r0, .L517
 1959              		.loc 1 116 0 is_stmt 0 discriminator 1
 1960 0038 2889     		ldrh	r0, [r5, #8]
 1961 003a 1328     		cmp	r0, #19
 1962 003c 0FD8     		bhi	.L297
 1963              	.L517:
 1964              		.loc 1 151 0 is_stmt 1
 1965 003e B4F89A30 		ldrh	r3, [r4, #154]
 1966 0042 581C     		adds	r0, r3, #1
 1967 0044 A4F89A00 		strh	r0, [r4, #154]	@ movhi
 1968              	.L298:
 1969              		.loc 1 422 0
 1970 0048 B4F89610 		ldrh	r1, [r4, #150]
 1971              		.loc 1 424 0
 1972 004c 2846     		mov	r0, r5
 1973              		.loc 1 422 0
 1974 004e 4A1C     		adds	r2, r1, #1
 1975 0050 A4F89620 		strh	r2, [r4, #150]	@ movhi
 1976              		.loc 1 425 0
 1977 0054 03B0     		add	sp, sp, #12
 1978 0056 BDE8F04F 		pop	{r4, r5, r6, r7, r8, r9, sl, fp, lr}
 1979              		.loc 1 424 0
 1980 005a FFF7FEBF 		b	pbuf_free
 1981              	.LVL185:
 1982              	.L297:
 1983              		.loc 1 124 0
 1984 005e DFF82882 		ldr	r8, .L540+28
 1985 0062 3946     		mov	r1, r7
 1986 0064 D8F80000 		ldr	r0, [r8, #0]
 1987 0068 FFF7FEFF 		bl	ip4_addr_isbroadcast
 1988              	.LVL186:
 1989 006c A0B9     		cbnz	r0, .L299
 1990              		.loc 1 125 0 discriminator 1
 1991 006e D8F80010 		ldr	r1, [r8, #0]
ARM GAS  C:\Users\jenny\AppData\Local\Temp\ccsinKfR.s 			page 36


 1992 0072 01F0F002 		and	r2, r1, #240
 1993              		.loc 1 124 0 discriminator 1
 1994 0076 E02A     		cmp	r2, #224
 1995 0078 0ED0     		beq	.L299
 1996              		.loc 1 132 0
 1997 007a 2B89     		ldrh	r3, [r5, #8]
 1998 007c 7E49     		ldr	r1, .L540+12
 1999 007e 0093     		str	r3, [sp, #0]
 2000 0080 2846     		mov	r0, r5
 2001 0082 4246     		mov	r2, r8
 2002 0084 0623     		movs	r3, #6
 2003 0086 FFF7FEFF 		bl	inet_chksum_pseudo
 2004              	.LVL187:
 2005 008a 58B1     		cbz	r0, .L301
 2006              		.loc 1 140 0
 2007 008c B4F89830 		ldrh	r3, [r4, #152]
 2008 0090 581C     		adds	r0, r3, #1
 2009 0092 A4F89800 		strh	r0, [r4, #152]	@ movhi
 2010              		.loc 1 141 0
 2011 0096 D7E7     		b	.L298
 2012              	.L299:
 2013              		.loc 1 126 0
 2014 0098 B4F8A010 		ldrh	r1, [r4, #160]
 2015 009c 4A1C     		adds	r2, r1, #1
 2016 009e A4F8A020 		strh	r2, [r4, #160]	@ movhi
 2017              		.loc 1 127 0
 2018 00a2 D1E7     		b	.L298
 2019              	.L301:
 2020              		.loc 1 147 0
 2021 00a4 3068     		ldr	r0, [r6, #0]
 2022 00a6 8089     		ldrh	r0, [r0, #12]	@ unaligned
 2023 00a8 FFF7FEFF 		bl	lwip_ntohs
 2024              	.LVL188:
 2025              		.loc 1 148 0
 2026 00ac C0F30731 		ubfx	r1, r0, #12, #8
 2027 00b0 C1EB8132 		rsb	r2, r1, r1, lsl #14
 2028 00b4 9300     		lsls	r3, r2, #2
 2029 00b6 2846     		mov	r0, r5
 2030              	.LVL189:
 2031 00b8 19B2     		sxth	r1, r3
 2032 00ba FFF7FEFF 		bl	pbuf_header
 2033              	.LVL190:
 2034 00be 8146     		mov	r9, r0
 2035 00c0 0028     		cmp	r0, #0
 2036 00c2 BCD1     		bne	.L517
 2037              		.loc 1 156 0
 2038 00c4 3768     		ldr	r7, [r6, #0]
 2039              	.LVL191:
 2040              		.loc 1 159 0
 2041 00c6 DFF8C4A1 		ldr	sl, .L540+32
 2042              		.loc 1 156 0
 2043 00ca 3888     		ldrh	r0, [r7, #0]	@ unaligned
 2044 00cc FFF7FEFF 		bl	lwip_ntohs
 2045              	.LVL192:
 2046 00d0 3880     		strh	r0, [r7, #0]	@ unaligned
 2047              		.loc 1 157 0
 2048 00d2 3768     		ldr	r7, [r6, #0]
ARM GAS  C:\Users\jenny\AppData\Local\Temp\ccsinKfR.s 			page 37


 2049 00d4 7888     		ldrh	r0, [r7, #2]	@ unaligned
 2050 00d6 FFF7FEFF 		bl	lwip_ntohs
 2051              	.LVL193:
 2052 00da 7880     		strh	r0, [r7, #2]	@ unaligned
 2053              		.loc 1 158 0
 2054 00dc 3768     		ldr	r7, [r6, #0]
 2055 00de 7868     		ldr	r0, [r7, #4]	@ unaligned
 2056 00e0 FFF7FEFF 		bl	lwip_ntohl
 2057              	.LVL194:
 2058 00e4 40F20001 		movw	r1, #:lower16:.LANCHOR1
 2059 00e8 C0F20001 		movt	r1, #:upper16:.LANCHOR1
 2060 00ec 7860     		str	r0, [r7, #4]	@ unaligned
 2061              		.loc 1 159 0
 2062 00ee 3768     		ldr	r7, [r6, #0]
 2063              		.loc 1 158 0
 2064 00f0 0860     		str	r0, [r1, #0]
 2065              		.loc 1 159 0
 2066 00f2 B868     		ldr	r0, [r7, #8]	@ unaligned
 2067 00f4 FFF7FEFF 		bl	lwip_ntohl
 2068              	.LVL195:
 2069 00f8 B860     		str	r0, [r7, #8]	@ unaligned
 2070              		.loc 1 160 0
 2071 00fa 3768     		ldr	r7, [r6, #0]
 2072              		.loc 1 159 0
 2073 00fc CAF80000 		str	r0, [sl, #0]
 2074              		.loc 1 160 0
 2075 0100 F889     		ldrh	r0, [r7, #14]	@ unaligned
 2076 0102 FFF7FEFF 		bl	lwip_ntohs
 2077              	.LVL196:
 2078 0106 F881     		strh	r0, [r7, #14]	@ unaligned
 2079              		.loc 1 162 0
 2080 0108 3068     		ldr	r0, [r6, #0]
 2081 010a 8089     		ldrh	r0, [r0, #12]	@ unaligned
 2082 010c FFF7FEFF 		bl	lwip_ntohs
 2083              	.LVL197:
 2084              		.loc 1 170 0
 2085 0110 40F20001 		movw	r1, #:lower16:tcp_active_pcbs
 2086              		.loc 1 163 0
 2087 0114 10F00303 		ands	r3, r0, #3
 2088 0118 2A89     		ldrh	r2, [r5, #8]
 2089              		.loc 1 170 0
 2090 011a C0F20001 		movt	r1, #:upper16:tcp_active_pcbs
 2091              		.loc 1 163 0
 2092 011e 18BF     		it	ne
 2093 0120 0123     		movne	r3, #1
 2094              		.loc 1 170 0
 2095 0122 0F68     		ldr	r7, [r1, #0]
 2096              		.loc 1 163 0
 2097 0124 9B18     		adds	r3, r3, r2
 2098 0126 40F20001 		movw	r1, #:lower16:.LANCHOR4
 2099              		.loc 1 162 0
 2100 012a 40F20002 		movw	r2, #:lower16:.LANCHOR2
 2101 012e C0F20002 		movt	r2, #:upper16:.LANCHOR2
 2102              		.loc 1 163 0
 2103 0132 C0F20001 		movt	r1, #:upper16:.LANCHOR4
 2104              		.loc 1 162 0
 2105 0136 00F03F00 		and	r0, r0, #63
ARM GAS  C:\Users\jenny\AppData\Local\Temp\ccsinKfR.s 			page 38


 2106 013a 1070     		strb	r0, [r2, #0]
 2107              		.loc 1 163 0
 2108 013c 0B80     		strh	r3, [r1, #0]	@ movhi
 2109              	.LVL198:
 2110              		.loc 1 170 0
 2111 013e 002F     		cmp	r7, #0
 2112 0140 00F08B80 		beq	.L303
 2113              		.loc 1 176 0
 2114 0144 DFF830B1 		ldr	fp, .L540+12
 2115 0148 0EE0     		b	.L311
 2116              	.LVL199:
 2117              	.L304:
 2118              		.loc 1 172 0
 2119 014a 0A28     		cmp	r0, #10
 2120 014c 00F08180 		beq	.L522
 2121              	.L305:
 2122              		.loc 1 173 0
 2123 0150 0128     		cmp	r0, #1
 2124 0152 7BD0     		beq	.L523
 2125              	.L306:
 2126              		.loc 1 174 0
 2127 0154 3368     		ldr	r3, [r6, #0]
 2128 0156 B98B     		ldrh	r1, [r7, #28]
 2129 0158 1A88     		ldrh	r2, [r3, #0]	@ unaligned
 2130 015a 9142     		cmp	r1, r2
 2131 015c 0BD0     		beq	.L524
 2132              	.L307:
 2133              	.LVL200:
 2134              		.loc 1 170 0
 2135 015e F968     		ldr	r1, [r7, #12]
 2136              	.LVL201:
 2137 0160 B946     		mov	r9, r7
 2138 0162 0029     		cmp	r1, #0
 2139 0164 79D0     		beq	.L303
 2140 0166 0F46     		mov	r7, r1
 2141              	.LVL202:
 2142              	.L311:
 2143              		.loc 1 171 0
 2144 0168 387E     		ldrb	r0, [r7, #24]	@ zero_extendqisi2
 2145 016a 0028     		cmp	r0, #0
 2146 016c EDD1     		bne	.L304
 2147              		.loc 1 171 0 is_stmt 0 discriminator 1
 2148 016e FFF7FEFF 		bl	port_halt
 2149              	.LVL203:
 2150 0172 387E     		ldrb	r0, [r7, #24]	@ zero_extendqisi2
 2151 0174 E9E7     		b	.L304
 2152              	.L524:
 2153              		.loc 1 174 0 is_stmt 1 discriminator 1
 2154 0176 788B     		ldrh	r0, [r7, #26]
 2155 0178 5B88     		ldrh	r3, [r3, #2]	@ unaligned
 2156 017a 9842     		cmp	r0, r3
 2157 017c EFD1     		bne	.L307
 2158              		.loc 1 175 0
 2159 017e 7968     		ldr	r1, [r7, #4]
 2160 0180 DBF80020 		ldr	r2, [fp, #0]
 2161 0184 9142     		cmp	r1, r2
 2162 0186 EAD1     		bne	.L307
ARM GAS  C:\Users\jenny\AppData\Local\Temp\ccsinKfR.s 			page 39


 2163              		.loc 1 176 0
 2164 0188 3868     		ldr	r0, [r7, #0]
 2165 018a D8F80030 		ldr	r3, [r8, #0]
 2166 018e 9842     		cmp	r0, r3
 2167 0190 E5D1     		bne	.L307
 2168              		.loc 1 182 0
 2169 0192 FB68     		ldr	r3, [r7, #12]
 2170 0194 BB42     		cmp	r3, r7
 2171 0196 00F09883 		beq	.L525
 2172              	.L308:
 2173              		.loc 1 183 0
 2174 019a B9F1000F 		cmp	r9, #0
 2175 019e 09D0     		beq	.L309
 2176              		.loc 1 185 0
 2177 01a0 40F20000 		movw	r0, #:lower16:tcp_active_pcbs
 2178 01a4 C0F20000 		movt	r0, #:upper16:tcp_active_pcbs
 2179              		.loc 1 184 0
 2180 01a8 C9F80C30 		str	r3, [r9, #12]
 2181              		.loc 1 185 0
 2182 01ac 0268     		ldr	r2, [r0, #0]
 2183              		.loc 1 186 0
 2184 01ae 0760     		str	r7, [r0, #0]
 2185              		.loc 1 185 0
 2186 01b0 FA60     		str	r2, [r7, #12]
 2187 01b2 1346     		mov	r3, r2
 2188              	.L309:
 2189              		.loc 1 188 0
 2190 01b4 BB42     		cmp	r3, r7
 2191 01b6 00F06984 		beq	.L526
 2192              	.L310:
 2193              		.loc 1 288 0
 2194 01ba 40F20001 		movw	r1, #:lower16:.LANCHOR2
 2195 01be C0F20001 		movt	r1, #:upper16:.LANCHOR2
 2196              		.loc 1 280 0
 2197 01c2 DFF8BCB0 		ldr	fp, .L540+20
 2198              		.loc 1 288 0
 2199 01c6 0878     		ldrb	r0, [r1, #0]	@ zero_extendqisi2
 2200              		.loc 1 281 0
 2201 01c8 2B89     		ldrh	r3, [r5, #8]
 2202              		.loc 1 283 0
 2203 01ca 3268     		ldr	r2, [r6, #0]
 2204              		.loc 1 285 0
 2205 01cc DFF8C090 		ldr	r9, .L540+36
 2206              		.loc 1 286 0
 2207 01d0 DFF8C080 		ldr	r8, .L540+40
 2208              		.loc 1 281 0
 2209 01d4 ABF80830 		strh	r3, [fp, #8]	@ movhi
 2210              		.loc 1 288 0
 2211 01d8 00F00801 		and	r1, r0, #8
 2212              		.loc 1 280 0
 2213 01dc 0023     		movs	r3, #0
 2214              		.loc 1 288 0
 2215 01de C8B2     		uxtb	r0, r1
 2216              		.loc 1 282 0
 2217 01e0 8BE82800 		stmia	fp, {r3, r5}
 2218              		.loc 1 283 0
 2219 01e4 CBF80C20 		str	r2, [fp, #12]
ARM GAS  C:\Users\jenny\AppData\Local\Temp\ccsinKfR.s 			page 40


 2220              		.loc 1 285 0
 2221 01e8 C9F80030 		str	r3, [r9, #0]
 2222              		.loc 1 286 0
 2223 01ec 88F80030 		strb	r3, [r8, #0]
 2224              		.loc 1 288 0
 2225 01f0 18B1     		cbz	r0, .L399
 2226              		.loc 1 289 0
 2227 01f2 6B7B     		ldrb	r3, [r5, #13]	@ zero_extendqisi2
 2228 01f4 43F00102 		orr	r2, r3, #1
 2229 01f8 6A73     		strb	r2, [r5, #13]
 2230              	.L399:
 2231              		.loc 1 293 0
 2232 01fa BD6F     		ldr	r5, [r7, #120]
 2233              	.LVL204:
 2234 01fc 002D     		cmp	r5, #0
 2235 01fe 00F09680 		beq	.L327
 2236              		.loc 1 294 0
 2237 0202 3846     		mov	r0, r7
 2238 0204 FFF7FEFF 		bl	tcp_process_refused_data
 2239              	.LVL205:
 2240 0208 0A30     		adds	r0, r0, #10
 2241 020a 0BD0     		beq	.L328
 2242              		.loc 1 294 0 is_stmt 0 discriminator 1
 2243 020c B96F     		ldr	r1, [r7, #120]
 2244 020e 0029     		cmp	r1, #0
 2245 0210 00F08D80 		beq	.L327
 2246              		.loc 1 295 0 is_stmt 1
 2247 0214 40F20000 		movw	r0, #:lower16:.LANCHOR4
 2248 0218 C0F20000 		movt	r0, #:upper16:.LANCHOR4
 2249 021c 0388     		ldrh	r3, [r0, #0]
 2250 021e 002B     		cmp	r3, #0
 2251 0220 00F08580 		beq	.L327
 2252              	.L328:
 2253              		.loc 1 298 0
 2254 0224 B4F89600 		ldrh	r0, [r4, #150]
 2255 0228 144D     		ldr	r5, .L540+16
 2256 022a 411C     		adds	r1, r0, #1
 2257 022c A4F89610 		strh	r1, [r4, #150]	@ movhi
 2258              	.L329:
 2259              		.loc 1 398 0
 2260 0230 DBF80400 		ldr	r0, [fp, #4]
 2261              		.loc 1 394 0
 2262 0234 0024     		movs	r4, #0
 2263 0236 2C60     		str	r4, [r5, #0]
 2264              		.loc 1 395 0
 2265 0238 C9F80040 		str	r4, [r9, #0]
 2266              		.loc 1 398 0
 2267 023c 18B1     		cbz	r0, .L295
 2268              		.loc 1 400 0
 2269 023e FFF7FEFF 		bl	pbuf_free
 2270              	.LVL206:
 2271              		.loc 1 401 0
 2272 0242 0F4A     		ldr	r2, .L540+20
 2273 0244 5460     		str	r4, [r2, #4]
 2274              	.L295:
 2275              		.loc 1 425 0
 2276 0246 03B0     		add	sp, sp, #12
ARM GAS  C:\Users\jenny\AppData\Local\Temp\ccsinKfR.s 			page 41


 2277 0248 BDE8F08F 		pop	{r4, r5, r6, r7, r8, r9, sl, fp, pc}
 2278              	.LVL207:
 2279              	.L523:
 2280              		.loc 1 173 0 discriminator 1
 2281 024c FFF7FEFF 		bl	port_halt
 2282              	.LVL208:
 2283 0250 80E7     		b	.L306
 2284              	.L522:
 2285              		.loc 1 172 0 discriminator 1
 2286 0252 FFF7FEFF 		bl	port_halt
 2287              	.LVL209:
 2288 0256 387E     		ldrb	r0, [r7, #24]	@ zero_extendqisi2
 2289 0258 7AE7     		b	.L305
 2290              	.LVL210:
 2291              	.L303:
 2292              		.loc 1 197 0
 2293 025a 0A4F     		ldr	r7, .L540+24
 2294 025c 3F68     		ldr	r7, [r7, #0]
 2295              	.LVL211:
 2296 025e 002F     		cmp	r7, #0
 2297 0260 00F0BC80 		beq	.L397
 2298              		.loc 1 201 0
 2299 0264 DFF81090 		ldr	r9, .L540+12
 2300 0268 1AE0     		b	.L479
 2301              	.L541:
 2302 026a 00BF     		.align	2
 2303              	.L540:
 2304 026c 00000000 		.word	lwip_stats
 2305 0270 00000000 		.word	.LANCHOR0
 2306 0274 00000000 		.word	.LANCHOR8
 2307 0278 00000000 		.word	current_iphdr_src
 2308 027c 00000000 		.word	.LANCHOR9
 2309 0280 00000000 		.word	.LANCHOR5
 2310 0284 00000000 		.word	tcp_tw_pcbs
 2311 0288 00000000 		.word	current_iphdr_dest
 2312 028c 00000000 		.word	.LANCHOR3
 2313 0290 00000000 		.word	.LANCHOR6
 2314 0294 00000000 		.word	.LANCHOR7
 2315              	.L313:
 2316              		.loc 1 197 0
 2317 0298 FF68     		ldr	r7, [r7, #12]
 2318              	.LVL212:
 2319 029a 002F     		cmp	r7, #0
 2320 029c 00F09E80 		beq	.L397
 2321              	.L479:
 2322              		.loc 1 198 0
 2323 02a0 3A7E     		ldrb	r2, [r7, #24]	@ zero_extendqisi2
 2324 02a2 0A2A     		cmp	r2, #10
 2325 02a4 01D0     		beq	.L312
 2326              		.loc 1 198 0 is_stmt 0 discriminator 1
 2327 02a6 FFF7FEFF 		bl	port_halt
 2328              	.LVL213:
 2329              	.L312:
 2330              		.loc 1 199 0 is_stmt 1
 2331 02aa 3068     		ldr	r0, [r6, #0]
 2332 02ac B98B     		ldrh	r1, [r7, #28]
 2333 02ae 0388     		ldrh	r3, [r0, #0]	@ unaligned
ARM GAS  C:\Users\jenny\AppData\Local\Temp\ccsinKfR.s 			page 42


 2334 02b0 8B42     		cmp	r3, r1
 2335 02b2 F1D1     		bne	.L313
 2336              		.loc 1 200 0 discriminator 1
 2337 02b4 7A8B     		ldrh	r2, [r7, #26]
 2338              		.loc 1 199 0 discriminator 1
 2339 02b6 4088     		ldrh	r0, [r0, #2]	@ unaligned
 2340 02b8 9042     		cmp	r0, r2
 2341 02ba EDD1     		bne	.L313
 2342              		.loc 1 200 0
 2343 02bc 7968     		ldr	r1, [r7, #4]
 2344 02be D9F80020 		ldr	r2, [r9, #0]
 2345 02c2 9142     		cmp	r1, r2
 2346 02c4 E8D1     		bne	.L313
 2347              		.loc 1 201 0
 2348 02c6 3968     		ldr	r1, [r7, #0]
 2349 02c8 D8F80020 		ldr	r2, [r8, #0]
 2350 02cc 9142     		cmp	r1, r2
 2351 02ce E3D1     		bne	.L313
 2352              	.LVL214:
 2353              	.LBB11:
 2354              	.LBB12:
 2355              		.loc 1 536 0
 2356 02d0 40F20004 		movw	r4, #:lower16:.LANCHOR2
 2357 02d4 C0F20004 		movt	r4, #:upper16:.LANCHOR2
 2358 02d8 2278     		ldrb	r2, [r4, #0]	@ zero_extendqisi2
 2359 02da 02F00401 		and	r1, r2, #4
 2360 02de C9B2     		uxtb	r1, r1
 2361 02e0 F9B9     		cbnz	r1, .L315
 2362              		.loc 1 540 0
 2363 02e2 02F00204 		and	r4, r2, #2
 2364 02e6 E1B2     		uxtb	r1, r4
 2365 02e8 0029     		cmp	r1, #0
 2366 02ea 00F09683 		beq	.L316
 2367              		.loc 1 543 0
 2368 02ee 40F20006 		movw	r6, #:lower16:.LANCHOR1
 2369 02f2 C0F20006 		movt	r6, #:upper16:.LANCHOR1
 2370 02f6 BA6A     		ldr	r2, [r7, #40]
 2371 02f8 3168     		ldr	r1, [r6, #0]
 2372 02fa 8A1A     		subs	r2, r1, r2
 2373 02fc 04D4     		bmi	.L317
 2374 02fe BC8D     		ldrh	r4, [r7, #44]
 2375 0300 121B     		subs	r2, r2, r4
 2376 0302 002A     		cmp	r2, #0
 2377 0304 40F39083 		ble	.L527
 2378              	.L317:
 2379              		.loc 1 555 0
 2380 0308 40F20004 		movw	r4, #:lower16:.LANCHOR4
 2381 030c C0F20004 		movt	r4, #:upper16:.LANCHOR4
 2382 0310 2088     		ldrh	r0, [r4, #0]
 2383 0312 30B1     		cbz	r0, .L315
 2384              		.loc 1 557 0
 2385 0314 BB7F     		ldrb	r3, [r7, #30]	@ zero_extendqisi2
 2386 0316 43F00201 		orr	r1, r3, #2
 2387 031a B977     		strb	r1, [r7, #30]
 2388              		.loc 1 558 0
 2389 031c 3846     		mov	r0, r7
 2390 031e FFF7FEFF 		bl	tcp_output
ARM GAS  C:\Users\jenny\AppData\Local\Temp\ccsinKfR.s 			page 43


 2391              	.LVL215:
 2392              	.L315:
 2393              	.LBE12:
 2394              	.LBE11:
 2395              		.loc 1 208 0
 2396 0322 2846     		mov	r0, r5
 2397              		.loc 1 425 0
 2398 0324 03B0     		add	sp, sp, #12
 2399 0326 BDE8F04F 		pop	{r4, r5, r6, r7, r8, r9, sl, fp, lr}
 2400              		.loc 1 208 0
 2401 032a FFF7FEBF 		b	pbuf_free
 2402              	.LVL216:
 2403              	.L327:
 2404              	.LBB14:
 2405              	.LBB15:
 2406              		.loc 1 584 0
 2407 032e 40F20004 		movw	r4, #:lower16:.LANCHOR2
 2408 0332 C0F20004 		movt	r4, #:upper16:.LANCHOR2
 2409              	.LBE15:
 2410              	.LBE14:
 2411              		.loc 1 303 0
 2412 0336 B04D     		ldr	r5, .L542
 2413              	.LBB38:
 2414              	.LBB19:
 2415              		.loc 1 584 0
 2416 0338 2178     		ldrb	r1, [r4, #0]	@ zero_extendqisi2
 2417              	.LBE19:
 2418              	.LBE38:
 2419              		.loc 1 303 0
 2420 033a 2F60     		str	r7, [r5, #0]
 2421              	.LVL217:
 2422              	.LBB39:
 2423              	.LBB20:
 2424              		.loc 1 584 0
 2425 033c 01F00402 		and	r2, r1, #4
 2426 0340 D0B2     		uxtb	r0, r2
 2427 0342 30B3     		cbz	r0, .L330
 2428              	.LVL218:
 2429              		.loc 1 586 0
 2430 0344 3C7E     		ldrb	r4, [r7, #24]	@ zero_extendqisi2
 2431 0346 022C     		cmp	r4, #2
 2432 0348 00F07D82 		beq	.L528
 2433              		.loc 1 591 0
 2434 034c 40F20006 		movw	r6, #:lower16:.LANCHOR1
 2435 0350 C0F20006 		movt	r6, #:upper16:.LANCHOR1
 2436 0354 BB6A     		ldr	r3, [r7, #40]
 2437 0356 3168     		ldr	r1, [r6, #0]
 2438 0358 CA1A     		subs	r2, r1, r3
 2439 035a 04D4     		bmi	.L335
 2440 035c B88D     		ldrh	r0, [r7, #44]
 2441 035e 111A     		subs	r1, r2, r0
 2442 0360 0029     		cmp	r1, #0
 2443 0362 40F39783 		ble	.L529
 2444              	.LVL219:
 2445              	.L335:
 2446              	.LBE20:
 2447              	.LBE39:
ARM GAS  C:\Users\jenny\AppData\Local\Temp\ccsinKfR.s 			page 44


 2448              		.loc 1 308 0
 2449 0366 98F80030 		ldrb	r3, [r8, #0]	@ zero_extendqisi2
 2450 036a 03F00802 		and	r2, r3, #8
 2451 036e D0B2     		uxtb	r0, r2
 2452 0370 F8B1     		cbz	r0, .L530
 2453              		.loc 1 313 0
 2454 0372 D7F88C30 		ldr	r3, [r7, #140]
 2455 0376 1BB1     		cbz	r3, .L379
 2456              		.loc 1 313 0 is_stmt 0 discriminator 1
 2457 0378 3869     		ldr	r0, [r7, #16]
 2458 037a 6FF00A01 		mvn	r1, #10
 2459 037e 9847     		blx	r3
 2460              	.LVL220:
 2461              	.L379:
 2462              		.loc 1 325 0 is_stmt 1
 2463 0380 3946     		mov	r1, r7
 2464 0382 9E48     		ldr	r0, .L542+4
 2465 0384 FFF7FEFF 		bl	tcp_pcb_remove
 2466              	.LVL221:
 2467              		.loc 1 326 0
 2468 0388 0220     		movs	r0, #2
 2469 038a 3946     		mov	r1, r7
 2470 038c FFF7FEFF 		bl	memp_free
 2471              	.LVL222:
 2472 0390 4EE7     		b	.L329
 2473              	.LVL223:
 2474              	.L330:
 2475              	.LBB40:
 2476              	.LBB21:
 2477              		.loc 1 612 0
 2478 0392 01F00203 		and	r3, r1, #2
 2479 0396 DCB2     		uxtb	r4, r3
 2480 0398 002C     		cmp	r4, #0
 2481 039a 00F0CA80 		beq	.L336
 2482 039e 397E     		ldrb	r1, [r7, #24]	@ zero_extendqisi2
 2483 03a0 8A1E     		subs	r2, r1, #2
 2484 03a2 012A     		cmp	r2, #1
 2485 03a4 40F2C580 		bls	.L336
 2486              	.LVL224:
 2487              	.L353:
 2488              		.loc 1 674 0
 2489 03a8 BA7F     		ldrb	r2, [r7, #30]	@ zero_extendqisi2
 2490 03aa 42F00200 		orr	r0, r2, #2
 2491 03ae B877     		strb	r0, [r7, #30]
 2492 03b0 D9E7     		b	.L335
 2493              	.LVL225:
 2494              	.L530:
 2495              	.LBE21:
 2496              	.LBE40:
 2497              		.loc 1 316 0
 2498 03b2 03F01001 		and	r1, r3, #16
 2499 03b6 CCB2     		uxtb	r4, r1
 2500 03b8 002C     		cmp	r4, #0
 2501 03ba 00F00882 		beq	.L378
 2502              		.loc 1 319 0
 2503 03be B87F     		ldrb	r0, [r7, #30]	@ zero_extendqisi2
 2504 03c0 00F01004 		and	r4, r0, #16
ARM GAS  C:\Users\jenny\AppData\Local\Temp\ccsinKfR.s 			page 45


 2505 03c4 E1B2     		uxtb	r1, r4
 2506 03c6 0029     		cmp	r1, #0
 2507 03c8 DAD1     		bne	.L379
 2508              		.loc 1 323 0
 2509 03ca D7F88C20 		ldr	r2, [r7, #140]
 2510 03ce 002A     		cmp	r2, #0
 2511 03d0 D6D0     		beq	.L379
 2512              		.loc 1 323 0 is_stmt 0 discriminator 1
 2513 03d2 3869     		ldr	r0, [r7, #16]
 2514 03d4 6FF00B01 		mvn	r1, #11
 2515 03d8 9047     		blx	r2
 2516              	.LVL226:
 2517 03da D1E7     		b	.L379
 2518              	.LVL227:
 2519              	.L397:
 2520              		.loc 1 216 0 is_stmt 1
 2521 03dc DFF830C2 		ldr	ip, .L542+24
 2522 03e0 DCF80070 		ldr	r7, [ip, #0]
 2523              	.LVL228:
 2524 03e4 002F     		cmp	r7, #0
 2525 03e6 00F0C481 		beq	.L320
 2526 03ea D6F800B0 		ldr	fp, [r6, #0]
 2527              		.loc 1 228 0
 2528 03ee D8F80000 		ldr	r0, [r8, #0]
 2529 03f2 BBF80220 		ldrh	r2, [fp, #2]	@ unaligned
 2530 03f6 B946     		mov	r9, r7
 2531              		.loc 1 215 0
 2532 03f8 0021     		movs	r1, #0
 2533 03fa 06E0     		b	.L323
 2534              	.LVL229:
 2535              	.L321:
 2536              		.loc 1 216 0
 2537 03fc D9F80C30 		ldr	r3, [r9, #12]
 2538              	.LVL230:
 2539 0400 4946     		mov	r1, r9
 2540 0402 002B     		cmp	r3, #0
 2541 0404 00F0B581 		beq	.L320
 2542              	.LVL231:
 2543 0408 9946     		mov	r9, r3
 2544              	.LVL232:
 2545              	.L323:
 2546              		.loc 1 217 0
 2547 040a B9F81A30 		ldrh	r3, [r9, #26]
 2548 040e 9342     		cmp	r3, r2
 2549 0410 F4D1     		bne	.L321
 2550              		.loc 1 228 0
 2551 0412 D9F80030 		ldr	r3, [r9, #0]
 2552 0416 8342     		cmp	r3, r0
 2553 0418 01D0     		beq	.L322
 2554              		.loc 1 229 0 discriminator 1
 2555 041a 002B     		cmp	r3, #0
 2556 041c EED1     		bne	.L321
 2557              	.L322:
 2558              		.loc 1 249 0
 2559 041e 31B1     		cbz	r1, .L401
 2560              		.loc 1 250 0
 2561 0420 D9F80C30 		ldr	r3, [r9, #12]
ARM GAS  C:\Users\jenny\AppData\Local\Temp\ccsinKfR.s 			page 46


 2562              		.loc 1 254 0
 2563 0424 CCF80090 		str	r9, [ip, #0]
 2564              		.loc 1 250 0
 2565 0428 CB60     		str	r3, [r1, #12]
 2566              		.loc 1 252 0
 2567 042a C9F80C70 		str	r7, [r9, #12]
 2568              	.L401:
 2569              	.LVL233:
 2570              	.LBB41:
 2571              	.LBB42:
 2572              		.loc 1 445 0
 2573 042e 40F20001 		movw	r1, #:lower16:.LANCHOR2
 2574 0432 C0F20001 		movt	r1, #:upper16:.LANCHOR2
 2575 0436 0878     		ldrb	r0, [r1, #0]	@ zero_extendqisi2
 2576 0438 00F00403 		and	r3, r0, #4
 2577 043c D9B2     		uxtb	r1, r3
 2578 043e 0029     		cmp	r1, #0
 2579 0440 7FF46FAF 		bne	.L315
 2580              		.loc 1 452 0
 2581 0444 00F01007 		and	r7, r0, #16
 2582 0448 FFB2     		uxtb	r7, r7
 2583 044a 002F     		cmp	r7, #0
 2584 044c 40F01782 		bne	.L531
 2585              		.loc 1 458 0
 2586 0450 00F00202 		and	r2, r0, #2
 2587 0454 D0B2     		uxtb	r0, r2
 2588 0456 0028     		cmp	r0, #0
 2589 0458 3FF463AF 		beq	.L315
 2590              		.loc 1 466 0
 2591 045c 99F81900 		ldrb	r0, [r9, #25]	@ zero_extendqisi2
 2592 0460 FFF7FEFF 		bl	tcp_alloc
 2593              	.LVL234:
 2594              		.loc 1 470 0
 2595 0464 8246     		mov	sl, r0
 2596 0466 0028     		cmp	r0, #0
 2597 0468 00F00382 		beq	.L532
 2598              		.loc 1 481 0
 2599 046c 644B     		ldr	r3, .L542+8
 2600              		.loc 1 480 0
 2601 046e B9F81A40 		ldrh	r4, [r9, #26]
 2602              		.loc 1 481 0
 2603 0472 1A68     		ldr	r2, [r3, #0]
 2604              		.loc 1 482 0
 2605 0474 3068     		ldr	r0, [r6, #0]
 2606              	.LVL235:
 2607              		.loc 1 479 0
 2608 0476 D8F80010 		ldr	r1, [r8, #0]
 2609              		.loc 1 480 0
 2610 047a AAF81A40 		strh	r4, [sl, #26]	@ movhi
 2611              		.loc 1 484 0
 2612 047e 40F20006 		movw	r6, #:lower16:.LANCHOR1
 2613 0482 C0F20006 		movt	r6, #:upper16:.LANCHOR1
 2614              		.loc 1 479 0
 2615 0486 CAF80010 		str	r1, [sl, #0]
 2616              		.loc 1 481 0
 2617 048a CAF80420 		str	r2, [sl, #4]
 2618              		.loc 1 482 0
ARM GAS  C:\Users\jenny\AppData\Local\Temp\ccsinKfR.s 			page 47


 2619 048e 90F801C0 		ldrb	ip, [r0, #1]	@ zero_extendqisi2
 2620 0492 90F800E0 		ldrb	lr, [r0, #0]	@ zero_extendqisi2
 2621              		.loc 1 484 0
 2622 0496 3468     		ldr	r4, [r6, #0]
 2623              		.loc 1 490 0
 2624 0498 D9F81010 		ldr	r1, [r9, #16]
 2625              		.loc 1 492 0
 2626 049c D9F81420 		ldr	r2, [r9, #20]
 2627              		.loc 1 482 0
 2628 04a0 4EEA0C2E 		orr	lr, lr, ip, lsl #8
 2629              		.loc 1 484 0
 2630 04a4 661C     		adds	r6, r4, #1
 2631              		.loc 1 483 0
 2632 04a6 4FF0030C 		mov	ip, #3
 2633              		.loc 1 482 0
 2634 04aa AAF81CE0 		strh	lr, [sl, #28]	@ movhi
 2635              		.loc 1 483 0
 2636 04ae 8AF818C0 		strb	ip, [sl, #24]
 2637              		.loc 1 484 0
 2638 04b2 CAF82860 		str	r6, [sl, #40]
 2639              		.loc 1 485 0
 2640 04b6 CAF83060 		str	r6, [sl, #48]
 2641              		.loc 1 498 0
 2642 04ba 40F20003 		movw	r3, #:lower16:tcp_active_pcbs
 2643              		.loc 1 486 0
 2644 04be C089     		ldrh	r0, [r0, #14]	@ unaligned
 2645              		.loc 1 492 0
 2646 04c0 CAF81420 		str	r2, [sl, #20]
 2647              		.loc 1 498 0
 2648 04c4 C0F20003 		movt	r3, #:upper16:tcp_active_pcbs
 2649              		.loc 1 489 0
 2650 04c8 013C     		subs	r4, r4, #1
 2651              		.loc 1 498 0
 2652 04ca 1B68     		ldr	r3, [r3, #0]
 2653              		.loc 1 486 0
 2654 04cc AAF86000 		strh	r0, [sl, #96]	@ movhi
 2655              		.loc 1 487 0
 2656 04d0 AAF86200 		strh	r0, [sl, #98]	@ movhi
 2657              		.loc 1 488 0
 2658 04d4 AAF84E00 		strh	r0, [sl, #78]	@ movhi
 2659              		.loc 1 490 0
 2660 04d8 CAF81010 		str	r1, [sl, #16]
 2661              		.loc 1 489 0
 2662 04dc CAF85440 		str	r4, [sl, #84]
 2663              		.loc 1 495 0
 2664 04e0 99F80810 		ldrb	r1, [r9, #8]	@ zero_extendqisi2
 2665              		.loc 1 498 0
 2666 04e4 CAF80C30 		str	r3, [sl, #12]
 2667 04e8 40F20003 		movw	r3, #:lower16:tcp_active_pcbs
 2668              		.loc 1 495 0
 2669 04ec 21F07302 		bic	r2, r1, #115
 2670              		.loc 1 498 0
 2671 04f0 C0F20003 		movt	r3, #:upper16:tcp_active_pcbs
 2672              		.loc 1 495 0
 2673 04f4 8AF80820 		strb	r2, [sl, #8]
 2674              		.loc 1 498 0
 2675 04f8 C3F800A0 		str	sl, [r3, #0]
ARM GAS  C:\Users\jenny\AppData\Local\Temp\ccsinKfR.s 			page 48


 2676 04fc FFF7FEFF 		bl	tcp_timer_needed
 2677              	.LVL236:
 2678 0500 404A     		ldr	r2, .L542+12
 2679 0502 0121     		movs	r1, #1
 2680              		.loc 1 501 0
 2681 0504 5046     		mov	r0, sl
 2682              		.loc 1 498 0
 2683 0506 1170     		strb	r1, [r2, #0]
 2684              		.loc 1 501 0
 2685 0508 FFF7FEFF 		bl	tcp_parseopt
 2686              	.LVL237:
 2687              		.loc 1 503 0
 2688 050c 0AF10401 		add	r1, sl, #4
 2689 0510 BAF83600 		ldrh	r0, [sl, #54]
 2690 0514 FFF7FEFF 		bl	tcp_eff_send_mss
 2691              	.LVL238:
 2692              		.loc 1 509 0
 2693 0518 1221     		movs	r1, #18
 2694              		.loc 1 503 0
 2695 051a AAF83600 		strh	r0, [sl, #54]	@ movhi
 2696              		.loc 1 509 0
 2697 051e 5046     		mov	r0, sl
 2698 0520 FFF7FEFF 		bl	tcp_enqueue_flags
 2699              	.LVL239:
 2700              		.loc 1 510 0
 2701 0524 0028     		cmp	r0, #0
 2702 0526 40F09F81 		bne	.L533
 2703              		.loc 1 514 0
 2704 052a 5046     		mov	r0, sl
 2705              	.LVL240:
 2706 052c FFF7FEFF 		bl	tcp_output
 2707              	.LVL241:
 2708 0530 F7E6     		b	.L315
 2709              	.LVL242:
 2710              	.L336:
 2711              	.LBE42:
 2712              	.LBE41:
 2713              	.LBB44:
 2714              		.loc 1 618 0
 2715 0532 B87F     		ldrb	r0, [r7, #30]	@ zero_extendqisi2
 2716              	.LBB22:
 2717 0534 00F01003 		and	r3, r0, #16
 2718 0538 DCB2     		uxtb	r4, r3
 2719 053a 14B9     		cbnz	r4, .L337
 2720              		.loc 1 620 0
 2721 053c 3249     		ldr	r1, .L542+16
 2722 053e 0A68     		ldr	r2, [r1, #0]
 2723 0540 7A62     		str	r2, [r7, #36]
 2724              	.L337:
 2725              		.loc 1 622 0
 2726 0542 0020     		movs	r0, #0
 2727 0544 87F89600 		strb	r0, [r7, #150]
 2728              		.loc 1 624 0
 2729 0548 3846     		mov	r0, r7
 2730 054a FFF7FEFF 		bl	tcp_parseopt
 2731              	.LVL243:
 2732              		.loc 1 627 0
ARM GAS  C:\Users\jenny\AppData\Local\Temp\ccsinKfR.s 			page 49


 2733 054e 3B7E     		ldrb	r3, [r7, #24]	@ zero_extendqisi2
 2734 0550 9C1E     		subs	r4, r3, #2
 2735 0552 072C     		cmp	r4, #7
 2736 0554 3FF607AF 		bhi	.L335
 2737 0558 DFE814F0 		tbh	[pc, r4, lsl #1]
 2738              	.L345:
 2739 055c A200     		.2byte	(.L338-.L345)/2
 2740 055e E000     		.2byte	(.L339-.L345)/2
 2741 0560 CE00     		.2byte	(.L340-.L345)/2
 2742 0562 8100     		.2byte	(.L341-.L345)/2
 2743 0564 5C00     		.2byte	(.L342-.L345)/2
 2744 0566 CE00     		.2byte	(.L340-.L345)/2
 2745 0568 2300     		.2byte	(.L343-.L345)/2
 2746 056a 0800     		.2byte	(.L344-.L345)/2
 2747              	.L344:
 2748              	.LBE22:
 2749              		.loc 1 781 0
 2750 056c 40F20006 		movw	r6, #:lower16:.LANCHOR2
 2751 0570 C0F20006 		movt	r6, #:upper16:.LANCHOR2
 2752              	.LBB23:
 2753              		.loc 1 780 0
 2754 0574 3846     		mov	r0, r7
 2755 0576 FFF7FEFF 		bl	tcp_receive
 2756              	.LVL244:
 2757              	.LBE23:
 2758              		.loc 1 781 0
 2759 057a 3178     		ldrb	r1, [r6, #0]	@ zero_extendqisi2
 2760              	.LBB24:
 2761 057c 01F01002 		and	r2, r1, #16
 2762 0580 D0B2     		uxtb	r0, r2
 2763 0582 0028     		cmp	r0, #0
 2764 0584 3FF4EFAE 		beq	.L335
 2765 0588 3B6D     		ldr	r3, [r7, #80]
 2766 058a DAF80040 		ldr	r4, [sl, #0]
 2767 058e A342     		cmp	r3, r4
 2768 0590 7FF4E9AE 		bne	.L335
 2769              		.loc 1 784 0
 2770 0594 98F80010 		ldrb	r1, [r8, #0]	@ zero_extendqisi2
 2771 0598 41F01002 		orr	r2, r1, #16
 2772 059c 88F80020 		strb	r2, [r8, #0]
 2773 05a0 E1E6     		b	.L335
 2774              	.L343:
 2775              		.loc 1 770 0
 2776 05a2 3846     		mov	r0, r7
 2777 05a4 FFF7FEFF 		bl	tcp_receive
 2778              	.LVL245:
 2779              	.LBE24:
 2780              		.loc 1 771 0
 2781 05a8 40F20000 		movw	r0, #:lower16:.LANCHOR2
 2782 05ac C0F20000 		movt	r0, #:upper16:.LANCHOR2
 2783 05b0 0378     		ldrb	r3, [r0, #0]	@ zero_extendqisi2
 2784              	.LBB25:
 2785 05b2 03F01004 		and	r4, r3, #16
 2786 05b6 E1B2     		uxtb	r1, r4
 2787 05b8 0029     		cmp	r1, #0
 2788 05ba 3FF4D4AE 		beq	.L335
 2789 05be 386D     		ldr	r0, [r7, #80]
ARM GAS  C:\Users\jenny\AppData\Local\Temp\ccsinKfR.s 			page 50


 2790 05c0 DAF80020 		ldr	r2, [sl, #0]
 2791 05c4 9042     		cmp	r0, r2
 2792 05c6 7FF4CEAE 		bne	.L335
 2793              		.loc 1 773 0
 2794 05ca 3846     		mov	r0, r7
 2795 05cc FFF7FEFF 		bl	tcp_pcb_purge
 2796              	.LVL246:
 2797              		.loc 1 774 0
 2798 05d0 40F20003 		movw	r3, #:lower16:tcp_active_pcbs
 2799 05d4 C0F20003 		movt	r3, #:upper16:tcp_active_pcbs
 2800 05d8 1868     		ldr	r0, [r3, #0]
 2801 05da B842     		cmp	r0, r7
 2802 05dc 00F04782 		beq	.L521
 2803 05e0 0A4C     		ldr	r4, .L542+20
 2804 05e2 2060     		str	r0, [r4, #0]
 2805              	.L375:
 2806 05e4 0028     		cmp	r0, #0
 2807 05e6 00F08982 		beq	.L519
 2808 05ea C168     		ldr	r1, [r0, #12]
 2809 05ec B942     		cmp	r1, r7
 2810 05ee 00F08182 		beq	.L520
 2811 05f2 0846     		mov	r0, r1
 2812 05f4 F6E7     		b	.L375
 2813              	.L543:
 2814 05f6 00BF     		.align	2
 2815              	.L542:
 2816 05f8 00000000 		.word	.LANCHOR9
 2817 05fc 00000000 		.word	tcp_active_pcbs
 2818 0600 00000000 		.word	current_iphdr_src
 2819 0604 00000000 		.word	tcp_active_pcbs_changed
 2820 0608 00000000 		.word	tcp_ticks
 2821 060c 00000000 		.word	tcp_tmp_pcb
 2822 0610 00000000 		.word	tcp_listen_pcbs
 2823              	.L342:
 2824              		.loc 1 759 0
 2825 0614 3846     		mov	r0, r7
 2826 0616 FFF7FEFF 		bl	tcp_receive
 2827              	.LVL247:
 2828              	.LBE25:
 2829              		.loc 1 760 0
 2830 061a 98F80020 		ldrb	r2, [r8, #0]	@ zero_extendqisi2
 2831              	.LBB26:
 2832 061e 02F02003 		and	r3, r2, #32
 2833 0622 DCB2     		uxtb	r4, r3
 2834 0624 002C     		cmp	r4, #0
 2835 0626 3FF49EAE 		beq	.L335
 2836              		.loc 1 762 0
 2837 062a B97F     		ldrb	r1, [r7, #30]	@ zero_extendqisi2
 2838 062c 41F00200 		orr	r0, r1, #2
 2839 0630 B877     		strb	r0, [r7, #30]
 2840              		.loc 1 763 0
 2841 0632 3846     		mov	r0, r7
 2842 0634 FFF7FEFF 		bl	tcp_pcb_purge
 2843              	.LVL248:
 2844              		.loc 1 764 0
 2845 0638 40F20002 		movw	r2, #:lower16:tcp_active_pcbs
 2846 063c C0F20002 		movt	r2, #:upper16:tcp_active_pcbs
ARM GAS  C:\Users\jenny\AppData\Local\Temp\ccsinKfR.s 			page 51


 2847 0640 1068     		ldr	r0, [r2, #0]
 2848 0642 B842     		cmp	r0, r7
 2849 0644 00F01382 		beq	.L521
 2850 0648 AB4C     		ldr	r4, .L544
 2851 064a 2060     		str	r0, [r4, #0]
 2852              	.L371:
 2853 064c 0028     		cmp	r0, #0
 2854 064e 00F05582 		beq	.L519
 2855 0652 C368     		ldr	r3, [r0, #12]
 2856 0654 BB42     		cmp	r3, r7
 2857 0656 00F04D82 		beq	.L520
 2858 065a 1846     		mov	r0, r3
 2859 065c F6E7     		b	.L371
 2860              	.L341:
 2861              		.loc 1 740 0
 2862 065e 3846     		mov	r0, r7
 2863 0660 FFF7FEFF 		bl	tcp_receive
 2864              	.LVL249:
 2865              	.LBE26:
 2866              		.loc 1 741 0
 2867 0664 98F80040 		ldrb	r4, [r8, #0]	@ zero_extendqisi2
 2868              	.LBB27:
 2869 0668 04F02001 		and	r1, r4, #32
 2870 066c C8B2     		uxtb	r0, r1
 2871 066e 0028     		cmp	r0, #0
 2872 0670 00F01682 		beq	.L363
 2873              	.LBE27:
 2874              		.loc 1 742 0
 2875 0674 40F20003 		movw	r3, #:lower16:.LANCHOR2
 2876 0678 C0F20003 		movt	r3, #:upper16:.LANCHOR2
 2877 067c 1C78     		ldrb	r4, [r3, #0]	@ zero_extendqisi2
 2878              	.LBB28:
 2879 067e 04F01001 		and	r1, r4, #16
 2880 0682 C8B2     		uxtb	r0, r1
 2881 0684 28B1     		cbz	r0, .L364
 2882 0686 3B6D     		ldr	r3, [r7, #80]
 2883 0688 DAF80020 		ldr	r2, [sl, #0]
 2884 068c 9342     		cmp	r3, r2
 2885 068e 00F01B82 		beq	.L534
 2886              	.L364:
 2887              		.loc 1 751 0
 2888 0692 BC7F     		ldrb	r4, [r7, #30]	@ zero_extendqisi2
 2889              		.loc 1 752 0
 2890 0694 0820     		movs	r0, #8
 2891              		.loc 1 751 0
 2892 0696 44F00201 		orr	r1, r4, #2
 2893 069a B977     		strb	r1, [r7, #30]
 2894              		.loc 1 752 0
 2895 069c 3876     		strb	r0, [r7, #24]
 2896 069e 62E6     		b	.L335
 2897              	.L338:
 2898              	.LBE28:
 2899              		.loc 1 632 0
 2900 06a0 40F20002 		movw	r2, #:lower16:.LANCHOR2
 2901 06a4 C0F20002 		movt	r2, #:upper16:.LANCHOR2
 2902 06a8 1178     		ldrb	r1, [r2, #0]	@ zero_extendqisi2
 2903              	.LBB29:
ARM GAS  C:\Users\jenny\AppData\Local\Temp\ccsinKfR.s 			page 52


 2904 06aa 01F01203 		and	r3, r1, #18
 2905 06ae 122B     		cmp	r3, #18
 2906 06b0 00F02A81 		beq	.L535
 2907              	.L346:
 2908              	.LBE29:
 2909              		.loc 1 677 0
 2910 06b4 40F20001 		movw	r1, #:lower16:.LANCHOR2
 2911 06b8 C0F20001 		movt	r1, #:upper16:.LANCHOR2
 2912 06bc 0B78     		ldrb	r3, [r1, #0]	@ zero_extendqisi2
 2913              	.LBB30:
 2914 06be 03F01004 		and	r4, r3, #16
 2915 06c2 E2B2     		uxtb	r2, r4
 2916 06c4 002A     		cmp	r2, #0
 2917 06c6 3FF44EAE 		beq	.L335
 2918              		.loc 1 680 0
 2919 06ca 3368     		ldr	r3, [r6, #0]
 2920              		.loc 1 679 0
 2921 06cc 40F20004 		movw	r4, #:lower16:.LANCHOR1
 2922 06d0 40F20006 		movw	r6, #:lower16:.LANCHOR4
 2923 06d4 5888     		ldrh	r0, [r3, #2]	@ unaligned
 2924 06d6 C0F20006 		movt	r6, #:upper16:.LANCHOR4
 2925 06da C0F20004 		movt	r4, #:upper16:.LANCHOR1
 2926 06de 3188     		ldrh	r1, [r6, #0]
 2927 06e0 2268     		ldr	r2, [r4, #0]
 2928 06e2 0090     		str	r0, [sp, #0]
 2929 06e4 1B88     		ldrh	r3, [r3, #0]	@ unaligned
 2930 06e6 DAF80000 		ldr	r0, [sl, #0]
 2931 06ea 0193     		str	r3, [sp, #4]
 2932 06ec 8918     		adds	r1, r1, r2
 2933 06ee 834B     		ldr	r3, .L544+4
 2934 06f0 834A     		ldr	r2, .L544+8
 2935 06f2 FFF7FEFF 		bl	tcp_rst
 2936              	.LVL250:
 2937 06f6 36E6     		b	.L335
 2938              	.L340:
 2939              		.loc 1 733 0
 2940 06f8 3846     		mov	r0, r7
 2941 06fa FFF7FEFF 		bl	tcp_receive
 2942              	.LVL251:
 2943              	.LBE30:
 2944              		.loc 1 734 0
 2945 06fe 98F80040 		ldrb	r4, [r8, #0]	@ zero_extendqisi2
 2946              	.LBB31:
 2947 0702 04F02001 		and	r1, r4, #32
 2948 0706 CBB2     		uxtb	r3, r1
 2949 0708 002B     		cmp	r3, #0
 2950 070a 3FF42CAE 		beq	.L335
 2951              	.LVL252:
 2952              	.L518:
 2953              		.loc 1 735 0
 2954 070e BB7F     		ldrb	r3, [r7, #30]	@ zero_extendqisi2
 2955              		.loc 1 736 0
 2956 0710 0724     		movs	r4, #7
 2957              		.loc 1 735 0
 2958 0712 43F00200 		orr	r0, r3, #2
 2959 0716 B877     		strb	r0, [r7, #30]
 2960              		.loc 1 736 0
ARM GAS  C:\Users\jenny\AppData\Local\Temp\ccsinKfR.s 			page 53


 2961 0718 3C76     		strb	r4, [r7, #24]
 2962 071a 24E6     		b	.L335
 2963              	.LVL253:
 2964              	.L339:
 2965              		.loc 1 684 0
 2966 071c 40F20000 		movw	r0, #:lower16:.LANCHOR2
 2967 0720 C0F20000 		movt	r0, #:upper16:.LANCHOR2
 2968 0724 0478     		ldrb	r4, [r0, #0]	@ zero_extendqisi2
 2969 0726 04F01002 		and	r2, r4, #16
 2970 072a D1B2     		uxtb	r1, r2
 2971 072c 0029     		cmp	r1, #0
 2972 072e 00F08A81 		beq	.L354
 2973              		.loc 1 686 0
 2974 0732 BC6C     		ldr	r4, [r7, #72]
 2975 0734 DAF80000 		ldr	r0, [sl, #0]
 2976 0738 E243     		mvns	r2, r4
 2977 073a C242     		cmn	r2, r0
 2978 073c 04D4     		bmi	.L355
 2979 073e 396D     		ldr	r1, [r7, #80]
 2980 0740 431A     		subs	r3, r0, r1
 2981 0742 002B     		cmp	r3, #0
 2982 0744 40F33781 		ble	.L536
 2983              	.L355:
 2984              		.loc 1 723 0
 2985 0748 3368     		ldr	r3, [r6, #0]
 2986              		.loc 1 722 0
 2987 074a 40F20006 		movw	r6, #:lower16:.LANCHOR4
 2988 074e C0F20006 		movt	r6, #:upper16:.LANCHOR4
 2989 0752 5A88     		ldrh	r2, [r3, #2]	@ unaligned
 2990 0754 3488     		ldrh	r4, [r6, #0]
 2991 0756 40F20006 		movw	r6, #:lower16:.LANCHOR1
 2992 075a C0F20006 		movt	r6, #:upper16:.LANCHOR1
 2993 075e 3168     		ldr	r1, [r6, #0]
 2994 0760 0092     		str	r2, [sp, #0]
 2995 0762 1B88     		ldrh	r3, [r3, #0]	@ unaligned
 2996 0764 664A     		ldr	r2, .L544+8
 2997 0766 0193     		str	r3, [sp, #4]
 2998 0768 6118     		adds	r1, r4, r1
 2999 076a 644B     		ldr	r3, .L544+4
 3000 076c FFF7FEFF 		bl	tcp_rst
 3001              	.LVL254:
 3002 0770 F9E5     		b	.L335
 3003              	.LVL255:
 3004              	.L320:
 3005              	.LBE31:
 3006              	.LBE44:
 3007              		.loc 1 408 0
 3008 0772 3068     		ldr	r0, [r6, #0]
 3009 0774 8089     		ldrh	r0, [r0, #12]	@ unaligned
 3010 0776 FFF7FEFF 		bl	lwip_ntohs
 3011              	.LVL256:
 3012 077a 00F00402 		and	r2, r0, #4
 3013 077e 93B2     		uxth	r3, r2
 3014 0780 002B     		cmp	r3, #0
 3015 0782 7FF4CEAD 		bne	.L315
 3016              		.loc 1 409 0
 3017 0786 B4F8A0C0 		ldrh	ip, [r4, #160]
ARM GAS  C:\Users\jenny\AppData\Local\Temp\ccsinKfR.s 			page 54


 3018              		.loc 1 410 0
 3019 078a B4F896E0 		ldrh	lr, [r4, #150]
 3020              		.loc 1 413 0
 3021 078e 5D4E     		ldr	r6, .L544+12
 3022              		.loc 1 411 0
 3023 0790 DAF80000 		ldr	r0, [sl, #0]
 3024              		.loc 1 413 0
 3025 0794 3668     		ldr	r6, [r6, #0]
 3026              		.loc 1 411 0
 3027 0796 5A4A     		ldr	r2, .L544+8
 3028 0798 584B     		ldr	r3, .L544+4
 3029              		.loc 1 409 0
 3030 079a 0CF1010C 		add	ip, ip, #1
 3031              		.loc 1 410 0
 3032 079e 0EF1010E 		add	lr, lr, #1
 3033              		.loc 1 409 0
 3034 07a2 A4F8A0C0 		strh	ip, [r4, #160]	@ movhi
 3035              		.loc 1 410 0
 3036 07a6 A4F896E0 		strh	lr, [r4, #150]	@ movhi
 3037              		.loc 1 411 0
 3038 07aa 40F20007 		movw	r7, #:lower16:.LANCHOR4
 3039 07ae 40F20001 		movw	r1, #:lower16:.LANCHOR1
 3040 07b2 7488     		ldrh	r4, [r6, #2]	@ unaligned
 3041 07b4 C0F20007 		movt	r7, #:upper16:.LANCHOR4
 3042 07b8 C0F20001 		movt	r1, #:upper16:.LANCHOR1
 3043 07bc 3F88     		ldrh	r7, [r7, #0]
 3044 07be 0968     		ldr	r1, [r1, #0]
 3045 07c0 0094     		str	r4, [sp, #0]
 3046 07c2 3488     		ldrh	r4, [r6, #0]	@ unaligned
 3047 07c4 7918     		adds	r1, r7, r1
 3048 07c6 0194     		str	r4, [sp, #4]
 3049 07c8 FFF7FEFF 		bl	tcp_rst
 3050              	.LVL257:
 3051 07cc A9E5     		b	.L315
 3052              	.LVL258:
 3053              	.L378:
 3054              		.loc 1 332 0
 3055 07ce B7F86420 		ldrh	r2, [r7, #100]
 3056 07d2 3AB1     		cbz	r2, .L383
 3057              		.loc 1 333 0
 3058 07d4 FB6F     		ldr	r3, [r7, #124]
 3059 07d6 2BB1     		cbz	r3, .L383
 3060              		.loc 1 333 0 is_stmt 0 discriminator 1
 3061 07d8 3869     		ldr	r0, [r7, #16]
 3062 07da 3946     		mov	r1, r7
 3063 07dc 9847     		blx	r3
 3064              	.LVL259:
 3065              		.loc 1 334 0 is_stmt 1 discriminator 1
 3066 07de 0A30     		adds	r0, r0, #10
 3067              	.LVL260:
 3068 07e0 3FF426AD 		beq	.L329
 3069              	.L383:
 3070              		.loc 1 339 0
 3071 07e4 D9F80020 		ldr	r2, [r9, #0]
 3072 07e8 D2B1     		cbz	r2, .L384
 3073              		.loc 1 340 0
 3074 07ea B86F     		ldr	r0, [r7, #120]
ARM GAS  C:\Users\jenny\AppData\Local\Temp\ccsinKfR.s 			page 55


 3075 07ec 08B1     		cbz	r0, .L385
 3076              		.loc 1 340 0 is_stmt 0 discriminator 1
 3077 07ee FFF7FEFF 		bl	port_halt
 3078              	.LVL261:
 3079              	.L385:
 3080              		.loc 1 341 0 is_stmt 1
 3081 07f2 B97F     		ldrb	r1, [r7, #30]	@ zero_extendqisi2
 3082 07f4 01F01004 		and	r4, r1, #16
 3083 07f8 E3B2     		uxtb	r3, r4
 3084 07fa 002B     		cmp	r3, #0
 3085 07fc 5DD1     		bne	.L537
 3086              		.loc 1 350 0
 3087 07fe D7F88040 		ldr	r4, [r7, #128]
 3088 0802 002C     		cmp	r4, #0
 3089 0804 51D0     		beq	.L387
 3090              		.loc 1 350 0 is_stmt 0 discriminator 1
 3091 0806 3869     		ldr	r0, [r7, #16]
 3092 0808 D9F80020 		ldr	r2, [r9, #0]
 3093 080c 3946     		mov	r1, r7
 3094 080e A047     		blx	r4
 3095              	.LVL262:
 3096              	.L388:
 3097              		.loc 1 351 0 is_stmt 1
 3098 0810 43B2     		sxtb	r3, r0
 3099 0812 0A33     		adds	r3, r3, #10
 3100 0814 3FF40CAD 		beq	.L329
 3101              		.loc 1 356 0
 3102 0818 10B1     		cbz	r0, .L384
 3103              		.loc 1 357 0
 3104 081a D9F80020 		ldr	r2, [r9, #0]
 3105 081e BA67     		str	r2, [r7, #120]
 3106              	.LVL263:
 3107              	.L384:
 3108              		.loc 1 364 0
 3109 0820 98F80000 		ldrb	r0, [r8, #0]	@ zero_extendqisi2
 3110 0824 00F02001 		and	r1, r0, #32
 3111 0828 CCB2     		uxtb	r4, r1
 3112 082a 34B1     		cbz	r4, .L391
 3113              		.loc 1 365 0
 3114 082c BB6F     		ldr	r3, [r7, #120]
 3115 082e 002B     		cmp	r3, #0
 3116 0830 4FD0     		beq	.L392
 3117              		.loc 1 367 0
 3118 0832 597B     		ldrb	r1, [r3, #13]	@ zero_extendqisi2
 3119 0834 41F02002 		orr	r2, r1, #32
 3120 0838 5A73     		strb	r2, [r3, #13]
 3121              	.L391:
 3122              		.loc 1 381 0
 3123 083a 0023     		movs	r3, #0
 3124              		.loc 1 383 0
 3125 083c 3846     		mov	r0, r7
 3126              		.loc 1 381 0
 3127 083e 2B60     		str	r3, [r5, #0]
 3128              		.loc 1 383 0
 3129 0840 FFF7FEFF 		bl	tcp_output
 3130              	.LVL264:
 3131 0844 F4E4     		b	.L329
ARM GAS  C:\Users\jenny\AppData\Local\Temp\ccsinKfR.s 			page 56


 3132              	.LVL265:
 3133              	.L528:
 3134              	.LBB45:
 3135              	.LBB32:
 3136              		.loc 1 587 0
 3137 0846 3C6D     		ldr	r4, [r7, #80]
 3138 0848 DAF80030 		ldr	r3, [sl, #0]
 3139 084c 9C42     		cmp	r4, r3
 3140 084e 7FF48AAD 		bne	.L335
 3141              	.LVL266:
 3142              	.L332:
 3143              		.loc 1 600 0
 3144 0852 98F80020 		ldrb	r2, [r8, #0]	@ zero_extendqisi2
 3145              		.loc 1 601 0
 3146 0856 B87F     		ldrb	r0, [r7, #30]	@ zero_extendqisi2
 3147              		.loc 1 600 0
 3148 0858 42F00801 		orr	r1, r2, #8
 3149              		.loc 1 601 0
 3150 085c 20F00104 		bic	r4, r0, #1
 3151              		.loc 1 600 0
 3152 0860 88F80010 		strb	r1, [r8, #0]
 3153              		.loc 1 601 0
 3154 0864 BC77     		strb	r4, [r7, #30]
 3155 0866 7EE5     		b	.L335
 3156              	.LVL267:
 3157              	.L533:
 3158              	.LBE32:
 3159              	.LBE45:
 3160              	.LBB46:
 3161              	.LBB43:
 3162              		.loc 1 511 0
 3163 0868 5046     		mov	r0, sl
 3164              	.LVL268:
 3165 086a 3946     		mov	r1, r7
 3166 086c FFF7FEFF 		bl	tcp_abandon
 3167              	.LVL269:
 3168 0870 57E5     		b	.L315
 3169              	.LVL270:
 3170              	.L532:
 3171              		.loc 1 472 0
 3172 0872 B4F89C00 		ldrh	r0, [r4, #156]
 3173              	.LVL271:
 3174 0876 431C     		adds	r3, r0, #1
 3175 0878 A4F89C30 		strh	r3, [r4, #156]	@ movhi
 3176 087c 51E5     		b	.L315
 3177              	.LVL272:
 3178              	.L531:
 3179              		.loc 1 456 0
 3180 087e 40F20004 		movw	r4, #:lower16:.LANCHOR4
 3181 0882 C0F20004 		movt	r4, #:upper16:.LANCHOR4
 3182 0886 0092     		str	r2, [sp, #0]
 3183 0888 2188     		ldrh	r1, [r4, #0]
 3184 088a BBF80020 		ldrh	r2, [fp, #0]	@ unaligned
 3185 088e DAF80000 		ldr	r0, [sl, #0]
 3186 0892 40F20004 		movw	r4, #:lower16:.LANCHOR1
 3187 0896 C0F20004 		movt	r4, #:upper16:.LANCHOR1
 3188 089a 2368     		ldr	r3, [r4, #0]
ARM GAS  C:\Users\jenny\AppData\Local\Temp\ccsinKfR.s 			page 57


 3189 089c 0192     		str	r2, [sp, #4]
 3190 089e C918     		adds	r1, r1, r3
 3191 08a0 174A     		ldr	r2, .L544+8
 3192 08a2 164B     		ldr	r3, .L544+4
 3193 08a4 FFF7FEFF 		bl	tcp_rst
 3194              	.LVL273:
 3195 08a8 3BE5     		b	.L315
 3196              	.LVL274:
 3197              	.L387:
 3198              	.LBE43:
 3199              	.LBE46:
 3200              		.loc 1 350 0 discriminator 2
 3201 08aa 2046     		mov	r0, r4
 3202 08ac 3946     		mov	r1, r7
 3203 08ae D9F80020 		ldr	r2, [r9, #0]
 3204 08b2 2346     		mov	r3, r4
 3205 08b4 FFF7FEFF 		bl	tcp_recv_null
 3206              	.LVL275:
 3207 08b8 AAE7     		b	.L388
 3208              	.LVL276:
 3209              	.L537:
 3210              		.loc 1 344 0
 3211 08ba D9F80000 		ldr	r0, [r9, #0]
 3212 08be FFF7FEFF 		bl	pbuf_free
 3213              	.LVL277:
 3214              	.L516:
 3215              		.loc 1 345 0
 3216 08c2 3846     		mov	r0, r7
 3217 08c4 FFF7FEFF 		bl	tcp_abort
 3218              	.LVL278:
 3219              		.loc 1 346 0
 3220 08c8 B2E4     		b	.L329
 3221              	.LVL279:
 3222              	.L525:
 3223              		.loc 1 182 0 discriminator 1
 3224 08ca FFF7FEFF 		bl	port_halt
 3225              	.LVL280:
 3226 08ce FB68     		ldr	r3, [r7, #12]
 3227 08d0 63E4     		b	.L308
 3228              	.LVL281:
 3229              	.L392:
 3230              		.loc 1 371 0
 3231 08d2 BA8D     		ldrh	r2, [r7, #44]
 3232 08d4 B2F5066F 		cmp	r2, #2144
 3233 08d8 01D0     		beq	.L393
 3234              		.loc 1 372 0
 3235 08da 501C     		adds	r0, r2, #1
 3236 08dc B885     		strh	r0, [r7, #44]	@ movhi
 3237              	.L393:
 3238              		.loc 1 374 0
 3239 08de D7F88040 		ldr	r4, [r7, #128]
 3240 08e2 002C     		cmp	r4, #0
 3241 08e4 A9D0     		beq	.L391
 3242              		.loc 1 374 0 is_stmt 0 discriminator 1
 3243 08e6 0022     		movs	r2, #0
 3244 08e8 3869     		ldr	r0, [r7, #16]
 3245 08ea 3946     		mov	r1, r7
ARM GAS  C:\Users\jenny\AppData\Local\Temp\ccsinKfR.s 			page 58


 3246 08ec 1346     		mov	r3, r2
 3247 08ee A047     		blx	r4
 3248              	.LVL282:
 3249              		.loc 1 375 0 is_stmt 1 discriminator 1
 3250 08f0 0A30     		adds	r0, r0, #10
 3251              	.LVL283:
 3252 08f2 A2D1     		bne	.L391
 3253 08f4 9CE4     		b	.L329
 3254              	.L545:
 3255 08f6 00BF     		.align	2
 3256              	.L544:
 3257 08f8 00000000 		.word	tcp_tmp_pcb
 3258 08fc 00000000 		.word	current_iphdr_src
 3259 0900 00000000 		.word	current_iphdr_dest
 3260 0904 00000000 		.word	.LANCHOR0
 3261              	.LVL284:
 3262              	.L535:
 3263              	.LBB47:
 3264              	.LBB33:
 3265              		.loc 1 633 0
 3266 0908 386F     		ldr	r0, [r7, #112]
 3267 090a C468     		ldr	r4, [r0, #12]
 3268 090c 6068     		ldr	r0, [r4, #4]	@ unaligned
 3269 090e FFF7FEFF 		bl	lwip_ntohl
 3270              	.LVL285:
 3271 0912 DAF80020 		ldr	r2, [sl, #0]
 3272 0916 0130     		adds	r0, r0, #1
 3273 0918 9042     		cmp	r0, r2
 3274 091a 7FF4CBAE 		bne	.L346
 3275              		.loc 1 635 0
 3276 091e 40F20001 		movw	r1, #:lower16:.LANCHOR1
 3277 0922 C0F20001 		movt	r1, #:upper16:.LANCHOR1
 3278              		.loc 1 634 0
 3279 0926 B7F86640 		ldrh	r4, [r7, #102]
 3280              		.loc 1 635 0
 3281 092a 0A68     		ldr	r2, [r1, #0]
 3282              		.loc 1 637 0
 3283 092c B864     		str	r0, [r7, #72]
 3284              		.loc 1 635 0
 3285 092e 531C     		adds	r3, r2, #1
 3286              		.loc 1 634 0
 3287 0930 601C     		adds	r0, r4, #1
 3288              		.loc 1 638 0
 3289 0932 3168     		ldr	r1, [r6, #0]
 3290              		.loc 1 634 0
 3291 0934 A7F86600 		strh	r0, [r7, #102]	@ movhi
 3292              		.loc 1 635 0
 3293 0938 BB62     		str	r3, [r7, #40]
 3294              		.loc 1 636 0
 3295 093a 3B63     		str	r3, [r7, #48]
 3296              		.loc 1 638 0
 3297 093c CC89     		ldrh	r4, [r1, #14]	@ unaligned
 3298              		.loc 1 644 0
 3299 093e F88E     		ldrh	r0, [r7, #54]
 3300              		.loc 1 638 0
 3301 0940 A7F86040 		strh	r4, [r7, #96]	@ movhi
 3302              		.loc 1 640 0
ARM GAS  C:\Users\jenny\AppData\Local\Temp\ccsinKfR.s 			page 59


 3303 0944 013A     		subs	r2, r2, #1
 3304              		.loc 1 641 0
 3305 0946 0421     		movs	r1, #4
 3306              		.loc 1 639 0
 3307 0948 A7F86240 		strh	r4, [r7, #98]	@ movhi
 3308              		.loc 1 640 0
 3309 094c 7A65     		str	r2, [r7, #84]
 3310              		.loc 1 641 0
 3311 094e 3976     		strb	r1, [r7, #24]
 3312              		.loc 1 644 0
 3313 0950 7918     		adds	r1, r7, r1
 3314 0952 FFF7FEFF 		bl	tcp_eff_send_mss
 3315              	.LVL286:
 3316              		.loc 1 651 0
 3317 0956 B7F84C30 		ldrh	r3, [r7, #76]
 3318              		.loc 1 644 0
 3319 095a F886     		strh	r0, [r7, #54]	@ movhi
 3320              		.loc 1 649 0
 3321 095c 0A24     		movs	r4, #10
 3322 095e 04FB00F2 		mul	r2, r4, r0
 3323              		.loc 1 651 0
 3324 0962 012B     		cmp	r3, #1
 3325              		.loc 1 649 0
 3326 0964 A7F84E20 		strh	r2, [r7, #78]	@ movhi
 3327              		.loc 1 651 0
 3328 0968 01D1     		bne	.L347
 3329 096a 4000     		lsls	r0, r0, #1
 3330 096c 80B2     		uxth	r0, r0
 3331              	.L347:
 3332              		.loc 1 652 0
 3333 096e B7F86810 		ldrh	r1, [r7, #104]
 3334              		.loc 1 651 0
 3335 0972 A7F84C00 		strh	r0, [r7, #76]	@ movhi
 3336              		.loc 1 652 0
 3337 0976 09B9     		cbnz	r1, .L348
 3338 0978 FFF7FEFF 		bl	port_halt
 3339              	.LVL287:
 3340              	.L348:
 3341              		.loc 1 655 0
 3342 097c 386F     		ldr	r0, [r7, #112]
 3343              	.LVL288:
 3344              		.loc 1 653 0
 3345 097e B7F86840 		ldrh	r4, [r7, #104]
 3346              		.loc 1 656 0
 3347 0982 0368     		ldr	r3, [r0, #0]
 3348              		.loc 1 653 0
 3349 0984 621E     		subs	r2, r4, #1
 3350 0986 A7F86820 		strh	r2, [r7, #104]	@ movhi
 3351              		.loc 1 656 0
 3352 098a 3B67     		str	r3, [r7, #112]
 3353              		.loc 1 657 0
 3354 098c FFF7FEFF 		bl	tcp_seg_free
 3355              	.LVL289:
 3356              		.loc 1 661 0
 3357 0990 386F     		ldr	r0, [r7, #112]
 3358 0992 E8B1     		cbz	r0, .L538
 3359              		.loc 1 664 0
ARM GAS  C:\Users\jenny\AppData\Local\Temp\ccsinKfR.s 			page 60


 3360 0994 0021     		movs	r1, #0
 3361 0996 B986     		strh	r1, [r7, #52]	@ movhi
 3362              		.loc 1 665 0
 3363 0998 87F84610 		strb	r1, [r7, #70]
 3364              	.L350:
 3365              		.loc 1 670 0
 3366 099c D7F88440 		ldr	r4, [r7, #132]
 3367 09a0 002C     		cmp	r4, #0
 3368 09a2 3FF401AD 		beq	.L353
 3369 09a6 0022     		movs	r2, #0
 3370 09a8 3869     		ldr	r0, [r7, #16]
 3371 09aa 3946     		mov	r1, r7
 3372 09ac A047     		blx	r4
 3373              	.LVL290:
 3374              		.loc 1 671 0
 3375 09ae 0A30     		adds	r0, r0, #10
 3376              	.LVL291:
 3377 09b0 7FF4FAAC 		bne	.L353
 3378 09b4 3CE4     		b	.L329
 3379              	.LVL292:
 3380              	.L536:
 3381              	.LBB16:
 3382              		.loc 1 691 0
 3383 09b6 7C69     		ldr	r4, [r7, #20]
 3384              		.loc 1 688 0
 3385 09b8 0420     		movs	r0, #4
 3386 09ba 3876     		strb	r0, [r7, #24]
 3387              		.loc 1 691 0
 3388 09bc 3CB3     		cbz	r4, .L539
 3389              	.L356:
 3390              		.loc 1 694 0
 3391 09be 3869     		ldr	r0, [r7, #16]
 3392 09c0 3946     		mov	r1, r7
 3393 09c2 0022     		movs	r2, #0
 3394 09c4 A047     		blx	r4
 3395              	.LVL293:
 3396              		.loc 1 695 0
 3397 09c6 38B1     		cbz	r0, .L358
 3398              		.loc 1 699 0
 3399 09c8 0A30     		adds	r0, r0, #10
 3400              	.LVL294:
 3401 09ca 7FF47AAF 		bne	.L516
 3402 09ce 2FE4     		b	.L329
 3403              	.LVL295:
 3404              	.L538:
 3405              	.LBE16:
 3406              		.loc 1 662 0
 3407 09d0 4FF6FF73 		movw	r3, #65535
 3408 09d4 BB86     		strh	r3, [r7, #52]	@ movhi
 3409 09d6 E1E7     		b	.L350
 3410              	.LVL296:
 3411              	.L358:
 3412              	.LBB17:
 3413              		.loc 1 707 0
 3414 09d8 3846     		mov	r0, r7
 3415              	.LVL297:
 3416              		.loc 1 704 0
ARM GAS  C:\Users\jenny\AppData\Local\Temp\ccsinKfR.s 			page 61


 3417 09da B7F84C40 		ldrh	r4, [r7, #76]
 3418              	.LVL298:
 3419              		.loc 1 707 0
 3420 09de FFF7FEFF 		bl	tcp_receive
 3421              	.LVL299:
 3422              		.loc 1 710 0
 3423 09e2 B7F86420 		ldrh	r2, [r7, #100]
 3424 09e6 12B1     		cbz	r2, .L360
 3425              		.loc 1 711 0
 3426 09e8 511E     		subs	r1, r2, #1
 3427 09ea A7F86410 		strh	r1, [r7, #100]	@ movhi
 3428              	.L360:
 3429              		.loc 1 714 0
 3430 09ee 012C     		cmp	r4, #1
 3431 09f0 F88E     		ldrh	r0, [r7, #54]
 3432 09f2 01D1     		bne	.L362
 3433 09f4 4300     		lsls	r3, r0, #1
 3434 09f6 98B2     		uxth	r0, r3
 3435              	.L362:
 3436              	.LBE17:
 3437              	.LBE33:
 3438              		.loc 1 716 0
 3439 09f8 98F80040 		ldrb	r4, [r8, #0]	@ zero_extendqisi2
 3440              	.LVL300:
 3441              	.LBB34:
 3442              	.LBB18:
 3443              		.loc 1 714 0
 3444 09fc A7F84C00 		strh	r0, [r7, #76]	@ movhi
 3445              		.loc 1 716 0
 3446 0a00 04F02002 		and	r2, r4, #32
 3447 0a04 D1B2     		uxtb	r1, r2
 3448 0a06 0029     		cmp	r1, #0
 3449 0a08 3FF4ADAC 		beq	.L335
 3450 0a0c 7FE6     		b	.L518
 3451              	.LVL301:
 3452              	.L539:
 3453              		.loc 1 691 0
 3454 0a0e FFF7FEFF 		bl	port_halt
 3455              	.LVL302:
 3456              		.loc 1 694 0
 3457 0a12 7C69     		ldr	r4, [r7, #20]
 3458 0a14 002C     		cmp	r4, #0
 3459 0a16 D2D1     		bne	.L356
 3460 0a18 53E7     		b	.L516
 3461              	.LVL303:
 3462              	.L316:
 3463              	.LBE18:
 3464              	.LBE34:
 3465              	.LBE47:
 3466              	.LBB48:
 3467              	.LBB13:
 3468              		.loc 1 549 0
 3469 0a1a D107     		lsls	r1, r2, #31
 3470 0a1c 7FF574AC 		bpl	.L317
 3471              		.loc 1 552 0
 3472 0a20 3748     		ldr	r0, .L546
 3473 0a22 0368     		ldr	r3, [r0, #0]
ARM GAS  C:\Users\jenny\AppData\Local\Temp\ccsinKfR.s 			page 62


 3474 0a24 7B62     		str	r3, [r7, #36]
 3475 0a26 6FE4     		b	.L317
 3476              	.L527:
 3477              		.loc 1 545 0
 3478 0a28 40F20004 		movw	r4, #:lower16:.LANCHOR4
 3479 0a2c C0F20004 		movt	r4, #:upper16:.LANCHOR4
 3480 0a30 344A     		ldr	r2, .L546+4
 3481 0a32 2488     		ldrh	r4, [r4, #0]
 3482 0a34 8DE80900 		stmia	sp, {r0, r3}
 3483 0a38 6118     		adds	r1, r4, r1
 3484 0a3a DAF80000 		ldr	r0, [sl, #0]
 3485 0a3e 324B     		ldr	r3, .L546+8
 3486 0a40 FFF7FEFF 		bl	tcp_rst
 3487              	.LVL304:
 3488 0a44 6DE4     		b	.L315
 3489              	.LVL305:
 3490              	.L354:
 3491              	.LBE13:
 3492              	.LBE48:
 3493              	.LBB49:
 3494              	.LBB35:
 3495              		.loc 1 725 0
 3496 0a46 04F00203 		and	r3, r4, #2
 3497 0a4a D8B2     		uxtb	r0, r3
 3498 0a4c 0028     		cmp	r0, #0
 3499 0a4e 3FF48AAC 		beq	.L335
 3500 0a52 40F20002 		movw	r2, #:lower16:.LANCHOR1
 3501 0a56 C0F20002 		movt	r2, #:upper16:.LANCHOR1
 3502 0a5a BC6A     		ldr	r4, [r7, #40]
 3503 0a5c 1168     		ldr	r1, [r2, #0]
 3504 0a5e 631E     		subs	r3, r4, #1
 3505 0a60 8B42     		cmp	r3, r1
 3506 0a62 7FF480AC 		bne	.L335
 3507              		.loc 1 727 0
 3508 0a66 3846     		mov	r0, r7
 3509 0a68 FFF7FEFF 		bl	tcp_rexmit
 3510              	.LVL306:
 3511 0a6c 7BE4     		b	.L335
 3512              	.L521:
 3513              		.loc 1 774 0
 3514 0a6e F868     		ldr	r0, [r7, #12]
 3515 0a70 264A     		ldr	r2, .L546+12
 3516 0a72 1060     		str	r0, [r2, #0]
 3517              	.L374:
 3518              		.loc 1 776 0
 3519 0a74 264C     		ldr	r4, .L546+16
 3520              		.loc 1 774 0
 3521 0a76 274A     		ldr	r2, .L546+20
 3522              		.loc 1 776 0
 3523 0a78 2168     		ldr	r1, [r4, #0]
 3524 0a7a 2760     		str	r7, [r4, #0]
 3525              		.loc 1 775 0
 3526 0a7c 0A23     		movs	r3, #10
 3527              		.loc 1 774 0
 3528 0a7e 0120     		movs	r0, #1
 3529              		.loc 1 775 0
 3530 0a80 3B76     		strb	r3, [r7, #24]
ARM GAS  C:\Users\jenny\AppData\Local\Temp\ccsinKfR.s 			page 63


 3531              		.loc 1 776 0
 3532 0a82 F960     		str	r1, [r7, #12]
 3533              		.loc 1 774 0
 3534 0a84 1070     		strb	r0, [r2, #0]
 3535              		.loc 1 776 0
 3536 0a86 FFF7FEFF 		bl	tcp_timer_needed
 3537              	.LVL307:
 3538 0a8a 6CE4     		b	.L335
 3539              	.LVL308:
 3540              	.L526:
 3541              	.LBE35:
 3542              	.LBE49:
 3543              		.loc 1 188 0 discriminator 1
 3544 0a8c FFF7FEFF 		bl	port_halt
 3545              	.LVL309:
 3546 0a90 FFF793BB 		b	.L310
 3547              	.LVL310:
 3548              	.L529:
 3549              	.LBB50:
 3550              	.LBB36:
 3551              		.loc 1 599 0
 3552 0a94 002C     		cmp	r4, #0
 3553 0a96 7FF4DCAE 		bne	.L332
 3554 0a9a FFF7FEFF 		bl	port_halt
 3555              	.LVL311:
 3556 0a9e D8E6     		b	.L332
 3557              	.LVL312:
 3558              	.L363:
 3559              	.LBE36:
 3560              		.loc 1 754 0
 3561 0aa0 40F20006 		movw	r6, #:lower16:.LANCHOR2
 3562 0aa4 C0F20006 		movt	r6, #:upper16:.LANCHOR2
 3563 0aa8 3278     		ldrb	r2, [r6, #0]	@ zero_extendqisi2
 3564              	.LBB37:
 3565 0aaa 02F01003 		and	r3, r2, #16
 3566 0aae DCB2     		uxtb	r4, r3
 3567 0ab0 002C     		cmp	r4, #0
 3568 0ab2 3FF458AC 		beq	.L335
 3569 0ab6 396D     		ldr	r1, [r7, #80]
 3570 0ab8 DAF80000 		ldr	r0, [sl, #0]
 3571 0abc 8142     		cmp	r1, r0
 3572 0abe 7FF452AC 		bne	.L335
 3573              		.loc 1 755 0
 3574 0ac2 0622     		movs	r2, #6
 3575 0ac4 3A76     		strb	r2, [r7, #24]
 3576 0ac6 4EE4     		b	.L335
 3577              	.L534:
 3578              		.loc 1 745 0
 3579 0ac8 BB7F     		ldrb	r3, [r7, #30]	@ zero_extendqisi2
 3580              		.loc 1 747 0
 3581 0aca 40F20004 		movw	r4, #:lower16:tcp_active_pcbs
 3582              		.loc 1 745 0
 3583 0ace 43F00202 		orr	r2, r3, #2
 3584              		.loc 1 747 0
 3585 0ad2 C0F20004 		movt	r4, #:upper16:tcp_active_pcbs
 3586              		.loc 1 746 0
 3587 0ad6 3846     		mov	r0, r7
ARM GAS  C:\Users\jenny\AppData\Local\Temp\ccsinKfR.s 			page 64


 3588              		.loc 1 745 0
 3589 0ad8 BA77     		strb	r2, [r7, #30]
 3590              		.loc 1 746 0
 3591 0ada FFF7FEFF 		bl	tcp_pcb_purge
 3592              	.LVL313:
 3593              		.loc 1 747 0
 3594 0ade 2068     		ldr	r0, [r4, #0]
 3595 0ae0 B842     		cmp	r0, r7
 3596 0ae2 C4D0     		beq	.L521
 3597 0ae4 0C4C     		ldr	r4, .L546+24
 3598 0ae6 2060     		str	r0, [r4, #0]
 3599              	.L367:
 3600 0ae8 40B1     		cbz	r0, .L519
 3601 0aea C168     		ldr	r1, [r0, #12]
 3602 0aec B942     		cmp	r1, r7
 3603 0aee 01D0     		beq	.L520
 3604 0af0 0846     		mov	r0, r1
 3605 0af2 F9E7     		b	.L367
 3606              	.L520:
 3607              		.loc 1 774 0
 3608 0af4 FB68     		ldr	r3, [r7, #12]
 3609 0af6 2060     		str	r0, [r4, #0]
 3610 0af8 C360     		str	r3, [r0, #12]
 3611 0afa BBE7     		b	.L374
 3612              	.L519:
 3613 0afc 2060     		str	r0, [r4, #0]
 3614 0afe B9E7     		b	.L374
 3615              	.L547:
 3616              		.align	2
 3617              	.L546:
 3618 0b00 00000000 		.word	tcp_ticks
 3619 0b04 00000000 		.word	current_iphdr_dest
 3620 0b08 00000000 		.word	current_iphdr_src
 3621 0b0c 00000000 		.word	tcp_active_pcbs
 3622 0b10 00000000 		.word	tcp_tw_pcbs
 3623 0b14 00000000 		.word	tcp_active_pcbs_changed
 3624 0b18 00000000 		.word	tcp_tmp_pcb
 3625              	.LBE37:
 3626              	.LBE50:
 3627              		.cfi_endproc
 3628              	.LFE7:
 3629              		.size	tcp_input, .-tcp_input
 3630              		.global	tcp_input_pcb
 3631 0b1c AFF30080 		.section	.bss.tcphdr,"aw",%nobits
 3632              		.align	2
 3633              		.set	.LANCHOR0,. + 0
 3634              		.type	tcphdr, %object
 3635              		.size	tcphdr, 4
 3636              	tcphdr:
 3637 0000 00000000 		.space	4
 3638              		.section	.bss.seqno,"aw",%nobits
 3639              		.align	2
 3640              		.set	.LANCHOR1,. + 0
 3641              		.type	seqno, %object
 3642              		.size	seqno, 4
 3643              	seqno:
 3644 0000 00000000 		.space	4
ARM GAS  C:\Users\jenny\AppData\Local\Temp\ccsinKfR.s 			page 65


 3645              		.section	.bss.tcplen,"aw",%nobits
 3646              		.align	1
 3647              		.set	.LANCHOR4,. + 0
 3648              		.type	tcplen, %object
 3649              		.size	tcplen, 2
 3650              	tcplen:
 3651 0000 0000     		.space	2
 3652              		.section	.bss.ackno,"aw",%nobits
 3653              		.align	2
 3654              		.set	.LANCHOR3,. + 0
 3655              		.type	ackno, %object
 3656              		.size	ackno, 4
 3657              	ackno:
 3658 0000 00000000 		.space	4
 3659              		.section	.bss.flags,"aw",%nobits
 3660              		.set	.LANCHOR2,. + 0
 3661              		.type	flags, %object
 3662              		.size	flags, 1
 3663              	flags:
 3664 0000 00       		.space	1
 3665              		.section	.bss.recv_flags,"aw",%nobits
 3666              		.set	.LANCHOR7,. + 0
 3667              		.type	recv_flags, %object
 3668              		.size	recv_flags, 1
 3669              	recv_flags:
 3670 0000 00       		.space	1
 3671              		.section	.bss.recv_data,"aw",%nobits
 3672              		.align	2
 3673              		.set	.LANCHOR6,. + 0
 3674              		.type	recv_data, %object
 3675              		.size	recv_data, 4
 3676              	recv_data:
 3677 0000 00000000 		.space	4
 3678              		.section	.bss.iphdr,"aw",%nobits
 3679              		.align	2
 3680              		.set	.LANCHOR8,. + 0
 3681              		.type	iphdr, %object
 3682              		.size	iphdr, 4
 3683              	iphdr:
 3684 0000 00000000 		.space	4
 3685              		.section	.bss.inseg,"aw",%nobits
 3686              		.align	2
 3687              		.set	.LANCHOR5,. + 0
 3688              		.type	inseg, %object
 3689              		.size	inseg, 16
 3690              	inseg:
 3691 0000 00000000 		.space	16
 3691      00000000 
 3691      00000000 
 3691      00000000 
 3692              		.section	.bss.tcp_input_pcb,"aw",%nobits
 3693              		.align	2
 3694              		.set	.LANCHOR9,. + 0
 3695              		.type	tcp_input_pcb, %object
 3696              		.size	tcp_input_pcb, 4
 3697              	tcp_input_pcb:
 3698 0000 00000000 		.space	4
ARM GAS  C:\Users\jenny\AppData\Local\Temp\ccsinKfR.s 			page 66


 3699              		.text
 3700              	.Letext0:
 3701              		.file 2 "c:\\fbin\\yagarto\\bin\\../lib/gcc/arm-none-eabi/4.7.4/../../../../arm-none-eabi/include/
 3702              		.file 3 "../../os/various/lwip_bindings/arch/cc.h"
 3703              		.file 4 "../../ext/lwip/src/include/lwip/mem.h"
 3704              		.file 5 "../../ext/lwip/src/include/lwip/err.h"
 3705              		.file 6 "../../ext/lwip/src/include/lwip/pbuf.h"
 3706              		.file 7 "../../ext/lwip/src/include/ipv4/lwip/ip_addr.h"
 3707              		.file 8 "../../ext/lwip/src/include/lwip/netif.h"
 3708              		.file 9 "../../ext/lwip/src/include/ipv4/lwip/ip.h"
 3709              		.file 10 "../../ext/lwip/src/include/lwip/tcp.h"
 3710              		.file 11 "../../ext/lwip/src/include/lwip/tcp_impl.h"
 3711              		.file 12 "../../ext/lwip/src/include/lwip/memp.h"
 3712              		.file 13 "../../ext/lwip/src/include/lwip/stats.h"
 3713              		.file 14 "../../ext/lwip/src/include/lwip/def.h"
 3714              		.file 15 "../../os/ports/GCC/ARMCMx/chcore_v7m.h"
 3715              		.file 16 "../../ext/lwip/src/include/ipv4/lwip/inet_chksum.h"