ARM GAS  C:\Users\jenny\AppData\Local\Temp\ccboqoci.s 			page 1


   1              		.syntax unified
   2              		.cpu cortex-m4
   3              		.eabi_attribute 27, 3
   4              		.fpu fpv4-sp-d16
   5              		.eabi_attribute 20, 1
   6              		.eabi_attribute 21, 1
   7              		.eabi_attribute 23, 3
   8              		.eabi_attribute 24, 1
   9              		.eabi_attribute 25, 1
  10              		.eabi_attribute 26, 1
  11              		.eabi_attribute 30, 2
  12              		.eabi_attribute 34, 1
  13              		.eabi_attribute 18, 4
  14              		.thumb
  15              		.file	"tcpip.c"
  16              		.text
  17              	.Ltext0:
  18              		.cfi_sections	.debug_frame
  19              		.section	.text.pbuf_free_int,"ax",%progbits
  20              		.align	2
  21              		.p2align 4,,15
  22              		.thumb
  23              		.thumb_func
  24              		.type	pbuf_free_int, %function
  25              	pbuf_free_int:
  26              	.LFB17:
  27              		.file 1 "../../ext/lwip/src/api/tcpip.c"
  28              		.loc 1 481 0
  29              		.cfi_startproc
  30              		@ args = 0, pretend = 0, frame = 0
  31              		@ frame_needed = 0, uses_anonymous_args = 0
  32              		@ link register save eliminated.
  33              	.LVL0:
  34              		.loc 1 484 0
  35              		.loc 1 483 0
  36 0000 FFF7FEBF 		b	pbuf_free
  37              	.LVL1:
  38              		.cfi_endproc
  39              	.LFE17:
  40              		.size	pbuf_free_int, .-pbuf_free_int
  41 0004 AFF30080 		.section	.text.tcpip_thread,"ax",%progbits
  41      AFF30080 
  41      AFF30080 
  42              		.align	2
  43              		.p2align 4,,15
  44              		.thumb
  45              		.thumb_func
  46              		.type	tcpip_thread, %function
  47              	tcpip_thread:
  48              	.LFB7:
  49              		.loc 1 75 0
  50              		.cfi_startproc
  51              		@ args = 0, pretend = 0, frame = 8
  52              		@ frame_needed = 0, uses_anonymous_args = 0
  53              	.LVL2:
  54 0000 10B5     		push	{r4, lr}
  55              	.LCFI0:
ARM GAS  C:\Users\jenny\AppData\Local\Temp\ccboqoci.s 			page 2


  56              		.cfi_def_cfa_offset 8
  57              		.cfi_offset 4, -8
  58              		.cfi_offset 14, -4
  59              		.loc 1 79 0
  60 0002 274B     		ldr	r3, .L20
  61 0004 1968     		ldr	r1, [r3, #0]
  62              		.loc 1 75 0
  63 0006 82B0     		sub	sp, sp, #8
  64              	.LCFI1:
  65              		.cfi_def_cfa_offset 16
  66              		.loc 1 79 0
  67 0008 11B1     		cbz	r1, .L18
  68              		.loc 1 80 0
  69 000a 264A     		ldr	r2, .L20+4
  70 000c 1068     		ldr	r0, [r2, #0]
  71              	.LVL3:
  72 000e 8847     		blx	r1
  73              	.LVL4:
  74              	.L18:
  75 0010 01AC     		add	r4, sp, #4
  76              	.LVL5:
  77              	.L17:
  78              		.loc 1 88 0
  79 0012 2548     		ldr	r0, .L20+8
  80 0014 2146     		mov	r1, r4
  81 0016 FFF7FEFF 		bl	sys_timeouts_mbox_fetch
  82              	.LVL6:
  83              		.loc 1 90 0
  84 001a 019B     		ldr	r3, [sp, #4]
  85 001c 1878     		ldrb	r0, [r3, #0]	@ zero_extendqisi2
  86 001e 0528     		cmp	r0, #5
  87 0020 37D8     		bhi	.L6
  88 0022 DFE800F0 		tbb	[pc, r0]
  89              	.L13:
  90 0026 31       		.byte	(.L7-.L13)/2
  91 0027 23       		.byte	(.L8-.L13)/2
  92 0028 18       		.byte	(.L9-.L13)/2
  93 0029 0F       		.byte	(.L10-.L13)/2
  94 002a 07       		.byte	(.L11-.L13)/2
  95 002b 03       		.byte	(.L12-.L13)/2
  96              		.align	1
  97              	.L12:
  98              		.loc 1 141 0
  99 002c 9968     		ldr	r1, [r3, #8]
 100 002e D868     		ldr	r0, [r3, #12]
 101 0030 8847     		blx	r1
 102              	.LVL7:
 103              		.loc 1 142 0
 104 0032 EEE7     		b	.L17
 105              	.L11:
 106              		.loc 1 135 0
 107 0034 D868     		ldr	r0, [r3, #12]
 108 0036 9A68     		ldr	r2, [r3, #8]
 109 0038 9047     		blx	r2
 110              	.LVL8:
 111              		.loc 1 136 0
 112 003a 0920     		movs	r0, #9
ARM GAS  C:\Users\jenny\AppData\Local\Temp\ccboqoci.s 			page 3


 113 003c 0199     		ldr	r1, [sp, #4]
 114 003e FFF7FEFF 		bl	memp_free
 115              	.LVL9:
 116              		.loc 1 137 0
 117 0042 E6E7     		b	.L17
 118              	.L10:
 119              		.loc 1 128 0
 120 0044 D868     		ldr	r0, [r3, #12]
 121 0046 1969     		ldr	r1, [r3, #16]
 122 0048 FFF7FEFF 		bl	sys_untimeout
 123              	.LVL10:
 124              		.loc 1 129 0
 125 004c 0920     		movs	r0, #9
 126 004e 0199     		ldr	r1, [sp, #4]
 127 0050 FFF7FEFF 		bl	memp_free
 128              	.LVL11:
 129              		.loc 1 130 0
 130 0054 DDE7     		b	.L17
 131              	.L9:
 132              		.loc 1 123 0
 133 0056 03F10803 		add	r3, r3, #8
 134 005a 93E80700 		ldmia	r3, {r0, r1, r2}
 135 005e FFF7FEFF 		bl	sys_timeout
 136              	.LVL12:
 137              		.loc 1 124 0
 138 0062 0920     		movs	r0, #9
 139 0064 0199     		ldr	r1, [sp, #4]
 140 0066 FFF7FEFF 		bl	memp_free
 141              	.LVL13:
 142              		.loc 1 125 0
 143 006a D2E7     		b	.L17
 144              	.L8:
 145              		.loc 1 102 0
 146 006c D968     		ldr	r1, [r3, #12]
 147              		.loc 1 103 0
 148 006e 9868     		ldr	r0, [r3, #8]
 149              		.loc 1 102 0
 150 0070 91F82920 		ldrb	r2, [r1, #41]	@ zero_extendqisi2
 151 0074 12F0600F 		tst	r2, #96
 152 0078 0ED0     		beq	.L15
 153              		.loc 1 103 0
 154 007a FFF7FEFF 		bl	ethernet_input
 155              	.LVL14:
 156              	.L16:
 157              		.loc 1 109 0
 158 007e 0A20     		movs	r0, #10
 159 0080 0199     		ldr	r1, [sp, #4]
 160 0082 FFF7FEFF 		bl	memp_free
 161              	.LVL15:
 162              		.loc 1 110 0
 163 0086 C4E7     		b	.L17
 164              	.L7:
 165              		.loc 1 94 0
 166 0088 9868     		ldr	r0, [r3, #8]
 167 008a 0168     		ldr	r1, [r0, #0]
 168 008c 0430     		adds	r0, r0, #4
 169 008e 8847     		blx	r1
ARM GAS  C:\Users\jenny\AppData\Local\Temp\ccboqoci.s 			page 4


 170              	.LVL16:
 171              		.loc 1 95 0
 172 0090 BFE7     		b	.L17
 173              	.L6:
 174              		.loc 1 146 0 discriminator 1
 175 0092 FFF7FEFF 		bl	port_halt
 176              	.LVL17:
 177              		.loc 1 147 0 discriminator 1
 178 0096 BCE7     		b	.L17
 179              	.L15:
 180              		.loc 1 107 0
 181 0098 FFF7FEFF 		bl	ip_input
 182              	.LVL18:
 183 009c EFE7     		b	.L16
 184              	.L21:
 185 009e 00BF     		.align	2
 186              	.L20:
 187 00a0 00000000 		.word	.LANCHOR0
 188 00a4 00000000 		.word	.LANCHOR1
 189 00a8 00000000 		.word	.LANCHOR2
 190              		.cfi_endproc
 191              	.LFE7:
 192              		.size	tcpip_thread, .-tcpip_thread
 193 00ac AFF30080 		.section	.text.tcpip_input,"ax",%progbits
 194              		.align	2
 195              		.p2align 4,,15
 196              		.global	tcpip_input
 197              		.thumb
 198              		.thumb_func
 199              		.type	tcpip_input, %function
 200              	tcpip_input:
 201              	.LFB8:
 202              		.loc 1 162 0
 203              		.cfi_startproc
 204              		@ args = 0, pretend = 0, frame = 0
 205              		@ frame_needed = 0, uses_anonymous_args = 0
 206              	.LVL19:
 207 0000 70B5     		push	{r4, r5, r6, lr}
 208              	.LCFI2:
 209              		.cfi_def_cfa_offset 16
 210              		.cfi_offset 4, -16
 211              		.cfi_offset 5, -12
 212              		.cfi_offset 6, -8
 213              		.cfi_offset 14, -4
 214              		.loc 1 162 0
 215 0002 0646     		mov	r6, r0
 216              		.loc 1 180 0
 217 0004 0F48     		ldr	r0, .L28
 218              	.LVL20:
 219              		.loc 1 162 0
 220 0006 0D46     		mov	r5, r1
 221              		.loc 1 180 0
 222 0008 FFF7FEFF 		bl	sys_mbox_valid
 223              	.LVL21:
 224 000c 78B1     		cbz	r0, .L24
 225              		.loc 1 183 0
 226 000e 0A20     		movs	r0, #10
ARM GAS  C:\Users\jenny\AppData\Local\Temp\ccboqoci.s 			page 5


 227 0010 FFF7FEFF 		bl	memp_malloc
 228              	.LVL22:
 229              		.loc 1 184 0
 230 0014 0446     		mov	r4, r0
 231 0016 60B1     		cbz	r0, .L25
 232              		.loc 1 188 0
 233 0018 0123     		movs	r3, #1
 234 001a 0370     		strb	r3, [r0, #0]
 235              		.loc 1 189 0
 236 001c 8660     		str	r6, [r0, #8]
 237              		.loc 1 190 0
 238 001e C560     		str	r5, [r0, #12]
 239              		.loc 1 191 0
 240 0020 2146     		mov	r1, r4
 241 0022 0848     		ldr	r0, .L28
 242              	.LVL23:
 243 0024 FFF7FEFF 		bl	sys_mbox_trypost
 244              	.LVL24:
 245 0028 28B9     		cbnz	r0, .L27
 246              	.LVL25:
 247              	.L23:
 248              		.loc 1 197 0
 249 002a 40B2     		sxtb	r0, r0
 250 002c 70BD     		pop	{r4, r5, r6, pc}
 251              	.L24:
 252              		.loc 1 181 0
 253 002e FA20     		movs	r0, #250
 254 0030 FBE7     		b	.L23
 255              	.LVL26:
 256              	.L25:
 257              		.loc 1 185 0
 258 0032 FF20     		movs	r0, #255
 259              	.LVL27:
 260 0034 F9E7     		b	.L23
 261              	.L27:
 262              		.loc 1 192 0
 263 0036 0A20     		movs	r0, #10
 264 0038 2146     		mov	r1, r4
 265 003a FFF7FEFF 		bl	memp_free
 266              	.LVL28:
 267              		.loc 1 193 0
 268 003e FF20     		movs	r0, #255
 269 0040 F3E7     		b	.L23
 270              	.L29:
 271 0042 00BF     		.align	2
 272              	.L28:
 273 0044 00000000 		.word	.LANCHOR2
 274              		.cfi_endproc
 275              	.LFE8:
 276              		.size	tcpip_input, .-tcpip_input
 277 0048 AFF30080 		.section	.text.tcpip_callback_with_block,"ax",%progbits
 277      AFF30080 
 278              		.align	2
 279              		.p2align 4,,15
 280              		.global	tcpip_callback_with_block
 281              		.thumb
 282              		.thumb_func
ARM GAS  C:\Users\jenny\AppData\Local\Temp\ccboqoci.s 			page 6


 283              		.type	tcpip_callback_with_block, %function
 284              	tcpip_callback_with_block:
 285              	.LFB9:
 286              		.loc 1 212 0
 287              		.cfi_startproc
 288              		@ args = 0, pretend = 0, frame = 0
 289              		@ frame_needed = 0, uses_anonymous_args = 0
 290              	.LVL29:
 291 0000 F8B5     		push	{r3, r4, r5, r6, r7, lr}
 292              	.LCFI3:
 293              		.cfi_def_cfa_offset 24
 294              		.cfi_offset 3, -24
 295              		.cfi_offset 4, -20
 296              		.cfi_offset 5, -16
 297              		.cfi_offset 6, -12
 298              		.cfi_offset 7, -8
 299              		.cfi_offset 14, -4
 300              		.loc 1 212 0
 301 0002 0746     		mov	r7, r0
 302              		.loc 1 215 0
 303 0004 1248     		ldr	r0, .L38
 304              	.LVL30:
 305              		.loc 1 212 0
 306 0006 0E46     		mov	r6, r1
 307 0008 1546     		mov	r5, r2
 308              		.loc 1 215 0
 309 000a FFF7FEFF 		bl	sys_mbox_valid
 310              	.LVL31:
 311 000e A8B1     		cbz	r0, .L33
 312              		.loc 1 216 0
 313 0010 0920     		movs	r0, #9
 314 0012 FFF7FEFF 		bl	memp_malloc
 315              	.LVL32:
 316              		.loc 1 217 0
 317 0016 0446     		mov	r4, r0
 318 0018 C0B1     		cbz	r0, .L34
 319              		.loc 1 221 0
 320 001a 0423     		movs	r3, #4
 321 001c 0370     		strb	r3, [r0, #0]
 322              		.loc 1 222 0
 323 001e 8760     		str	r7, [r0, #8]
 324              		.loc 1 223 0
 325 0020 C660     		str	r6, [r0, #12]
 326              		.loc 1 225 0
 327 0022 2146     		mov	r1, r4
 328 0024 0A48     		ldr	r0, .L38
 329              	.LVL33:
 330              		.loc 1 224 0
 331 0026 25B9     		cbnz	r5, .L36
 332              		.loc 1 227 0
 333 0028 FFF7FEFF 		bl	sys_mbox_trypost
 334              	.LVL34:
 335 002c 40B9     		cbnz	r0, .L37
 336              	.LVL35:
 337              	.L31:
 338              		.loc 1 235 0
 339 002e 40B2     		sxtb	r0, r0
ARM GAS  C:\Users\jenny\AppData\Local\Temp\ccboqoci.s 			page 7


 340 0030 F8BD     		pop	{r3, r4, r5, r6, r7, pc}
 341              	.LVL36:
 342              	.L36:
 343              		.loc 1 225 0
 344 0032 FFF7FEFF 		bl	sys_mbox_post
 345              	.LVL37:
 346              		.loc 1 232 0
 347 0036 0020     		movs	r0, #0
 348              		.loc 1 235 0
 349 0038 40B2     		sxtb	r0, r0
 350 003a F8BD     		pop	{r3, r4, r5, r6, r7, pc}
 351              	.LVL38:
 352              	.L33:
 353              		.loc 1 234 0
 354 003c FA20     		movs	r0, #250
 355 003e F6E7     		b	.L31
 356              	.LVL39:
 357              	.L37:
 358              		.loc 1 228 0
 359 0040 0920     		movs	r0, #9
 360 0042 2146     		mov	r1, r4
 361 0044 FFF7FEFF 		bl	memp_free
 362              	.LVL40:
 363              		.loc 1 229 0
 364 0048 FF20     		movs	r0, #255
 365 004a F0E7     		b	.L31
 366              	.LVL41:
 367              	.L34:
 368              		.loc 1 218 0
 369 004c FF20     		movs	r0, #255
 370              	.LVL42:
 371 004e EEE7     		b	.L31
 372              	.L39:
 373              		.align	2
 374              	.L38:
 375 0050 00000000 		.word	.LANCHOR2
 376              		.cfi_endproc
 377              	.LFE9:
 378              		.size	tcpip_callback_with_block, .-tcpip_callback_with_block
 379 0054 AFF30080 		.section	.text.tcpip_timeout,"ax",%progbits
 379      AFF30080 
 379      AFF30080 
 380              		.align	2
 381              		.p2align 4,,15
 382              		.global	tcpip_timeout
 383              		.thumb
 384              		.thumb_func
 385              		.type	tcpip_timeout, %function
 386              	tcpip_timeout:
 387              	.LFB10:
 388              		.loc 1 248 0
 389              		.cfi_startproc
 390              		@ args = 0, pretend = 0, frame = 0
 391              		@ frame_needed = 0, uses_anonymous_args = 0
 392              	.LVL43:
 393 0000 70B5     		push	{r4, r5, r6, lr}
 394              	.LCFI4:
ARM GAS  C:\Users\jenny\AppData\Local\Temp\ccboqoci.s 			page 8


 395              		.cfi_def_cfa_offset 16
 396              		.cfi_offset 4, -16
 397              		.cfi_offset 5, -12
 398              		.cfi_offset 6, -8
 399              		.cfi_offset 14, -4
 400              		.loc 1 248 0
 401 0002 0646     		mov	r6, r0
 402              		.loc 1 251 0
 403 0004 0C48     		ldr	r0, .L44
 404              	.LVL44:
 405              		.loc 1 248 0
 406 0006 0D46     		mov	r5, r1
 407 0008 1446     		mov	r4, r2
 408              		.loc 1 251 0
 409 000a FFF7FEFF 		bl	sys_mbox_valid
 410              	.LVL45:
 411 000e 78B1     		cbz	r0, .L42
 412              		.loc 1 252 0
 413 0010 0920     		movs	r0, #9
 414 0012 FFF7FEFF 		bl	memp_malloc
 415              	.LVL46:
 416              		.loc 1 253 0
 417 0016 0146     		mov	r1, r0
 418 0018 60B1     		cbz	r0, .L43
 419              		.loc 1 257 0
 420 001a 0222     		movs	r2, #2
 421 001c 0270     		strb	r2, [r0, #0]
 422              		.loc 1 258 0
 423 001e 8660     		str	r6, [r0, #8]
 424              		.loc 1 259 0
 425 0020 C560     		str	r5, [r0, #12]
 426              		.loc 1 260 0
 427 0022 0461     		str	r4, [r0, #16]
 428              		.loc 1 261 0
 429 0024 0448     		ldr	r0, .L44
 430              	.LVL47:
 431 0026 FFF7FEFF 		bl	sys_mbox_post
 432              	.LVL48:
 433              		.loc 1 262 0
 434 002a 0020     		movs	r0, #0
 435              	.L41:
 436              		.loc 1 265 0
 437 002c 40B2     		sxtb	r0, r0
 438 002e 70BD     		pop	{r4, r5, r6, pc}
 439              	.L42:
 440              		.loc 1 264 0
 441 0030 FA20     		movs	r0, #250
 442 0032 FBE7     		b	.L41
 443              	.LVL49:
 444              	.L43:
 445              		.loc 1 254 0
 446 0034 FF20     		movs	r0, #255
 447              	.LVL50:
 448 0036 F9E7     		b	.L41
 449              	.L45:
 450              		.align	2
 451              	.L44:
ARM GAS  C:\Users\jenny\AppData\Local\Temp\ccboqoci.s 			page 9


 452 0038 00000000 		.word	.LANCHOR2
 453              		.cfi_endproc
 454              	.LFE10:
 455              		.size	tcpip_timeout, .-tcpip_timeout
 456 003c AFF30080 		.section	.text.tcpip_untimeout,"ax",%progbits
 457              		.align	2
 458              		.p2align 4,,15
 459              		.global	tcpip_untimeout
 460              		.thumb
 461              		.thumb_func
 462              		.type	tcpip_untimeout, %function
 463              	tcpip_untimeout:
 464              	.LFB11:
 465              		.loc 1 277 0
 466              		.cfi_startproc
 467              		@ args = 0, pretend = 0, frame = 0
 468              		@ frame_needed = 0, uses_anonymous_args = 0
 469              	.LVL51:
 470 0000 38B5     		push	{r3, r4, r5, lr}
 471              	.LCFI5:
 472              		.cfi_def_cfa_offset 16
 473              		.cfi_offset 3, -16
 474              		.cfi_offset 4, -12
 475              		.cfi_offset 5, -8
 476              		.cfi_offset 14, -4
 477              		.loc 1 277 0
 478 0002 0546     		mov	r5, r0
 479              		.loc 1 280 0
 480 0004 0B48     		ldr	r0, .L50
 481              	.LVL52:
 482              		.loc 1 277 0
 483 0006 0C46     		mov	r4, r1
 484              		.loc 1 280 0
 485 0008 FFF7FEFF 		bl	sys_mbox_valid
 486              	.LVL53:
 487 000c 70B1     		cbz	r0, .L48
 488              		.loc 1 281 0
 489 000e 0920     		movs	r0, #9
 490 0010 FFF7FEFF 		bl	memp_malloc
 491              	.LVL54:
 492              		.loc 1 282 0
 493 0014 0146     		mov	r1, r0
 494 0016 58B1     		cbz	r0, .L49
 495              		.loc 1 286 0
 496 0018 0322     		movs	r2, #3
 497 001a 0270     		strb	r2, [r0, #0]
 498              		.loc 1 287 0
 499 001c C560     		str	r5, [r0, #12]
 500              		.loc 1 288 0
 501 001e 0461     		str	r4, [r0, #16]
 502              		.loc 1 289 0
 503 0020 0448     		ldr	r0, .L50
 504              	.LVL55:
 505 0022 FFF7FEFF 		bl	sys_mbox_post
 506              	.LVL56:
 507              		.loc 1 290 0
 508 0026 0020     		movs	r0, #0
ARM GAS  C:\Users\jenny\AppData\Local\Temp\ccboqoci.s 			page 10


 509              	.L47:
 510              		.loc 1 293 0
 511 0028 40B2     		sxtb	r0, r0
 512 002a 38BD     		pop	{r3, r4, r5, pc}
 513              	.L48:
 514              		.loc 1 292 0
 515 002c FA20     		movs	r0, #250
 516 002e FBE7     		b	.L47
 517              	.LVL57:
 518              	.L49:
 519              		.loc 1 283 0
 520 0030 FF20     		movs	r0, #255
 521              	.LVL58:
 522 0032 F9E7     		b	.L47
 523              	.L51:
 524              		.align	2
 525              	.L50:
 526 0034 00000000 		.word	.LANCHOR2
 527              		.cfi_endproc
 528              	.LFE11:
 529              		.size	tcpip_untimeout, .-tcpip_untimeout
 530 0038 AFF30080 		.section	.text.tcpip_apimsg,"ax",%progbits
 530      AFF30080 
 531              		.align	2
 532              		.p2align 4,,15
 533              		.global	tcpip_apimsg
 534              		.thumb
 535              		.thumb_func
 536              		.type	tcpip_apimsg, %function
 537              	tcpip_apimsg:
 538              	.LFB12:
 539              		.loc 1 307 0
 540              		.cfi_startproc
 541              		@ args = 0, pretend = 0, frame = 24
 542              		@ frame_needed = 0, uses_anonymous_args = 0
 543              	.LVL59:
 544 0000 30B5     		push	{r4, r5, lr}
 545              	.LCFI6:
 546              		.cfi_def_cfa_offset 12
 547              		.cfi_offset 4, -12
 548              		.cfi_offset 5, -8
 549              		.cfi_offset 14, -4
 550 0002 0446     		mov	r4, r0
 551 0004 87B0     		sub	sp, sp, #28
 552              	.LCFI7:
 553              		.cfi_def_cfa_offset 40
 554              		.loc 1 314 0
 555 0006 0B48     		ldr	r0, .L55
 556              	.LVL60:
 557 0008 FFF7FEFF 		bl	sys_mbox_valid
 558              	.LVL61:
 559 000c 80B1     		cbz	r0, .L54
 560              		.loc 1 315 0
 561 000e 0025     		movs	r5, #0
 562              		.loc 1 317 0
 563 0010 0848     		ldr	r0, .L55
 564              		.loc 1 315 0
ARM GAS  C:\Users\jenny\AppData\Local\Temp\ccboqoci.s 			page 11


 565 0012 8DF80450 		strb	r5, [sp, #4]
 566              		.loc 1 317 0
 567 0016 01A9     		add	r1, sp, #4
 568              		.loc 1 316 0
 569 0018 0394     		str	r4, [sp, #12]
 570              		.loc 1 317 0
 571 001a FFF7FEFF 		bl	sys_mbox_post
 572              	.LVL62:
 573              		.loc 1 318 0
 574 001e 6068     		ldr	r0, [r4, #4]
 575 0020 2946     		mov	r1, r5
 576 0022 0C30     		adds	r0, r0, #12
 577 0024 FFF7FEFF 		bl	sys_arch_sem_wait
 578              	.LVL63:
 579              		.loc 1 319 0
 580 0028 207A     		ldrb	r0, [r4, #8]	@ zero_extendqisi2
 581              	.L53:
 582              		.loc 1 322 0
 583 002a 40B2     		sxtb	r0, r0
 584 002c 07B0     		add	sp, sp, #28
 585 002e 30BD     		pop	{r4, r5, pc}
 586              	.L54:
 587              		.loc 1 321 0
 588 0030 FA20     		movs	r0, #250
 589 0032 FAE7     		b	.L53
 590              	.L56:
 591              		.align	2
 592              	.L55:
 593 0034 00000000 		.word	.LANCHOR2
 594              		.cfi_endproc
 595              	.LFE12:
 596              		.size	tcpip_apimsg, .-tcpip_apimsg
 597              		.section	.text.tcpip_callbackmsg_new,"ax",%progbits
 598              		.align	2
 599              		.p2align 4,,15
 600              		.global	tcpip_callbackmsg_new
 601              		.thumb
 602              		.thumb_func
 603              		.type	tcpip_callbackmsg_new, %function
 604              	tcpip_callbackmsg_new:
 605              	.LFB13:
 606              		.loc 1 409 0
 607              		.cfi_startproc
 608              		@ args = 0, pretend = 0, frame = 0
 609              		@ frame_needed = 0, uses_anonymous_args = 0
 610              	.LVL64:
 611 0000 38B5     		push	{r3, r4, r5, lr}
 612              	.LCFI8:
 613              		.cfi_def_cfa_offset 16
 614              		.cfi_offset 3, -16
 615              		.cfi_offset 4, -12
 616              		.cfi_offset 5, -8
 617              		.cfi_offset 14, -4
 618              		.loc 1 409 0
 619 0002 0446     		mov	r4, r0
 620              		.loc 1 410 0
 621 0004 0920     		movs	r0, #9
ARM GAS  C:\Users\jenny\AppData\Local\Temp\ccboqoci.s 			page 12


 622              	.LVL65:
 623              		.loc 1 409 0
 624 0006 0D46     		mov	r5, r1
 625              		.loc 1 410 0
 626 0008 FFF7FEFF 		bl	memp_malloc
 627              	.LVL66:
 628              		.loc 1 411 0
 629 000c 18B1     		cbz	r0, .L58
 630              		.loc 1 414 0
 631 000e 0523     		movs	r3, #5
 632 0010 0370     		strb	r3, [r0, #0]
 633              		.loc 1 415 0
 634 0012 8460     		str	r4, [r0, #8]
 635              		.loc 1 416 0
 636 0014 C560     		str	r5, [r0, #12]
 637              	.L58:
 638              		.loc 1 418 0
 639 0016 38BD     		pop	{r3, r4, r5, pc}
 640              		.cfi_endproc
 641              	.LFE13:
 642              		.size	tcpip_callbackmsg_new, .-tcpip_callbackmsg_new
 643 0018 AFF30080 		.section	.text.tcpip_callbackmsg_delete,"ax",%progbits
 643      AFF30080 
 644              		.align	2
 645              		.p2align 4,,15
 646              		.global	tcpip_callbackmsg_delete
 647              		.thumb
 648              		.thumb_func
 649              		.type	tcpip_callbackmsg_delete, %function
 650              	tcpip_callbackmsg_delete:
 651              	.LFB14:
 652              		.loc 1 426 0
 653              		.cfi_startproc
 654              		@ args = 0, pretend = 0, frame = 0
 655              		@ frame_needed = 0, uses_anonymous_args = 0
 656              		@ link register save eliminated.
 657              	.LVL67:
 658              		.loc 1 426 0
 659 0000 0146     		mov	r1, r0
 660              		.loc 1 427 0
 661 0002 0920     		movs	r0, #9
 662              	.LVL68:
 663              		.loc 1 428 0
 664              		.loc 1 427 0
 665 0004 FFF7FEBF 		b	memp_free
 666              	.LVL69:
 667              		.cfi_endproc
 668              	.LFE14:
 669              		.size	tcpip_callbackmsg_delete, .-tcpip_callbackmsg_delete
 670 0008 AFF30080 		.section	.text.tcpip_trycallback,"ax",%progbits
 670      AFF30080 
 671              		.align	2
 672              		.p2align 4,,15
 673              		.global	tcpip_trycallback
 674              		.thumb
 675              		.thumb_func
 676              		.type	tcpip_trycallback, %function
ARM GAS  C:\Users\jenny\AppData\Local\Temp\ccboqoci.s 			page 13


 677              	tcpip_trycallback:
 678              	.LFB15:
 679              		.loc 1 439 0
 680              		.cfi_startproc
 681              		@ args = 0, pretend = 0, frame = 0
 682              		@ frame_needed = 0, uses_anonymous_args = 0
 683              	.LVL70:
 684 0000 10B5     		push	{r4, lr}
 685              	.LCFI9:
 686              		.cfi_def_cfa_offset 8
 687              		.cfi_offset 4, -8
 688              		.cfi_offset 14, -4
 689              		.loc 1 439 0
 690 0002 0446     		mov	r4, r0
 691              		.loc 1 440 0
 692 0004 0648     		ldr	r0, .L65
 693              	.LVL71:
 694 0006 FFF7FEFF 		bl	sys_mbox_valid
 695              	.LVL72:
 696 000a 28B1     		cbz	r0, .L64
 697              		.loc 1 443 0
 698 000c 0448     		ldr	r0, .L65
 699 000e 2146     		mov	r1, r4
 700              		.loc 1 444 0
 701 0010 BDE81040 		pop	{r4, lr}
 702              		.loc 1 443 0
 703 0014 FFF7FEBF 		b	sys_mbox_trypost
 704              	.LVL73:
 705              	.L64:
 706              		.loc 1 444 0
 707 0018 6FF00500 		mvn	r0, #5
 708 001c 10BD     		pop	{r4, pc}
 709              	.L66:
 710 001e 00BF     		.align	2
 711              	.L65:
 712 0020 00000000 		.word	.LANCHOR2
 713              		.cfi_endproc
 714              	.LFE15:
 715              		.size	tcpip_trycallback, .-tcpip_trycallback
 716 0024 AFF30080 		.section	.text.tcpip_init,"ax",%progbits
 716      AFF30080 
 716      AFF30080 
 717              		.align	2
 718              		.p2align 4,,15
 719              		.global	tcpip_init
 720              		.thumb
 721              		.thumb_func
 722              		.type	tcpip_init, %function
 723              	tcpip_init:
 724              	.LFB16:
 725              		.loc 1 456 0
 726              		.cfi_startproc
 727              		@ args = 0, pretend = 0, frame = 0
 728              		@ frame_needed = 0, uses_anonymous_args = 0
 729              	.LVL74:
 730 0000 30B5     		push	{r4, r5, lr}
 731              	.LCFI10:
ARM GAS  C:\Users\jenny\AppData\Local\Temp\ccboqoci.s 			page 14


 732              		.cfi_def_cfa_offset 12
 733              		.cfi_offset 4, -12
 734              		.cfi_offset 5, -8
 735              		.cfi_offset 14, -4
 736 0002 83B0     		sub	sp, sp, #12
 737              	.LCFI11:
 738              		.cfi_def_cfa_offset 24
 739              		.loc 1 456 0
 740 0004 0546     		mov	r5, r0
 741 0006 0C46     		mov	r4, r1
 742              		.loc 1 457 0
 743 0008 FFF7FEFF 		bl	lwip_init
 744              	.LVL75:
 745              		.loc 1 459 0
 746 000c 0A4B     		ldr	r3, .L72
 747              		.loc 1 460 0
 748 000e 0B4A     		ldr	r2, .L72+4
 749              		.loc 1 461 0
 750 0010 0B48     		ldr	r0, .L72+8
 751              		.loc 1 459 0
 752 0012 1D60     		str	r5, [r3, #0]
 753              		.loc 1 461 0
 754 0014 1021     		movs	r1, #16
 755              		.loc 1 460 0
 756 0016 1460     		str	r4, [r2, #0]
 757              		.loc 1 461 0
 758 0018 FFF7FEFF 		bl	sys_mbox_new
 759              	.LVL76:
 760 001c 08B1     		cbz	r0, .L68
 761              		.loc 1 462 0 discriminator 1
 762 001e FFF7FEFF 		bl	port_halt
 763              	.LVL77:
 764              	.L68:
 765              		.loc 1 470 0
 766 0022 0320     		movs	r0, #3
 767 0024 0090     		str	r0, [sp, #0]
 768 0026 0749     		ldr	r1, .L72+12
 769 0028 0748     		ldr	r0, .L72+16
 770 002a 0022     		movs	r2, #0
 771 002c 4FF48063 		mov	r3, #1024
 772 0030 FFF7FEFF 		bl	sys_thread_new
 773              	.LVL78:
 774              		.loc 1 471 0
 775 0034 03B0     		add	sp, sp, #12
 776 0036 30BD     		pop	{r4, r5, pc}
 777              	.L73:
 778              		.align	2
 779              	.L72:
 780 0038 00000000 		.word	.LANCHOR0
 781 003c 00000000 		.word	.LANCHOR1
 782 0040 00000000 		.word	.LANCHOR2
 783 0044 00000000 		.word	tcpip_thread
 784 0048 00000000 		.word	.LC0
 785              		.cfi_endproc
 786              	.LFE16:
 787              		.size	tcpip_init, .-tcpip_init
 788 004c AFF30080 		.section	.text.pbuf_free_callback,"ax",%progbits
ARM GAS  C:\Users\jenny\AppData\Local\Temp\ccboqoci.s 			page 15


 789              		.align	2
 790              		.p2align 4,,15
 791              		.global	pbuf_free_callback
 792              		.thumb
 793              		.thumb_func
 794              		.type	pbuf_free_callback, %function
 795              	pbuf_free_callback:
 796              	.LFB18:
 797              		.loc 1 494 0
 798              		.cfi_startproc
 799              		@ args = 0, pretend = 0, frame = 0
 800              		@ frame_needed = 0, uses_anonymous_args = 0
 801              		@ link register save eliminated.
 802              	.LVL79:
 803              		.loc 1 494 0
 804 0000 0146     		mov	r1, r0
 805              		.loc 1 495 0
 806 0002 40F20000 		movw	r0, #:lower16:pbuf_free_int
 807              	.LVL80:
 808 0006 C0F20000 		movt	r0, #:upper16:pbuf_free_int
 809 000a 0022     		movs	r2, #0
 810              		.loc 1 496 0
 811              		.loc 1 495 0
 812 000c FFF7FEBF 		b	tcpip_callback_with_block
 813              	.LVL81:
 814              		.cfi_endproc
 815              	.LFE18:
 816              		.size	pbuf_free_callback, .-pbuf_free_callback
 817              		.section	.text.mem_free_callback,"ax",%progbits
 818              		.align	2
 819              		.p2align 4,,15
 820              		.global	mem_free_callback
 821              		.thumb
 822              		.thumb_func
 823              		.type	mem_free_callback, %function
 824              	mem_free_callback:
 825              	.LFB19:
 826              		.loc 1 507 0
 827              		.cfi_startproc
 828              		@ args = 0, pretend = 0, frame = 0
 829              		@ frame_needed = 0, uses_anonymous_args = 0
 830              		@ link register save eliminated.
 831              	.LVL82:
 832              		.loc 1 507 0
 833 0000 0146     		mov	r1, r0
 834              		.loc 1 508 0
 835 0002 40F20000 		movw	r0, #:lower16:mem_free
 836              	.LVL83:
 837 0006 C0F20000 		movt	r0, #:upper16:mem_free
 838 000a 0022     		movs	r2, #0
 839              		.loc 1 509 0
 840              		.loc 1 508 0
 841 000c FFF7FEBF 		b	tcpip_callback_with_block
 842              	.LVL84:
 843              		.cfi_endproc
 844              	.LFE19:
 845              		.size	mem_free_callback, .-mem_free_callback
ARM GAS  C:\Users\jenny\AppData\Local\Temp\ccboqoci.s 			page 16


 846              		.section	.rodata.str1.4,"aMS",%progbits,1
 847              		.align	2
 848              	.LC0:
 849 0000 74637069 		.ascii	"tcpip_thread\000"
 849      705F7468 
 849      72656164 
 849      00
 850 000d 000000   		.section	.bss.mbox,"aw",%nobits
 851              		.align	2
 852              		.set	.LANCHOR2,. + 0
 853              		.type	mbox, %object
 854              		.size	mbox, 4
 855              	mbox:
 856 0000 00000000 		.space	4
 857              		.section	.bss.tcpip_init_done_arg,"aw",%nobits
 858              		.align	2
 859              		.set	.LANCHOR1,. + 0
 860              		.type	tcpip_init_done_arg, %object
 861              		.size	tcpip_init_done_arg, 4
 862              	tcpip_init_done_arg:
 863 0000 00000000 		.space	4
 864              		.section	.bss.tcpip_init_done,"aw",%nobits
 865              		.align	2
 866              		.set	.LANCHOR0,. + 0
 867              		.type	tcpip_init_done, %object
 868              		.size	tcpip_init_done, 4
 869              	tcpip_init_done:
 870 0000 00000000 		.space	4
 871              		.text
 872              	.Letext0:
 873              		.file 2 "c:\\fbin\\yagarto\\bin\\../lib/gcc/arm-none-eabi/4.7.4/include/stddef.h"
 874              		.file 3 "c:\\fbin\\yagarto\\bin\\../lib/gcc/arm-none-eabi/4.7.4/../../../../arm-none-eabi/include/
 875              		.file 4 "../../os/ports/GCC/ARMCMx/chtypes.h"
 876              		.file 5 "../../os/kernel/include/chlists.h"
 877              		.file 6 "../../os/kernel/include/chthreads.h"
 878              		.file 7 "../../os/ports/GCC/ARMCMx/chcore_v7m.h"
 879              		.file 8 "../../os/kernel/include/chsem.h"
 880              		.file 9 "../../os/kernel/include/chmtx.h"
 881              		.file 10 "../../os/kernel/include/chmboxes.h"
 882              		.file 11 "../../os/various/lwip_bindings/arch/cc.h"
 883              		.file 12 "../../ext/lwip/src/include/lwip/err.h"
 884              		.file 13 "../../os/various/lwip_bindings/arch/sys_arch.h"
 885              		.file 14 "../../ext/lwip/src/include/lwip/sys.h"
 886              		.file 15 "../../ext/lwip/src/include/lwip/memp.h"
 887              		.file 16 "../../ext/lwip/src/include/lwip/pbuf.h"
 888              		.file 17 "../../ext/lwip/src/include/ipv4/lwip/ip_addr.h"
 889              		.file 18 "../../ext/lwip/src/include/lwip/netif.h"
 890              		.file 19 "../../ext/lwip/src/include/lwip/netbuf.h"
 891              		.file 20 "../../ext/lwip/src/include/lwip/api.h"
 892              		.file 21 "../../ext/lwip/src/include/ipv4/lwip/ip.h"
 893              		.file 22 "../../ext/lwip/src/include/lwip/api_msg.h"
 894              		.file 23 "../../ext/lwip/src/include/lwip/timers.h"
 895              		.file 24 "../../ext/lwip/src/include/lwip/tcpip.h"
 896              		.file 25 "../../ext/lwip/src/include/netif/etharp.h"
 897              		.file 26 "../../ext/lwip/src/include/lwip/init.h"