ARM GAS  C:\Users\jenny\AppData\Local\Temp\ccL4nVsq.s 			page 1


   1              		.syntax unified
   2              		.cpu cortex-m4
   3              		.eabi_attribute 27, 3
   4              		.fpu fpv4-sp-d16
   5              		.eabi_attribute 20, 1
   6              		.eabi_attribute 21, 1
   7              		.eabi_attribute 23, 3
   8              		.eabi_attribute 24, 1
   9              		.eabi_attribute 25, 1
  10              		.eabi_attribute 26, 1
  11              		.eabi_attribute 30, 2
  12              		.eabi_attribute 34, 1
  13              		.eabi_attribute 18, 4
  14              		.thumb
  15              		.file	"testdyn.c"
  16              		.text
  17              	.Ltext0:
  18              		.cfi_sections	.debug_frame
  19              		.section	.text.regfind,"ax",%progbits
  20              		.align	2
  21              		.p2align 4,,15
  22              		.thumb
  23              		.thumb_func
  24              		.type	regfind, %function
  25              	regfind:
  26              	.LFB12:
  27              		.file 1 "../../test/testdyn.c"
  28              		.loc 1 191 0
  29              		.cfi_startproc
  30              		@ args = 0, pretend = 0, frame = 0
  31              		@ frame_needed = 0, uses_anonymous_args = 0
  32              	.LVL0:
  33 0000 38B5     		push	{r3, r4, r5, lr}
  34              	.LCFI0:
  35              		.cfi_def_cfa_offset 16
  36              		.cfi_offset 3, -16
  37              		.cfi_offset 4, -12
  38              		.cfi_offset 5, -8
  39              		.cfi_offset 14, -4
  40              		.loc 1 191 0
  41 0002 0546     		mov	r5, r0
  42              		.loc 1 195 0
  43 0004 FFF7FEFF 		bl	chRegFirstThread
  44              	.LVL1:
  45              		.loc 1 193 0
  46 0008 0024     		movs	r4, #0
  47              		.loc 1 195 0
  48 000a 0346     		mov	r3, r0
  49              	.LVL2:
  50              	.L2:
  51              		.loc 1 198 0 discriminator 1
  52 000c 1846     		mov	r0, r3
  53              		.loc 1 197 0 discriminator 1
  54 000e AB42     		cmp	r3, r5
  55 0010 08BF     		it	eq
  56 0012 44F00104 		orreq	r4, r4, #1
  57              	.LVL3:
ARM GAS  C:\Users\jenny\AppData\Local\Temp\ccL4nVsq.s 			page 2


  58              		.loc 1 198 0 discriminator 1
  59 0016 FFF7FEFF 		bl	chRegNextThread
  60              	.LVL4:
  61              		.loc 1 199 0 discriminator 1
  62 001a 0346     		mov	r3, r0
  63 001c 0028     		cmp	r0, #0
  64 001e F5D1     		bne	.L2
  65              		.loc 1 201 0
  66 0020 2046     		mov	r0, r4
  67              	.LVL5:
  68 0022 38BD     		pop	{r3, r4, r5, pc}
  69              		.cfi_endproc
  70              	.LFE12:
  71              		.size	regfind, .-regfind
  72 0024 AFF30080 		.section	.text.dyn3_execute,"ax",%progbits
  72      AFF30080 
  72      AFF30080 
  73              		.align	2
  74              		.p2align 4,,15
  75              		.thumb
  76              		.thumb_func
  77              		.type	dyn3_execute, %function
  78              	dyn3_execute:
  79              	.LFB14:
  80              		.loc 1 208 0
  81              		.cfi_startproc
  82              		@ args = 0, pretend = 0, frame = 0
  83              		@ frame_needed = 0, uses_anonymous_args = 0
  84              	.LVL6:
  85 0000 10B5     		push	{r4, lr}
  86              	.LCFI1:
  87              		.cfi_def_cfa_offset 8
  88              		.cfi_offset 4, -8
  89              		.cfi_offset 14, -4
  90              		.loc 1 210 0
  91 0002 4A4B     		ldr	r3, .L10
  92              		.loc 1 213 0
  93 0004 4A4C     		ldr	r4, .L10+4
  94              		.loc 1 210 0
  95 0006 9969     		ldr	r1, [r3, #24]
  96              		.loc 1 213 0
  97 0008 4A48     		ldr	r0, .L10+8
  98 000a 8A68     		ldr	r2, [r1, #8]
  99 000c 4A4B     		ldr	r3, .L10+12
 100              		.loc 1 208 0
 101 000e 82B0     		sub	sp, sp, #8
 102              	.LCFI2:
 103              		.cfi_def_cfa_offset 16
 104              		.loc 1 213 0
 105 0010 4FF4DC71 		mov	r1, #440
 106 0014 0094     		str	r4, [sp, #0]
 107 0016 013A     		subs	r2, r2, #1
 108 0018 FFF7FEFF 		bl	chThdCreateFromHeap
 109              	.LVL7:
 110 001c 0446     		mov	r4, r0
 111              	.LVL8:
 112              		.loc 1 214 0
ARM GAS  C:\Users\jenny\AppData\Local\Temp\ccL4nVsq.s 			page 3


 113 001e 0120     		movs	r0, #1
 114              	.LVL9:
 115 0020 A37F     		ldrb	r3, [r4, #30]	@ zero_extendqisi2
 116 0022 B3EB000C 		subs	ip, r3, r0
 117 0026 DCF10001 		rsbs	r1, ip, #0
 118 002a 51EB0C01 		adcs	r1, r1, ip
 119 002e FFF7FEFF 		bl	_test_assert
 120              	.LVL10:
 121 0032 08B1     		cbz	r0, .L9
 122              	.L5:
 123              		.loc 1 236 0
 124 0034 02B0     		add	sp, sp, #8
 125 0036 10BD     		pop	{r4, pc}
 126              	.L9:
 127              		.loc 1 215 0
 128 0038 2046     		mov	r0, r4
 129 003a FFF7FEFF 		bl	chThdAddRef
 130              	.LVL11:
 131              		.loc 1 216 0
 132 003e A27F     		ldrb	r2, [r4, #30]	@ zero_extendqisi2
 133 0040 0220     		movs	r0, #2
 134 0042 B2EB000E 		subs	lr, r2, r0
 135 0046 DEF10003 		rsbs	r3, lr, #0
 136 004a 53EB0E01 		adcs	r1, r3, lr
 137 004e FFF7FEFF 		bl	_test_assert
 138              	.LVL12:
 139 0052 0028     		cmp	r0, #0
 140 0054 EED1     		bne	.L5
 141              		.loc 1 217 0
 142 0056 2046     		mov	r0, r4
 143 0058 FFF7FEFF 		bl	chThdRelease
 144              	.LVL13:
 145              		.loc 1 218 0
 146 005c A17F     		ldrb	r1, [r4, #30]	@ zero_extendqisi2
 147 005e 0320     		movs	r0, #3
 148 0060 4A1E     		subs	r2, r1, #1
 149 0062 5342     		rsbs	r3, r2, #0
 150 0064 53EB0201 		adcs	r1, r3, r2
 151 0068 FFF7FEFF 		bl	_test_assert
 152              	.LVL14:
 153 006c 0028     		cmp	r0, #0
 154 006e E1D1     		bne	.L5
 155              		.loc 1 221 0
 156 0070 2046     		mov	r0, r4
 157 0072 FFF7FEFF 		bl	regfind
 158              	.LVL15:
 159 0076 0146     		mov	r1, r0
 160 0078 0420     		movs	r0, #4
 161 007a FFF7FEFF 		bl	_test_assert
 162              	.LVL16:
 163 007e 0028     		cmp	r0, #0
 164 0080 D8D1     		bne	.L5
 165              		.loc 1 222 0
 166 0082 2046     		mov	r0, r4
 167 0084 FFF7FEFF 		bl	regfind
 168              	.LVL17:
 169 0088 0146     		mov	r1, r0
ARM GAS  C:\Users\jenny\AppData\Local\Temp\ccL4nVsq.s 			page 4


 170 008a 0520     		movs	r0, #5
 171 008c FFF7FEFF 		bl	_test_assert
 172              	.LVL18:
 173 0090 0028     		cmp	r0, #0
 174 0092 CFD1     		bne	.L5
 175              		.loc 1 225 0
 176 0094 2046     		mov	r0, r4
 177 0096 FFF7FEFF 		bl	chThdRelease
 178              	.LVL19:
 179              		.loc 1 226 0
 180 009a A17F     		ldrb	r1, [r4, #30]	@ zero_extendqisi2
 181 009c 0620     		movs	r0, #6
 182 009e D1F10101 		rsbs	r1, r1, #1
 183 00a2 38BF     		it	cc
 184 00a4 0021     		movcc	r1, #0
 185 00a6 FFF7FEFF 		bl	_test_assert
 186              	.LVL20:
 187 00aa 0028     		cmp	r0, #0
 188 00ac C2D1     		bne	.L5
 189              		.loc 1 227 0
 190 00ae 227F     		ldrb	r2, [r4, #28]	@ zero_extendqisi2
 191 00b0 0720     		movs	r0, #7
 192 00b2 D2F10101 		rsbs	r1, r2, #1
 193 00b6 38BF     		it	cc
 194 00b8 0021     		movcc	r1, #0
 195 00ba FFF7FEFF 		bl	_test_assert
 196              	.LVL21:
 197 00be 0028     		cmp	r0, #0
 198 00c0 B8D1     		bne	.L5
 199              		.loc 1 228 0
 200 00c2 2046     		mov	r0, r4
 201 00c4 FFF7FEFF 		bl	regfind
 202              	.LVL22:
 203 00c8 0146     		mov	r1, r0
 204 00ca 0820     		movs	r0, #8
 205 00cc FFF7FEFF 		bl	_test_assert
 206              	.LVL23:
 207 00d0 0028     		cmp	r0, #0
 208 00d2 AFD1     		bne	.L5
 209              		.loc 1 229 0
 210 00d4 2046     		mov	r0, r4
 211 00d6 FFF7FEFF 		bl	regfind
 212              	.LVL24:
 213 00da 0146     		mov	r1, r0
 214 00dc 0920     		movs	r0, #9
 215 00de FFF7FEFF 		bl	_test_assert
 216              	.LVL25:
 217 00e2 0028     		cmp	r0, #0
 218 00e4 A6D1     		bne	.L5
 219              		.loc 1 230 0
 220 00e6 3220     		movs	r0, #50
 221 00e8 FFF7FEFF 		bl	chThdSleep
 222              	.LVL26:
 223              		.loc 1 231 0
 224 00ec 237F     		ldrb	r3, [r4, #28]	@ zero_extendqisi2
 225 00ee 0A20     		movs	r0, #10
 226 00f0 B3F10E02 		subs	r2, r3, #14
ARM GAS  C:\Users\jenny\AppData\Local\Temp\ccL4nVsq.s 			page 5


 227 00f4 5142     		rsbs	r1, r2, #0
 228 00f6 5141     		adcs	r1, r1, r2
 229 00f8 FFF7FEFF 		bl	_test_assert
 230              	.LVL27:
 231 00fc 0028     		cmp	r0, #0
 232 00fe 99D1     		bne	.L5
 233              		.loc 1 234 0
 234 0100 2046     		mov	r0, r4
 235 0102 FFF7FEFF 		bl	regfind
 236              	.LVL28:
 237 0106 0146     		mov	r1, r0
 238 0108 0B20     		movs	r0, #11
 239 010a FFF7FEFF 		bl	_test_assert
 240              	.LVL29:
 241 010e 0028     		cmp	r0, #0
 242 0110 90D1     		bne	.L5
 243              		.loc 1 235 0
 244 0112 2046     		mov	r0, r4
 245 0114 FFF7FEFF 		bl	regfind
 246              	.LVL30:
 247 0118 80F00100 		eor	r0, r0, #1
 248 011c C1B2     		uxtb	r1, r0
 249 011e 0C20     		movs	r0, #12
 250              		.loc 1 236 0
 251 0120 02B0     		add	sp, sp, #8
 252 0122 BDE81040 		pop	{r4, lr}
 253              		.loc 1 235 0
 254 0126 FFF7FEBF 		b	_test_assert
 255              	.LVL31:
 256              	.L11:
 257 012a 00BF     		.align	2
 258              	.L10:
 259 012c 00000000 		.word	rlist
 260 0130 00000000 		.word	.LC0
 261 0134 00000000 		.word	.LANCHOR0
 262 0138 00000000 		.word	thread
 263              		.cfi_endproc
 264              	.LFE14:
 265              		.size	dyn3_execute, .-dyn3_execute
 266 013c AFF30080 		.section	.text.thread,"ax",%progbits
 267              		.align	2
 268              		.p2align 4,,15
 269              		.thumb
 270              		.thumb_func
 271              		.type	thread, %function
 272              	thread:
 273              	.LFB7:
 274              		.loc 1 71 0
 275              		.cfi_startproc
 276              		@ args = 0, pretend = 0, frame = 0
 277              		@ frame_needed = 0, uses_anonymous_args = 0
 278              	.LVL32:
 279 0000 08B5     		push	{r3, lr}
 280              	.LCFI3:
 281              		.cfi_def_cfa_offset 8
 282              		.cfi_offset 3, -8
 283              		.cfi_offset 14, -4
ARM GAS  C:\Users\jenny\AppData\Local\Temp\ccL4nVsq.s 			page 6


 284              		.loc 1 73 0
 285 0002 0078     		ldrb	r0, [r0, #0]	@ zero_extendqisi2
 286              	.LVL33:
 287 0004 FFF7FEFF 		bl	test_emit_token
 288              	.LVL34:
 289              		.loc 1 75 0
 290 0008 0020     		movs	r0, #0
 291 000a 08BD     		pop	{r3, pc}
 292              		.cfi_endproc
 293              	.LFE7:
 294              		.size	thread, .-thread
 295 000c AFF30080 		.section	.text.dyn3_setup,"ax",%progbits
 296              		.align	2
 297              		.p2align 4,,15
 298              		.thumb
 299              		.thumb_func
 300              		.type	dyn3_setup, %function
 301              	dyn3_setup:
 302              	.LFB13:
 303              		.loc 1 203 0
 304              		.cfi_startproc
 305              		@ args = 0, pretend = 0, frame = 0
 306              		@ frame_needed = 0, uses_anonymous_args = 0
 307              		@ link register save eliminated.
 308              		.loc 1 205 0
 309 0000 40F20000 		movw	r0, #:lower16:.LANCHOR0
 310 0004 40F20001 		movw	r1, #:lower16:test
 311 0008 C0F20000 		movt	r0, #:upper16:.LANCHOR0
 312 000c C0F20001 		movt	r1, #:upper16:test
 313 0010 40F69802 		movw	r2, #2200
 314              		.loc 1 206 0
 315              		.loc 1 205 0
 316 0014 FFF7FEBF 		b	chHeapInit
 317              	.LVL35:
 318              		.cfi_endproc
 319              	.LFE13:
 320              		.size	dyn3_setup, .-dyn3_setup
 321 0018 AFF30080 		.section	.text.dyn1_setup,"ax",%progbits
 321      AFF30080 
 322              		.align	2
 323              		.p2align 4,,15
 324              		.thumb
 325              		.thumb_func
 326              		.type	dyn1_setup, %function
 327              	dyn1_setup:
 328              	.LFB8:
 329              		.loc 1 78 0
 330              		.cfi_startproc
 331              		@ args = 0, pretend = 0, frame = 0
 332              		@ frame_needed = 0, uses_anonymous_args = 0
 333              		@ link register save eliminated.
 334              		.loc 1 80 0
 335 0000 40F20000 		movw	r0, #:lower16:.LANCHOR0
 336 0004 40F20001 		movw	r1, #:lower16:test
 337 0008 C0F20000 		movt	r0, #:upper16:.LANCHOR0
 338 000c C0F20001 		movt	r1, #:upper16:test
 339 0010 40F69802 		movw	r2, #2200
ARM GAS  C:\Users\jenny\AppData\Local\Temp\ccL4nVsq.s 			page 7


 340              		.loc 1 81 0
 341              		.loc 1 80 0
 342 0014 FFF7FEBF 		b	chHeapInit
 343              	.LVL36:
 344              		.cfi_endproc
 345              	.LFE8:
 346              		.size	dyn1_setup, .-dyn1_setup
 347 0018 AFF30080 		.section	.text.dyn2_execute,"ax",%progbits
 347      AFF30080 
 348              		.align	2
 349              		.p2align 4,,15
 350              		.thumb
 351              		.thumb_func
 352              		.type	dyn2_execute, %function
 353              	dyn2_execute:
 354              	.LFB11:
 355              		.loc 1 141 0
 356              		.cfi_startproc
 357              		@ args = 0, pretend = 0, frame = 0
 358              		@ frame_needed = 0, uses_anonymous_args = 0
 359              		.loc 1 143 0
 360 0000 444B     		ldr	r3, .L25
 361              		.loc 1 147 0
 362 0002 4548     		ldr	r0, .L25+4
 363              		.loc 1 143 0
 364 0004 9A69     		ldr	r2, [r3, #24]
 365              		.loc 1 141 0
 366 0006 70B5     		push	{r4, r5, r6, lr}
 367              	.LCFI4:
 368              		.cfi_def_cfa_offset 16
 369              		.cfi_offset 4, -16
 370              		.cfi_offset 5, -12
 371              		.cfi_offset 6, -8
 372              		.cfi_offset 14, -4
 373              		.loc 1 147 0
 374 0008 444E     		ldr	r6, .L25+8
 375              		.loc 1 143 0
 376 000a 9568     		ldr	r5, [r2, #8]
 377              	.LVL37:
 378              		.loc 1 147 0
 379 000c 3168     		ldr	r1, [r6, #0]
 380              		.loc 1 150 0
 381 000e 444C     		ldr	r4, .L25+12
 382              		.loc 1 147 0
 383 0010 FFF7FEFF 		bl	chPoolFree
 384              	.LVL38:
 385 0014 4048     		ldr	r0, .L25+4
 386 0016 7168     		ldr	r1, [r6, #4]
 387 0018 FFF7FEFF 		bl	chPoolFree
 388              	.LVL39:
 389 001c 3E48     		ldr	r0, .L25+4
 390 001e B168     		ldr	r1, [r6, #8]
 391 0020 FFF7FEFF 		bl	chPoolFree
 392              	.LVL40:
 393 0024 3C48     		ldr	r0, .L25+4
 394 0026 F168     		ldr	r1, [r6, #12]
 395 0028 FFF7FEFF 		bl	chPoolFree
ARM GAS  C:\Users\jenny\AppData\Local\Temp\ccL4nVsq.s 			page 8


 396              	.LVL41:
 397              		.loc 1 150 0
 398 002c 691E     		subs	r1, r5, #1
 399 002e 3D4A     		ldr	r2, .L25+16
 400 0030 3D4B     		ldr	r3, .L25+20
 401 0032 3948     		ldr	r0, .L25+4
 402 0034 FFF7FEFF 		bl	chThdCreateFromMemoryPool
 403              	.LVL42:
 404              		.loc 1 151 0
 405 0038 A91E     		subs	r1, r5, #2
 406              		.loc 1 150 0
 407 003a 2060     		str	r0, [r4, #0]
 408              		.loc 1 151 0
 409 003c 394A     		ldr	r2, .L25+16
 410 003e 3B4B     		ldr	r3, .L25+24
 411 0040 3548     		ldr	r0, .L25+4
 412 0042 FFF7FEFF 		bl	chThdCreateFromMemoryPool
 413              	.LVL43:
 414              		.loc 1 152 0
 415 0046 E91E     		subs	r1, r5, #3
 416              		.loc 1 151 0
 417 0048 6060     		str	r0, [r4, #4]
 418              		.loc 1 152 0
 419 004a 364A     		ldr	r2, .L25+16
 420 004c 384B     		ldr	r3, .L25+28
 421 004e 3248     		ldr	r0, .L25+4
 422 0050 FFF7FEFF 		bl	chThdCreateFromMemoryPool
 423              	.LVL44:
 424              		.loc 1 153 0
 425 0054 291F     		subs	r1, r5, #4
 426              		.loc 1 152 0
 427 0056 A060     		str	r0, [r4, #8]
 428              		.loc 1 153 0
 429 0058 324A     		ldr	r2, .L25+16
 430 005a 364B     		ldr	r3, .L25+32
 431 005c 2E48     		ldr	r0, .L25+4
 432 005e FFF7FEFF 		bl	chThdCreateFromMemoryPool
 433              	.LVL45:
 434              		.loc 1 154 0
 435 0062 691F     		subs	r1, r5, #5
 436              		.loc 1 153 0
 437 0064 E060     		str	r0, [r4, #12]
 438              		.loc 1 154 0
 439 0066 2F4A     		ldr	r2, .L25+16
 440 0068 2B48     		ldr	r0, .L25+4
 441 006a 334B     		ldr	r3, .L25+36
 442 006c FFF7FEFF 		bl	chThdCreateFromMemoryPool
 443              	.LVL46:
 444              		.loc 1 156 0
 445 0070 2168     		ldr	r1, [r4, #0]
 446              		.loc 1 154 0
 447 0072 2061     		str	r0, [r4, #16]
 448              		.loc 1 156 0
 449 0074 49B1     		cbz	r1, .L16
 450              		.loc 1 156 0 is_stmt 0 discriminator 1
 451 0076 6168     		ldr	r1, [r4, #4]
 452 0078 39B1     		cbz	r1, .L16
ARM GAS  C:\Users\jenny\AppData\Local\Temp\ccL4nVsq.s 			page 9


 453              		.loc 1 156 0 discriminator 3
 454 007a A168     		ldr	r1, [r4, #8]
 455 007c 29B1     		cbz	r1, .L16
 456              		.loc 1 156 0 discriminator 4
 457 007e E168     		ldr	r1, [r4, #12]
 458 0080 19B1     		cbz	r1, .L16
 459              		.loc 1 156 0 discriminator 5
 460 0082 D0F10101 		rsbs	r1, r0, #1
 461 0086 38BF     		it	cc
 462 0088 0021     		movcc	r1, #0
 463              	.L16:
 464              		.loc 1 156 0 discriminator 7
 465 008a 0120     		movs	r0, #1
 466 008c FFF7FEFF 		bl	_test_assert
 467              	.LVL47:
 468 0090 00B1     		cbz	r0, .L24
 469              	.LVL48:
 470              	.L15:
 471 0092 70BD     		pop	{r4, r5, r6, pc}
 472              	.LVL49:
 473              	.L24:
 474              		.loc 1 164 0 is_stmt 1
 475 0094 FFF7FEFF 		bl	test_wait_threads
 476              	.LVL50:
 477              		.loc 1 165 0
 478 0098 0220     		movs	r0, #2
 479 009a 2849     		ldr	r1, .L25+40
 480 009c FFF7FEFF 		bl	_test_assert_sequence
 481              	.LVL51:
 482 00a0 0028     		cmp	r0, #0
 483 00a2 F6D1     		bne	.L15
 484              		.loc 1 169 0
 485 00a4 1C48     		ldr	r0, .L25+4
 486 00a6 FFF7FEFF 		bl	chPoolAlloc
 487              	.LVL52:
 488 00aa 011C     		adds	r1, r0, #0
 489 00ac 18BF     		it	ne
 490 00ae 0121     		movne	r1, #1
 491 00b0 0320     		movs	r0, #3
 492 00b2 FFF7FEFF 		bl	_test_assert
 493              	.LVL53:
 494 00b6 0028     		cmp	r0, #0
 495 00b8 EBD1     		bne	.L15
 496              	.LVL54:
 497 00ba 1748     		ldr	r0, .L25+4
 498 00bc FFF7FEFF 		bl	chPoolAlloc
 499              	.LVL55:
 500 00c0 011C     		adds	r1, r0, #0
 501 00c2 18BF     		it	ne
 502 00c4 0121     		movne	r1, #1
 503 00c6 0320     		movs	r0, #3
 504 00c8 FFF7FEFF 		bl	_test_assert
 505              	.LVL56:
 506 00cc 0028     		cmp	r0, #0
 507 00ce E0D1     		bne	.L15
 508              	.LVL57:
 509 00d0 1148     		ldr	r0, .L25+4
ARM GAS  C:\Users\jenny\AppData\Local\Temp\ccL4nVsq.s 			page 10


 510 00d2 FFF7FEFF 		bl	chPoolAlloc
 511              	.LVL58:
 512 00d6 011C     		adds	r1, r0, #0
 513 00d8 18BF     		it	ne
 514 00da 0121     		movne	r1, #1
 515 00dc 0320     		movs	r0, #3
 516 00de FFF7FEFF 		bl	_test_assert
 517              	.LVL59:
 518 00e2 0028     		cmp	r0, #0
 519 00e4 D5D1     		bne	.L15
 520              	.LVL60:
 521 00e6 0C48     		ldr	r0, .L25+4
 522 00e8 FFF7FEFF 		bl	chPoolAlloc
 523              	.LVL61:
 524 00ec 011C     		adds	r1, r0, #0
 525 00ee 18BF     		it	ne
 526 00f0 0121     		movne	r1, #1
 527 00f2 0320     		movs	r0, #3
 528 00f4 FFF7FEFF 		bl	_test_assert
 529              	.LVL62:
 530 00f8 0028     		cmp	r0, #0
 531 00fa CAD1     		bne	.L15
 532              	.LVL63:
 533              		.loc 1 170 0
 534 00fc 0648     		ldr	r0, .L25+4
 535 00fe FFF7FEFF 		bl	chPoolAlloc
 536              	.LVL64:
 537 0102 D0F10101 		rsbs	r1, r0, #1
 538 0106 38BF     		it	cc
 539 0108 0021     		movcc	r1, #0
 540 010a 0420     		movs	r0, #4
 541              		.loc 1 171 0
 542 010c BDE87040 		pop	{r4, r5, r6, lr}
 543              		.loc 1 170 0
 544 0110 FFF7FEBF 		b	_test_assert
 545              	.LVL65:
 546              	.L26:
 547              		.align	2
 548              	.L25:
 549 0114 00000000 		.word	rlist
 550 0118 00000000 		.word	.LANCHOR1
 551 011c 00000000 		.word	wa
 552 0120 00000000 		.word	threads
 553 0124 00000000 		.word	thread
 554 0128 00000000 		.word	.LC0
 555 012c 04000000 		.word	.LC1
 556 0130 08000000 		.word	.LC2
 557 0134 0C000000 		.word	.LC3
 558 0138 10000000 		.word	.LC4
 559 013c 14000000 		.word	.LC5
 560              		.cfi_endproc
 561              	.LFE11:
 562              		.size	dyn2_execute, .-dyn2_execute
 563              		.section	.text.dyn2_setup,"ax",%progbits
 564              		.align	2
 565              		.p2align 4,,15
 566              		.thumb
ARM GAS  C:\Users\jenny\AppData\Local\Temp\ccL4nVsq.s 			page 11


 567              		.thumb_func
 568              		.type	dyn2_setup, %function
 569              	dyn2_setup:
 570              	.LFB10:
 571              		.loc 1 136 0
 572              		.cfi_startproc
 573              		@ args = 0, pretend = 0, frame = 0
 574              		@ frame_needed = 0, uses_anonymous_args = 0
 575              		@ link register save eliminated.
 576              		.loc 1 138 0
 577 0000 40F20000 		movw	r0, #:lower16:.LANCHOR1
 578 0004 C0F20000 		movt	r0, #:upper16:.LANCHOR1
 579 0008 4FF4DC71 		mov	r1, #440
 580 000c 0022     		movs	r2, #0
 581              		.loc 1 139 0
 582              		.loc 1 138 0
 583 000e FFF7FEBF 		b	chPoolInit
 584              	.LVL66:
 585              		.cfi_endproc
 586              	.LFE10:
 587              		.size	dyn2_setup, .-dyn2_setup
 588 0012 00BFAFF3 		.section	.text.dyn1_execute,"ax",%progbits
 588      0080AFF3 
 588      0080AFF3 
 588      0080
 589              		.align	2
 590              		.p2align 4,,15
 591              		.thumb
 592              		.thumb_func
 593              		.type	dyn1_execute, %function
 594              	dyn1_execute:
 595              	.LFB9:
 596              		.loc 1 83 0
 597              		.cfi_startproc
 598              		@ args = 0, pretend = 0, frame = 8
 599              		@ frame_needed = 0, uses_anonymous_args = 0
 600 0000 70B5     		push	{r4, r5, r6, lr}
 601              	.LCFI5:
 602              		.cfi_def_cfa_offset 16
 603              		.cfi_offset 4, -16
 604              		.cfi_offset 5, -12
 605              		.cfi_offset 6, -8
 606              		.cfi_offset 14, -4
 607              		.loc 1 86 0
 608 0002 334B     		ldr	r3, .L38
 609              		.loc 1 88 0
 610 0004 3348     		ldr	r0, .L38+4
 611              		.loc 1 86 0
 612 0006 9969     		ldr	r1, [r3, #24]
 613              		.loc 1 90 0
 614 0008 334C     		ldr	r4, .L38+8
 615              		.loc 1 86 0
 616 000a 8D68     		ldr	r5, [r1, #8]
 617              	.LVL67:
 618              		.loc 1 83 0
 619 000c 84B0     		sub	sp, sp, #16
 620              	.LCFI6:
ARM GAS  C:\Users\jenny\AppData\Local\Temp\ccL4nVsq.s 			page 12


 621              		.cfi_def_cfa_offset 32
 622              		.loc 1 88 0
 623 000e 03A9     		add	r1, sp, #12
 624 0010 FFF7FEFF 		bl	chHeapStatus
 625              	.LVL68:
 626              		.loc 1 90 0
 627 0014 314A     		ldr	r2, .L38+12
 628 0016 324B     		ldr	r3, .L38+16
 629 0018 0092     		str	r2, [sp, #0]
 630 001a 4FF4DC71 		mov	r1, #440
 631 001e 6A1E     		subs	r2, r5, #1
 632 0020 2C48     		ldr	r0, .L38+4
 633 0022 FFF7FEFF 		bl	chThdCreateFromHeap
 634              	.LVL69:
 635 0026 2060     		str	r0, [r4, #0]
 636              		.loc 1 92 0
 637 0028 2E48     		ldr	r0, .L38+20
 638 002a 2D4B     		ldr	r3, .L38+16
 639 002c 0090     		str	r0, [sp, #0]
 640 002e AA1E     		subs	r2, r5, #2
 641 0030 4FF4DC71 		mov	r1, #440
 642 0034 2748     		ldr	r0, .L38+4
 643 0036 FFF7FEFF 		bl	chThdCreateFromHeap
 644              	.LVL70:
 645              		.loc 1 95 0
 646 003a 02A9     		add	r1, sp, #8
 647              		.loc 1 92 0
 648 003c 6060     		str	r0, [r4, #4]
 649              		.loc 1 95 0
 650 003e 2548     		ldr	r0, .L38+4
 651 0040 FFF7FEFF 		bl	chHeapStatus
 652              	.LVL71:
 653              		.loc 1 96 0
 654 0044 0299     		ldr	r1, [sp, #8]
 655 0046 2348     		ldr	r0, .L38+4
 656 0048 FFF7FEFF 		bl	chHeapAlloc
 657              	.LVL72:
 658              		.loc 1 97 0
 659 004c 2649     		ldr	r1, .L38+24
 660 004e 244B     		ldr	r3, .L38+16
 661 0050 0091     		str	r1, [sp, #0]
 662              		.loc 1 96 0
 663 0052 0646     		mov	r6, r0
 664              	.LVL73:
 665              		.loc 1 97 0
 666 0054 4FF4DC71 		mov	r1, #440
 667 0058 EA1E     		subs	r2, r5, #3
 668 005a 1E48     		ldr	r0, .L38+4
 669              	.LVL74:
 670 005c FFF7FEFF 		bl	chThdCreateFromHeap
 671              	.LVL75:
 672 0060 A060     		str	r0, [r4, #8]
 673              		.loc 1 99 0
 674 0062 3046     		mov	r0, r6
 675 0064 FFF7FEFF 		bl	chHeapFree
 676              	.LVL76:
 677              		.loc 1 101 0
ARM GAS  C:\Users\jenny\AppData\Local\Temp\ccL4nVsq.s 			page 13


 678 0068 2168     		ldr	r1, [r4, #0]
 679 006a 29B1     		cbz	r1, .L29
 680              		.loc 1 101 0 is_stmt 0 discriminator 1
 681 006c 6168     		ldr	r1, [r4, #4]
 682 006e 19B1     		cbz	r1, .L29
 683              		.loc 1 101 0 discriminator 3
 684 0070 A168     		ldr	r1, [r4, #8]
 685 0072 0029     		cmp	r1, #0
 686 0074 23D0     		beq	.L36
 687              		.loc 1 101 0
 688 0076 0021     		movs	r1, #0
 689              	.L29:
 690              		.loc 1 101 0 discriminator 7
 691 0078 0120     		movs	r0, #1
 692 007a FFF7FEFF 		bl	_test_assert
 693              	.LVL77:
 694 007e 08B1     		cbz	r0, .L37
 695              	.L28:
 696              		.loc 1 115 0 is_stmt 1
 697 0080 04B0     		add	sp, sp, #16
 698 0082 70BD     		pop	{r4, r5, r6, pc}
 699              	.L37:
 700              		.loc 1 109 0
 701 0084 FFF7FEFF 		bl	test_wait_threads
 702              	.LVL78:
 703              		.loc 1 110 0
 704 0088 0220     		movs	r0, #2
 705 008a 1849     		ldr	r1, .L38+28
 706 008c FFF7FEFF 		bl	_test_assert_sequence
 707              	.LVL79:
 708 0090 0028     		cmp	r0, #0
 709 0092 F5D1     		bne	.L28
 710              		.loc 1 113 0
 711 0094 02A9     		add	r1, sp, #8
 712 0096 0F48     		ldr	r0, .L38+4
 713 0098 FFF7FEFF 		bl	chHeapStatus
 714              	.LVL80:
 715 009c 0138     		subs	r0, r0, #1
 716 009e 4142     		rsbs	r1, r0, #0
 717 00a0 4141     		adcs	r1, r1, r0
 718 00a2 0320     		movs	r0, #3
 719 00a4 FFF7FEFF 		bl	_test_assert
 720              	.LVL81:
 721 00a8 0028     		cmp	r0, #0
 722 00aa E9D1     		bne	.L28
 723              	.LVL82:
 724              		.loc 1 114 0
 725 00ac 039B     		ldr	r3, [sp, #12]
 726 00ae 029A     		ldr	r2, [sp, #8]
 727 00b0 0420     		movs	r0, #4
 728 00b2 D31A     		subs	r3, r2, r3
 729 00b4 5942     		rsbs	r1, r3, #0
 730 00b6 5941     		adcs	r1, r1, r3
 731 00b8 FFF7FEFF 		bl	_test_assert
 732              	.LVL83:
 733 00bc E0E7     		b	.L28
 734              	.LVL84:
ARM GAS  C:\Users\jenny\AppData\Local\Temp\ccL4nVsq.s 			page 14


 735              	.L36:
 736              		.loc 1 101 0 discriminator 4
 737 00be E368     		ldr	r3, [r4, #12]
 738 00c0 002B     		cmp	r3, #0
 739 00c2 D9D1     		bne	.L29
 740              		.loc 1 101 0 is_stmt 0 discriminator 5
 741 00c4 2269     		ldr	r2, [r4, #16]
 742 00c6 D2F10101 		rsbs	r1, r2, #1
 743 00ca 38BF     		it	cc
 744 00cc 0021     		movcc	r1, #0
 745 00ce D3E7     		b	.L29
 746              	.L39:
 747              		.align	2
 748              	.L38:
 749 00d0 00000000 		.word	rlist
 750 00d4 00000000 		.word	.LANCHOR0
 751 00d8 00000000 		.word	threads
 752 00dc 00000000 		.word	.LC0
 753 00e0 00000000 		.word	thread
 754 00e4 04000000 		.word	.LC1
 755 00e8 08000000 		.word	.LC2
 756 00ec 1C000000 		.word	.LC6
 757              		.cfi_endproc
 758              	.LFE9:
 759              		.size	dyn1_execute, .-dyn1_execute
 760              		.global	patterndyn
 761              		.global	testdyn3
 762              		.global	testdyn2
 763              		.global	testdyn1
 764              		.section	.rodata.testdyn1,"a",%progbits
 765              		.align	2
 766              		.type	testdyn1, %object
 767              		.size	testdyn1, 16
 768              	testdyn1:
 769 0000 78000000 		.word	.LC9
 770 0004 00000000 		.word	dyn1_setup
 771 0008 00000000 		.word	0
 772 000c 00000000 		.word	dyn1_execute
 773              		.section	.rodata.testdyn2,"a",%progbits
 774              		.align	2
 775              		.type	testdyn2, %object
 776              		.size	testdyn2, 16
 777              	testdyn2:
 778 0000 48000000 		.word	.LC8
 779 0004 00000000 		.word	dyn2_setup
 780 0008 00000000 		.word	0
 781 000c 00000000 		.word	dyn2_execute
 782              		.section	.rodata.testdyn3,"a",%progbits
 783              		.align	2
 784              		.type	testdyn3, %object
 785              		.size	testdyn3, 16
 786              	testdyn3:
 787 0000 20000000 		.word	.LC7
 788 0004 00000000 		.word	dyn3_setup
 789 0008 00000000 		.word	0
 790 000c 00000000 		.word	dyn3_execute
 791              		.section	.bss.mp1,"aw",%nobits
ARM GAS  C:\Users\jenny\AppData\Local\Temp\ccL4nVsq.s 			page 15


 792              		.align	2
 793              		.set	.LANCHOR1,. + 0
 794              		.type	mp1, %object
 795              		.size	mp1, 12
 796              	mp1:
 797 0000 00000000 		.space	12
 797      00000000 
 797      00000000 
 798              		.section	.rodata.str1.4,"aMS",%progbits,1
 799              		.align	2
 800              	.LC0:
 801 0000 4100     		.ascii	"A\000"
 802 0002 0000     		.space	2
 803              	.LC1:
 804 0004 4200     		.ascii	"B\000"
 805 0006 0000     		.space	2
 806              	.LC2:
 807 0008 4300     		.ascii	"C\000"
 808 000a 0000     		.space	2
 809              	.LC3:
 810 000c 4400     		.ascii	"D\000"
 811 000e 0000     		.space	2
 812              	.LC4:
 813 0010 4500     		.ascii	"E\000"
 814 0012 0000     		.space	2
 815              	.LC5:
 816 0014 41424344 		.ascii	"ABCD\000"
 816      00
 817 0019 000000   		.space	3
 818              	.LC6:
 819 001c 414200   		.ascii	"AB\000"
 820 001f 00       		.space	1
 821              	.LC7:
 822 0020 44796E61 		.ascii	"Dynamic APIs, registry and references\000"
 822      6D696320 
 822      41504973 
 822      2C207265 
 822      67697374 
 823 0046 0000     		.space	2
 824              	.LC8:
 825 0048 44796E61 		.ascii	"Dynamic APIs, threads creation from memory pool\000"
 825      6D696320 
 825      41504973 
 825      2C207468 
 825      72656164 
 826              	.LC9:
 827 0078 44796E61 		.ascii	"Dynamic APIs, threads creation from heap\000"
 827      6D696320 
 827      41504973 
 827      2C207468 
 827      72656164 
 828 00a1 000000   		.section	.rodata.patterndyn,"a",%progbits
 829              		.align	2
 830              		.type	patterndyn, %object
 831              		.size	patterndyn, 16
 832              	patterndyn:
 833 0000 00000000 		.word	testdyn1
ARM GAS  C:\Users\jenny\AppData\Local\Temp\ccL4nVsq.s 			page 16


 834 0004 00000000 		.word	testdyn2
 835 0008 00000000 		.word	testdyn3
 836 000c 00000000 		.word	0
 837              		.section	.bss.heap1,"aw",%nobits
 838              		.align	3
 839              		.set	.LANCHOR0,. + 0
 840              		.type	heap1, %object
 841              		.size	heap1, 32
 842              	heap1:
 843 0000 00000000 		.space	32
 843      00000000 
 843      00000000 
 843      00000000 
 843      00000000 
 844              		.text
 845              	.Letext0:
 846              		.file 2 "c:\\fbin\\yagarto\\bin\\../lib/gcc/arm-none-eabi/4.7.4/include/stddef.h"
 847              		.file 3 "c:\\fbin\\yagarto\\bin\\../lib/gcc/arm-none-eabi/4.7.4/../../../../arm-none-eabi/include/
 848              		.file 4 "../../os/ports/GCC/ARMCMx/chtypes.h"
 849              		.file 5 "../../os/kernel/include/chlists.h"
 850              		.file 6 "../../os/kernel/include/chthreads.h"
 851              		.file 7 "../../os/ports/GCC/ARMCMx/chcore_v7m.h"
 852              		.file 8 "../../os/kernel/include/chschd.h"
 853              		.file 9 "../../os/kernel/include/chmtx.h"
 854              		.file 10 "../../os/kernel/include/chmemcore.h"
 855              		.file 11 "../../os/kernel/include/chheap.h"
 856              		.file 12 "../../os/kernel/include/chmempools.h"
 857              		.file 13 "../../test/test.h"
 858              		.file 14 "../../os/kernel/include/chregistry.h"
 859              		.file 15 "../../os/kernel/include/chdynamic.h"