ARM GAS  C:\Users\jenny\AppData\Local\Temp\ccjGGfOi.s 			page 1


   1              		.syntax unified
   2              		.cpu cortex-m4
   3              		.eabi_attribute 27, 3
   4              		.fpu fpv4-sp-d16
   5              		.eabi_attribute 20, 1
   6              		.eabi_attribute 21, 1
   7              		.eabi_attribute 23, 3
   8              		.eabi_attribute 24, 1
   9              		.eabi_attribute 25, 1
  10              		.eabi_attribute 26, 1
  11              		.eabi_attribute 30, 2
  12              		.eabi_attribute 34, 1
  13              		.eabi_attribute 18, 4
  14              		.thumb
  15              		.file	"testpools.c"
  16              		.text
  17              	.Ltext0:
  18              		.cfi_sections	.debug_frame
  19              		.section	.text.null_provider,"ax",%progbits
  20              		.align	2
  21              		.p2align 4,,15
  22              		.thumb
  23              		.thumb_func
  24              		.type	null_provider, %function
  25              	null_provider:
  26              	.LFB7:
  27              		.file 1 "../../test/testpools.c"
  28              		.loc 1 60 0
  29              		.cfi_startproc
  30              		@ args = 0, pretend = 0, frame = 0
  31              		@ frame_needed = 0, uses_anonymous_args = 0
  32              		@ link register save eliminated.
  33              	.LVL0:
  34              		.loc 1 64 0
  35 0000 0020     		movs	r0, #0
  36              	.LVL1:
  37 0002 7047     		bx	lr
  38              		.cfi_endproc
  39              	.LFE7:
  40              		.size	null_provider, .-null_provider
  41 0004 AFF30080 		.section	.text.pools1_setup,"ax",%progbits
  41      AFF30080 
  41      AFF30080 
  42              		.align	2
  43              		.p2align 4,,15
  44              		.thumb
  45              		.thumb_func
  46              		.type	pools1_setup, %function
  47              	pools1_setup:
  48              	.LFB8:
  49              		.loc 1 66 0
  50              		.cfi_startproc
  51              		@ args = 0, pretend = 0, frame = 0
  52              		@ frame_needed = 0, uses_anonymous_args = 0
  53              		@ link register save eliminated.
  54              		.loc 1 68 0
  55 0000 40F20000 		movw	r0, #:lower16:.LANCHOR0
ARM GAS  C:\Users\jenny\AppData\Local\Temp\ccjGGfOi.s 			page 2


  56 0004 C0F20000 		movt	r0, #:upper16:.LANCHOR0
  57 0008 4FF4DC71 		mov	r1, #440
  58 000c 0022     		movs	r2, #0
  59              		.loc 1 69 0
  60              		.loc 1 68 0
  61 000e FFF7FEBF 		b	chPoolInit
  62              	.LVL2:
  63              		.cfi_endproc
  64              	.LFE8:
  65              		.size	pools1_setup, .-pools1_setup
  66 0012 00BFAFF3 		.section	.text.pools1_execute,"ax",%progbits
  66      0080AFF3 
  66      0080AFF3 
  66      0080
  67              		.align	2
  68              		.p2align 4,,15
  69              		.thumb
  70              		.thumb_func
  71              		.type	pools1_execute, %function
  72              	pools1_execute:
  73              	.LFB9:
  74              		.loc 1 71 0
  75              		.cfi_startproc
  76              		@ args = 0, pretend = 0, frame = 0
  77              		@ frame_needed = 0, uses_anonymous_args = 0
  78 0000 38B5     		push	{r3, r4, r5, lr}
  79              	.LCFI0:
  80              		.cfi_def_cfa_offset 16
  81              		.cfi_offset 3, -16
  82              		.cfi_offset 4, -12
  83              		.cfi_offset 5, -8
  84              		.cfi_offset 14, -4
  85              		.loc 1 75 0
  86 0002 574C     		ldr	r4, .L9
  87 0004 5748     		ldr	r0, .L9+4
  88 0006 2568     		ldr	r5, [r4, #0]
  89 0008 0522     		movs	r2, #5
  90 000a 2946     		mov	r1, r5
  91 000c FFF7FEFF 		bl	chPoolLoadArray
  92              	.LVL3:
  93              		.loc 1 79 0
  94 0010 5448     		ldr	r0, .L9+4
  95 0012 FFF7FEFF 		bl	chPoolAlloc
  96              	.LVL4:
  97 0016 011C     		adds	r1, r0, #0
  98 0018 18BF     		it	ne
  99 001a 0121     		movne	r1, #1
 100 001c 0120     		movs	r0, #1
 101 001e FFF7FEFF 		bl	_test_assert
 102              	.LVL5:
 103 0022 0028     		cmp	r0, #0
 104 0024 40F08A80 		bne	.L3
 105              	.LVL6:
 106 0028 4E48     		ldr	r0, .L9+4
 107 002a FFF7FEFF 		bl	chPoolAlloc
 108              	.LVL7:
 109 002e 011C     		adds	r1, r0, #0
ARM GAS  C:\Users\jenny\AppData\Local\Temp\ccjGGfOi.s 			page 3


 110 0030 18BF     		it	ne
 111 0032 0121     		movne	r1, #1
 112 0034 0120     		movs	r0, #1
 113 0036 FFF7FEFF 		bl	_test_assert
 114              	.LVL8:
 115 003a 0028     		cmp	r0, #0
 116 003c 7ED1     		bne	.L3
 117              	.LVL9:
 118 003e 4948     		ldr	r0, .L9+4
 119 0040 FFF7FEFF 		bl	chPoolAlloc
 120              	.LVL10:
 121 0044 011C     		adds	r1, r0, #0
 122 0046 18BF     		it	ne
 123 0048 0121     		movne	r1, #1
 124 004a 0120     		movs	r0, #1
 125 004c FFF7FEFF 		bl	_test_assert
 126              	.LVL11:
 127 0050 0028     		cmp	r0, #0
 128 0052 73D1     		bne	.L3
 129              	.LVL12:
 130 0054 4348     		ldr	r0, .L9+4
 131 0056 FFF7FEFF 		bl	chPoolAlloc
 132              	.LVL13:
 133 005a 011C     		adds	r1, r0, #0
 134 005c 18BF     		it	ne
 135 005e 0121     		movne	r1, #1
 136 0060 0120     		movs	r0, #1
 137 0062 FFF7FEFF 		bl	_test_assert
 138              	.LVL14:
 139 0066 0028     		cmp	r0, #0
 140 0068 68D1     		bne	.L3
 141              	.LVL15:
 142 006a 3E48     		ldr	r0, .L9+4
 143 006c FFF7FEFF 		bl	chPoolAlloc
 144              	.LVL16:
 145 0070 011C     		adds	r1, r0, #0
 146 0072 18BF     		it	ne
 147 0074 0121     		movne	r1, #1
 148 0076 0120     		movs	r0, #1
 149 0078 FFF7FEFF 		bl	_test_assert
 150              	.LVL17:
 151 007c 0028     		cmp	r0, #0
 152 007e 5DD1     		bne	.L3
 153              	.LVL18:
 154              		.loc 1 82 0
 155 0080 3848     		ldr	r0, .L9+4
 156 0082 FFF7FEFF 		bl	chPoolAlloc
 157              	.LVL19:
 158 0086 D0F10101 		rsbs	r1, r0, #1
 159 008a 38BF     		it	cc
 160 008c 0021     		movcc	r1, #0
 161 008e 0220     		movs	r0, #2
 162 0090 FFF7FEFF 		bl	_test_assert
 163              	.LVL20:
 164 0094 0028     		cmp	r0, #0
 165 0096 51D1     		bne	.L3
 166              	.LBB4:
ARM GAS  C:\Users\jenny\AppData\Local\Temp\ccjGGfOi.s 			page 4


 167              	.LBB5:
 168              		.loc 1 86 0
 169 0098 3248     		ldr	r0, .L9+4
 170 009a 2946     		mov	r1, r5
 171 009c FFF7FEFF 		bl	chPoolFree
 172              	.LVL21:
 173 00a0 3048     		ldr	r0, .L9+4
 174 00a2 6168     		ldr	r1, [r4, #4]
 175 00a4 FFF7FEFF 		bl	chPoolFree
 176              	.LVL22:
 177 00a8 2E48     		ldr	r0, .L9+4
 178 00aa A168     		ldr	r1, [r4, #8]
 179 00ac FFF7FEFF 		bl	chPoolFree
 180              	.LVL23:
 181 00b0 2C48     		ldr	r0, .L9+4
 182 00b2 E168     		ldr	r1, [r4, #12]
 183 00b4 FFF7FEFF 		bl	chPoolFree
 184              	.LVL24:
 185 00b8 2169     		ldr	r1, [r4, #16]
 186 00ba 2A48     		ldr	r0, .L9+4
 187 00bc FFF7FEFF 		bl	chPoolFree
 188              	.LVL25:
 189              		.loc 1 90 0
 190 00c0 2848     		ldr	r0, .L9+4
 191 00c2 FFF7FEFF 		bl	chPoolAlloc
 192              	.LVL26:
 193 00c6 011C     		adds	r1, r0, #0
 194 00c8 18BF     		it	ne
 195 00ca 0121     		movne	r1, #1
 196 00cc 0320     		movs	r0, #3
 197 00ce FFF7FEFF 		bl	_test_assert
 198              	.LVL27:
 199 00d2 0028     		cmp	r0, #0
 200 00d4 32D1     		bne	.L3
 201              	.LVL28:
 202 00d6 2348     		ldr	r0, .L9+4
 203 00d8 FFF7FEFF 		bl	chPoolAlloc
 204              	.LVL29:
 205 00dc 011C     		adds	r1, r0, #0
 206 00de 18BF     		it	ne
 207 00e0 0121     		movne	r1, #1
 208 00e2 0320     		movs	r0, #3
 209 00e4 FFF7FEFF 		bl	_test_assert
 210              	.LVL30:
 211 00e8 40BB     		cbnz	r0, .L3
 212              	.LVL31:
 213 00ea 1E48     		ldr	r0, .L9+4
 214 00ec FFF7FEFF 		bl	chPoolAlloc
 215              	.LVL32:
 216 00f0 011C     		adds	r1, r0, #0
 217 00f2 18BF     		it	ne
 218 00f4 0121     		movne	r1, #1
 219 00f6 0320     		movs	r0, #3
 220 00f8 FFF7FEFF 		bl	_test_assert
 221              	.LVL33:
 222 00fc F0B9     		cbnz	r0, .L3
 223              	.LVL34:
ARM GAS  C:\Users\jenny\AppData\Local\Temp\ccjGGfOi.s 			page 5


 224 00fe 1948     		ldr	r0, .L9+4
 225 0100 FFF7FEFF 		bl	chPoolAlloc
 226              	.LVL35:
 227 0104 011C     		adds	r1, r0, #0
 228 0106 18BF     		it	ne
 229 0108 0121     		movne	r1, #1
 230 010a 0320     		movs	r0, #3
 231 010c FFF7FEFF 		bl	_test_assert
 232              	.LVL36:
 233 0110 A0B9     		cbnz	r0, .L3
 234              	.LVL37:
 235 0112 1448     		ldr	r0, .L9+4
 236 0114 FFF7FEFF 		bl	chPoolAlloc
 237              	.LVL38:
 238 0118 011C     		adds	r1, r0, #0
 239 011a 18BF     		it	ne
 240 011c 0121     		movne	r1, #1
 241 011e 0320     		movs	r0, #3
 242 0120 FFF7FEFF 		bl	_test_assert
 243              	.LVL39:
 244 0124 50B9     		cbnz	r0, .L3
 245              	.LVL40:
 246              		.loc 1 93 0
 247 0126 0F48     		ldr	r0, .L9+4
 248 0128 FFF7FEFF 		bl	chPoolAlloc
 249              	.LVL41:
 250 012c D0F10101 		rsbs	r1, r0, #1
 251 0130 38BF     		it	cc
 252 0132 0021     		movcc	r1, #0
 253 0134 0420     		movs	r0, #4
 254 0136 FFF7FEFF 		bl	_test_assert
 255              	.LVL42:
 256 013a 00B1     		cbz	r0, .L8
 257              	.LVL43:
 258              	.L3:
 259 013c 38BD     		pop	{r3, r4, r5, pc}
 260              	.LVL44:
 261              	.L8:
 262              		.loc 1 96 0
 263 013e 1021     		movs	r1, #16
 264 0140 094A     		ldr	r2, .L9+8
 265 0142 0848     		ldr	r0, .L9+4
 266 0144 FFF7FEFF 		bl	chPoolInit
 267              	.LVL45:
 268              		.loc 1 97 0
 269 0148 0648     		ldr	r0, .L9+4
 270 014a FFF7FEFF 		bl	chPoolAlloc
 271              	.LVL46:
 272 014e D0F10101 		rsbs	r1, r0, #1
 273 0152 38BF     		it	cc
 274 0154 0021     		movcc	r1, #0
 275 0156 0520     		movs	r0, #5
 276              	.LBE5:
 277              	.LBE4:
 278              		.loc 1 98 0
 279 0158 BDE83840 		pop	{r3, r4, r5, lr}
 280              	.LBB7:
ARM GAS  C:\Users\jenny\AppData\Local\Temp\ccjGGfOi.s 			page 6


 281              	.LBB6:
 282              		.loc 1 97 0
 283 015c FFF7FEBF 		b	_test_assert
 284              	.LVL47:
 285              	.L10:
 286              		.align	2
 287              	.L9:
 288 0160 00000000 		.word	wa
 289 0164 00000000 		.word	.LANCHOR0
 290 0168 00000000 		.word	null_provider
 291              	.LBE6:
 292              	.LBE7:
 293              		.cfi_endproc
 294              	.LFE9:
 295              		.size	pools1_execute, .-pools1_execute
 296              		.global	patternpools
 297              		.global	testpools1
 298 016c AFF30080 		.section	.rodata.str1.4,"aMS",%progbits,1
 299              		.align	2
 300              	.LC0:
 301 0000 4D656D6F 		.ascii	"Memory Pools, queue/dequeue\000"
 301      72792050 
 301      6F6F6C73 
 301      2C207175 
 301      6575652F 
 302              		.section	.rodata.patternpools,"a",%progbits
 303              		.align	2
 304              		.type	patternpools, %object
 305              		.size	patternpools, 8
 306              	patternpools:
 307 0000 00000000 		.word	testpools1
 308 0004 00000000 		.word	0
 309              		.section	.data.mp1,"aw",%progbits
 310              		.align	2
 311              		.set	.LANCHOR0,. + 0
 312              		.type	mp1, %object
 313              		.size	mp1, 12
 314              	mp1:
 315 0000 00000000 		.word	0
 316 0004 B8010000 		.word	440
 317 0008 00000000 		.word	0
 318              		.section	.rodata.testpools1,"a",%progbits
 319              		.align	2
 320              		.type	testpools1, %object
 321              		.size	testpools1, 16
 322              	testpools1:
 323 0000 00000000 		.word	.LC0
 324 0004 00000000 		.word	pools1_setup
 325 0008 00000000 		.word	0
 326 000c 00000000 		.word	pools1_execute
 327              		.text
 328              	.Letext0:
 329              		.file 2 "c:\\fbin\\yagarto\\bin\\../lib/gcc/arm-none-eabi/4.7.4/include/stddef.h"
 330              		.file 3 "../../os/ports/GCC/ARMCMx/chtypes.h"
 331              		.file 4 "../../os/kernel/include/chmemcore.h"
 332              		.file 5 "../../os/kernel/include/chmempools.h"
 333              		.file 6 "../../test/test.h"
ARM GAS  C:\Users\jenny\AppData\Local\Temp\ccjGGfOi.s 			page 7


 334              		.section	.debug_info,"",%progbits
 335              	.Ldebug_info0:
 336 0000 24060000 		.4byte	0x624
 337 0004 0200     		.2byte	0x2
 338 0006 00000000 		.4byte	.Ldebug_abbrev0
 339 000a 04       		.byte	0x4
 340 000b 01       		.uleb128 0x1
 341 000c 00010000 		.4byte	.LASF32
 342 0010 01       		.byte	0x1
 343 0011 C8010000 		.4byte	.LASF33
 344 0015 6C000000 		.4byte	.LASF34
 345 0019 30000000 		.4byte	.Ldebug_ranges0+0x30
 346 001d 00000000 		.4byte	0
 347 0021 00000000 		.4byte	0
 348 0025 00000000 		.4byte	.Ldebug_line0
 349 0029 02       		.uleb128 0x2
 350 002a 04       		.byte	0x4
 351 002b 05       		.byte	0x5
 352 002c 696E7400 		.ascii	"int\000"
 353 0030 03       		.uleb128 0x3
 354 0031 00000000 		.4byte	.LASF9
 355 0035 02       		.byte	0x2
 356 0036 D5       		.byte	0xd5
 357 0037 3B000000 		.4byte	0x3b
 358 003b 04       		.uleb128 0x4
 359 003c 04       		.byte	0x4
 360 003d 07       		.byte	0x7
 361 003e 78010000 		.4byte	.LASF0
 362 0042 04       		.uleb128 0x4
 363 0043 01       		.byte	0x1
 364 0044 06       		.byte	0x6
 365 0045 21020000 		.4byte	.LASF1
 366 0049 04       		.uleb128 0x4
 367 004a 01       		.byte	0x1
 368 004b 08       		.byte	0x8
 369 004c 49010000 		.4byte	.LASF2
 370 0050 04       		.uleb128 0x4
 371 0051 02       		.byte	0x2
 372 0052 05       		.byte	0x5
 373 0053 FD010000 		.4byte	.LASF3
 374 0057 04       		.uleb128 0x4
 375 0058 02       		.byte	0x2
 376 0059 07       		.byte	0x7
 377 005a DF000000 		.4byte	.LASF4
 378 005e 04       		.uleb128 0x4
 379 005f 04       		.byte	0x4
 380 0060 05       		.byte	0x5
 381 0061 13020000 		.4byte	.LASF5
 382 0065 04       		.uleb128 0x4
 383 0066 04       		.byte	0x4
 384 0067 07       		.byte	0x7
 385 0068 C4000000 		.4byte	.LASF6
 386 006c 04       		.uleb128 0x4
 387 006d 08       		.byte	0x8
 388 006e 05       		.byte	0x5
 389 006f BA010000 		.4byte	.LASF7
 390 0073 04       		.uleb128 0x4
ARM GAS  C:\Users\jenny\AppData\Local\Temp\ccjGGfOi.s 			page 8


 391 0074 08       		.byte	0x8
 392 0075 07       		.byte	0x7
 393 0076 85010000 		.4byte	.LASF8
 394 007a 03       		.uleb128 0x3
 395 007b 31000000 		.4byte	.LASF10
 396 007f 03       		.byte	0x3
 397 0080 2B       		.byte	0x2b
 398 0081 85000000 		.4byte	0x85
 399 0085 04       		.uleb128 0x4
 400 0086 01       		.byte	0x1
 401 0087 02       		.byte	0x2
 402 0088 42020000 		.4byte	.LASF11
 403 008c 05       		.uleb128 0x5
 404 008d 04       		.byte	0x4
 405 008e 04       		.uleb128 0x4
 406 008f 04       		.byte	0x4
 407 0090 07       		.byte	0x7
 408 0091 B1010000 		.4byte	.LASF12
 409 0095 03       		.uleb128 0x3
 410 0096 E4010000 		.4byte	.LASF13
 411 009a 04       		.byte	0x4
 412 009b 2C       		.byte	0x2c
 413 009c A0000000 		.4byte	0xa0
 414 00a0 06       		.uleb128 0x6
 415 00a1 04       		.byte	0x4
 416 00a2 A6000000 		.4byte	0xa6
 417 00a6 07       		.uleb128 0x7
 418 00a7 01       		.byte	0x1
 419 00a8 8C000000 		.4byte	0x8c
 420 00ac B6000000 		.4byte	0xb6
 421 00b0 08       		.uleb128 0x8
 422 00b1 30000000 		.4byte	0x30
 423 00b5 00       		.byte	0
 424 00b6 09       		.uleb128 0x9
 425 00b7 41000000 		.4byte	.LASF20
 426 00bb 04       		.byte	0x4
 427 00bc 05       		.byte	0x5
 428 00bd 2C       		.byte	0x2c
 429 00be D1000000 		.4byte	0xd1
 430 00c2 0A       		.uleb128 0xa
 431 00c3 9C010000 		.4byte	.LASF14
 432 00c7 05       		.byte	0x5
 433 00c8 2D       		.byte	0x2d
 434 00c9 D1000000 		.4byte	0xd1
 435 00cd 02       		.byte	0x2
 436 00ce 23       		.byte	0x23
 437 00cf 00       		.uleb128 0
 438 00d0 00       		.byte	0
 439 00d1 06       		.uleb128 0x6
 440 00d2 04       		.byte	0x4
 441 00d3 B6000000 		.4byte	0xb6
 442 00d7 0B       		.uleb128 0xb
 443 00d8 0C       		.byte	0xc
 444 00d9 05       		.byte	0x5
 445 00da 34       		.byte	0x34
 446 00db 0A010000 		.4byte	0x10a
 447 00df 0A       		.uleb128 0xa
ARM GAS  C:\Users\jenny\AppData\Local\Temp\ccjGGfOi.s 			page 9


 448 00e0 2D020000 		.4byte	.LASF15
 449 00e4 05       		.byte	0x5
 450 00e5 35       		.byte	0x35
 451 00e6 D1000000 		.4byte	0xd1
 452 00ea 02       		.byte	0x2
 453 00eb 23       		.byte	0x23
 454 00ec 00       		.uleb128 0
 455 00ed 0A       		.uleb128 0xa
 456 00ee 1A000000 		.4byte	.LASF16
 457 00f2 05       		.byte	0x5
 458 00f3 36       		.byte	0x36
 459 00f4 30000000 		.4byte	0x30
 460 00f8 02       		.byte	0x2
 461 00f9 23       		.byte	0x23
 462 00fa 04       		.uleb128 0x4
 463 00fb 0A       		.uleb128 0xa
 464 00fc F1010000 		.4byte	.LASF17
 465 0100 05       		.byte	0x5
 466 0101 38       		.byte	0x38
 467 0102 95000000 		.4byte	0x95
 468 0106 02       		.byte	0x2
 469 0107 23       		.byte	0x23
 470 0108 08       		.uleb128 0x8
 471 0109 00       		.byte	0
 472 010a 03       		.uleb128 0x3
 473 010b 62010000 		.4byte	.LASF18
 474 010f 05       		.byte	0x5
 475 0110 3A       		.byte	0x3a
 476 0111 D7000000 		.4byte	0xd7
 477 0115 06       		.uleb128 0x6
 478 0116 04       		.byte	0x4
 479 0117 1B010000 		.4byte	0x11b
 480 011b 0C       		.uleb128 0xc
 481 011c 20010000 		.4byte	0x120
 482 0120 04       		.uleb128 0x4
 483 0121 01       		.byte	0x1
 484 0122 08       		.byte	0x8
 485 0123 1C020000 		.4byte	.LASF19
 486 0127 09       		.uleb128 0x9
 487 0128 38000000 		.4byte	.LASF21
 488 012c 10       		.byte	0x10
 489 012d 06       		.byte	0x6
 490 012e 3B       		.byte	0x3b
 491 012f 6C010000 		.4byte	0x16c
 492 0133 0A       		.uleb128 0xa
 493 0134 DF010000 		.4byte	.LASF22
 494 0138 06       		.byte	0x6
 495 0139 3C       		.byte	0x3c
 496 013a 15010000 		.4byte	0x115
 497 013e 02       		.byte	0x2
 498 013f 23       		.byte	0x23
 499 0140 00       		.uleb128 0
 500 0141 0A       		.uleb128 0xa
 501 0142 14000000 		.4byte	.LASF23
 502 0146 06       		.byte	0x6
 503 0147 3D       		.byte	0x3d
 504 0148 6E010000 		.4byte	0x16e
ARM GAS  C:\Users\jenny\AppData\Local\Temp\ccjGGfOi.s 			page 10


 505 014c 02       		.byte	0x2
 506 014d 23       		.byte	0x23
 507 014e 04       		.uleb128 0x4
 508 014f 0A       		.uleb128 0xa
 509 0150 D6000000 		.4byte	.LASF24
 510 0154 06       		.byte	0x6
 511 0155 3E       		.byte	0x3e
 512 0156 6E010000 		.4byte	0x16e
 513 015a 02       		.byte	0x2
 514 015b 23       		.byte	0x23
 515 015c 08       		.uleb128 0x8
 516 015d 0A       		.uleb128 0xa
 517 015e 29000000 		.4byte	.LASF25
 518 0162 06       		.byte	0x6
 519 0163 3F       		.byte	0x3f
 520 0164 6E010000 		.4byte	0x16e
 521 0168 02       		.byte	0x2
 522 0169 23       		.byte	0x23
 523 016a 0C       		.uleb128 0xc
 524 016b 00       		.byte	0
 525 016c 0D       		.uleb128 0xd
 526 016d 01       		.byte	0x1
 527 016e 06       		.uleb128 0x6
 528 016f 04       		.byte	0x4
 529 0170 6C010000 		.4byte	0x16c
 530 0174 0E       		.uleb128 0xe
 531 0175 4D000000 		.4byte	.LASF35
 532 0179 01       		.byte	0x1
 533 017a 47       		.byte	0x47
 534 017b 01       		.byte	0x1
 535 017c 01       		.byte	0x1
 536 017d 8B010000 		.4byte	0x18b
 537 0181 0F       		.uleb128 0xf
 538 0182 6900     		.ascii	"i\000"
 539 0184 01       		.byte	0x1
 540 0185 48       		.byte	0x48
 541 0186 29000000 		.4byte	0x29
 542 018a 00       		.byte	0
 543 018b 10       		.uleb128 0x10
 544 018c F2000000 		.4byte	.LASF36
 545 0190 01       		.byte	0x1
 546 0191 3C       		.byte	0x3c
 547 0192 01       		.byte	0x1
 548 0193 8C000000 		.4byte	0x8c
 549 0197 00000000 		.4byte	.LFB7
 550 019b 04000000 		.4byte	.LFE7
 551 019f 02       		.byte	0x2
 552 01a0 7D       		.byte	0x7d
 553 01a1 00       		.sleb128 0
 554 01a2 01       		.byte	0x1
 555 01a3 B7010000 		.4byte	0x1b7
 556 01a7 11       		.uleb128 0x11
 557 01a8 BF000000 		.4byte	.LASF37
 558 01ac 01       		.byte	0x1
 559 01ad 3C       		.byte	0x3c
 560 01ae 30000000 		.4byte	0x30
 561 01b2 00000000 		.4byte	.LLST0
ARM GAS  C:\Users\jenny\AppData\Local\Temp\ccjGGfOi.s 			page 11


 562 01b6 00       		.byte	0
 563 01b7 12       		.uleb128 0x12
 564 01b8 07000000 		.4byte	.LASF38
 565 01bc 01       		.byte	0x1
 566 01bd 42       		.byte	0x42
 567 01be 01       		.byte	0x1
 568 01bf 00000000 		.4byte	.LFB8
 569 01c3 12000000 		.4byte	.LFE8
 570 01c7 02       		.byte	0x2
 571 01c8 7D       		.byte	0x7d
 572 01c9 00       		.sleb128 0
 573 01ca 01       		.byte	0x1
 574 01cb F0010000 		.4byte	0x1f0
 575 01cf 13       		.uleb128 0x13
 576 01d0 12000000 		.4byte	.LVL2
 577 01d4 01       		.byte	0x1
 578 01d5 9B050000 		.4byte	0x59b
 579 01d9 14       		.uleb128 0x14
 580 01da 01       		.byte	0x1
 581 01db 52       		.byte	0x52
 582 01dc 01       		.byte	0x1
 583 01dd 30       		.byte	0x30
 584 01de 14       		.uleb128 0x14
 585 01df 01       		.byte	0x1
 586 01e0 51       		.byte	0x51
 587 01e1 03       		.byte	0x3
 588 01e2 0A       		.byte	0xa
 589 01e3 B801     		.2byte	0x1b8
 590 01e5 14       		.uleb128 0x14
 591 01e6 01       		.byte	0x1
 592 01e7 50       		.byte	0x50
 593 01e8 05       		.byte	0x5
 594 01e9 03       		.byte	0x3
 595 01ea 00000000 		.4byte	.LANCHOR0
 596 01ee 00       		.byte	0
 597 01ef 00       		.byte	0
 598 01f0 15       		.uleb128 0x15
 599 01f1 74010000 		.4byte	0x174
 600 01f5 00000000 		.4byte	.LFB9
 601 01f9 6C010000 		.4byte	.LFE9
 602 01fd 21000000 		.4byte	.LLST1
 603 0201 01       		.byte	0x1
 604 0202 2A050000 		.4byte	0x52a
 605 0206 16       		.uleb128 0x16
 606 0207 81010000 		.4byte	0x181
 607 020b 41000000 		.4byte	.LLST2
 608 020f 17       		.uleb128 0x17
 609 0210 74010000 		.4byte	0x174
 610 0214 98000000 		.4byte	.LBB4
 611 0218 00000000 		.4byte	.Ldebug_ranges0+0
 612 021c 01       		.byte	0x1
 613 021d 47       		.byte	0x47
 614 021e 0F040000 		.4byte	0x40f
 615 0222 18       		.uleb128 0x18
 616 0223 18000000 		.4byte	.Ldebug_ranges0+0x18
 617 0227 16       		.uleb128 0x16
 618 0228 81010000 		.4byte	0x181
ARM GAS  C:\Users\jenny\AppData\Local\Temp\ccjGGfOi.s 			page 12


 619 022c 9D000000 		.4byte	.LLST3
 620 0230 19       		.uleb128 0x19
 621 0231 A0000000 		.4byte	.LVL21
 622 0235 BF050000 		.4byte	0x5bf
 623 0239 4D020000 		.4byte	0x24d
 624 023d 14       		.uleb128 0x14
 625 023e 01       		.byte	0x1
 626 023f 51       		.byte	0x51
 627 0240 02       		.byte	0x2
 628 0241 75       		.byte	0x75
 629 0242 00       		.sleb128 0
 630 0243 14       		.uleb128 0x14
 631 0244 01       		.byte	0x1
 632 0245 50       		.byte	0x50
 633 0246 05       		.byte	0x5
 634 0247 03       		.byte	0x3
 635 0248 00000000 		.4byte	.LANCHOR0
 636 024c 00       		.byte	0
 637 024d 19       		.uleb128 0x19
 638 024e A8000000 		.4byte	.LVL22
 639 0252 BF050000 		.4byte	0x5bf
 640 0256 6B020000 		.4byte	0x26b
 641 025a 14       		.uleb128 0x14
 642 025b 01       		.byte	0x1
 643 025c 51       		.byte	0x51
 644 025d 03       		.byte	0x3
 645 025e 74       		.byte	0x74
 646 025f 04       		.sleb128 4
 647 0260 06       		.byte	0x6
 648 0261 14       		.uleb128 0x14
 649 0262 01       		.byte	0x1
 650 0263 50       		.byte	0x50
 651 0264 05       		.byte	0x5
 652 0265 03       		.byte	0x3
 653 0266 00000000 		.4byte	.LANCHOR0
 654 026a 00       		.byte	0
 655 026b 19       		.uleb128 0x19
 656 026c B0000000 		.4byte	.LVL23
 657 0270 BF050000 		.4byte	0x5bf
 658 0274 89020000 		.4byte	0x289
 659 0278 14       		.uleb128 0x14
 660 0279 01       		.byte	0x1
 661 027a 51       		.byte	0x51
 662 027b 03       		.byte	0x3
 663 027c 74       		.byte	0x74
 664 027d 08       		.sleb128 8
 665 027e 06       		.byte	0x6
 666 027f 14       		.uleb128 0x14
 667 0280 01       		.byte	0x1
 668 0281 50       		.byte	0x50
 669 0282 05       		.byte	0x5
 670 0283 03       		.byte	0x3
 671 0284 00000000 		.4byte	.LANCHOR0
 672 0288 00       		.byte	0
 673 0289 19       		.uleb128 0x19
 674 028a B8000000 		.4byte	.LVL24
 675 028e BF050000 		.4byte	0x5bf
ARM GAS  C:\Users\jenny\AppData\Local\Temp\ccjGGfOi.s 			page 13


 676 0292 A7020000 		.4byte	0x2a7
 677 0296 14       		.uleb128 0x14
 678 0297 01       		.byte	0x1
 679 0298 51       		.byte	0x51
 680 0299 03       		.byte	0x3
 681 029a 74       		.byte	0x74
 682 029b 0C       		.sleb128 12
 683 029c 06       		.byte	0x6
 684 029d 14       		.uleb128 0x14
 685 029e 01       		.byte	0x1
 686 029f 50       		.byte	0x50
 687 02a0 05       		.byte	0x5
 688 02a1 03       		.byte	0x3
 689 02a2 00000000 		.4byte	.LANCHOR0
 690 02a6 00       		.byte	0
 691 02a7 19       		.uleb128 0x19
 692 02a8 C0000000 		.4byte	.LVL25
 693 02ac BF050000 		.4byte	0x5bf
 694 02b0 C5020000 		.4byte	0x2c5
 695 02b4 14       		.uleb128 0x14
 696 02b5 01       		.byte	0x1
 697 02b6 51       		.byte	0x51
 698 02b7 03       		.byte	0x3
 699 02b8 74       		.byte	0x74
 700 02b9 10       		.sleb128 16
 701 02ba 06       		.byte	0x6
 702 02bb 14       		.uleb128 0x14
 703 02bc 01       		.byte	0x1
 704 02bd 50       		.byte	0x50
 705 02be 05       		.byte	0x5
 706 02bf 03       		.byte	0x3
 707 02c0 00000000 		.4byte	.LANCHOR0
 708 02c4 00       		.byte	0
 709 02c5 19       		.uleb128 0x19
 710 02c6 C6000000 		.4byte	.LVL26
 711 02ca D8050000 		.4byte	0x5d8
 712 02ce DC020000 		.4byte	0x2dc
 713 02d2 14       		.uleb128 0x14
 714 02d3 01       		.byte	0x1
 715 02d4 50       		.byte	0x50
 716 02d5 05       		.byte	0x5
 717 02d6 03       		.byte	0x3
 718 02d7 00000000 		.4byte	.LANCHOR0
 719 02db 00       		.byte	0
 720 02dc 19       		.uleb128 0x19
 721 02dd D2000000 		.4byte	.LVL27
 722 02e1 F0050000 		.4byte	0x5f0
 723 02e5 EF020000 		.4byte	0x2ef
 724 02e9 14       		.uleb128 0x14
 725 02ea 01       		.byte	0x1
 726 02eb 50       		.byte	0x50
 727 02ec 01       		.byte	0x1
 728 02ed 33       		.byte	0x33
 729 02ee 00       		.byte	0
 730 02ef 19       		.uleb128 0x19
 731 02f0 DC000000 		.4byte	.LVL29
 732 02f4 D8050000 		.4byte	0x5d8
ARM GAS  C:\Users\jenny\AppData\Local\Temp\ccjGGfOi.s 			page 14


 733 02f8 06030000 		.4byte	0x306
 734 02fc 14       		.uleb128 0x14
 735 02fd 01       		.byte	0x1
 736 02fe 50       		.byte	0x50
 737 02ff 05       		.byte	0x5
 738 0300 03       		.byte	0x3
 739 0301 00000000 		.4byte	.LANCHOR0
 740 0305 00       		.byte	0
 741 0306 19       		.uleb128 0x19
 742 0307 E8000000 		.4byte	.LVL30
 743 030b F0050000 		.4byte	0x5f0
 744 030f 19030000 		.4byte	0x319
 745 0313 14       		.uleb128 0x14
 746 0314 01       		.byte	0x1
 747 0315 50       		.byte	0x50
 748 0316 01       		.byte	0x1
 749 0317 33       		.byte	0x33
 750 0318 00       		.byte	0
 751 0319 19       		.uleb128 0x19
 752 031a F0000000 		.4byte	.LVL32
 753 031e D8050000 		.4byte	0x5d8
 754 0322 30030000 		.4byte	0x330
 755 0326 14       		.uleb128 0x14
 756 0327 01       		.byte	0x1
 757 0328 50       		.byte	0x50
 758 0329 05       		.byte	0x5
 759 032a 03       		.byte	0x3
 760 032b 00000000 		.4byte	.LANCHOR0
 761 032f 00       		.byte	0
 762 0330 19       		.uleb128 0x19
 763 0331 FC000000 		.4byte	.LVL33
 764 0335 F0050000 		.4byte	0x5f0
 765 0339 43030000 		.4byte	0x343
 766 033d 14       		.uleb128 0x14
 767 033e 01       		.byte	0x1
 768 033f 50       		.byte	0x50
 769 0340 01       		.byte	0x1
 770 0341 33       		.byte	0x33
 771 0342 00       		.byte	0
 772 0343 19       		.uleb128 0x19
 773 0344 04010000 		.4byte	.LVL35
 774 0348 D8050000 		.4byte	0x5d8
 775 034c 5A030000 		.4byte	0x35a
 776 0350 14       		.uleb128 0x14
 777 0351 01       		.byte	0x1
 778 0352 50       		.byte	0x50
 779 0353 05       		.byte	0x5
 780 0354 03       		.byte	0x3
 781 0355 00000000 		.4byte	.LANCHOR0
 782 0359 00       		.byte	0
 783 035a 19       		.uleb128 0x19
 784 035b 10010000 		.4byte	.LVL36
 785 035f F0050000 		.4byte	0x5f0
 786 0363 6D030000 		.4byte	0x36d
 787 0367 14       		.uleb128 0x14
 788 0368 01       		.byte	0x1
 789 0369 50       		.byte	0x50
ARM GAS  C:\Users\jenny\AppData\Local\Temp\ccjGGfOi.s 			page 15


 790 036a 01       		.byte	0x1
 791 036b 33       		.byte	0x33
 792 036c 00       		.byte	0
 793 036d 19       		.uleb128 0x19
 794 036e 18010000 		.4byte	.LVL38
 795 0372 D8050000 		.4byte	0x5d8
 796 0376 84030000 		.4byte	0x384
 797 037a 14       		.uleb128 0x14
 798 037b 01       		.byte	0x1
 799 037c 50       		.byte	0x50
 800 037d 05       		.byte	0x5
 801 037e 03       		.byte	0x3
 802 037f 00000000 		.4byte	.LANCHOR0
 803 0383 00       		.byte	0
 804 0384 19       		.uleb128 0x19
 805 0385 24010000 		.4byte	.LVL39
 806 0389 F0050000 		.4byte	0x5f0
 807 038d 97030000 		.4byte	0x397
 808 0391 14       		.uleb128 0x14
 809 0392 01       		.byte	0x1
 810 0393 50       		.byte	0x50
 811 0394 01       		.byte	0x1
 812 0395 33       		.byte	0x33
 813 0396 00       		.byte	0
 814 0397 19       		.uleb128 0x19
 815 0398 2C010000 		.4byte	.LVL41
 816 039c D8050000 		.4byte	0x5d8
 817 03a0 AE030000 		.4byte	0x3ae
 818 03a4 14       		.uleb128 0x14
 819 03a5 01       		.byte	0x1
 820 03a6 50       		.byte	0x50
 821 03a7 05       		.byte	0x5
 822 03a8 03       		.byte	0x3
 823 03a9 00000000 		.4byte	.LANCHOR0
 824 03ad 00       		.byte	0
 825 03ae 19       		.uleb128 0x19
 826 03af 3A010000 		.4byte	.LVL42
 827 03b3 F0050000 		.4byte	0x5f0
 828 03b7 C1030000 		.4byte	0x3c1
 829 03bb 14       		.uleb128 0x14
 830 03bc 01       		.byte	0x1
 831 03bd 50       		.byte	0x50
 832 03be 01       		.byte	0x1
 833 03bf 34       		.byte	0x34
 834 03c0 00       		.byte	0
 835 03c1 19       		.uleb128 0x19
 836 03c2 48010000 		.4byte	.LVL45
 837 03c6 9B050000 		.4byte	0x59b
 838 03ca E6030000 		.4byte	0x3e6
 839 03ce 14       		.uleb128 0x14
 840 03cf 01       		.byte	0x1
 841 03d0 52       		.byte	0x52
 842 03d1 05       		.byte	0x5
 843 03d2 03       		.byte	0x3
 844 03d3 00000000 		.4byte	null_provider
 845 03d7 14       		.uleb128 0x14
 846 03d8 01       		.byte	0x1
ARM GAS  C:\Users\jenny\AppData\Local\Temp\ccjGGfOi.s 			page 16


 847 03d9 51       		.byte	0x51
 848 03da 01       		.byte	0x1
 849 03db 40       		.byte	0x40
 850 03dc 14       		.uleb128 0x14
 851 03dd 01       		.byte	0x1
 852 03de 50       		.byte	0x50
 853 03df 05       		.byte	0x5
 854 03e0 03       		.byte	0x3
 855 03e1 00000000 		.4byte	.LANCHOR0
 856 03e5 00       		.byte	0
 857 03e6 19       		.uleb128 0x19
 858 03e7 4E010000 		.4byte	.LVL46
 859 03eb D8050000 		.4byte	0x5d8
 860 03ef FD030000 		.4byte	0x3fd
 861 03f3 14       		.uleb128 0x14
 862 03f4 01       		.byte	0x1
 863 03f5 50       		.byte	0x50
 864 03f6 05       		.byte	0x5
 865 03f7 03       		.byte	0x3
 866 03f8 00000000 		.4byte	.LANCHOR0
 867 03fc 00       		.byte	0
 868 03fd 13       		.uleb128 0x13
 869 03fe 60010000 		.4byte	.LVL47
 870 0402 01       		.byte	0x1
 871 0403 F0050000 		.4byte	0x5f0
 872 0407 14       		.uleb128 0x14
 873 0408 01       		.byte	0x1
 874 0409 50       		.byte	0x50
 875 040a 01       		.byte	0x1
 876 040b 35       		.byte	0x35
 877 040c 00       		.byte	0
 878 040d 00       		.byte	0
 879 040e 00       		.byte	0
 880 040f 19       		.uleb128 0x19
 881 0410 10000000 		.4byte	.LVL3
 882 0414 0D060000 		.4byte	0x60d
 883 0418 31040000 		.4byte	0x431
 884 041c 14       		.uleb128 0x14
 885 041d 01       		.byte	0x1
 886 041e 52       		.byte	0x52
 887 041f 01       		.byte	0x1
 888 0420 35       		.byte	0x35
 889 0421 14       		.uleb128 0x14
 890 0422 01       		.byte	0x1
 891 0423 51       		.byte	0x51
 892 0424 02       		.byte	0x2
 893 0425 75       		.byte	0x75
 894 0426 00       		.sleb128 0
 895 0427 14       		.uleb128 0x14
 896 0428 01       		.byte	0x1
 897 0429 50       		.byte	0x50
 898 042a 05       		.byte	0x5
 899 042b 03       		.byte	0x3
 900 042c 00000000 		.4byte	.LANCHOR0
 901 0430 00       		.byte	0
 902 0431 19       		.uleb128 0x19
 903 0432 16000000 		.4byte	.LVL4
ARM GAS  C:\Users\jenny\AppData\Local\Temp\ccjGGfOi.s 			page 17


 904 0436 D8050000 		.4byte	0x5d8
 905 043a 48040000 		.4byte	0x448
 906 043e 14       		.uleb128 0x14
 907 043f 01       		.byte	0x1
 908 0440 50       		.byte	0x50
 909 0441 05       		.byte	0x5
 910 0442 03       		.byte	0x3
 911 0443 00000000 		.4byte	.LANCHOR0
 912 0447 00       		.byte	0
 913 0448 19       		.uleb128 0x19
 914 0449 22000000 		.4byte	.LVL5
 915 044d F0050000 		.4byte	0x5f0
 916 0451 5B040000 		.4byte	0x45b
 917 0455 14       		.uleb128 0x14
 918 0456 01       		.byte	0x1
 919 0457 50       		.byte	0x50
 920 0458 01       		.byte	0x1
 921 0459 31       		.byte	0x31
 922 045a 00       		.byte	0
 923 045b 19       		.uleb128 0x19
 924 045c 2E000000 		.4byte	.LVL7
 925 0460 D8050000 		.4byte	0x5d8
 926 0464 72040000 		.4byte	0x472
 927 0468 14       		.uleb128 0x14
 928 0469 01       		.byte	0x1
 929 046a 50       		.byte	0x50
 930 046b 05       		.byte	0x5
 931 046c 03       		.byte	0x3
 932 046d 00000000 		.4byte	.LANCHOR0
 933 0471 00       		.byte	0
 934 0472 19       		.uleb128 0x19
 935 0473 3A000000 		.4byte	.LVL8
 936 0477 F0050000 		.4byte	0x5f0
 937 047b 85040000 		.4byte	0x485
 938 047f 14       		.uleb128 0x14
 939 0480 01       		.byte	0x1
 940 0481 50       		.byte	0x50
 941 0482 01       		.byte	0x1
 942 0483 31       		.byte	0x31
 943 0484 00       		.byte	0
 944 0485 19       		.uleb128 0x19
 945 0486 44000000 		.4byte	.LVL10
 946 048a D8050000 		.4byte	0x5d8
 947 048e 9C040000 		.4byte	0x49c
 948 0492 14       		.uleb128 0x14
 949 0493 01       		.byte	0x1
 950 0494 50       		.byte	0x50
 951 0495 05       		.byte	0x5
 952 0496 03       		.byte	0x3
 953 0497 00000000 		.4byte	.LANCHOR0
 954 049b 00       		.byte	0
 955 049c 19       		.uleb128 0x19
 956 049d 50000000 		.4byte	.LVL11
 957 04a1 F0050000 		.4byte	0x5f0
 958 04a5 AF040000 		.4byte	0x4af
 959 04a9 14       		.uleb128 0x14
 960 04aa 01       		.byte	0x1
ARM GAS  C:\Users\jenny\AppData\Local\Temp\ccjGGfOi.s 			page 18


 961 04ab 50       		.byte	0x50
 962 04ac 01       		.byte	0x1
 963 04ad 31       		.byte	0x31
 964 04ae 00       		.byte	0
 965 04af 19       		.uleb128 0x19
 966 04b0 5A000000 		.4byte	.LVL13
 967 04b4 D8050000 		.4byte	0x5d8
 968 04b8 C6040000 		.4byte	0x4c6
 969 04bc 14       		.uleb128 0x14
 970 04bd 01       		.byte	0x1
 971 04be 50       		.byte	0x50
 972 04bf 05       		.byte	0x5
 973 04c0 03       		.byte	0x3
 974 04c1 00000000 		.4byte	.LANCHOR0
 975 04c5 00       		.byte	0
 976 04c6 19       		.uleb128 0x19
 977 04c7 66000000 		.4byte	.LVL14
 978 04cb F0050000 		.4byte	0x5f0
 979 04cf D9040000 		.4byte	0x4d9
 980 04d3 14       		.uleb128 0x14
 981 04d4 01       		.byte	0x1
 982 04d5 50       		.byte	0x50
 983 04d6 01       		.byte	0x1
 984 04d7 31       		.byte	0x31
 985 04d8 00       		.byte	0
 986 04d9 19       		.uleb128 0x19
 987 04da 70000000 		.4byte	.LVL16
 988 04de D8050000 		.4byte	0x5d8
 989 04e2 F0040000 		.4byte	0x4f0
 990 04e6 14       		.uleb128 0x14
 991 04e7 01       		.byte	0x1
 992 04e8 50       		.byte	0x50
 993 04e9 05       		.byte	0x5
 994 04ea 03       		.byte	0x3
 995 04eb 00000000 		.4byte	.LANCHOR0
 996 04ef 00       		.byte	0
 997 04f0 19       		.uleb128 0x19
 998 04f1 7C000000 		.4byte	.LVL17
 999 04f5 F0050000 		.4byte	0x5f0
 1000 04f9 03050000 		.4byte	0x503
 1001 04fd 14       		.uleb128 0x14
 1002 04fe 01       		.byte	0x1
 1003 04ff 50       		.byte	0x50
 1004 0500 01       		.byte	0x1
 1005 0501 31       		.byte	0x31
 1006 0502 00       		.byte	0
 1007 0503 19       		.uleb128 0x19
 1008 0504 86000000 		.4byte	.LVL19
 1009 0508 D8050000 		.4byte	0x5d8
 1010 050c 1A050000 		.4byte	0x51a
 1011 0510 14       		.uleb128 0x14
 1012 0511 01       		.byte	0x1
 1013 0512 50       		.byte	0x50
 1014 0513 05       		.byte	0x5
 1015 0514 03       		.byte	0x3
 1016 0515 00000000 		.4byte	.LANCHOR0
 1017 0519 00       		.byte	0
ARM GAS  C:\Users\jenny\AppData\Local\Temp\ccjGGfOi.s 			page 19


 1018 051a 1A       		.uleb128 0x1a
 1019 051b 94000000 		.4byte	.LVL20
 1020 051f F0050000 		.4byte	0x5f0
 1021 0523 14       		.uleb128 0x14
 1022 0524 01       		.byte	0x1
 1023 0525 50       		.byte	0x50
 1024 0526 01       		.byte	0x1
 1025 0527 32       		.byte	0x32
 1026 0528 00       		.byte	0
 1027 0529 00       		.byte	0
 1028 052a 1B       		.uleb128 0x1b
 1029 052b 6D703100 		.ascii	"mp1\000"
 1030 052f 01       		.byte	0x1
 1031 0530 31       		.byte	0x31
 1032 0531 0A010000 		.4byte	0x10a
 1033 0535 05       		.byte	0x5
 1034 0536 03       		.byte	0x3
 1035 0537 00000000 		.4byte	mp1
 1036 053b 1C       		.uleb128 0x1c
 1037 053c 8C000000 		.4byte	0x8c
 1038 0540 46050000 		.4byte	0x546
 1039 0544 1D       		.uleb128 0x1d
 1040 0545 00       		.byte	0
 1041 0546 1E       		.uleb128 0x1e
 1042 0547 776100   		.ascii	"wa\000"
 1043 054a 06       		.byte	0x6
 1044 054b A7       		.byte	0xa7
 1045 054c 52050000 		.4byte	0x552
 1046 0550 01       		.byte	0x1
 1047 0551 01       		.byte	0x1
 1048 0552 0C       		.uleb128 0xc
 1049 0553 3B050000 		.4byte	0x53b
 1050 0557 1F       		.uleb128 0x1f
 1051 0558 6D010000 		.4byte	.LASF26
 1052 055c 01       		.byte	0x1
 1053 055d 64       		.byte	0x64
 1054 055e 69050000 		.4byte	0x569
 1055 0562 01       		.byte	0x1
 1056 0563 05       		.byte	0x5
 1057 0564 03       		.byte	0x3
 1058 0565 00000000 		.4byte	testpools1
 1059 0569 0C       		.uleb128 0xc
 1060 056a 27010000 		.4byte	0x127
 1061 056e 1C       		.uleb128 0x1c
 1062 056f 7E050000 		.4byte	0x57e
 1063 0573 7E050000 		.4byte	0x57e
 1064 0577 20       		.uleb128 0x20
 1065 0578 8E000000 		.4byte	0x8e
 1066 057c 01       		.byte	0x1
 1067 057d 00       		.byte	0
 1068 057e 06       		.uleb128 0x6
 1069 057f 04       		.byte	0x4
 1070 0580 69050000 		.4byte	0x569
 1071 0584 1F       		.uleb128 0x1f
 1072 0585 35020000 		.4byte	.LASF27
 1073 0589 01       		.byte	0x1
 1074 058a 70       		.byte	0x70
ARM GAS  C:\Users\jenny\AppData\Local\Temp\ccjGGfOi.s 			page 20


 1075 058b 96050000 		.4byte	0x596
 1076 058f 01       		.byte	0x1
 1077 0590 05       		.byte	0x5
 1078 0591 03       		.byte	0x3
 1079 0592 00000000 		.4byte	patternpools
 1080 0596 0C       		.uleb128 0xc
 1081 0597 6E050000 		.4byte	0x56e
 1082 059b 21       		.uleb128 0x21
 1083 059c 01       		.byte	0x1
 1084 059d 48020000 		.4byte	.LASF28
 1085 05a1 05       		.byte	0x5
 1086 05a2 7F       		.byte	0x7f
 1087 05a3 01       		.byte	0x1
 1088 05a4 01       		.byte	0x1
 1089 05a5 B9050000 		.4byte	0x5b9
 1090 05a9 08       		.uleb128 0x8
 1091 05aa B9050000 		.4byte	0x5b9
 1092 05ae 08       		.uleb128 0x8
 1093 05af 30000000 		.4byte	0x30
 1094 05b3 08       		.uleb128 0x8
 1095 05b4 95000000 		.4byte	0x95
 1096 05b8 00       		.byte	0
 1097 05b9 06       		.uleb128 0x6
 1098 05ba 04       		.byte	0x4
 1099 05bb 0A010000 		.4byte	0x10a
 1100 05bf 21       		.uleb128 0x21
 1101 05c0 01       		.byte	0x1
 1102 05c1 57010000 		.4byte	.LASF29
 1103 05c5 05       		.byte	0x5
 1104 05c6 84       		.byte	0x84
 1105 05c7 01       		.byte	0x1
 1106 05c8 01       		.byte	0x1
 1107 05c9 D8050000 		.4byte	0x5d8
 1108 05cd 08       		.uleb128 0x8
 1109 05ce B9050000 		.4byte	0x5b9
 1110 05d2 08       		.uleb128 0x8
 1111 05d3 8C000000 		.4byte	0x8c
 1112 05d7 00       		.byte	0
 1113 05d8 22       		.uleb128 0x22
 1114 05d9 01       		.byte	0x1
 1115 05da 07020000 		.4byte	.LASF30
 1116 05de 05       		.byte	0x5
 1117 05df 82       		.byte	0x82
 1118 05e0 01       		.byte	0x1
 1119 05e1 8C000000 		.4byte	0x8c
 1120 05e5 01       		.byte	0x1
 1121 05e6 F0050000 		.4byte	0x5f0
 1122 05ea 08       		.uleb128 0x8
 1123 05eb B9050000 		.4byte	0x5b9
 1124 05ef 00       		.byte	0
 1125 05f0 22       		.uleb128 0x22
 1126 05f1 01       		.byte	0x1
 1127 05f2 A4010000 		.4byte	.LASF31
 1128 05f6 06       		.byte	0x6
 1129 05f7 58       		.byte	0x58
 1130 05f8 01       		.byte	0x1
 1131 05f9 7A000000 		.4byte	0x7a
ARM GAS  C:\Users\jenny\AppData\Local\Temp\ccjGGfOi.s 			page 21


 1132 05fd 01       		.byte	0x1
 1133 05fe 0D060000 		.4byte	0x60d
 1134 0602 08       		.uleb128 0x8
 1135 0603 3B000000 		.4byte	0x3b
 1136 0607 08       		.uleb128 0x8
 1137 0608 7A000000 		.4byte	0x7a
 1138 060c 00       		.byte	0
 1139 060d 23       		.uleb128 0x23
 1140 060e 01       		.byte	0x1
 1141 060f 5C000000 		.4byte	.LASF39
 1142 0613 05       		.byte	0x5
 1143 0614 80       		.byte	0x80
 1144 0615 01       		.byte	0x1
 1145 0616 01       		.byte	0x1
 1146 0617 08       		.uleb128 0x8
 1147 0618 B9050000 		.4byte	0x5b9
 1148 061c 08       		.uleb128 0x8
 1149 061d 8C000000 		.4byte	0x8c
 1150 0621 08       		.uleb128 0x8
 1151 0622 30000000 		.4byte	0x30
 1152 0626 00       		.byte	0
 1153 0627 00       		.byte	0
 1154              		.section	.debug_abbrev,"",%progbits
 1155              	.Ldebug_abbrev0:
 1156 0000 01       		.uleb128 0x1
 1157 0001 11       		.uleb128 0x11
 1158 0002 01       		.byte	0x1
 1159 0003 25       		.uleb128 0x25
 1160 0004 0E       		.uleb128 0xe
 1161 0005 13       		.uleb128 0x13
 1162 0006 0B       		.uleb128 0xb
 1163 0007 03       		.uleb128 0x3
 1164 0008 0E       		.uleb128 0xe
 1165 0009 1B       		.uleb128 0x1b
 1166 000a 0E       		.uleb128 0xe
 1167 000b 55       		.uleb128 0x55
 1168 000c 06       		.uleb128 0x6
 1169 000d 11       		.uleb128 0x11
 1170 000e 01       		.uleb128 0x1
 1171 000f 52       		.uleb128 0x52
 1172 0010 01       		.uleb128 0x1
 1173 0011 10       		.uleb128 0x10
 1174 0012 06       		.uleb128 0x6
 1175 0013 00       		.byte	0
 1176 0014 00       		.byte	0
 1177 0015 02       		.uleb128 0x2
 1178 0016 24       		.uleb128 0x24
 1179 0017 00       		.byte	0
 1180 0018 0B       		.uleb128 0xb
 1181 0019 0B       		.uleb128 0xb
 1182 001a 3E       		.uleb128 0x3e
 1183 001b 0B       		.uleb128 0xb
 1184 001c 03       		.uleb128 0x3
 1185 001d 08       		.uleb128 0x8
 1186 001e 00       		.byte	0
 1187 001f 00       		.byte	0
 1188 0020 03       		.uleb128 0x3
ARM GAS  C:\Users\jenny\AppData\Local\Temp\ccjGGfOi.s 			page 22


 1189 0021 16       		.uleb128 0x16
 1190 0022 00       		.byte	0
 1191 0023 03       		.uleb128 0x3
 1192 0024 0E       		.uleb128 0xe
 1193 0025 3A       		.uleb128 0x3a
 1194 0026 0B       		.uleb128 0xb
 1195 0027 3B       		.uleb128 0x3b
 1196 0028 0B       		.uleb128 0xb
 1197 0029 49       		.uleb128 0x49
 1198 002a 13       		.uleb128 0x13
 1199 002b 00       		.byte	0
 1200 002c 00       		.byte	0
 1201 002d 04       		.uleb128 0x4
 1202 002e 24       		.uleb128 0x24
 1203 002f 00       		.byte	0
 1204 0030 0B       		.uleb128 0xb
 1205 0031 0B       		.uleb128 0xb
 1206 0032 3E       		.uleb128 0x3e
 1207 0033 0B       		.uleb128 0xb
 1208 0034 03       		.uleb128 0x3
 1209 0035 0E       		.uleb128 0xe
 1210 0036 00       		.byte	0
 1211 0037 00       		.byte	0
 1212 0038 05       		.uleb128 0x5
 1213 0039 0F       		.uleb128 0xf
 1214 003a 00       		.byte	0
 1215 003b 0B       		.uleb128 0xb
 1216 003c 0B       		.uleb128 0xb
 1217 003d 00       		.byte	0
 1218 003e 00       		.byte	0
 1219 003f 06       		.uleb128 0x6
 1220 0040 0F       		.uleb128 0xf
 1221 0041 00       		.byte	0
 1222 0042 0B       		.uleb128 0xb
 1223 0043 0B       		.uleb128 0xb
 1224 0044 49       		.uleb128 0x49
 1225 0045 13       		.uleb128 0x13
 1226 0046 00       		.byte	0
 1227 0047 00       		.byte	0
 1228 0048 07       		.uleb128 0x7
 1229 0049 15       		.uleb128 0x15
 1230 004a 01       		.byte	0x1
 1231 004b 27       		.uleb128 0x27
 1232 004c 0C       		.uleb128 0xc
 1233 004d 49       		.uleb128 0x49
 1234 004e 13       		.uleb128 0x13
 1235 004f 01       		.uleb128 0x1
 1236 0050 13       		.uleb128 0x13
 1237 0051 00       		.byte	0
 1238 0052 00       		.byte	0
 1239 0053 08       		.uleb128 0x8
 1240 0054 05       		.uleb128 0x5
 1241 0055 00       		.byte	0
 1242 0056 49       		.uleb128 0x49
 1243 0057 13       		.uleb128 0x13
 1244 0058 00       		.byte	0
 1245 0059 00       		.byte	0
ARM GAS  C:\Users\jenny\AppData\Local\Temp\ccjGGfOi.s 			page 23


 1246 005a 09       		.uleb128 0x9
 1247 005b 13       		.uleb128 0x13
 1248 005c 01       		.byte	0x1
 1249 005d 03       		.uleb128 0x3
 1250 005e 0E       		.uleb128 0xe
 1251 005f 0B       		.uleb128 0xb
 1252 0060 0B       		.uleb128 0xb
 1253 0061 3A       		.uleb128 0x3a
 1254 0062 0B       		.uleb128 0xb
 1255 0063 3B       		.uleb128 0x3b
 1256 0064 0B       		.uleb128 0xb
 1257 0065 01       		.uleb128 0x1
 1258 0066 13       		.uleb128 0x13
 1259 0067 00       		.byte	0
 1260 0068 00       		.byte	0
 1261 0069 0A       		.uleb128 0xa
 1262 006a 0D       		.uleb128 0xd
 1263 006b 00       		.byte	0
 1264 006c 03       		.uleb128 0x3
 1265 006d 0E       		.uleb128 0xe
 1266 006e 3A       		.uleb128 0x3a
 1267 006f 0B       		.uleb128 0xb
 1268 0070 3B       		.uleb128 0x3b
 1269 0071 0B       		.uleb128 0xb
 1270 0072 49       		.uleb128 0x49
 1271 0073 13       		.uleb128 0x13
 1272 0074 38       		.uleb128 0x38
 1273 0075 0A       		.uleb128 0xa
 1274 0076 00       		.byte	0
 1275 0077 00       		.byte	0
 1276 0078 0B       		.uleb128 0xb
 1277 0079 13       		.uleb128 0x13
 1278 007a 01       		.byte	0x1
 1279 007b 0B       		.uleb128 0xb
 1280 007c 0B       		.uleb128 0xb
 1281 007d 3A       		.uleb128 0x3a
 1282 007e 0B       		.uleb128 0xb
 1283 007f 3B       		.uleb128 0x3b
 1284 0080 0B       		.uleb128 0xb
 1285 0081 01       		.uleb128 0x1
 1286 0082 13       		.uleb128 0x13
 1287 0083 00       		.byte	0
 1288 0084 00       		.byte	0
 1289 0085 0C       		.uleb128 0xc
 1290 0086 26       		.uleb128 0x26
 1291 0087 00       		.byte	0
 1292 0088 49       		.uleb128 0x49
 1293 0089 13       		.uleb128 0x13
 1294 008a 00       		.byte	0
 1295 008b 00       		.byte	0
 1296 008c 0D       		.uleb128 0xd
 1297 008d 15       		.uleb128 0x15
 1298 008e 00       		.byte	0
 1299 008f 27       		.uleb128 0x27
 1300 0090 0C       		.uleb128 0xc
 1301 0091 00       		.byte	0
 1302 0092 00       		.byte	0
ARM GAS  C:\Users\jenny\AppData\Local\Temp\ccjGGfOi.s 			page 24


 1303 0093 0E       		.uleb128 0xe
 1304 0094 2E       		.uleb128 0x2e
 1305 0095 01       		.byte	0x1
 1306 0096 03       		.uleb128 0x3
 1307 0097 0E       		.uleb128 0xe
 1308 0098 3A       		.uleb128 0x3a
 1309 0099 0B       		.uleb128 0xb
 1310 009a 3B       		.uleb128 0x3b
 1311 009b 0B       		.uleb128 0xb
 1312 009c 27       		.uleb128 0x27
 1313 009d 0C       		.uleb128 0xc
 1314 009e 20       		.uleb128 0x20
 1315 009f 0B       		.uleb128 0xb
 1316 00a0 01       		.uleb128 0x1
 1317 00a1 13       		.uleb128 0x13
 1318 00a2 00       		.byte	0
 1319 00a3 00       		.byte	0
 1320 00a4 0F       		.uleb128 0xf
 1321 00a5 34       		.uleb128 0x34
 1322 00a6 00       		.byte	0
 1323 00a7 03       		.uleb128 0x3
 1324 00a8 08       		.uleb128 0x8
 1325 00a9 3A       		.uleb128 0x3a
 1326 00aa 0B       		.uleb128 0xb
 1327 00ab 3B       		.uleb128 0x3b
 1328 00ac 0B       		.uleb128 0xb
 1329 00ad 49       		.uleb128 0x49
 1330 00ae 13       		.uleb128 0x13
 1331 00af 00       		.byte	0
 1332 00b0 00       		.byte	0
 1333 00b1 10       		.uleb128 0x10
 1334 00b2 2E       		.uleb128 0x2e
 1335 00b3 01       		.byte	0x1
 1336 00b4 03       		.uleb128 0x3
 1337 00b5 0E       		.uleb128 0xe
 1338 00b6 3A       		.uleb128 0x3a
 1339 00b7 0B       		.uleb128 0xb
 1340 00b8 3B       		.uleb128 0x3b
 1341 00b9 0B       		.uleb128 0xb
 1342 00ba 27       		.uleb128 0x27
 1343 00bb 0C       		.uleb128 0xc
 1344 00bc 49       		.uleb128 0x49
 1345 00bd 13       		.uleb128 0x13
 1346 00be 11       		.uleb128 0x11
 1347 00bf 01       		.uleb128 0x1
 1348 00c0 12       		.uleb128 0x12
 1349 00c1 01       		.uleb128 0x1
 1350 00c2 40       		.uleb128 0x40
 1351 00c3 0A       		.uleb128 0xa
 1352 00c4 9742     		.uleb128 0x2117
 1353 00c6 0C       		.uleb128 0xc
 1354 00c7 01       		.uleb128 0x1
 1355 00c8 13       		.uleb128 0x13
 1356 00c9 00       		.byte	0
 1357 00ca 00       		.byte	0
 1358 00cb 11       		.uleb128 0x11
 1359 00cc 05       		.uleb128 0x5
ARM GAS  C:\Users\jenny\AppData\Local\Temp\ccjGGfOi.s 			page 25


 1360 00cd 00       		.byte	0
 1361 00ce 03       		.uleb128 0x3
 1362 00cf 0E       		.uleb128 0xe
 1363 00d0 3A       		.uleb128 0x3a
 1364 00d1 0B       		.uleb128 0xb
 1365 00d2 3B       		.uleb128 0x3b
 1366 00d3 0B       		.uleb128 0xb
 1367 00d4 49       		.uleb128 0x49
 1368 00d5 13       		.uleb128 0x13
 1369 00d6 02       		.uleb128 0x2
 1370 00d7 06       		.uleb128 0x6
 1371 00d8 00       		.byte	0
 1372 00d9 00       		.byte	0
 1373 00da 12       		.uleb128 0x12
 1374 00db 2E       		.uleb128 0x2e
 1375 00dc 01       		.byte	0x1
 1376 00dd 03       		.uleb128 0x3
 1377 00de 0E       		.uleb128 0xe
 1378 00df 3A       		.uleb128 0x3a
 1379 00e0 0B       		.uleb128 0xb
 1380 00e1 3B       		.uleb128 0x3b
 1381 00e2 0B       		.uleb128 0xb
 1382 00e3 27       		.uleb128 0x27
 1383 00e4 0C       		.uleb128 0xc
 1384 00e5 11       		.uleb128 0x11
 1385 00e6 01       		.uleb128 0x1
 1386 00e7 12       		.uleb128 0x12
 1387 00e8 01       		.uleb128 0x1
 1388 00e9 40       		.uleb128 0x40
 1389 00ea 0A       		.uleb128 0xa
 1390 00eb 9742     		.uleb128 0x2117
 1391 00ed 0C       		.uleb128 0xc
 1392 00ee 01       		.uleb128 0x1
 1393 00ef 13       		.uleb128 0x13
 1394 00f0 00       		.byte	0
 1395 00f1 00       		.byte	0
 1396 00f2 13       		.uleb128 0x13
 1397 00f3 898201   		.uleb128 0x4109
 1398 00f6 01       		.byte	0x1
 1399 00f7 11       		.uleb128 0x11
 1400 00f8 01       		.uleb128 0x1
 1401 00f9 9542     		.uleb128 0x2115
 1402 00fb 0C       		.uleb128 0xc
 1403 00fc 31       		.uleb128 0x31
 1404 00fd 13       		.uleb128 0x13
 1405 00fe 00       		.byte	0
 1406 00ff 00       		.byte	0
 1407 0100 14       		.uleb128 0x14
 1408 0101 8A8201   		.uleb128 0x410a
 1409 0104 00       		.byte	0
 1410 0105 02       		.uleb128 0x2
 1411 0106 0A       		.uleb128 0xa
 1412 0107 9142     		.uleb128 0x2111
 1413 0109 0A       		.uleb128 0xa
 1414 010a 00       		.byte	0
 1415 010b 00       		.byte	0
 1416 010c 15       		.uleb128 0x15
ARM GAS  C:\Users\jenny\AppData\Local\Temp\ccjGGfOi.s 			page 26


 1417 010d 2E       		.uleb128 0x2e
 1418 010e 01       		.byte	0x1
 1419 010f 31       		.uleb128 0x31
 1420 0110 13       		.uleb128 0x13
 1421 0111 11       		.uleb128 0x11
 1422 0112 01       		.uleb128 0x1
 1423 0113 12       		.uleb128 0x12
 1424 0114 01       		.uleb128 0x1
 1425 0115 40       		.uleb128 0x40
 1426 0116 06       		.uleb128 0x6
 1427 0117 9742     		.uleb128 0x2117
 1428 0119 0C       		.uleb128 0xc
 1429 011a 01       		.uleb128 0x1
 1430 011b 13       		.uleb128 0x13
 1431 011c 00       		.byte	0
 1432 011d 00       		.byte	0
 1433 011e 16       		.uleb128 0x16
 1434 011f 34       		.uleb128 0x34
 1435 0120 00       		.byte	0
 1436 0121 31       		.uleb128 0x31
 1437 0122 13       		.uleb128 0x13
 1438 0123 02       		.uleb128 0x2
 1439 0124 06       		.uleb128 0x6
 1440 0125 00       		.byte	0
 1441 0126 00       		.byte	0
 1442 0127 17       		.uleb128 0x17
 1443 0128 1D       		.uleb128 0x1d
 1444 0129 01       		.byte	0x1
 1445 012a 31       		.uleb128 0x31
 1446 012b 13       		.uleb128 0x13
 1447 012c 52       		.uleb128 0x52
 1448 012d 01       		.uleb128 0x1
 1449 012e 55       		.uleb128 0x55
 1450 012f 06       		.uleb128 0x6
 1451 0130 58       		.uleb128 0x58
 1452 0131 0B       		.uleb128 0xb
 1453 0132 59       		.uleb128 0x59
 1454 0133 0B       		.uleb128 0xb
 1455 0134 01       		.uleb128 0x1
 1456 0135 13       		.uleb128 0x13
 1457 0136 00       		.byte	0
 1458 0137 00       		.byte	0
 1459 0138 18       		.uleb128 0x18
 1460 0139 0B       		.uleb128 0xb
 1461 013a 01       		.byte	0x1
 1462 013b 55       		.uleb128 0x55
 1463 013c 06       		.uleb128 0x6
 1464 013d 00       		.byte	0
 1465 013e 00       		.byte	0
 1466 013f 19       		.uleb128 0x19
 1467 0140 898201   		.uleb128 0x4109
 1468 0143 01       		.byte	0x1
 1469 0144 11       		.uleb128 0x11
 1470 0145 01       		.uleb128 0x1
 1471 0146 31       		.uleb128 0x31
 1472 0147 13       		.uleb128 0x13
 1473 0148 01       		.uleb128 0x1
ARM GAS  C:\Users\jenny\AppData\Local\Temp\ccjGGfOi.s 			page 27


 1474 0149 13       		.uleb128 0x13
 1475 014a 00       		.byte	0
 1476 014b 00       		.byte	0
 1477 014c 1A       		.uleb128 0x1a
 1478 014d 898201   		.uleb128 0x4109
 1479 0150 01       		.byte	0x1
 1480 0151 11       		.uleb128 0x11
 1481 0152 01       		.uleb128 0x1
 1482 0153 31       		.uleb128 0x31
 1483 0154 13       		.uleb128 0x13
 1484 0155 00       		.byte	0
 1485 0156 00       		.byte	0
 1486 0157 1B       		.uleb128 0x1b
 1487 0158 34       		.uleb128 0x34
 1488 0159 00       		.byte	0
 1489 015a 03       		.uleb128 0x3
 1490 015b 08       		.uleb128 0x8
 1491 015c 3A       		.uleb128 0x3a
 1492 015d 0B       		.uleb128 0xb
 1493 015e 3B       		.uleb128 0x3b
 1494 015f 0B       		.uleb128 0xb
 1495 0160 49       		.uleb128 0x49
 1496 0161 13       		.uleb128 0x13
 1497 0162 02       		.uleb128 0x2
 1498 0163 0A       		.uleb128 0xa
 1499 0164 00       		.byte	0
 1500 0165 00       		.byte	0
 1501 0166 1C       		.uleb128 0x1c
 1502 0167 01       		.uleb128 0x1
 1503 0168 01       		.byte	0x1
 1504 0169 49       		.uleb128 0x49
 1505 016a 13       		.uleb128 0x13
 1506 016b 01       		.uleb128 0x1
 1507 016c 13       		.uleb128 0x13
 1508 016d 00       		.byte	0
 1509 016e 00       		.byte	0
 1510 016f 1D       		.uleb128 0x1d
 1511 0170 21       		.uleb128 0x21
 1512 0171 00       		.byte	0
 1513 0172 00       		.byte	0
 1514 0173 00       		.byte	0
 1515 0174 1E       		.uleb128 0x1e
 1516 0175 34       		.uleb128 0x34
 1517 0176 00       		.byte	0
 1518 0177 03       		.uleb128 0x3
 1519 0178 08       		.uleb128 0x8
 1520 0179 3A       		.uleb128 0x3a
 1521 017a 0B       		.uleb128 0xb
 1522 017b 3B       		.uleb128 0x3b
 1523 017c 0B       		.uleb128 0xb
 1524 017d 49       		.uleb128 0x49
 1525 017e 13       		.uleb128 0x13
 1526 017f 3F       		.uleb128 0x3f
 1527 0180 0C       		.uleb128 0xc
 1528 0181 3C       		.uleb128 0x3c
 1529 0182 0C       		.uleb128 0xc
 1530 0183 00       		.byte	0
ARM GAS  C:\Users\jenny\AppData\Local\Temp\ccjGGfOi.s 			page 28


 1531 0184 00       		.byte	0
 1532 0185 1F       		.uleb128 0x1f
 1533 0186 34       		.uleb128 0x34
 1534 0187 00       		.byte	0
 1535 0188 03       		.uleb128 0x3
 1536 0189 0E       		.uleb128 0xe
 1537 018a 3A       		.uleb128 0x3a
 1538 018b 0B       		.uleb128 0xb
 1539 018c 3B       		.uleb128 0x3b
 1540 018d 0B       		.uleb128 0xb
 1541 018e 49       		.uleb128 0x49
 1542 018f 13       		.uleb128 0x13
 1543 0190 3F       		.uleb128 0x3f
 1544 0191 0C       		.uleb128 0xc
 1545 0192 02       		.uleb128 0x2
 1546 0193 0A       		.uleb128 0xa
 1547 0194 00       		.byte	0
 1548 0195 00       		.byte	0
 1549 0196 20       		.uleb128 0x20
 1550 0197 21       		.uleb128 0x21
 1551 0198 00       		.byte	0
 1552 0199 49       		.uleb128 0x49
 1553 019a 13       		.uleb128 0x13
 1554 019b 2F       		.uleb128 0x2f
 1555 019c 0B       		.uleb128 0xb
 1556 019d 00       		.byte	0
 1557 019e 00       		.byte	0
 1558 019f 21       		.uleb128 0x21
 1559 01a0 2E       		.uleb128 0x2e
 1560 01a1 01       		.byte	0x1
 1561 01a2 3F       		.uleb128 0x3f
 1562 01a3 0C       		.uleb128 0xc
 1563 01a4 03       		.uleb128 0x3
 1564 01a5 0E       		.uleb128 0xe
 1565 01a6 3A       		.uleb128 0x3a
 1566 01a7 0B       		.uleb128 0xb
 1567 01a8 3B       		.uleb128 0x3b
 1568 01a9 0B       		.uleb128 0xb
 1569 01aa 27       		.uleb128 0x27
 1570 01ab 0C       		.uleb128 0xc
 1571 01ac 3C       		.uleb128 0x3c
 1572 01ad 0C       		.uleb128 0xc
 1573 01ae 01       		.uleb128 0x1
 1574 01af 13       		.uleb128 0x13
 1575 01b0 00       		.byte	0
 1576 01b1 00       		.byte	0
 1577 01b2 22       		.uleb128 0x22
 1578 01b3 2E       		.uleb128 0x2e
 1579 01b4 01       		.byte	0x1
 1580 01b5 3F       		.uleb128 0x3f
 1581 01b6 0C       		.uleb128 0xc
 1582 01b7 03       		.uleb128 0x3
 1583 01b8 0E       		.uleb128 0xe
 1584 01b9 3A       		.uleb128 0x3a
 1585 01ba 0B       		.uleb128 0xb
 1586 01bb 3B       		.uleb128 0x3b
 1587 01bc 0B       		.uleb128 0xb
ARM GAS  C:\Users\jenny\AppData\Local\Temp\ccjGGfOi.s 			page 29


 1588 01bd 27       		.uleb128 0x27
 1589 01be 0C       		.uleb128 0xc
 1590 01bf 49       		.uleb128 0x49
 1591 01c0 13       		.uleb128 0x13
 1592 01c1 3C       		.uleb128 0x3c
 1593 01c2 0C       		.uleb128 0xc
 1594 01c3 01       		.uleb128 0x1
 1595 01c4 13       		.uleb128 0x13
 1596 01c5 00       		.byte	0
 1597 01c6 00       		.byte	0
 1598 01c7 23       		.uleb128 0x23
 1599 01c8 2E       		.uleb128 0x2e
 1600 01c9 01       		.byte	0x1
 1601 01ca 3F       		.uleb128 0x3f
 1602 01cb 0C       		.uleb128 0xc
 1603 01cc 03       		.uleb128 0x3
 1604 01cd 0E       		.uleb128 0xe
 1605 01ce 3A       		.uleb128 0x3a
 1606 01cf 0B       		.uleb128 0xb
 1607 01d0 3B       		.uleb128 0x3b
 1608 01d1 0B       		.uleb128 0xb
 1609 01d2 27       		.uleb128 0x27
 1610 01d3 0C       		.uleb128 0xc
 1611 01d4 3C       		.uleb128 0x3c
 1612 01d5 0C       		.uleb128 0xc
 1613 01d6 00       		.byte	0
 1614 01d7 00       		.byte	0
 1615 01d8 00       		.byte	0
 1616              		.section	.debug_loc,"",%progbits
 1617              	.Ldebug_loc0:
 1618              	.LLST0:
 1619 0000 00000000 		.4byte	.LVL0
 1620 0004 02000000 		.4byte	.LVL1
 1621 0008 0100     		.2byte	0x1
 1622 000a 50       		.byte	0x50
 1623 000b 02000000 		.4byte	.LVL1
 1624 000f 04000000 		.4byte	.LFE7
 1625 0013 0400     		.2byte	0x4
 1626 0015 F3       		.byte	0xf3
 1627 0016 01       		.uleb128 0x1
 1628 0017 50       		.byte	0x50
 1629 0018 9F       		.byte	0x9f
 1630 0019 00000000 		.4byte	0
 1631 001d 00000000 		.4byte	0
 1632              	.LLST1:
 1633 0021 00000000 		.4byte	.LFB9
 1634 0025 02000000 		.4byte	.LCFI0
 1635 0029 0200     		.2byte	0x2
 1636 002b 7D       		.byte	0x7d
 1637 002c 00       		.sleb128 0
 1638 002d 02000000 		.4byte	.LCFI0
 1639 0031 6C010000 		.4byte	.LFE9
 1640 0035 0200     		.2byte	0x2
 1641 0037 7D       		.byte	0x7d
 1642 0038 10       		.sleb128 16
 1643 0039 00000000 		.4byte	0
 1644 003d 00000000 		.4byte	0
ARM GAS  C:\Users\jenny\AppData\Local\Temp\ccjGGfOi.s 			page 30


 1645              	.LLST2:
 1646 0041 10000000 		.4byte	.LVL3
 1647 0045 28000000 		.4byte	.LVL6
 1648 0049 0200     		.2byte	0x2
 1649 004b 30       		.byte	0x30
 1650 004c 9F       		.byte	0x9f
 1651 004d 28000000 		.4byte	.LVL6
 1652 0051 3E000000 		.4byte	.LVL9
 1653 0055 0200     		.2byte	0x2
 1654 0057 31       		.byte	0x31
 1655 0058 9F       		.byte	0x9f
 1656 0059 3E000000 		.4byte	.LVL9
 1657 005d 54000000 		.4byte	.LVL12
 1658 0061 0200     		.2byte	0x2
 1659 0063 32       		.byte	0x32
 1660 0064 9F       		.byte	0x9f
 1661 0065 54000000 		.4byte	.LVL12
 1662 0069 6A000000 		.4byte	.LVL15
 1663 006d 0200     		.2byte	0x2
 1664 006f 33       		.byte	0x33
 1665 0070 9F       		.byte	0x9f
 1666 0071 6A000000 		.4byte	.LVL15
 1667 0075 80000000 		.4byte	.LVL18
 1668 0079 0200     		.2byte	0x2
 1669 007b 34       		.byte	0x34
 1670 007c 9F       		.byte	0x9f
 1671 007d 80000000 		.4byte	.LVL18
 1672 0081 3C010000 		.4byte	.LVL43
 1673 0085 0200     		.2byte	0x2
 1674 0087 35       		.byte	0x35
 1675 0088 9F       		.byte	0x9f
 1676 0089 3E010000 		.4byte	.LVL44
 1677 008d 6C010000 		.4byte	.LFE9
 1678 0091 0200     		.2byte	0x2
 1679 0093 35       		.byte	0x35
 1680 0094 9F       		.byte	0x9f
 1681 0095 00000000 		.4byte	0
 1682 0099 00000000 		.4byte	0
 1683              	.LLST3:
 1684 009d A0000000 		.4byte	.LVL21
 1685 00a1 A8000000 		.4byte	.LVL22
 1686 00a5 0200     		.2byte	0x2
 1687 00a7 31       		.byte	0x31
 1688 00a8 9F       		.byte	0x9f
 1689 00a9 A8000000 		.4byte	.LVL22
 1690 00ad B0000000 		.4byte	.LVL23
 1691 00b1 0200     		.2byte	0x2
 1692 00b3 32       		.byte	0x32
 1693 00b4 9F       		.byte	0x9f
 1694 00b5 B0000000 		.4byte	.LVL23
 1695 00b9 B8000000 		.4byte	.LVL24
 1696 00bd 0200     		.2byte	0x2
 1697 00bf 33       		.byte	0x33
 1698 00c0 9F       		.byte	0x9f
 1699 00c1 B8000000 		.4byte	.LVL24
 1700 00c5 C0000000 		.4byte	.LVL25
 1701 00c9 0200     		.2byte	0x2
ARM GAS  C:\Users\jenny\AppData\Local\Temp\ccjGGfOi.s 			page 31


 1702 00cb 34       		.byte	0x34
 1703 00cc 9F       		.byte	0x9f
 1704 00cd C0000000 		.4byte	.LVL25
 1705 00d1 D6000000 		.4byte	.LVL28
 1706 00d5 0200     		.2byte	0x2
 1707 00d7 35       		.byte	0x35
 1708 00d8 9F       		.byte	0x9f
 1709 00d9 D6000000 		.4byte	.LVL28
 1710 00dd EA000000 		.4byte	.LVL31
 1711 00e1 0200     		.2byte	0x2
 1712 00e3 31       		.byte	0x31
 1713 00e4 9F       		.byte	0x9f
 1714 00e5 EA000000 		.4byte	.LVL31
 1715 00e9 FE000000 		.4byte	.LVL34
 1716 00ed 0200     		.2byte	0x2
 1717 00ef 32       		.byte	0x32
 1718 00f0 9F       		.byte	0x9f
 1719 00f1 FE000000 		.4byte	.LVL34
 1720 00f5 12010000 		.4byte	.LVL37
 1721 00f9 0200     		.2byte	0x2
 1722 00fb 33       		.byte	0x33
 1723 00fc 9F       		.byte	0x9f
 1724 00fd 12010000 		.4byte	.LVL37
 1725 0101 26010000 		.4byte	.LVL40
 1726 0105 0200     		.2byte	0x2
 1727 0107 34       		.byte	0x34
 1728 0108 9F       		.byte	0x9f
 1729 0109 26010000 		.4byte	.LVL40
 1730 010d 3C010000 		.4byte	.LVL43
 1731 0111 0200     		.2byte	0x2
 1732 0113 35       		.byte	0x35
 1733 0114 9F       		.byte	0x9f
 1734 0115 3E010000 		.4byte	.LVL44
 1735 0119 6C010000 		.4byte	.LFE9
 1736 011d 0200     		.2byte	0x2
 1737 011f 35       		.byte	0x35
 1738 0120 9F       		.byte	0x9f
 1739 0121 00000000 		.4byte	0
 1740 0125 00000000 		.4byte	0
 1741              		.section	.debug_aranges,"",%progbits
 1742 0000 2C000000 		.4byte	0x2c
 1743 0004 0200     		.2byte	0x2
 1744 0006 00000000 		.4byte	.Ldebug_info0
 1745 000a 04       		.byte	0x4
 1746 000b 00       		.byte	0
 1747 000c 0000     		.2byte	0
 1748 000e 0000     		.2byte	0
 1749 0010 00000000 		.4byte	.LFB7
 1750 0014 04000000 		.4byte	.LFE7-.LFB7
 1751 0018 00000000 		.4byte	.LFB8
 1752 001c 12000000 		.4byte	.LFE8-.LFB8
 1753 0020 00000000 		.4byte	.LFB9
 1754 0024 6C010000 		.4byte	.LFE9-.LFB9
 1755 0028 00000000 		.4byte	0
 1756 002c 00000000 		.4byte	0
 1757              		.section	.debug_ranges,"",%progbits
 1758              	.Ldebug_ranges0:
ARM GAS  C:\Users\jenny\AppData\Local\Temp\ccjGGfOi.s 			page 32


 1759 0000 98000000 		.4byte	.LBB4
 1760 0004 58010000 		.4byte	.LBE4
 1761 0008 5C010000 		.4byte	.LBB7
 1762 000c 6C010000 		.4byte	.LBE7
 1763 0010 00000000 		.4byte	0
 1764 0014 00000000 		.4byte	0
 1765 0018 98000000 		.4byte	.LBB5
 1766 001c 58010000 		.4byte	.LBE5
 1767 0020 5C010000 		.4byte	.LBB6
 1768 0024 6C010000 		.4byte	.LBE6
 1769 0028 00000000 		.4byte	0
 1770 002c 00000000 		.4byte	0
 1771 0030 00000000 		.4byte	.LFB7
 1772 0034 04000000 		.4byte	.LFE7
 1773 0038 00000000 		.4byte	.LFB8
 1774 003c 12000000 		.4byte	.LFE8
 1775 0040 00000000 		.4byte	.LFB9
 1776 0044 6C010000 		.4byte	.LFE9
 1777 0048 00000000 		.4byte	0
 1778 004c 00000000 		.4byte	0
 1779              		.section	.debug_line,"",%progbits
 1780              	.Ldebug_line0:
 1781 0000 24010000 		.section	.debug_str,"MS",%progbits,1
 1781      0200DC00 
 1781      00000201 
 1781      FB0E0D00 
 1781      01010101 
 1782              	.LASF9:
 1783 0000 73697A65 		.ascii	"size_t\000"
 1783      5F7400
 1784              	.LASF38:
 1785 0007 706F6F6C 		.ascii	"pools1_setup\000"
 1785      73315F73 
 1785      65747570 
 1785      00
 1786              	.LASF23:
 1787 0014 73657475 		.ascii	"setup\000"
 1787      7000
 1788              	.LASF16:
 1789 001a 6D705F6F 		.ascii	"mp_object_size\000"
 1789      626A6563 
 1789      745F7369 
 1789      7A6500
 1790              	.LASF25:
 1791 0029 65786563 		.ascii	"execute\000"
 1791      75746500 
 1792              	.LASF10:
 1793 0031 626F6F6C 		.ascii	"bool_t\000"
 1793      5F7400
 1794              	.LASF21:
 1795 0038 74657374 		.ascii	"testcase\000"
 1795      63617365 
 1795      00
 1796              	.LASF20:
 1797 0041 706F6F6C 		.ascii	"pool_header\000"
 1797      5F686561 
 1797      64657200 
ARM GAS  C:\Users\jenny\AppData\Local\Temp\ccjGGfOi.s 			page 33


 1798              	.LASF35:
 1799 004d 706F6F6C 		.ascii	"pools1_execute\000"
 1799      73315F65 
 1799      78656375 
 1799      746500
 1800              	.LASF39:
 1801 005c 6368506F 		.ascii	"chPoolLoadArray\000"
 1801      6F6C4C6F 
 1801      61644172 
 1801      72617900 
 1802              	.LASF34:
 1803 006c 443A5C6A 		.ascii	"D:\\jenny\\dev\\probe\\chibios\\chibios.workspace\\"
 1803      656E6E79 
 1803      5C646576 
 1803      5C70726F 
 1803      62655C63 
 1804 0099 64656D6F 		.ascii	"demos\\ARMCM4-STM32F407-LWIP-FATFS-USB\000"
 1804      735C4152 
 1804      4D434D34 
 1804      2D53544D 
 1804      33324634 
 1805              	.LASF37:
 1806 00bf 73697A65 		.ascii	"size\000"
 1806      00
 1807              	.LASF6:
 1808 00c4 6C6F6E67 		.ascii	"long unsigned int\000"
 1808      20756E73 
 1808      69676E65 
 1808      6420696E 
 1808      7400
 1809              	.LASF24:
 1810 00d6 74656172 		.ascii	"teardown\000"
 1810      646F776E 
 1810      00
 1811              	.LASF4:
 1812 00df 73686F72 		.ascii	"short unsigned int\000"
 1812      7420756E 
 1812      7369676E 
 1812      65642069 
 1812      6E7400
 1813              	.LASF36:
 1814 00f2 6E756C6C 		.ascii	"null_provider\000"
 1814      5F70726F 
 1814      76696465 
 1814      7200
 1815              	.LASF32:
 1816 0100 474E5520 		.ascii	"GNU C 4.7.4 20130913 (release) [ARM/embedded-4_7-br"
 1816      4320342E 
 1816      372E3420 
 1816      32303133 
 1816      30393133 
 1817 0133 616E6368 		.ascii	"anch revision 202601]\000"
 1817      20726576 
 1817      6973696F 
 1817      6E203230 
 1817      32363031 
 1818              	.LASF2:
ARM GAS  C:\Users\jenny\AppData\Local\Temp\ccjGGfOi.s 			page 34


 1819 0149 756E7369 		.ascii	"unsigned char\000"
 1819      676E6564 
 1819      20636861 
 1819      7200
 1820              	.LASF29:
 1821 0157 6368506F 		.ascii	"chPoolFree\000"
 1821      6F6C4672 
 1821      656500
 1822              	.LASF18:
 1823 0162 4D656D6F 		.ascii	"MemoryPool\000"
 1823      7279506F 
 1823      6F6C00
 1824              	.LASF26:
 1825 016d 74657374 		.ascii	"testpools1\000"
 1825      706F6F6C 
 1825      733100
 1826              	.LASF0:
 1827 0178 756E7369 		.ascii	"unsigned int\000"
 1827      676E6564 
 1827      20696E74 
 1827      00
 1828              	.LASF8:
 1829 0185 6C6F6E67 		.ascii	"long long unsigned int\000"
 1829      206C6F6E 
 1829      6720756E 
 1829      7369676E 
 1829      65642069 
 1830              	.LASF14:
 1831 019c 70685F6E 		.ascii	"ph_next\000"
 1831      65787400 
 1832              	.LASF31:
 1833 01a4 5F746573 		.ascii	"_test_assert\000"
 1833      745F6173 
 1833      73657274 
 1833      00
 1834              	.LASF12:
 1835 01b1 73697A65 		.ascii	"sizetype\000"
 1835      74797065 
 1835      00
 1836              	.LASF7:
 1837 01ba 6C6F6E67 		.ascii	"long long int\000"
 1837      206C6F6E 
 1837      6720696E 
 1837      7400
 1838              	.LASF33:
 1839 01c8 2E2E2F2E 		.ascii	"../../test/testpools.c\000"
 1839      2E2F7465 
 1839      73742F74 
 1839      65737470 
 1839      6F6F6C73 
 1840              	.LASF22:
 1841 01df 6E616D65 		.ascii	"name\000"
 1841      00
 1842              	.LASF13:
 1843 01e4 6D656D67 		.ascii	"memgetfunc_t\000"
 1843      65746675 
 1843      6E635F74 
ARM GAS  C:\Users\jenny\AppData\Local\Temp\ccjGGfOi.s 			page 35


 1843      00
 1844              	.LASF17:
 1845 01f1 6D705F70 		.ascii	"mp_provider\000"
 1845      726F7669 
 1845      64657200 
 1846              	.LASF3:
 1847 01fd 73686F72 		.ascii	"short int\000"
 1847      7420696E 
 1847      7400
 1848              	.LASF30:
 1849 0207 6368506F 		.ascii	"chPoolAlloc\000"
 1849      6F6C416C 
 1849      6C6F6300 
 1850              	.LASF5:
 1851 0213 6C6F6E67 		.ascii	"long int\000"
 1851      20696E74 
 1851      00
 1852              	.LASF19:
 1853 021c 63686172 		.ascii	"char\000"
 1853      00
 1854              	.LASF1:
 1855 0221 7369676E 		.ascii	"signed char\000"
 1855      65642063 
 1855      68617200 
 1856              	.LASF15:
 1857 022d 6D705F6E 		.ascii	"mp_next\000"
 1857      65787400 
 1858              	.LASF27:
 1859 0235 70617474 		.ascii	"patternpools\000"
 1859      65726E70 
 1859      6F6F6C73 
 1859      00
 1860              	.LASF11:
 1861 0242 5F426F6F 		.ascii	"_Bool\000"
 1861      6C00
 1862              	.LASF28:
 1863 0248 6368506F 		.ascii	"chPoolInit\000"
 1863      6F6C496E 
 1863      697400
 1864              		.ident	"GCC: (GNU Tools for ARM Embedded Processors) 4.7.4 20130913 (release) [ARM/embedded-4_7-br
ARM GAS  C:\Users\jenny\AppData\Local\Temp\ccjGGfOi.s 			page 36


DEFINED SYMBOLS
                            *ABS*:00000000 testpools.c
C:\Users\jenny\AppData\Local\Temp\ccjGGfOi.s:20     .text.null_provider:00000000 $t
C:\Users\jenny\AppData\Local\Temp\ccjGGfOi.s:25     .text.null_provider:00000000 null_provider
C:\Users\jenny\AppData\Local\Temp\ccjGGfOi.s:42     .text.pools1_setup:00000000 $t
C:\Users\jenny\AppData\Local\Temp\ccjGGfOi.s:47     .text.pools1_setup:00000000 pools1_setup
C:\Users\jenny\AppData\Local\Temp\ccjGGfOi.s:311    .data.mp1:00000000 .LANCHOR0
C:\Users\jenny\AppData\Local\Temp\ccjGGfOi.s:67     .text.pools1_execute:00000000 $t
C:\Users\jenny\AppData\Local\Temp\ccjGGfOi.s:72     .text.pools1_execute:00000000 pools1_execute
C:\Users\jenny\AppData\Local\Temp\ccjGGfOi.s:288    .text.pools1_execute:00000160 $d
C:\Users\jenny\AppData\Local\Temp\ccjGGfOi.s:306    .rodata.patternpools:00000000 patternpools
C:\Users\jenny\AppData\Local\Temp\ccjGGfOi.s:322    .rodata.testpools1:00000000 testpools1
C:\Users\jenny\AppData\Local\Temp\ccjGGfOi.s:299    .rodata.str1.4:00000000 $d
C:\Users\jenny\AppData\Local\Temp\ccjGGfOi.s:303    .rodata.patternpools:00000000 $d
C:\Users\jenny\AppData\Local\Temp\ccjGGfOi.s:310    .data.mp1:00000000 $d
C:\Users\jenny\AppData\Local\Temp\ccjGGfOi.s:314    .data.mp1:00000000 mp1
C:\Users\jenny\AppData\Local\Temp\ccjGGfOi.s:319    .rodata.testpools1:00000000 $d
                     .debug_frame:00000010 $d
C:\Users\jenny\AppData\Local\Temp\ccjGGfOi.s:298    .text.pools1_execute:0000016c $t

UNDEFINED SYMBOLS
chPoolInit
chPoolLoadArray
chPoolAlloc
_test_assert
chPoolFree
wa
