ARM GAS  C:\Users\jenny\AppData\Local\Temp\ccS4KTJ2.s 			page 1


   1              		.syntax unified
   2              		.cpu cortex-m4
   3              		.eabi_attribute 27, 3
   4              		.fpu fpv4-sp-d16
   5              		.eabi_attribute 20, 1
   6              		.eabi_attribute 21, 1
   7              		.eabi_attribute 23, 3
   8              		.eabi_attribute 24, 1
   9              		.eabi_attribute 25, 1
  10              		.eabi_attribute 26, 1
  11              		.eabi_attribute 30, 2
  12              		.eabi_attribute 34, 1
  13              		.eabi_attribute 18, 4
  14              		.thumb
  15              		.file	"testevt.c"
  16              		.text
  17              	.Ltext0:
  18              		.cfi_sections	.debug_frame
  19              		.section	.text.evt3_setup,"ax",%progbits
  20              		.align	2
  21              		.p2align 4,,15
  22              		.thumb
  23              		.thumb_func
  24              		.type	evt3_setup, %function
  25              	evt3_setup:
  26              	.LFB16:
  27              		.file 1 "../../test/testevt.c"
  28              		.loc 1 247 0
  29              		.cfi_startproc
  30              		@ args = 0, pretend = 0, frame = 0
  31              		@ frame_needed = 0, uses_anonymous_args = 0
  32              		@ link register save eliminated.
  33              		.loc 1 249 0
  34 0000 4FF0FF30 		mov	r0, #-1
  35              		.loc 1 250 0
  36              		.loc 1 249 0
  37 0004 FFF7FEBF 		b	chEvtGetAndClearEvents
  38              	.LVL0:
  39              		.cfi_endproc
  40              	.LFE16:
  41              		.size	evt3_setup, .-evt3_setup
  42 0008 AFF30080 		.section	.text.evt2_setup,"ax",%progbits
  42      AFF30080 
  43              		.align	2
  44              		.p2align 4,,15
  45              		.thumb
  46              		.thumb_func
  47              		.type	evt2_setup, %function
  48              	evt2_setup:
  49              	.LFB12:
  50              		.loc 1 128 0
  51              		.cfi_startproc
  52              		@ args = 0, pretend = 0, frame = 0
  53              		@ frame_needed = 0, uses_anonymous_args = 0
  54              		@ link register save eliminated.
  55              		.loc 1 130 0
  56 0000 4FF0FF30 		mov	r0, #-1
ARM GAS  C:\Users\jenny\AppData\Local\Temp\ccS4KTJ2.s 			page 2


  57              		.loc 1 131 0
  58              		.loc 1 130 0
  59 0004 FFF7FEBF 		b	chEvtGetAndClearEvents
  60              	.LVL1:
  61              		.cfi_endproc
  62              	.LFE12:
  63              		.size	evt2_setup, .-evt2_setup
  64 0008 AFF30080 		.section	.text.evt1_setup,"ax",%progbits
  64      AFF30080 
  65              		.align	2
  66              		.p2align 4,,15
  67              		.thumb
  68              		.thumb_func
  69              		.type	evt1_setup, %function
  70              	evt1_setup:
  71              	.LFB7:
  72              		.loc 1 75 0
  73              		.cfi_startproc
  74              		@ args = 0, pretend = 0, frame = 0
  75              		@ frame_needed = 0, uses_anonymous_args = 0
  76              		@ link register save eliminated.
  77              		.loc 1 77 0
  78 0000 4FF0FF30 		mov	r0, #-1
  79              		.loc 1 78 0
  80              		.loc 1 77 0
  81 0004 FFF7FEBF 		b	chEvtGetAndClearEvents
  82              	.LVL2:
  83              		.cfi_endproc
  84              	.LFE7:
  85              		.size	evt1_setup, .-evt1_setup
  86 0008 AFF30080 		.section	.text.evt2_execute,"ax",%progbits
  86      AFF30080 
  87              		.align	2
  88              		.p2align 4,,15
  89              		.thumb
  90              		.thumb_func
  91              		.type	evt2_execute, %function
  92              	evt2_execute:
  93              	.LFB15:
  94              		.loc 1 149 0
  95              		.cfi_startproc
  96              		@ args = 0, pretend = 0, frame = 40
  97              		@ frame_needed = 0, uses_anonymous_args = 0
  98 0000 2DE9F042 		push	{r4, r5, r6, r7, r9, lr}
  99              	.LCFI0:
 100              		.cfi_def_cfa_offset 24
 101              		.cfi_offset 4, -24
 102              		.cfi_offset 5, -20
 103              		.cfi_offset 6, -16
 104              		.cfi_offset 7, -12
 105              		.cfi_offset 9, -8
 106              		.cfi_offset 14, -4
 107              		.loc 1 157 0
 108 0004 0520     		movs	r0, #5
 109              		.loc 1 149 0
 110 0006 8CB0     		sub	sp, sp, #48
 111              	.LCFI1:
ARM GAS  C:\Users\jenny\AppData\Local\Temp\ccS4KTJ2.s 			page 3


 112              		.cfi_def_cfa_offset 72
 113              		.loc 1 157 0
 114 0008 FFF7FEFF 		bl	chEvtAddEvents
 115              	.LVL3:
 116              		.loc 1 158 0
 117 000c 4FF0FF30 		mov	r0, #-1
 118 0010 FFF7FEFF 		bl	chEvtWaitOne
 119              	.LVL4:
 120              		.loc 1 159 0
 121 0014 0138     		subs	r0, r0, #1
 122              	.LVL5:
 123 0016 4142     		rsbs	r1, r0, #0
 124 0018 4141     		adcs	r1, r1, r0
 125 001a 0120     		movs	r0, #1
 126              	.LVL6:
 127 001c FFF7FEFF 		bl	_test_assert
 128              	.LVL7:
 129 0020 10B1     		cbz	r0, .L8
 130              	.L4:
 131              		.loc 1 222 0
 132 0022 0CB0     		add	sp, sp, #48
 133 0024 BDE8F082 		pop	{r4, r5, r6, r7, r9, pc}
 134              	.L8:
 135              		.loc 1 160 0
 136 0028 4FF0FF30 		mov	r0, #-1
 137 002c FFF7FEFF 		bl	chEvtWaitOne
 138              	.LVL8:
 139              		.loc 1 161 0
 140 0030 021F     		subs	r2, r0, #4
 141 0032 5342     		rsbs	r3, r2, #0
 142 0034 53EB0201 		adcs	r1, r3, r2
 143 0038 0220     		movs	r0, #2
 144              	.LVL9:
 145 003a FFF7FEFF 		bl	_test_assert
 146              	.LVL10:
 147 003e 0028     		cmp	r0, #0
 148 0040 EFD1     		bne	.L4
 149              		.loc 1 162 0
 150 0042 4FF0FF30 		mov	r0, #-1
 151 0046 FFF7FEFF 		bl	chEvtGetAndClearEvents
 152              	.LVL11:
 153              		.loc 1 163 0
 154 004a D0F10101 		rsbs	r1, r0, #1
 155 004e 38BF     		it	cc
 156 0050 0021     		movcc	r1, #0
 157 0052 0320     		movs	r0, #3
 158              	.LVL12:
 159 0054 FFF7FEFF 		bl	_test_assert
 160              	.LVL13:
 161 0058 0028     		cmp	r0, #0
 162 005a E2D1     		bne	.L4
 163              		.loc 1 170 0
 164 005c 744D     		ldr	r5, .L9
 165              		.loc 1 169 0
 166 005e 754F     		ldr	r7, .L9+4
 167              		.loc 1 170 0
 168 0060 754E     		ldr	r6, .L9+8
ARM GAS  C:\Users\jenny\AppData\Local\Temp\ccS4KTJ2.s 			page 4


 169              		.loc 1 168 0
 170 0062 FFF7FEFF 		bl	test_wait_tick
 171              	.LVL14:
 172              		.loc 1 170 0
 173 0066 7549     		ldr	r1, .L9+12
 174 0068 AC69     		ldr	r4, [r5, #24]
 175 006a 0A68     		ldr	r2, [r1, #0]
 176 006c A068     		ldr	r0, [r4, #8]
 177 006e 0392     		str	r2, [sp, #12]
 178 0070 4FF4DC71 		mov	r1, #440
 179 0074 421E     		subs	r2, r0, #1
 180 0076 724B     		ldr	r3, .L9+16
 181 0078 0094     		str	r4, [sp, #0]
 182 007a 0398     		ldr	r0, [sp, #12]
 183              		.loc 1 169 0
 184 007c FC68     		ldr	r4, [r7, #12]
 185              	.LVL15:
 186              		.loc 1 170 0
 187 007e FFF7FEFF 		bl	chThdCreateStatic
 188              	.LVL16:
 189 0082 3060     		str	r0, [r6, #0]
 190              		.loc 1 172 0
 191 0084 4FF0FF30 		mov	r0, #-1
 192 0088 FFF7FEFF 		bl	chEvtWaitOne
 193              	.LVL17:
 194              		.loc 1 173 0
 195 008c 04F13201 		add	r1, r4, #50
 196              	.LVL18:
 197              		.loc 1 172 0
 198 0090 8146     		mov	r9, r0
 199              	.LVL19:
 200              		.loc 1 173 0
 201 0092 04F13702 		add	r2, r4, #55
 202 0096 0420     		movs	r0, #4
 203              	.LVL20:
 204 0098 FFF7FEFF 		bl	_test_assert_time_window
 205              	.LVL21:
 206 009c 0028     		cmp	r0, #0
 207 009e C0D1     		bne	.L4
 208              		.loc 1 174 0
 209 00a0 0520     		movs	r0, #5
 210 00a2 B9F10103 		subs	r3, r9, #1
 211 00a6 5942     		rsbs	r1, r3, #0
 212 00a8 5941     		adcs	r1, r1, r3
 213 00aa FFF7FEFF 		bl	_test_assert
 214              	.LVL22:
 215 00ae 0028     		cmp	r0, #0
 216 00b0 B7D1     		bne	.L4
 217              		.loc 1 175 0
 218 00b2 4FF0FF30 		mov	r0, #-1
 219 00b6 FFF7FEFF 		bl	chEvtGetAndClearEvents
 220              	.LVL23:
 221              		.loc 1 176 0
 222 00ba D0F10101 		rsbs	r1, r0, #1
 223 00be 38BF     		it	cc
 224 00c0 0021     		movcc	r1, #0
 225 00c2 0620     		movs	r0, #6
ARM GAS  C:\Users\jenny\AppData\Local\Temp\ccS4KTJ2.s 			page 5


 226              	.LVL24:
 227 00c4 FFF7FEFF 		bl	_test_assert
 228              	.LVL25:
 229 00c8 0028     		cmp	r0, #0
 230 00ca AAD1     		bne	.L4
 231              		.loc 1 177 0
 232 00cc FFF7FEFF 		bl	test_wait_threads
 233              	.LVL26:
 234              		.loc 1 182 0
 235 00d0 0520     		movs	r0, #5
 236 00d2 FFF7FEFF 		bl	chEvtAddEvents
 237              	.LVL27:
 238              		.loc 1 183 0
 239 00d6 4FF0FF30 		mov	r0, #-1
 240 00da FFF7FEFF 		bl	chEvtWaitAny
 241              	.LVL28:
 242              		.loc 1 184 0
 243 00de B0F1050C 		subs	ip, r0, #5
 244 00e2 DCF10000 		rsbs	r0, ip, #0
 245              	.LVL29:
 246 00e6 50EB0C01 		adcs	r1, r0, ip
 247 00ea 0720     		movs	r0, #7
 248 00ec FFF7FEFF 		bl	_test_assert
 249              	.LVL30:
 250 00f0 0028     		cmp	r0, #0
 251 00f2 96D1     		bne	.L4
 252              		.loc 1 185 0
 253 00f4 4FF0FF30 		mov	r0, #-1
 254 00f8 FFF7FEFF 		bl	chEvtGetAndClearEvents
 255              	.LVL31:
 256              		.loc 1 186 0
 257 00fc D0F10101 		rsbs	r1, r0, #1
 258 0100 38BF     		it	cc
 259 0102 0021     		movcc	r1, #0
 260 0104 0820     		movs	r0, #8
 261              	.LVL32:
 262 0106 FFF7FEFF 		bl	_test_assert
 263              	.LVL33:
 264 010a 0028     		cmp	r0, #0
 265 010c 89D1     		bne	.L4
 266              		.loc 1 191 0
 267 010e FFF7FEFF 		bl	test_wait_tick
 268              	.LVL34:
 269              		.loc 1 193 0
 270 0112 AC69     		ldr	r4, [r5, #24]
 271              	.LVL35:
 272 0114 4A4B     		ldr	r3, .L9+16
 273 0116 A268     		ldr	r2, [r4, #8]
 274 0118 0398     		ldr	r0, [sp, #12]
 275 011a 0094     		str	r4, [sp, #0]
 276 011c 4FF4DC71 		mov	r1, #440
 277 0120 013A     		subs	r2, r2, #1
 278              		.loc 1 192 0
 279 0122 FC68     		ldr	r4, [r7, #12]
 280              	.LVL36:
 281              		.loc 1 193 0
 282 0124 FFF7FEFF 		bl	chThdCreateStatic
ARM GAS  C:\Users\jenny\AppData\Local\Temp\ccS4KTJ2.s 			page 6


 283              	.LVL37:
 284 0128 3060     		str	r0, [r6, #0]
 285              		.loc 1 195 0
 286 012a 4FF0FF30 		mov	r0, #-1
 287 012e FFF7FEFF 		bl	chEvtWaitAny
 288              	.LVL38:
 289              		.loc 1 196 0
 290 0132 04F13201 		add	r1, r4, #50
 291              	.LVL39:
 292              		.loc 1 195 0
 293 0136 8146     		mov	r9, r0
 294              	.LVL40:
 295              		.loc 1 196 0
 296 0138 04F13702 		add	r2, r4, #55
 297 013c 0920     		movs	r0, #9
 298              	.LVL41:
 299 013e FFF7FEFF 		bl	_test_assert_time_window
 300              	.LVL42:
 301 0142 0028     		cmp	r0, #0
 302 0144 7FF46DAF 		bne	.L4
 303              		.loc 1 197 0
 304 0148 0A20     		movs	r0, #10
 305 014a B9F1010E 		subs	lr, r9, #1
 306 014e DEF10003 		rsbs	r3, lr, #0
 307 0152 53EB0E01 		adcs	r1, r3, lr
 308 0156 FFF7FEFF 		bl	_test_assert
 309              	.LVL43:
 310 015a 0028     		cmp	r0, #0
 311 015c 7FF461AF 		bne	.L4
 312              		.loc 1 198 0
 313 0160 4FF0FF30 		mov	r0, #-1
 314 0164 FFF7FEFF 		bl	chEvtGetAndClearEvents
 315              	.LVL44:
 316              		.loc 1 199 0
 317 0168 D0F10101 		rsbs	r1, r0, #1
 318 016c 38BF     		it	cc
 319 016e 0021     		movcc	r1, #0
 320 0170 0B20     		movs	r0, #11
 321              	.LVL45:
 322 0172 FFF7FEFF 		bl	_test_assert
 323              	.LVL46:
 324 0176 0028     		cmp	r0, #0
 325 0178 7FF453AF 		bne	.L4
 326              		.loc 1 205 0
 327 017c DFF8D090 		ldr	r9, .L9+32
 328              		.loc 1 206 0
 329 0180 304C     		ldr	r4, .L9+20
 330              	.LVL47:
 331              		.loc 1 200 0
 332 0182 FFF7FEFF 		bl	test_wait_threads
 333              	.LVL48:
 334              		.loc 1 207 0
 335 0186 4846     		mov	r0, r9
 336 0188 04A9     		add	r1, sp, #16
 337 018a 0122     		movs	r2, #1
 338              		.loc 1 205 0
 339 018c C9F80090 		str	r9, [r9, #0]
ARM GAS  C:\Users\jenny\AppData\Local\Temp\ccS4KTJ2.s 			page 7


 340              		.loc 1 206 0
 341 0190 2460     		str	r4, [r4, #0]
 342              		.loc 1 207 0
 343 0192 FFF7FEFF 		bl	chEvtRegisterMask
 344              	.LVL49:
 345              		.loc 1 208 0
 346 0196 08A9     		add	r1, sp, #32
 347 0198 0422     		movs	r2, #4
 348 019a 2046     		mov	r0, r4
 349 019c FFF7FEFF 		bl	chEvtRegisterMask
 350              	.LVL50:
 351              		.loc 1 209 0
 352 01a0 FFF7FEFF 		bl	test_wait_tick
 353              	.LVL51:
 354              		.loc 1 211 0
 355 01a4 AD69     		ldr	r5, [r5, #24]
 356 01a6 2849     		ldr	r1, .L9+24
 357 01a8 A868     		ldr	r0, [r5, #8]
 358 01aa 284B     		ldr	r3, .L9+28
 359 01ac 0091     		str	r1, [sp, #0]
 360 01ae 421E     		subs	r2, r0, #1
 361 01b0 4FF4DC71 		mov	r1, #440
 362 01b4 0398     		ldr	r0, [sp, #12]
 363              		.loc 1 210 0
 364 01b6 FD68     		ldr	r5, [r7, #12]
 365              	.LVL52:
 366              		.loc 1 211 0
 367 01b8 FFF7FEFF 		bl	chThdCreateStatic
 368              	.LVL53:
 369 01bc 3060     		str	r0, [r6, #0]
 370              		.loc 1 213 0
 371 01be 0520     		movs	r0, #5
 372 01c0 FFF7FEFF 		bl	chEvtWaitAll
 373              	.LVL54:
 374              		.loc 1 214 0
 375 01c4 0C20     		movs	r0, #12
 376 01c6 05F13201 		add	r1, r5, #50
 377              	.LVL55:
 378 01ca 05F13702 		add	r2, r5, #55
 379 01ce FFF7FEFF 		bl	_test_assert_time_window
 380              	.LVL56:
 381 01d2 0028     		cmp	r0, #0
 382 01d4 7FF425AF 		bne	.L4
 383              		.loc 1 215 0
 384 01d8 4FF0FF30 		mov	r0, #-1
 385 01dc FFF7FEFF 		bl	chEvtGetAndClearEvents
 386              	.LVL57:
 387              		.loc 1 216 0
 388 01e0 D0F10101 		rsbs	r1, r0, #1
 389 01e4 38BF     		it	cc
 390 01e6 0021     		movcc	r1, #0
 391 01e8 0D20     		movs	r0, #13
 392              	.LVL58:
 393 01ea FFF7FEFF 		bl	_test_assert
 394              	.LVL59:
 395 01ee 0028     		cmp	r0, #0
 396 01f0 7FF417AF 		bne	.L4
ARM GAS  C:\Users\jenny\AppData\Local\Temp\ccS4KTJ2.s 			page 8


 397              		.loc 1 217 0
 398 01f4 FFF7FEFF 		bl	test_wait_threads
 399              	.LVL60:
 400              		.loc 1 218 0
 401 01f8 4846     		mov	r0, r9
 402 01fa 04A9     		add	r1, sp, #16
 403 01fc FFF7FEFF 		bl	chEvtUnregister
 404              	.LVL61:
 405              		.loc 1 219 0
 406 0200 2046     		mov	r0, r4
 407 0202 08A9     		add	r1, sp, #32
 408 0204 FFF7FEFF 		bl	chEvtUnregister
 409              	.LVL62:
 410              		.loc 1 220 0
 411 0208 D9F80020 		ldr	r2, [r9, #0]
 412 020c 0E20     		movs	r0, #14
 413 020e B2EB0903 		subs	r3, r2, r9
 414 0212 5942     		rsbs	r1, r3, #0
 415 0214 5941     		adcs	r1, r1, r3
 416 0216 FFF7FEFF 		bl	_test_assert
 417              	.LVL63:
 418 021a 0028     		cmp	r0, #0
 419 021c 7FF401AF 		bne	.L4
 420              		.loc 1 221 0
 421 0220 2268     		ldr	r2, [r4, #0]
 422 0222 0F20     		movs	r0, #15
 423 0224 131B     		subs	r3, r2, r4
 424 0226 5942     		rsbs	r1, r3, #0
 425 0228 5941     		adcs	r1, r1, r3
 426 022a FFF7FEFF 		bl	_test_assert
 427              	.LVL64:
 428 022e F8E6     		b	.L4
 429              	.L10:
 430              		.align	2
 431              	.L9:
 432 0230 00000000 		.word	rlist
 433 0234 00000000 		.word	vtlist
 434 0238 00000000 		.word	threads
 435 023c 00000000 		.word	wa
 436 0240 00000000 		.word	thread1
 437 0244 00000000 		.word	.LANCHOR1
 438 0248 00000000 		.word	.LC0
 439 024c 00000000 		.word	thread2
 440 0250 00000000 		.word	.LANCHOR0
 441              		.cfi_endproc
 442              	.LFE15:
 443              		.size	evt2_execute, .-evt2_execute
 444 0254 AFF30080 		.section	.text.thread2,"ax",%progbits
 444      AFF30080 
 444      AFF30080 
 445              		.align	2
 446              		.p2align 4,,15
 447              		.thumb
 448              		.thumb_func
 449              		.type	thread2, %function
 450              	thread2:
 451              	.LFB14:
ARM GAS  C:\Users\jenny\AppData\Local\Temp\ccS4KTJ2.s 			page 9


 452              		.loc 1 140 0
 453              		.cfi_startproc
 454              		@ args = 0, pretend = 0, frame = 0
 455              		@ frame_needed = 0, uses_anonymous_args = 0
 456              	.LVL65:
 457              		.loc 1 143 0
 458 0000 40F20000 		movw	r0, #:lower16:.LANCHOR0
 459              	.LVL66:
 460              		.loc 1 140 0
 461 0004 08B5     		push	{r3, lr}
 462              	.LCFI2:
 463              		.cfi_def_cfa_offset 8
 464              		.cfi_offset 3, -8
 465              		.cfi_offset 14, -4
 466              		.loc 1 143 0
 467 0006 0021     		movs	r1, #0
 468 0008 C0F20000 		movt	r0, #:upper16:.LANCHOR0
 469 000c FFF7FEFF 		bl	chEvtBroadcastFlags
 470              	.LVL67:
 471              		.loc 1 144 0
 472 0010 3220     		movs	r0, #50
 473 0012 FFF7FEFF 		bl	chThdSleep
 474              	.LVL68:
 475              		.loc 1 145 0
 476 0016 40F20000 		movw	r0, #:lower16:.LANCHOR1
 477 001a C0F20000 		movt	r0, #:upper16:.LANCHOR1
 478 001e 0021     		movs	r1, #0
 479 0020 FFF7FEFF 		bl	chEvtBroadcastFlags
 480              	.LVL69:
 481              		.loc 1 147 0
 482 0024 0020     		movs	r0, #0
 483 0026 08BD     		pop	{r3, pc}
 484              		.cfi_endproc
 485              	.LFE14:
 486              		.size	thread2, .-thread2
 487 0028 AFF30080 		.section	.text.thread1,"ax",%progbits
 487      AFF30080 
 488              		.align	2
 489              		.p2align 4,,15
 490              		.thumb
 491              		.thumb_func
 492              		.type	thread1, %function
 493              	thread1:
 494              	.LFB13:
 495              		.loc 1 133 0
 496              		.cfi_startproc
 497              		@ args = 0, pretend = 0, frame = 0
 498              		@ frame_needed = 0, uses_anonymous_args = 0
 499              	.LVL70:
 500 0000 10B5     		push	{r4, lr}
 501              	.LCFI3:
 502              		.cfi_def_cfa_offset 8
 503              		.cfi_offset 4, -8
 504              		.cfi_offset 14, -4
 505              		.loc 1 133 0
 506 0002 0446     		mov	r4, r0
 507              		.loc 1 135 0
ARM GAS  C:\Users\jenny\AppData\Local\Temp\ccS4KTJ2.s 			page 10


 508 0004 3220     		movs	r0, #50
 509              	.LVL71:
 510 0006 FFF7FEFF 		bl	chThdSleep
 511              	.LVL72:
 512              		.loc 1 136 0
 513 000a 2046     		mov	r0, r4
 514 000c 0121     		movs	r1, #1
 515 000e FFF7FEFF 		bl	chEvtSignal
 516              	.LVL73:
 517              		.loc 1 138 0
 518 0012 0020     		movs	r0, #0
 519 0014 10BD     		pop	{r4, pc}
 520              		.cfi_endproc
 521              	.LFE13:
 522              		.size	thread1, .-thread1
 523 0016 00BFAFF3 		.section	.text.evt1_execute,"ax",%progbits
 523      0080AFF3 
 523      0080
 524              		.align	2
 525              		.p2align 4,,15
 526              		.thumb
 527              		.thumb_func
 528              		.type	evt1_execute, %function
 529              	evt1_execute:
 530              	.LFB11:
 531              		.loc 1 85 0
 532              		.cfi_startproc
 533              		@ args = 0, pretend = 0, frame = 32
 534              		@ frame_needed = 0, uses_anonymous_args = 0
 535 0000 10B5     		push	{r4, lr}
 536              	.LCFI4:
 537              		.cfi_def_cfa_offset 8
 538              		.cfi_offset 4, -8
 539              		.cfi_offset 14, -4
 540              		.loc 1 91 0
 541 0002 1E4C     		ldr	r4, .L17
 542              		.loc 1 85 0
 543 0004 88B0     		sub	sp, sp, #32
 544              	.LCFI5:
 545              		.cfi_def_cfa_offset 40
 546              		.loc 1 92 0
 547 0006 0122     		movs	r2, #1
 548 0008 2046     		mov	r0, r4
 549 000a 6946     		mov	r1, sp
 550              		.loc 1 91 0
 551 000c 2460     		str	r4, [r4, #0]
 552              		.loc 1 92 0
 553 000e FFF7FEFF 		bl	chEvtRegisterMask
 554              	.LVL74:
 555              		.loc 1 93 0
 556 0012 2046     		mov	r0, r4
 557 0014 04A9     		add	r1, sp, #16
 558 0016 0222     		movs	r2, #2
 559 0018 FFF7FEFF 		bl	chEvtRegisterMask
 560              	.LVL75:
 561              		.loc 1 94 0
 562 001c 2168     		ldr	r1, [r4, #0]
ARM GAS  C:\Users\jenny\AppData\Local\Temp\ccS4KTJ2.s 			page 11


 563 001e 0120     		movs	r0, #1
 564 0020 091B     		subs	r1, r1, r4
 565 0022 18BF     		it	ne
 566 0024 0121     		movne	r1, #1
 567 0026 FFF7FEFF 		bl	_test_assert
 568              	.LVL76:
 569 002a 08B1     		cbz	r0, .L16
 570              	.L13:
 571              		.loc 1 105 0
 572 002c 08B0     		add	sp, sp, #32
 573 002e 10BD     		pop	{r4, pc}
 574              	.L16:
 575              		.loc 1 95 0
 576 0030 2046     		mov	r0, r4
 577 0032 6946     		mov	r1, sp
 578 0034 FFF7FEFF 		bl	chEvtUnregister
 579              	.LVL77:
 580              		.loc 1 96 0
 581 0038 2268     		ldr	r2, [r4, #0]
 582 003a 0220     		movs	r0, #2
 583 003c 111B     		subs	r1, r2, r4
 584 003e 18BF     		it	ne
 585 0040 0121     		movne	r1, #1
 586 0042 FFF7FEFF 		bl	_test_assert
 587              	.LVL78:
 588 0046 0028     		cmp	r0, #0
 589 0048 F0D1     		bne	.L13
 590              		.loc 1 97 0
 591 004a 2046     		mov	r0, r4
 592 004c 04A9     		add	r1, sp, #16
 593 004e FFF7FEFF 		bl	chEvtUnregister
 594              	.LVL79:
 595              		.loc 1 98 0
 596 0052 2368     		ldr	r3, [r4, #0]
 597 0054 0320     		movs	r0, #3
 598 0056 B3EB040E 		subs	lr, r3, r4
 599 005a DEF10001 		rsbs	r1, lr, #0
 600 005e 51EB0E01 		adcs	r1, r1, lr
 601 0062 FFF7FEFF 		bl	_test_assert
 602              	.LVL80:
 603 0066 0028     		cmp	r0, #0
 604 0068 E0D1     		bne	.L13
 605              		.loc 1 103 0
 606 006a 0721     		movs	r1, #7
 607 006c 0448     		ldr	r0, .L17+4
 608 006e FFF7FEFF 		bl	chEvtDispatch
 609              	.LVL81:
 610              		.loc 1 104 0
 611 0072 0420     		movs	r0, #4
 612 0074 0349     		ldr	r1, .L17+8
 613 0076 FFF7FEFF 		bl	_test_assert_sequence
 614              	.LVL82:
 615 007a D7E7     		b	.L13
 616              	.L18:
 617              		.align	2
 618              	.L17:
 619 007c 00000000 		.word	.LANCHOR0
ARM GAS  C:\Users\jenny\AppData\Local\Temp\ccS4KTJ2.s 			page 12


 620 0080 00000000 		.word	.LANCHOR2
 621 0084 04000000 		.word	.LC1
 622              		.cfi_endproc
 623              	.LFE11:
 624              		.size	evt1_execute, .-evt1_execute
 625 0088 AFF30080 		.section	.text.h3,"ax",%progbits
 625      AFF30080 
 626              		.align	2
 627              		.p2align 4,,15
 628              		.thumb
 629              		.thumb_func
 630              		.type	h3, %function
 631              	h3:
 632              	.LFB10:
 633              		.loc 1 82 0
 634              		.cfi_startproc
 635              		@ args = 0, pretend = 0, frame = 0
 636              		@ frame_needed = 0, uses_anonymous_args = 0
 637              		@ link register save eliminated.
 638              	.LVL83:
 639              		.loc 1 82 0
 640 0000 4320     		movs	r0, #67
 641              	.LVL84:
 642 0002 FFF7FEBF 		b	test_emit_token
 643              	.LVL85:
 644              		.cfi_endproc
 645              	.LFE10:
 646              		.size	h3, .-h3
 647 0006 00BFAFF3 		.section	.text.h2,"ax",%progbits
 647      0080AFF3 
 647      0080
 648              		.align	2
 649              		.p2align 4,,15
 650              		.thumb
 651              		.thumb_func
 652              		.type	h2, %function
 653              	h2:
 654              	.LFB9:
 655              		.loc 1 81 0
 656              		.cfi_startproc
 657              		@ args = 0, pretend = 0, frame = 0
 658              		@ frame_needed = 0, uses_anonymous_args = 0
 659              		@ link register save eliminated.
 660              	.LVL86:
 661              		.loc 1 81 0
 662 0000 4220     		movs	r0, #66
 663              	.LVL87:
 664 0002 FFF7FEBF 		b	test_emit_token
 665              	.LVL88:
 666              		.cfi_endproc
 667              	.LFE9:
 668              		.size	h2, .-h2
 669 0006 00BFAFF3 		.section	.text.h1,"ax",%progbits
 669      0080AFF3 
 669      0080
 670              		.align	2
 671              		.p2align 4,,15
ARM GAS  C:\Users\jenny\AppData\Local\Temp\ccS4KTJ2.s 			page 13


 672              		.thumb
 673              		.thumb_func
 674              		.type	h1, %function
 675              	h1:
 676              	.LFB8:
 677              		.loc 1 80 0
 678              		.cfi_startproc
 679              		@ args = 0, pretend = 0, frame = 0
 680              		@ frame_needed = 0, uses_anonymous_args = 0
 681              		@ link register save eliminated.
 682              	.LVL89:
 683              		.loc 1 80 0
 684 0000 4120     		movs	r0, #65
 685              	.LVL90:
 686 0002 FFF7FEBF 		b	test_emit_token
 687              	.LVL91:
 688              		.cfi_endproc
 689              	.LFE8:
 690              		.size	h1, .-h1
 691 0006 00BFAFF3 		.section	.text.evt3_execute,"ax",%progbits
 691      0080AFF3 
 691      0080
 692              		.align	2
 693              		.p2align 4,,15
 694              		.thumb
 695              		.thumb_func
 696              		.type	evt3_execute, %function
 697              	evt3_execute:
 698              	.LFB17:
 699              		.loc 1 252 0
 700              		.cfi_startproc
 701              		@ args = 0, pretend = 0, frame = 0
 702              		@ frame_needed = 0, uses_anonymous_args = 0
 703 0000 08B5     		push	{r3, lr}
 704              	.LCFI6:
 705              		.cfi_def_cfa_offset 8
 706              		.cfi_offset 3, -8
 707              		.cfi_offset 14, -4
 708              		.loc 1 258 0
 709 0002 0021     		movs	r1, #0
 710 0004 4FF0FF30 		mov	r0, #-1
 711 0008 FFF7FEFF 		bl	chEvtWaitOneTimeout
 712              	.LVL92:
 713              		.loc 1 259 0
 714 000c D0F10101 		rsbs	r1, r0, #1
 715 0010 38BF     		it	cc
 716 0012 0021     		movcc	r1, #0
 717 0014 0120     		movs	r0, #1
 718              	.LVL93:
 719 0016 FFF7FEFF 		bl	_test_assert
 720              	.LVL94:
 721 001a 00B1     		cbz	r0, .L26
 722              	.L22:
 723 001c 08BD     		pop	{r3, pc}
 724              	.L26:
 725              		.loc 1 260 0
 726 001e 0146     		mov	r1, r0
ARM GAS  C:\Users\jenny\AppData\Local\Temp\ccS4KTJ2.s 			page 14


 727 0020 4FF0FF30 		mov	r0, #-1
 728 0024 FFF7FEFF 		bl	chEvtWaitAnyTimeout
 729              	.LVL95:
 730              		.loc 1 261 0
 731 0028 D0F10101 		rsbs	r1, r0, #1
 732 002c 38BF     		it	cc
 733 002e 0021     		movcc	r1, #0
 734 0030 0220     		movs	r0, #2
 735              	.LVL96:
 736 0032 FFF7FEFF 		bl	_test_assert
 737              	.LVL97:
 738 0036 0028     		cmp	r0, #0
 739 0038 F0D1     		bne	.L22
 740              		.loc 1 262 0
 741 003a 0146     		mov	r1, r0
 742 003c 4FF0FF30 		mov	r0, #-1
 743 0040 FFF7FEFF 		bl	chEvtWaitAllTimeout
 744              	.LVL98:
 745              		.loc 1 263 0
 746 0044 D0F10101 		rsbs	r1, r0, #1
 747 0048 38BF     		it	cc
 748 004a 0021     		movcc	r1, #0
 749 004c 0320     		movs	r0, #3
 750              	.LVL99:
 751 004e FFF7FEFF 		bl	_test_assert
 752              	.LVL100:
 753 0052 0028     		cmp	r0, #0
 754 0054 E2D1     		bne	.L22
 755              	.LBB4:
 756              	.LBB5:
 757              		.loc 1 264 0
 758 0056 0A21     		movs	r1, #10
 759 0058 4FF0FF30 		mov	r0, #-1
 760 005c FFF7FEFF 		bl	chEvtWaitOneTimeout
 761              	.LVL101:
 762              		.loc 1 265 0
 763 0060 D0F10101 		rsbs	r1, r0, #1
 764 0064 38BF     		it	cc
 765 0066 0021     		movcc	r1, #0
 766 0068 0420     		movs	r0, #4
 767              	.LVL102:
 768 006a FFF7FEFF 		bl	_test_assert
 769              	.LVL103:
 770 006e 0028     		cmp	r0, #0
 771 0070 D4D1     		bne	.L22
 772              		.loc 1 266 0
 773 0072 0A21     		movs	r1, #10
 774 0074 4FF0FF30 		mov	r0, #-1
 775 0078 FFF7FEFF 		bl	chEvtWaitAnyTimeout
 776              	.LVL104:
 777              		.loc 1 267 0
 778 007c D0F10101 		rsbs	r1, r0, #1
 779 0080 38BF     		it	cc
 780 0082 0021     		movcc	r1, #0
 781 0084 0520     		movs	r0, #5
 782              	.LVL105:
 783 0086 FFF7FEFF 		bl	_test_assert
ARM GAS  C:\Users\jenny\AppData\Local\Temp\ccS4KTJ2.s 			page 15


 784              	.LVL106:
 785 008a 0028     		cmp	r0, #0
 786 008c C6D1     		bne	.L22
 787              		.loc 1 268 0
 788 008e 0A21     		movs	r1, #10
 789 0090 4FF0FF30 		mov	r0, #-1
 790 0094 FFF7FEFF 		bl	chEvtWaitAllTimeout
 791              	.LVL107:
 792              		.loc 1 269 0
 793 0098 D0F10101 		rsbs	r1, r0, #1
 794 009c 38BF     		it	cc
 795 009e 0021     		movcc	r1, #0
 796 00a0 0620     		movs	r0, #6
 797              	.LVL108:
 798              	.LBE5:
 799              	.LBE4:
 800              		.loc 1 270 0
 801 00a2 BDE80840 		pop	{r3, lr}
 802              	.LBB7:
 803              	.LBB6:
 804              		.loc 1 269 0
 805 00a6 FFF7FEBF 		b	_test_assert
 806              	.LVL109:
 807              	.LBE6:
 808              	.LBE7:
 809              		.cfi_endproc
 810              	.LFE17:
 811              		.size	evt3_execute, .-evt3_execute
 812              		.global	patternevt
 813              		.global	testevt3
 814              		.global	testevt2
 815              		.global	testevt1
 816 00aa 00BFAFF3 		.section	.rodata.patternevt,"a",%progbits
 816      0080
 817              		.align	2
 818              		.type	patternevt, %object
 819              		.size	patternevt, 16
 820              	patternevt:
 821 0000 00000000 		.word	testevt1
 822 0004 00000000 		.word	testevt2
 823 0008 00000000 		.word	testevt3
 824 000c 00000000 		.word	0
 825              		.section	.rodata.testevt2,"a",%progbits
 826              		.align	2
 827              		.type	testevt2, %object
 828              		.size	testevt2, 16
 829              	testevt2:
 830 0000 1C000000 		.word	.LC3
 831 0004 00000000 		.word	evt2_setup
 832 0008 00000000 		.word	0
 833 000c 00000000 		.word	evt2_execute
 834              		.section	.rodata.str1.4,"aMS",%progbits,1
 835              		.align	2
 836              	.LC0:
 837 0000 4100     		.ascii	"A\000"
 838 0002 0000     		.space	2
 839              	.LC1:
ARM GAS  C:\Users\jenny\AppData\Local\Temp\ccS4KTJ2.s 			page 16


 840 0004 41424300 		.ascii	"ABC\000"
 841              	.LC2:
 842 0008 4576656E 		.ascii	"Events, timeouts\000"
 842      74732C20 
 842      74696D65 
 842      6F757473 
 842      00
 843 0019 000000   		.space	3
 844              	.LC3:
 845 001c 4576656E 		.ascii	"Events, wait and broadcast\000"
 845      74732C20 
 845      77616974 
 845      20616E64 
 845      2062726F 
 846 0037 00       		.space	1
 847              	.LC4:
 848 0038 4576656E 		.ascii	"Events, registration and dispatch\000"
 848      74732C20 
 848      72656769 
 848      73747261 
 848      74696F6E 
 849 005a 0000     		.section	.rodata.testevt1,"a",%progbits
 850              		.align	2
 851              		.type	testevt1, %object
 852              		.size	testevt1, 16
 853              	testevt1:
 854 0000 38000000 		.word	.LC4
 855 0004 00000000 		.word	evt1_setup
 856 0008 00000000 		.word	0
 857 000c 00000000 		.word	evt1_execute
 858              		.section	.rodata.evhndl,"a",%progbits
 859              		.align	2
 860              		.set	.LANCHOR2,. + 0
 861              		.type	evhndl, %object
 862              		.size	evhndl, 12
 863              	evhndl:
 864 0000 00000000 		.word	h1
 865 0004 00000000 		.word	h2
 866 0008 00000000 		.word	h3
 867              		.section	.rodata.testevt3,"a",%progbits
 868              		.align	2
 869              		.type	testevt3, %object
 870              		.size	testevt3, 16
 871              	testevt3:
 872 0000 08000000 		.word	.LC2
 873 0004 00000000 		.word	evt3_setup
 874 0008 00000000 		.word	0
 875 000c 00000000 		.word	evt3_execute
 876              		.section	.data.es1,"aw",%progbits
 877              		.align	2
 878              		.set	.LANCHOR0,. + 0
 879              		.type	es1, %object
 880              		.size	es1, 4
 881              	es1:
 882 0000 00000000 		.word	es1
 883              		.section	.data.es2,"aw",%progbits
 884              		.align	2
ARM GAS  C:\Users\jenny\AppData\Local\Temp\ccS4KTJ2.s 			page 17


 885              		.set	.LANCHOR1,. + 0
 886              		.type	es2, %object
 887              		.size	es2, 4
 888              	es2:
 889 0000 00000000 		.word	es2
 890              		.text
 891              	.Letext0:
 892              		.file 2 "c:\\fbin\\yagarto\\bin\\../lib/gcc/arm-none-eabi/4.7.4/include/stddef.h"
 893              		.file 3 "c:\\fbin\\yagarto\\bin\\../lib/gcc/arm-none-eabi/4.7.4/../../../../arm-none-eabi/include/
 894              		.file 4 "../../os/ports/GCC/ARMCMx/chtypes.h"
 895              		.file 5 "../../os/kernel/include/chlists.h"
 896              		.file 6 "../../os/kernel/include/chthreads.h"
 897              		.file 7 "../../os/ports/GCC/ARMCMx/chcore_v7m.h"
 898              		.file 8 "../../os/kernel/include/chvt.h"
 899              		.file 9 "../../os/kernel/include/chschd.h"
 900              		.file 10 "../../os/kernel/include/chmtx.h"
 901              		.file 11 "../../os/kernel/include/chevents.h"
 902              		.file 12 "../../test/test.h"