ARM GAS  C:\Users\jenny\AppData\Local\Temp\ccSihPnk.s 			page 1


   1              		.syntax unified
   2              		.cpu cortex-m4
   3              		.eabi_attribute 27, 3
   4              		.fpu fpv4-sp-d16
   5              		.eabi_attribute 20, 1
   6              		.eabi_attribute 21, 1
   7              		.eabi_attribute 23, 3
   8              		.eabi_attribute 24, 1
   9              		.eabi_attribute 25, 1
  10              		.eabi_attribute 26, 1
  11              		.eabi_attribute 30, 2
  12              		.eabi_attribute 34, 1
  13              		.eabi_attribute 18, 4
  14              		.thumb
  15              		.file	"testsem.c"
  16              		.text
  17              	.Ltext0:
  18              		.cfi_sections	.debug_frame
  19              		.section	.text.sem3_setup,"ax",%progbits
  20              		.align	2
  21              		.p2align 4,,15
  22              		.thumb
  23              		.thumb_func
  24              		.type	sem3_setup, %function
  25              	sem3_setup:
  26              	.LFB13:
  27              		.file 1 "../../test/testsem.c"
  28              		.loc 1 204 0
  29              		.cfi_startproc
  30              		@ args = 0, pretend = 0, frame = 0
  31              		@ frame_needed = 0, uses_anonymous_args = 0
  32              		@ link register save eliminated.
  33              		.loc 1 206 0
  34 0000 40F20000 		movw	r0, #:lower16:.LANCHOR0
  35 0004 C0F20000 		movt	r0, #:upper16:.LANCHOR0
  36 0008 0021     		movs	r1, #0
  37              		.loc 1 207 0
  38              		.loc 1 206 0
  39 000a FFF7FEBF 		b	chSemInit
  40              	.LVL0:
  41              		.cfi_endproc
  42              	.LFE13:
  43              		.size	sem3_setup, .-sem3_setup
  44 000e 00BF     		.section	.text.sem2_setup,"ax",%progbits
  45              		.align	2
  46              		.p2align 4,,15
  47              		.thumb
  48              		.thumb_func
  49              		.type	sem2_setup, %function
  50              	sem2_setup:
  51              	.LFB10:
  52              		.loc 1 128 0
  53              		.cfi_startproc
  54              		@ args = 0, pretend = 0, frame = 0
  55              		@ frame_needed = 0, uses_anonymous_args = 0
  56              		@ link register save eliminated.
  57              		.loc 1 130 0
ARM GAS  C:\Users\jenny\AppData\Local\Temp\ccSihPnk.s 			page 2


  58 0000 40F20000 		movw	r0, #:lower16:.LANCHOR0
  59 0004 C0F20000 		movt	r0, #:upper16:.LANCHOR0
  60 0008 0021     		movs	r1, #0
  61              		.loc 1 131 0
  62              		.loc 1 130 0
  63 000a FFF7FEBF 		b	chSemInit
  64              	.LVL1:
  65              		.cfi_endproc
  66              	.LFE10:
  67              		.size	sem2_setup, .-sem2_setup
  68 000e 00BF     		.section	.text.sem1_setup,"ax",%progbits
  69              		.align	2
  70              		.p2align 4,,15
  71              		.thumb
  72              		.thumb_func
  73              		.type	sem1_setup, %function
  74              	sem1_setup:
  75              	.LFB7:
  76              		.loc 1 72 0
  77              		.cfi_startproc
  78              		@ args = 0, pretend = 0, frame = 0
  79              		@ frame_needed = 0, uses_anonymous_args = 0
  80              		@ link register save eliminated.
  81              		.loc 1 74 0
  82 0000 40F20000 		movw	r0, #:lower16:.LANCHOR0
  83 0004 C0F20000 		movt	r0, #:upper16:.LANCHOR0
  84 0008 0021     		movs	r1, #0
  85              		.loc 1 75 0
  86              		.loc 1 74 0
  87 000a FFF7FEBF 		b	chSemInit
  88              	.LVL2:
  89              		.cfi_endproc
  90              	.LFE7:
  91              		.size	sem1_setup, .-sem1_setup
  92 000e 00BF     		.section	.text.sem4_execute,"ax",%progbits
  93              		.align	2
  94              		.p2align 4,,15
  95              		.thumb
  96              		.thumb_func
  97              		.type	sem4_execute, %function
  98              	sem4_execute:
  99              	.LFB17:
 100              		.loc 1 251 0
 101              		.cfi_startproc
 102              		@ args = 0, pretend = 0, frame = 16
 103              		@ frame_needed = 0, uses_anonymous_args = 0
 104 0000 00B5     		push	{lr}
 105              	.LCFI0:
 106              		.cfi_def_cfa_offset 4
 107              		.cfi_offset 14, -4
 108 0002 87B0     		sub	sp, sp, #28
 109              	.LCFI1:
 110              		.cfi_def_cfa_offset 32
 111              		.loc 1 255 0
 112 0004 0021     		movs	r1, #0
 113 0006 03A8     		add	r0, sp, #12
 114 0008 FFF7FEFF 		bl	chSemInit
ARM GAS  C:\Users\jenny\AppData\Local\Temp\ccSihPnk.s 			page 3


 115              	.LVL3:
 116              		.loc 1 256 0
 117 000c 0021     		movs	r1, #0
 118 000e 03A8     		add	r0, sp, #12
 119 0010 FFF7FEFF 		bl	chSemReset
 120              	.LVL4:
 121              		.loc 1 257 0
 122 0014 0599     		ldr	r1, [sp, #20]
 123 0016 0120     		movs	r0, #1
 124 0018 0029     		cmp	r1, #0
 125 001a CCBF     		ite	gt
 126 001c 0021     		movgt	r1, #0
 127 001e 0121     		movle	r1, #1
 128 0020 FFF7FEFF 		bl	_test_assert
 129              	.LVL5:
 130 0024 08B1     		cbz	r0, .L10
 131              	.L4:
 132              		.loc 1 279 0
 133 0026 07B0     		add	sp, sp, #28
 134 0028 00BD     		pop	{pc}
 135              	.L10:
 136              		.loc 1 261 0
 137 002a 304B     		ldr	r3, .L13
 138 002c 9869     		ldr	r0, [r3, #24]
 139              		.loc 1 260 0
 140 002e 304B     		ldr	r3, .L13+4
 141 0030 8268     		ldr	r2, [r0, #8]
 142 0032 3048     		ldr	r0, .L13+8
 143 0034 03A9     		add	r1, sp, #12
 144 0036 013A     		subs	r2, r2, #1
 145 0038 0091     		str	r1, [sp, #0]
 146 003a 0068     		ldr	r0, [r0, #0]
 147 003c 4FF4DC71 		mov	r1, #440
 148 0040 FFF7FEFF 		bl	chThdCreateStatic
 149              	.LVL6:
 150 0044 2C4B     		ldr	r3, .L13+12
 151 0046 1860     		str	r0, [r3, #0]
 152              		.loc 1 264 0
 153 0048 03A8     		add	r0, sp, #12
 154 004a FFF7FEFF 		bl	chSemWait
 155              	.LVL7:
 156              		.loc 1 267 0
 157 004e 0599     		ldr	r1, [sp, #20]
 158 0050 0220     		movs	r0, #2
 159 0052 0029     		cmp	r1, #0
 160 0054 CCBF     		ite	gt
 161 0056 0021     		movgt	r1, #0
 162 0058 0121     		movle	r1, #1
 163 005a FFF7FEFF 		bl	_test_assert
 164              	.LVL8:
 165 005e 0028     		cmp	r0, #0
 166 0060 E1D1     		bne	.L4
 167              	.LBB2:
 168              		.loc 1 271 0
 169 0062 2023     		movs	r3, #32
 170              	.LVL9:
 171              	@ 271 "../../test/testsem.c" 1
ARM GAS  C:\Users\jenny\AppData\Local\Temp\ccSihPnk.s 			page 4


 172 0064 83F31188 		msr     BASEPRI, r3
 173              	@ 0 "" 2
 174              	.LVL10:
 175              		.thumb
 176              	.LBE2:
 177 0068 059A     		ldr	r2, [sp, #20]
 178 006a 002A     		cmp	r2, #0
 179 006c 36DD     		ble	.L11
 180              	.L6:
 181              		.loc 1 271 0 is_stmt 0 discriminator 2
 182 006e FFF7FEFF 		bl	chSchRescheduleS
 183              	.LVL11:
 184              	.LBB3:
 185 0072 0023     		movs	r3, #0
 186              	.LVL12:
 187              	@ 271 "../../test/testsem.c" 1
 188 0074 83F31188 		msr     BASEPRI, r3
 189              	@ 0 "" 2
 190              	.LVL13:
 191              		.thumb
 192              	.LBE3:
 193              		.loc 1 272 0 is_stmt 1 discriminator 2
 194 0078 0599     		ldr	r1, [sp, #20]
 195 007a 0320     		movs	r0, #3
 196 007c 9942     		cmp	r1, r3
 197              	.LVL14:
 198 007e D4BF     		ite	le
 199 0080 0021     		movle	r1, #0
 200 0082 0121     		movgt	r1, #1
 201 0084 FFF7FEFF 		bl	_test_assert
 202              	.LVL15:
 203 0088 0028     		cmp	r0, #0
 204 008a CCD1     		bne	.L4
 205              		.loc 1 273 0
 206 008c 0599     		ldr	r1, [sp, #20]
 207 008e 0420     		movs	r0, #4
 208 0090 4B1E     		subs	r3, r1, #1
 209 0092 5A42     		rsbs	r2, r3, #0
 210 0094 52EB0301 		adcs	r1, r2, r3
 211 0098 FFF7FEFF 		bl	_test_assert
 212              	.LVL16:
 213 009c 0028     		cmp	r0, #0
 214 009e C2D1     		bne	.L4
 215              	.LBB4:
 216              		.loc 1 276 0
 217 00a0 2023     		movs	r3, #32
 218              	.LVL17:
 219              	@ 276 "../../test/testsem.c" 1
 220 00a2 83F31188 		msr     BASEPRI, r3
 221              	@ 0 "" 2
 222              	.LVL18:
 223              		.thumb
 224              	.LBE4:
 225 00a6 0598     		ldr	r0, [sp, #20]
 226 00a8 0028     		cmp	r0, #0
 227 00aa 1BDD     		ble	.L12
 228              	.L7:
ARM GAS  C:\Users\jenny\AppData\Local\Temp\ccSihPnk.s 			page 5


 229              		.loc 1 276 0 is_stmt 0 discriminator 2
 230 00ac FFF7FEFF 		bl	chSchRescheduleS
 231              	.LVL19:
 232              	.LBB5:
 233 00b0 0023     		movs	r3, #0
 234              	.LVL20:
 235              	@ 276 "../../test/testsem.c" 1
 236 00b2 83F31188 		msr     BASEPRI, r3
 237              	@ 0 "" 2
 238              	.LVL21:
 239              		.thumb
 240              	.LBE5:
 241              		.loc 1 277 0 is_stmt 1 discriminator 2
 242 00b6 0599     		ldr	r1, [sp, #20]
 243 00b8 0320     		movs	r0, #3
 244 00ba 9942     		cmp	r1, r3
 245              	.LVL22:
 246 00bc D4BF     		ite	le
 247 00be 0021     		movle	r1, #0
 248 00c0 0121     		movgt	r1, #1
 249 00c2 FFF7FEFF 		bl	_test_assert
 250              	.LVL23:
 251 00c6 0028     		cmp	r0, #0
 252 00c8 ADD1     		bne	.L4
 253              		.loc 1 278 0
 254 00ca 0599     		ldr	r1, [sp, #20]
 255 00cc 0520     		movs	r0, #5
 256 00ce 4B1E     		subs	r3, r1, #1
 257 00d0 5A42     		rsbs	r2, r3, #0
 258 00d2 52EB0301 		adcs	r1, r2, r3
 259 00d6 FFF7FEFF 		bl	_test_assert
 260              	.LVL24:
 261 00da A4E7     		b	.L4
 262              	.LVL25:
 263              	.L11:
 264              		.loc 1 271 0 discriminator 1
 265 00dc 03A8     		add	r0, sp, #12
 266 00de FFF7FEFF 		bl	chSemSignalI
 267              	.LVL26:
 268 00e2 C4E7     		b	.L6
 269              	.LVL27:
 270              	.L12:
 271              		.loc 1 276 0 discriminator 1
 272 00e4 03A8     		add	r0, sp, #12
 273 00e6 FFF7FEFF 		bl	chSemSignalI
 274              	.LVL28:
 275 00ea DFE7     		b	.L7
 276              	.L14:
 277              		.align	2
 278              	.L13:
 279 00ec 00000000 		.word	rlist
 280 00f0 00000000 		.word	thread4
 281 00f4 00000000 		.word	wa
 282 00f8 00000000 		.word	threads
 283              		.cfi_endproc
 284              	.LFE17:
 285              		.size	sem4_execute, .-sem4_execute
ARM GAS  C:\Users\jenny\AppData\Local\Temp\ccSihPnk.s 			page 6


 286 00fc AFF30080 		.section	.text.thread4,"ax",%progbits
 287              		.align	2
 288              		.p2align 4,,15
 289              		.thumb
 290              		.thumb_func
 291              		.type	thread4, %function
 292              	thread4:
 293              	.LFB16:
 294              		.loc 1 245 0
 295              		.cfi_startproc
 296              		@ args = 0, pretend = 0, frame = 0
 297              		@ frame_needed = 0, uses_anonymous_args = 0
 298              	.LVL29:
 299 0000 08B5     		push	{r3, lr}
 300              	.LCFI2:
 301              		.cfi_def_cfa_offset 8
 302              		.cfi_offset 3, -8
 303              		.cfi_offset 14, -4
 304              	.LBB6:
 305              		.loc 1 247 0
 306 0002 2023     		movs	r3, #32
 307              	.LVL30:
 308              	@ 247 "../../test/testsem.c" 1
 309 0004 83F31188 		msr     BASEPRI, r3
 310              	@ 0 "" 2
 311              	.LVL31:
 312              		.thumb
 313              	.LBE6:
 314 0008 8368     		ldr	r3, [r0, #8]
 315              	.LVL32:
 316 000a 002B     		cmp	r3, #0
 317 000c 06DD     		ble	.L17
 318              	.LVL33:
 319              	.L16:
 320              		.loc 1 247 0 is_stmt 0 discriminator 2
 321 000e FFF7FEFF 		bl	chSchRescheduleS
 322              	.LVL34:
 323              	.LBB7:
 324 0012 0023     		movs	r3, #0
 325              	.LVL35:
 326              	@ 247 "../../test/testsem.c" 1
 327 0014 83F31188 		msr     BASEPRI, r3
 328              	@ 0 "" 2
 329              	.LVL36:
 330              		.thumb
 331              	.LBE7:
 332              		.loc 1 249 0 is_stmt 1 discriminator 2
 333 0018 1846     		mov	r0, r3
 334 001a 08BD     		pop	{r3, pc}
 335              	.LVL37:
 336              	.L17:
 337              		.loc 1 247 0 discriminator 1
 338 001c FFF7FEFF 		bl	chSemSignalI
 339              	.LVL38:
 340 0020 F5E7     		b	.L16
 341              		.cfi_endproc
 342              	.LFE16:
ARM GAS  C:\Users\jenny\AppData\Local\Temp\ccSihPnk.s 			page 7


 343              		.size	thread4, .-thread4
 344 0022 00BFAFF3 		.section	.text.thread3,"ax",%progbits
 344      0080AFF3 
 344      0080AFF3 
 344      0080
 345              		.align	2
 346              		.p2align 4,,15
 347              		.thumb
 348              		.thumb_func
 349              		.type	thread3, %function
 350              	thread3:
 351              	.LFB14:
 352              		.loc 1 209 0
 353              		.cfi_startproc
 354              		@ args = 0, pretend = 0, frame = 0
 355              		@ frame_needed = 0, uses_anonymous_args = 0
 356              	.LVL39:
 357 0000 10B5     		push	{r4, lr}
 358              	.LCFI3:
 359              		.cfi_def_cfa_offset 8
 360              		.cfi_offset 4, -8
 361              		.cfi_offset 14, -4
 362              		.loc 1 212 0
 363 0002 40F20004 		movw	r4, #:lower16:.LANCHOR0
 364 0006 C0F20004 		movt	r4, #:upper16:.LANCHOR0
 365 000a 2046     		mov	r0, r4
 366              	.LVL40:
 367 000c FFF7FEFF 		bl	chSemWait
 368              	.LVL41:
 369              		.loc 1 213 0
 370 0010 2046     		mov	r0, r4
 371 0012 FFF7FEFF 		bl	chSemSignal
 372              	.LVL42:
 373              		.loc 1 215 0
 374 0016 0020     		movs	r0, #0
 375 0018 10BD     		pop	{r4, pc}
 376              		.cfi_endproc
 377              	.LFE14:
 378              		.size	thread3, .-thread3
 379 001a 00BFAFF3 		.section	.text.thread1,"ax",%progbits
 379      0080
 380              		.align	2
 381              		.p2align 4,,15
 382              		.thumb
 383              		.thumb_func
 384              		.type	thread1, %function
 385              	thread1:
 386              	.LFB8:
 387              		.loc 1 77 0
 388              		.cfi_startproc
 389              		@ args = 0, pretend = 0, frame = 0
 390              		@ frame_needed = 0, uses_anonymous_args = 0
 391              	.LVL43:
 392 0000 10B5     		push	{r4, lr}
 393              	.LCFI4:
 394              		.cfi_def_cfa_offset 8
 395              		.cfi_offset 4, -8
ARM GAS  C:\Users\jenny\AppData\Local\Temp\ccSihPnk.s 			page 8


 396              		.cfi_offset 14, -4
 397              		.loc 1 77 0
 398 0002 0446     		mov	r4, r0
 399              		.loc 1 79 0
 400 0004 40F20000 		movw	r0, #:lower16:.LANCHOR0
 401              	.LVL44:
 402 0008 C0F20000 		movt	r0, #:upper16:.LANCHOR0
 403 000c FFF7FEFF 		bl	chSemWait
 404              	.LVL45:
 405              		.loc 1 80 0
 406 0010 2078     		ldrb	r0, [r4, #0]	@ zero_extendqisi2
 407 0012 FFF7FEFF 		bl	test_emit_token
 408              	.LVL46:
 409              		.loc 1 82 0
 410 0016 0020     		movs	r0, #0
 411 0018 10BD     		pop	{r4, pc}
 412              		.cfi_endproc
 413              	.LFE8:
 414              		.size	thread1, .-thread1
 415 001a 00BFAFF3 		.section	.text.thread2,"ax",%progbits
 415      0080
 416              		.align	2
 417              		.p2align 4,,15
 418              		.thumb
 419              		.thumb_func
 420              		.type	thread2, %function
 421              	thread2:
 422              	.LFB11:
 423              		.loc 1 133 0
 424              		.cfi_startproc
 425              		@ args = 0, pretend = 0, frame = 0
 426              		@ frame_needed = 0, uses_anonymous_args = 0
 427              	.LVL47:
 428 0000 08B5     		push	{r3, lr}
 429              	.LCFI5:
 430              		.cfi_def_cfa_offset 8
 431              		.cfi_offset 3, -8
 432              		.cfi_offset 14, -4
 433              		.loc 1 136 0
 434 0002 3220     		movs	r0, #50
 435              	.LVL48:
 436 0004 FFF7FEFF 		bl	chThdSleep
 437              	.LVL49:
 438              	.LBB8:
 439              		.loc 1 137 0
 440 0008 2023     		movs	r3, #32
 441              	.LVL50:
 442              	@ 137 "../../test/testsem.c" 1
 443 000a 83F31188 		msr     BASEPRI, r3
 444              	@ 0 "" 2
 445              	.LVL51:
 446              		.thumb
 447              	.LBE8:
 448              		.loc 1 138 0
 449 000e 40F20000 		movw	r0, #:lower16:.LANCHOR0
 450 0012 C0F20000 		movt	r0, #:upper16:.LANCHOR0
 451 0016 FFF7FEFF 		bl	chSemSignalI
ARM GAS  C:\Users\jenny\AppData\Local\Temp\ccSihPnk.s 			page 9


 452              	.LVL52:
 453              		.loc 1 139 0
 454 001a FFF7FEFF 		bl	chSchRescheduleS
 455              	.LVL53:
 456              	.LBB9:
 457              		.loc 1 140 0
 458 001e 0023     		movs	r3, #0
 459              	.LVL54:
 460              	@ 140 "../../test/testsem.c" 1
 461 0020 83F31188 		msr     BASEPRI, r3
 462              	@ 0 "" 2
 463              	.LVL55:
 464              		.thumb
 465              	.LBE9:
 466              		.loc 1 142 0
 467 0024 1846     		mov	r0, r3
 468 0026 08BD     		pop	{r3, pc}
 469              		.cfi_endproc
 470              	.LFE11:
 471              		.size	thread2, .-thread2
 472 0028 AFF30080 		.section	.text.sem1_execute,"ax",%progbits
 472      AFF30080 
 473              		.align	2
 474              		.p2align 4,,15
 475              		.thumb
 476              		.thumb_func
 477              		.type	sem1_execute, %function
 478              	sem1_execute:
 479              	.LFB9:
 480              		.loc 1 84 0
 481              		.cfi_startproc
 482              		@ args = 0, pretend = 0, frame = 8
 483              		@ frame_needed = 0, uses_anonymous_args = 0
 484 0000 2DE9F043 		push	{r4, r5, r6, r7, r8, r9, lr}
 485              	.LCFI6:
 486              		.cfi_def_cfa_offset 28
 487              		.cfi_offset 4, -28
 488              		.cfi_offset 5, -24
 489              		.cfi_offset 6, -20
 490              		.cfi_offset 7, -16
 491              		.cfi_offset 8, -12
 492              		.cfi_offset 9, -8
 493              		.cfi_offset 14, -4
 494              		.loc 1 86 0
 495 0004 DFF84081 		ldr	r8, .L24+40
 496 0008 454C     		ldr	r4, .L24
 497 000a D8F81830 		ldr	r3, [r8, #24]
 498 000e 2668     		ldr	r6, [r4, #0]
 499 0010 9A68     		ldr	r2, [r3, #8]
 500 0012 444F     		ldr	r7, .L24+4
 501 0014 444B     		ldr	r3, .L24+8
 502 0016 454D     		ldr	r5, .L24+12
 503              		.loc 1 84 0
 504 0018 85B0     		sub	sp, sp, #20
 505              	.LCFI7:
 506              		.cfi_def_cfa_offset 48
 507              		.loc 1 86 0
ARM GAS  C:\Users\jenny\AppData\Local\Temp\ccSihPnk.s 			page 10


 508 001a 4FF4DC71 		mov	r1, #440
 509 001e 0532     		adds	r2, r2, #5
 510 0020 0097     		str	r7, [sp, #0]
 511 0022 3046     		mov	r0, r6
 512 0024 FFF7FEFF 		bl	chThdCreateStatic
 513              	.LVL56:
 514              		.loc 1 87 0
 515 0028 D8F81810 		ldr	r1, [r8, #24]
 516 002c 6368     		ldr	r3, [r4, #4]
 517 002e 8A68     		ldr	r2, [r1, #8]
 518              		.loc 1 86 0
 519 0030 2860     		str	r0, [r5, #0]
 520              		.loc 1 87 0
 521 0032 3F48     		ldr	r0, .L24+16
 522 0034 0393     		str	r3, [sp, #12]
 523 0036 4FF4DC71 		mov	r1, #440
 524 003a 0132     		adds	r2, r2, #1
 525 003c 3A4B     		ldr	r3, .L24+8
 526 003e 0090     		str	r0, [sp, #0]
 527 0040 0398     		ldr	r0, [sp, #12]
 528 0042 FFF7FEFF 		bl	chThdCreateStatic
 529              	.LVL57:
 530              		.loc 1 88 0
 531 0046 D8F81810 		ldr	r1, [r8, #24]
 532 004a A268     		ldr	r2, [r4, #8]
 533 004c 8B68     		ldr	r3, [r1, #8]
 534              		.loc 1 87 0
 535 004e 6860     		str	r0, [r5, #4]
 536              		.loc 1 88 0
 537 0050 3848     		ldr	r0, .L24+20
 538 0052 0392     		str	r2, [sp, #12]
 539 0054 4FF4DC71 		mov	r1, #440
 540 0058 DA1C     		adds	r2, r3, #3
 541 005a 0090     		str	r0, [sp, #0]
 542 005c 324B     		ldr	r3, .L24+8
 543 005e 0398     		ldr	r0, [sp, #12]
 544 0060 FFF7FEFF 		bl	chThdCreateStatic
 545              	.LVL58:
 546              		.loc 1 89 0
 547 0064 D8F81810 		ldr	r1, [r8, #24]
 548 0068 E268     		ldr	r2, [r4, #12]
 549 006a 8B68     		ldr	r3, [r1, #8]
 550              		.loc 1 88 0
 551 006c A860     		str	r0, [r5, #8]
 552              		.loc 1 89 0
 553 006e 3248     		ldr	r0, .L24+24
 554 0070 0392     		str	r2, [sp, #12]
 555 0072 4FF4DC71 		mov	r1, #440
 556 0076 1A1D     		adds	r2, r3, #4
 557 0078 0090     		str	r0, [sp, #0]
 558 007a 2B4B     		ldr	r3, .L24+8
 559 007c 0398     		ldr	r0, [sp, #12]
 560 007e FFF7FEFF 		bl	chThdCreateStatic
 561              	.LVL59:
 562              		.loc 1 90 0
 563 0082 D8F81810 		ldr	r1, [r8, #24]
 564 0086 2469     		ldr	r4, [r4, #16]
ARM GAS  C:\Users\jenny\AppData\Local\Temp\ccSihPnk.s 			page 11


 565 0088 8A68     		ldr	r2, [r1, #8]
 566              		.loc 1 89 0
 567 008a E860     		str	r0, [r5, #12]
 568              		.loc 1 90 0
 569 008c 2B48     		ldr	r0, .L24+28
 570 008e 264B     		ldr	r3, .L24+8
 571 0090 0090     		str	r0, [sp, #0]
 572 0092 4FF4DC71 		mov	r1, #440
 573 0096 0232     		adds	r2, r2, #2
 574 0098 2046     		mov	r0, r4
 575 009a FFF7FEFF 		bl	chThdCreateStatic
 576              	.LVL60:
 577              		.loc 1 91 0
 578 009e 284C     		ldr	r4, .L24+32
 579              		.loc 1 90 0
 580 00a0 2861     		str	r0, [r5, #16]
 581              		.loc 1 91 0
 582 00a2 2046     		mov	r0, r4
 583 00a4 FFF7FEFF 		bl	chSemSignal
 584              	.LVL61:
 585              		.loc 1 92 0
 586 00a8 2046     		mov	r0, r4
 587 00aa FFF7FEFF 		bl	chSemSignal
 588              	.LVL62:
 589              		.loc 1 93 0
 590 00ae 2046     		mov	r0, r4
 591 00b0 FFF7FEFF 		bl	chSemSignal
 592              	.LVL63:
 593              		.loc 1 94 0
 594 00b4 2046     		mov	r0, r4
 595 00b6 FFF7FEFF 		bl	chSemSignal
 596              	.LVL64:
 597              		.loc 1 95 0
 598 00ba 2046     		mov	r0, r4
 599 00bc FFF7FEFF 		bl	chSemSignal
 600              	.LVL65:
 601              		.loc 1 96 0
 602 00c0 FFF7FEFF 		bl	test_wait_threads
 603              	.LVL66:
 604              		.loc 1 100 0
 605 00c4 0120     		movs	r0, #1
 606 00c6 1F49     		ldr	r1, .L24+36
 607 00c8 FFF7FEFF 		bl	_test_assert_sequence
 608              	.LVL67:
 609 00cc 8146     		mov	r9, r0
 610 00ce 10B1     		cbz	r0, .L23
 611              		.loc 1 108 0
 612 00d0 05B0     		add	sp, sp, #20
 613 00d2 BDE8F083 		pop	{r4, r5, r6, r7, r8, r9, pc}
 614              	.L23:
 615              		.loc 1 102 0
 616 00d6 D8F81810 		ldr	r1, [r8, #24]
 617 00da 134B     		ldr	r3, .L24+8
 618 00dc 8A68     		ldr	r2, [r1, #8]
 619 00de 0097     		str	r7, [sp, #0]
 620 00e0 3046     		mov	r0, r6
 621 00e2 4FF4DC71 		mov	r1, #440
ARM GAS  C:\Users\jenny\AppData\Local\Temp\ccSihPnk.s 			page 12


 622 00e6 0532     		adds	r2, r2, #5
 623 00e8 FFF7FEFF 		bl	chThdCreateStatic
 624              	.LVL68:
 625              	.LBB10:
 626              		.loc 1 103 0
 627 00ec 2023     		movs	r3, #32
 628              	.LVL69:
 629              	.LBE10:
 630              		.loc 1 102 0
 631 00ee 2860     		str	r0, [r5, #0]
 632              	.LBB11:
 633              		.loc 1 103 0
 634              	@ 103 "../../test/testsem.c" 1
 635 00f0 83F31188 		msr     BASEPRI, r3
 636              	@ 0 "" 2
 637              	.LVL70:
 638              		.thumb
 639              	.LBE11:
 640              		.loc 1 104 0
 641 00f4 0221     		movs	r1, #2
 642 00f6 2046     		mov	r0, r4
 643 00f8 FFF7FEFF 		bl	chSemAddCounterI
 644              	.LVL71:
 645              	.LBB12:
 646              		.loc 1 105 0
 647 00fc 4B46     		mov	r3, r9
 648              	.LVL72:
 649              	@ 105 "../../test/testsem.c" 1
 650 00fe 83F31188 		msr     BASEPRI, r3
 651              	@ 0 "" 2
 652              	.LVL73:
 653              		.thumb
 654              	.LBE12:
 655              		.loc 1 106 0
 656 0102 FFF7FEFF 		bl	test_wait_threads
 657              	.LVL74:
 658              		.loc 1 107 0
 659 0106 A368     		ldr	r3, [r4, #8]
 660 0108 0220     		movs	r0, #2
 661 010a B3F1010E 		subs	lr, r3, #1
 662 010e DEF10001 		rsbs	r1, lr, #0
 663 0112 51EB0E01 		adcs	r1, r1, lr
 664              		.loc 1 108 0
 665 0116 05B0     		add	sp, sp, #20
 666 0118 BDE8F043 		pop	{r4, r5, r6, r7, r8, r9, lr}
 667              		.loc 1 107 0
 668 011c FFF7FEBF 		b	_test_assert
 669              	.LVL75:
 670              	.L25:
 671              		.align	2
 672              	.L24:
 673 0120 00000000 		.word	wa
 674 0124 00000000 		.word	.LC0
 675 0128 00000000 		.word	thread1
 676 012c 00000000 		.word	threads
 677 0130 04000000 		.word	.LC1
 678 0134 08000000 		.word	.LC2
ARM GAS  C:\Users\jenny\AppData\Local\Temp\ccSihPnk.s 			page 13


 679 0138 0C000000 		.word	.LC3
 680 013c 10000000 		.word	.LC4
 681 0140 00000000 		.word	.LANCHOR0
 682 0144 14000000 		.word	.LC5
 683 0148 00000000 		.word	rlist
 684              		.cfi_endproc
 685              	.LFE9:
 686              		.size	sem1_execute, .-sem1_execute
 687 014c AFF30080 		.section	.text.sem3_execute,"ax",%progbits
 688              		.align	2
 689              		.p2align 4,,15
 690              		.thumb
 691              		.thumb_func
 692              		.type	sem3_execute, %function
 693              	sem3_execute:
 694              	.LFB15:
 695              		.loc 1 217 0
 696              		.cfi_startproc
 697              		@ args = 0, pretend = 0, frame = 0
 698              		@ frame_needed = 0, uses_anonymous_args = 0
 699 0000 10B5     		push	{r4, lr}
 700              	.LCFI8:
 701              		.cfi_def_cfa_offset 8
 702              		.cfi_offset 4, -8
 703              		.cfi_offset 14, -4
 704              		.loc 1 219 0
 705 0002 224B     		ldr	r3, .L31
 706              		.loc 1 220 0
 707 0004 224C     		ldr	r4, .L31+4
 708              		.loc 1 219 0
 709 0006 9869     		ldr	r0, [r3, #24]
 710 0008 224B     		ldr	r3, .L31+8
 711 000a 8268     		ldr	r2, [r0, #8]
 712              		.loc 1 217 0
 713 000c 82B0     		sub	sp, sp, #8
 714              	.LCFI9:
 715              		.cfi_def_cfa_offset 16
 716              		.loc 1 219 0
 717 000e 0020     		movs	r0, #0
 718 0010 0090     		str	r0, [sp, #0]
 719 0012 2148     		ldr	r0, .L31+12
 720 0014 0132     		adds	r2, r2, #1
 721 0016 4FF4DC71 		mov	r1, #440
 722 001a 0068     		ldr	r0, [r0, #0]
 723 001c FFF7FEFF 		bl	chThdCreateStatic
 724              	.LVL76:
 725 0020 1E4B     		ldr	r3, .L31+16
 726              		.loc 1 220 0
 727 0022 2146     		mov	r1, r4
 728              		.loc 1 219 0
 729 0024 1860     		str	r0, [r3, #0]
 730              		.loc 1 220 0
 731 0026 2046     		mov	r0, r4
 732 0028 FFF7FEFF 		bl	chSemSignalWait
 733              	.LVL77:
 734              		.loc 1 221 0
 735 002c 2168     		ldr	r1, [r4, #0]
ARM GAS  C:\Users\jenny\AppData\Local\Temp\ccSihPnk.s 			page 14


 736 002e 0120     		movs	r0, #1
 737 0030 0A1B     		subs	r2, r1, r4
 738 0032 5342     		rsbs	r3, r2, #0
 739 0034 53EB0201 		adcs	r1, r3, r2
 740 0038 FFF7FEFF 		bl	_test_assert
 741              	.LVL78:
 742 003c 08B1     		cbz	r0, .L30
 743              	.L26:
 744              		.loc 1 227 0
 745 003e 02B0     		add	sp, sp, #8
 746 0040 10BD     		pop	{r4, pc}
 747              	.L30:
 748              		.loc 1 222 0
 749 0042 A168     		ldr	r1, [r4, #8]
 750 0044 0220     		movs	r0, #2
 751 0046 D1F10101 		rsbs	r1, r1, #1
 752 004a 38BF     		it	cc
 753 004c 0021     		movcc	r1, #0
 754 004e FFF7FEFF 		bl	_test_assert
 755              	.LVL79:
 756 0052 0028     		cmp	r0, #0
 757 0054 F3D1     		bne	.L26
 758              	.LBB15:
 759              	.LBB16:
 760              		.loc 1 224 0
 761 0056 2146     		mov	r1, r4
 762 0058 2046     		mov	r0, r4
 763 005a FFF7FEFF 		bl	chSemSignalWait
 764              	.LVL80:
 765              		.loc 1 225 0
 766 005e 2268     		ldr	r2, [r4, #0]
 767 0060 0320     		movs	r0, #3
 768 0062 B2EB040C 		subs	ip, r2, r4
 769 0066 DCF10003 		rsbs	r3, ip, #0
 770 006a 53EB0C01 		adcs	r1, r3, ip
 771 006e FFF7FEFF 		bl	_test_assert
 772              	.LVL81:
 773 0072 0028     		cmp	r0, #0
 774 0074 E3D1     		bne	.L26
 775              		.loc 1 226 0
 776 0076 A168     		ldr	r1, [r4, #8]
 777 0078 0420     		movs	r0, #4
 778 007a D1F10101 		rsbs	r1, r1, #1
 779 007e 38BF     		it	cc
 780 0080 0021     		movcc	r1, #0
 781              	.LBE16:
 782              	.LBE15:
 783              		.loc 1 227 0
 784 0082 02B0     		add	sp, sp, #8
 785 0084 BDE81040 		pop	{r4, lr}
 786              	.LBB18:
 787              	.LBB17:
 788              		.loc 1 226 0
 789 0088 FFF7FEBF 		b	_test_assert
 790              	.LVL82:
 791              	.L32:
 792              		.align	2
ARM GAS  C:\Users\jenny\AppData\Local\Temp\ccSihPnk.s 			page 15


 793              	.L31:
 794 008c 00000000 		.word	rlist
 795 0090 00000000 		.word	.LANCHOR0
 796 0094 00000000 		.word	thread3
 797 0098 00000000 		.word	wa
 798 009c 00000000 		.word	threads
 799              	.LBE17:
 800              	.LBE18:
 801              		.cfi_endproc
 802              	.LFE15:
 803              		.size	sem3_execute, .-sem3_execute
 804              		.section	.text.sem2_execute,"ax",%progbits
 805              		.align	2
 806              		.p2align 4,,15
 807              		.thumb
 808              		.thumb_func
 809              		.type	sem2_execute, %function
 810              	sem2_execute:
 811              	.LFB12:
 812              		.loc 1 144 0
 813              		.cfi_startproc
 814              		@ args = 0, pretend = 0, frame = 0
 815              		@ frame_needed = 0, uses_anonymous_args = 0
 816 0000 70B5     		push	{r4, r5, r6, lr}
 817              	.LCFI10:
 818              		.cfi_def_cfa_offset 16
 819              		.cfi_offset 4, -16
 820              		.cfi_offset 5, -12
 821              		.cfi_offset 6, -8
 822              		.cfi_offset 14, -4
 823              		.loc 1 152 0
 824 0002 A04C     		ldr	r4, .L38
 825 0004 0021     		movs	r1, #0
 826              		.loc 1 144 0
 827 0006 82B0     		sub	sp, sp, #8
 828              	.LCFI11:
 829              		.cfi_def_cfa_offset 24
 830              		.loc 1 152 0
 831 0008 2046     		mov	r0, r4
 832 000a FFF7FEFF 		bl	chSemWaitTimeout
 833              	.LVL83:
 834              		.loc 1 153 0
 835 000e B0F1FF33 		subs	r3, r0, #-1
 836 0012 5942     		rsbs	r1, r3, #0
 837 0014 5941     		adcs	r1, r1, r3
 838 0016 0120     		movs	r0, #1
 839              	.LVL84:
 840 0018 FFF7FEFF 		bl	_test_assert
 841              	.LVL85:
 842 001c 08B1     		cbz	r0, .L37
 843              	.L33:
 844              		.loc 1 182 0
 845 001e 02B0     		add	sp, sp, #8
 846 0020 70BD     		pop	{r4, r5, r6, pc}
 847              	.L37:
 848              		.loc 1 154 0
 849 0022 2268     		ldr	r2, [r4, #0]
ARM GAS  C:\Users\jenny\AppData\Local\Temp\ccSihPnk.s 			page 16


 850 0024 0220     		movs	r0, #2
 851 0026 B2EB040C 		subs	ip, r2, r4
 852 002a DCF10003 		rsbs	r3, ip, #0
 853 002e 53EB0C01 		adcs	r1, r3, ip
 854 0032 FFF7FEFF 		bl	_test_assert
 855              	.LVL86:
 856 0036 0028     		cmp	r0, #0
 857 0038 F1D1     		bne	.L33
 858              		.loc 1 155 0
 859 003a A168     		ldr	r1, [r4, #8]
 860 003c 0320     		movs	r0, #3
 861 003e D1F10101 		rsbs	r1, r1, #1
 862 0042 38BF     		it	cc
 863 0044 0021     		movcc	r1, #0
 864 0046 FFF7FEFF 		bl	_test_assert
 865              	.LVL87:
 866 004a 0028     		cmp	r0, #0
 867 004c E7D1     		bne	.L33
 868              	.LBB21:
 869              	.LBB22:
 870              		.loc 1 160 0
 871 004e 8E4D     		ldr	r5, .L38+4
 872 0050 8E4B     		ldr	r3, .L38+8
 873 0052 AA69     		ldr	r2, [r5, #24]
 874 0054 9168     		ldr	r1, [r2, #8]
 875 0056 0090     		str	r0, [sp, #0]
 876 0058 8D48     		ldr	r0, .L38+12
 877 005a 4A1E     		subs	r2, r1, #1
 878 005c 0068     		ldr	r0, [r0, #0]
 879 005e 4FF4DC71 		mov	r1, #440
 880 0062 FFF7FEFF 		bl	chThdCreateStatic
 881              	.LVL88:
 882 0066 8B4B     		ldr	r3, .L38+16
 883              		.loc 1 162 0
 884 0068 4FF4FA71 		mov	r1, #500
 885              		.loc 1 160 0
 886 006c 1860     		str	r0, [r3, #0]
 887              		.loc 1 162 0
 888 006e 2046     		mov	r0, r4
 889 0070 FFF7FEFF 		bl	chSemWaitTimeout
 890              	.LVL89:
 891 0074 0546     		mov	r5, r0
 892              	.LVL90:
 893              		.loc 1 163 0
 894 0076 FFF7FEFF 		bl	test_wait_threads
 895              	.LVL91:
 896              		.loc 1 164 0
 897 007a 0420     		movs	r0, #4
 898 007c D5F10101 		rsbs	r1, r5, #1
 899 0080 38BF     		it	cc
 900 0082 0021     		movcc	r1, #0
 901 0084 FFF7FEFF 		bl	_test_assert
 902              	.LVL92:
 903 0088 0028     		cmp	r0, #0
 904 008a C8D1     		bne	.L33
 905              		.loc 1 165 0
 906 008c 2268     		ldr	r2, [r4, #0]
ARM GAS  C:\Users\jenny\AppData\Local\Temp\ccSihPnk.s 			page 17


 907 008e 0520     		movs	r0, #5
 908 0090 B2EB040E 		subs	lr, r2, r4
 909 0094 DEF10001 		rsbs	r1, lr, #0
 910 0098 51EB0E01 		adcs	r1, r1, lr
 911 009c FFF7FEFF 		bl	_test_assert
 912              	.LVL93:
 913 00a0 0028     		cmp	r0, #0
 914 00a2 BCD1     		bne	.L33
 915              		.loc 1 166 0
 916 00a4 A368     		ldr	r3, [r4, #8]
 917 00a6 0620     		movs	r0, #6
 918 00a8 D3F10101 		rsbs	r1, r3, #1
 919 00ac 38BF     		it	cc
 920 00ae 0021     		movcc	r1, #0
 921 00b0 FFF7FEFF 		bl	_test_assert
 922              	.LVL94:
 923 00b4 0028     		cmp	r0, #0
 924 00b6 B2D1     		bne	.L33
 925              		.loc 1 172 0
 926 00b8 774E     		ldr	r6, .L38+20
 927              		.loc 1 171 0
 928 00ba FFF7FEFF 		bl	test_wait_tick
 929              	.LVL95:
 930              		.loc 1 174 0
 931 00be 4120     		movs	r0, #65
 932              		.loc 1 172 0
 933 00c0 F668     		ldr	r6, [r6, #12]
 934              	.LVL96:
 935              		.loc 1 174 0
 936 00c2 FFF7FEFF 		bl	test_emit_token
 937              	.LVL97:
 938              		.loc 1 175 0
 939 00c6 4FF4FA71 		mov	r1, #500
 940 00ca 2046     		mov	r0, r4
 941 00cc FFF7FEFF 		bl	chSemWaitTimeout
 942              	.LVL98:
 943              		.loc 1 176 0
 944 00d0 B0F1FF30 		subs	r0, r0, #-1
 945              	.LVL99:
 946 00d4 4242     		rsbs	r2, r0, #0
 947 00d6 52EB0001 		adcs	r1, r2, r0
 948 00da 0720     		movs	r0, #7
 949              	.LVL100:
 950 00dc FFF7FEFF 		bl	_test_assert
 951              	.LVL101:
 952 00e0 0028     		cmp	r0, #0
 953 00e2 9CD1     		bne	.L33
 954              		.loc 1 177 0
 955 00e4 2168     		ldr	r1, [r4, #0]
 956 00e6 0820     		movs	r0, #8
 957 00e8 0B1B     		subs	r3, r1, r4
 958 00ea 5A42     		rsbs	r2, r3, #0
 959 00ec 52EB0301 		adcs	r1, r2, r3
 960 00f0 FFF7FEFF 		bl	_test_assert
 961              	.LVL102:
 962 00f4 0028     		cmp	r0, #0
 963 00f6 92D1     		bne	.L33
ARM GAS  C:\Users\jenny\AppData\Local\Temp\ccSihPnk.s 			page 18


 964              		.loc 1 178 0
 965 00f8 A168     		ldr	r1, [r4, #8]
 966 00fa 0920     		movs	r0, #9
 967 00fc D1F10101 		rsbs	r1, r1, #1
 968 0100 38BF     		it	cc
 969 0102 0021     		movcc	r1, #0
 970 0104 FFF7FEFF 		bl	_test_assert
 971              	.LVL103:
 972 0108 0028     		cmp	r0, #0
 973 010a 88D1     		bne	.L33
 974              	.LVL104:
 975              		.loc 1 174 0
 976 010c 4220     		movs	r0, #66
 977 010e FFF7FEFF 		bl	test_emit_token
 978              	.LVL105:
 979              		.loc 1 175 0
 980 0112 4FF4FA71 		mov	r1, #500
 981 0116 2046     		mov	r0, r4
 982 0118 FFF7FEFF 		bl	chSemWaitTimeout
 983              	.LVL106:
 984              		.loc 1 176 0
 985 011c B0F1FF3C 		subs	ip, r0, #-1
 986 0120 DCF10000 		rsbs	r0, ip, #0
 987              	.LVL107:
 988 0124 50EB0C01 		adcs	r1, r0, ip
 989 0128 0720     		movs	r0, #7
 990 012a FFF7FEFF 		bl	_test_assert
 991              	.LVL108:
 992 012e 0028     		cmp	r0, #0
 993 0130 7FF475AF 		bne	.L33
 994              		.loc 1 177 0
 995 0134 2368     		ldr	r3, [r4, #0]
 996 0136 0820     		movs	r0, #8
 997 0138 B3EB040E 		subs	lr, r3, r4
 998 013c DEF10002 		rsbs	r2, lr, #0
 999 0140 52EB0E01 		adcs	r1, r2, lr
 1000 0144 2546     		mov	r5, r4
 1001 0146 FFF7FEFF 		bl	_test_assert
 1002              	.LVL109:
 1003 014a 0028     		cmp	r0, #0
 1004 014c 7FF467AF 		bne	.L33
 1005              		.loc 1 178 0
 1006 0150 A168     		ldr	r1, [r4, #8]
 1007 0152 0920     		movs	r0, #9
 1008 0154 D1F10101 		rsbs	r1, r1, #1
 1009 0158 38BF     		it	cc
 1010 015a 0021     		movcc	r1, #0
 1011 015c FFF7FEFF 		bl	_test_assert
 1012              	.LVL110:
 1013 0160 0028     		cmp	r0, #0
 1014 0162 7FF45CAF 		bne	.L33
 1015              	.LVL111:
 1016              		.loc 1 174 0
 1017 0166 4320     		movs	r0, #67
 1018 0168 FFF7FEFF 		bl	test_emit_token
 1019              	.LVL112:
 1020              		.loc 1 175 0
ARM GAS  C:\Users\jenny\AppData\Local\Temp\ccSihPnk.s 			page 19


 1021 016c 4FF4FA71 		mov	r1, #500
 1022 0170 2046     		mov	r0, r4
 1023 0172 FFF7FEFF 		bl	chSemWaitTimeout
 1024              	.LVL113:
 1025              		.loc 1 176 0
 1026 0176 B0F1FF30 		subs	r0, r0, #-1
 1027              	.LVL114:
 1028 017a 4342     		rsbs	r3, r0, #0
 1029 017c 53EB0001 		adcs	r1, r3, r0
 1030 0180 0720     		movs	r0, #7
 1031              	.LVL115:
 1032 0182 FFF7FEFF 		bl	_test_assert
 1033              	.LVL116:
 1034 0186 0028     		cmp	r0, #0
 1035 0188 7FF449AF 		bne	.L33
 1036              		.loc 1 177 0
 1037 018c 2268     		ldr	r2, [r4, #0]
 1038 018e 0820     		movs	r0, #8
 1039 0190 131B     		subs	r3, r2, r4
 1040 0192 5942     		rsbs	r1, r3, #0
 1041 0194 5941     		adcs	r1, r1, r3
 1042 0196 FFF7FEFF 		bl	_test_assert
 1043              	.LVL117:
 1044 019a 0028     		cmp	r0, #0
 1045 019c 7FF43FAF 		bne	.L33
 1046              		.loc 1 178 0
 1047 01a0 A268     		ldr	r2, [r4, #8]
 1048 01a2 0920     		movs	r0, #9
 1049 01a4 D2F10101 		rsbs	r1, r2, #1
 1050 01a8 38BF     		it	cc
 1051 01aa 0021     		movcc	r1, #0
 1052 01ac FFF7FEFF 		bl	_test_assert
 1053              	.LVL118:
 1054 01b0 0028     		cmp	r0, #0
 1055 01b2 7FF434AF 		bne	.L33
 1056              	.LVL119:
 1057              		.loc 1 174 0
 1058 01b6 4420     		movs	r0, #68
 1059 01b8 FFF7FEFF 		bl	test_emit_token
 1060              	.LVL120:
 1061              		.loc 1 175 0
 1062 01bc 4FF4FA71 		mov	r1, #500
 1063 01c0 2046     		mov	r0, r4
 1064 01c2 FFF7FEFF 		bl	chSemWaitTimeout
 1065              	.LVL121:
 1066              		.loc 1 176 0
 1067 01c6 B0F1FF3C 		subs	ip, r0, #-1
 1068 01ca DCF10000 		rsbs	r0, ip, #0
 1069              	.LVL122:
 1070 01ce 50EB0C01 		adcs	r1, r0, ip
 1071 01d2 0720     		movs	r0, #7
 1072 01d4 FFF7FEFF 		bl	_test_assert
 1073              	.LVL123:
 1074 01d8 0028     		cmp	r0, #0
 1075 01da 7FF420AF 		bne	.L33
 1076              		.loc 1 177 0
 1077 01de 2368     		ldr	r3, [r4, #0]
ARM GAS  C:\Users\jenny\AppData\Local\Temp\ccSihPnk.s 			page 20


 1078 01e0 0820     		movs	r0, #8
 1079 01e2 B3EB040E 		subs	lr, r3, r4
 1080 01e6 DEF10001 		rsbs	r1, lr, #0
 1081 01ea 51EB0E01 		adcs	r1, r1, lr
 1082 01ee FFF7FEFF 		bl	_test_assert
 1083              	.LVL124:
 1084 01f2 0028     		cmp	r0, #0
 1085 01f4 7FF413AF 		bne	.L33
 1086              		.loc 1 178 0
 1087 01f8 A268     		ldr	r2, [r4, #8]
 1088 01fa 0920     		movs	r0, #9
 1089 01fc D2F10101 		rsbs	r1, r2, #1
 1090 0200 38BF     		it	cc
 1091 0202 0021     		movcc	r1, #0
 1092 0204 FFF7FEFF 		bl	_test_assert
 1093              	.LVL125:
 1094 0208 0028     		cmp	r0, #0
 1095 020a 7FF408AF 		bne	.L33
 1096              	.LVL126:
 1097              		.loc 1 174 0
 1098 020e 4520     		movs	r0, #69
 1099 0210 FFF7FEFF 		bl	test_emit_token
 1100              	.LVL127:
 1101              		.loc 1 175 0
 1102 0214 4FF4FA71 		mov	r1, #500
 1103 0218 2046     		mov	r0, r4
 1104 021a FFF7FEFF 		bl	chSemWaitTimeout
 1105              	.LVL128:
 1106              		.loc 1 176 0
 1107 021e B0F1FF30 		subs	r0, r0, #-1
 1108              	.LVL129:
 1109 0222 4342     		rsbs	r3, r0, #0
 1110 0224 53EB0001 		adcs	r1, r3, r0
 1111 0228 0720     		movs	r0, #7
 1112              	.LVL130:
 1113 022a FFF7FEFF 		bl	_test_assert
 1114              	.LVL131:
 1115 022e 0028     		cmp	r0, #0
 1116 0230 7FF4F5AE 		bne	.L33
 1117              		.loc 1 177 0
 1118 0234 2168     		ldr	r1, [r4, #0]
 1119 0236 0820     		movs	r0, #8
 1120 0238 0A1B     		subs	r2, r1, r4
 1121 023a 5342     		rsbs	r3, r2, #0
 1122 023c 53EB0201 		adcs	r1, r3, r2
 1123 0240 FFF7FEFF 		bl	_test_assert
 1124              	.LVL132:
 1125 0244 0028     		cmp	r0, #0
 1126 0246 7FF4EAAE 		bne	.L33
 1127              		.loc 1 178 0
 1128 024a A168     		ldr	r1, [r4, #8]
 1129 024c 0920     		movs	r0, #9
 1130 024e D1F10101 		rsbs	r1, r1, #1
 1131 0252 38BF     		it	cc
 1132 0254 0021     		movcc	r1, #0
 1133 0256 FFF7FEFF 		bl	_test_assert
 1134              	.LVL133:
ARM GAS  C:\Users\jenny\AppData\Local\Temp\ccSihPnk.s 			page 21


 1135 025a 0028     		cmp	r0, #0
 1136 025c 7FF4DFAE 		bne	.L33
 1137              	.LVL134:
 1138              		.loc 1 180 0
 1139 0260 0A20     		movs	r0, #10
 1140 0262 0E49     		ldr	r1, .L38+24
 1141 0264 FFF7FEFF 		bl	_test_assert_sequence
 1142              	.LVL135:
 1143 0268 0028     		cmp	r0, #0
 1144 026a 7FF4D8AE 		bne	.L33
 1145              		.loc 1 181 0
 1146 026e 0B20     		movs	r0, #11
 1147 0270 06F6C411 		addw	r1, r6, #2500
 1148              	.LVL136:
 1149 0274 06F6C912 		addw	r2, r6, #2505
 1150              	.LBE22:
 1151              	.LBE21:
 1152              		.loc 1 182 0
 1153 0278 02B0     		add	sp, sp, #8
 1154 027a BDE87040 		pop	{r4, r5, r6, lr}
 1155              	.LBB24:
 1156              	.LBB23:
 1157              		.loc 1 181 0
 1158 027e FFF7FEBF 		b	_test_assert_time_window
 1159              	.LVL137:
 1160              	.L39:
 1161 0282 00BF     		.align	2
 1162              	.L38:
 1163 0284 00000000 		.word	.LANCHOR0
 1164 0288 00000000 		.word	rlist
 1165 028c 00000000 		.word	thread2
 1166 0290 00000000 		.word	wa
 1167 0294 00000000 		.word	threads
 1168 0298 00000000 		.word	vtlist
 1169 029c 14000000 		.word	.LC5
 1170              	.LBE23:
 1171              	.LBE24:
 1172              		.cfi_endproc
 1173              	.LFE12:
 1174              		.size	sem2_execute, .-sem2_execute
 1175              		.global	patternsem
 1176              		.global	testsem4
 1177              		.global	testsem3
 1178              		.global	testsem2
 1179              		.global	testsem1
 1180              		.section	.rodata.testsem1,"a",%progbits
 1181              		.align	2
 1182              		.type	testsem1, %object
 1183              		.size	testsem1, 16
 1184              	testsem1:
 1185 0000 74000000 		.word	.LC9
 1186 0004 00000000 		.word	sem1_setup
 1187 0008 00000000 		.word	0
 1188 000c 00000000 		.word	sem1_execute
 1189              		.section	.rodata.testsem2,"a",%progbits
 1190              		.align	2
 1191              		.type	testsem2, %object
ARM GAS  C:\Users\jenny\AppData\Local\Temp\ccSihPnk.s 			page 22


 1192              		.size	testsem2, 16
 1193              	testsem2:
 1194 0000 60000000 		.word	.LC8
 1195 0004 00000000 		.word	sem2_setup
 1196 0008 00000000 		.word	0
 1197 000c 00000000 		.word	sem2_execute
 1198              		.section	.rodata.testsem3,"a",%progbits
 1199              		.align	2
 1200              		.type	testsem3, %object
 1201              		.size	testsem3, 16
 1202              	testsem3:
 1203 0000 40000000 		.word	.LC7
 1204 0004 00000000 		.word	sem3_setup
 1205 0008 00000000 		.word	0
 1206 000c 00000000 		.word	sem3_execute
 1207              		.section	.rodata.testsem4,"a",%progbits
 1208              		.align	2
 1209              		.type	testsem4, %object
 1210              		.size	testsem4, 16
 1211              	testsem4:
 1212 0000 1C000000 		.word	.LC6
 1213 0004 00000000 		.word	0
 1214 0008 00000000 		.word	0
 1215 000c 00000000 		.word	sem4_execute
 1216              		.section	.data.sem1,"aw",%progbits
 1217              		.align	2
 1218              		.set	.LANCHOR0,. + 0
 1219              		.type	sem1, %object
 1220              		.size	sem1, 12
 1221              	sem1:
 1222 0000 00000000 		.word	sem1
 1223 0004 00000000 		.word	sem1
 1224 0008 00000000 		.word	0
 1225              		.section	.rodata.patternsem,"a",%progbits
 1226              		.align	2
 1227              		.type	patternsem, %object
 1228              		.size	patternsem, 20
 1229              	patternsem:
 1230 0000 00000000 		.word	testsem1
 1231 0004 00000000 		.word	testsem2
 1232 0008 00000000 		.word	testsem3
 1233 000c 00000000 		.word	testsem4
 1234 0010 00000000 		.word	0
 1235              		.section	.rodata.str1.4,"aMS",%progbits,1
 1236              		.align	2
 1237              	.LC0:
 1238 0000 4100     		.ascii	"A\000"
 1239 0002 0000     		.space	2
 1240              	.LC1:
 1241 0004 4200     		.ascii	"B\000"
 1242 0006 0000     		.space	2
 1243              	.LC2:
 1244 0008 4300     		.ascii	"C\000"
 1245 000a 0000     		.space	2
 1246              	.LC3:
 1247 000c 4400     		.ascii	"D\000"
 1248 000e 0000     		.space	2
ARM GAS  C:\Users\jenny\AppData\Local\Temp\ccSihPnk.s 			page 23


 1249              	.LC4:
 1250 0010 4500     		.ascii	"E\000"
 1251 0012 0000     		.space	2
 1252              	.LC5:
 1253 0014 41424344 		.ascii	"ABCDE\000"
 1253      4500
 1254 001a 0000     		.space	2
 1255              	.LC6:
 1256 001c 42696E61 		.ascii	"Binary Semaphores, functionality\000"
 1256      72792053 
 1256      656D6170 
 1256      686F7265 
 1256      732C2066 
 1257 003d 000000   		.space	3
 1258              	.LC7:
 1259 0040 53656D61 		.ascii	"Semaphores, atomic signal-wait\000"
 1259      70686F72 
 1259      65732C20 
 1259      61746F6D 
 1259      69632073 
 1260 005f 00       		.space	1
 1261              	.LC8:
 1262 0060 53656D61 		.ascii	"Semaphores, timeout\000"
 1262      70686F72 
 1262      65732C20 
 1262      74696D65 
 1262      6F757400 
 1263              	.LC9:
 1264 0074 53656D61 		.ascii	"Semaphores, enqueuing\000"
 1264      70686F72 
 1264      65732C20 
 1264      656E7175 
 1264      6575696E 
 1265 008a 0000     		.text
 1266              	.Letext0:
 1267              		.file 2 "c:\\fbin\\yagarto\\bin\\../lib/gcc/arm-none-eabi/4.7.4/include/stddef.h"
 1268              		.file 3 "c:\\fbin\\yagarto\\bin\\../lib/gcc/arm-none-eabi/4.7.4/../../../../arm-none-eabi/include/
 1269              		.file 4 "../../os/ports/GCC/ARMCMx/chtypes.h"
 1270              		.file 5 "../../os/kernel/include/chlists.h"
 1271              		.file 6 "../../os/kernel/include/chthreads.h"
 1272              		.file 7 "../../os/ports/GCC/ARMCMx/chcore_v7m.h"
 1273              		.file 8 "../../os/kernel/include/chvt.h"
 1274              		.file 9 "../../os/kernel/include/chschd.h"
 1275              		.file 10 "../../os/kernel/include/chsem.h"
 1276              		.file 11 "../../os/kernel/include/chbsem.h"
 1277              		.file 12 "../../os/kernel/include/chmtx.h"
 1278              		.file 13 "../../test/test.h"