ARM GAS  C:\Users\jenny\AppData\Local\Temp\ccjGGfOi.s 			page 1


   1              		.syntax unified
   2              		.cpu cortex-m4
   3              		.eabi_attribute 27, 3
   4              		.fpu fpv4-sp-d16
   5              		.eabi_attribute 20, 1
   6              		.eabi_attribute 21, 1
   7              		.eabi_attribute 23, 3
   8              		.eabi_attribute 24, 1
   9              		.eabi_attribute 25, 1
  10              		.eabi_attribute 26, 1
  11              		.eabi_attribute 30, 2
  12              		.eabi_attribute 34, 1
  13              		.eabi_attribute 18, 4
  14              		.thumb
  15              		.file	"testpools.c"
  16              		.text
  17              	.Ltext0:
  18              		.cfi_sections	.debug_frame
  19              		.section	.text.null_provider,"ax",%progbits
  20              		.align	2
  21              		.p2align 4,,15
  22              		.thumb
  23              		.thumb_func
  24              		.type	null_provider, %function
  25              	null_provider:
  26              	.LFB7:
  27              		.file 1 "../../test/testpools.c"
  28              		.loc 1 60 0
  29              		.cfi_startproc
  30              		@ args = 0, pretend = 0, frame = 0
  31              		@ frame_needed = 0, uses_anonymous_args = 0
  32              		@ link register save eliminated.
  33              	.LVL0:
  34              		.loc 1 64 0
  35 0000 0020     		movs	r0, #0
  36              	.LVL1:
  37 0002 7047     		bx	lr
  38              		.cfi_endproc
  39              	.LFE7:
  40              		.size	null_provider, .-null_provider
  41 0004 AFF30080 		.section	.text.pools1_setup,"ax",%progbits
  41      AFF30080 
  41      AFF30080 
  42              		.align	2
  43              		.p2align 4,,15
  44              		.thumb
  45              		.thumb_func
  46              		.type	pools1_setup, %function
  47              	pools1_setup:
  48              	.LFB8:
  49              		.loc 1 66 0
  50              		.cfi_startproc
  51              		@ args = 0, pretend = 0, frame = 0
  52              		@ frame_needed = 0, uses_anonymous_args = 0
  53              		@ link register save eliminated.
  54              		.loc 1 68 0
  55 0000 40F20000 		movw	r0, #:lower16:.LANCHOR0
ARM GAS  C:\Users\jenny\AppData\Local\Temp\ccjGGfOi.s 			page 2


  56 0004 C0F20000 		movt	r0, #:upper16:.LANCHOR0
  57 0008 4FF4DC71 		mov	r1, #440
  58 000c 0022     		movs	r2, #0
  59              		.loc 1 69 0
  60              		.loc 1 68 0
  61 000e FFF7FEBF 		b	chPoolInit
  62              	.LVL2:
  63              		.cfi_endproc
  64              	.LFE8:
  65              		.size	pools1_setup, .-pools1_setup
  66 0012 00BFAFF3 		.section	.text.pools1_execute,"ax",%progbits
  66      0080AFF3 
  66      0080AFF3 
  66      0080
  67              		.align	2
  68              		.p2align 4,,15
  69              		.thumb
  70              		.thumb_func
  71              		.type	pools1_execute, %function
  72              	pools1_execute:
  73              	.LFB9:
  74              		.loc 1 71 0
  75              		.cfi_startproc
  76              		@ args = 0, pretend = 0, frame = 0
  77              		@ frame_needed = 0, uses_anonymous_args = 0
  78 0000 38B5     		push	{r3, r4, r5, lr}
  79              	.LCFI0:
  80              		.cfi_def_cfa_offset 16
  81              		.cfi_offset 3, -16
  82              		.cfi_offset 4, -12
  83              		.cfi_offset 5, -8
  84              		.cfi_offset 14, -4
  85              		.loc 1 75 0
  86 0002 574C     		ldr	r4, .L9
  87 0004 5748     		ldr	r0, .L9+4
  88 0006 2568     		ldr	r5, [r4, #0]
  89 0008 0522     		movs	r2, #5
  90 000a 2946     		mov	r1, r5
  91 000c FFF7FEFF 		bl	chPoolLoadArray
  92              	.LVL3:
  93              		.loc 1 79 0
  94 0010 5448     		ldr	r0, .L9+4
  95 0012 FFF7FEFF 		bl	chPoolAlloc
  96              	.LVL4:
  97 0016 011C     		adds	r1, r0, #0
  98 0018 18BF     		it	ne
  99 001a 0121     		movne	r1, #1
 100 001c 0120     		movs	r0, #1
 101 001e FFF7FEFF 		bl	_test_assert
 102              	.LVL5:
 103 0022 0028     		cmp	r0, #0
 104 0024 40F08A80 		bne	.L3
 105              	.LVL6:
 106 0028 4E48     		ldr	r0, .L9+4
 107 002a FFF7FEFF 		bl	chPoolAlloc
 108              	.LVL7:
 109 002e 011C     		adds	r1, r0, #0
ARM GAS  C:\Users\jenny\AppData\Local\Temp\ccjGGfOi.s 			page 3


 110 0030 18BF     		it	ne
 111 0032 0121     		movne	r1, #1
 112 0034 0120     		movs	r0, #1
 113 0036 FFF7FEFF 		bl	_test_assert
 114              	.LVL8:
 115 003a 0028     		cmp	r0, #0
 116 003c 7ED1     		bne	.L3
 117              	.LVL9:
 118 003e 4948     		ldr	r0, .L9+4
 119 0040 FFF7FEFF 		bl	chPoolAlloc
 120              	.LVL10:
 121 0044 011C     		adds	r1, r0, #0
 122 0046 18BF     		it	ne
 123 0048 0121     		movne	r1, #1
 124 004a 0120     		movs	r0, #1
 125 004c FFF7FEFF 		bl	_test_assert
 126              	.LVL11:
 127 0050 0028     		cmp	r0, #0
 128 0052 73D1     		bne	.L3
 129              	.LVL12:
 130 0054 4348     		ldr	r0, .L9+4
 131 0056 FFF7FEFF 		bl	chPoolAlloc
 132              	.LVL13:
 133 005a 011C     		adds	r1, r0, #0
 134 005c 18BF     		it	ne
 135 005e 0121     		movne	r1, #1
 136 0060 0120     		movs	r0, #1
 137 0062 FFF7FEFF 		bl	_test_assert
 138              	.LVL14:
 139 0066 0028     		cmp	r0, #0
 140 0068 68D1     		bne	.L3
 141              	.LVL15:
 142 006a 3E48     		ldr	r0, .L9+4
 143 006c FFF7FEFF 		bl	chPoolAlloc
 144              	.LVL16:
 145 0070 011C     		adds	r1, r0, #0
 146 0072 18BF     		it	ne
 147 0074 0121     		movne	r1, #1
 148 0076 0120     		movs	r0, #1
 149 0078 FFF7FEFF 		bl	_test_assert
 150              	.LVL17:
 151 007c 0028     		cmp	r0, #0
 152 007e 5DD1     		bne	.L3
 153              	.LVL18:
 154              		.loc 1 82 0
 155 0080 3848     		ldr	r0, .L9+4
 156 0082 FFF7FEFF 		bl	chPoolAlloc
 157              	.LVL19:
 158 0086 D0F10101 		rsbs	r1, r0, #1
 159 008a 38BF     		it	cc
 160 008c 0021     		movcc	r1, #0
 161 008e 0220     		movs	r0, #2
 162 0090 FFF7FEFF 		bl	_test_assert
 163              	.LVL20:
 164 0094 0028     		cmp	r0, #0
 165 0096 51D1     		bne	.L3
 166              	.LBB4:
ARM GAS  C:\Users\jenny\AppData\Local\Temp\ccjGGfOi.s 			page 4


 167              	.LBB5:
 168              		.loc 1 86 0
 169 0098 3248     		ldr	r0, .L9+4
 170 009a 2946     		mov	r1, r5
 171 009c FFF7FEFF 		bl	chPoolFree
 172              	.LVL21:
 173 00a0 3048     		ldr	r0, .L9+4
 174 00a2 6168     		ldr	r1, [r4, #4]
 175 00a4 FFF7FEFF 		bl	chPoolFree
 176              	.LVL22:
 177 00a8 2E48     		ldr	r0, .L9+4
 178 00aa A168     		ldr	r1, [r4, #8]
 179 00ac FFF7FEFF 		bl	chPoolFree
 180              	.LVL23:
 181 00b0 2C48     		ldr	r0, .L9+4
 182 00b2 E168     		ldr	r1, [r4, #12]
 183 00b4 FFF7FEFF 		bl	chPoolFree
 184              	.LVL24:
 185 00b8 2169     		ldr	r1, [r4, #16]
 186 00ba 2A48     		ldr	r0, .L9+4
 187 00bc FFF7FEFF 		bl	chPoolFree
 188              	.LVL25:
 189              		.loc 1 90 0
 190 00c0 2848     		ldr	r0, .L9+4
 191 00c2 FFF7FEFF 		bl	chPoolAlloc
 192              	.LVL26:
 193 00c6 011C     		adds	r1, r0, #0
 194 00c8 18BF     		it	ne
 195 00ca 0121     		movne	r1, #1
 196 00cc 0320     		movs	r0, #3
 197 00ce FFF7FEFF 		bl	_test_assert
 198              	.LVL27:
 199 00d2 0028     		cmp	r0, #0
 200 00d4 32D1     		bne	.L3
 201              	.LVL28:
 202 00d6 2348     		ldr	r0, .L9+4
 203 00d8 FFF7FEFF 		bl	chPoolAlloc
 204              	.LVL29:
 205 00dc 011C     		adds	r1, r0, #0
 206 00de 18BF     		it	ne
 207 00e0 0121     		movne	r1, #1
 208 00e2 0320     		movs	r0, #3
 209 00e4 FFF7FEFF 		bl	_test_assert
 210              	.LVL30:
 211 00e8 40BB     		cbnz	r0, .L3
 212              	.LVL31:
 213 00ea 1E48     		ldr	r0, .L9+4
 214 00ec FFF7FEFF 		bl	chPoolAlloc
 215              	.LVL32:
 216 00f0 011C     		adds	r1, r0, #0
 217 00f2 18BF     		it	ne
 218 00f4 0121     		movne	r1, #1
 219 00f6 0320     		movs	r0, #3
 220 00f8 FFF7FEFF 		bl	_test_assert
 221              	.LVL33:
 222 00fc F0B9     		cbnz	r0, .L3
 223              	.LVL34:
ARM GAS  C:\Users\jenny\AppData\Local\Temp\ccjGGfOi.s 			page 5


 224 00fe 1948     		ldr	r0, .L9+4
 225 0100 FFF7FEFF 		bl	chPoolAlloc
 226              	.LVL35:
 227 0104 011C     		adds	r1, r0, #0
 228 0106 18BF     		it	ne
 229 0108 0121     		movne	r1, #1
 230 010a 0320     		movs	r0, #3
 231 010c FFF7FEFF 		bl	_test_assert
 232              	.LVL36:
 233 0110 A0B9     		cbnz	r0, .L3
 234              	.LVL37:
 235 0112 1448     		ldr	r0, .L9+4
 236 0114 FFF7FEFF 		bl	chPoolAlloc
 237              	.LVL38:
 238 0118 011C     		adds	r1, r0, #0
 239 011a 18BF     		it	ne
 240 011c 0121     		movne	r1, #1
 241 011e 0320     		movs	r0, #3
 242 0120 FFF7FEFF 		bl	_test_assert
 243              	.LVL39:
 244 0124 50B9     		cbnz	r0, .L3
 245              	.LVL40:
 246              		.loc 1 93 0
 247 0126 0F48     		ldr	r0, .L9+4
 248 0128 FFF7FEFF 		bl	chPoolAlloc
 249              	.LVL41:
 250 012c D0F10101 		rsbs	r1, r0, #1
 251 0130 38BF     		it	cc
 252 0132 0021     		movcc	r1, #0
 253 0134 0420     		movs	r0, #4
 254 0136 FFF7FEFF 		bl	_test_assert
 255              	.LVL42:
 256 013a 00B1     		cbz	r0, .L8
 257              	.LVL43:
 258              	.L3:
 259 013c 38BD     		pop	{r3, r4, r5, pc}
 260              	.LVL44:
 261              	.L8:
 262              		.loc 1 96 0
 263 013e 1021     		movs	r1, #16
 264 0140 094A     		ldr	r2, .L9+8
 265 0142 0848     		ldr	r0, .L9+4
 266 0144 FFF7FEFF 		bl	chPoolInit
 267              	.LVL45:
 268              		.loc 1 97 0
 269 0148 0648     		ldr	r0, .L9+4
 270 014a FFF7FEFF 		bl	chPoolAlloc
 271              	.LVL46:
 272 014e D0F10101 		rsbs	r1, r0, #1
 273 0152 38BF     		it	cc
 274 0154 0021     		movcc	r1, #0
 275 0156 0520     		movs	r0, #5
 276              	.LBE5:
 277              	.LBE4:
 278              		.loc 1 98 0
 279 0158 BDE83840 		pop	{r3, r4, r5, lr}
 280              	.LBB7:
ARM GAS  C:\Users\jenny\AppData\Local\Temp\ccjGGfOi.s 			page 6


 281              	.LBB6:
 282              		.loc 1 97 0
 283 015c FFF7FEBF 		b	_test_assert
 284              	.LVL47:
 285              	.L10:
 286              		.align	2
 287              	.L9:
 288 0160 00000000 		.word	wa
 289 0164 00000000 		.word	.LANCHOR0
 290 0168 00000000 		.word	null_provider
 291              	.LBE6:
 292              	.LBE7:
 293              		.cfi_endproc
 294              	.LFE9:
 295              		.size	pools1_execute, .-pools1_execute
 296              		.global	patternpools
 297              		.global	testpools1
 298 016c AFF30080 		.section	.rodata.str1.4,"aMS",%progbits,1
 299              		.align	2
 300              	.LC0:
 301 0000 4D656D6F 		.ascii	"Memory Pools, queue/dequeue\000"
 301      72792050 
 301      6F6F6C73 
 301      2C207175 
 301      6575652F 
 302              		.section	.rodata.patternpools,"a",%progbits
 303              		.align	2
 304              		.type	patternpools, %object
 305              		.size	patternpools, 8
 306              	patternpools:
 307 0000 00000000 		.word	testpools1
 308 0004 00000000 		.word	0
 309              		.section	.data.mp1,"aw",%progbits
 310              		.align	2
 311              		.set	.LANCHOR0,. + 0
 312              		.type	mp1, %object
 313              		.size	mp1, 12
 314              	mp1:
 315 0000 00000000 		.word	0
 316 0004 B8010000 		.word	440
 317 0008 00000000 		.word	0
 318              		.section	.rodata.testpools1,"a",%progbits
 319              		.align	2
 320              		.type	testpools1, %object
 321              		.size	testpools1, 16
 322              	testpools1:
 323 0000 00000000 		.word	.LC0
 324 0004 00000000 		.word	pools1_setup
 325 0008 00000000 		.word	0
 326 000c 00000000 		.word	pools1_execute
 327              		.text
 328              	.Letext0:
 329              		.file 2 "c:\\fbin\\yagarto\\bin\\../lib/gcc/arm-none-eabi/4.7.4/include/stddef.h"
 330              		.file 3 "../../os/ports/GCC/ARMCMx/chtypes.h"
 331              		.file 4 "../../os/kernel/include/chmemcore.h"
 332              		.file 5 "../../os/kernel/include/chmempools.h"
 333              		.file 6 "../../test/test.h"
ARM GAS  C:\Users\jenny\AppData\Local\Temp\ccjGGfOi.s 			page 7

