ARM GAS  C:\Users\jenny\AppData\Local\Temp\cc0B0iU9.s 			page 1


   1              		.syntax unified
   2              		.cpu cortex-m4
   3              		.eabi_attribute 27, 3
   4              		.fpu fpv4-sp-d16
   5              		.eabi_attribute 20, 1
   6              		.eabi_attribute 21, 1
   7              		.eabi_attribute 23, 3
   8              		.eabi_attribute 24, 1
   9              		.eabi_attribute 25, 1
  10              		.eabi_attribute 26, 1
  11              		.eabi_attribute 30, 2
  12              		.eabi_attribute 34, 1
  13              		.eabi_attribute 18, 4
  14              		.thumb
  15              		.file	"tm.c"
  16              		.text
  17              	.Ltext0:
  18              		.cfi_sections	.debug_frame
  19              		.section	.text.tm_start,"ax",%progbits
  20              		.align	2
  21              		.p2align 4,,15
  22              		.thumb
  23              		.thumb_func
  24              		.type	tm_start, %function
  25              	tm_start:
  26              	.LFB118:
  27              		.file 1 "../../os/hal/src/tm.c"
  28              		.loc 1 69 0
  29              		.cfi_startproc
  30              		@ args = 0, pretend = 0, frame = 0
  31              		@ frame_needed = 0, uses_anonymous_args = 0
  32              		@ link register save eliminated.
  33              	.LVL0:
  34              		.loc 1 71 0
  35 0000 4FF48053 		mov	r3, #4096
  36 0004 CEF20003 		movt	r3, 57344
  37 0008 5968     		ldr	r1, [r3, #4]
  38 000a 8160     		str	r1, [r0, #8]
  39 000c 7047     		bx	lr
  40              		.cfi_endproc
  41              	.LFE118:
  42              		.size	tm_start, .-tm_start
  43              		.section	.text.tm_stop,"ax",%progbits
  44              		.align	2
  45              		.p2align 4,,15
  46              		.thumb
  47              		.thumb_func
  48              		.type	tm_stop, %function
  49              	tm_stop:
  50              	.LFB119:
  51              		.loc 1 81 0
  52              		.cfi_startproc
  53              		@ args = 0, pretend = 0, frame = 0
  54              		@ frame_needed = 0, uses_anonymous_args = 0
  55              		@ link register save eliminated.
  56              	.LVL1:
  57              		.loc 1 83 0
ARM GAS  C:\Users\jenny\AppData\Local\Temp\cc0B0iU9.s 			page 2


  58 0000 4FF48053 		mov	r3, #4096
  59 0004 CEF20003 		movt	r3, 57344
  60              		.loc 1 84 0
  61 0008 094A     		ldr	r2, .L7
  62 000a 8168     		ldr	r1, [r0, #8]
  63              		.loc 1 83 0
  64 000c 5B68     		ldr	r3, [r3, #4]
  65              	.LVL2:
  66              		.loc 1 81 0
  67 000e 10B4     		push	{r4}
  68              	.LCFI0:
  69              		.cfi_def_cfa_offset 4
  70              		.cfi_offset 4, -4
  71              		.loc 1 84 0
  72 0010 1468     		ldr	r4, [r2, #0]
  73              		.loc 1 85 0
  74 0012 C268     		ldr	r2, [r0, #12]
  75              		.loc 1 84 0
  76 0014 5B1A     		subs	r3, r3, r1
  77              	.LVL3:
  78 0016 191B     		subs	r1, r3, r4
  79              		.loc 1 85 0
  80 0018 9142     		cmp	r1, r2
  81              		.loc 1 84 0
  82 001a 8160     		str	r1, [r0, #8]
  83              		.loc 1 85 0
  84 001c 05D8     		bhi	.L6
  85              		.loc 1 87 0
  86 001e 0269     		ldr	r2, [r0, #16]
  87 0020 9142     		cmp	r1, r2
  88              		.loc 1 88 0
  89 0022 38BF     		it	cc
  90 0024 0161     		strcc	r1, [r0, #16]
  91              	.L2:
  92              		.loc 1 89 0
  93 0026 10BC     		pop	{r4}
  94 0028 7047     		bx	lr
  95              	.L6:
  96              		.loc 1 86 0
  97 002a C160     		str	r1, [r0, #12]
  98 002c FBE7     		b	.L2
  99              	.L8:
 100 002e 00BF     		.align	2
 101              	.L7:
 102 0030 00000000 		.word	.LANCHOR0
 103              		.cfi_endproc
 104              	.LFE119:
 105              		.size	tm_stop, .-tm_stop
 106 0034 AFF30080 		.section	.text.tmInit,"ax",%progbits
 106      AFF30080 
 106      AFF30080 
 107              		.align	2
 108              		.p2align 4,,15
 109              		.global	tmInit
 110              		.thumb
 111              		.thumb_func
 112              		.type	tmInit, %function
ARM GAS  C:\Users\jenny\AppData\Local\Temp\cc0B0iU9.s 			page 3


 113              	tmInit:
 114              	.LFB120:
 115              		.loc 1 104 0
 116              		.cfi_startproc
 117              		@ args = 0, pretend = 0, frame = 24
 118              		@ frame_needed = 0, uses_anonymous_args = 0
 119 0000 10B5     		push	{r4, lr}
 120              	.LCFI1:
 121              		.cfi_def_cfa_offset 8
 122              		.cfi_offset 4, -8
 123              		.cfi_offset 14, -4
 124              		.loc 1 110 0
 125 0002 40F20004 		movw	r4, #:lower16:.LANCHOR0
 126              		.loc 1 104 0
 127 0006 86B0     		sub	sp, sp, #24
 128              	.LCFI2:
 129              		.cfi_def_cfa_offset 32
 130              		.loc 1 110 0
 131 0008 C0F20004 		movt	r4, #:upper16:.LANCHOR0
 132              	.LBB8:
 133              	.LBB9:
 134              		.loc 1 71 0
 135 000c 4FF48053 		mov	r3, #4096
 136              	.LBE9:
 137              	.LBE8:
 138              		.loc 1 110 0
 139 0010 0022     		movs	r2, #0
 140              	.LBB13:
 141              	.LBB10:
 142              		.loc 1 71 0
 143 0012 CEF20003 		movt	r3, 57344
 144              	.LBE10:
 145              	.LBE13:
 146              	.LBB14:
 147              	.LBB15:
 148              		.loc 1 130 0
 149 0016 4FF0FF30 		mov	r0, #-1
 150              	.LBE15:
 151              	.LBE14:
 152              		.loc 1 110 0
 153 001a 2260     		str	r2, [r4, #0]
 154              	.LVL4:
 155              	.LBB19:
 156              	.LBB16:
 157              		.loc 1 129 0
 158 001c 0492     		str	r2, [sp, #16]
 159              		.loc 1 130 0
 160 001e 0590     		str	r0, [sp, #20]
 161              	.LVL5:
 162              	.LBE16:
 163              	.LBE19:
 164              	.LBB20:
 165              	.LBB11:
 166              		.loc 1 71 0
 167 0020 5968     		ldr	r1, [r3, #4]
 168              	.LBE11:
 169              	.LBE20:
ARM GAS  C:\Users\jenny\AppData\Local\Temp\cc0B0iU9.s 			page 4


 170              	.LBB21:
 171              	.LBB17:
 172              		.loc 1 127 0
 173 0022 40F20002 		movw	r2, #:lower16:tm_stop
 174              		.loc 1 126 0
 175 0026 40F20003 		movw	r3, #:lower16:tm_start
 176              	.LBE17:
 177              	.LBE21:
 178              		.loc 1 113 0
 179 002a 01A8     		add	r0, sp, #4
 180              	.LVL6:
 181              	.LBB22:
 182              	.LBB18:
 183              		.loc 1 126 0
 184 002c C0F20003 		movt	r3, #:upper16:tm_start
 185              		.loc 1 127 0
 186 0030 C0F20002 		movt	r2, #:upper16:tm_stop
 187              		.loc 1 126 0
 188 0034 0193     		str	r3, [sp, #4]
 189              		.loc 1 127 0
 190 0036 0292     		str	r2, [sp, #8]
 191              	.LBE18:
 192              	.LBE22:
 193              	.LBB23:
 194              	.LBB12:
 195              		.loc 1 71 0
 196 0038 0391     		str	r1, [sp, #12]
 197              	.LBE12:
 198              	.LBE23:
 199              		.loc 1 113 0
 200 003a FFF7FEFF 		bl	tm_stop
 201              	.LVL7:
 202              		.loc 1 114 0
 203 003e 0398     		ldr	r0, [sp, #12]
 204 0040 2060     		str	r0, [r4, #0]
 205              		.loc 1 115 0
 206 0042 06B0     		add	sp, sp, #24
 207 0044 10BD     		pop	{r4, pc}
 208              		.cfi_endproc
 209              	.LFE120:
 210              		.size	tmInit, .-tmInit
 211 0046 00BFAFF3 		.section	.text.tmObjectInit,"ax",%progbits
 211      0080AFF3 
 211      0080
 212              		.align	2
 213              		.p2align 4,,15
 214              		.global	tmObjectInit
 215              		.thumb
 216              		.thumb_func
 217              		.type	tmObjectInit, %function
 218              	tmObjectInit:
 219              	.LFB121:
 220              		.loc 1 124 0
 221              		.cfi_startproc
 222              		@ args = 0, pretend = 0, frame = 0
 223              		@ frame_needed = 0, uses_anonymous_args = 0
 224              		@ link register save eliminated.
ARM GAS  C:\Users\jenny\AppData\Local\Temp\cc0B0iU9.s 			page 5


 225              	.LVL8:
 226              		.loc 1 128 0
 227 0000 0023     		movs	r3, #0
 228              		.loc 1 126 0
 229 0002 40F20002 		movw	r2, #:lower16:tm_start
 230              		.loc 1 127 0
 231 0006 40F20001 		movw	r1, #:lower16:tm_stop
 232              		.loc 1 126 0
 233 000a C0F20002 		movt	r2, #:upper16:tm_start
 234              		.loc 1 127 0
 235 000e C0F20001 		movt	r1, #:upper16:tm_stop
 236              		.loc 1 128 0
 237 0012 8360     		str	r3, [r0, #8]
 238              		.loc 1 129 0
 239 0014 C360     		str	r3, [r0, #12]
 240              		.loc 1 130 0
 241 0016 4FF0FF33 		mov	r3, #-1
 242              		.loc 1 126 0
 243 001a 0260     		str	r2, [r0, #0]
 244              		.loc 1 127 0
 245 001c 4160     		str	r1, [r0, #4]
 246              		.loc 1 130 0
 247 001e 0361     		str	r3, [r0, #16]
 248 0020 7047     		bx	lr
 249              		.cfi_endproc
 250              	.LFE121:
 251              		.size	tmObjectInit, .-tmObjectInit
 252 0022 00BFAFF3 		.section	.bss.measurement_offset,"aw",%nobits
 252      0080AFF3 
 252      0080AFF3 
 252      0080
 253              		.align	2
 254              		.set	.LANCHOR0,. + 0
 255              		.type	measurement_offset, %object
 256              		.size	measurement_offset, 4
 257              	measurement_offset:
 258 0000 00000000 		.space	4
 259              		.text
 260              	.Letext0:
 261              		.file 2 "c:\\fbin\\yagarto\\bin\\../lib/gcc/arm-none-eabi/4.7.4/../../../../arm-none-eabi/include/
 262              		.file 3 "../../os/ports/common/ARMCMx/nvic.h"
 263              		.file 4 "../../os/hal/platforms/STM32F4xx/hal_lld.h"
 264              		.file 5 "../../os/hal/include/tm.h"
 265              		.file 6 "../../os/ports/common/ARMCMx/CMSIS/include/core_cm4.h"