ARM GAS  C:\Users\jenny\AppData\Local\Temp\ccnT6gsj.s 			page 1


   1              		.syntax unified
   2              		.cpu cortex-m4
   3              		.eabi_attribute 27, 3
   4              		.fpu fpv4-sp-d16
   5              		.eabi_attribute 20, 1
   6              		.eabi_attribute 21, 1
   7              		.eabi_attribute 23, 3
   8              		.eabi_attribute 24, 1
   9              		.eabi_attribute 25, 1
  10              		.eabi_attribute 26, 1
  11              		.eabi_attribute 30, 2
  12              		.eabi_attribute 34, 1
  13              		.eabi_attribute 18, 4
  14              		.thumb
  15              		.file	"usb.c"
  16              		.text
  17              	.Ltext0:
  18              		.cfi_sections	.debug_frame
  19              		.section	.text.usbInit,"ax",%progbits
  20              		.align	2
  21              		.p2align 4,,15
  22              		.global	usbInit
  23              		.thumb
  24              		.thumb_func
  25              		.type	usbInit, %function
  26              	usbInit:
  27              	.LFB120:
  28              		.file 1 "../../os/hal/src/usb.c"
  29              		.loc 1 235 0
  30              		.cfi_startproc
  31              		@ args = 0, pretend = 0, frame = 0
  32              		@ frame_needed = 0, uses_anonymous_args = 0
  33              		@ link register save eliminated.
  34              		.loc 1 238 0
  35              		.loc 1 237 0
  36 0000 FFF7FEBF 		b	usb_lld_init
  37              	.LVL0:
  38              		.cfi_endproc
  39              	.LFE120:
  40              		.size	usbInit, .-usbInit
  41 0004 AFF30080 		.section	.text.usbObjectInit,"ax",%progbits
  41      AFF30080 
  41      AFF30080 
  42              		.align	2
  43              		.p2align 4,,15
  44              		.global	usbObjectInit
  45              		.thumb
  46              		.thumb_func
  47              		.type	usbObjectInit, %function
  48              	usbObjectInit:
  49              	.LFB121:
  50              		.loc 1 247 0
  51              		.cfi_startproc
  52              		@ args = 0, pretend = 0, frame = 0
  53              		@ frame_needed = 0, uses_anonymous_args = 0
  54              		@ link register save eliminated.
  55              	.LVL1:
ARM GAS  C:\Users\jenny\AppData\Local\Temp\ccnT6gsj.s 			page 2


  56              		.loc 1 251 0
  57 0000 0023     		movs	r3, #0
  58              		.loc 1 250 0
  59 0002 0122     		movs	r2, #1
  60 0004 0270     		strb	r2, [r0, #0]
  61              		.loc 1 251 0
  62 0006 4360     		str	r3, [r0, #4]
  63              	.LVL2:
  64              		.loc 1 253 0
  65 0008 4362     		str	r3, [r0, #36]
  66              		.loc 1 254 0
  67 000a 8363     		str	r3, [r0, #56]
  68              	.LVL3:
  69              		.loc 1 253 0
  70 000c 8362     		str	r3, [r0, #40]
  71              		.loc 1 254 0
  72 000e C363     		str	r3, [r0, #60]
  73              	.LVL4:
  74              		.loc 1 253 0
  75 0010 C362     		str	r3, [r0, #44]
  76              		.loc 1 254 0
  77 0012 0364     		str	r3, [r0, #64]
  78              	.LVL5:
  79              		.loc 1 253 0
  80 0014 0363     		str	r3, [r0, #48]
  81              		.loc 1 254 0
  82 0016 4364     		str	r3, [r0, #68]
  83              	.LVL6:
  84              		.loc 1 253 0
  85 0018 4363     		str	r3, [r0, #52]
  86              		.loc 1 254 0
  87 001a 8364     		str	r3, [r0, #72]
  88              	.LVL7:
  89              		.loc 1 256 0
  90 001c 0381     		strh	r3, [r0, #8]	@ movhi
  91              		.loc 1 257 0
  92 001e 4381     		strh	r3, [r0, #10]	@ movhi
  93 0020 7047     		bx	lr
  94              		.cfi_endproc
  95              	.LFE121:
  96              		.size	usbObjectInit, .-usbObjectInit
  97 0022 00BFAFF3 		.section	.text.usbStart,"ax",%progbits
  97      0080AFF3 
  97      0080AFF3 
  97      0080
  98              		.align	2
  99              		.p2align 4,,15
 100              		.global	usbStart
 101              		.thumb
 102              		.thumb_func
 103              		.type	usbStart, %function
 104              	usbStart:
 105              	.LFB122:
 106              		.loc 1 268 0
 107              		.cfi_startproc
 108              		@ args = 0, pretend = 0, frame = 0
 109              		@ frame_needed = 0, uses_anonymous_args = 0
ARM GAS  C:\Users\jenny\AppData\Local\Temp\ccnT6gsj.s 			page 3


 110              	.LVL8:
 111 0000 38B5     		push	{r3, r4, r5, lr}
 112              	.LCFI0:
 113              		.cfi_def_cfa_offset 16
 114              		.cfi_offset 3, -16
 115              		.cfi_offset 4, -12
 116              		.cfi_offset 5, -8
 117              		.cfi_offset 14, -4
 118              		.loc 1 268 0
 119 0002 0446     		mov	r4, r0
 120              	.LBB2:
 121              		.loc 1 273 0
 122 0004 2023     		movs	r3, #32
 123              	.LVL9:
 124              	@ 273 "../../os/hal/src/usb.c" 1
 125 0006 83F31188 		msr     BASEPRI, r3
 126              	@ 0 "" 2
 127              	.LVL10:
 128              		.thumb
 129              	.LBE2:
 130              		.loc 1 278 0
 131 000a 0025     		movs	r5, #0
 132              		.loc 1 276 0
 133 000c 4160     		str	r1, [r0, #4]
 134              	.LVL11:
 135              		.loc 1 278 0
 136 000e C560     		str	r5, [r0, #12]
 137              	.LVL12:
 138 0010 0561     		str	r5, [r0, #16]
 139              	.LVL13:
 140 0012 4561     		str	r5, [r0, #20]
 141              	.LVL14:
 142 0014 8561     		str	r5, [r0, #24]
 143              	.LVL15:
 144 0016 C561     		str	r5, [r0, #28]
 145              	.LVL16:
 146 0018 0562     		str	r5, [r0, #32]
 147              	.LVL17:
 148              		.loc 1 279 0
 149 001a FFF7FEFF 		bl	usb_lld_start
 150              	.LVL18:
 151              		.loc 1 280 0
 152 001e 0223     		movs	r3, #2
 153 0020 2370     		strb	r3, [r4, #0]
 154              	.LBB3:
 155              		.loc 1 281 0
 156 0022 2B46     		mov	r3, r5
 157              	.LVL19:
 158              	@ 281 "../../os/hal/src/usb.c" 1
 159 0024 83F31188 		msr     BASEPRI, r3
 160              	@ 0 "" 2
 161              	.LVL20:
 162              		.thumb
 163 0028 38BD     		pop	{r3, r4, r5, pc}
 164              	.LBE3:
 165              		.cfi_endproc
 166              	.LFE122:
ARM GAS  C:\Users\jenny\AppData\Local\Temp\ccnT6gsj.s 			page 4


 167              		.size	usbStart, .-usbStart
 168 002a 00BFAFF3 		.section	.text.usbStop,"ax",%progbits
 168      0080
 169              		.align	2
 170              		.p2align 4,,15
 171              		.global	usbStop
 172              		.thumb
 173              		.thumb_func
 174              		.type	usbStop, %function
 175              	usbStop:
 176              	.LFB123:
 177              		.loc 1 291 0
 178              		.cfi_startproc
 179              		@ args = 0, pretend = 0, frame = 0
 180              		@ frame_needed = 0, uses_anonymous_args = 0
 181              	.LVL21:
 182 0000 10B5     		push	{r4, lr}
 183              	.LCFI1:
 184              		.cfi_def_cfa_offset 8
 185              		.cfi_offset 4, -8
 186              		.cfi_offset 14, -4
 187              	.LBB4:
 188              		.loc 1 295 0
 189 0002 2023     		movs	r3, #32
 190              	.LVL22:
 191              	.LBE4:
 192              		.loc 1 291 0
 193 0004 0446     		mov	r4, r0
 194              	.LBB5:
 195              		.loc 1 295 0
 196              	@ 295 "../../os/hal/src/usb.c" 1
 197 0006 83F31188 		msr     BASEPRI, r3
 198              	@ 0 "" 2
 199              	.LVL23:
 200              		.thumb
 201              	.LBE5:
 202              		.loc 1 299 0
 203 000a FFF7FEFF 		bl	usb_lld_stop
 204              	.LVL24:
 205              		.loc 1 300 0
 206 000e 0123     		movs	r3, #1
 207 0010 2370     		strb	r3, [r4, #0]
 208              	.LBB6:
 209              		.loc 1 301 0
 210 0012 0023     		movs	r3, #0
 211              	.LVL25:
 212              	@ 301 "../../os/hal/src/usb.c" 1
 213 0014 83F31188 		msr     BASEPRI, r3
 214              	@ 0 "" 2
 215              	.LVL26:
 216              		.thumb
 217 0018 10BD     		pop	{r4, pc}
 218              	.LBE6:
 219              		.cfi_endproc
 220              	.LFE123:
 221              		.size	usbStop, .-usbStop
 222 001a 00BFAFF3 		.section	.text.usbInitEndpointI,"ax",%progbits
ARM GAS  C:\Users\jenny\AppData\Local\Temp\ccnT6gsj.s 			page 5


 222      0080
 223              		.align	2
 224              		.p2align 4,,15
 225              		.global	usbInitEndpointI
 226              		.thumb
 227              		.thumb_func
 228              		.type	usbInitEndpointI, %function
 229              	usbInitEndpointI:
 230              	.LFB124:
 231              		.loc 1 318 0
 232              		.cfi_startproc
 233              		@ args = 0, pretend = 0, frame = 0
 234              		@ frame_needed = 0, uses_anonymous_args = 0
 235              	.LVL27:
 236 0000 70B5     		push	{r4, r5, r6, lr}
 237              	.LCFI2:
 238              		.cfi_def_cfa_offset 16
 239              		.cfi_offset 4, -16
 240              		.cfi_offset 5, -12
 241              		.cfi_offset 6, -8
 242              		.cfi_offset 14, -4
 243              		.loc 1 318 0
 244 0002 0646     		mov	r6, r0
 245              		.loc 1 328 0
 246 0004 5069     		ldr	r0, [r2, #20]
 247              	.LVL28:
 248              		.loc 1 318 0
 249 0006 1446     		mov	r4, r2
 250 0008 0D46     		mov	r5, r1
 251              		.loc 1 328 0
 252 000a 18B1     		cbz	r0, .L6
 253              		.loc 1 329 0
 254 000c 0021     		movs	r1, #0
 255              	.LVL29:
 256 000e 1022     		movs	r2, #16
 257              	.LVL30:
 258 0010 FFF7FEFF 		bl	memset
 259              	.LVL31:
 260              	.L6:
 261              		.loc 1 330 0
 262 0014 A069     		ldr	r0, [r4, #24]
 263 0016 18B1     		cbz	r0, .L7
 264              		.loc 1 331 0
 265 0018 0021     		movs	r1, #0
 266 001a 1022     		movs	r2, #16
 267 001c FFF7FEFF 		bl	memset
 268              	.LVL32:
 269              	.L7:
 270              		.loc 1 333 0
 271 0020 06EB8503 		add	r3, r6, r5, lsl #2
 272              		.loc 1 336 0
 273 0024 3046     		mov	r0, r6
 274 0026 2946     		mov	r1, r5
 275              		.loc 1 333 0
 276 0028 DC60     		str	r4, [r3, #12]
 277              		.loc 1 337 0
 278 002a BDE87040 		pop	{r4, r5, r6, lr}
ARM GAS  C:\Users\jenny\AppData\Local\Temp\ccnT6gsj.s 			page 6


 279              		.loc 1 336 0
 280 002e FFF7FEBF 		b	usb_lld_init_endpoint
 281              	.LVL33:
 282              		.cfi_endproc
 283              	.LFE124:
 284              		.size	usbInitEndpointI, .-usbInitEndpointI
 285 0032 00BFAFF3 		.section	.text.usbDisableEndpointsI,"ax",%progbits
 285      0080AFF3 
 285      0080AFF3 
 285      0080
 286              		.align	2
 287              		.p2align 4,,15
 288              		.global	usbDisableEndpointsI
 289              		.thumb
 290              		.thumb_func
 291              		.type	usbDisableEndpointsI, %function
 292              	usbDisableEndpointsI:
 293              	.LFB125:
 294              		.loc 1 350 0
 295              		.cfi_startproc
 296              		@ args = 0, pretend = 0, frame = 0
 297              		@ frame_needed = 0, uses_anonymous_args = 0
 298              		@ link register save eliminated.
 299              	.LVL34:
 300 0000 10B4     		push	{r4}
 301              	.LCFI3:
 302              		.cfi_def_cfa_offset 4
 303              		.cfi_offset 4, -4
 304              		.loc 1 359 0
 305 0002 4189     		ldrh	r1, [r0, #10]
 306              		.loc 1 358 0
 307 0004 0489     		ldrh	r4, [r0, #8]
 308              		.loc 1 361 0
 309 0006 0022     		movs	r2, #0
 310              		.loc 1 358 0
 311 0008 24F00104 		bic	r4, r4, #1
 312              		.loc 1 359 0
 313 000c 21F00101 		bic	r1, r1, #1
 314              		.loc 1 361 0
 315 0010 0261     		str	r2, [r0, #16]
 316              		.loc 1 358 0
 317 0012 0481     		strh	r4, [r0, #8]	@ movhi
 318              		.loc 1 359 0
 319 0014 4181     		strh	r1, [r0, #10]	@ movhi
 320              	.LVL35:
 321              		.loc 1 361 0
 322 0016 4261     		str	r2, [r0, #20]
 323              	.LVL36:
 324 0018 8261     		str	r2, [r0, #24]
 325              	.LVL37:
 326 001a C261     		str	r2, [r0, #28]
 327              	.LVL38:
 328 001c 0262     		str	r2, [r0, #32]
 329              	.LVL39:
 330              		.loc 1 365 0
 331 001e 10BC     		pop	{r4}
 332              		.loc 1 364 0
ARM GAS  C:\Users\jenny\AppData\Local\Temp\ccnT6gsj.s 			page 7


 333 0020 FFF7FEBF 		b	usb_lld_disable_endpoints
 334              	.LVL40:
 335              		.cfi_endproc
 336              	.LFE125:
 337              		.size	usbDisableEndpointsI, .-usbDisableEndpointsI
 338 0024 AFF30080 		.section	.text.usbPrepareReceive,"ax",%progbits
 338      AFF30080 
 338      AFF30080 
 339              		.align	2
 340              		.p2align 4,,15
 341              		.global	usbPrepareReceive
 342              		.thumb
 343              		.thumb_func
 344              		.type	usbPrepareReceive, %function
 345              	usbPrepareReceive:
 346              	.LFB126:
 347              		.loc 1 379 0
 348              		.cfi_startproc
 349              		@ args = 0, pretend = 0, frame = 0
 350              		@ frame_needed = 0, uses_anonymous_args = 0
 351              		@ link register save eliminated.
 352              	.LVL41:
 353 0000 30B4     		push	{r4, r5}
 354              	.LCFI4:
 355              		.cfi_def_cfa_offset 8
 356              		.cfi_offset 4, -8
 357              		.cfi_offset 5, -4
 358              		.loc 1 380 0
 359 0002 00EB8104 		add	r4, r0, r1, lsl #2
 360              		.loc 1 382 0
 361 0006 0025     		movs	r5, #0
 362              		.loc 1 380 0
 363 0008 E468     		ldr	r4, [r4, #12]
 364 000a A469     		ldr	r4, [r4, #24]
 365              	.LVL42:
 366              		.loc 1 382 0
 367 000c 2570     		strb	r5, [r4, #0]
 368              		.loc 1 383 0
 369 000e E260     		str	r2, [r4, #12]
 370              		.loc 1 384 0
 371 0010 6360     		str	r3, [r4, #4]
 372              		.loc 1 385 0
 373 0012 A560     		str	r5, [r4, #8]
 374              		.loc 1 388 0
 375 0014 30BC     		pop	{r4, r5}
 376              		.loc 1 387 0
 377 0016 FFF7FEBF 		b	usb_lld_prepare_receive
 378              	.LVL43:
 379              		.cfi_endproc
 380              	.LFE126:
 381              		.size	usbPrepareReceive, .-usbPrepareReceive
 382 001a 00BFAFF3 		.section	.text.usbPrepareTransmit,"ax",%progbits
 382      0080
 383              		.align	2
 384              		.p2align 4,,15
 385              		.global	usbPrepareTransmit
 386              		.thumb
ARM GAS  C:\Users\jenny\AppData\Local\Temp\ccnT6gsj.s 			page 8


 387              		.thumb_func
 388              		.type	usbPrepareTransmit, %function
 389              	usbPrepareTransmit:
 390              	.LFB127:
 391              		.loc 1 405 0
 392              		.cfi_startproc
 393              		@ args = 0, pretend = 0, frame = 0
 394              		@ frame_needed = 0, uses_anonymous_args = 0
 395              		@ link register save eliminated.
 396              	.LVL44:
 397 0000 30B4     		push	{r4, r5}
 398              	.LCFI5:
 399              		.cfi_def_cfa_offset 8
 400              		.cfi_offset 4, -8
 401              		.cfi_offset 5, -4
 402              		.loc 1 406 0
 403 0002 00EB8104 		add	r4, r0, r1, lsl #2
 404              		.loc 1 408 0
 405 0006 0025     		movs	r5, #0
 406              		.loc 1 406 0
 407 0008 E468     		ldr	r4, [r4, #12]
 408 000a 6469     		ldr	r4, [r4, #20]
 409              	.LVL45:
 410              		.loc 1 408 0
 411 000c 2570     		strb	r5, [r4, #0]
 412              		.loc 1 409 0
 413 000e E260     		str	r2, [r4, #12]
 414              		.loc 1 410 0
 415 0010 6360     		str	r3, [r4, #4]
 416              		.loc 1 411 0
 417 0012 A560     		str	r5, [r4, #8]
 418              		.loc 1 414 0
 419 0014 30BC     		pop	{r4, r5}
 420              		.loc 1 413 0
 421 0016 FFF7FEBF 		b	usb_lld_prepare_transmit
 422              	.LVL46:
 423              		.cfi_endproc
 424              	.LFE127:
 425              		.size	usbPrepareTransmit, .-usbPrepareTransmit
 426 001a 00BFAFF3 		.section	.text.usbPrepareQueuedReceive,"ax",%progbits
 426      0080
 427              		.align	2
 428              		.p2align 4,,15
 429              		.global	usbPrepareQueuedReceive
 430              		.thumb
 431              		.thumb_func
 432              		.type	usbPrepareQueuedReceive, %function
 433              	usbPrepareQueuedReceive:
 434              	.LFB128:
 435              		.loc 1 434 0
 436              		.cfi_startproc
 437              		@ args = 0, pretend = 0, frame = 0
 438              		@ frame_needed = 0, uses_anonymous_args = 0
 439              		@ link register save eliminated.
 440              	.LVL47:
 441 0000 30B4     		push	{r4, r5}
 442              	.LCFI6:
ARM GAS  C:\Users\jenny\AppData\Local\Temp\ccnT6gsj.s 			page 9


 443              		.cfi_def_cfa_offset 8
 444              		.cfi_offset 4, -8
 445              		.cfi_offset 5, -4
 446              		.loc 1 435 0
 447 0002 00EB8104 		add	r4, r0, r1, lsl #2
 448 0006 E568     		ldr	r5, [r4, #12]
 449 0008 AC69     		ldr	r4, [r5, #24]
 450              	.LVL48:
 451              		.loc 1 437 0
 452 000a 0125     		movs	r5, #1
 453              		.loc 1 439 0
 454 000c 6360     		str	r3, [r4, #4]
 455              		.loc 1 440 0
 456 000e 0023     		movs	r3, #0
 457              	.LVL49:
 458              		.loc 1 437 0
 459 0010 2570     		strb	r5, [r4, #0]
 460              		.loc 1 438 0
 461 0012 E260     		str	r2, [r4, #12]
 462              		.loc 1 440 0
 463 0014 A360     		str	r3, [r4, #8]
 464              		.loc 1 443 0
 465 0016 30BC     		pop	{r4, r5}
 466              		.loc 1 442 0
 467 0018 FFF7FEBF 		b	usb_lld_prepare_receive
 468              	.LVL50:
 469              		.cfi_endproc
 470              	.LFE128:
 471              		.size	usbPrepareQueuedReceive, .-usbPrepareQueuedReceive
 472 001c AFF30080 		.section	.text.usbPrepareQueuedTransmit,"ax",%progbits
 473              		.align	2
 474              		.p2align 4,,15
 475              		.global	usbPrepareQueuedTransmit
 476              		.thumb
 477              		.thumb_func
 478              		.type	usbPrepareQueuedTransmit, %function
 479              	usbPrepareQueuedTransmit:
 480              	.LFB129:
 481              		.loc 1 460 0
 482              		.cfi_startproc
 483              		@ args = 0, pretend = 0, frame = 0
 484              		@ frame_needed = 0, uses_anonymous_args = 0
 485              		@ link register save eliminated.
 486              	.LVL51:
 487 0000 30B4     		push	{r4, r5}
 488              	.LCFI7:
 489              		.cfi_def_cfa_offset 8
 490              		.cfi_offset 4, -8
 491              		.cfi_offset 5, -4
 492              		.loc 1 461 0
 493 0002 00EB8104 		add	r4, r0, r1, lsl #2
 494 0006 E568     		ldr	r5, [r4, #12]
 495 0008 6C69     		ldr	r4, [r5, #20]
 496              	.LVL52:
 497              		.loc 1 463 0
 498 000a 0125     		movs	r5, #1
 499              		.loc 1 465 0
ARM GAS  C:\Users\jenny\AppData\Local\Temp\ccnT6gsj.s 			page 10


 500 000c 6360     		str	r3, [r4, #4]
 501              		.loc 1 466 0
 502 000e 0023     		movs	r3, #0
 503              	.LVL53:
 504              		.loc 1 463 0
 505 0010 2570     		strb	r5, [r4, #0]
 506              		.loc 1 464 0
 507 0012 E260     		str	r2, [r4, #12]
 508              		.loc 1 466 0
 509 0014 A360     		str	r3, [r4, #8]
 510              		.loc 1 469 0
 511 0016 30BC     		pop	{r4, r5}
 512              		.loc 1 468 0
 513 0018 FFF7FEBF 		b	usb_lld_prepare_transmit
 514              	.LVL54:
 515              		.cfi_endproc
 516              	.LFE129:
 517              		.size	usbPrepareQueuedTransmit, .-usbPrepareQueuedTransmit
 518 001c AFF30080 		.section	.text.usbStartReceiveI,"ax",%progbits
 519              		.align	2
 520              		.p2align 4,,15
 521              		.global	usbStartReceiveI
 522              		.thumb
 523              		.thumb_func
 524              		.type	usbStartReceiveI, %function
 525              	usbStartReceiveI:
 526              	.LFB130:
 527              		.loc 1 485 0
 528              		.cfi_startproc
 529              		@ args = 0, pretend = 0, frame = 0
 530              		@ frame_needed = 0, uses_anonymous_args = 0
 531              	.LVL55:
 532 0000 70B5     		push	{r4, r5, r6, lr}
 533              	.LCFI8:
 534              		.cfi_def_cfa_offset 16
 535              		.cfi_offset 4, -16
 536              		.cfi_offset 5, -12
 537              		.cfi_offset 6, -8
 538              		.cfi_offset 14, -4
 539              		.loc 1 490 0
 540 0002 4489     		ldrh	r4, [r0, #10]
 541 0004 44FA01F3 		asr	r3, r4, r1
 542 0008 13F00106 		ands	r6, r3, #1
 543              		.loc 1 485 0
 544 000c 0D46     		mov	r5, r1
 545              		.loc 1 490 0
 546 000e 01D0     		beq	.L23
 547              		.loc 1 491 0
 548 0010 0120     		movs	r0, #1
 549              	.LVL56:
 550              		.loc 1 496 0
 551 0012 70BD     		pop	{r4, r5, r6, pc}
 552              	.LVL57:
 553              	.L23:
 554              		.loc 1 493 0
 555 0014 0123     		movs	r3, #1
 556 0016 03FA01F5 		lsl	r5, r3, r1
ARM GAS  C:\Users\jenny\AppData\Local\Temp\ccnT6gsj.s 			page 11


 557 001a 2C43     		orrs	r4, r4, r5
 558 001c 4481     		strh	r4, [r0, #10]	@ movhi
 559              		.loc 1 494 0
 560 001e FFF7FEFF 		bl	usb_lld_start_out
 561              	.LVL58:
 562              		.loc 1 495 0
 563 0022 3046     		mov	r0, r6
 564 0024 70BD     		pop	{r4, r5, r6, pc}
 565              		.cfi_endproc
 566              	.LFE130:
 567              		.size	usbStartReceiveI, .-usbStartReceiveI
 568 0026 00BFAFF3 		.section	.text.usbStartTransmitI,"ax",%progbits
 568      0080AFF3 
 568      0080
 569              		.align	2
 570              		.p2align 4,,15
 571              		.global	usbStartTransmitI
 572              		.thumb
 573              		.thumb_func
 574              		.type	usbStartTransmitI, %function
 575              	usbStartTransmitI:
 576              	.LFB131:
 577              		.loc 1 512 0
 578              		.cfi_startproc
 579              		@ args = 0, pretend = 0, frame = 0
 580              		@ frame_needed = 0, uses_anonymous_args = 0
 581              	.LVL59:
 582 0000 70B5     		push	{r4, r5, r6, lr}
 583              	.LCFI9:
 584              		.cfi_def_cfa_offset 16
 585              		.cfi_offset 4, -16
 586              		.cfi_offset 5, -12
 587              		.cfi_offset 6, -8
 588              		.cfi_offset 14, -4
 589              		.loc 1 517 0
 590 0002 0489     		ldrh	r4, [r0, #8]
 591 0004 44FA01F3 		asr	r3, r4, r1
 592 0008 13F00106 		ands	r6, r3, #1
 593              		.loc 1 512 0
 594 000c 0D46     		mov	r5, r1
 595              		.loc 1 517 0
 596 000e 01D0     		beq	.L27
 597              		.loc 1 518 0
 598 0010 0120     		movs	r0, #1
 599              	.LVL60:
 600              		.loc 1 523 0
 601 0012 70BD     		pop	{r4, r5, r6, pc}
 602              	.LVL61:
 603              	.L27:
 604              		.loc 1 520 0
 605 0014 0123     		movs	r3, #1
 606 0016 03FA01F5 		lsl	r5, r3, r1
 607 001a 2C43     		orrs	r4, r4, r5
 608 001c 0481     		strh	r4, [r0, #8]	@ movhi
 609              		.loc 1 521 0
 610 001e FFF7FEFF 		bl	usb_lld_start_in
 611              	.LVL62:
ARM GAS  C:\Users\jenny\AppData\Local\Temp\ccnT6gsj.s 			page 12


 612              		.loc 1 522 0
 613 0022 3046     		mov	r0, r6
 614 0024 70BD     		pop	{r4, r5, r6, pc}
 615              		.cfi_endproc
 616              	.LFE131:
 617              		.size	usbStartTransmitI, .-usbStartTransmitI
 618 0026 00BFAFF3 		.section	.text.usbStallReceiveI,"ax",%progbits
 618      0080AFF3 
 618      0080
 619              		.align	2
 620              		.p2align 4,,15
 621              		.global	usbStallReceiveI
 622              		.thumb
 623              		.thumb_func
 624              		.type	usbStallReceiveI, %function
 625              	usbStallReceiveI:
 626              	.LFB132:
 627              		.loc 1 537 0
 628              		.cfi_startproc
 629              		@ args = 0, pretend = 0, frame = 0
 630              		@ frame_needed = 0, uses_anonymous_args = 0
 631              	.LVL63:
 632              		.loc 1 542 0
 633 0000 4389     		ldrh	r3, [r0, #10]
 634 0002 43FA01F3 		asr	r3, r3, r1
 635              		.loc 1 537 0
 636 0006 10B5     		push	{r4, lr}
 637              	.LCFI10:
 638              		.cfi_def_cfa_offset 8
 639              		.cfi_offset 4, -8
 640              		.cfi_offset 14, -4
 641              		.loc 1 542 0
 642 0008 13F00104 		ands	r4, r3, #1
 643 000c 01D0     		beq	.L31
 644              		.loc 1 543 0
 645 000e 0120     		movs	r0, #1
 646              	.LVL64:
 647              		.loc 1 547 0
 648 0010 10BD     		pop	{r4, pc}
 649              	.LVL65:
 650              	.L31:
 651              		.loc 1 545 0
 652 0012 FFF7FEFF 		bl	usb_lld_stall_out
 653              	.LVL66:
 654              		.loc 1 546 0
 655 0016 2046     		mov	r0, r4
 656 0018 10BD     		pop	{r4, pc}
 657              		.cfi_endproc
 658              	.LFE132:
 659              		.size	usbStallReceiveI, .-usbStallReceiveI
 660 001a 00BFAFF3 		.section	.text.usbStallTransmitI,"ax",%progbits
 660      0080
 661              		.align	2
 662              		.p2align 4,,15
 663              		.global	usbStallTransmitI
 664              		.thumb
 665              		.thumb_func
ARM GAS  C:\Users\jenny\AppData\Local\Temp\ccnT6gsj.s 			page 13


 666              		.type	usbStallTransmitI, %function
 667              	usbStallTransmitI:
 668              	.LFB133:
 669              		.loc 1 561 0
 670              		.cfi_startproc
 671              		@ args = 0, pretend = 0, frame = 0
 672              		@ frame_needed = 0, uses_anonymous_args = 0
 673              	.LVL67:
 674              		.loc 1 566 0
 675 0000 0389     		ldrh	r3, [r0, #8]
 676 0002 43FA01F3 		asr	r3, r3, r1
 677              		.loc 1 561 0
 678 0006 10B5     		push	{r4, lr}
 679              	.LCFI11:
 680              		.cfi_def_cfa_offset 8
 681              		.cfi_offset 4, -8
 682              		.cfi_offset 14, -4
 683              		.loc 1 566 0
 684 0008 13F00104 		ands	r4, r3, #1
 685 000c 01D0     		beq	.L35
 686              		.loc 1 567 0
 687 000e 0120     		movs	r0, #1
 688              	.LVL68:
 689              		.loc 1 571 0
 690 0010 10BD     		pop	{r4, pc}
 691              	.LVL69:
 692              	.L35:
 693              		.loc 1 569 0
 694 0012 FFF7FEFF 		bl	usb_lld_stall_in
 695              	.LVL70:
 696              		.loc 1 570 0
 697 0016 2046     		mov	r0, r4
 698 0018 10BD     		pop	{r4, pc}
 699              		.cfi_endproc
 700              	.LFE133:
 701              		.size	usbStallTransmitI, .-usbStallTransmitI
 702 001a 00BFAFF3 		.section	.text._usb_reset,"ax",%progbits
 702      0080
 703              		.align	2
 704              		.p2align 4,,15
 705              		.global	_usb_reset
 706              		.thumb
 707              		.thumb_func
 708              		.type	_usb_reset, %function
 709              	_usb_reset:
 710              	.LFB134:
 711              		.loc 1 582 0
 712              		.cfi_startproc
 713              		@ args = 0, pretend = 0, frame = 0
 714              		@ frame_needed = 0, uses_anonymous_args = 0
 715              		@ link register save eliminated.
 716              	.LVL71:
 717 0000 10B4     		push	{r4}
 718              	.LCFI12:
 719              		.cfi_def_cfa_offset 4
 720              		.cfi_offset 4, -4
 721              		.loc 1 582 0
ARM GAS  C:\Users\jenny\AppData\Local\Temp\ccnT6gsj.s 			page 14


 722 0002 0346     		mov	r3, r0
 723              		.loc 1 586 0
 724 0004 0022     		movs	r2, #0
 725              		.loc 1 585 0
 726 0006 0224     		movs	r4, #2
 727 0008 0470     		strb	r4, [r0, #0]
 728              		.loc 1 586 0
 729 000a A0F86420 		strh	r2, [r0, #100]	@ movhi
 730              		.loc 1 587 0
 731 000e 83F86620 		strb	r2, [r3, #102]
 732              		.loc 1 588 0
 733 0012 80F86720 		strb	r2, [r0, #103]
 734              		.loc 1 589 0
 735 0016 0281     		strh	r2, [r0, #8]	@ movhi
 736              		.loc 1 590 0
 737 0018 4281     		strh	r2, [r0, #10]	@ movhi
 738              	.LVL72:
 739              		.loc 1 594 0
 740 001a C260     		str	r2, [r0, #12]
 741              	.LVL73:
 742 001c 0261     		str	r2, [r0, #16]
 743              	.LVL74:
 744 001e 4261     		str	r2, [r0, #20]
 745              	.LVL75:
 746 0020 8261     		str	r2, [r0, #24]
 747              	.LVL76:
 748 0022 C261     		str	r2, [r0, #28]
 749              	.LVL77:
 750 0024 0262     		str	r2, [r0, #32]
 751              	.LVL78:
 752              		.loc 1 597 0
 753 0026 83F84C20 		strb	r2, [r3, #76]
 754              		.loc 1 601 0
 755 002a 10BC     		pop	{r4}
 756              		.loc 1 600 0
 757 002c FFF7FEBF 		b	usb_lld_reset
 758              	.LVL79:
 759              		.cfi_endproc
 760              	.LFE134:
 761              		.size	_usb_reset, .-_usb_reset
 762              		.section	.text._usb_ep0setup,"ax",%progbits
 763              		.align	2
 764              		.p2align 4,,15
 765              		.global	_usb_ep0setup
 766              		.thumb
 767              		.thumb_func
 768              		.type	_usb_ep0setup, %function
 769              	_usb_ep0setup:
 770              	.LFB135:
 771              		.loc 1 613 0
 772              		.cfi_startproc
 773              		@ args = 0, pretend = 0, frame = 0
 774              		@ frame_needed = 0, uses_anonymous_args = 0
 775              	.LVL80:
 776 0000 F8B5     		push	{r3, r4, r5, r6, r7, lr}
 777              	.LCFI13:
 778              		.cfi_def_cfa_offset 24
ARM GAS  C:\Users\jenny\AppData\Local\Temp\ccnT6gsj.s 			page 15


 779              		.cfi_offset 3, -24
 780              		.cfi_offset 4, -20
 781              		.cfi_offset 5, -16
 782              		.cfi_offset 6, -12
 783              		.cfi_offset 7, -8
 784              		.cfi_offset 14, -4
 785              		.loc 1 613 0
 786 0002 0446     		mov	r4, r0
 787              		.loc 1 616 0
 788 0004 0023     		movs	r3, #0
 789 0006 80F84C30 		strb	r3, [r0, #76]
 790              		.loc 1 617 0
 791 000a 00F15C02 		add	r2, r0, #92
 792 000e FFF7FEFF 		bl	usb_lld_read_setup
 793              	.LVL81:
 794              		.loc 1 621 0
 795 0012 6068     		ldr	r0, [r4, #4]
 796 0014 8168     		ldr	r1, [r0, #8]
 797 0016 41B3     		cbz	r1, .L42
 798              		.loc 1 622 0 discriminator 1
 799 0018 2046     		mov	r0, r4
 800 001a 8847     		blx	r1
 801              	.LVL82:
 802              		.loc 1 621 0 discriminator 1
 803 001c 28B3     		cbz	r0, .L42
 804 001e 656D     		ldr	r5, [r4, #84]
 805 0020 94F85C30 		ldrb	r3, [r4, #92]	@ zero_extendqisi2
 806              	.L81:
 807              		.loc 1 641 0
 808 0024 94F86310 		ldrb	r1, [r4, #99]	@ zero_extendqisi2
 809 0028 94F86220 		ldrb	r2, [r4, #98]	@ zero_extendqisi2
 810 002c 42EA0120 		orr	r0, r2, r1, lsl #8
 811              	.LVL83:
 812              		.loc 1 643 0
 813 0030 A842     		cmp	r0, r5
 814              		.loc 1 644 0
 815 0032 3CBF     		itt	cc
 816 0034 0546     		movcc	r5, r0
 817 0036 6065     		strcc	r0, [r4, #84]
 818              		.loc 1 645 0
 819 0038 13F0800F 		tst	r3, #128
 820              		.loc 1 650 0
 821 003c 2B46     		mov	r3, r5
 822              		.loc 1 645 0
 823 003e 7DD1     		bne	.L106
 824              		.loc 1 667 0
 825 0040 002D     		cmp	r5, #0
 826 0042 68D1     		bne	.L107
 827              		.loc 1 678 0
 828 0044 0521     		movs	r1, #5
 829 0046 84F84C10 		strb	r1, [r4, #76]
 830              		.loc 1 679 0
 831 004a 2046     		mov	r0, r4
 832              	.LVL84:
 833 004c 2946     		mov	r1, r5
 834 004e 2A46     		mov	r2, r5
 835              	.LVL85:
ARM GAS  C:\Users\jenny\AppData\Local\Temp\ccnT6gsj.s 			page 16


 836 0050 FFF7FEFF 		bl	usbPrepareTransmit
 837              	.LVL86:
 838              	.LBB19:
 839              		.loc 1 680 0
 840 0054 2023     		movs	r3, #32
 841              	.LVL87:
 842              	@ 680 "../../os/hal/src/usb.c" 1
 843 0056 83F31188 		msr     BASEPRI, r3
 844              	@ 0 "" 2
 845              	.LVL88:
 846              		.thumb
 847              	.LBE19:
 848              		.loc 1 681 0
 849 005a 2046     		mov	r0, r4
 850 005c 2946     		mov	r1, r5
 851 005e FFF7FEFF 		bl	usbStartTransmitI
 852              	.LVL89:
 853              	.LBB20:
 854              		.loc 1 682 0
 855 0062 2B46     		mov	r3, r5
 856              	.LVL90:
 857              	@ 682 "../../os/hal/src/usb.c" 1
 858 0064 83F31188 		msr     BASEPRI, r3
 859              	@ 0 "" 2
 860              	.LVL91:
 861              		.thumb
 862 0068 F8BD     		pop	{r3, r4, r5, r6, r7, pc}
 863              	.LVL92:
 864              	.L42:
 865              	.LBE20:
 866              		.loc 1 625 0
 867 006a 94F85C30 		ldrb	r3, [r4, #92]	@ zero_extendqisi2
 868 006e 13F06007 		ands	r7, r3, #96
 869 0072 11D0     		beq	.L108
 870              	.L39:
 871              		.loc 1 630 0
 872 0074 0021     		movs	r1, #0
 873 0076 2046     		mov	r0, r4
 874 0078 FFF7FEFF 		bl	usb_lld_stall_in
 875              	.LVL93:
 876              		.loc 1 631 0
 877 007c 2046     		mov	r0, r4
 878 007e 0021     		movs	r1, #0
 879 0080 FFF7FEFF 		bl	usb_lld_stall_out
 880              	.LVL94:
 881              		.loc 1 632 0
 882 0084 6368     		ldr	r3, [r4, #4]
 883 0086 1A68     		ldr	r2, [r3, #0]
 884 0088 12B1     		cbz	r2, .L75
 885              		.loc 1 632 0 is_stmt 0 discriminator 1
 886 008a 2046     		mov	r0, r4
 887 008c 0521     		movs	r1, #5
 888 008e 9047     		blx	r2
 889              	.LVL95:
 890              	.L75:
 891              		.loc 1 633 0 is_stmt 1
 892 0090 0620     		movs	r0, #6
ARM GAS  C:\Users\jenny\AppData\Local\Temp\ccnT6gsj.s 			page 17


 893 0092 84F84C00 		strb	r0, [r4, #76]
 894              		.loc 1 634 0
 895 0096 F8BD     		pop	{r3, r4, r5, r6, r7, pc}
 896              	.L108:
 897              	.LVL96:
 898              	.LBB21:
 899              	.LBB22:
 900              		.loc 1 95 0
 901 0098 94F85D60 		ldrb	r6, [r4, #93]	@ zero_extendqisi2
 902              		.loc 1 93 0
 903 009c 03F07F02 		and	r2, r3, #127
 904              		.loc 1 94 0
 905 00a0 42EA0626 		orr	r6, r2, r6, lsl #8
 906              		.loc 1 93 0
 907 00a4 B6F5407F 		cmp	r6, #768
 908 00a8 00F0F980 		beq	.L49
 909 00ac 16DD     		ble	.L109
 910 00ae B6F5C06F 		cmp	r6, #1536
 911 00b2 00F08980 		beq	.L52
 912 00b6 68DD     		ble	.L110
 913 00b8 B6F5106F 		cmp	r6, #2304
 914 00bc 00F0B480 		beq	.L54
 915 00c0 40F60242 		movw	r2, #3074
 916 00c4 9642     		cmp	r6, r2
 917 00c6 78D0     		beq	.L45
 918 00c8 B6F5006F 		cmp	r6, #2048
 919 00cc D2D1     		bne	.L39
 920              		.loc 1 142 0
 921 00ce 0125     		movs	r5, #1
 922 00d0 04F16700 		add	r0, r4, #103
 923 00d4 2065     		str	r0, [r4, #80]
 924 00d6 6565     		str	r5, [r4, #84]
 925 00d8 A765     		str	r7, [r4, #88]
 926 00da A3E7     		b	.L81
 927              	.L109:
 928              		.loc 1 93 0
 929 00dc 022E     		cmp	r6, #2
 930 00de 00F0B580 		beq	.L46
 931 00e2 65DD     		ble	.L111
 932 00e4 B6F5807F 		cmp	r6, #256
 933 00e8 00F08780 		beq	.L47
 934 00ec B6F5817F 		cmp	r6, #258
 935 00f0 C0D1     		bne	.L39
 936              		.loc 1 188 0
 937 00f2 94F85E10 		ldrb	r1, [r4, #94]	@ zero_extendqisi2
 938 00f6 0029     		cmp	r1, #0
 939 00f8 BCD1     		bne	.L39
 940              		.loc 1 191 0
 941 00fa 94F86050 		ldrb	r5, [r4, #96]	@ zero_extendqisi2
 942 00fe 15F00F01 		ands	r1, r5, #15
 943 0102 50D0     		beq	.L73
 944              		.loc 1 192 0
 945 0104 2A06     		lsls	r2, r5, #24
 946              		.loc 1 193 0
 947 0106 2046     		mov	r0, r4
 948              		.loc 1 192 0
 949 0108 00F1FA80 		bmi	.L112
ARM GAS  C:\Users\jenny\AppData\Local\Temp\ccnT6gsj.s 			page 18


 950              	.LVL97:
 951              		.loc 1 195 0
 952 010c FFF7FEFF 		bl	usb_lld_clear_out
 953              	.LVL98:
 954 0110 94F85C30 		ldrb	r3, [r4, #92]	@ zero_extendqisi2
 955 0114 47E0     		b	.L73
 956              	.LVL99:
 957              	.L107:
 958              	.LBE22:
 959              	.LBE21:
 960              		.loc 1 669 0
 961 0116 0422     		movs	r2, #4
 962 0118 84F84C20 		strb	r2, [r4, #76]
 963              		.loc 1 670 0
 964 011c 2046     		mov	r0, r4
 965              	.LVL100:
 966 011e 0021     		movs	r1, #0
 967              	.LVL101:
 968 0120 226D     		ldr	r2, [r4, #80]
 969 0122 FFF7FEFF 		bl	usbPrepareReceive
 970              	.LVL102:
 971              	.LBB26:
 972              		.loc 1 671 0
 973 0126 2023     		movs	r3, #32
 974              	.LVL103:
 975              	@ 671 "../../os/hal/src/usb.c" 1
 976 0128 83F31188 		msr     BASEPRI, r3
 977              	@ 0 "" 2
 978              	.LVL104:
 979              		.thumb
 980              	.LBE26:
 981              		.loc 1 672 0
 982 012c 0021     		movs	r1, #0
 983 012e 2046     		mov	r0, r4
 984 0130 FFF7FEFF 		bl	usbStartReceiveI
 985              	.LVL105:
 986              	.LBB27:
 987              		.loc 1 673 0
 988 0134 0023     		movs	r3, #0
 989              	.LVL106:
 990              	@ 673 "../../os/hal/src/usb.c" 1
 991 0136 83F31188 		msr     BASEPRI, r3
 992              	@ 0 "" 2
 993              	.LVL107:
 994              		.thumb
 995 013a F8BD     		pop	{r3, r4, r5, r6, r7, pc}
 996              	.LVL108:
 997              	.L106:
 998              	.LBE27:
 999              		.loc 1 647 0
 1000 013c 95B1     		cbz	r5, .L79
 1001              		.loc 1 649 0
 1002 013e 0121     		movs	r1, #1
 1003 0140 84F84C10 		strb	r1, [r4, #76]
 1004              		.loc 1 650 0
 1005 0144 2046     		mov	r0, r4
 1006              	.LVL109:
ARM GAS  C:\Users\jenny\AppData\Local\Temp\ccnT6gsj.s 			page 19


 1007 0146 0021     		movs	r1, #0
 1008 0148 226D     		ldr	r2, [r4, #80]
 1009              	.LVL110:
 1010 014a FFF7FEFF 		bl	usbPrepareTransmit
 1011              	.LVL111:
 1012              	.LBB28:
 1013              		.loc 1 651 0
 1014 014e 2023     		movs	r3, #32
 1015              	.LVL112:
 1016              	@ 651 "../../os/hal/src/usb.c" 1
 1017 0150 83F31188 		msr     BASEPRI, r3
 1018              	@ 0 "" 2
 1019              	.LVL113:
 1020              		.thumb
 1021              	.LBE28:
 1022              		.loc 1 652 0
 1023 0154 0021     		movs	r1, #0
 1024 0156 2046     		mov	r0, r4
 1025 0158 FFF7FEFF 		bl	usbStartTransmitI
 1026              	.LVL114:
 1027              	.LBB29:
 1028              		.loc 1 653 0
 1029 015c 0023     		movs	r3, #0
 1030              	.LVL115:
 1031              	@ 653 "../../os/hal/src/usb.c" 1
 1032 015e 83F31188 		msr     BASEPRI, r3
 1033              	@ 0 "" 2
 1034              	.LVL116:
 1035              		.thumb
 1036 0162 F8BD     		pop	{r3, r4, r5, r6, r7, pc}
 1037              	.LVL117:
 1038              	.L79:
 1039              	.LBE29:
 1040              		.loc 1 658 0
 1041 0164 0320     		movs	r0, #3
 1042              	.LVL118:
 1043 0166 84F84C00 		strb	r0, [r4, #76]
 1044              		.loc 1 659 0
 1045 016a 2946     		mov	r1, r5
 1046              	.LVL119:
 1047 016c 2046     		mov	r0, r4
 1048 016e 2A46     		mov	r2, r5
 1049              	.LVL120:
 1050 0170 FFF7FEFF 		bl	usbPrepareReceive
 1051              	.LVL121:
 1052              	.LBB30:
 1053              		.loc 1 660 0
 1054 0174 2023     		movs	r3, #32
 1055              	.LVL122:
 1056              	@ 660 "../../os/hal/src/usb.c" 1
 1057 0176 83F31188 		msr     BASEPRI, r3
 1058              	@ 0 "" 2
 1059              	.LVL123:
 1060              		.thumb
 1061              	.LBE30:
 1062              		.loc 1 661 0
 1063 017a 2046     		mov	r0, r4
ARM GAS  C:\Users\jenny\AppData\Local\Temp\ccnT6gsj.s 			page 20


 1064 017c 2946     		mov	r1, r5
 1065 017e FFF7FEFF 		bl	usbStartReceiveI
 1066              	.LVL124:
 1067              	.LBB31:
 1068              		.loc 1 662 0
 1069 0182 2B46     		mov	r3, r5
 1070              	.LVL125:
 1071              	@ 662 "../../os/hal/src/usb.c" 1
 1072 0184 83F31188 		msr     BASEPRI, r3
 1073              	@ 0 "" 2
 1074              	.LVL126:
 1075              		.thumb
 1076 0188 F8BD     		pop	{r3, r4, r5, r6, r7, pc}
 1077              	.LVL127:
 1078              	.L110:
 1079              	.LBE31:
 1080              	.LBB32:
 1081              	.LBB25:
 1082              		.loc 1 93 0
 1083 018a 40F20230 		movw	r0, #770
 1084 018e 8642     		cmp	r6, r0
 1085 0190 73D0     		beq	.L50
 1086 0192 B6F5A06F 		cmp	r6, #1280
 1087 0196 7FF46DAF 		bne	.L39
 1088              		.loc 1 123 0
 1089 019a B4F85C10 		ldrh	r1, [r4, #92]
 1090 019e B1F5A06F 		cmp	r1, #1280
 1091 01a2 00F09B80 		beq	.L113
 1092              	.L73:
 1093              		.loc 1 210 0
 1094 01a6 0025     		movs	r5, #0
 1095 01a8 2565     		str	r5, [r4, #80]
 1096 01aa 6565     		str	r5, [r4, #84]
 1097 01ac A565     		str	r5, [r4, #88]
 1098 01ae 39E7     		b	.L81
 1099              	.L111:
 1100              		.loc 1 93 0
 1101 01b0 002E     		cmp	r6, #0
 1102 01b2 32D0     		beq	.L44
 1103 01b4 012E     		cmp	r6, #1
 1104 01b6 7FF45DAF 		bne	.L39
 1105              	.L45:
 1106              		.loc 1 158 0
 1107 01ba 5649     		ldr	r1, .L116
 1108 01bc 0225     		movs	r5, #2
 1109 01be 0022     		movs	r2, #0
 1110 01c0 2165     		str	r1, [r4, #80]
 1111 01c2 6565     		str	r5, [r4, #84]
 1112 01c4 A265     		str	r2, [r4, #88]
 1113 01c6 2DE7     		b	.L81
 1114              	.L52:
 1115              		.loc 1 133 0
 1116 01c8 6068     		ldr	r0, [r4, #4]
 1117              		.loc 1 135 0
 1118 01ca 94F86160 		ldrb	r6, [r4, #97]	@ zero_extendqisi2
 1119              		.loc 1 133 0
 1120 01ce 94F86030 		ldrb	r3, [r4, #96]	@ zero_extendqisi2
ARM GAS  C:\Users\jenny\AppData\Local\Temp\ccnT6gsj.s 			page 21


 1121 01d2 4568     		ldr	r5, [r0, #4]
 1122 01d4 94F85F10 		ldrb	r1, [r4, #95]	@ zero_extendqisi2
 1123 01d8 94F85E20 		ldrb	r2, [r4, #94]	@ zero_extendqisi2
 1124 01dc 2046     		mov	r0, r4
 1125 01de 43EA0623 		orr	r3, r3, r6, lsl #8
 1126 01e2 A847     		blx	r5
 1127              	.LVL128:
 1128              		.loc 1 136 0
 1129 01e4 0028     		cmp	r0, #0
 1130 01e6 3FF445AF 		beq	.L39
 1131              		.loc 1 138 0
 1132 01ea 4168     		ldr	r1, [r0, #4]
 1133 01ec 0568     		ldr	r5, [r0, #0]
 1134 01ee 94F85C30 		ldrb	r3, [r4, #92]	@ zero_extendqisi2
 1135 01f2 2165     		str	r1, [r4, #80]
 1136 01f4 6565     		str	r5, [r4, #84]
 1137 01f6 A765     		str	r7, [r4, #88]
 1138 01f8 14E7     		b	.L81
 1139              	.LVL129:
 1140              	.L47:
 1141              		.loc 1 103 0
 1142 01fa 94F85E20 		ldrb	r2, [r4, #94]	@ zero_extendqisi2
 1143 01fe 012A     		cmp	r2, #1
 1144 0200 7FF438AF 		bne	.L39
 1145              		.loc 1 104 0
 1146 0204 B4F86400 		ldrh	r0, [r4, #100]
 1147              		.loc 1 105 0
 1148 0208 2765     		str	r7, [r4, #80]
 1149              		.loc 1 104 0
 1150 020a 20F00201 		bic	r1, r0, #2
 1151 020e A4F86410 		strh	r1, [r4, #100]	@ movhi
 1152              		.loc 1 105 0
 1153 0212 6765     		str	r7, [r4, #84]
 1154 0214 A765     		str	r7, [r4, #88]
 1155 0216 3D46     		mov	r5, r7
 1156 0218 04E7     		b	.L81
 1157              	.L44:
 1158              		.loc 1 98 0
 1159 021a 0225     		movs	r5, #2
 1160 021c 04F16400 		add	r0, r4, #100
 1161 0220 2065     		str	r0, [r4, #80]
 1162 0222 6565     		str	r5, [r4, #84]
 1163 0224 A665     		str	r6, [r4, #88]
 1164 0226 FDE6     		b	.L81
 1165              	.L54:
 1166              		.loc 1 146 0
 1167 0228 94F85E50 		ldrb	r5, [r4, #94]	@ zero_extendqisi2
 1168 022c 84F86750 		strb	r5, [r4, #103]
 1169              		.loc 1 147 0
 1170 0230 002D     		cmp	r5, #0
 1171 0232 44D1     		bne	.L63
 1172              		.loc 1 148 0
 1173 0234 0321     		movs	r1, #3
 1174 0236 2170     		strb	r1, [r4, #0]
 1175              	.L64:
 1176              		.loc 1 151 0
 1177 0238 6268     		ldr	r2, [r4, #4]
ARM GAS  C:\Users\jenny\AppData\Local\Temp\ccnT6gsj.s 			page 22


 1178 023a 1568     		ldr	r5, [r2, #0]
 1179 023c 002D     		cmp	r5, #0
 1180 023e B2D0     		beq	.L73
 1181 0240 2046     		mov	r0, r4
 1182 0242 0221     		movs	r1, #2
 1183 0244 A847     		blx	r5
 1184              	.LVL130:
 1185 0246 94F85C30 		ldrb	r3, [r4, #92]	@ zero_extendqisi2
 1186 024a ACE7     		b	.L73
 1187              	.L46:
 1188              		.loc 1 162 0
 1189 024c 94F86030 		ldrb	r3, [r4, #96]	@ zero_extendqisi2
 1190 0250 13F0800F 		tst	r3, #128
 1191              		.loc 1 163 0
 1192 0254 2046     		mov	r0, r4
 1193 0256 03F00F01 		and	r1, r3, #15
 1194              		.loc 1 162 0
 1195 025a 33D1     		bne	.L114
 1196              	.LVL131:
 1197              		.loc 1 175 0
 1198 025c FFF7FEFF 		bl	usb_lld_get_status_out
 1199              	.LVL132:
 1200 0260 0128     		cmp	r0, #1
 1201 0262 33D0     		beq	.L69
 1202              	.L105:
 1203 0264 0228     		cmp	r0, #2
 1204 0266 7FF405AF 		bne	.L39
 1205              		.loc 1 180 0
 1206 026a 2B4D     		ldr	r5, .L116+4
 1207 026c 6065     		str	r0, [r4, #84]
 1208 026e 2565     		str	r5, [r4, #80]
 1209 0270 A765     		str	r7, [r4, #88]
 1210 0272 94F85C30 		ldrb	r3, [r4, #92]	@ zero_extendqisi2
 1211 0276 0546     		mov	r5, r0
 1212 0278 D4E6     		b	.L81
 1213              	.L50:
 1214              		.loc 1 201 0
 1215 027a 94F85E10 		ldrb	r1, [r4, #94]	@ zero_extendqisi2
 1216 027e 0029     		cmp	r1, #0
 1217 0280 7FF4F8AE 		bne	.L39
 1218              		.loc 1 204 0
 1219 0284 94F86050 		ldrb	r5, [r4, #96]	@ zero_extendqisi2
 1220 0288 15F00F01 		ands	r1, r5, #15
 1221 028c 8BD0     		beq	.L73
 1222              		.loc 1 205 0
 1223 028e 2B06     		lsls	r3, r5, #24
 1224              		.loc 1 206 0
 1225 0290 2046     		mov	r0, r4
 1226              		.loc 1 205 0
 1227 0292 3AD4     		bmi	.L115
 1228              	.LVL133:
 1229              		.loc 1 208 0
 1230 0294 FFF7FEFF 		bl	usb_lld_stall_out
 1231              	.LVL134:
 1232 0298 94F85C30 		ldrb	r3, [r4, #92]	@ zero_extendqisi2
 1233 029c 83E7     		b	.L73
 1234              	.L49:
ARM GAS  C:\Users\jenny\AppData\Local\Temp\ccnT6gsj.s 			page 23


 1235              		.loc 1 112 0
 1236 029e 94F85E20 		ldrb	r2, [r4, #94]	@ zero_extendqisi2
 1237 02a2 012A     		cmp	r2, #1
 1238 02a4 7FF4E6AE 		bne	.L39
 1239              		.loc 1 113 0
 1240 02a8 B4F86450 		ldrh	r5, [r4, #100]
 1241              		.loc 1 114 0
 1242 02ac 2765     		str	r7, [r4, #80]
 1243              		.loc 1 113 0
 1244 02ae 45F00200 		orr	r0, r5, #2
 1245 02b2 A4F86400 		strh	r0, [r4, #100]	@ movhi
 1246              		.loc 1 114 0
 1247 02b6 6765     		str	r7, [r4, #84]
 1248 02b8 A765     		str	r7, [r4, #88]
 1249 02ba 3D46     		mov	r5, r7
 1250 02bc B2E6     		b	.L81
 1251              	.L63:
 1252              		.loc 1 150 0
 1253 02be 0420     		movs	r0, #4
 1254 02c0 2070     		strb	r0, [r4, #0]
 1255 02c2 B9E7     		b	.L64
 1256              	.LVL135:
 1257              	.L114:
 1258              		.loc 1 163 0
 1259 02c4 FFF7FEFF 		bl	usb_lld_get_status_in
 1260              	.LVL136:
 1261 02c8 0128     		cmp	r0, #1
 1262 02ca CBD1     		bne	.L105
 1263              	.L69:
 1264              		.loc 1 177 0
 1265 02cc 134A     		ldr	r2, .L116+8
 1266 02ce 6665     		str	r6, [r4, #84]
 1267 02d0 2265     		str	r2, [r4, #80]
 1268 02d2 A765     		str	r7, [r4, #88]
 1269 02d4 94F85C30 		ldrb	r3, [r4, #92]	@ zero_extendqisi2
 1270 02d8 3546     		mov	r5, r6
 1271 02da A3E6     		b	.L81
 1272              	.L113:
 1273              	.LVL137:
 1274              	.LBB23:
 1275              	.LBB24:
 1276              		.loc 1 71 0
 1277 02dc 94F85E30 		ldrb	r3, [r4, #94]	@ zero_extendqisi2
 1278              		.loc 1 72 0
 1279 02e0 2046     		mov	r0, r4
 1280              		.loc 1 71 0
 1281 02e2 84F86630 		strb	r3, [r4, #102]
 1282              		.loc 1 72 0
 1283 02e6 FFF7FEFF 		bl	usb_lld_set_address
 1284              	.LVL138:
 1285              		.loc 1 73 0
 1286 02ea 6568     		ldr	r5, [r4, #4]
 1287 02ec 2A68     		ldr	r2, [r5, #0]
 1288 02ee 12B1     		cbz	r2, .L62
 1289 02f0 2046     		mov	r0, r4
 1290 02f2 0121     		movs	r1, #1
 1291 02f4 9047     		blx	r2
ARM GAS  C:\Users\jenny\AppData\Local\Temp\ccnT6gsj.s 			page 24


 1292              	.LVL139:
 1293              	.L62:
 1294              		.loc 1 74 0
 1295 02f6 0320     		movs	r0, #3
 1296 02f8 94F85C30 		ldrb	r3, [r4, #92]	@ zero_extendqisi2
 1297 02fc 2070     		strb	r0, [r4, #0]
 1298 02fe 52E7     		b	.L73
 1299              	.LVL140:
 1300              	.L112:
 1301              	.LBE24:
 1302              	.LBE23:
 1303              		.loc 1 193 0
 1304 0300 FFF7FEFF 		bl	usb_lld_clear_in
 1305              	.LVL141:
 1306 0304 94F85C30 		ldrb	r3, [r4, #92]	@ zero_extendqisi2
 1307 0308 4DE7     		b	.L73
 1308              	.LVL142:
 1309              	.L115:
 1310              		.loc 1 206 0
 1311 030a FFF7FEFF 		bl	usb_lld_stall_in
 1312              	.LVL143:
 1313 030e 94F85C30 		ldrb	r3, [r4, #92]	@ zero_extendqisi2
 1314 0312 48E7     		b	.L73
 1315              	.L117:
 1316              		.align	2
 1317              	.L116:
 1318 0314 00000000 		.word	.LANCHOR0
 1319 0318 00000000 		.word	.LANCHOR2
 1320 031c 00000000 		.word	.LANCHOR1
 1321              	.LBE25:
 1322              	.LBE32:
 1323              		.cfi_endproc
 1324              	.LFE135:
 1325              		.size	_usb_ep0setup, .-_usb_ep0setup
 1326              		.section	.text._usb_ep0in,"ax",%progbits
 1327              		.align	2
 1328              		.p2align 4,,15
 1329              		.global	_usb_ep0in
 1330              		.thumb
 1331              		.thumb_func
 1332              		.type	_usb_ep0in, %function
 1333              	_usb_ep0in:
 1334              	.LFB136:
 1335              		.loc 1 697 0
 1336              		.cfi_startproc
 1337              		@ args = 0, pretend = 0, frame = 0
 1338              		@ frame_needed = 0, uses_anonymous_args = 0
 1339              	.LVL144:
 1340 0000 38B5     		push	{r3, r4, r5, lr}
 1341              	.LCFI14:
 1342              		.cfi_def_cfa_offset 16
 1343              		.cfi_offset 3, -16
 1344              		.cfi_offset 4, -12
 1345              		.cfi_offset 5, -8
 1346              		.cfi_offset 14, -4
 1347              		.loc 1 701 0
 1348 0002 90F84C30 		ldrb	r3, [r0, #76]	@ zero_extendqisi2
ARM GAS  C:\Users\jenny\AppData\Local\Temp\ccnT6gsj.s 			page 25


 1349 0006 022B     		cmp	r3, #2
 1350              		.loc 1 697 0
 1351 0008 0446     		mov	r4, r0
 1352              		.loc 1 701 0
 1353 000a 24D0     		beq	.L121
 1354 000c 052B     		cmp	r3, #5
 1355 000e 36D0     		beq	.L122
 1356 0010 012B     		cmp	r3, #1
 1357 0012 10D0     		beq	.L136
 1358              		.loc 1 736 0
 1359 0014 0021     		movs	r1, #0
 1360              	.LVL145:
 1361 0016 FFF7FEFF 		bl	usb_lld_stall_in
 1362              	.LVL146:
 1363              		.loc 1 737 0
 1364 001a 2046     		mov	r0, r4
 1365 001c 0021     		movs	r1, #0
 1366 001e FFF7FEFF 		bl	usb_lld_stall_out
 1367              	.LVL147:
 1368              		.loc 1 738 0
 1369 0022 6068     		ldr	r0, [r4, #4]
 1370 0024 0268     		ldr	r2, [r0, #0]
 1371 0026 12B1     		cbz	r2, .L125
 1372              		.loc 1 738 0 is_stmt 0 discriminator 1
 1373 0028 2046     		mov	r0, r4
 1374 002a 0521     		movs	r1, #5
 1375 002c 9047     		blx	r2
 1376              	.LVL148:
 1377              	.L125:
 1378              		.loc 1 739 0 is_stmt 1
 1379 002e 0621     		movs	r1, #6
 1380 0030 84F84C10 		strb	r1, [r4, #76]
 1381 0034 38BD     		pop	{r3, r4, r5, pc}
 1382              	.LVL149:
 1383              	.L136:
 1384              		.loc 1 703 0
 1385 0036 90F86310 		ldrb	r1, [r0, #99]	@ zero_extendqisi2
 1386              	.LVL150:
 1387 003a 90F86230 		ldrb	r3, [r0, #98]	@ zero_extendqisi2
 1388              		.loc 1 707 0
 1389 003e 426D     		ldr	r2, [r0, #84]
 1390              		.loc 1 703 0
 1391 0040 43EA0121 		orr	r1, r3, r1, lsl #8
 1392              		.loc 1 707 0
 1393 0044 9142     		cmp	r1, r2
 1394 0046 06D9     		bls	.L121
 1395              		.loc 1 707 0 is_stmt 0 discriminator 1
 1396 0048 C568     		ldr	r5, [r0, #12]
 1397 004a 2B8A     		ldrh	r3, [r5, #16]
 1398 004c B2FBF3F1 		udiv	r1, r2, r3
 1399 0050 03FB1125 		mls	r5, r3, r1, r2
 1400 0054 D5B1     		cbz	r5, .L137
 1401              	.LVL151:
 1402              	.L121:
 1403              		.loc 1 719 0 is_stmt 1
 1404 0056 0021     		movs	r1, #0
 1405              		.loc 1 718 0
ARM GAS  C:\Users\jenny\AppData\Local\Temp\ccnT6gsj.s 			page 26


 1406 0058 0320     		movs	r0, #3
 1407              	.LVL152:
 1408              		.loc 1 719 0
 1409 005a 0B46     		mov	r3, r1
 1410              		.loc 1 718 0
 1411 005c 84F84C00 		strb	r0, [r4, #76]
 1412              		.loc 1 719 0
 1413 0060 0A46     		mov	r2, r1
 1414 0062 2046     		mov	r0, r4
 1415 0064 FFF7FEFF 		bl	usbPrepareReceive
 1416              	.LVL153:
 1417              	.LBB33:
 1418              		.loc 1 720 0
 1419 0068 2023     		movs	r3, #32
 1420              	.LVL154:
 1421              	@ 720 "../../os/hal/src/usb.c" 1
 1422 006a 83F31188 		msr     BASEPRI, r3
 1423              	@ 0 "" 2
 1424              	.LVL155:
 1425              		.thumb
 1426              	.LBE33:
 1427              		.loc 1 721 0
 1428 006e 0021     		movs	r1, #0
 1429 0070 2046     		mov	r0, r4
 1430 0072 FFF7FEFF 		bl	usbStartReceiveI
 1431              	.LVL156:
 1432              	.LBB34:
 1433              		.loc 1 722 0
 1434 0076 0023     		movs	r3, #0
 1435              	.LVL157:
 1436              	@ 722 "../../os/hal/src/usb.c" 1
 1437 0078 83F31188 		msr     BASEPRI, r3
 1438              	@ 0 "" 2
 1439              	.LVL158:
 1440              		.thumb
 1441              	.LBE34:
 1442              		.loc 1 723 0
 1443 007c 38BD     		pop	{r3, r4, r5, pc}
 1444              	.LVL159:
 1445              	.L122:
 1446              		.loc 1 726 0
 1447 007e 826D     		ldr	r2, [r0, #88]
 1448 0080 02B1     		cbz	r2, .L124
 1449              		.loc 1 727 0
 1450 0082 9047     		blx	r2
 1451              	.LVL160:
 1452              	.L124:
 1453              		.loc 1 728 0
 1454 0084 0023     		movs	r3, #0
 1455 0086 84F84C30 		strb	r3, [r4, #76]
 1456              		.loc 1 729 0
 1457 008a 38BD     		pop	{r3, r4, r5, pc}
 1458              	.LVL161:
 1459              	.L137:
 1460              		.loc 1 708 0
 1461 008c 2B46     		mov	r3, r5
 1462 008e 2946     		mov	r1, r5
ARM GAS  C:\Users\jenny\AppData\Local\Temp\ccnT6gsj.s 			page 27


 1463 0090 2A46     		mov	r2, r5
 1464 0092 FFF7FEFF 		bl	usbPrepareTransmit
 1465              	.LVL162:
 1466              	.LBB35:
 1467              		.loc 1 709 0
 1468 0096 2023     		movs	r3, #32
 1469              	.LVL163:
 1470              	@ 709 "../../os/hal/src/usb.c" 1
 1471 0098 83F31188 		msr     BASEPRI, r3
 1472              	@ 0 "" 2
 1473              	.LVL164:
 1474              		.thumb
 1475              	.LBE35:
 1476              		.loc 1 710 0
 1477 009c 2046     		mov	r0, r4
 1478 009e 2946     		mov	r1, r5
 1479 00a0 FFF7FEFF 		bl	usbStartTransmitI
 1480              	.LVL165:
 1481              	.LBB36:
 1482              		.loc 1 711 0
 1483 00a4 2B46     		mov	r3, r5
 1484              	.LVL166:
 1485              	@ 711 "../../os/hal/src/usb.c" 1
 1486 00a6 83F31188 		msr     BASEPRI, r3
 1487              	@ 0 "" 2
 1488              	.LVL167:
 1489              		.thumb
 1490              	.LBE36:
 1491              		.loc 1 712 0
 1492 00aa 0220     		movs	r0, #2
 1493 00ac 84F84C00 		strb	r0, [r4, #76]
 1494              		.loc 1 713 0
 1495 00b0 38BD     		pop	{r3, r4, r5, pc}
 1496              		.cfi_endproc
 1497              	.LFE136:
 1498              		.size	_usb_ep0in, .-_usb_ep0in
 1499 00b2 00BFAFF3 		.section	.text._usb_ep0out,"ax",%progbits
 1499      0080AFF3 
 1499      0080AFF3 
 1499      0080
 1500              		.align	2
 1501              		.p2align 4,,15
 1502              		.global	_usb_ep0out
 1503              		.thumb
 1504              		.thumb_func
 1505              		.type	_usb_ep0out, %function
 1506              	_usb_ep0out:
 1507              	.LFB137:
 1508              		.loc 1 752 0
 1509              		.cfi_startproc
 1510              		@ args = 0, pretend = 0, frame = 0
 1511              		@ frame_needed = 0, uses_anonymous_args = 0
 1512              	.LVL168:
 1513              		.loc 1 755 0
 1514 0000 90F84C30 		ldrb	r3, [r0, #76]	@ zero_extendqisi2
 1515 0004 032B     		cmp	r3, #3
 1516              		.loc 1 752 0
ARM GAS  C:\Users\jenny\AppData\Local\Temp\ccnT6gsj.s 			page 28


 1517 0006 10B5     		push	{r4, lr}
 1518              	.LCFI15:
 1519              		.cfi_def_cfa_offset 8
 1520              		.cfi_offset 4, -8
 1521              		.cfi_offset 14, -4
 1522              		.loc 1 752 0
 1523 0008 0446     		mov	r4, r0
 1524              		.loc 1 755 0
 1525 000a 26D0     		beq	.L140
 1526 000c 042B     		cmp	r3, #4
 1527 000e 11D0     		beq	.L151
 1528              	.LVL169:
 1529              	.L139:
 1530              		.loc 1 779 0
 1531 0010 0021     		movs	r1, #0
 1532 0012 2046     		mov	r0, r4
 1533              	.LVL170:
 1534 0014 FFF7FEFF 		bl	usb_lld_stall_in
 1535              	.LVL171:
 1536              		.loc 1 780 0
 1537 0018 2046     		mov	r0, r4
 1538 001a 0021     		movs	r1, #0
 1539 001c FFF7FEFF 		bl	usb_lld_stall_out
 1540              	.LVL172:
 1541              		.loc 1 781 0
 1542 0020 6368     		ldr	r3, [r4, #4]
 1543 0022 1A68     		ldr	r2, [r3, #0]
 1544 0024 12B1     		cbz	r2, .L144
 1545              		.loc 1 781 0 is_stmt 0 discriminator 1
 1546 0026 2046     		mov	r0, r4
 1547 0028 0521     		movs	r1, #5
 1548 002a 9047     		blx	r2
 1549              	.LVL173:
 1550              	.L144:
 1551              		.loc 1 782 0 is_stmt 1
 1552 002c 0621     		movs	r1, #6
 1553 002e 84F84C10 		strb	r1, [r4, #76]
 1554 0032 10BD     		pop	{r4, pc}
 1555              	.LVL174:
 1556              	.L151:
 1557              		.loc 1 759 0
 1558 0034 0021     		movs	r1, #0
 1559              	.LVL175:
 1560              		.loc 1 758 0
 1561 0036 0522     		movs	r2, #5
 1562              		.loc 1 759 0
 1563 0038 0B46     		mov	r3, r1
 1564              		.loc 1 758 0
 1565 003a 80F84C20 		strb	r2, [r0, #76]
 1566              		.loc 1 759 0
 1567 003e 0A46     		mov	r2, r1
 1568 0040 FFF7FEFF 		bl	usbPrepareTransmit
 1569              	.LVL176:
 1570              	.LBB37:
 1571              		.loc 1 760 0
 1572 0044 2023     		movs	r3, #32
 1573              	.LVL177:
ARM GAS  C:\Users\jenny\AppData\Local\Temp\ccnT6gsj.s 			page 29


 1574              	@ 760 "../../os/hal/src/usb.c" 1
 1575 0046 83F31188 		msr     BASEPRI, r3
 1576              	@ 0 "" 2
 1577              	.LVL178:
 1578              		.thumb
 1579              	.LBE37:
 1580              		.loc 1 761 0
 1581 004a 0021     		movs	r1, #0
 1582 004c 2046     		mov	r0, r4
 1583 004e FFF7FEFF 		bl	usbStartTransmitI
 1584              	.LVL179:
 1585              	.LBB38:
 1586              		.loc 1 762 0
 1587 0052 0023     		movs	r3, #0
 1588              	.LVL180:
 1589              	@ 762 "../../os/hal/src/usb.c" 1
 1590 0054 83F31188 		msr     BASEPRI, r3
 1591              	@ 0 "" 2
 1592              	.LVL181:
 1593              		.thumb
 1594              	.LBE38:
 1595              		.loc 1 763 0
 1596 0058 10BD     		pop	{r4, pc}
 1597              	.LVL182:
 1598              	.L140:
 1599              		.loc 1 767 0
 1600 005a C168     		ldr	r1, [r0, #12]
 1601              	.LVL183:
 1602 005c 8B69     		ldr	r3, [r1, #24]
 1603 005e 9A68     		ldr	r2, [r3, #8]
 1604 0060 002A     		cmp	r2, #0
 1605 0062 D5D1     		bne	.L139
 1606              		.loc 1 769 0
 1607 0064 816D     		ldr	r1, [r0, #88]
 1608 0066 01B1     		cbz	r1, .L143
 1609              		.loc 1 770 0
 1610 0068 8847     		blx	r1
 1611              	.LVL184:
 1612              	.L143:
 1613              		.loc 1 771 0
 1614 006a 0020     		movs	r0, #0
 1615 006c 84F84C00 		strb	r0, [r4, #76]
 1616              		.loc 1 772 0
 1617 0070 10BD     		pop	{r4, pc}
 1618              		.cfi_endproc
 1619              	.LFE137:
 1620              		.size	_usb_ep0out, .-_usb_ep0out
 1621 0072 00BFAFF3 		.section	.rodata.zero_status,"a",%progbits
 1621      0080AFF3 
 1621      0080AFF3 
 1621      0080
 1622              		.align	2
 1623              		.set	.LANCHOR0,. + 0
 1624              		.type	zero_status, %object
 1625              		.size	zero_status, 2
 1626              	zero_status:
 1627 0000 0000     		.space	2
ARM GAS  C:\Users\jenny\AppData\Local\Temp\ccnT6gsj.s 			page 30


 1628 0002 0000     		.section	.rodata.active_status,"a",%progbits
 1629              		.align	2
 1630              		.set	.LANCHOR2,. + 0
 1631              		.type	active_status, %object
 1632              		.size	active_status, 2
 1633              	active_status:
 1634 0000 0000     		.space	2
 1635 0002 0000     		.section	.rodata.halted_status,"a",%progbits
 1636              		.align	2
 1637              		.set	.LANCHOR1,. + 0
 1638              		.type	halted_status, %object
 1639              		.size	halted_status, 2
 1640              	halted_status:
 1641 0000 01       		.byte	1
 1642 0001 00       		.byte	0
 1643 0002 0000     		.text
 1644              	.Letext0:
 1645              		.file 2 "c:\\fbin\\yagarto\\bin\\../lib/gcc/arm-none-eabi/4.7.4/include/stddef.h"
 1646              		.file 3 "c:\\fbin\\yagarto\\bin\\../lib/gcc/arm-none-eabi/4.7.4/../../../../arm-none-eabi/include/
 1647              		.file 4 "../../os/ports/GCC/ARMCMx/chtypes.h"
 1648              		.file 5 "../../os/kernel/include/chlists.h"
 1649              		.file 6 "../../os/kernel/include/chthreads.h"
 1650              		.file 7 "../../os/ports/GCC/ARMCMx/chcore_v7m.h"
 1651              		.file 8 "../../os/kernel/include/chmtx.h"
 1652              		.file 9 "../../os/kernel/include/chqueues.h"
 1653              		.file 10 "../../os/hal/include/usb.h"
 1654              		.file 11 "../../os/hal/platforms/STM32/OTGv1/usb_lld.h"
 1655              		.file 12 "../../os/hal/platforms/STM32/OTGv1/stm32_otg.h"
 1656              		.file 13 "../../os/ports/common/ARMCMx/CMSIS/include/core_cm4.h"