ARM GAS  C:\Users\jenny\AppData\Local\Temp\ccSQJd7j.s 			page 1


   1              		.syntax unified
   2              		.cpu cortex-m4
   3              		.eabi_attribute 27, 3
   4              		.fpu fpv4-sp-d16
   5              		.eabi_attribute 20, 1
   6              		.eabi_attribute 21, 1
   7              		.eabi_attribute 23, 3
   8              		.eabi_attribute 24, 1
   9              		.eabi_attribute 25, 1
  10              		.eabi_attribute 26, 1
  11              		.eabi_attribute 30, 2
  12              		.eabi_attribute 34, 1
  13              		.eabi_attribute 18, 4
  14              		.thumb
  15              		.file	"usb_lld.c"
  16              		.text
  17              	.Ltext0:
  18              		.cfi_sections	.debug_frame
  19              		.section	.text.otg_disable_ep,"ax",%progbits
  20              		.align	2
  21              		.p2align 4,,15
  22              		.thumb
  23              		.thumb_func
  24              		.type	otg_disable_ep, %function
  25              	otg_disable_ep:
  26              	.LFB120:
  27              		.file 1 "../../os/hal/platforms/STM32/OTGv1/usb_lld.c"
  28              		.loc 1 141 0
  29              		.cfi_startproc
  30              		@ args = 0, pretend = 0, frame = 0
  31              		@ frame_needed = 0, uses_anonymous_args = 0
  32              		@ link register save eliminated.
  33              	.LVL0:
  34 0000 C16E     		ldr	r1, [r0, #108]
  35              		.loc 1 142 0
  36 0002 836E     		ldr	r3, [r0, #104]
  37              	.LVL1:
  38              		.loc 1 145 0
  39 0004 0022     		movs	r2, #0
  40              		.loc 1 141 0
  41 0006 2DE9F001 		push	{r4, r5, r6, r7, r8}
  42              	.LCFI0:
  43              		.cfi_def_cfa_offset 20
  44              		.cfi_offset 4, -20
  45              		.cfi_offset 5, -16
  46              		.cfi_offset 6, -12
  47              		.cfi_offset 7, -8
  48              		.cfi_offset 8, -4
  49              		.loc 1 156 0
  50 000a 1046     		mov	r0, r2
  51              	.LVL2:
  52 000c 8F68     		ldr	r7, [r1, #8]
  53              		.loc 1 150 0
  54 000e 4FF0804C 		mov	ip, #1073741824
  55              		.loc 1 158 0
  56 0012 4FF0FF36 		mov	r6, #-1
  57 0016 17E0     		b	.L8
ARM GAS  C:\Users\jenny\AppData\Local\Temp\ccSQJd7j.s 			page 2


  58              	.LVL3:
  59              	.L2:
  60              		.loc 1 156 0
  61 0018 5850     		str	r0, [r3, r1]
  62 001a 5501     		lsls	r5, r2, #5
  63              	.L4:
  64              		.loc 1 157 0
  65 001c 5C19     		adds	r4, r3, r5
  66              		.loc 1 164 0
  67 001e 02F15801 		add	r1, r2, #88
  68 0022 4901     		lsls	r1, r1, #5
  69              		.loc 1 157 0
  70 0024 C4F81009 		str	r0, [r4, #2320]
  71              		.loc 1 158 0
  72 0028 C4F80869 		str	r6, [r4, #2312]
  73              		.loc 1 164 0
  74 002c 53F80180 		ldr	r8, [r3, r1]
  75 0030 B8F1000F 		cmp	r8, #0
  76 0034 17DB     		blt	.L19
  77              		.loc 1 171 0
  78 0036 5850     		str	r0, [r3, r1]
  79              	.L7:
  80              		.loc 1 172 0
  81 0038 5D19     		adds	r5, r3, r5
  82              		.loc 1 145 0
  83 003a 0132     		adds	r2, r2, #1
  84              	.LVL4:
  85 003c BA42     		cmp	r2, r7
  86              		.loc 1 172 0
  87 003e C5F8100B 		str	r0, [r5, #2832]
  88              		.loc 1 173 0
  89 0042 C5F8086B 		str	r6, [r5, #2824]
  90              		.loc 1 145 0
  91 0046 15D8     		bhi	.L20
  92              	.LVL5:
  93              	.L8:
  94              		.loc 1 149 0
  95 0048 02F14804 		add	r4, r2, #72
  96 004c 6101     		lsls	r1, r4, #5
  97 004e 5D58     		ldr	r5, [r3, r1]
  98 0050 002D     		cmp	r5, #0
  99 0052 E1DA     		bge	.L2
 100 0054 5501     		lsls	r5, r2, #5
 101              		.loc 1 150 0
 102 0056 43F801C0 		str	ip, [r3, r1]
 103              		.loc 1 152 0
 104 005a 5C19     		adds	r4, r3, r5
 105              	.L3:
 106              		.loc 1 152 0 is_stmt 0 discriminator 1
 107 005c D4F80819 		ldr	r1, [r4, #2312]
 108 0060 8907     		lsls	r1, r1, #30
 109 0062 FBD5     		bpl	.L3
 110 0064 DAE7     		b	.L4
 111              	.L19:
 112              		.loc 1 165 0 is_stmt 1
 113 0066 43F801C0 		str	ip, [r3, r1]
 114              	.L6:
ARM GAS  C:\Users\jenny\AppData\Local\Temp\ccSQJd7j.s 			page 3


 115              		.loc 1 167 0 discriminator 1
 116 006a D4F8081B 		ldr	r1, [r4, #2824]
 117 006e C906     		lsls	r1, r1, #27
 118 0070 FBD5     		bpl	.L6
 119 0072 E1E7     		b	.L7
 120              	.LVL6:
 121              	.L20:
 122              		.loc 1 175 0
 123 0074 4FF00110 		mov	r0, #65537
 124 0078 C3F81C08 		str	r0, [r3, #2076]
 125              		.loc 1 176 0
 126 007c BDE8F001 		pop	{r4, r5, r6, r7, r8}
 127 0080 7047     		bx	lr
 128              		.cfi_endproc
 129              	.LFE120:
 130              		.size	otg_disable_ep, .-otg_disable_ep
 131 0082 00BFAFF3 		.section	.text.otg_epout_handler,"ax",%progbits
 131      0080AFF3 
 131      0080AFF3 
 131      0080
 132              		.align	2
 133              		.p2align 4,,15
 134              		.thumb
 135              		.thumb_func
 136              		.type	otg_epout_handler, %function
 137              	otg_epout_handler:
 138              	.LFB134:
 139              		.loc 1 576 0
 140              		.cfi_startproc
 141              		@ args = 0, pretend = 0, frame = 0
 142              		@ frame_needed = 0, uses_anonymous_args = 0
 143              	.LVL7:
 144 0000 F8B5     		push	{r3, r4, r5, r6, r7, lr}
 145              	.LCFI1:
 146              		.cfi_def_cfa_offset 24
 147              		.cfi_offset 3, -24
 148              		.cfi_offset 4, -20
 149              		.cfi_offset 5, -16
 150              		.cfi_offset 6, -12
 151              		.cfi_offset 7, -8
 152              		.cfi_offset 14, -4
 153              		.loc 1 577 0
 154 0002 846E     		ldr	r4, [r0, #104]
 155              	.LVL8:
 156              		.loc 1 578 0
 157 0004 04EB4113 		add	r3, r4, r1, lsl #5
 158              		.loc 1 581 0
 159 0008 4FF0FF32 		mov	r2, #-1
 160              		.loc 1 578 0
 161 000c D3F8086B 		ldr	r6, [r3, #2824]
 162              	.LVL9:
 163              		.loc 1 581 0
 164 0010 C3F8082B 		str	r2, [r3, #2824]
 165              		.loc 1 583 0
 166 0014 3307     		lsls	r3, r6, #28
 167              		.loc 1 576 0
 168 0016 0546     		mov	r5, r0
ARM GAS  C:\Users\jenny\AppData\Local\Temp\ccSQJd7j.s 			page 4


 169 0018 0F46     		mov	r7, r1
 170              		.loc 1 583 0
 171 001a 03D5     		bpl	.L22
 172              		.loc 1 583 0 is_stmt 0 discriminator 1
 173 001c D4F81438 		ldr	r3, [r4, #2068]
 174 0020 1A07     		lsls	r2, r3, #28
 175 0022 15D4     		bmi	.L36
 176              	.LVL10:
 177              	.L22:
 178              		.loc 1 589 0 is_stmt 1
 179 0024 F307     		lsls	r3, r6, #31
 180 0026 03D5     		bpl	.L21
 181              		.loc 1 589 0 is_stmt 0 discriminator 1
 182 0028 D4F81408 		ldr	r0, [r4, #2068]
 183 002c C007     		lsls	r0, r0, #31
 184 002e 00D4     		bmi	.L37
 185              	.L21:
 186 0030 F8BD     		pop	{r3, r4, r5, r6, r7, pc}
 187              	.L37:
 188              		.loc 1 591 0 is_stmt 1
 189 0032 05EB8703 		add	r3, r5, r7, lsl #2
 190 0036 6989     		ldrh	r1, [r5, #10]
 191 0038 D868     		ldr	r0, [r3, #12]
 192 003a 0122     		movs	r2, #1
 193 003c 02FA07F2 		lsl	r2, r2, r7
 194 0040 21EA0203 		bic	r3, r1, r2
 195 0044 6B81     		strh	r3, [r5, #10]	@ movhi
 196 0046 C268     		ldr	r2, [r0, #12]
 197 0048 3946     		mov	r1, r7
 198 004a 2846     		mov	r0, r5
 199 004c 9047     		blx	r2
 200              	.LVL11:
 201 004e F8BD     		pop	{r3, r4, r5, r6, r7, pc}
 202              	.LVL12:
 203              	.L36:
 204              		.loc 1 586 0
 205 0050 00EB8102 		add	r2, r0, r1, lsl #2
 206 0054 D368     		ldr	r3, [r2, #12]
 207 0056 5A68     		ldr	r2, [r3, #4]
 208 0058 9047     		blx	r2
 209              	.LVL13:
 210 005a E3E7     		b	.L22
 211              		.cfi_endproc
 212              	.LFE134:
 213              		.size	otg_epout_handler, .-otg_epout_handler
 214 005c AFF30080 		.section	.text.otg_txfifo_flush,"ax",%progbits
 215              		.align	2
 216              		.p2align 4,,15
 217              		.thumb
 218              		.thumb_func
 219              		.type	otg_txfifo_flush, %function
 220              	otg_txfifo_flush:
 221              	.LFB122:
 222              		.loc 1 188 0
 223              		.cfi_startproc
 224              		@ args = 0, pretend = 0, frame = 0
 225              		@ frame_needed = 0, uses_anonymous_args = 0
ARM GAS  C:\Users\jenny\AppData\Local\Temp\ccSQJd7j.s 			page 5


 226              		@ link register save eliminated.
 227              	.LVL14:
 228              		.loc 1 189 0
 229 0000 826E     		ldr	r2, [r0, #104]
 230              	.LVL15:
 231              		.loc 1 191 0
 232 0002 8901     		lsls	r1, r1, #6
 233              	.LVL16:
 234 0004 41F02003 		orr	r3, r1, #32
 235 0008 1361     		str	r3, [r2, #16]
 236              	.LVL17:
 237              	.L39:
 238              		.loc 1 192 0 discriminator 1
 239 000a 1069     		ldr	r0, [r2, #16]
 240 000c 8106     		lsls	r1, r0, #26
 241 000e FCD4     		bmi	.L39
 242              		.loc 1 195 0
 243 0010 0C20     		movs	r0, #12
 244              		.loc 1 196 0
 245              		.loc 1 195 0
 246 0012 FFF7FEBF 		b	halPolledDelay
 247              	.LVL18:
 248              		.cfi_endproc
 249              	.LFE122:
 250              		.size	otg_txfifo_flush, .-otg_txfifo_flush
 251 0016 00BFAFF3 		.section	.text.usb_lld_pump,"ax",%progbits
 251      0080AFF3 
 251      0080
 252              		.align	2
 253              		.p2align 4,,15
 254              		.thumb
 255              		.thumb_func
 256              		.type	usb_lld_pump, %function
 257              	usb_lld_pump:
 258              	.LFB136:
 259              		.loc 1 675 0
 260              		.cfi_startproc
 261              		@ args = 0, pretend = 0, frame = 24
 262              		@ frame_needed = 0, uses_anonymous_args = 0
 263              	.LVL19:
 264 0000 2DE9F04F 		push	{r4, r5, r6, r7, r8, r9, sl, fp, lr}
 265              	.LCFI2:
 266              		.cfi_def_cfa_offset 36
 267              		.cfi_offset 4, -36
 268              		.cfi_offset 5, -32
 269              		.cfi_offset 6, -28
 270              		.cfi_offset 7, -24
 271              		.cfi_offset 8, -20
 272              		.cfi_offset 9, -16
 273              		.cfi_offset 10, -12
 274              		.cfi_offset 11, -8
 275              		.cfi_offset 14, -4
 276              		.loc 1 679 0
 277 0004 40F20001 		movw	r1, #:lower16:rlist
 278 0008 C0F20001 		movt	r1, #:upper16:rlist
 279              		.loc 1 677 0
 280 000c D0F868A0 		ldr	sl, [r0, #104]
ARM GAS  C:\Users\jenny\AppData\Local\Temp\ccSQJd7j.s 			page 6


 281              		.loc 1 679 0
 282 0010 8A69     		ldr	r2, [r1, #24]
 283              		.loc 1 675 0
 284 0012 8346     		mov	fp, r0
 285              	.LVL20:
 286              		.loc 1 679 0
 287 0014 9148     		ldr	r0, .L225
 288              	.LVL21:
 289              		.loc 1 675 0
 290 0016 87B0     		sub	sp, sp, #28
 291              	.LCFI3:
 292              		.cfi_def_cfa_offset 64
 293              	.LBB83:
 294              		.loc 1 680 0
 295 0018 2023     		movs	r3, #32
 296              	.LVL22:
 297              	.LBE83:
 298              		.loc 1 679 0
 299 001a 9061     		str	r0, [r2, #24]
 300              	.LBB84:
 301              		.loc 1 680 0
 302              	@ 680 "../../os/hal/platforms/STM32/OTGv1/usb_lld.c" 1
 303 001c 83F31188 		msr     BASEPRI, r3
 304              	@ 0 "" 2
 305              	.LVL23:
 306              		.thumb
 307              	.LBE84:
 308              	.LBB85:
 309              	.LBB86:
 310              		.loc 1 692 0
 311 0020 4FF00008 		mov	r8, #0
 312              	.LVL24:
 313              	.L104:
 314              	.LBE86:
 315              		.loc 1 686 0
 316 0024 9BF80030 		ldrb	r3, [fp, #0]	@ zero_extendqisi2
 317              	.LVL25:
 318 0028 012B     		cmp	r3, #1
 319 002a 06D0     		beq	.L42
 320              		.loc 1 686 0 is_stmt 0 discriminator 1
 321 002c DBF87440 		ldr	r4, [fp, #116]
 322 0030 9CB9     		cbnz	r4, .L43
 323              		.loc 1 687 0 is_stmt 1
 324 0032 DAF81450 		ldr	r5, [sl, #20]
 325 0036 E806     		lsls	r0, r5, #27
 326 0038 0FD4     		bmi	.L43
 327              	.L42:
 328              		.loc 1 689 0
 329 003a 40F20007 		movw	r7, #:lower16:rlist
 330 003e C0F20007 		movt	r7, #:upper16:rlist
 331              		.loc 1 688 0
 332 0042 DAF81860 		ldr	r6, [sl, #24]
 333              		.loc 1 689 0
 334 0046 B969     		ldr	r1, [r7, #24]
 335              		.loc 1 688 0
 336 0048 46F01002 		orr	r2, r6, #16
 337 004c CAF81820 		str	r2, [sl, #24]
ARM GAS  C:\Users\jenny\AppData\Local\Temp\ccSQJd7j.s 			page 7


 338              		.loc 1 690 0
 339 0050 0220     		movs	r0, #2
 340              		.loc 1 689 0
 341 0052 CBF87C10 		str	r1, [fp, #124]
 342              		.loc 1 690 0
 343 0056 FFF7FEFF 		bl	chSchGoSleepS
 344              	.LVL26:
 345              	.L43:
 346              	.LBB87:
 347              		.loc 1 692 0
 348 005a 0023     		movs	r3, #0
 349              	.LVL27:
 350              	@ 692 "../../os/hal/platforms/STM32/OTGv1/usb_lld.c" 1
 351 005c 83F31188 		msr     BASEPRI, r3
 352              	@ 0 "" 2
 353              	.LVL28:
 354              		.loc 1 695 0
 355              		.thumb
 356 0060 1C46     		mov	r4, r3
 357              	.LVL29:
 358              	.L197:
 359              	.LBE87:
 360              		.loc 1 698 0 discriminator 1
 361 0062 DAF81400 		ldr	r0, [sl, #20]
 362 0066 10F01007 		ands	r7, r0, #16
 363 006a 3AD0     		beq	.L221
 364              	.L69:
 365              	.LVL30:
 366              	.LBB88:
 367              	.LBB89:
 368              		.loc 1 448 0
 369 006c DBF86800 		ldr	r0, [fp, #104]
 370 0070 016A     		ldr	r1, [r0, #32]
 371              	.LVL31:
 372              		.loc 1 449 0
 373 0072 01F4F015 		and	r5, r1, #1966080
 374 0076 B5F5802F 		cmp	r5, #262144
 375 007a 47D0     		beq	.L46
 376 007c B5F5402F 		cmp	r5, #786432
 377 0080 EFD1     		bne	.L197
 378              	.LVL32:
 379              		.loc 1 454 0
 380 0082 01F00F07 		and	r7, r1, #15
 381              	.LVL33:
 382              		.loc 1 455 0
 383 0086 0BEB8702 		add	r2, fp, r7, lsl #2
 384              		.loc 1 453 0
 385 008a C1F30A16 		ubfx	r6, r1, #4, #11
 386              		.loc 1 455 0
 387 008e D368     		ldr	r3, [r2, #12]
 388              	.LVL34:
 389              	.LBB90:
 390              	.LBB91:
 391              		.loc 1 366 0
 392 0090 F11C     		adds	r1, r6, #3
 393              	.LVL35:
 394              		.loc 1 368 0
ARM GAS  C:\Users\jenny\AppData\Local\Temp\ccSQJd7j.s 			page 8


 395 0092 8D08     		lsrs	r5, r1, #2
 396              	.LBE91:
 397              	.LBE90:
 398              		.loc 1 455 0
 399 0094 1F6A     		ldr	r7, [r3, #32]
 400              	.LVL36:
 401              	.LBB98:
 402              	.LBB97:
 403              		.loc 1 368 0
 404 0096 E4D0     		beq	.L197
 405 0098 00F58050 		add	r0, r0, #4096
 406              	.LVL37:
 407 009c 6A1E     		subs	r2, r5, #1
 408              	.LBB92:
 409              		.loc 1 369 0
 410 009e 0368     		ldr	r3, [r0, #0]
 411              	.LVL38:
 412              	.LBE92:
 413              		.loc 1 368 0
 414 00a0 1146     		mov	r1, r2
 415              	.LBB93:
 416              		.loc 1 373 0
 417 00a2 47F8043B 		str	r3, [r7], #4
 418              	.LVL39:
 419 00a6 02F00106 		and	r6, r2, #1
 420              		.loc 1 375 0
 421 00aa 0123     		movs	r3, #1
 422              	.LVL40:
 423              	.LBE93:
 424              		.loc 1 368 0
 425 00ac 002A     		cmp	r2, #0
 426 00ae D8D0     		beq	.L197
 427 00b0 2EB1     		cbz	r6, .L48
 428              	.LBB94:
 429              		.loc 1 369 0
 430 00b2 0568     		ldr	r5, [r0, #0]
 431              	.LVL41:
 432              		.loc 1 375 0
 433 00b4 0023     		movs	r3, #0
 434              	.LVL42:
 435              	.LBE94:
 436              		.loc 1 368 0
 437 00b6 511E     		subs	r1, r2, #1
 438              	.LVL43:
 439              	.LBB95:
 440              		.loc 1 373 0
 441 00b8 47F8045B 		str	r5, [r7], #4
 442              	.LVL44:
 443              	.LBE95:
 444              		.loc 1 368 0
 445 00bc D1D0     		beq	.L197
 446              	.L48:
 447              	.LBB96:
 448              		.loc 1 369 0
 449 00be 0268     		ldr	r2, [r0, #0]
 450              		.loc 1 370 0
 451 00c0 13B1     		cbz	r3, .L50
ARM GAS  C:\Users\jenny\AppData\Local\Temp\ccSQJd7j.s 			page 9


 452              		.loc 1 373 0
 453 00c2 47F8042B 		str	r2, [r7], #4
 454              	.LVL45:
 455              		.loc 1 375 0
 456 00c6 013B     		subs	r3, r3, #1
 457              	.LVL46:
 458              	.L50:
 459              		.loc 1 377 0
 460 00c8 0139     		subs	r1, r1, #1
 461              		.loc 1 369 0
 462 00ca 0668     		ldr	r6, [r0, #0]
 463              		.loc 1 370 0
 464 00cc 13B1     		cbz	r3, .L158
 465              		.loc 1 373 0
 466 00ce 47F8046B 		str	r6, [r7], #4
 467              	.LVL47:
 468              		.loc 1 375 0
 469 00d2 013B     		subs	r3, r3, #1
 470              	.LVL48:
 471              	.L158:
 472              	.LBE96:
 473              		.loc 1 368 0
 474 00d4 0139     		subs	r1, r1, #1
 475 00d6 F2D1     		bne	.L48
 476              	.LBE97:
 477              	.LBE98:
 478              	.LBE89:
 479              	.LBE88:
 480              		.loc 1 698 0
 481 00d8 DAF81400 		ldr	r0, [sl, #20]
 482              	.LVL49:
 483 00dc 10F01007 		ands	r7, r0, #16
 484              	.LVL50:
 485 00e0 C4D1     		bne	.L69
 486              	.LVL51:
 487              	.L221:
 488              		.loc 1 702 0
 489 00e2 0125     		movs	r5, #1
 490              		.loc 1 703 0
 491 00e4 DBF87430 		ldr	r3, [fp, #116]
 492              	.LVL52:
 493              		.loc 1 702 0
 494 00e8 A540     		lsls	r5, r5, r4
 495              		.loc 1 703 0
 496 00ea 1D42     		tst	r5, r3
 497              		.loc 1 702 0
 498 00ec 0495     		str	r5, [sp, #16]
 499              	.LVL53:
 500              		.loc 1 703 0
 501 00ee 40F0B780 		bne	.L202
 502 00f2 0134     		adds	r4, r4, #1
 503 00f4 0594     		str	r4, [sp, #20]
 504              	.LVL54:
 505              	.L70:
 506              		.loc 1 695 0
 507 00f6 DBF86C20 		ldr	r2, [fp, #108]
 508 00fa 059B     		ldr	r3, [sp, #20]
ARM GAS  C:\Users\jenny\AppData\Local\Temp\ccSQJd7j.s 			page 10


 509              	.LVL55:
 510 00fc 9068     		ldr	r0, [r2, #8]
 511 00fe DCB2     		uxtb	r4, r3
 512              	.LVL56:
 513 0100 8442     		cmp	r4, r0
 514 0102 AED9     		bls	.L197
 515              	.LBB115:
 516              		.loc 1 727 0
 517 0104 2023     		movs	r3, #32
 518              	.LVL57:
 519              	@ 727 "../../os/hal/platforms/STM32/OTGv1/usb_lld.c" 1
 520 0106 83F31188 		msr     BASEPRI, r3
 521              	@ 0 "" 2
 522              	.LVL58:
 523              		.thumb
 524              	.LBE115:
 525              	.LBE85:
 526              		.loc 1 728 0
 527 010a 8BE7     		b	.L104
 528              	.LVL59:
 529              	.L46:
 530              	.LBB152:
 531              	.LBB116:
 532              	.LBB114:
 533              		.loc 1 460 0
 534 010c 01F00F07 		and	r7, r1, #15
 535              		.loc 1 461 0
 536 0110 0237     		adds	r7, r7, #2
 537 0112 0BEB8705 		add	r5, fp, r7, lsl #2
 538              		.loc 1 459 0
 539 0116 C1F30A16 		ubfx	r6, r1, #4, #11
 540              	.LVL60:
 541              		.loc 1 461 0
 542 011a 6A68     		ldr	r2, [r5, #4]
 543 011c 9169     		ldr	r1, [r2, #24]
 544              	.LVL61:
 545 011e 0B78     		ldrb	r3, [r1, #0]	@ zero_extendqisi2
 546              	.LVL62:
 547 0120 002B     		cmp	r3, #0
 548 0122 3BD1     		bne	.L222
 549              		.loc 1 468 0
 550 0124 0D1D     		adds	r5, r1, #4
 551 0126 2CCD     		ldmia	r5, {r2, r3, r5}
 552              	.LVL63:
 553 0128 0332     		adds	r2, r2, #3
 554              	.LVL64:
 555              	.LBB99:
 556              	.LBB100:
 557              		.loc 1 367 0
 558 012a D31A     		subs	r3, r2, r3
 559              		.loc 1 366 0
 560 012c F21C     		adds	r2, r6, #3
 561              	.LVL65:
 562              		.loc 1 367 0
 563 012e 9B08     		lsrs	r3, r3, #2
 564              	.LVL66:
 565              		.loc 1 368 0
ARM GAS  C:\Users\jenny\AppData\Local\Temp\ccSQJd7j.s 			page 11


 566 0130 9208     		lsrs	r2, r2, #2
 567              	.LVL67:
 568 0132 29D0     		beq	.L68
 569 0134 00F58050 		add	r0, r0, #4096
 570              	.LVL68:
 571 0138 02F1FF39 		add	r9, r2, #-1
 572 013c 09F0010C 		and	ip, r9, #1
 573 0140 AE46     		mov	lr, r5
 574              	.LBB101:
 575              		.loc 1 369 0
 576 0142 D0F80090 		ldr	r9, [r0, #0]
 577              	.LVL69:
 578              		.loc 1 370 0
 579 0146 1BB1     		cbz	r3, .L146
 580              		.loc 1 373 0
 581 0148 AE46     		mov	lr, r5
 582              		.loc 1 375 0
 583 014a 013B     		subs	r3, r3, #1
 584              	.LVL70:
 585              		.loc 1 373 0
 586 014c 4EF8049B 		str	r9, [lr], #4
 587              	.LVL71:
 588              	.L146:
 589              	.LBE101:
 590              		.loc 1 368 0
 591 0150 013A     		subs	r2, r2, #1
 592              	.LVL72:
 593 0152 19D0     		beq	.L68
 594 0154 BCF1000F 		cmp	ip, #0
 595 0158 07D0     		beq	.L214
 596              	.LBB102:
 597              		.loc 1 369 0
 598 015a D0F800C0 		ldr	ip, [r0, #0]
 599              	.LVL73:
 600              		.loc 1 370 0
 601 015e 13B1     		cbz	r3, .L148
 602              		.loc 1 373 0
 603 0160 4EF804CB 		str	ip, [lr], #4
 604              	.LVL74:
 605              		.loc 1 375 0
 606 0164 013B     		subs	r3, r3, #1
 607              	.LVL75:
 608              	.L148:
 609              	.LBE102:
 610              		.loc 1 368 0
 611 0166 013A     		subs	r2, r2, #1
 612 0168 0ED0     		beq	.L68
 613              	.L214:
 614 016a 8946     		mov	r9, r1
 615              	.L67:
 616              	.LBB103:
 617              		.loc 1 369 0
 618 016c 0168     		ldr	r1, [r0, #0]
 619              		.loc 1 370 0
 620 016e 13B1     		cbz	r3, .L66
 621              		.loc 1 373 0
 622 0170 4EF8041B 		str	r1, [lr], #4
ARM GAS  C:\Users\jenny\AppData\Local\Temp\ccSQJd7j.s 			page 12


 623              	.LVL76:
 624              		.loc 1 375 0
 625 0174 013B     		subs	r3, r3, #1
 626              	.LVL77:
 627              	.L66:
 628              		.loc 1 377 0
 629 0176 013A     		subs	r2, r2, #1
 630              		.loc 1 369 0
 631 0178 0168     		ldr	r1, [r0, #0]
 632              		.loc 1 370 0
 633 017a 13B1     		cbz	r3, .L151
 634              		.loc 1 373 0
 635 017c 4EF8041B 		str	r1, [lr], #4
 636              	.LVL78:
 637              		.loc 1 375 0
 638 0180 013B     		subs	r3, r3, #1
 639              	.LVL79:
 640              	.L151:
 641              	.LBE103:
 642              		.loc 1 368 0
 643 0182 013A     		subs	r2, r2, #1
 644 0184 F2D1     		bne	.L67
 645 0186 4946     		mov	r1, r9
 646              	.LVL80:
 647              	.L68:
 648              	.LBE100:
 649              	.LBE99:
 650              		.loc 1 473 0
 651 0188 AD19     		adds	r5, r5, r6
 652 018a CD60     		str	r5, [r1, #12]
 653              	.LVL81:
 654              	.L62:
 655              		.loc 1 475 0
 656 018c 0BEB8707 		add	r7, fp, r7, lsl #2
 657              	.LVL82:
 658 0190 7868     		ldr	r0, [r7, #4]
 659 0192 8569     		ldr	r5, [r0, #24]
 660 0194 A968     		ldr	r1, [r5, #8]
 661 0196 8E19     		adds	r6, r1, r6
 662              	.LVL83:
 663 0198 AE60     		str	r6, [r5, #8]
 664 019a 62E7     		b	.L197
 665              	.LVL84:
 666              	.L222:
 667              		.loc 1 463 0
 668 019c 00F58050 		add	r0, r0, #4096
 669 01a0 CD68     		ldr	r5, [r1, #12]
 670              	.LVL85:
 671              	.LBB104:
 672              	.LBB105:
 673              		.loc 1 396 0
 674 01a2 002E     		cmp	r6, #0
 675 01a4 40D0     		beq	.L53
 676 01a6 3346     		mov	r3, r6
 677 01a8 A446     		mov	ip, r4
 678              	.LVL86:
 679              	.L196:
ARM GAS  C:\Users\jenny\AppData\Local\Temp\ccSQJd7j.s 			page 13


 680              	.LBB106:
 681              		.loc 1 400 0
 682 01aa 032B     		cmp	r3, #3
 683              	.LBB107:
 684              		.loc 1 406 0
 685 01ac 6969     		ldr	r1, [r5, #20]
 686              	.LBE107:
 687              		.loc 1 400 0
 688 01ae 07D9     		bls	.L55
 689              	.LVL87:
 690              	.L199:
 691              	.LBB108:
 692              		.loc 1 406 0
 693 01b0 2C69     		ldr	r4, [r5, #16]
 694 01b2 A142     		cmp	r1, r4
 695 01b4 04D3     		bcc	.L55
 696              		.loc 1 407 0
 697 01b6 EC68     		ldr	r4, [r5, #12]
 698              	.LBE108:
 699              		.loc 1 400 0
 700 01b8 032B     		cmp	r3, #3
 701              	.LBB109:
 702              		.loc 1 407 0
 703 01ba 6C61     		str	r4, [r5, #20]
 704              	.LVL88:
 705              		.loc 1 406 0
 706 01bc 6969     		ldr	r1, [r5, #20]
 707              	.LBE109:
 708              		.loc 1 400 0
 709 01be F7D8     		bhi	.L199
 710              	.LVL89:
 711              	.L55:
 712              		.loc 1 418 0
 713 01c0 0268     		ldr	r2, [r0, #0]
 714              	.LVL90:
 715              		.loc 1 421 0
 716 01c2 01F8012B 		strb	r2, [r1], #1
 717              		.loc 1 422 0
 718 01c6 2C69     		ldr	r4, [r5, #16]
 719              		.loc 1 421 0
 720 01c8 6961     		str	r1, [r5, #20]
 721              		.loc 1 422 0
 722 01ca A142     		cmp	r1, r4
 723              		.loc 1 423 0
 724 01cc 24BF     		itt	cs
 725 01ce E968     		ldrcs	r1, [r5, #12]
 726 01d0 6961     		strcs	r1, [r5, #20]
 727              		.loc 1 420 0
 728 01d2 012B     		cmp	r3, #1
 729 01d4 27D0     		beq	.L208
 730              	.LVL91:
 731              		.loc 1 421 0
 732 01d6 D5F814E0 		ldr	lr, [r5, #20]
 733 01da 110A     		lsrs	r1, r2, #8
 734 01dc 0EF8011B 		strb	r1, [lr], #1
 735              		.loc 1 422 0
 736 01e0 2C69     		ldr	r4, [r5, #16]
ARM GAS  C:\Users\jenny\AppData\Local\Temp\ccSQJd7j.s 			page 14


 737              		.loc 1 421 0
 738 01e2 C5F814E0 		str	lr, [r5, #20]
 739              		.loc 1 422 0
 740 01e6 A645     		cmp	lr, r4
 741              		.loc 1 423 0
 742 01e8 24BF     		itt	cs
 743 01ea EC68     		ldrcs	r4, [r5, #12]
 744 01ec 6C61     		strcs	r4, [r5, #20]
 745              		.loc 1 420 0
 746 01ee 022B     		cmp	r3, #2
 747 01f0 19D0     		beq	.L208
 748              	.LVL92:
 749              		.loc 1 421 0
 750 01f2 D5F81490 		ldr	r9, [r5, #20]
 751 01f6 110C     		lsrs	r1, r2, #16
 752 01f8 09F8011B 		strb	r1, [r9], #1
 753              		.loc 1 422 0
 754 01fc 2C69     		ldr	r4, [r5, #16]
 755              		.loc 1 421 0
 756 01fe C5F81490 		str	r9, [r5, #20]
 757              		.loc 1 422 0
 758 0202 A145     		cmp	r9, r4
 759              		.loc 1 423 0
 760 0204 24BF     		itt	cs
 761 0206 EC68     		ldrcs	r4, [r5, #12]
 762 0208 6C61     		strcs	r4, [r5, #20]
 763              		.loc 1 420 0
 764 020a 032B     		cmp	r3, #3
 765 020c 0BD0     		beq	.L208
 766              	.LVL93:
 767              		.loc 1 421 0
 768 020e 6969     		ldr	r1, [r5, #20]
 769 0210 120E     		lsrs	r2, r2, #24
 770              	.LVL94:
 771 0212 01F8012B 		strb	r2, [r1], #1
 772              		.loc 1 422 0
 773 0216 2C69     		ldr	r4, [r5, #16]
 774              		.loc 1 421 0
 775 0218 6961     		str	r1, [r5, #20]
 776              		.loc 1 422 0
 777 021a A142     		cmp	r1, r4
 778              		.loc 1 423 0
 779 021c 24BF     		itt	cs
 780 021e EC68     		ldrcs	r4, [r5, #12]
 781 0220 6C61     		strcs	r4, [r5, #20]
 782              		.loc 1 420 0
 783 0222 043B     		subs	r3, r3, #4
 784              	.LVL95:
 785 0224 C1D1     		bne	.L196
 786              	.LVL96:
 787              	.L208:
 788 0226 6446     		mov	r4, ip
 789              	.L53:
 790              	.LBE106:
 791              	.LBB110:
 792              		.loc 1 430 0
 793 0228 2023     		movs	r3, #32
ARM GAS  C:\Users\jenny\AppData\Local\Temp\ccSQJd7j.s 			page 15


 794              	.LVL97:
 795              	@ 430 "../../os/hal/platforms/STM32/OTGv1/usb_lld.c" 1
 796 022a 83F31188 		msr     BASEPRI, r3
 797              	@ 0 "" 2
 798              	.LVL98:
 799              		.thumb
 800              	.LBE110:
 801              		.loc 1 431 0
 802 022e A968     		ldr	r1, [r5, #8]
 803              		.loc 1 432 0
 804 0230 2868     		ldr	r0, [r5, #0]
 805              	.LVL99:
 806              		.loc 1 431 0
 807 0232 8A19     		adds	r2, r1, r6
 808              		.loc 1 432 0
 809 0234 A842     		cmp	r0, r5
 810              		.loc 1 431 0
 811 0236 AA60     		str	r2, [r5, #8]
 812              		.loc 1 432 0
 813 0238 09D0     		beq	.L64
 814              	.LVL100:
 815              	.L137:
 816              	.LBB111:
 817              	.LBB112:
 818              		.file 2 "../../os/kernel/include/chinline.h"
 819              		.loc 2 62 0
 820 023a 0368     		ldr	r3, [r0, #0]
 821              	.LVL101:
 822 023c 2B60     		str	r3, [r5, #0]
 823 023e 5D60     		str	r5, [r3, #4]
 824              	.LBE112:
 825              	.LBE111:
 826              		.loc 1 433 0
 827 0240 FFF7FEFF 		bl	chSchReadyI
 828              	.LVL102:
 829 0244 C0F82480 		str	r8, [r0, #36]
 830              		.loc 1 432 0
 831 0248 2868     		ldr	r0, [r5, #0]
 832 024a A842     		cmp	r0, r5
 833 024c F5D1     		bne	.L137
 834              	.LVL103:
 835              	.L64:
 836              		.loc 1 434 0
 837 024e FFF7FEFF 		bl	chSchRescheduleS
 838              	.LVL104:
 839              	.LBB113:
 840              		.loc 1 435 0
 841 0252 0023     		movs	r3, #0
 842              	@ 435 "../../os/hal/platforms/STM32/OTGv1/usb_lld.c" 1
 843 0254 83F31188 		msr     BASEPRI, r3
 844              	@ 0 "" 2
 845              	.LVL105:
 846              		.thumb
 847 0258 98E7     		b	.L62
 848              	.L226:
 849 025a 00BF     		.align	2
 850              	.L225:
ARM GAS  C:\Users\jenny\AppData\Local\Temp\ccSQJd7j.s 			page 16


 851 025c 00000000 		.word	.LC0
 852              	.LVL106:
 853              	.L202:
 854              	.LBE113:
 855              	.LBE105:
 856              	.LBE104:
 857              	.LBE114:
 858              	.LBE116:
 859              	.LBB117:
 860              	.LBB118:
 861              		.loc 1 706 0
 862 0260 2023     		movs	r3, #32
 863              	.LVL107:
 864              	@ 706 "../../os/hal/platforms/STM32/OTGv1/usb_lld.c" 1
 865 0262 83F31188 		msr     BASEPRI, r3
 866              	@ 0 "" 2
 867              	.LVL108:
 868              		.thumb
 869              	.LBE118:
 870              		.loc 1 714 0
 871 0266 DAF80860 		ldr	r6, [sl, #8]
 872              		.loc 1 715 0
 873 026a DBF87410 		ldr	r1, [fp, #116]
 874 026e 0498     		ldr	r0, [sp, #16]
 875              		.loc 1 714 0
 876 0270 26F00102 		bic	r2, r6, #1
 877              		.loc 1 715 0
 878 0274 21EA0005 		bic	r5, r1, r0
 879              	.LVL109:
 880              		.loc 1 714 0
 881 0278 CAF80820 		str	r2, [sl, #8]
 882              	.LBB119:
 883              		.loc 1 716 0
 884 027c 3B46     		mov	r3, r7
 885              	.LVL110:
 886              	.LBE119:
 887              		.loc 1 715 0
 888 027e CBF87450 		str	r5, [fp, #116]
 889              	.LBB120:
 890              		.loc 1 716 0
 891              	@ 716 "../../os/hal/platforms/STM32/OTGv1/usb_lld.c" 1
 892 0282 83F31188 		msr     BASEPRI, r3
 893              	@ 0 "" 2
 894              	.LVL111:
 895              		.thumb
 896              	.LBE120:
 897              	.LBB121:
 898              	.LBB122:
 899              		.loc 1 499 0
 900 0286 A71C     		adds	r7, r4, #2
 901 0288 0BEB8703 		add	r3, fp, r7, lsl #2
 902              	.LVL112:
 903 028c 5D68     		ldr	r5, [r3, #4]
 904 028e 6869     		ldr	r0, [r5, #20]
 905 0290 8268     		ldr	r2, [r0, #8]
 906 0292 4668     		ldr	r6, [r0, #4]
 907 0294 9642     		cmp	r6, r2
ARM GAS  C:\Users\jenny\AppData\Local\Temp\ccSQJd7j.s 			page 17


 908 0296 40F2FA80 		bls	.L223
 909              		.loc 1 509 0
 910 029a DBF86810 		ldr	r1, [fp, #104]
 911              		.loc 1 504 0
 912 029e 2D8A     		ldrh	r5, [r5, #16]
 913              		.loc 1 509 0
 914 02a0 6701     		lsls	r7, r4, #5
 915 02a2 0297     		str	r7, [sp, #8]
 916 02a4 CF19     		adds	r7, r1, r7
 917              		.loc 1 503 0
 918 02a6 B61A     		subs	r6, r6, r2
 919              	.LVL113:
 920              		.loc 1 509 0
 921 02a8 D7F81829 		ldr	r2, [r7, #2328]
 922 02ac B542     		cmp	r5, r6
 923 02ae 28BF     		it	cs
 924 02b0 3546     		movcs	r5, r6
 925              	.LVL114:
 926 02b2 97B2     		uxth	r7, r2
 927 02b4 0134     		adds	r4, r4, #1
 928              	.LVL115:
 929 02b6 B5EB870F 		cmp	r5, r7, lsl #2
 930 02ba 0594     		str	r4, [sp, #20]
 931 02bc 47D8     		bhi	.L74
 932              		.loc 1 524 0
 933 02be 2603     		lsls	r6, r4, #12
 934 02c0 0196     		str	r6, [sp, #4]
 935              		.loc 1 529 0
 936 02c2 0393     		str	r3, [sp, #12]
 937              	.LVL116:
 938              	.L75:
 939              		.loc 1 516 0
 940 02c4 0378     		ldrb	r3, [r0, #0]	@ zero_extendqisi2
 941 02c6 002B     		cmp	r3, #0
 942 02c8 57D1     		bne	.L224
 943              		.loc 1 524 0
 944 02ca 019F     		ldr	r7, [sp, #4]
 945              	.LBB123:
 946              	.LBB124:
 947              		.loc 1 265 0
 948 02cc EA1C     		adds	r2, r5, #3
 949              	.LBB125:
 950              	.LBB126:
 951              		.loc 1 242 0
 952 02ce 5FEA920E 		lsrs	lr, r2, #2
 953              	.LBE126:
 954              	.LBE125:
 955              	.LBE124:
 956              	.LBE123:
 957              		.loc 1 524 0
 958 02d2 01EB0704 		add	r4, r1, r7
 959 02d6 C768     		ldr	r7, [r0, #12]
 960              	.LVL117:
 961              	.LBB133:
 962              	.LBB131:
 963              	.LBB129:
 964              	.LBB127:
ARM GAS  C:\Users\jenny\AppData\Local\Temp\ccSQJd7j.s 			page 18


 965              		.loc 1 242 0
 966 02d8 1ED0     		beq	.L98
 967              	.LBE127:
 968              	.LBE129:
 969              	.LBE131:
 970              	.LBE133:
 971              		.loc 1 675 0
 972 02da 3A46     		mov	r2, r7
 973 02dc 0EF1FF36 		add	r6, lr, #-1
 974              	.LBB134:
 975              	.LBB132:
 976              	.LBB130:
 977              	.LBB128:
 978              		.loc 1 245 0
 979 02e0 52F804CB 		ldr	ip, [r2], #4
 980              		.loc 1 242 0
 981 02e4 3346     		mov	r3, r6
 982 02e6 06F00109 		and	r9, r6, #1
 983              		.loc 1 245 0
 984 02ea 019E     		ldr	r6, [sp, #4]
 985 02ec 0432     		adds	r2, r2, #4
 986 02ee 41F806C0 		str	ip, [r1, r6]
 987              	.LVL118:
 988              		.loc 1 242 0
 989 02f2 8BB1     		cbz	r3, .L98
 990 02f4 B9F1000F 		cmp	r9, #0
 991 02f8 05D0     		beq	.L97
 992              		.loc 1 245 0
 993 02fa 52F8041C 		ldr	r1, [r2, #-4]
 994 02fe 0432     		adds	r2, r2, #4
 995              		.loc 1 242 0
 996 0300 013B     		subs	r3, r3, #1
 997              		.loc 1 245 0
 998 0302 2160     		str	r1, [r4, #0]
 999              	.LVL119:
 1000              		.loc 1 242 0
 1001 0304 08D0     		beq	.L98
 1002              	.L97:
 1003              		.loc 1 245 0
 1004 0306 52F8046C 		ldr	r6, [r2, #-4]
 1005 030a 2660     		str	r6, [r4, #0]
 1006 030c 52F8041B 		ldr	r1, [r2], #4
 1007 0310 0432     		adds	r2, r2, #4
 1008              		.loc 1 242 0
 1009 0312 023B     		subs	r3, r3, #2
 1010              		.loc 1 245 0
 1011 0314 2160     		str	r1, [r4, #0]
 1012              		.loc 1 242 0
 1013 0316 F6D1     		bne	.L97
 1014              	.L98:
 1015              	.LBE128:
 1016              	.LBE130:
 1017              	.LBE132:
 1018              	.LBE134:
 1019              		.loc 1 527 0
 1020 0318 7C19     		adds	r4, r7, r5
 1021              	.LVL120:
ARM GAS  C:\Users\jenny\AppData\Local\Temp\ccSQJd7j.s 			page 19


 1022 031a C460     		str	r4, [r0, #12]
 1023              	.LVL121:
 1024              	.L94:
 1025              		.loc 1 529 0
 1026 031c 0398     		ldr	r0, [sp, #12]
 1027 031e 4468     		ldr	r4, [r0, #4]
 1028 0320 6069     		ldr	r0, [r4, #20]
 1029 0322 8668     		ldr	r6, [r0, #8]
 1030              		.loc 1 499 0
 1031 0324 4268     		ldr	r2, [r0, #4]
 1032              		.loc 1 529 0
 1033 0326 AB19     		adds	r3, r5, r6
 1034              	.LVL122:
 1035              		.loc 1 499 0
 1036 0328 9A42     		cmp	r2, r3
 1037              		.loc 1 529 0
 1038 032a 8360     		str	r3, [r0, #8]
 1039              		.loc 1 499 0
 1040 032c 40F2B180 		bls	.L99
 1041              		.loc 1 509 0
 1042 0330 029D     		ldr	r5, [sp, #8]
 1043              	.LVL123:
 1044 0332 DBF86810 		ldr	r1, [fp, #104]
 1045              		.loc 1 504 0
 1046 0336 248A     		ldrh	r4, [r4, #16]
 1047              		.loc 1 509 0
 1048 0338 4F19     		adds	r7, r1, r5
 1049              		.loc 1 503 0
 1050 033a D51A     		subs	r5, r2, r3
 1051              	.LVL124:
 1052              		.loc 1 509 0
 1053 033c D7F81869 		ldr	r6, [r7, #2328]
 1054 0340 A542     		cmp	r5, r4
 1055 0342 28BF     		it	cs
 1056 0344 2546     		movcs	r5, r4
 1057              	.LVL125:
 1058 0346 B2B2     		uxth	r2, r6
 1059 0348 B5EB820F 		cmp	r5, r2, lsl #2
 1060 034c BAD9     		bls	.L75
 1061              	.L74:
 1062              	.LBB135:
 1063              	.LBB136:
 1064              		.loc 1 510 0
 1065 034e 0020     		movs	r0, #0
 1066              	.LVL126:
 1067              	.L72:
 1068              	.LBE136:
 1069              	.LBE135:
 1070              	.LBE122:
 1071              	.LBE121:
 1072              	.LBB149:
 1073              		.loc 1 720 0
 1074 0350 2023     		movs	r3, #32
 1075              	.LVL127:
 1076              	@ 720 "../../os/hal/platforms/STM32/OTGv1/usb_lld.c" 1
 1077 0352 83F31188 		msr     BASEPRI, r3
 1078              	@ 0 "" 2
ARM GAS  C:\Users\jenny\AppData\Local\Temp\ccSQJd7j.s 			page 20


 1079              	.LVL128:
 1080              		.thumb
 1081              	.LBE149:
 1082              		.loc 1 721 0
 1083 0356 DAF80810 		ldr	r1, [sl, #8]
 1084 035a 41F00104 		orr	r4, r1, #1
 1085 035e CAF80840 		str	r4, [sl, #8]
 1086              		.loc 1 722 0
 1087 0362 30B9     		cbnz	r0, .L101
 1088              		.loc 1 723 0
 1089 0364 DAF83458 		ldr	r5, [sl, #2100]
 1090 0368 049F     		ldr	r7, [sp, #16]
 1091 036a 47EA0506 		orr	r6, r7, r5
 1092 036e CAF83468 		str	r6, [sl, #2100]
 1093              	.L101:
 1094              	.LBB150:
 1095              		.loc 1 724 0
 1096 0372 0023     		movs	r3, #0
 1097              	.LVL129:
 1098              	@ 724 "../../os/hal/platforms/STM32/OTGv1/usb_lld.c" 1
 1099 0374 83F31188 		msr     BASEPRI, r3
 1100              	@ 0 "" 2
 1101              	.LVL130:
 1102              		.thumb
 1103 0378 BDE6     		b	.L70
 1104              	.LVL131:
 1105              	.L224:
 1106              	.LBE150:
 1107              	.LBB151:
 1108              	.LBB148:
 1109              		.loc 1 518 0
 1110 037a 019A     		ldr	r2, [sp, #4]
 1111 037c C468     		ldr	r4, [r0, #12]
 1112 037e 8918     		adds	r1, r1, r2
 1113              	.LVL132:
 1114              	.LBB147:
 1115              	.LBB146:
 1116              		.loc 1 283 0
 1117 0380 002D     		cmp	r5, #0
 1118 0382 35D0     		beq	.L86
 1119 0384 2069     		ldr	r0, [r4, #16]
 1120 0386 2A46     		mov	r2, r5
 1121 0388 AE46     		mov	lr, r5
 1122              	.LVL133:
 1123              	.L93:
 1124              	.LBB137:
 1125              		.loc 1 287 0
 1126 038a 9708     		lsrs	r7, r2, #2
 1127              	.LVL134:
 1128 038c 4BD0     		beq	.L80
 1129              	.LBB138:
 1130              		.loc 1 289 0
 1131 038e A569     		ldr	r5, [r4, #24]
 1132              	.LVL135:
 1133 0390 431B     		subs	r3, r0, r5
 1134 0392 48BF     		it	mi
 1135 0394 0333     		addmi	r3, r3, #3
ARM GAS  C:\Users\jenny\AppData\Local\Temp\ccSQJd7j.s 			page 21


 1136 0396 9B10     		asrs	r3, r3, #2
 1137              		.loc 1 291 0
 1138 0398 9F42     		cmp	r7, r3
 1139 039a 38BF     		it	cc
 1140 039c 3B46     		movcc	r3, r7
 1141              	.LVL136:
 1142 039e 4FEA830C 		lsl	ip, r3, #2
 1143 03a2 CCEB0202 		rsb	r2, ip, r2
 1144              	.LVL137:
 1145              	.LBB139:
 1146              	.LBB140:
 1147              		.loc 1 242 0
 1148 03a6 DBB1     		cbz	r3, .L82
 1149              		.loc 1 675 0
 1150 03a8 2E46     		mov	r6, r5
 1151 03aa 5F1E     		subs	r7, r3, #1
 1152              	.LVL138:
 1153              		.loc 1 245 0
 1154 03ac 56F8049B 		ldr	r9, [r6], #4
 1155              		.loc 1 242 0
 1156 03b0 3B46     		mov	r3, r7
 1157              	.LVL139:
 1158              		.loc 1 245 0
 1159 03b2 C1F80090 		str	r9, [r1, #0]
 1160              	.LVL140:
 1161 03b6 07F00107 		and	r7, r7, #1
 1162 03ba 0436     		adds	r6, r6, #4
 1163              		.loc 1 242 0
 1164 03bc 7BB1     		cbz	r3, .L204
 1165 03be 2FB1     		cbz	r7, .L83
 1166              		.loc 1 245 0
 1167 03c0 56F8047C 		ldr	r7, [r6, #-4]
 1168 03c4 0436     		adds	r6, r6, #4
 1169              		.loc 1 242 0
 1170 03c6 013B     		subs	r3, r3, #1
 1171              	.LVL141:
 1172              		.loc 1 245 0
 1173 03c8 0F60     		str	r7, [r1, #0]
 1174              	.LVL142:
 1175              		.loc 1 242 0
 1176 03ca 08D0     		beq	.L204
 1177              	.LVL143:
 1178              	.L83:
 1179              		.loc 1 245 0
 1180 03cc 56F8047C 		ldr	r7, [r6, #-4]
 1181 03d0 0F60     		str	r7, [r1, #0]
 1182 03d2 56F8047B 		ldr	r7, [r6], #4
 1183 03d6 0436     		adds	r6, r6, #4
 1184              		.loc 1 242 0
 1185 03d8 023B     		subs	r3, r3, #2
 1186              		.loc 1 245 0
 1187 03da 0F60     		str	r7, [r1, #0]
 1188              		.loc 1 242 0
 1189 03dc F6D1     		bne	.L83
 1190              	.L204:
 1191 03de 6544     		add	r5, r5, ip
 1192              	.LVL144:
ARM GAS  C:\Users\jenny\AppData\Local\Temp\ccSQJd7j.s 			page 22


 1193              	.L82:
 1194              	.LBE140:
 1195              	.LBE139:
 1196              		.loc 1 293 0
 1197 03e0 A842     		cmp	r0, r5
 1198              		.loc 1 292 0
 1199 03e2 A561     		str	r5, [r4, #24]
 1200              		.loc 1 293 0
 1201 03e4 1DD8     		bhi	.L84
 1202              		.loc 1 294 0
 1203 03e6 E668     		ldr	r6, [r4, #12]
 1204 03e8 A661     		str	r6, [r4, #24]
 1205              	.LBE138:
 1206              	.LBE137:
 1207              		.loc 1 283 0
 1208 03ea 002A     		cmp	r2, #0
 1209 03ec CDD1     		bne	.L93
 1210              	.LVL145:
 1211              	.L212:
 1212 03ee 7546     		mov	r5, lr
 1213              	.LVL146:
 1214              	.L86:
 1215              	.LBB141:
 1216              		.loc 1 318 0
 1217 03f0 2023     		movs	r3, #32
 1218              	.LVL147:
 1219              	@ 318 "../../os/hal/platforms/STM32/OTGv1/usb_lld.c" 1
 1220 03f2 83F31188 		msr     BASEPRI, r3
 1221              	@ 0 "" 2
 1222              	.LVL148:
 1223              		.thumb
 1224              	.LBE141:
 1225              		.loc 1 319 0
 1226 03f6 A168     		ldr	r1, [r4, #8]
 1227              	.LVL149:
 1228              		.loc 1 320 0
 1229 03f8 2068     		ldr	r0, [r4, #0]
 1230              		.loc 1 319 0
 1231 03fa 4F19     		adds	r7, r1, r5
 1232              		.loc 1 320 0
 1233 03fc A042     		cmp	r0, r4
 1234              		.loc 1 319 0
 1235 03fe A760     		str	r7, [r4, #8]
 1236              		.loc 1 320 0
 1237 0400 09D0     		beq	.L79
 1238              	.L138:
 1239              	.LVL150:
 1240              	.LBB142:
 1241              	.LBB143:
 1242              		.loc 2 62 0
 1243 0402 0368     		ldr	r3, [r0, #0]
 1244              	.LVL151:
 1245 0404 2360     		str	r3, [r4, #0]
 1246 0406 5C60     		str	r4, [r3, #4]
 1247              	.LBE143:
 1248              	.LBE142:
 1249              		.loc 1 321 0
ARM GAS  C:\Users\jenny\AppData\Local\Temp\ccSQJd7j.s 			page 23


 1250 0408 FFF7FEFF 		bl	chSchReadyI
 1251              	.LVL152:
 1252 040c C0F82480 		str	r8, [r0, #36]
 1253              		.loc 1 320 0
 1254 0410 2068     		ldr	r0, [r4, #0]
 1255 0412 A042     		cmp	r0, r4
 1256 0414 F5D1     		bne	.L138
 1257              	.LVL153:
 1258              	.L79:
 1259              		.loc 1 322 0
 1260 0416 FFF7FEFF 		bl	chSchRescheduleS
 1261              	.LVL154:
 1262              	.LBB144:
 1263              		.loc 1 323 0
 1264 041a 0023     		movs	r3, #0
 1265              	@ 323 "../../os/hal/platforms/STM32/OTGv1/usb_lld.c" 1
 1266 041c 83F31188 		msr     BASEPRI, r3
 1267              	@ 0 "" 2
 1268              	.LVL155:
 1269              		.thumb
 1270 0420 7CE7     		b	.L94
 1271              	.LVL156:
 1272              	.L84:
 1273              	.LBE144:
 1274              	.LBB145:
 1275              		.loc 1 301 0
 1276 0422 002A     		cmp	r2, #0
 1277 0424 E3D0     		beq	.L212
 1278              	.LVL157:
 1279              	.L80:
 1280              		.loc 1 308 0
 1281 0426 A669     		ldr	r6, [r4, #24]
 1282 0428 16F8013B 		ldrb	r3, [r6], #1	@ zero_extendqisi2
 1283              	.LVL158:
 1284              		.loc 1 309 0
 1285 042c B042     		cmp	r0, r6
 1286              		.loc 1 308 0
 1287 042e A661     		str	r6, [r4, #24]
 1288              		.loc 1 310 0
 1289 0430 9CBF     		itt	ls
 1290 0432 E668     		ldrls	r6, [r4, #12]
 1291 0434 A661     		strls	r6, [r4, #24]
 1292              		.loc 1 307 0
 1293 0436 012A     		cmp	r2, #1
 1294 0438 27D0     		beq	.L88
 1295              		.loc 1 308 0
 1296 043a A769     		ldr	r7, [r4, #24]
 1297 043c 17F8015B 		ldrb	r5, [r7], #1	@ zero_extendqisi2
 1298              		.loc 1 309 0
 1299 0440 B842     		cmp	r0, r7
 1300              		.loc 1 308 0
 1301 0442 A761     		str	r7, [r4, #24]
 1302              		.loc 1 310 0
 1303 0444 9CBF     		itt	ls
 1304 0446 E768     		ldrls	r7, [r4, #12]
 1305 0448 A761     		strls	r7, [r4, #24]
 1306              		.loc 1 307 0
ARM GAS  C:\Users\jenny\AppData\Local\Temp\ccSQJd7j.s 			page 24


 1307 044a 022A     		cmp	r2, #2
 1308              		.loc 1 308 0
 1309 044c 43EA0523 		orr	r3, r3, r5, lsl #8
 1310              	.LVL159:
 1311              		.loc 1 307 0
 1312 0450 1BD0     		beq	.L88
 1313              		.loc 1 308 0
 1314 0452 A769     		ldr	r7, [r4, #24]
 1315 0454 17F8016B 		ldrb	r6, [r7], #1	@ zero_extendqisi2
 1316              		.loc 1 309 0
 1317 0458 B842     		cmp	r0, r7
 1318              		.loc 1 308 0
 1319 045a A761     		str	r7, [r4, #24]
 1320              		.loc 1 310 0
 1321 045c 9CBF     		itt	ls
 1322 045e E768     		ldrls	r7, [r4, #12]
 1323 0460 A761     		strls	r7, [r4, #24]
 1324              		.loc 1 307 0
 1325 0462 032A     		cmp	r2, #3
 1326              		.loc 1 308 0
 1327 0464 43EA0643 		orr	r3, r3, r6, lsl #16
 1328              	.LVL160:
 1329              		.loc 1 307 0
 1330 0468 0FD0     		beq	.L88
 1331              		.loc 1 308 0
 1332 046a A569     		ldr	r5, [r4, #24]
 1333 046c 15F8017B 		ldrb	r7, [r5], #1	@ zero_extendqisi2
 1334              		.loc 1 309 0
 1335 0470 8542     		cmp	r5, r0
 1336              		.loc 1 308 0
 1337 0472 A561     		str	r5, [r4, #24]
 1338              		.loc 1 310 0
 1339 0474 24BF     		itt	cs
 1340 0476 E568     		ldrcs	r5, [r4, #12]
 1341 0478 A561     		strcs	r5, [r4, #24]
 1342              		.loc 1 307 0
 1343 047a 043A     		subs	r2, r2, #4
 1344              	.LVL161:
 1345              		.loc 1 308 0
 1346 047c 43EA0763 		orr	r3, r3, r7, lsl #24
 1347              	.LVL162:
 1348              		.loc 1 307 0
 1349 0480 03D0     		beq	.L88
 1350              	.LVL163:
 1351              	.L92:
 1352              		.loc 1 314 0
 1353 0482 0B60     		str	r3, [r1, #0]
 1354              	.LVL164:
 1355              	.LBE145:
 1356              		.loc 1 283 0
 1357 0484 002A     		cmp	r2, #0
 1358 0486 80D1     		bne	.L93
 1359 0488 B1E7     		b	.L212
 1360              	.LVL165:
 1361              	.L88:
 1362 048a 0022     		movs	r2, #0
 1363 048c F9E7     		b	.L92
ARM GAS  C:\Users\jenny\AppData\Local\Temp\ccSQJd7j.s 			page 25


 1364              	.LVL166:
 1365              	.L223:
 1366 048e 631C     		adds	r3, r4, #1
 1367 0490 0593     		str	r3, [sp, #20]
 1368              	.LVL167:
 1369              	.L99:
 1370              		.loc 1 500 0
 1371 0492 0120     		movs	r0, #1
 1372 0494 5CE7     		b	.L72
 1373              	.LBE146:
 1374              	.LBE147:
 1375              	.LBE148:
 1376              	.LBE151:
 1377              	.LBE117:
 1378              	.LBE152:
 1379              		.cfi_endproc
 1380              	.LFE136:
 1381              		.size	usb_lld_pump, .-usb_lld_pump
 1382 0496 00BFAFF3 		.section	.text.otg_epin_handler,"ax",%progbits
 1382      0080AFF3 
 1382      0080
 1383              		.align	2
 1384              		.p2align 4,,15
 1385              		.thumb
 1386              		.thumb_func
 1387              		.type	otg_epin_handler, %function
 1388              	otg_epin_handler:
 1389              	.LFB133:
 1390              		.loc 1 544 0
 1391              		.cfi_startproc
 1392              		@ args = 0, pretend = 0, frame = 0
 1393              		@ frame_needed = 0, uses_anonymous_args = 0
 1394              	.LVL168:
 1395 0000 F8B5     		push	{r3, r4, r5, r6, r7, lr}
 1396              	.LCFI4:
 1397              		.cfi_def_cfa_offset 24
 1398              		.cfi_offset 3, -24
 1399              		.cfi_offset 4, -20
 1400              		.cfi_offset 5, -16
 1401              		.cfi_offset 6, -12
 1402              		.cfi_offset 7, -8
 1403              		.cfi_offset 14, -4
 1404              		.loc 1 545 0
 1405 0002 846E     		ldr	r4, [r0, #104]
 1406              	.LVL169:
 1407              		.loc 1 546 0
 1408 0004 04EB4113 		add	r3, r4, r1, lsl #5
 1409              		.loc 1 548 0
 1410 0008 4FF0FF32 		mov	r2, #-1
 1411              		.loc 1 546 0
 1412 000c D3F80869 		ldr	r6, [r3, #2312]
 1413              	.LVL170:
 1414              		.loc 1 548 0
 1415 0010 C3F80829 		str	r2, [r3, #2312]
 1416              		.loc 1 553 0
 1417 0014 F307     		lsls	r3, r6, #31
 1418              		.loc 1 544 0
ARM GAS  C:\Users\jenny\AppData\Local\Temp\ccSQJd7j.s 			page 26


 1419 0016 0546     		mov	r5, r0
 1420 0018 0F46     		mov	r7, r1
 1421              		.loc 1 553 0
 1422 001a 03D5     		bpl	.L228
 1423              		.loc 1 553 0 is_stmt 0 discriminator 1
 1424 001c D4F81038 		ldr	r3, [r4, #2064]
 1425 0020 DA07     		lsls	r2, r3, #31
 1426 0022 1FD4     		bmi	.L246
 1427              	.LVL171:
 1428              	.L228:
 1429              		.loc 1 557 0 is_stmt 1
 1430 0024 3306     		lsls	r3, r6, #24
 1431 0026 06D5     		bpl	.L227
 1432              		.loc 1 558 0 discriminator 1
 1433 0028 0121     		movs	r1, #1
 1434 002a D4F83408 		ldr	r0, [r4, #2100]
 1435 002e 01FA07F7 		lsl	r7, r1, r7
 1436              		.loc 1 557 0 discriminator 1
 1437 0032 0742     		tst	r7, r0
 1438 0034 00D1     		bne	.L247
 1439              	.L227:
 1440 0036 F8BD     		pop	{r3, r4, r5, r6, r7, pc}
 1441              	.L247:
 1442              	.LBB157:
 1443              		.loc 1 560 0
 1444 0038 2023     		movs	r3, #32
 1445              	.LVL172:
 1446              	@ 560 "../../os/hal/platforms/STM32/OTGv1/usb_lld.c" 1
 1447 003a 83F31188 		msr     BASEPRI, r3
 1448              	@ 0 "" 2
 1449              	.LVL173:
 1450              		.thumb
 1451              	.LBE157:
 1452              		.loc 1 561 0
 1453 003e 6B6F     		ldr	r3, [r5, #116]
 1454              	.LVL174:
 1455              		.loc 1 562 0
 1456 0040 D4F83428 		ldr	r2, [r4, #2100]
 1457              	.LBB158:
 1458              	.LBB159:
 1459              		.loc 1 122 0
 1460 0044 E86F     		ldr	r0, [r5, #124]
 1461              	.LBE159:
 1462              	.LBE158:
 1463              		.loc 1 561 0
 1464 0046 3B43     		orrs	r3, r3, r7
 1465              		.loc 1 562 0
 1466 0048 22EA0707 		bic	r7, r2, r7
 1467              		.loc 1 561 0
 1468 004c 6B67     		str	r3, [r5, #116]
 1469              		.loc 1 562 0
 1470 004e C4F83478 		str	r7, [r4, #2100]
 1471              	.LVL175:
 1472              	.LBB161:
 1473              	.LBB160:
 1474              		.loc 1 122 0
 1475 0052 18B1     		cbz	r0, .L230
ARM GAS  C:\Users\jenny\AppData\Local\Temp\ccSQJd7j.s 			page 27


 1476              		.loc 1 123 0
 1477 0054 FFF7FEFF 		bl	chSchReadyI
 1478              	.LVL176:
 1479              		.loc 1 124 0
 1480 0058 0020     		movs	r0, #0
 1481 005a E867     		str	r0, [r5, #124]
 1482              	.L230:
 1483              	.LBE160:
 1484              	.LBE161:
 1485              	.LBB162:
 1486              		.loc 1 564 0
 1487 005c 0023     		movs	r3, #0
 1488              	.LVL177:
 1489              	@ 564 "../../os/hal/platforms/STM32/OTGv1/usb_lld.c" 1
 1490 005e 83F31188 		msr     BASEPRI, r3
 1491              	@ 0 "" 2
 1492              	.LVL178:
 1493              		.thumb
 1494 0062 F8BD     		pop	{r3, r4, r5, r6, r7, pc}
 1495              	.LVL179:
 1496              	.L246:
 1497              	.LBE162:
 1498              		.loc 1 555 0
 1499 0064 00EB8102 		add	r2, r0, r1, lsl #2
 1500 0068 B0F808E0 		ldrh	lr, [r0, #8]
 1501 006c D368     		ldr	r3, [r2, #12]
 1502 006e 0122     		movs	r2, #1
 1503 0070 02FA01F2 		lsl	r2, r2, r1
 1504 0074 2EEA0202 		bic	r2, lr, r2
 1505 0078 0281     		strh	r2, [r0, #8]	@ movhi
 1506 007a 9B68     		ldr	r3, [r3, #8]
 1507 007c 9847     		blx	r3
 1508              	.LVL180:
 1509 007e D1E7     		b	.L228
 1510              		.cfi_endproc
 1511              	.LFE133:
 1512              		.size	otg_epin_handler, .-otg_epin_handler
 1513              		.section	.text.usb_lld_serve_interrupt,"ax",%progbits
 1514              		.align	2
 1515              		.p2align 4,,15
 1516              		.thumb
 1517              		.thumb_func
 1518              		.type	usb_lld_serve_interrupt, %function
 1519              	usb_lld_serve_interrupt:
 1520              	.LFB135:
 1521              		.loc 1 602 0
 1522              		.cfi_startproc
 1523              		@ args = 0, pretend = 0, frame = 0
 1524              		@ frame_needed = 0, uses_anonymous_args = 0
 1525              	.LVL181:
 1526 0000 70B5     		push	{r4, r5, r6, lr}
 1527              	.LCFI5:
 1528              		.cfi_def_cfa_offset 16
 1529              		.cfi_offset 4, -16
 1530              		.cfi_offset 5, -12
 1531              		.cfi_offset 6, -8
 1532              		.cfi_offset 14, -4
ARM GAS  C:\Users\jenny\AppData\Local\Temp\ccSQJd7j.s 			page 28


 1533              		.loc 1 603 0
 1534 0002 856E     		ldr	r5, [r0, #104]
 1535              	.LVL182:
 1536              		.loc 1 606 0
 1537 0004 6B69     		ldr	r3, [r5, #20]
 1538 0006 AC69     		ldr	r4, [r5, #24]
 1539 0008 1C40     		ands	r4, r4, r3
 1540              	.LVL183:
 1541              		.loc 1 610 0
 1542 000a E104     		lsls	r1, r4, #19
 1543              		.loc 1 602 0
 1544 000c 0646     		mov	r6, r0
 1545              		.loc 1 607 0
 1546 000e 6C61     		str	r4, [r5, #20]
 1547              		.loc 1 610 0
 1548 0010 31D4     		bmi	.L326
 1549              	.LVL184:
 1550              	.L250:
 1551              		.loc 1 616 0
 1552 0012 A204     		lsls	r2, r4, #18
 1553              		.loc 1 617 0
 1554 0014 48BF     		it	mi
 1555 0016 D5F80838 		ldrmi	r3, [r5, #2056]
 1556              		.loc 1 621 0
 1557 001a 2307     		lsls	r3, r4, #28
 1558 001c 04D5     		bpl	.L253
 1559              		.loc 1 622 0
 1560 001e 7068     		ldr	r0, [r6, #4]
 1561 0020 C168     		ldr	r1, [r0, #12]
 1562 0022 09B1     		cbz	r1, .L253
 1563              		.loc 1 622 0 is_stmt 0 discriminator 1
 1564 0024 3046     		mov	r0, r6
 1565 0026 8847     		blx	r1
 1566              	.LVL185:
 1567              	.L253:
 1568              		.loc 1 626 0 is_stmt 1
 1569 0028 E006     		lsls	r0, r4, #27
 1570 002a 2ED4     		bmi	.L327
 1571              	.LVL186:
 1572              	.L254:
 1573              		.loc 1 637 0
 1574 002c 6103     		lsls	r1, r4, #13
 1575              		.loc 1 636 0
 1576 002e D5F81858 		ldr	r5, [r5, #2072]
 1577              	.LVL187:
 1578              		.loc 1 637 0
 1579 0032 0BD5     		bpl	.L257
 1580              		.loc 1 638 0
 1581 0034 EA07     		lsls	r2, r5, #31
 1582 0036 59D4     		bmi	.L328
 1583              		.loc 1 640 0
 1584 0038 AB07     		lsls	r3, r5, #30
 1585              	.LVL188:
 1586 003a 5DD4     		bmi	.L329
 1587              	.L259:
 1588              		.loc 1 642 0
 1589 003c 6807     		lsls	r0, r5, #29
ARM GAS  C:\Users\jenny\AppData\Local\Temp\ccSQJd7j.s 			page 29


 1590 003e 61D4     		bmi	.L330
 1591              	.L260:
 1592              		.loc 1 644 0
 1593 0040 2907     		lsls	r1, r5, #28
 1594 0042 65D4     		bmi	.L331
 1595              	.L261:
 1596              		.loc 1 647 0
 1597 0044 EA06     		lsls	r2, r5, #27
 1598 0046 69D4     		bmi	.L332
 1599              	.L262:
 1600              		.loc 1 649 0
 1601 0048 AB06     		lsls	r3, r5, #26
 1602 004a 6DD4     		bmi	.L333
 1603              	.LVL189:
 1604              	.L257:
 1605              		.loc 1 653 0
 1606 004c 2003     		lsls	r0, r4, #12
 1607 004e 0BD5     		bpl	.L248
 1608              		.loc 1 654 0
 1609 0050 E903     		lsls	r1, r5, #15
 1610 0052 32D4     		bmi	.L334
 1611              		.loc 1 656 0
 1612 0054 AA03     		lsls	r2, r5, #14
 1613 0056 36D4     		bmi	.L335
 1614              	.L267:
 1615              		.loc 1 658 0
 1616 0058 6B03     		lsls	r3, r5, #13
 1617              	.LVL190:
 1618 005a 3AD4     		bmi	.L336
 1619              	.L268:
 1620              		.loc 1 660 0
 1621 005c 2803     		lsls	r0, r5, #12
 1622 005e 3ED4     		bmi	.L337
 1623              	.L269:
 1624              		.loc 1 663 0
 1625 0060 E902     		lsls	r1, r5, #11
 1626 0062 23D4     		bmi	.L338
 1627              	.L270:
 1628              		.loc 1 665 0
 1629 0064 AA02     		lsls	r2, r5, #10
 1630 0066 00D4     		bmi	.L339
 1631              	.LVL191:
 1632              	.L248:
 1633 0068 70BD     		pop	{r4, r5, r6, pc}
 1634              	.LVL192:
 1635              	.L339:
 1636              		.loc 1 666 0
 1637 006a 3046     		mov	r0, r6
 1638 006c 0521     		movs	r1, #5
 1639              		.loc 1 669 0
 1640 006e BDE87040 		pop	{r4, r5, r6, lr}
 1641              		.loc 1 666 0
 1642 0072 FFF7FEBF 		b	otg_epout_handler
 1643              	.LVL193:
 1644              	.L326:
 1645              		.loc 1 611 0
 1646 0076 FFF7FEFF 		bl	_usb_reset
ARM GAS  C:\Users\jenny\AppData\Local\Temp\ccSQJd7j.s 			page 30


 1647              	.LVL194:
 1648              		.loc 1 612 0
 1649 007a 7368     		ldr	r3, [r6, #4]
 1650 007c 1B68     		ldr	r3, [r3, #0]
 1651 007e 002B     		cmp	r3, #0
 1652 0080 C7D0     		beq	.L250
 1653              		.loc 1 612 0 is_stmt 0 discriminator 1
 1654 0082 3046     		mov	r0, r6
 1655 0084 0021     		movs	r1, #0
 1656 0086 9847     		blx	r3
 1657              	.LVL195:
 1658 0088 C3E7     		b	.L250
 1659              	.L327:
 1660              	.LBB167:
 1661              		.loc 1 629 0 is_stmt 1
 1662 008a 2023     		movs	r3, #32
 1663              	.LVL196:
 1664              	@ 629 "../../os/hal/platforms/STM32/OTGv1/usb_lld.c" 1
 1665 008c 83F31188 		msr     BASEPRI, r3
 1666              	@ 0 "" 2
 1667              	.LVL197:
 1668              		.thumb
 1669              	.LBE167:
 1670              		.loc 1 630 0
 1671 0090 AA69     		ldr	r2, [r5, #24]
 1672              	.LBB168:
 1673              	.LBB169:
 1674              		.loc 1 122 0
 1675 0092 F06F     		ldr	r0, [r6, #124]
 1676              	.LBE169:
 1677              	.LBE168:
 1678              		.loc 1 630 0
 1679 0094 22F01003 		bic	r3, r2, #16
 1680              	.LVL198:
 1681 0098 AB61     		str	r3, [r5, #24]
 1682              	.LVL199:
 1683              	.LBB171:
 1684              	.LBB170:
 1685              		.loc 1 122 0
 1686 009a 18B1     		cbz	r0, .L255
 1687              		.loc 1 123 0
 1688 009c FFF7FEFF 		bl	chSchReadyI
 1689              	.LVL200:
 1690              		.loc 1 124 0
 1691 00a0 0020     		movs	r0, #0
 1692 00a2 F067     		str	r0, [r6, #124]
 1693              	.L255:
 1694              	.LBE170:
 1695              	.LBE171:
 1696              	.LBB172:
 1697              		.loc 1 632 0
 1698 00a4 0023     		movs	r3, #0
 1699              	@ 632 "../../os/hal/platforms/STM32/OTGv1/usb_lld.c" 1
 1700 00a6 83F31188 		msr     BASEPRI, r3
 1701              	@ 0 "" 2
 1702              	.LVL201:
 1703              		.thumb
ARM GAS  C:\Users\jenny\AppData\Local\Temp\ccSQJd7j.s 			page 31


 1704 00aa BFE7     		b	.L254
 1705              	.LVL202:
 1706              	.L338:
 1707              	.LBE172:
 1708              		.loc 1 664 0
 1709 00ac 0421     		movs	r1, #4
 1710 00ae 3046     		mov	r0, r6
 1711 00b0 FFF7FEFF 		bl	otg_epout_handler
 1712              	.LVL203:
 1713              		.loc 1 665 0
 1714 00b4 AA02     		lsls	r2, r5, #10
 1715 00b6 D7D5     		bpl	.L248
 1716 00b8 D7E7     		b	.L339
 1717              	.LVL204:
 1718              	.L334:
 1719              		.loc 1 655 0
 1720 00ba 0021     		movs	r1, #0
 1721 00bc 3046     		mov	r0, r6
 1722 00be FFF7FEFF 		bl	otg_epout_handler
 1723              	.LVL205:
 1724              		.loc 1 656 0
 1725 00c2 AA03     		lsls	r2, r5, #14
 1726 00c4 C8D5     		bpl	.L267
 1727              	.LVL206:
 1728              	.L335:
 1729              		.loc 1 657 0
 1730 00c6 0121     		movs	r1, #1
 1731 00c8 3046     		mov	r0, r6
 1732 00ca FFF7FEFF 		bl	otg_epout_handler
 1733              	.LVL207:
 1734              		.loc 1 658 0
 1735 00ce 6B03     		lsls	r3, r5, #13
 1736 00d0 C4D5     		bpl	.L268
 1737              	.L336:
 1738              		.loc 1 659 0
 1739 00d2 3046     		mov	r0, r6
 1740 00d4 0221     		movs	r1, #2
 1741 00d6 FFF7FEFF 		bl	otg_epout_handler
 1742              	.LVL208:
 1743              		.loc 1 660 0
 1744 00da 2803     		lsls	r0, r5, #12
 1745 00dc C0D5     		bpl	.L269
 1746              	.L337:
 1747              		.loc 1 661 0
 1748 00de 0321     		movs	r1, #3
 1749 00e0 3046     		mov	r0, r6
 1750 00e2 FFF7FEFF 		bl	otg_epout_handler
 1751              	.LVL209:
 1752              		.loc 1 663 0
 1753 00e6 E902     		lsls	r1, r5, #11
 1754 00e8 BCD5     		bpl	.L270
 1755 00ea DFE7     		b	.L338
 1756              	.LVL210:
 1757              	.L328:
 1758              		.loc 1 639 0
 1759 00ec 0021     		movs	r1, #0
 1760 00ee 3046     		mov	r0, r6
ARM GAS  C:\Users\jenny\AppData\Local\Temp\ccSQJd7j.s 			page 32


 1761 00f0 FFF7FEFF 		bl	otg_epin_handler
 1762              	.LVL211:
 1763              		.loc 1 640 0
 1764 00f4 AB07     		lsls	r3, r5, #30
 1765 00f6 A1D5     		bpl	.L259
 1766              	.L329:
 1767              		.loc 1 641 0
 1768 00f8 3046     		mov	r0, r6
 1769 00fa 0121     		movs	r1, #1
 1770 00fc FFF7FEFF 		bl	otg_epin_handler
 1771              	.LVL212:
 1772              		.loc 1 642 0
 1773 0100 6807     		lsls	r0, r5, #29
 1774 0102 9DD5     		bpl	.L260
 1775              	.L330:
 1776              		.loc 1 643 0
 1777 0104 0221     		movs	r1, #2
 1778 0106 3046     		mov	r0, r6
 1779 0108 FFF7FEFF 		bl	otg_epin_handler
 1780              	.LVL213:
 1781              		.loc 1 644 0
 1782 010c 2907     		lsls	r1, r5, #28
 1783 010e 99D5     		bpl	.L261
 1784              	.L331:
 1785              		.loc 1 645 0
 1786 0110 0321     		movs	r1, #3
 1787 0112 3046     		mov	r0, r6
 1788 0114 FFF7FEFF 		bl	otg_epin_handler
 1789              	.LVL214:
 1790              		.loc 1 647 0
 1791 0118 EA06     		lsls	r2, r5, #27
 1792 011a 95D5     		bpl	.L262
 1793              	.L332:
 1794              		.loc 1 648 0
 1795 011c 0421     		movs	r1, #4
 1796 011e 3046     		mov	r0, r6
 1797 0120 FFF7FEFF 		bl	otg_epin_handler
 1798              	.LVL215:
 1799              		.loc 1 649 0
 1800 0124 AB06     		lsls	r3, r5, #26
 1801 0126 91D5     		bpl	.L257
 1802              	.L333:
 1803              		.loc 1 650 0
 1804 0128 3046     		mov	r0, r6
 1805 012a 0521     		movs	r1, #5
 1806 012c FFF7FEFF 		bl	otg_epin_handler
 1807              	.LVL216:
 1808 0130 8CE7     		b	.L257
 1809              		.cfi_endproc
 1810              	.LFE135:
 1811              		.size	usb_lld_serve_interrupt, .-usb_lld_serve_interrupt
 1812 0132 00BFAFF3 		.section	.text.Vector14C,"ax",%progbits
 1812      0080AFF3 
 1812      0080AFF3 
 1812      0080
 1813              		.align	2
 1814              		.p2align 4,,15
ARM GAS  C:\Users\jenny\AppData\Local\Temp\ccSQJd7j.s 			page 33


 1815              		.global	Vector14C
 1816              		.thumb
 1817              		.thumb_func
 1818              		.type	Vector14C, %function
 1819              	Vector14C:
 1820              	.LFB137:
 1821              		.loc 1 742 0
 1822              		.cfi_startproc
 1823              		@ args = 0, pretend = 0, frame = 0
 1824              		@ frame_needed = 0, uses_anonymous_args = 0
 1825 0000 08B5     		push	{r3, lr}
 1826              	.LCFI6:
 1827              		.cfi_def_cfa_offset 8
 1828              		.cfi_offset 3, -8
 1829              		.cfi_offset 14, -4
 1830              		.loc 1 746 0
 1831 0002 40F20000 		movw	r0, #:lower16:.LANCHOR0
 1832 0006 C0F20000 		movt	r0, #:upper16:.LANCHOR0
 1833 000a FFF7FEFF 		bl	usb_lld_serve_interrupt
 1834              	.LVL217:
 1835              		.loc 1 749 0
 1836 000e BDE80840 		pop	{r3, lr}
 1837              		.loc 1 748 0
 1838 0012 FFF7FEBF 		b	_port_irq_epilogue
 1839              	.LVL218:
 1840              		.cfi_endproc
 1841              	.LFE137:
 1842              		.size	Vector14C, .-Vector14C
 1843 0016 00BFAFF3 		.section	.text.Vector174,"ax",%progbits
 1843      0080AFF3 
 1843      0080
 1844              		.align	2
 1845              		.p2align 4,,15
 1846              		.global	Vector174
 1847              		.thumb
 1848              		.thumb_func
 1849              		.type	Vector174, %function
 1850              	Vector174:
 1851              	.LFB138:
 1852              		.loc 1 761 0
 1853              		.cfi_startproc
 1854              		@ args = 0, pretend = 0, frame = 0
 1855              		@ frame_needed = 0, uses_anonymous_args = 0
 1856 0000 08B5     		push	{r3, lr}
 1857              	.LCFI7:
 1858              		.cfi_def_cfa_offset 8
 1859              		.cfi_offset 3, -8
 1860              		.cfi_offset 14, -4
 1861              		.loc 1 765 0
 1862 0002 40F20000 		movw	r0, #:lower16:.LANCHOR1
 1863 0006 C0F20000 		movt	r0, #:upper16:.LANCHOR1
 1864 000a FFF7FEFF 		bl	usb_lld_serve_interrupt
 1865              	.LVL219:
 1866              		.loc 1 768 0
 1867 000e BDE80840 		pop	{r3, lr}
 1868              		.loc 1 767 0
 1869 0012 FFF7FEBF 		b	_port_irq_epilogue
ARM GAS  C:\Users\jenny\AppData\Local\Temp\ccSQJd7j.s 			page 34


 1870              	.LVL220:
 1871              		.cfi_endproc
 1872              	.LFE138:
 1873              		.size	Vector174, .-Vector174
 1874 0016 00BFAFF3 		.section	.text.usb_lld_init,"ax",%progbits
 1874      0080AFF3 
 1874      0080
 1875              		.align	2
 1876              		.p2align 4,,15
 1877              		.global	usb_lld_init
 1878              		.thumb
 1879              		.thumb_func
 1880              		.type	usb_lld_init, %function
 1881              	usb_lld_init:
 1882              	.LFB139:
 1883              		.loc 1 780 0
 1884              		.cfi_startproc
 1885              		@ args = 0, pretend = 0, frame = 0
 1886              		@ frame_needed = 0, uses_anonymous_args = 0
 1887 0000 70B5     		push	{r4, r5, r6, lr}
 1888              	.LCFI8:
 1889              		.cfi_def_cfa_offset 16
 1890              		.cfi_offset 4, -16
 1891              		.cfi_offset 5, -12
 1892              		.cfi_offset 6, -8
 1893              		.cfi_offset 14, -4
 1894              		.loc 1 784 0
 1895 0002 40F20005 		movw	r5, #:lower16:.LANCHOR0
 1896 0006 C0F20005 		movt	r5, #:upper16:.LANCHOR0
 1897 000a 2846     		mov	r0, r5
 1898              		.loc 1 806 0
 1899 000c 40F20004 		movw	r4, #:lower16:.LANCHOR1
 1900              		.loc 1 784 0
 1901 0010 FFF7FEFF 		bl	usbObjectInit
 1902              	.LVL221:
 1903              		.loc 1 806 0
 1904 0014 C0F20004 		movt	r4, #:upper16:.LANCHOR1
 1905              		.loc 1 788 0
 1906 0018 40F20001 		movw	r1, #:lower16:.LANCHOR2
 1907              		.loc 1 785 0
 1908 001c 0026     		movs	r6, #0
 1909              		.loc 1 806 0
 1910 001e 2046     		mov	r0, r4
 1911              		.loc 1 787 0
 1912 0020 4FF0A043 		mov	r3, #1342177280
 1913              		.loc 1 788 0
 1914 0024 C0F20001 		movt	r1, #:upper16:.LANCHOR2
 1915              		.loc 1 785 0
 1916 0028 AE67     		str	r6, [r5, #120]
 1917              		.loc 1 786 0
 1918 002a EE67     		str	r6, [r5, #124]
 1919              		.loc 1 787 0
 1920 002c AB66     		str	r3, [r5, #104]
 1921              		.loc 1 788 0
 1922 002e E966     		str	r1, [r5, #108]
 1923              		.loc 1 806 0
 1924 0030 FFF7FEFF 		bl	usbObjectInit
ARM GAS  C:\Users\jenny\AppData\Local\Temp\ccSQJd7j.s 			page 35


 1925              	.LVL222:
 1926              		.loc 1 809 0
 1927 0034 3046     		mov	r0, r6
 1928              		.loc 1 810 0
 1929 0036 40F20002 		movw	r2, #:lower16:.LANCHOR3
 1930              		.loc 1 809 0
 1931 003a C4F20400 		movt	r0, 16388
 1932              		.loc 1 810 0
 1933 003e C0F20002 		movt	r2, #:upper16:.LANCHOR3
 1934              		.loc 1 807 0
 1935 0042 A667     		str	r6, [r4, #120]
 1936              		.loc 1 808 0
 1937 0044 E667     		str	r6, [r4, #124]
 1938              		.loc 1 809 0
 1939 0046 A066     		str	r0, [r4, #104]
 1940              		.loc 1 810 0
 1941 0048 E266     		str	r2, [r4, #108]
 1942 004a 70BD     		pop	{r4, r5, r6, pc}
 1943              		.cfi_endproc
 1944              	.LFE139:
 1945              		.size	usb_lld_init, .-usb_lld_init
 1946 004c AFF30080 		.section	.text.usb_lld_start,"ax",%progbits
 1947              		.align	2
 1948              		.p2align 4,,15
 1949              		.global	usb_lld_start
 1950              		.thumb
 1951              		.thumb_func
 1952              		.type	usb_lld_start, %function
 1953              	usb_lld_start:
 1954              	.LFB140:
 1955              		.loc 1 838 0
 1956              		.cfi_startproc
 1957              		@ args = 0, pretend = 0, frame = 0
 1958              		@ frame_needed = 0, uses_anonymous_args = 0
 1959              	.LVL223:
 1960 0000 70B5     		push	{r4, r5, r6, lr}
 1961              	.LCFI9:
 1962              		.cfi_def_cfa_offset 16
 1963              		.cfi_offset 4, -16
 1964              		.cfi_offset 5, -12
 1965              		.cfi_offset 6, -8
 1966              		.cfi_offset 14, -4
 1967              		.loc 1 841 0
 1968 0002 0378     		ldrb	r3, [r0, #0]	@ zero_extendqisi2
 1969              		.loc 1 839 0
 1970 0004 866E     		ldr	r6, [r0, #104]
 1971              	.LVL224:
 1972              		.loc 1 841 0
 1973 0006 012B     		cmp	r3, #1
 1974              		.loc 1 838 0
 1975 0008 82B0     		sub	sp, sp, #8
 1976              	.LCFI10:
 1977              		.cfi_def_cfa_offset 24
 1978              		.loc 1 838 0
 1979 000a 0546     		mov	r5, r0
 1980              		.loc 1 841 0
 1981 000c 01D0     		beq	.L354
ARM GAS  C:\Users\jenny\AppData\Local\Temp\ccSQJd7j.s 			page 36


 1982              	.LVL225:
 1983              	.L343:
 1984              		.loc 1 915 0
 1985 000e 02B0     		add	sp, sp, #8
 1986 0010 70BD     		pop	{r4, r5, r6, pc}
 1987              	.LVL226:
 1988              	.L354:
 1989              		.loc 1 844 0
 1990 0012 3B48     		ldr	r0, .L359
 1991              	.LVL227:
 1992 0014 8542     		cmp	r5, r0
 1993 0016 4CD0     		beq	.L355
 1994              		.loc 1 855 0
 1995 0018 3A49     		ldr	r1, .L359+4
 1996 001a 8D42     		cmp	r5, r1
 1997 001c 5CD0     		beq	.L356
 1998              	.L346:
 1999              		.loc 1 869 0
 2000 001e AC6F     		ldr	r4, [r5, #120]
 2001              		.loc 1 868 0
 2002 0020 0020     		movs	r0, #0
 2003 0022 6867     		str	r0, [r5, #116]
 2004              		.loc 1 869 0
 2005 0024 002C     		cmp	r4, #0
 2006 0026 38D0     		beq	.L357
 2007              	.L347:
 2008              		.loc 1 879 0
 2009 0028 4FF4A251 		mov	r1, #5184
 2010              	.LBB175:
 2011              	.LBB176:
 2012              		.loc 1 129 0
 2013 002c AC6E     		ldr	r4, [r5, #104]
 2014              	.LBE176:
 2015              	.LBE175:
 2016              		.loc 1 879 0
 2017 002e C4F20001 		movt	r1, 16384
 2018              		.loc 1 882 0
 2019 0032 0322     		movs	r2, #3
 2020              		.loc 1 879 0
 2021 0034 F160     		str	r1, [r6, #12]
 2022              		.loc 1 882 0
 2023 0036 C0F22022 		movt	r2, 544
 2024              		.loc 1 885 0
 2025 003a 0023     		movs	r3, #0
 2026              		.loc 1 888 0
 2027 003c 4FF45020 		mov	r0, #851968
 2028              	.LBB179:
 2029              	.LBB177:
 2030              		.loc 1 132 0
 2031 0040 0121     		movs	r1, #1
 2032              	.LBE177:
 2033              	.LBE179:
 2034              		.loc 1 882 0
 2035 0042 C6F80028 		str	r2, [r6, #2048]
 2036              		.loc 1 885 0
 2037 0046 C6F8003E 		str	r3, [r6, #3584]
 2038              		.loc 1 888 0
ARM GAS  C:\Users\jenny\AppData\Local\Temp\ccSQJd7j.s 			page 37


 2039 004a B063     		str	r0, [r6, #56]
 2040              	.LVL228:
 2041              	.LBB180:
 2042              	.LBB178:
 2043              		.loc 1 132 0
 2044 004c 2161     		str	r1, [r4, #16]
 2045              	.L348:
 2046              		.loc 1 133 0
 2047 004e 2269     		ldr	r2, [r4, #16]
 2048 0050 D007     		lsls	r0, r2, #31
 2049 0052 FCD4     		bmi	.L348
 2050              		.loc 1 135 0
 2051 0054 0C20     		movs	r0, #12
 2052 0056 FFF7FEFF 		bl	halPolledDelay
 2053              	.LVL229:
 2054              	.L349:
 2055              		.loc 1 137 0
 2056 005a 2369     		ldr	r3, [r4, #16]
 2057 005c 002B     		cmp	r3, #0
 2058 005e FCDA     		bge	.L349
 2059              	.LBE178:
 2060              	.LBE180:
 2061              		.loc 1 894 0
 2062 0060 0024     		movs	r4, #0
 2063              	.LVL230:
 2064              		.loc 1 897 0
 2065 0062 2846     		mov	r0, r5
 2066              		.loc 1 894 0
 2067 0064 B460     		str	r4, [r6, #8]
 2068              		.loc 1 897 0
 2069 0066 FFF7FEFF 		bl	otg_disable_ep
 2070              	.LVL231:
 2071              		.loc 1 904 0
 2072 006a 6868     		ldr	r0, [r5, #4]
 2073              		.loc 1 901 0
 2074 006c C6F81048 		str	r4, [r6, #2064]
 2075              		.loc 1 904 0
 2076 0070 C168     		ldr	r1, [r0, #12]
 2077              		.loc 1 902 0
 2078 0072 C6F81448 		str	r4, [r6, #2068]
 2079              		.loc 1 903 0
 2080 0076 C6F81C48 		str	r4, [r6, #2076]
 2081              		.loc 1 904 0
 2082 007a 51B1     		cbz	r1, .L358
 2083              		.loc 1 908 0
 2084 007c 43F20802 		movw	r2, #12296
 2085 0080 B261     		str	r2, [r6, #24]
 2086              	.L351:
 2087              		.loc 1 910 0
 2088 0082 4FF0FF30 		mov	r0, #-1
 2089 0086 7061     		str	r0, [r6, #20]
 2090              		.loc 1 913 0
 2091 0088 B168     		ldr	r1, [r6, #8]
 2092 008a 41F00102 		orr	r2, r1, #1
 2093 008e B260     		str	r2, [r6, #8]
 2094 0090 BDE7     		b	.L343
 2095              	.L358:
ARM GAS  C:\Users\jenny\AppData\Local\Temp\ccSQJd7j.s 			page 38


 2096              		.loc 1 905 0
 2097 0092 4FF44053 		mov	r3, #12288
 2098 0096 B361     		str	r3, [r6, #24]
 2099 0098 F3E7     		b	.L351
 2100              	.LVL232:
 2101              	.L357:
 2102              		.loc 1 870 0
 2103 009a 0095     		str	r5, [sp, #0]
 2104 009c 05F18000 		add	r0, r5, #128
 2105 00a0 4FF4DC71 		mov	r1, #440
 2106 00a4 0222     		movs	r2, #2
 2107 00a6 184B     		ldr	r3, .L359+8
 2108 00a8 FFF7FEFF 		bl	chThdCreateI
 2109              	.LVL233:
 2110 00ac E867     		str	r0, [r5, #124]
 2111 00ae A867     		str	r0, [r5, #120]
 2112 00b0 BAE7     		b	.L347
 2113              	.L355:
 2114              		.loc 1 846 0
 2115 00b2 4FF46054 		mov	r4, #14336
 2116 00b6 C4F20204 		movt	r4, 16386
 2117 00ba 636B     		ldr	r3, [r4, #52]
 2118 00bc 43F08000 		orr	r0, r3, #128
 2119 00c0 6063     		str	r0, [r4, #52]
 2120              		.loc 1 847 0
 2121 00c2 6169     		ldr	r1, [r4, #20]
 2122 00c4 0023     		movs	r3, #0
 2123 00c6 41F08002 		orr	r2, r1, #128
 2124 00ca 6261     		str	r2, [r4, #20]
 2125              		.loc 1 850 0
 2126 00cc 4320     		movs	r0, #67
 2127              		.loc 1 847 0
 2128 00ce 6361     		str	r3, [r4, #20]
 2129              		.loc 1 850 0
 2130 00d0 E021     		movs	r1, #224
 2131 00d2 FFF7FEFF 		bl	nvicEnableVector
 2132              	.LVL234:
 2133 00d6 A2E7     		b	.L346
 2134              	.L356:
 2135              		.loc 1 857 0
 2136 00d8 4FF46054 		mov	r4, #14336
 2137 00dc C4F20204 		movt	r4, 16386
 2138 00e0 226B     		ldr	r2, [r4, #48]
 2139 00e2 42F00053 		orr	r3, r2, #536870912
 2140 00e6 2363     		str	r3, [r4, #48]
 2141              		.loc 1 858 0
 2142 00e8 2069     		ldr	r0, [r4, #16]
 2143 00ea 0022     		movs	r2, #0
 2144 00ec 40F08051 		orr	r1, r0, #268435456
 2145 00f0 2161     		str	r1, [r4, #16]
 2146              		.loc 1 861 0
 2147 00f2 4D20     		movs	r0, #77
 2148              		.loc 1 858 0
 2149 00f4 2261     		str	r2, [r4, #16]
 2150              		.loc 1 861 0
 2151 00f6 E021     		movs	r1, #224
 2152 00f8 FFF7FEFF 		bl	nvicEnableVector
ARM GAS  C:\Users\jenny\AppData\Local\Temp\ccSQJd7j.s 			page 39


 2153              	.LVL235:
 2154 00fc 8FE7     		b	.L346
 2155              	.L360:
 2156 00fe 00BF     		.align	2
 2157              	.L359:
 2158 0100 00000000 		.word	.LANCHOR0
 2159 0104 00000000 		.word	.LANCHOR1
 2160 0108 00000000 		.word	usb_lld_pump
 2161              		.cfi_endproc
 2162              	.LFE140:
 2163              		.size	usb_lld_start, .-usb_lld_start
 2164 010c AFF30080 		.section	.text.usb_lld_stop,"ax",%progbits
 2165              		.align	2
 2166              		.p2align 4,,15
 2167              		.global	usb_lld_stop
 2168              		.thumb
 2169              		.thumb_func
 2170              		.type	usb_lld_stop, %function
 2171              	usb_lld_stop:
 2172              	.LFB141:
 2173              		.loc 1 924 0
 2174              		.cfi_startproc
 2175              		@ args = 0, pretend = 0, frame = 0
 2176              		@ frame_needed = 0, uses_anonymous_args = 0
 2177              	.LVL236:
 2178 0000 38B5     		push	{r3, r4, r5, lr}
 2179              	.LCFI11:
 2180              		.cfi_def_cfa_offset 16
 2181              		.cfi_offset 3, -16
 2182              		.cfi_offset 4, -12
 2183              		.cfi_offset 5, -8
 2184              		.cfi_offset 14, -4
 2185              		.loc 1 928 0
 2186 0002 0378     		ldrb	r3, [r0, #0]	@ zero_extendqisi2
 2187              		.loc 1 925 0
 2188 0004 856E     		ldr	r5, [r0, #104]
 2189              	.LVL237:
 2190              		.loc 1 928 0
 2191 0006 012B     		cmp	r3, #1
 2192              		.loc 1 924 0
 2193 0008 0446     		mov	r4, r0
 2194              		.loc 1 928 0
 2195 000a 07D0     		beq	.L361
 2196              		.loc 1 932 0
 2197 000c FFF7FEFF 		bl	otg_disable_ep
 2198              	.LVL238:
 2199              		.loc 1 934 0
 2200 0010 0020     		movs	r0, #0
 2201 0012 6067     		str	r0, [r4, #116]
 2202              		.loc 1 936 0
 2203 0014 C5F81C08 		str	r0, [r5, #2076]
 2204              		.loc 1 937 0
 2205 0018 A860     		str	r0, [r5, #8]
 2206              		.loc 1 938 0
 2207 001a A863     		str	r0, [r5, #56]
 2208              	.L361:
 2209 001c 38BD     		pop	{r3, r4, r5, pc}
ARM GAS  C:\Users\jenny\AppData\Local\Temp\ccSQJd7j.s 			page 40


 2210              		.cfi_endproc
 2211              	.LFE141:
 2212              		.size	usb_lld_stop, .-usb_lld_stop
 2213 001e 00BF     		.section	.text.usb_lld_reset,"ax",%progbits
 2214              		.align	2
 2215              		.p2align 4,,15
 2216              		.global	usb_lld_reset
 2217              		.thumb
 2218              		.thumb_func
 2219              		.type	usb_lld_reset, %function
 2220              	usb_lld_reset:
 2221              	.LFB142:
 2222              		.loc 1 963 0
 2223              		.cfi_startproc
 2224              		@ args = 0, pretend = 0, frame = 0
 2225              		@ frame_needed = 0, uses_anonymous_args = 0
 2226              	.LVL239:
 2227 0000 2DE9F84F 		push	{r3, r4, r5, r6, r7, r8, r9, sl, fp, lr}
 2228              	.LCFI12:
 2229              		.cfi_def_cfa_offset 40
 2230              		.cfi_offset 3, -40
 2231              		.cfi_offset 4, -36
 2232              		.cfi_offset 5, -32
 2233              		.cfi_offset 6, -28
 2234              		.cfi_offset 7, -24
 2235              		.cfi_offset 8, -20
 2236              		.cfi_offset 9, -16
 2237              		.cfi_offset 10, -12
 2238              		.cfi_offset 11, -8
 2239              		.cfi_offset 14, -4
 2240              		.loc 1 963 0
 2241 0004 8046     		mov	r8, r0
 2242              		.loc 1 968 0
 2243 0006 0021     		movs	r1, #0
 2244              		.loc 1 965 0
 2245 0008 846E     		ldr	r4, [r0, #104]
 2246              	.LVL240:
 2247              		.loc 1 968 0
 2248 000a FFF7FEFF 		bl	otg_txfifo_flush
 2249              	.LVL241:
 2250 000e D8F86CB0 		ldr	fp, [r8, #108]
 2251 0012 DBF808A0 		ldr	sl, [fp, #8]
 2252              		.loc 1 972 0
 2253 0016 4FF00061 		mov	r1, #134217728
 2254              		.loc 1 974 0
 2255 001a FF22     		movs	r2, #255
 2256              		.loc 1 972 0
 2257 001c C4F80019 		str	r1, [r4, #2304]
 2258 0020 0AF00106 		and	r6, sl, #1
 2259              		.loc 1 973 0
 2260 0024 C4F8001B 		str	r1, [r4, #2816]
 2261              		.loc 1 971 0
 2262 0028 0123     		movs	r3, #1
 2263              		.loc 1 974 0
 2264 002a C4F80829 		str	r2, [r4, #2312]
 2265              		.loc 1 975 0
 2266 002e C4F8082B 		str	r2, [r4, #2824]
ARM GAS  C:\Users\jenny\AppData\Local\Temp\ccSQJd7j.s 			page 41


 2267              		.loc 1 971 0
 2268 0032 BAF1000F 		cmp	sl, #0
 2269 0036 33D0     		beq	.L377
 2270 0038 66B1     		cbz	r6, .L367
 2271 003a 0223     		movs	r3, #2
 2272 003c 5345     		cmp	r3, sl
 2273              		.loc 1 972 0
 2274 003e C4F82019 		str	r1, [r4, #2336]
 2275 0042 04F51267 		add	r7, r4, #2336
 2276              		.loc 1 973 0
 2277 0046 C4F8201B 		str	r1, [r4, #2848]
 2278              		.loc 1 974 0
 2279 004a C4F82829 		str	r2, [r4, #2344]
 2280              		.loc 1 975 0
 2281 004e C4F8282B 		str	r2, [r4, #2856]
 2282              		.loc 1 971 0
 2283 0052 25D8     		bhi	.L377
 2284              	.L367:
 2285              		.loc 1 971 0 is_stmt 0 discriminator 2
 2286 0054 5F1C     		adds	r7, r3, #1
 2287              		.loc 1 972 0 is_stmt 1 discriminator 2
 2288 0056 03F14809 		add	r9, r3, #72
 2289              		.loc 1 973 0 discriminator 2
 2290 005a 03F15800 		add	r0, r3, #88
 2291              		.loc 1 972 0 discriminator 2
 2292 005e 03F1490C 		add	ip, r3, #73
 2293              		.loc 1 973 0 discriminator 2
 2294 0062 03F1590E 		add	lr, r3, #89
 2295              		.loc 1 974 0 discriminator 2
 2296 0066 04EB4316 		add	r6, r4, r3, lsl #5
 2297 006a 04EB4715 		add	r5, r4, r7, lsl #5
 2298              		.loc 1 973 0 discriminator 2
 2299 006e 4001     		lsls	r0, r0, #5
 2300              		.loc 1 972 0 discriminator 2
 2301 0070 4FEA4919 		lsl	r9, r9, #5
 2302 0074 4FEA4C1C 		lsl	ip, ip, #5
 2303              		.loc 1 973 0 discriminator 2
 2304 0078 4FEA4E1E 		lsl	lr, lr, #5
 2305              		.loc 1 971 0 discriminator 2
 2306 007c 0233     		adds	r3, r3, #2
 2307 007e 5345     		cmp	r3, sl
 2308              		.loc 1 972 0 discriminator 2
 2309 0080 44F80910 		str	r1, [r4, r9]
 2310              		.loc 1 973 0 discriminator 2
 2311 0084 2150     		str	r1, [r4, r0]
 2312              		.loc 1 974 0 discriminator 2
 2313 0086 C6F80829 		str	r2, [r6, #2312]
 2314              		.loc 1 975 0 discriminator 2
 2315 008a C6F8082B 		str	r2, [r6, #2824]
 2316              		.loc 1 972 0 discriminator 2
 2317 008e 44F80C10 		str	r1, [r4, ip]
 2318              		.loc 1 973 0 discriminator 2
 2319 0092 44F80E10 		str	r1, [r4, lr]
 2320              		.loc 1 974 0 discriminator 2
 2321 0096 C5F80829 		str	r2, [r5, #2312]
 2322              		.loc 1 975 0 discriminator 2
 2323 009a C5F8082B 		str	r2, [r5, #2824]
ARM GAS  C:\Users\jenny\AppData\Local\Temp\ccSQJd7j.s 			page 42


 2324              		.loc 1 971 0 discriminator 2
 2325 009e D9D9     		bls	.L367
 2326              	.L377:
 2327              	.LBB187:
 2328              	.LBB188:
 2329              		.loc 1 207 0
 2330 00a0 DBF80030 		ldr	r3, [fp, #0]
 2331              	.LBE188:
 2332              	.LBE187:
 2333              	.LBB190:
 2334              	.LBB191:
 2335              		.loc 1 179 0
 2336 00a4 D8F86820 		ldr	r2, [r8, #104]
 2337              	.LBE191:
 2338              	.LBE190:
 2339              		.loc 1 979 0
 2340 00a8 4FF0FF31 		mov	r1, #-1
 2341              		.loc 1 980 0
 2342 00ac 4FF00116 		mov	r6, #65537
 2343              	.LBB194:
 2344              	.LBB192:
 2345              		.loc 1 181 0
 2346 00b0 1025     		movs	r5, #16
 2347              	.LBE192:
 2348              	.LBE194:
 2349              		.loc 1 979 0
 2350 00b2 C4F81818 		str	r1, [r4, #2072]
 2351              		.loc 1 980 0
 2352 00b6 C4F81C68 		str	r6, [r4, #2076]
 2353              	.LVL242:
 2354              	.LBB195:
 2355              	.LBB189:
 2356              		.loc 1 207 0
 2357 00ba C8F87030 		str	r3, [r8, #112]
 2358              	.LBE189:
 2359              	.LBE195:
 2360              		.loc 1 986 0
 2361 00be 6362     		str	r3, [r4, #36]
 2362              	.LVL243:
 2363              	.LBB196:
 2364              	.LBB193:
 2365              		.loc 1 181 0
 2366 00c0 1561     		str	r5, [r2, #16]
 2367              	.L368:
 2368              		.loc 1 182 0
 2369 00c2 1069     		ldr	r0, [r2, #16]
 2370 00c4 10F01005 		ands	r5, r0, #16
 2371 00c8 FBD1     		bne	.L368
 2372              		.loc 1 185 0
 2373 00ca 0C20     		movs	r0, #12
 2374 00cc FFF7FEFF 		bl	halPolledDelay
 2375              	.LVL244:
 2376              	.LBE193:
 2377              	.LBE196:
 2378              		.loc 1 990 0
 2379 00d0 D4F80038 		ldr	r3, [r4, #2048]
 2380              	.LBB197:
ARM GAS  C:\Users\jenny\AppData\Local\Temp\ccSQJd7j.s 			page 43


 2381              	.LBB198:
 2382              		.loc 1 221 0
 2383 00d4 D8F87010 		ldr	r1, [r8, #112]
 2384              	.LBE198:
 2385              	.LBE197:
 2386              		.loc 1 990 0
 2387 00d8 23F4FE62 		bic	r2, r3, #2032
 2388 00dc C4F80028 		str	r2, [r4, #2048]
 2389              		.loc 1 993 0
 2390 00e0 A669     		ldr	r6, [r4, #24]
 2391 00e2 46F44020 		orr	r0, r6, #786432
 2392              		.loc 1 994 0
 2393 00e6 0922     		movs	r2, #9
 2394              		.loc 1 993 0
 2395 00e8 40F01006 		orr	r6, r0, #16
 2396 00ec A661     		str	r6, [r4, #24]
 2397              		.loc 1 1000 0
 2398 00ee 48F24003 		movw	r3, #32832
 2399              		.loc 1 994 0
 2400 00f2 C4F81028 		str	r2, [r4, #2064]
 2401              		.loc 1 995 0
 2402 00f6 C4F81428 		str	r2, [r4, #2068]
 2403              		.loc 1 998 0
 2404 00fa 0B4A     		ldr	r2, .L378
 2405              		.loc 1 1000 0
 2406 00fc C1F20003 		movt	r3, 4096
 2407              	.LBB201:
 2408              	.LBB199:
 2409              		.loc 1 222 0
 2410 0100 01F11000 		add	r0, r1, #16
 2411              	.LBE199:
 2412              	.LBE201:
 2413              		.loc 1 1005 0
 2414 0104 41F48011 		orr	r1, r1, #1048576
 2415              		.loc 1 998 0
 2416 0108 C8F80C20 		str	r2, [r8, #12]
 2417              		.loc 1 999 0
 2418 010c C4F8105B 		str	r5, [r4, #2832]
 2419              		.loc 1 1000 0
 2420 0110 C4F8003B 		str	r3, [r4, #2816]
 2421              		.loc 1 1002 0
 2422 0114 C4F81059 		str	r5, [r4, #2320]
 2423              		.loc 1 1003 0
 2424 0118 C4F80039 		str	r3, [r4, #2304]
 2425              	.LVL245:
 2426              	.LBB202:
 2427              	.LBB200:
 2428              		.loc 1 222 0
 2429 011c C8F87000 		str	r0, [r8, #112]
 2430              	.LBE200:
 2431              	.LBE202:
 2432              		.loc 1 1005 0
 2433 0120 A162     		str	r1, [r4, #40]
 2434 0122 BDE8F88F 		pop	{r3, r4, r5, r6, r7, r8, r9, sl, fp, pc}
 2435              	.L379:
 2436 0126 00BF     		.align	2
 2437              	.L378:
ARM GAS  C:\Users\jenny\AppData\Local\Temp\ccSQJd7j.s 			page 44


 2438 0128 00000000 		.word	.LANCHOR4
 2439              		.cfi_endproc
 2440              	.LFE142:
 2441              		.size	usb_lld_reset, .-usb_lld_reset
 2442 012c AFF30080 		.section	.text.usb_lld_set_address,"ax",%progbits
 2443              		.align	2
 2444              		.p2align 4,,15
 2445              		.global	usb_lld_set_address
 2446              		.thumb
 2447              		.thumb_func
 2448              		.type	usb_lld_set_address, %function
 2449              	usb_lld_set_address:
 2450              	.LFB143:
 2451              		.loc 1 1017 0
 2452              		.cfi_startproc
 2453              		@ args = 0, pretend = 0, frame = 0
 2454              		@ frame_needed = 0, uses_anonymous_args = 0
 2455              		@ link register save eliminated.
 2456              	.LVL246:
 2457              		.loc 1 1018 0
 2458 0000 836E     		ldr	r3, [r0, #104]
 2459              	.LVL247:
 2460              		.loc 1 1020 0
 2461 0002 90F86610 		ldrb	r1, [r0, #102]	@ zero_extendqisi2
 2462 0006 D3F80028 		ldr	r2, [r3, #2048]
 2463 000a 22F4FE60 		bic	r0, r2, #2032
 2464              	.LVL248:
 2465 000e 40EA0111 		orr	r1, r0, r1, lsl #4
 2466 0012 C3F80018 		str	r1, [r3, #2048]
 2467 0016 7047     		bx	lr
 2468              		.cfi_endproc
 2469              	.LFE143:
 2470              		.size	usb_lld_set_address, .-usb_lld_set_address
 2471 0018 AFF30080 		.section	.text.usb_lld_init_endpoint,"ax",%progbits
 2471      AFF30080 
 2472              		.align	2
 2473              		.p2align 4,,15
 2474              		.global	usb_lld_init_endpoint
 2475              		.thumb
 2476              		.thumb_func
 2477              		.type	usb_lld_init_endpoint, %function
 2478              	usb_lld_init_endpoint:
 2479              	.LFB144:
 2480              		.loc 1 1031 0
 2481              		.cfi_startproc
 2482              		@ args = 0, pretend = 0, frame = 0
 2483              		@ frame_needed = 0, uses_anonymous_args = 0
 2484              	.LVL249:
 2485 0000 2DE9F041 		push	{r4, r5, r6, r7, r8, lr}
 2486              	.LCFI13:
 2487              		.cfi_def_cfa_offset 24
 2488              		.cfi_offset 4, -24
 2489              		.cfi_offset 5, -20
 2490              		.cfi_offset 6, -16
 2491              		.cfi_offset 7, -12
 2492              		.cfi_offset 8, -8
 2493              		.cfi_offset 14, -4
ARM GAS  C:\Users\jenny\AppData\Local\Temp\ccSQJd7j.s 			page 45


 2494              		.loc 1 1036 0
 2495 0004 8F1C     		adds	r7, r1, #2
 2496 0006 00EB8703 		add	r3, r0, r7, lsl #2
 2497              		.loc 1 1031 0
 2498 000a 0646     		mov	r6, r0
 2499              		.loc 1 1036 0
 2500 000c 5B68     		ldr	r3, [r3, #4]
 2501              		.loc 1 1033 0
 2502 000e 846E     		ldr	r4, [r0, #104]
 2503              	.LVL250:
 2504              		.loc 1 1036 0
 2505 0010 1A68     		ldr	r2, [r3, #0]
 2506 0012 02F00300 		and	r0, r2, #3
 2507              	.LVL251:
 2508 0016 0228     		cmp	r0, #2
 2509              		.loc 1 1031 0
 2510 0018 0D46     		mov	r5, r1
 2511              		.loc 1 1044 0
 2512 001a 4FF40048 		mov	r8, #32768
 2513              		.loc 1 1036 0
 2514 001e 54D0     		beq	.L384
 2515 0020 0328     		cmp	r0, #3
 2516 0022 55D0     		beq	.L385
 2517              		.loc 1 1038 0
 2518 0024 4146     		mov	r1, r8
 2519              	.LVL252:
 2520 0026 C1F20001 		movt	r1, 4096
 2521 002a C1F20408 		movt	r8, 4100
 2522 002e 0128     		cmp	r0, #1
 2523 0030 18BF     		it	ne
 2524 0032 8846     		movne	r8, r1
 2525              	.L383:
 2526              	.LVL253:
 2527              		.loc 1 1054 0
 2528 0034 6A01     		lsls	r2, r5, #5
 2529 0036 A018     		adds	r0, r4, r2
 2530 0038 0021     		movs	r1, #0
 2531 003a C0F8101B 		str	r1, [r0, #2832]
 2532              		.loc 1 1055 0
 2533 003e D868     		ldr	r0, [r3, #12]
 2534 0040 0028     		cmp	r0, #0
 2535 0042 48D0     		beq	.L386
 2536              		.loc 1 1056 0
 2537 0044 588A     		ldrh	r0, [r3, #18]
 2538 0046 05F15801 		add	r1, r5, #88
 2539 004a 4901     		lsls	r1, r1, #5
 2540 004c 48EA0000 		orr	r0, r8, r0
 2541 0050 6050     		str	r0, [r4, r1]
 2542              		.loc 1 1057 0
 2543 0052 4FF0010C 		mov	ip, #1
 2544 0056 D4F81C08 		ldr	r0, [r4, #2076]
 2545 005a 05F11001 		add	r1, r5, #16
 2546 005e 0CFA01F1 		lsl	r1, ip, r1
 2547 0062 0143     		orrs	r1, r1, r0
 2548 0064 C4F81C18 		str	r1, [r4, #2076]
 2549              	.L387:
 2550              		.loc 1 1065 0
ARM GAS  C:\Users\jenny\AppData\Local\Temp\ccSQJd7j.s 			page 46


 2551 0068 A218     		adds	r2, r4, r2
 2552              		.loc 1 1066 0
 2553 006a 9968     		ldr	r1, [r3, #8]
 2554              		.loc 1 1065 0
 2555 006c 0020     		movs	r0, #0
 2556 006e C2F81009 		str	r0, [r2, #2320]
 2557              		.loc 1 1066 0
 2558 0072 0029     		cmp	r1, #0
 2559 0074 42D0     		beq	.L388
 2560              		.loc 1 1069 0
 2561 0076 9A8B     		ldrh	r2, [r3, #28]
 2562              		.loc 1 1068 0
 2563 0078 198A     		ldrh	r1, [r3, #16]
 2564 007a 8B08     		lsrs	r3, r1, #2
 2565              	.LVL254:
 2566              		.loc 1 1069 0
 2567 007c 012A     		cmp	r2, #1
 2568              		.loc 1 1070 0
 2569 007e 88BF     		it	hi
 2570 0080 5343     		mulhi	r3, r2, r3
 2571              	.LVL255:
 2572              	.LBB203:
 2573              	.LBB204:
 2574              		.loc 1 221 0
 2575 0082 326F     		ldr	r2, [r6, #112]
 2576              	.LVL256:
 2577              	.LBE204:
 2578              	.LBE203:
 2579              		.loc 1 1071 0
 2580 0084 05F13F00 		add	r0, r5, #63
 2581 0088 04EB8001 		add	r1, r4, r0, lsl #2
 2582              	.LBB206:
 2583              	.LBB205:
 2584              		.loc 1 222 0
 2585 008c 9818     		adds	r0, r3, r2
 2586 008e 3067     		str	r0, [r6, #112]
 2587              	.LBE205:
 2588              	.LBE206:
 2589              		.loc 1 1071 0
 2590 0090 42EA0343 		orr	r3, r2, r3, lsl #16
 2591              	.LVL257:
 2592              		.loc 1 1073 0
 2593 0094 3046     		mov	r0, r6
 2594              		.loc 1 1077 0
 2595 0096 06EB8706 		add	r6, r6, r7, lsl #2
 2596              	.LVL258:
 2597              		.loc 1 1071 0
 2598 009a 4B60     		str	r3, [r1, #4]
 2599              		.loc 1 1073 0
 2600 009c 2946     		mov	r1, r5
 2601 009e FFF7FEFF 		bl	otg_txfifo_flush
 2602              	.LVL259:
 2603              		.loc 1 1077 0
 2604 00a2 7268     		ldr	r2, [r6, #4]
 2605              		.loc 1 1076 0
 2606 00a4 108A     		ldrh	r0, [r2, #16]
 2607              		.loc 1 1075 0
ARM GAS  C:\Users\jenny\AppData\Local\Temp\ccSQJd7j.s 			page 47


 2608 00a6 05F14801 		add	r1, r5, #72
 2609 00aa 4B01     		lsls	r3, r1, #5
 2610 00ac 40EA8551 		orr	r1, r0, r5, lsl #22
 2611              		.loc 1 1076 0
 2612 00b0 41EA0802 		orr	r2, r1, r8
 2613              		.loc 1 1075 0
 2614 00b4 E250     		str	r2, [r4, r3]
 2615              		.loc 1 1078 0
 2616 00b6 0123     		movs	r3, #1
 2617 00b8 D4F81C08 		ldr	r0, [r4, #2076]
 2618 00bc 03FA05F5 		lsl	r5, r3, r5
 2619 00c0 0543     		orrs	r5, r5, r0
 2620 00c2 C4F81C58 		str	r5, [r4, #2076]
 2621 00c6 BDE8F081 		pop	{r4, r5, r6, r7, r8, pc}
 2622              	.LVL260:
 2623              	.L384:
 2624              		.loc 1 1044 0
 2625 00ca C1F20808 		movt	r8, 4104
 2626              	.LVL261:
 2627              		.loc 1 1045 0
 2628 00ce B1E7     		b	.L383
 2629              	.L385:
 2630              	.LVL262:
 2631              		.loc 1 1047 0
 2632 00d0 C1F20C08 		movt	r8, 4108
 2633              	.LVL263:
 2634              		.loc 1 1048 0
 2635 00d4 AEE7     		b	.L383
 2636              	.LVL264:
 2637              	.L386:
 2638              		.loc 1 1060 0
 2639 00d6 05F15801 		add	r1, r5, #88
 2640 00da 4901     		lsls	r1, r1, #5
 2641              		.loc 1 1061 0
 2642 00dc 05F1100E 		add	lr, r5, #16
 2643              		.loc 1 1060 0
 2644 00e0 6058     		ldr	r0, [r4, r1]
 2645 00e2 20F40040 		bic	r0, r0, #32768
 2646 00e6 6050     		str	r0, [r4, r1]
 2647              		.loc 1 1061 0
 2648 00e8 0121     		movs	r1, #1
 2649 00ea D4F81C08 		ldr	r0, [r4, #2076]
 2650 00ee 01FA0EF1 		lsl	r1, r1, lr
 2651 00f2 20EA0100 		bic	r0, r0, r1
 2652 00f6 C4F81C08 		str	r0, [r4, #2076]
 2653 00fa B5E7     		b	.L387
 2654              	.L388:
 2655              		.loc 1 1081 0
 2656 00fc 05F13F03 		add	r3, r5, #63
 2657 0100 04EB8302 		add	r2, r4, r3, lsl #2
 2658 0104 4FF48061 		mov	r1, #1024
 2659 0108 C0F20021 		movt	r1, 512
 2660 010c 5160     		str	r1, [r2, #4]
 2661              		.loc 1 1082 0
 2662 010e 3046     		mov	r0, r6
 2663 0110 2946     		mov	r1, r5
 2664 0112 FFF7FEFF 		bl	otg_txfifo_flush
ARM GAS  C:\Users\jenny\AppData\Local\Temp\ccSQJd7j.s 			page 48


 2665              	.LVL265:
 2666              		.loc 1 1083 0
 2667 0116 05F14800 		add	r0, r5, #72
 2668 011a 4301     		lsls	r3, r0, #5
 2669 011c E258     		ldr	r2, [r4, r3]
 2670 011e 22F40041 		bic	r1, r2, #32768
 2671 0122 E150     		str	r1, [r4, r3]
 2672              		.loc 1 1084 0
 2673 0124 0123     		movs	r3, #1
 2674 0126 D4F81C08 		ldr	r0, [r4, #2076]
 2675 012a 03FA05F5 		lsl	r5, r3, r5
 2676 012e 20EA0505 		bic	r5, r0, r5
 2677 0132 C4F81C58 		str	r5, [r4, #2076]
 2678 0136 BDE8F081 		pop	{r4, r5, r6, r7, r8, pc}
 2679              		.cfi_endproc
 2680              	.LFE144:
 2681              		.size	usb_lld_init_endpoint, .-usb_lld_init_endpoint
 2682 013a 00BFAFF3 		.section	.text.usb_lld_disable_endpoints,"ax",%progbits
 2682      0080
 2683              		.align	2
 2684              		.p2align 4,,15
 2685              		.global	usb_lld_disable_endpoints
 2686              		.thumb
 2687              		.thumb_func
 2688              		.type	usb_lld_disable_endpoints, %function
 2689              	usb_lld_disable_endpoints:
 2690              	.LFB145:
 2691              		.loc 1 1095 0
 2692              		.cfi_startproc
 2693              		@ args = 0, pretend = 0, frame = 0
 2694              		@ frame_needed = 0, uses_anonymous_args = 0
 2695              		@ link register save eliminated.
 2696              	.LVL266:
 2697              	.LBB207:
 2698              	.LBB208:
 2699              		.loc 1 207 0
 2700 0000 C26E     		ldr	r2, [r0, #108]
 2701 0002 1168     		ldr	r1, [r2, #0]
 2702 0004 0167     		str	r1, [r0, #112]
 2703              	.LBE208:
 2704              	.LBE207:
 2705              		.loc 1 1102 0
 2706              		.loc 1 1101 0
 2707 0006 FFF7FEBF 		b	otg_disable_ep
 2708              	.LVL267:
 2709              		.cfi_endproc
 2710              	.LFE145:
 2711              		.size	usb_lld_disable_endpoints, .-usb_lld_disable_endpoints
 2712 000a 00BFAFF3 		.section	.text.usb_lld_get_status_out,"ax",%progbits
 2712      0080
 2713              		.align	2
 2714              		.p2align 4,,15
 2715              		.global	usb_lld_get_status_out
 2716              		.thumb
 2717              		.thumb_func
 2718              		.type	usb_lld_get_status_out, %function
 2719              	usb_lld_get_status_out:
ARM GAS  C:\Users\jenny\AppData\Local\Temp\ccSQJd7j.s 			page 49


 2720              	.LFB146:
 2721              		.loc 1 1116 0
 2722              		.cfi_startproc
 2723              		@ args = 0, pretend = 0, frame = 0
 2724              		@ frame_needed = 0, uses_anonymous_args = 0
 2725              		@ link register save eliminated.
 2726              	.LVL268:
 2727              		.loc 1 1121 0
 2728 0000 5831     		adds	r1, r1, #88
 2729              	.LVL269:
 2730 0002 836E     		ldr	r3, [r0, #104]
 2731 0004 4901     		lsls	r1, r1, #5
 2732 0006 5A58     		ldr	r2, [r3, r1]
 2733              	.LVL270:
 2734              		.loc 1 1122 0
 2735 0008 12F40040 		ands	r0, r2, #32768
 2736              	.LVL271:
 2737 000c 04D0     		beq	.L394
 2738              		.loc 1 1124 0
 2739 000e 12F4001F 		tst	r2, #2097152
 2740              		.loc 1 1125 0
 2741 0012 0CBF     		ite	eq
 2742 0014 0220     		moveq	r0, #2
 2743 0016 0120     		movne	r0, #1
 2744              	.L394:
 2745              		.loc 1 1127 0
 2746 0018 7047     		bx	lr
 2747              		.cfi_endproc
 2748              	.LFE146:
 2749              		.size	usb_lld_get_status_out, .-usb_lld_get_status_out
 2750 001a 00BFAFF3 		.section	.text.usb_lld_get_status_in,"ax",%progbits
 2750      0080
 2751              		.align	2
 2752              		.p2align 4,,15
 2753              		.global	usb_lld_get_status_in
 2754              		.thumb
 2755              		.thumb_func
 2756              		.type	usb_lld_get_status_in, %function
 2757              	usb_lld_get_status_in:
 2758              	.LFB147:
 2759              		.loc 1 1141 0
 2760              		.cfi_startproc
 2761              		@ args = 0, pretend = 0, frame = 0
 2762              		@ frame_needed = 0, uses_anonymous_args = 0
 2763              		@ link register save eliminated.
 2764              	.LVL272:
 2765              		.loc 1 1146 0
 2766 0000 4831     		adds	r1, r1, #72
 2767              	.LVL273:
 2768 0002 836E     		ldr	r3, [r0, #104]
 2769 0004 4901     		lsls	r1, r1, #5
 2770 0006 5A58     		ldr	r2, [r3, r1]
 2771              	.LVL274:
 2772              		.loc 1 1147 0
 2773 0008 12F40040 		ands	r0, r2, #32768
 2774              	.LVL275:
 2775 000c 04D0     		beq	.L398
ARM GAS  C:\Users\jenny\AppData\Local\Temp\ccSQJd7j.s 			page 50


 2776              		.loc 1 1149 0
 2777 000e 12F4001F 		tst	r2, #2097152
 2778              		.loc 1 1150 0
 2779 0012 0CBF     		ite	eq
 2780 0014 0220     		moveq	r0, #2
 2781 0016 0120     		movne	r0, #1
 2782              	.L398:
 2783              		.loc 1 1152 0
 2784 0018 7047     		bx	lr
 2785              		.cfi_endproc
 2786              	.LFE147:
 2787              		.size	usb_lld_get_status_in, .-usb_lld_get_status_in
 2788 001a 00BFAFF3 		.section	.text.usb_lld_read_setup,"ax",%progbits
 2788      0080
 2789              		.align	2
 2790              		.p2align 4,,15
 2791              		.global	usb_lld_read_setup
 2792              		.thumb
 2793              		.thumb_func
 2794              		.type	usb_lld_read_setup, %function
 2795              	usb_lld_read_setup:
 2796              	.LFB148:
 2797              		.loc 1 1168 0
 2798              		.cfi_startproc
 2799              		@ args = 0, pretend = 0, frame = 0
 2800              		@ frame_needed = 0, uses_anonymous_args = 0
 2801              		@ link register save eliminated.
 2802              	.LVL276:
 2803              		.loc 1 1170 0
 2804 0000 00EB8101 		add	r1, r0, r1, lsl #2
 2805              	.LVL277:
 2806 0004 CB68     		ldr	r3, [r1, #12]
 2807 0006 186A     		ldr	r0, [r3, #32]
 2808              	.LVL278:
 2809 0008 0168     		ldr	r1, [r0, #0]	@ unaligned
 2810 000a 4368     		ldr	r3, [r0, #4]	@ unaligned
 2811 000c 1160     		str	r1, [r2, #0]	@ unaligned
 2812 000e 5360     		str	r3, [r2, #4]	@ unaligned
 2813 0010 7047     		bx	lr
 2814              		.cfi_endproc
 2815              	.LFE148:
 2816              		.size	usb_lld_read_setup, .-usb_lld_read_setup
 2817 0012 00BFAFF3 		.section	.text.usb_lld_prepare_receive,"ax",%progbits
 2817      0080AFF3 
 2817      0080AFF3 
 2817      0080
 2818              		.align	2
 2819              		.p2align 4,,15
 2820              		.global	usb_lld_prepare_receive
 2821              		.thumb
 2822              		.thumb_func
 2823              		.type	usb_lld_prepare_receive, %function
 2824              	usb_lld_prepare_receive:
 2825              	.LFB149:
 2826              		.loc 1 1181 0
 2827              		.cfi_startproc
 2828              		@ args = 0, pretend = 0, frame = 0
ARM GAS  C:\Users\jenny\AppData\Local\Temp\ccSQJd7j.s 			page 51


 2829              		@ frame_needed = 0, uses_anonymous_args = 0
 2830              		@ link register save eliminated.
 2831              	.LVL279:
 2832              		.loc 1 1183 0
 2833 0000 00EB8103 		add	r3, r0, r1, lsl #2
 2834              		.loc 1 1181 0
 2835 0004 10B4     		push	{r4}
 2836              	.LCFI14:
 2837              		.cfi_def_cfa_offset 4
 2838              		.cfi_offset 4, -4
 2839              		.loc 1 1183 0
 2840 0006 DC68     		ldr	r4, [r3, #12]
 2841              	.LVL280:
 2842              		.loc 1 1188 0
 2843 0008 806E     		ldr	r0, [r0, #104]
 2844              	.LVL281:
 2845              		.loc 1 1186 0
 2846 000a A269     		ldr	r2, [r4, #24]
 2847 000c 638A     		ldrh	r3, [r4, #18]
 2848              	.LVL282:
 2849 000e 5468     		ldr	r4, [r2, #4]
 2850              	.LVL283:
 2851 0010 621E     		subs	r2, r4, #1
 2852              	.LVL284:
 2853 0012 D418     		adds	r4, r2, r3
 2854              		.loc 1 1188 0
 2855 0014 00EB4111 		add	r1, r0, r1, lsl #5
 2856              	.LVL285:
 2857 0018 43F0C042 		orr	r2, r3, #1610612736
 2858              		.loc 1 1186 0
 2859 001c B4FBF3F3 		udiv	r3, r4, r3
 2860              		.loc 1 1188 0
 2861 0020 42EAC340 		orr	r0, r2, r3, lsl #19
 2862 0024 C1F8100B 		str	r0, [r1, #2832]
 2863              		.loc 1 1191 0
 2864 0028 10BC     		pop	{r4}
 2865 002a 7047     		bx	lr
 2866              		.cfi_endproc
 2867              	.LFE149:
 2868              		.size	usb_lld_prepare_receive, .-usb_lld_prepare_receive
 2869 002c AFF30080 		.section	.text.usb_lld_prepare_transmit,"ax",%progbits
 2870              		.align	2
 2871              		.p2align 4,,15
 2872              		.global	usb_lld_prepare_transmit
 2873              		.thumb
 2874              		.thumb_func
 2875              		.type	usb_lld_prepare_transmit, %function
 2876              	usb_lld_prepare_transmit:
 2877              	.LFB150:
 2878              		.loc 1 1201 0
 2879              		.cfi_startproc
 2880              		@ args = 0, pretend = 0, frame = 0
 2881              		@ frame_needed = 0, uses_anonymous_args = 0
 2882              		@ link register save eliminated.
 2883              	.LVL286:
 2884              		.loc 1 1202 0
 2885 0000 00EB8103 		add	r3, r0, r1, lsl #2
ARM GAS  C:\Users\jenny\AppData\Local\Temp\ccSQJd7j.s 			page 52


 2886              		.loc 1 1201 0
 2887 0004 10B4     		push	{r4}
 2888              	.LCFI15:
 2889              		.cfi_def_cfa_offset 4
 2890              		.cfi_offset 4, -4
 2891              		.loc 1 1202 0
 2892 0006 DA68     		ldr	r2, [r3, #12]
 2893              	.LVL287:
 2894              		.loc 1 1205 0
 2895 0008 5369     		ldr	r3, [r2, #20]
 2896 000a 5B68     		ldr	r3, [r3, #4]
 2897 000c 6BB1     		cbz	r3, .L406
 2898              	.LBB209:
 2899              		.loc 1 1211 0
 2900 000e 128A     		ldrh	r2, [r2, #16]
 2901              	.LVL288:
 2902              		.loc 1 1213 0
 2903 0010 806E     		ldr	r0, [r0, #104]
 2904              	.LVL289:
 2905              		.loc 1 1211 0
 2906 0012 5C1E     		subs	r4, r3, #1
 2907 0014 A418     		adds	r4, r4, r2
 2908 0016 B4FBF2F2 		udiv	r2, r4, r2
 2909              	.LVL290:
 2910              		.loc 1 1213 0
 2911 001a 00EB4111 		add	r1, r0, r1, lsl #5
 2912              	.LVL291:
 2913 001e 43EAC243 		orr	r3, r3, r2, lsl #19
 2914 0022 C1F81039 		str	r3, [r1, #2320]
 2915              	.L403:
 2916              	.LBE209:
 2917              		.loc 1 1217 0
 2918 0026 10BC     		pop	{r4}
 2919 0028 7047     		bx	lr
 2920              	.LVL292:
 2921              	.L406:
 2922              		.loc 1 1207 0
 2923 002a 806E     		ldr	r0, [r0, #104]
 2924              	.LVL293:
 2925 002c 00EB4112 		add	r2, r0, r1, lsl #5
 2926              	.LVL294:
 2927 0030 4FF40021 		mov	r1, #524288
 2928              	.LVL295:
 2929 0034 C2F81019 		str	r1, [r2, #2320]
 2930 0038 F5E7     		b	.L403
 2931              		.cfi_endproc
 2932              	.LFE150:
 2933              		.size	usb_lld_prepare_transmit, .-usb_lld_prepare_transmit
 2934 003a 00BFAFF3 		.section	.text.usb_lld_start_out,"ax",%progbits
 2934      0080
 2935              		.align	2
 2936              		.p2align 4,,15
 2937              		.global	usb_lld_start_out
 2938              		.thumb
 2939              		.thumb_func
 2940              		.type	usb_lld_start_out, %function
 2941              	usb_lld_start_out:
ARM GAS  C:\Users\jenny\AppData\Local\Temp\ccSQJd7j.s 			page 53


 2942              	.LFB151:
 2943              		.loc 1 1227 0
 2944              		.cfi_startproc
 2945              		@ args = 0, pretend = 0, frame = 0
 2946              		@ frame_needed = 0, uses_anonymous_args = 0
 2947              		@ link register save eliminated.
 2948              	.LVL296:
 2949              		.loc 1 1229 0
 2950 0000 5831     		adds	r1, r1, #88
 2951              	.LVL297:
 2952 0002 836E     		ldr	r3, [r0, #104]
 2953 0004 4901     		lsls	r1, r1, #5
 2954 0006 5A58     		ldr	r2, [r3, r1]
 2955 0008 42F08060 		orr	r0, r2, #67108864
 2956              	.LVL298:
 2957 000c 5850     		str	r0, [r3, r1]
 2958 000e 7047     		bx	lr
 2959              		.cfi_endproc
 2960              	.LFE151:
 2961              		.size	usb_lld_start_out, .-usb_lld_start_out
 2962              		.section	.text.usb_lld_start_in,"ax",%progbits
 2963              		.align	2
 2964              		.p2align 4,,15
 2965              		.global	usb_lld_start_in
 2966              		.thumb
 2967              		.thumb_func
 2968              		.type	usb_lld_start_in, %function
 2969              	usb_lld_start_in:
 2970              	.LFB152:
 2971              		.loc 1 1240 0
 2972              		.cfi_startproc
 2973              		@ args = 0, pretend = 0, frame = 0
 2974              		@ frame_needed = 0, uses_anonymous_args = 0
 2975              		@ link register save eliminated.
 2976              	.LVL299:
 2977              		.loc 1 1242 0
 2978 0000 01F14802 		add	r2, r1, #72
 2979 0004 836E     		ldr	r3, [r0, #104]
 2980 0006 5201     		lsls	r2, r2, #5
 2981 0008 9858     		ldr	r0, [r3, r2]
 2982              	.LVL300:
 2983 000a 40F00440 		orr	r0, r0, #-2080374784
 2984 000e 9850     		str	r0, [r3, r2]
 2985              		.loc 1 1243 0
 2986 0010 0120     		movs	r0, #1
 2987 0012 D3F83428 		ldr	r2, [r3, #2100]
 2988 0016 00FA01F1 		lsl	r1, r0, r1
 2989              	.LVL301:
 2990 001a 1143     		orrs	r1, r1, r2
 2991 001c C3F83418 		str	r1, [r3, #2100]
 2992 0020 7047     		bx	lr
 2993              		.cfi_endproc
 2994              	.LFE152:
 2995              		.size	usb_lld_start_in, .-usb_lld_start_in
 2996 0022 00BFAFF3 		.section	.text.usb_lld_stall_out,"ax",%progbits
 2996      0080AFF3 
 2996      0080AFF3 
ARM GAS  C:\Users\jenny\AppData\Local\Temp\ccSQJd7j.s 			page 54


 2996      0080
 2997              		.align	2
 2998              		.p2align 4,,15
 2999              		.global	usb_lld_stall_out
 3000              		.thumb
 3001              		.thumb_func
 3002              		.type	usb_lld_stall_out, %function
 3003              	usb_lld_stall_out:
 3004              	.LFB153:
 3005              		.loc 1 1254 0
 3006              		.cfi_startproc
 3007              		@ args = 0, pretend = 0, frame = 0
 3008              		@ frame_needed = 0, uses_anonymous_args = 0
 3009              		@ link register save eliminated.
 3010              	.LVL302:
 3011              		.loc 1 1256 0
 3012 0000 5831     		adds	r1, r1, #88
 3013              	.LVL303:
 3014 0002 836E     		ldr	r3, [r0, #104]
 3015 0004 4901     		lsls	r1, r1, #5
 3016 0006 5A58     		ldr	r2, [r3, r1]
 3017 0008 42F40010 		orr	r0, r2, #2097152
 3018              	.LVL304:
 3019 000c 5850     		str	r0, [r3, r1]
 3020 000e 7047     		bx	lr
 3021              		.cfi_endproc
 3022              	.LFE153:
 3023              		.size	usb_lld_stall_out, .-usb_lld_stall_out
 3024              		.section	.text.usb_lld_stall_in,"ax",%progbits
 3025              		.align	2
 3026              		.p2align 4,,15
 3027              		.global	usb_lld_stall_in
 3028              		.thumb
 3029              		.thumb_func
 3030              		.type	usb_lld_stall_in, %function
 3031              	usb_lld_stall_in:
 3032              	.LFB154:
 3033              		.loc 1 1267 0
 3034              		.cfi_startproc
 3035              		@ args = 0, pretend = 0, frame = 0
 3036              		@ frame_needed = 0, uses_anonymous_args = 0
 3037              		@ link register save eliminated.
 3038              	.LVL305:
 3039              		.loc 1 1269 0
 3040 0000 4831     		adds	r1, r1, #72
 3041              	.LVL306:
 3042 0002 836E     		ldr	r3, [r0, #104]
 3043 0004 4901     		lsls	r1, r1, #5
 3044 0006 5A58     		ldr	r2, [r3, r1]
 3045 0008 42F40010 		orr	r0, r2, #2097152
 3046              	.LVL307:
 3047 000c 5850     		str	r0, [r3, r1]
 3048 000e 7047     		bx	lr
 3049              		.cfi_endproc
 3050              	.LFE154:
 3051              		.size	usb_lld_stall_in, .-usb_lld_stall_in
 3052              		.section	.text.usb_lld_clear_out,"ax",%progbits
ARM GAS  C:\Users\jenny\AppData\Local\Temp\ccSQJd7j.s 			page 55


 3053              		.align	2
 3054              		.p2align 4,,15
 3055              		.global	usb_lld_clear_out
 3056              		.thumb
 3057              		.thumb_func
 3058              		.type	usb_lld_clear_out, %function
 3059              	usb_lld_clear_out:
 3060              	.LFB155:
 3061              		.loc 1 1280 0
 3062              		.cfi_startproc
 3063              		@ args = 0, pretend = 0, frame = 0
 3064              		@ frame_needed = 0, uses_anonymous_args = 0
 3065              		@ link register save eliminated.
 3066              	.LVL308:
 3067              		.loc 1 1282 0
 3068 0000 5831     		adds	r1, r1, #88
 3069              	.LVL309:
 3070 0002 836E     		ldr	r3, [r0, #104]
 3071 0004 4901     		lsls	r1, r1, #5
 3072 0006 5A58     		ldr	r2, [r3, r1]
 3073 0008 22F40010 		bic	r0, r2, #2097152
 3074              	.LVL310:
 3075 000c 5850     		str	r0, [r3, r1]
 3076 000e 7047     		bx	lr
 3077              		.cfi_endproc
 3078              	.LFE155:
 3079              		.size	usb_lld_clear_out, .-usb_lld_clear_out
 3080              		.section	.text.usb_lld_clear_in,"ax",%progbits
 3081              		.align	2
 3082              		.p2align 4,,15
 3083              		.global	usb_lld_clear_in
 3084              		.thumb
 3085              		.thumb_func
 3086              		.type	usb_lld_clear_in, %function
 3087              	usb_lld_clear_in:
 3088              	.LFB156:
 3089              		.loc 1 1293 0
 3090              		.cfi_startproc
 3091              		@ args = 0, pretend = 0, frame = 0
 3092              		@ frame_needed = 0, uses_anonymous_args = 0
 3093              		@ link register save eliminated.
 3094              	.LVL311:
 3095              		.loc 1 1295 0
 3096 0000 4831     		adds	r1, r1, #72
 3097              	.LVL312:
 3098 0002 836E     		ldr	r3, [r0, #104]
 3099 0004 4901     		lsls	r1, r1, #5
 3100 0006 5A58     		ldr	r2, [r3, r1]
 3101 0008 22F40010 		bic	r0, r2, #2097152
 3102              	.LVL313:
 3103 000c 5850     		str	r0, [r3, r1]
 3104 000e 7047     		bx	lr
 3105              		.cfi_endproc
 3106              	.LFE156:
 3107              		.size	usb_lld_clear_in, .-usb_lld_clear_in
 3108              		.global	USBD2
 3109              		.global	USBD1
ARM GAS  C:\Users\jenny\AppData\Local\Temp\ccSQJd7j.s 			page 56


 3110              		.section	.rodata.fsparams,"a",%progbits
 3111              		.align	2
 3112              		.set	.LANCHOR2,. + 0
 3113              		.type	fsparams, %object
 3114              		.size	fsparams, 12
 3115              	fsparams:
 3116 0000 80000000 		.word	128
 3117 0004 80010000 		.word	384
 3118 0008 03000000 		.word	3
 3119              		.section	.bss.USBD1,"aw",%nobits
 3120              		.align	3
 3121              		.set	.LANCHOR0,. + 0
 3122              		.type	USBD1, %object
 3123              		.size	USBD1, 568
 3124              	USBD1:
 3125 0000 00000000 		.space	568
 3125      00000000 
 3125      00000000 
 3125      00000000 
 3125      00000000 
 3126              		.section	.bss.USBD2,"aw",%nobits
 3127              		.align	3
 3128              		.set	.LANCHOR1,. + 0
 3129              		.type	USBD2, %object
 3130              		.size	USBD2, 568
 3131              	USBD2:
 3132 0000 00000000 		.space	568
 3132      00000000 
 3132      00000000 
 3132      00000000 
 3132      00000000 
 3133              		.section	.rodata.hsparams,"a",%progbits
 3134              		.align	2
 3135              		.set	.LANCHOR3,. + 0
 3136              		.type	hsparams, %object
 3137              		.size	hsparams, 12
 3138              	hsparams:
 3139 0000 00010000 		.word	256
 3140 0004 00040000 		.word	1024
 3141 0008 05000000 		.word	5
 3142              		.section	.rodata.str1.4,"aMS",%progbits,1
 3143              		.align	2
 3144              	.LC0:
 3145 0000 7573625F 		.ascii	"usb_lld_pump\000"
 3145      6C6C645F 
 3145      70756D70 
 3145      00
 3146 000d 000000   		.section	.rodata.ep0config,"a",%progbits
 3147              		.align	2
 3148              		.set	.LANCHOR4,. + 0
 3149              		.type	ep0config, %object
 3150              		.size	ep0config, 36
 3151              	ep0config:
 3152 0000 00000000 		.word	0
 3153 0004 00000000 		.word	_usb_ep0setup
 3154 0008 00000000 		.word	_usb_ep0in
 3155 000c 00000000 		.word	_usb_ep0out
ARM GAS  C:\Users\jenny\AppData\Local\Temp\ccSQJd7j.s 			page 57


 3156 0010 4000     		.short	64
 3157 0012 4000     		.short	64
 3158 0014 00000000 		.word	ep0_state
 3159 0018 00000000 		.word	ep0_state
 3160 001c 0100     		.short	1
 3161 001e 0000     		.space	2
 3162 0020 00000000 		.word	ep0setup_buffer
 3163              		.section	.bss.ep0_state,"aw",%nobits
 3164              		.align	2
 3165              		.type	ep0_state, %object
 3166              		.size	ep0_state, 16
 3167              	ep0_state:
 3168 0000 00000000 		.space	16
 3168      00000000 
 3168      00000000 
 3168      00000000 
 3169              		.section	.bss.ep0setup_buffer,"aw",%nobits
 3170              		.align	2
 3171              		.type	ep0setup_buffer, %object
 3172              		.size	ep0setup_buffer, 8
 3173              	ep0setup_buffer:
 3174 0000 00000000 		.space	8
 3174      00000000 
 3175              		.text
 3176              	.Letext0:
 3177              		.file 3 "c:\\fbin\\yagarto\\bin\\../lib/gcc/arm-none-eabi/4.7.4/include/stddef.h"
 3178              		.file 4 "c:\\fbin\\yagarto\\bin\\../lib/gcc/arm-none-eabi/4.7.4/../../../../arm-none-eabi/include/
 3179              		.file 5 "../../os/ports/GCC/ARMCMx/chtypes.h"
 3180              		.file 6 "../../os/kernel/include/chlists.h"
 3181              		.file 7 "../../os/kernel/include/chthreads.h"
 3182              		.file 8 "../../os/ports/GCC/ARMCMx/chcore_v7m.h"
 3183              		.file 9 "../../os/kernel/include/chschd.h"
 3184              		.file 10 "../../os/kernel/include/chmtx.h"
 3185              		.file 11 "../../os/kernel/include/chqueues.h"
 3186              		.file 12 "../../os/hal/platforms/STM32F4xx/stm32f4xx.h"
 3187              		.file 13 "../../os/hal/platforms/STM32F4xx/hal_lld.h"
 3188              		.file 14 "../../os/hal/include/usb.h"
 3189              		.file 15 "../../os/hal/platforms/STM32/OTGv1/usb_lld.h"
 3190              		.file 16 "../../os/hal/platforms/STM32/OTGv1/stm32_otg.h"
 3191              		.file 17 "../../os/ports/common/ARMCMx/CMSIS/include/core_cm4.h"
 3192              		.file 18 "../../os/hal/include/hal.h"
 3193              		.file 19 "../../os/ports/common/ARMCMx/nvic.h"